
rom/extracted/BIN/A03.BIN:     file format binary


Disassembly of section .data:

80100000 <.data>:
80100000:	0d000000 	break
80100004:	24961080 	lb	s0,-27100(zero)
80100008:	34961080 	lb	s0,-27084(zero)
8010000c:	9c961080 	lb	s0,-26980(zero)
80100010:	b4971080 	lb	s0,-26700(zero)
80100014:	f0961080 	lb	s0,-26896(zero)
80100018:	00971080 	lb	s0,-26880(zero)
8010001c:	64971080 	lb	s0,-26780(zero)
80100020:	38b41080 	lb	s0,-19400(zero)
80100024:	70b41080 	lb	s0,-19344(zero)
80100028:	70b41080 	lb	s0,-19344(zero)
8010002c:	70b41080 	lb	s0,-19344(zero)
80100030:	70b41080 	lb	s0,-19344(zero)
80100034:	70b41080 	lb	s0,-19344(zero)
80100038:	28b51080 	lb	s0,-19160(zero)
8010003c:	7cb51080 	lb	s0,-19076(zero)
80100040:	ffcf4000 	.word	0x40cfff
80100044:	ff7f2000 	.word	0x207fff
80100048:	994c1000 	.word	0x104c99
8010004c:	5b2d0000 	.word	0x2d5b
80100050:	371b0000 	.word	0x1b37
80100054:	21100000 	move	v0,zero
80100058:	13090000 	.word	0x913
8010005c:	0b050000 	.word	0x50b
80100060:	07030000 	.word	0x307
80100064:	04010000 	.word	0x104
	...
80100080:	0800e003 	jr	ra
80100084:	00000000 	nop
80100088:	d8ffbd27 	addiu	sp,sp,-40
8010008c:	1400b1af 	sw	s1,20(sp)
80100090:	21888000 	move	s1,a0
80100094:	2400bfaf 	sw	ra,36(sp)
80100098:	2000b4af 	sw	s4,32(sp)
8010009c:	1c00b3af 	sw	s3,28(sp)
801000a0:	1800b2af 	sw	s2,24(sp)
801000a4:	1000b0af 	sw	s0,16(sp)
801000a8:	04002392 	lbu	v1,4(s1)
801000ac:	01001024 	li	s0,1
801000b0:	2f007010 	beq	v1,s0,0x80100170
801000b4:	02006228 	slti	v0,v1,2
801000b8:	05004010 	beqz	v0,0x801000d0
801000bc:	02000224 	li	v0,2
801000c0:	07006010 	beqz	v1,0x801000e0
801000c4:	21202002 	move	a0,s1
801000c8:	05260408 	j	0x80109814
801000cc:	00000000 	nop
801000d0:	61016210 	beq	v1,v0,0x80100658
801000d4:	00000000 	nop
801000d8:	05260408 	j	0x80109814
801000dc:	00000000 	nop
801000e0:	9261010c 	jal	0x80058648
801000e4:	21280000 	move	a1,zero
801000e8:	0f80023c 	lui	v0,0x800f
801000ec:	a4cf428c 	lw	v0,-12380(v0)
801000f0:	00000000 	nop
801000f4:	3c0022ae 	sw	v0,60(s1)
801000f8:	46002292 	lbu	v0,70(s1)
801000fc:	0b000324 	li	v1,11
80100100:	010030a2 	sb	s0,1(s1)
80100104:	560020a6 	sh	zero,86(s1)
80100108:	0a004310 	beq	v0,v1,0x80100134
8010010c:	580020a6 	sh	zero,88(s1)
80100110:	460023a2 	sb	v1,70(s1)
80100114:	21202002 	move	a0,s1
80100118:	e451010c 	jal	0x80054790
8010011c:	21286000 	move	a1,v1
80100120:	21202002 	move	a0,s1
80100124:	1280053c 	lui	a1,0x8012
80100128:	e8c0a524 	addiu	a1,a1,-16152
8010012c:	10df010c 	jal	0x80077c40
80100130:	0b000624 	li	a2,11
80100134:	21200000 	move	a0,zero
80100138:	3c000224 	li	v0,60
8010013c:	420022a6 	sh	v0,66(s1)
80100140:	0c80023c 	lui	v0,0x800c
80100144:	400020a6 	sh	zero,64(s1)
80100148:	0ef840a0 	sb	zero,-2034(v0)
8010014c:	060020a2 	sb	zero,6(s1)
80100150:	2b0020a2 	sb	zero,43(s1)
80100154:	add4010c 	jal	0x800752b4
80100158:	140020ae 	sw	zero,20(s1)
8010015c:	0100043c 	lui	a0,0x1
80100160:	49d7010c 	jal	0x80075d24
80100164:	fc1f8434 	ori	a0,a0,0x1ffc
80100168:	05260408 	j	0x80109814
8010016c:	00000000 	nop
80100170:	05002292 	lbu	v0,5(s1)
80100174:	00000000 	nop
80100178:	07004010 	beqz	v0,0x80100198
8010017c:	00000000 	nop
80100180:	05004314 	bne	v0,v1,0x80100198
80100184:	00000000 	nop
80100188:	40002296 	lhu	v0,64(s1)
8010018c:	00000000 	nop
80100190:	01004224 	addiu	v0,v0,1
80100194:	400022a6 	sh	v0,64(s1)
80100198:	1000348e 	lw	s4,16(s1)
8010019c:	00000000 	nop
801001a0:	04008492 	lbu	a0,4(s4)
801001a4:	01000224 	li	v0,1
801001a8:	98008214 	bne	a0,v0,0x8010040c
801001ac:	0c80133c 	lui	s3,0x800c
801001b0:	05008292 	lbu	v0,5(s4)
801001b4:	00000000 	nop
801001b8:	0600422c 	sltiu	v0,v0,6
801001bc:	90004014 	bnez	v0,0x80100400
801001c0:	60008326 	addiu	v1,s4,96
801001c4:	06003292 	lbu	s2,6(s1)
801001c8:	00000000 	nop
801001cc:	2b004412 	beq	s2,a0,0x8010027c
801001d0:	0200422a 	slti	v0,s2,2
801001d4:	05004010 	beqz	v0,0x801001ec
801001d8:	02000224 	li	v0,2
801001dc:	09004012 	beqz	s2,0x80100204
801001e0:	60000224 	li	v0,96
801001e4:	d6240408 	j	0x80109358
801001e8:	840022a6 	sh	v0,132(s1)
801001ec:	48004212 	beq	s2,v0,0x80100310
801001f0:	03000224 	li	v0,3
801001f4:	53004212 	beq	s2,v0,0x80100344
801001f8:	60000224 	li	v0,96
801001fc:	d6240408 	j	0x80109358
80100200:	840022a6 	sh	v0,132(s1)
80100204:	12006290 	lbu	v0,18(v1)
80100208:	00000000 	nop
8010020c:	01004230 	andi	v0,v0,0x1
80100210:	65004010 	beqz	v0,0x801003a8
80100214:	00000000 	nop
80100218:	6000828e 	lw	v0,96(s4)
8010021c:	00000000 	nop
80100220:	06004284 	lh	v0,6(v0)
80100224:	00000000 	nop
80100228:	00804230 	andi	v0,v0,0x8000
8010022c:	5e004014 	bnez	v0,0x801003a8
80100230:	0b000224 	li	v0,11
80100234:	16006384 	lh	v1,22(v1)
80100238:	00000000 	nop
8010023c:	23804300 	subu	s0,v0,v1
80100240:	46002392 	lbu	v1,70(s1)
80100244:	ff000232 	andi	v0,s0,0xff
80100248:	09006210 	beq	v1,v0,0x80100270
8010024c:	21202002 	move	a0,s1
80100250:	460030a2 	sb	s0,70(s1)
80100254:	e451010c 	jal	0x80054790
80100258:	21280002 	move	a1,s0
8010025c:	21202002 	move	a0,s1
80100260:	1280053c 	lui	a1,0x8012
80100264:	e8c0a524 	addiu	a1,a1,-16152
80100268:	10df010c 	jal	0x80077c40
8010026c:	21300002 	move	a2,s0
80100270:	60000224 	li	v0,96
80100274:	e3240408 	j	0x8010938c
80100278:	840022a6 	sh	v0,132(s1)
8010027c:	16006384 	lh	v1,22(v1)
80100280:	0b000224 	li	v0,11
80100284:	23804300 	subu	s0,v0,v1
80100288:	46002392 	lbu	v1,70(s1)
8010028c:	ff000232 	andi	v0,s0,0xff
80100290:	09006210 	beq	v1,v0,0x801002b8
80100294:	21202002 	move	a0,s1
80100298:	460030a2 	sb	s0,70(s1)
8010029c:	e451010c 	jal	0x80054790
801002a0:	21280002 	move	a1,s0
801002a4:	21202002 	move	a0,s1
801002a8:	1280053c 	lui	a1,0x8012
801002ac:	e8c0a524 	addiu	a1,a1,-16152
801002b0:	10df010c 	jal	0x80077c40
801002b4:	21300002 	move	a2,s0
801002b8:	60000224 	li	v0,96
801002bc:	840022a6 	sh	v0,132(s1)
801002c0:	4a008286 	lh	v0,74(s4)
801002c4:	00000000 	nop
801002c8:	49004004 	bltz	v0,0x801003f0
801002cc:	00140224 	li	v0,5120
801002d0:	4a0022a6 	sh	v0,74(s1)
801002d4:	06002292 	lbu	v0,6(s1)
801002d8:	46002392 	lbu	v1,70(s1)
801002dc:	01004224 	addiu	v0,v0,1
801002e0:	0b007210 	beq	v1,s2,0x80100310
801002e4:	060022a2 	sb	v0,6(s1)
801002e8:	460032a2 	sb	s2,70(s1)
801002ec:	21202002 	move	a0,s1
801002f0:	e451010c 	jal	0x80054790
801002f4:	01000524 	li	a1,1
801002f8:	21202002 	move	a0,s1
801002fc:	1280053c 	lui	a1,0x8012
80100300:	e8c0a524 	addiu	a1,a1,-16152
80100304:	01000624 	li	a2,1
80100308:	3fdf010c 	jal	0x80077cfc
8010030c:	04000724 	li	a3,4
80100310:	4a002296 	lhu	v0,74(s1)
80100314:	84002396 	lhu	v1,132(s1)
80100318:	4a002496 	lhu	a0,74(s1)
8010031c:	00140200 	sll	v0,v0,0x10
80100320:	03160200 	sra	v0,v0,0x18
80100324:	21186200 	addu	v1,v1,v0
80100328:	25ff8424 	addiu	a0,a0,-219
8010032c:	4a0024a6 	sh	a0,74(s1)
80100330:	00240400 	sll	a0,a0,0x10
80100334:	2e008104 	bgez	a0,0x801003f0
80100338:	840023a6 	sh	v1,132(s1)
8010033c:	d1240408 	j	0x80109344
80100340:	00000000 	nop
80100344:	4a002296 	lhu	v0,74(s1)
80100348:	84002396 	lhu	v1,132(s1)
8010034c:	00140200 	sll	v0,v0,0x10
80100350:	03160200 	sra	v0,v0,0x18
80100354:	21186200 	addu	v1,v1,v0
80100358:	4a002296 	lhu	v0,74(s1)
8010035c:	840023a6 	sh	v1,132(s1)
80100360:	84002386 	lh	v1,132(s1)
80100364:	25ff4224 	addiu	v0,v0,-219
80100368:	60006328 	slti	v1,v1,96
8010036c:	20006010 	beqz	v1,0x801003f0
80100370:	4a0022a6 	sh	v0,74(s1)
80100374:	46002292 	lbu	v0,70(s1)
80100378:	00000000 	nop
8010037c:	0a005210 	beq	v0,s2,0x801003a8
80100380:	21202002 	move	a0,s1
80100384:	460032a2 	sb	s2,70(s1)
80100388:	e451010c 	jal	0x80054790
8010038c:	03000524 	li	a1,3
80100390:	21202002 	move	a0,s1
80100394:	1280053c 	lui	a1,0x8012
80100398:	e8c0a524 	addiu	a1,a1,-16152
8010039c:	03000624 	li	a2,3
801003a0:	3fdf010c 	jal	0x80077cfc
801003a4:	04000724 	li	a3,4
801003a8:	06002292 	lbu	v0,6(s1)
801003ac:	00000000 	nop
801003b0:	01004224 	addiu	v0,v0,1
801003b4:	e3240408 	j	0x8010938c
801003b8:	060022a2 	sb	v0,6(s1)
801003bc:	12006290 	lbu	v0,18(v1)
801003c0:	00000000 	nop
801003c4:	01004230 	andi	v0,v0,0x1
801003c8:	09004010 	beqz	v0,0x801003f0
801003cc:	00000000 	nop
801003d0:	0000628c 	lw	v0,0(v1)
801003d4:	00000000 	nop
801003d8:	06004284 	lh	v0,6(v0)
801003dc:	00000000 	nop
801003e0:	00804230 	andi	v0,v0,0x8000
801003e4:	02004014 	bnez	v0,0x801003f0
801003e8:	00000000 	nop
801003ec:	060020a2 	sb	zero,6(s1)
801003f0:	5adb010c 	jal	0x80076d68
801003f4:	21202002 	move	a0,s1
801003f8:	ea240408 	j	0x801093a8
801003fc:	0c80133c 	lui	s3,0x800c
80100400:	60000224 	li	v0,96
80100404:	840022a6 	sh	v0,132(s1)
80100408:	0c80133c 	lui	s3,0x800c
8010040c:	08f87226 	addiu	s2,s3,-2040
80100410:	31004292 	lbu	v0,49(s2)
80100414:	00000000 	nop
80100418:	17014014 	bnez	v0,0x80100878
8010041c:	00000000 	nop
80100420:	05004382 	lb	v1,5(s2)
80100424:	00000000 	nop
80100428:	02006228 	slti	v0,v1,2
8010042c:	12014010 	beqz	v0,0x80100878
80100430:	01001024 	li	s0,1
80100434:	09007014 	bne	v1,s0,0x8010045c
80100438:	02000224 	li	v0,2
8010043c:	050042a2 	sb	v0,5(s2)
80100440:	08f860a2 	sb	zero,-2040(s3)
80100444:	040022a2 	sb	v0,4(s1)
80100448:	050020a2 	sb	zero,5(s1)
8010044c:	040082a2 	sb	v0,4(s4)
80100450:	050080a2 	sb	zero,5(s4)
80100454:	05260408 	j	0x80109814
80100458:	2b0020a2 	sb	zero,43(s1)
8010045c:	083a040c 	jal	0x8010e820
80100460:	21208002 	move	a0,s4
80100464:	00140200 	sll	v0,v0,0x10
80100468:	66004010 	beqz	v0,0x80100604
8010046c:	21202002 	move	a0,s1
80100470:	02000224 	li	v0,2
80100474:	060050a2 	sb	s0,6(s2)
80100478:	08f860a2 	sb	zero,-2040(s3)
8010047c:	04001324 	li	s3,4
80100480:	040022a2 	sb	v0,4(s1)
80100484:	0c80023c 	lui	v0,0x800c
80100488:	40002396 	lhu	v1,64(s1)
8010048c:	b6f95224 	addiu	s2,v0,-1610
80100490:	050033a2 	sb	s3,5(s1)
80100494:	f226040c 	jal	0x80109bc8
80100498:	b6f943a4 	sh	v1,-1610(v0)
8010049c:	bafe5026 	addiu	s0,s2,-326
801004a0:	97000392 	lbu	v1,151(s0)
801004a4:	ff000224 	li	v0,255
801004a8:	28006210 	beq	v1,v0,0x8010054c
801004ac:	00000000 	nop
801004b0:	48010386 	lh	v1,328(s0)
801004b4:	00000000 	nop
801004b8:	04006014 	bnez	v1,0x801004cc
801004bc:	00000000 	nop
801004c0:	40002296 	lhu	v0,64(s1)
801004c4:	21250408 	j	0x80109484
801004c8:	020042a6 	sh	v0,2(s2)
801004cc:	40002286 	lh	v0,64(s1)
801004d0:	00000000 	nop
801004d4:	2a104300 	slt	v0,v0,v1
801004d8:	40002396 	lhu	v1,64(s1)
801004dc:	03004010 	beqz	v0,0x801004ec
801004e0:	0c80063c 	lui	a2,0x800c
801004e4:	480103a6 	sh	v1,328(s0)
801004e8:	0c80063c 	lui	a2,0x800c
801004ec:	40002286 	lh	v0,64(s1)
801004f0:	f6f9c384 	lh	v1,-1546(a2)
801004f4:	00000000 	nop
801004f8:	2a104300 	slt	v0,v0,v1
801004fc:	0a004010 	beqz	v0,0x80100528
80100500:	f6f9d024 	addiu	s0,a2,-1546
80100504:	18000424 	li	a0,24
80100508:	03000524 	li	a1,3
8010050c:	34080224 	li	v0,2100
80100510:	0ef8010c 	jal	0x8007e038
80100514:	f6f9c2a4 	sh	v0,-1546(a2)
80100518:	140022ae 	sw	v0,20(s1)
8010051c:	04000224 	li	v0,4
80100520:	05260408 	j	0x80109814
80100524:	050002a2 	sb	v0,5(s0)
80100528:	28000424 	li	a0,40
8010052c:	0ef8010c 	jal	0x8007e038
80100530:	03000524 	li	a1,3
80100534:	140022ae 	sw	v0,20(s1)
80100538:	03000224 	li	v0,3
8010053c:	c83e010c 	jal	0x8004fb20
80100540:	050002a2 	sb	v0,5(s0)
80100544:	05260408 	j	0x80109814
80100548:	00000000 	nop
8010054c:	99000292 	lbu	v0,153(s0)
80100550:	00000000 	nop
80100554:	1d004310 	beq	v0,v1,0x801005cc
80100558:	00000000 	nop
8010055c:	40002286 	lh	v0,64(s1)
80100560:	48010386 	lh	v1,328(s0)
80100564:	00000000 	nop
80100568:	2a104300 	slt	v0,v0,v1
8010056c:	40002396 	lhu	v1,64(s1)
80100570:	02004010 	beqz	v0,0x8010057c
80100574:	00000000 	nop
80100578:	020043a6 	sh	v1,2(s2)
8010057c:	40002286 	lh	v0,64(s1)
80100580:	86010386 	lh	v1,390(s0)
80100584:	00000000 	nop
80100588:	2a104300 	slt	v0,v0,v1
8010058c:	06004010 	beqz	v0,0x801005a8
80100590:	18000424 	li	a0,24
80100594:	0ef8010c 	jal	0x8007e038
80100598:	03000524 	li	a1,3
8010059c:	140022ae 	sw	v0,20(s1)
801005a0:	05260408 	j	0x80109814
801005a4:	8b0113a2 	sb	s3,395(s0)
801005a8:	28000424 	li	a0,40
801005ac:	0ef8010c 	jal	0x8007e038
801005b0:	03000524 	li	a1,3
801005b4:	140022ae 	sw	v0,20(s1)
801005b8:	03000224 	li	v0,3
801005bc:	c83e010c 	jal	0x8004fb20
801005c0:	8b0102a2 	sb	v0,395(s0)
801005c4:	05260408 	j	0x80109814
801005c8:	00000000 	nop
801005cc:	40002286 	lh	v0,64(s1)
801005d0:	48010386 	lh	v1,328(s0)
801005d4:	00000000 	nop
801005d8:	2a104300 	slt	v0,v0,v1
801005dc:	40002396 	lhu	v1,64(s1)
801005e0:	05004010 	beqz	v0,0x801005f8
801005e4:	19000424 	li	a0,25
801005e8:	03000524 	li	a1,3
801005ec:	0ef8010c 	jal	0x8007e038
801005f0:	020043a6 	sh	v1,2(s2)
801005f4:	140022ae 	sw	v0,20(s1)
801005f8:	03000224 	li	v0,3
801005fc:	05260408 	j	0x80109814
80100600:	8b0102a2 	sb	v0,395(s0)
80100604:	05002292 	lbu	v0,5(s1)
80100608:	00000000 	nop
8010060c:	9a005014 	bne	v0,s0,0x80100878
80100610:	0c80023c 	lui	v0,0x800c
80100614:	70f84424 	addiu	a0,v0,-1936
80100618:	99008390 	lbu	v1,153(a0)
8010061c:	ff000224 	li	v0,255
80100620:	0a006210 	beq	v1,v0,0x8010064c
80100624:	0c80033c 	lui	v1,0x800c
80100628:	40002386 	lh	v1,64(s1)
8010062c:	86018284 	lh	v0,390(a0)
80100630:	00000000 	nop
80100634:	05006214 	bne	v1,v0,0x8010064c
80100638:	0c80033c 	lui	v1,0x800c
8010063c:	35000424 	li	a0,53
80100640:	653b010c 	jal	0x8004ed94
80100644:	41000524 	li	a1,65
80100648:	0c80033c 	lui	v1,0x800c
8010064c:	01000224 	li	v0,1
80100650:	05260408 	j	0x80109814
80100654:	1ef862a0 	sb	v0,-2018(v1)
80100658:	05002392 	lbu	v1,5(s1)
8010065c:	00000000 	nop
80100660:	0700622c 	sltiu	v0,v1,7
80100664:	6c004010 	beqz	v0,0x80100818
80100668:	1180023c 	lui	v0,0x8011
8010066c:	a08f4224 	addiu	v0,v0,-28768
80100670:	80180300 	sll	v1,v1,0x2
80100674:	21186200 	addu	v1,v1,v0
80100678:	0000628c 	lw	v0,0(v1)
8010067c:	00000000 	nop
80100680:	08004000 	jr	v0
80100684:	00000000 	nop
80100688:	05002292 	lbu	v0,5(s1)
8010068c:	5a000324 	li	v1,90
80100690:	d5250408 	j	0x80109754
80100694:	420023a6 	sh	v1,66(s1)
80100698:	42002296 	lhu	v0,66(s1)
8010069c:	00000000 	nop
801006a0:	ffff4224 	addiu	v0,v0,-1
801006a4:	420022a6 	sh	v0,66(s1)
801006a8:	00140200 	sll	v0,v0,0x10
801006ac:	5b004014 	bnez	v0,0x8010081c
801006b0:	0c80023c 	lui	v0,0x800c
801006b4:	05002292 	lbu	v0,5(s1)
801006b8:	02000424 	li	a0,2
801006bc:	01004224 	addiu	v0,v0,1
801006c0:	050022a2 	sb	v0,5(s1)
801006c4:	0c80023c 	lui	v0,0x800c
801006c8:	08f840a0 	sb	zero,-2040(v0)
801006cc:	08f84224 	addiu	v0,v0,-2040
801006d0:	070044a0 	sb	a0,7(v0)
801006d4:	1400238e 	lw	v1,20(s1)
801006d8:	801f023c 	lui	v0,0x1f80
801006dc:	4e006010 	beqz	v1,0x80100818
801006e0:	370144a0 	sb	a0,311(v0)
801006e4:	04006290 	lbu	v0,4(v1)
801006e8:	00000000 	nop
801006ec:	0200422c 	sltiu	v0,v0,2
801006f0:	4a004010 	beqz	v0,0x8010081c
801006f4:	0c80023c 	lui	v0,0x800c
801006f8:	ee250408 	j	0x801097b8
801006fc:	040064a0 	sb	a0,4(v1)
80100700:	a245040c 	jal	0x80111688
80100704:	00000000 	nop
80100708:	21184000 	move	v1,v0
8010070c:	01000224 	li	v0,1
80100710:	05006214 	bne	v1,v0,0x80100728
80100714:	02000224 	li	v0,2
80100718:	0c80033c 	lui	v1,0x800c
8010071c:	03000224 	li	v0,3
80100720:	d4250408 	j	0x80109750
80100724:	0df862a0 	sb	v0,-2035(v1)
80100728:	3c006214 	bne	v1,v0,0x8010081c
8010072c:	0c80023c 	lui	v0,0x800c
80100730:	0c80023c 	lui	v0,0x800c
80100734:	08f84224 	addiu	v0,v0,-2040
80100738:	03000424 	li	a0,3
8010073c:	04010324 	li	v1,260
80100740:	310044a0 	sb	a0,49(v0)
80100744:	320043a4 	sh	v1,50(v0)
80100748:	0c80023c 	lui	v0,0x800c
8010074c:	d4250408 	j	0x80109750
80100750:	fbf944a0 	sb	a0,-1541(v0)
80100754:	05002292 	lbu	v0,5(s1)
80100758:	5a000324 	li	v1,90
8010075c:	d5250408 	j	0x80109754
80100760:	420023a6 	sh	v1,66(s1)
80100764:	42002296 	lhu	v0,66(s1)
80100768:	00000000 	nop
8010076c:	ffff4224 	addiu	v0,v0,-1
80100770:	420022a6 	sh	v0,66(s1)
80100774:	00140200 	sll	v0,v0,0x10
80100778:	28004014 	bnez	v0,0x8010081c
8010077c:	0c80023c 	lui	v0,0x800c
80100780:	8b000424 	li	a0,139
80100784:	21280000 	move	a1,zero
80100788:	64d1010c 	jal	0x80074590
8010078c:	2130a000 	move	a2,a1
80100790:	5a000224 	li	v0,90
80100794:	420022a6 	sh	v0,66(s1)
80100798:	0c80023c 	lui	v0,0x800c
8010079c:	fbf94390 	lbu	v1,-1541(v0)
801007a0:	03000224 	li	v0,3
801007a4:	03006214 	bne	v1,v0,0x801007b4
801007a8:	01000224 	li	v0,1
801007ac:	ed250408 	j	0x801097b4
801007b0:	050022a2 	sb	v0,5(s1)
801007b4:	05002292 	lbu	v0,5(s1)
801007b8:	00000000 	nop
801007bc:	01004224 	addiu	v0,v0,1
801007c0:	ed250408 	j	0x801097b4
801007c4:	050022a2 	sb	v0,5(s1)
801007c8:	42002296 	lhu	v0,66(s1)
801007cc:	00000000 	nop
801007d0:	ffff4224 	addiu	v0,v0,-1
801007d4:	420022a6 	sh	v0,66(s1)
801007d8:	00140200 	sll	v0,v0,0x10
801007dc:	0f004014 	bnez	v0,0x8010081c
801007e0:	0c80023c 	lui	v0,0x800c
801007e4:	05002292 	lbu	v0,5(s1)
801007e8:	02000324 	li	v1,2
801007ec:	01004224 	addiu	v0,v0,1
801007f0:	050022a2 	sb	v0,5(s1)
801007f4:	801f023c 	lui	v0,0x1f80
801007f8:	370143a0 	sb	v1,311(v0)
801007fc:	0c80023c 	lui	v0,0x800c
80100800:	08f84224 	addiu	v0,v0,-2040
80100804:	070043a0 	sb	v1,7(v0)
80100808:	04010324 	li	v1,260
8010080c:	320043a4 	sh	v1,50(v0)
80100810:	03000324 	li	v1,3
80100814:	310043a0 	sb	v1,49(v0)
80100818:	0c80023c 	lui	v0,0x800c
8010081c:	0ef84290 	lbu	v0,-2034(v0)
80100820:	00000000 	nop
80100824:	14004010 	beqz	v0,0x80100878
80100828:	0b000224 	li	v0,11
8010082c:	1000348e 	lw	s4,16(s1)
80100830:	00000000 	nop
80100834:	76008386 	lh	v1,118(s4)
80100838:	00000000 	nop
8010083c:	23804300 	subu	s0,v0,v1
80100840:	46002392 	lbu	v1,70(s1)
80100844:	ff000232 	andi	v0,s0,0xff
80100848:	09006210 	beq	v1,v0,0x80100870
8010084c:	21202002 	move	a0,s1
80100850:	460030a2 	sb	s0,70(s1)
80100854:	e451010c 	jal	0x80054790
80100858:	21280002 	move	a1,s0
8010085c:	21202002 	move	a0,s1
80100860:	1280053c 	lui	a1,0x8012
80100864:	e8c0a524 	addiu	a1,a1,-16152
80100868:	10df010c 	jal	0x80077c40
8010086c:	21300002 	move	a2,s0
80100870:	5adb010c 	jal	0x80076d68
80100874:	21202002 	move	a0,s1
80100878:	2e002396 	lhu	v1,46(s1)
8010087c:	2400bf8f 	lw	ra,36(sp)
80100880:	2000b48f 	lw	s4,32(sp)
80100884:	1c00b38f 	lw	s3,28(sp)
80100888:	1800b28f 	lw	s2,24(sp)
8010088c:	1000b08f 	lw	s0,16(sp)
80100890:	801f023c 	lui	v0,0x1f80
80100894:	600143a4 	sh	v1,352(v0)
80100898:	32002396 	lhu	v1,50(s1)
8010089c:	801f023c 	lui	v0,0x1f80
801008a0:	620143a4 	sh	v1,354(v0)
801008a4:	36002396 	lhu	v1,54(s1)
801008a8:	801f023c 	lui	v0,0x1f80
801008ac:	640143a4 	sh	v1,356(v0)
801008b0:	58002396 	lhu	v1,88(s1)
801008b4:	801f023c 	lui	v0,0x1f80
801008b8:	6a0143a4 	sh	v1,362(v0)
801008bc:	56002396 	lhu	v1,86(s1)
801008c0:	1400b18f 	lw	s1,20(sp)
801008c4:	801f023c 	lui	v0,0x1f80
801008c8:	680143a4 	sh	v1,360(v0)
801008cc:	0800e003 	jr	ra
801008d0:	2800bd27 	addiu	sp,sp,40
801008d4:	b0ffbd27 	addiu	sp,sp,-80
801008d8:	3800b2af 	sw	s2,56(sp)
801008dc:	21908000 	move	s2,a0
801008e0:	4c00bfaf 	sw	ra,76(sp)
801008e4:	4800b6af 	sw	s6,72(sp)
801008e8:	4400b5af 	sw	s5,68(sp)
801008ec:	4000b4af 	sw	s4,64(sp)
801008f0:	3c00b3af 	sw	s3,60(sp)
801008f4:	3400b1af 	sw	s1,52(sp)
801008f8:	3000b0af 	sw	s0,48(sp)
801008fc:	b8004586 	lh	a1,184(s2)
80100900:	ba004686 	lh	a2,186(s2)
80100904:	1000508e 	lw	s0,16(s2)
80100908:	bc004786 	lh	a3,188(s2)
8010090c:	98000296 	lhu	v0,152(s0)
80100910:	00000000 	nop
80100914:	980042a6 	sh	v0,152(s2)
80100918:	9e000296 	lhu	v0,158(s0)
8010091c:	00000000 	nop
80100920:	9e0042a6 	sh	v0,158(s2)
80100924:	a4000296 	lhu	v0,164(s0)
80100928:	00000000 	nop
8010092c:	a40042a6 	sh	v0,164(s2)
80100930:	9a000296 	lhu	v0,154(s0)
80100934:	00000000 	nop
80100938:	9a0042a6 	sh	v0,154(s2)
8010093c:	a0000296 	lhu	v0,160(s0)
80100940:	00000000 	nop
80100944:	a00042a6 	sh	v0,160(s2)
80100948:	a6000296 	lhu	v0,166(s0)
8010094c:	00000000 	nop
80100950:	a60042a6 	sh	v0,166(s2)
80100954:	9c000296 	lhu	v0,156(s0)
80100958:	00000000 	nop
8010095c:	9c0042a6 	sh	v0,156(s2)
80100960:	a2000296 	lhu	v0,162(s0)
80100964:	00000000 	nop
80100968:	a20042a6 	sh	v0,162(s2)
8010096c:	801f023c 	lui	v0,0x1f80
80100970:	00005424 	addiu	s4,v0,0
80100974:	a8000296 	lhu	v0,168(s0)
80100978:	21208002 	move	a0,s4
8010097c:	ef45010c 	jal	0x800517bc
80100980:	a80042a6 	sh	v0,168(s2)
80100984:	21208002 	move	a0,s4
80100988:	98005126 	addiu	s1,s2,152
8010098c:	d810020c 	jal	0x80084360
80100990:	21282002 	move	a1,s1
80100994:	9a004386 	lh	v1,154(s2)
80100998:	84004286 	lh	v0,132(s2)
8010099c:	00000000 	nop
801009a0:	18006200 	mult	v1,v0
801009a4:	12480000 	mflo	t1
801009a8:	a0004386 	lh	v1,160(s2)
801009ac:	00000000 	nop
801009b0:	18006200 	mult	v1,v0
801009b4:	21980000 	move	s3,zero
801009b8:	21202002 	move	a0,s1
801009bc:	88004526 	addiu	a1,s2,136
801009c0:	2e000296 	lhu	v0,46(s0)
801009c4:	031b0900 	sra	v1,t1,0xc
801009c8:	23104300 	subu	v0,v0,v1
801009cc:	a6004386 	lh	v1,166(s2)
801009d0:	ac004626 	addiu	a2,s2,172
801009d4:	2e0042a6 	sh	v0,46(s2)
801009d8:	12380000 	mflo	a3
801009dc:	84004286 	lh	v0,132(s2)
801009e0:	033b0700 	sra	a3,a3,0xc
801009e4:	18006200 	mult	v1,v0
801009e8:	32000296 	lhu	v0,50(s0)
801009ec:	98004386 	lh	v1,152(s2)
801009f0:	23104700 	subu	v0,v0,a3
801009f4:	320042a6 	sh	v0,50(s2)
801009f8:	c0100300 	sll	v0,v1,0x3
801009fc:	21104300 	addu	v0,v0,v1
80100a00:	80100200 	sll	v0,v0,0x2
80100a04:	21104300 	addu	v0,v0,v1
80100a08:	c3120200 	sra	v0,v0,0xb
80100a0c:	2e004396 	lhu	v1,46(s2)
80100a10:	36000796 	lhu	a3,54(s0)
80100a14:	21186200 	addu	v1,v1,v0
80100a18:	2e0043a6 	sh	v1,46(s2)
80100a1c:	9e004386 	lh	v1,158(s2)
80100a20:	12480000 	mflo	t1
80100a24:	03130900 	sra	v0,t1,0xc
80100a28:	2338e200 	subu	a3,a3,v0
80100a2c:	c0100300 	sll	v0,v1,0x3
80100a30:	21104300 	addu	v0,v0,v1
80100a34:	80100200 	sll	v0,v0,0x2
80100a38:	21104300 	addu	v0,v0,v1
80100a3c:	32004396 	lhu	v1,50(s2)
80100a40:	c3120200 	sra	v0,v0,0xb
80100a44:	360047a6 	sh	a3,54(s2)
80100a48:	a4004786 	lh	a3,164(s2)
80100a4c:	21186200 	addu	v1,v1,v0
80100a50:	c0100700 	sll	v0,a3,0x3
80100a54:	21104700 	addu	v0,v0,a3
80100a58:	80100200 	sll	v0,v0,0x2
80100a5c:	21104700 	addu	v0,v0,a3
80100a60:	320043a6 	sh	v1,50(s2)
80100a64:	36004396 	lhu	v1,54(s2)
80100a68:	c3120200 	sra	v0,v0,0xb
80100a6c:	21186200 	addu	v1,v1,v0
80100a70:	1c11020c 	jal	0x80084470
80100a74:	360043a6 	sh	v1,54(s2)
80100a78:	2e004486 	lh	a0,46(s2)
80100a7c:	32004586 	lh	a1,50(s2)
80100a80:	b000438e 	lw	v1,176(s2)
80100a84:	ac00428e 	lw	v0,172(s2)
80100a88:	21186500 	addu	v1,v1,a1
80100a8c:	b00043ae 	sw	v1,176(s2)
80100a90:	36004386 	lh	v1,54(s2)
80100a94:	21104400 	addu	v0,v0,a0
80100a98:	ac0042ae 	sw	v0,172(s2)
80100a9c:	b400428e 	lw	v0,180(s2)
80100aa0:	08004492 	lbu	a0,8(s2)
80100aa4:	21104300 	addu	v0,v0,v1
80100aa8:	56008010 	beqz	a0,0x80100c04
80100aac:	b40042ae 	sw	v0,180(s2)
80100ab0:	21b08002 	move	s6,s4
80100ab4:	801f023c 	lui	v0,0x1f80
80100ab8:	20005524 	addiu	s5,v0,32
80100abc:	801f023c 	lui	v0,0x1f80
80100ac0:	40005424 	addiu	s4,v0,64
80100ac4:	21884002 	move	s1,s2
80100ac8:	c000228e 	lw	v0,192(s1)
80100acc:	00000000 	nop
80100ad0:	38004584 	lh	a1,56(v0)
80100ad4:	3a004684 	lh	a2,58(v0)
80100ad8:	3c004784 	lh	a3,60(v0)
80100adc:	06005084 	lh	s0,6(v0)
80100ae0:	ef45010c 	jal	0x800517bc
80100ae4:	2120c002 	move	a0,s6
80100ae8:	c000248e 	lw	a0,192(s1)
80100aec:	2128a002 	move	a1,s5
80100af0:	2015020c 	jal	0x80085480
80100af4:	08008424 	addiu	a0,a0,8
80100af8:	2120a002 	move	a0,s5
80100afc:	2128c002 	move	a1,s6
80100b00:	4410020c 	jal	0x80084110
80100b04:	21308002 	move	a2,s4
80100b08:	1a000106 	bgez	s0,0x80100b74
80100b0c:	80801000 	sll	s0,s0,0x2
80100b10:	98004426 	addiu	a0,s2,152
80100b14:	c000268e 	lw	a2,192(s1)
80100b18:	21288002 	move	a1,s4
80100b1c:	4410020c 	jal	0x80084110
80100b20:	1800c624 	addiu	a2,a2,24
80100b24:	c000248e 	lw	a0,192(s1)
80100b28:	8810020c 	jal	0x80084220
80100b2c:	2c008524 	addiu	a1,a0,44
80100b30:	c000248e 	lw	a0,192(s1)
80100b34:	ac00438e 	lw	v1,172(s2)
80100b38:	2c00828c 	lw	v0,44(a0)
80100b3c:	00000000 	nop
80100b40:	21104300 	addu	v0,v0,v1
80100b44:	2c0082ac 	sw	v0,44(a0)
80100b48:	c000248e 	lw	a0,192(s1)
80100b4c:	b000438e 	lw	v1,176(s2)
80100b50:	3000828c 	lw	v0,48(a0)
80100b54:	00000000 	nop
80100b58:	21104300 	addu	v0,v0,v1
80100b5c:	300082ac 	sw	v0,48(a0)
80100b60:	c000248e 	lw	a0,192(s1)
80100b64:	b400438e 	lw	v1,180(s2)
80100b68:	3400828c 	lw	v0,52(a0)
80100b6c:	e2260408 	j	0x80109b88
80100b70:	21104300 	addu	v0,v0,v1
80100b74:	21288002 	move	a1,s4
80100b78:	21805002 	addu	s0,s2,s0
80100b7c:	c000048e 	lw	a0,192(s0)
80100b80:	c000268e 	lw	a2,192(s1)
80100b84:	18008424 	addiu	a0,a0,24
80100b88:	4410020c 	jal	0x80084110
80100b8c:	1800c624 	addiu	a2,a2,24
80100b90:	c000248e 	lw	a0,192(s1)
80100b94:	8810020c 	jal	0x80084220
80100b98:	2c008524 	addiu	a1,a0,44
80100b9c:	c000248e 	lw	a0,192(s1)
80100ba0:	c000038e 	lw	v1,192(s0)
80100ba4:	2c00828c 	lw	v0,44(a0)
80100ba8:	2c00638c 	lw	v1,44(v1)
80100bac:	00000000 	nop
80100bb0:	21104300 	addu	v0,v0,v1
80100bb4:	2c0082ac 	sw	v0,44(a0)
80100bb8:	c000248e 	lw	a0,192(s1)
80100bbc:	c000038e 	lw	v1,192(s0)
80100bc0:	3000828c 	lw	v0,48(a0)
80100bc4:	3000638c 	lw	v1,48(v1)
80100bc8:	00000000 	nop
80100bcc:	21104300 	addu	v0,v0,v1
80100bd0:	300082ac 	sw	v0,48(a0)
80100bd4:	c000248e 	lw	a0,192(s1)
80100bd8:	c000038e 	lw	v1,192(s0)
80100bdc:	3400828c 	lw	v0,52(a0)
80100be0:	3400638c 	lw	v1,52(v1)
80100be4:	00000000 	nop
80100be8:	21104300 	addu	v0,v0,v1
80100bec:	340082ac 	sw	v0,52(a0)
80100bf0:	08004292 	lbu	v0,8(s2)
80100bf4:	01007326 	addiu	s3,s3,1
80100bf8:	2a106202 	slt	v0,s3,v0
80100bfc:	b2ff4014 	bnez	v0,0x80100ac8
80100c00:	04003126 	addiu	s1,s1,4
80100c04:	4c00bf8f 	lw	ra,76(sp)
80100c08:	4800b68f 	lw	s6,72(sp)
80100c0c:	4400b58f 	lw	s5,68(sp)
80100c10:	4000b48f 	lw	s4,64(sp)
80100c14:	3c00b38f 	lw	s3,60(sp)
80100c18:	3800b28f 	lw	s2,56(sp)
80100c1c:	3400b18f 	lw	s1,52(sp)
80100c20:	3000b08f 	lw	s0,48(sp)
80100c24:	0800e003 	jr	ra
80100c28:	5000bd27 	addiu	sp,sp,80
80100c2c:	e8ffbd27 	addiu	sp,sp,-24
80100c30:	1000b0af 	sw	s0,16(sp)
80100c34:	21808000 	move	s0,a0
80100c38:	21280000 	move	a1,zero
80100c3c:	2118a000 	move	v1,a1
80100c40:	1400bfaf 	sw	ra,20(sp)
80100c44:	2b000492 	lbu	a0,43(s0)
80100c48:	00000000 	nop
80100c4c:	07106400 	srav	v0,a0,v1
80100c50:	01004230 	andi	v0,v0,0x1
80100c54:	02004010 	beqz	v0,0x80100c60
80100c58:	00000000 	nop
80100c5c:	0100a524 	addiu	a1,a1,1
80100c60:	01006324 	addiu	v1,v1,1
80100c64:	07006228 	slti	v0,v1,7
80100c68:	f9ff4014 	bnez	v0,0x80100c50
80100c6c:	07106400 	srav	v0,a0,v1
80100c70:	0a00a010 	beqz	a1,0x80100c9c
80100c74:	00000000 	nop
80100c78:	3d35010c 	jal	0x8004d4f4
80100c7c:	36000424 	li	a0,54
80100c80:	0c80023c 	lui	v0,0x800c
80100c84:	70f84224 	addiu	v0,v0,-1936
80100c88:	88014390 	lbu	v1,392(v0)
80100c8c:	2b000492 	lbu	a0,43(s0)
80100c90:	00000000 	nop
80100c94:	25186400 	or	v1,v1,a0
80100c98:	880143a0 	sb	v1,392(v0)
80100c9c:	1400bf8f 	lw	ra,20(sp)
80100ca0:	1000b08f 	lw	s0,16(sp)
80100ca4:	0800e003 	jr	ra
80100ca8:	1800bd27 	addiu	sp,sp,24
80100cac:	e0ffbd27 	addiu	sp,sp,-32
80100cb0:	1000b0af 	sw	s0,16(sp)
80100cb4:	21808000 	move	s0,a0
80100cb8:	1400b1af 	sw	s1,20(sp)
80100cbc:	2188a000 	move	s1,a1
80100cc0:	1800b2af 	sw	s2,24(sp)
80100cc4:	1c00bfaf 	sw	ra,28(sp)
80100cc8:	46000392 	lbu	v1,70(s0)
80100ccc:	ff002232 	andi	v0,s1,0xff
80100cd0:	03006214 	bne	v1,v0,0x80100ce0
80100cd4:	2190c000 	move	s2,a2
80100cd8:	32270408 	j	0x80109cc8
80100cdc:	21100000 	move	v0,zero
80100ce0:	460011a2 	sb	s1,70(s0)
80100ce4:	21200002 	move	a0,s0
80100ce8:	e451010c 	jal	0x80054790
80100cec:	21282002 	move	a1,s1
80100cf0:	00141200 	sll	v0,s2,0x10
80100cf4:	033c0200 	sra	a3,v0,0x10
80100cf8:	0700e014 	bnez	a3,0x80100d18
80100cfc:	21200002 	move	a0,s0
80100d00:	1280053c 	lui	a1,0x8012
80100d04:	e8c0a524 	addiu	a1,a1,-16152
80100d08:	10df010c 	jal	0x80077c40
80100d0c:	21302002 	move	a2,s1
80100d10:	32270408 	j	0x80109cc8
80100d14:	01000224 	li	v0,1
80100d18:	1280053c 	lui	a1,0x8012
80100d1c:	e8c0a524 	addiu	a1,a1,-16152
80100d20:	3fdf010c 	jal	0x80077cfc
80100d24:	21302002 	move	a2,s1
80100d28:	01000224 	li	v0,1
80100d2c:	1c00bf8f 	lw	ra,28(sp)
80100d30:	1800b28f 	lw	s2,24(sp)
80100d34:	1400b18f 	lw	s1,20(sp)
80100d38:	1000b08f 	lw	s0,16(sp)
80100d3c:	0800e003 	jr	ra
80100d40:	2000bd27 	addiu	sp,sp,32
80100d44:	e8ffbd27 	addiu	sp,sp,-24
80100d48:	0e80023c 	lui	v0,0x800e
80100d4c:	1000b0af 	sw	s0,16(sp)
80100d50:	807e5024 	addiu	s0,v0,32384
80100d54:	1400bfaf 	sw	ra,20(sp)
80100d58:	0d000392 	lbu	v1,13(s0)
80100d5c:	00000000 	nop
80100d60:	d0006230 	andi	v0,v1,0xd0
80100d64:	3a004010 	beqz	v0,0x80100e50
80100d68:	02006334 	ori	v1,v1,0x2
80100d6c:	20006230 	andi	v0,v1,0x20
80100d70:	38004014 	bnez	v0,0x80100e54
80100d74:	0d0003a2 	sb	v1,13(s0)
80100d78:	10006230 	andi	v0,v1,0x10
80100d7c:	21004010 	beqz	v0,0x80100e04
80100d80:	801f023c 	lui	v0,0x1f80
80100d84:	47024390 	lbu	v1,583(v0)
80100d88:	00000000 	nop
80100d8c:	30006230 	andi	v0,v1,0x30
80100d90:	06004014 	bnez	v0,0x80100dac
80100d94:	03006230 	andi	v0,v1,0x3
80100d98:	0200422c 	sltiu	v0,v0,2
80100d9c:	03004014 	bnez	v0,0x80100dac
80100da0:	d0000224 	li	v0,208
80100da4:	78270408 	j	0x80109de0
80100da8:	180002a2 	sb	v0,24(s0)
80100dac:	0d000392 	lbu	v1,13(s0)
80100db0:	00000000 	nop
80100db4:	80006230 	andi	v0,v1,0x80
80100db8:	0a004010 	beqz	v0,0x80100de4
80100dbc:	801f023c 	lui	v0,0x1f80
80100dc0:	47024490 	lbu	a0,583(v0)
80100dc4:	00000000 	nop
80100dc8:	0f008430 	andi	a0,a0,0xf
80100dcc:	a00f020c 	jal	0x80083e80
80100dd0:	c0210400 	sll	a0,a0,0x7
80100dd4:	00140200 	sll	v0,v0,0x10
80100dd8:	83150200 	sra	v0,v0,0x16
80100ddc:	76270408 	j	0x80109dd8
80100de0:	30004224 	addiu	v0,v0,48
80100de4:	40006230 	andi	v0,v1,0x40
80100de8:	03004010 	beqz	v0,0x80100df8
80100dec:	20000224 	li	v0,32
80100df0:	78270408 	j	0x80109de0
80100df4:	180002a2 	sb	v0,24(s0)
80100df8:	80000224 	li	v0,128
80100dfc:	78270408 	j	0x80109de0
80100e00:	180002a2 	sb	v0,24(s0)
80100e04:	80006230 	andi	v0,v1,0x80
80100e08:	0a004010 	beqz	v0,0x80100e34
80100e0c:	801f023c 	lui	v0,0x1f80
80100e10:	47024490 	lbu	a0,583(v0)
80100e14:	00000000 	nop
80100e18:	0f008430 	andi	a0,a0,0xf
80100e1c:	a00f020c 	jal	0x80083e80
80100e20:	c0210400 	sll	a0,a0,0x7
80100e24:	00140200 	sll	v0,v0,0x10
80100e28:	83150200 	sra	v0,v0,0x16
80100e2c:	75270408 	j	0x80109dd4
80100e30:	10004224 	addiu	v0,v0,16
80100e34:	21100000 	move	v0,zero
80100e38:	20004224 	addiu	v0,v0,32
80100e3c:	180002a2 	sb	v0,24(s0)
80100e40:	20000224 	li	v0,32
80100e44:	190002a2 	sb	v0,25(s0)
80100e48:	7c270408 	j	0x80109df0
80100e4c:	1a0002a2 	sb	v0,26(s0)
80100e50:	0d0000a2 	sb	zero,13(s0)
80100e54:	1c26040c 	jal	0x80109870
80100e58:	21200002 	move	a0,s0
80100e5c:	01000292 	lbu	v0,1(s0)
80100e60:	00000000 	nop
80100e64:	03004010 	beqz	v0,0x80100e74
80100e68:	00000000 	nop
80100e6c:	29f3000c 	jal	0x8003cca4
80100e70:	21200002 	move	a0,s0
80100e74:	1400bf8f 	lw	ra,20(sp)
80100e78:	1000b08f 	lw	s0,16(sp)
80100e7c:	0800e003 	jr	ra
80100e80:	1800bd27 	addiu	sp,sp,24
80100e84:	04008228 	slti	v0,a0,4
80100e88:	10004010 	beqz	v0,0x80100ecc
80100e8c:	04000224 	li	v0,4
80100e90:	0a00a010 	beqz	a1,0x80100ebc
80100e94:	1180023c 	lui	v0,0x8011
80100e98:	ec1a4224 	addiu	v0,v0,6892
80100e9c:	c0180400 	sll	v1,a0,0x3
80100ea0:	0a006324 	addiu	v1,v1,10
80100ea4:	21186200 	addu	v1,v1,v0
80100ea8:	00006290 	lbu	v0,0(v1)
80100eac:	00000000 	nop
80100eb0:	01004234 	ori	v0,v0,0x1
80100eb4:	0800e003 	jr	ra
80100eb8:	000062a0 	sb	v0,0(v1)
80100ebc:	ec1a4224 	addiu	v0,v0,6892
80100ec0:	c0180400 	sll	v1,a0,0x3
80100ec4:	b5270408 	j	0x80109ed4
80100ec8:	0a006324 	addiu	v1,v1,10
80100ecc:	11008214 	bne	a0,v0,0x80100f14
80100ed0:	00000000 	nop
80100ed4:	0900a010 	beqz	a1,0x80100efc
80100ed8:	1180023c 	lui	v0,0x8011
80100edc:	ec1a4224 	addiu	v0,v0,6892
80100ee0:	2a004390 	lbu	v1,42(v0)
80100ee4:	32004490 	lbu	a0,50(v0)
80100ee8:	01006334 	ori	v1,v1,0x1
80100eec:	01008434 	ori	a0,a0,0x1
80100ef0:	2a0043a0 	sb	v1,42(v0)
80100ef4:	0800e003 	jr	ra
80100ef8:	320044a0 	sb	a0,50(v0)
80100efc:	ec1a4224 	addiu	v0,v0,6892
80100f00:	2a004390 	lbu	v1,42(v0)
80100f04:	32004490 	lbu	a0,50(v0)
80100f08:	fe006330 	andi	v1,v1,0xfe
80100f0c:	a3270408 	j	0x80109e8c
80100f10:	fe008430 	andi	a0,a0,0xfe
80100f14:	0500a010 	beqz	a1,0x80100f2c
80100f18:	1180023c 	lui	v0,0x8011
80100f1c:	ec1a4224 	addiu	v0,v0,6892
80100f20:	c0180400 	sll	v1,a0,0x3
80100f24:	90270408 	j	0x80109e40
80100f28:	12006324 	addiu	v1,v1,18
80100f2c:	ec1a4224 	addiu	v0,v0,6892
80100f30:	c0180400 	sll	v1,a0,0x3
80100f34:	12006324 	addiu	v1,v1,18
80100f38:	21186200 	addu	v1,v1,v0
80100f3c:	00006290 	lbu	v0,0(v1)
80100f40:	00000000 	nop
80100f44:	fe004230 	andi	v0,v0,0xfe
80100f48:	0800e003 	jr	ra
80100f4c:	000062a0 	sb	v0,0(v1)
80100f50:	b8ffbd27 	addiu	sp,sp,-72
80100f54:	801f023c 	lui	v0,0x1f80
80100f58:	0802428c 	lw	v0,520(v0)
80100f5c:	0c80033c 	lui	v1,0x800c
80100f60:	2000b0af 	sw	s0,32(sp)
80100f64:	44f5708c 	lw	s0,-2748(v1)
80100f68:	4400bfaf 	sw	ra,68(sp)
80100f6c:	4000beaf 	sw	s8,64(sp)
80100f70:	3c00b7af 	sw	s7,60(sp)
80100f74:	3800b6af 	sw	s6,56(sp)
80100f78:	3400b5af 	sw	s5,52(sp)
80100f7c:	3000b4af 	sw	s4,48(sp)
80100f80:	2c00b3af 	sw	s3,44(sp)
80100f84:	2800b2af 	sw	s2,40(sp)
80100f88:	2400b1af 	sw	s1,36(sp)
80100f8c:	60004424 	addiu	a0,v0,96
80100f90:	04004390 	lbu	v1,4(v0)
80100f94:	01000224 	li	v0,1
80100f98:	16006214 	bne	v1,v0,0x80100ff4
80100f9c:	21880000 	move	s1,zero
80100fa0:	0c008384 	lh	v1,12(a0)
80100fa4:	00000000 	nop
80100fa8:	04104300 	sllv	v0,v1,v0
80100fac:	21104300 	addu	v0,v0,v1
80100fb0:	80100200 	sll	v0,v0,0x2
80100fb4:	23104300 	subu	v0,v0,v1
80100fb8:	03004104 	bgez	v0,0x80100fc8
80100fbc:	438a0200 	sra	s1,v0,0x9
80100fc0:	ff014224 	addiu	v0,v0,511
80100fc4:	438a0200 	sra	s1,v0,0x9
80100fc8:	80076228 	slti	v0,v1,1920
80100fcc:	0a004010 	beqz	v0,0x80100ff8
80100fd0:	21182002 	move	v1,s1
80100fd4:	1469020c 	jal	0x8009a450
80100fd8:	00000000 	nop
80100fdc:	feff2326 	addiu	v1,s1,-2
80100fe0:	83130200 	sra	v0,v0,0xe
80100fe4:	21886200 	addu	s1,v1,v0
80100fe8:	03002106 	bgez	s1,0x80100ff8
80100fec:	21182002 	move	v1,s1
80100ff0:	21880000 	move	s1,zero
80100ff4:	21182002 	move	v1,s1
80100ff8:	21480000 	move	t1,zero
80100ffc:	1180023c 	lui	v0,0x8011
80101000:	a2194b24 	addiu	t3,v0,6562
80101004:	1180023c 	lui	v0,0x8011
80101008:	401b4724 	addiu	a3,v0,6976
8010100c:	f000083c 	lui	t0,0xf0
80101010:	00340300 	sll	a2,v1,0x10
80101014:	0000e490 	lbu	a0,0(a3)
80101018:	03340600 	sra	a2,a2,0x10
8010101c:	1a00c400 	div	zero,a2,a0
80101020:	02008014 	bnez	a0,0x8010102c
80101024:	00000000 	nop
80101028:	0d000700 	break	0x7
8010102c:	ffff0124 	li	at,-1
80101030:	04008114 	bne	a0,at,0x80101044
80101034:	0080013c 	lui	at,0x8000
80101038:	0200c114 	bne	a2,at,0x80101044
8010103c:	00000000 	nop
80101040:	0d000600 	break	0x6
80101044:	12200000 	mflo	a0
80101048:	80640a3c 	lui	t2,0x6480
8010104c:	80804a35 	ori	t2,t2,0x8080
80101050:	c800033c 	lui	v1,0xc8
80101054:	04000aae 	sw	t2,4(s0)
80101058:	03140800 	sra	v0,t0,0x10
8010105c:	25104300 	or	v0,v0,v1
80101060:	080002ae 	sw	v0,8(s0)
80101064:	80180400 	sll	v1,a0,0x2
80101068:	21186400 	addu	v1,v1,a0
8010106c:	40180300 	sll	v1,v1,0x1
80101070:	21186b00 	addu	v1,v1,t3
80101074:	08006294 	lhu	v0,8(v1)
80101078:	02006484 	lh	a0,2(v1)
8010107c:	00006584 	lh	a1,0(v1)
80101080:	00140200 	sll	v0,v0,0x10
80101084:	00220400 	sll	a0,a0,0x8
80101088:	25104400 	or	v0,v0,a0
8010108c:	25104500 	or	v0,v0,a1
80101090:	0c0002ae 	sw	v0,12(s0)
80101094:	06006284 	lh	v0,6(v1)
80101098:	04006384 	lh	v1,4(v1)
8010109c:	00140200 	sll	v0,v0,0x10
801010a0:	25104300 	or	v0,v0,v1
801010a4:	100002ae 	sw	v0,16(s0)
801010a8:	0f80113c 	lui	s1,0x800f
801010ac:	c8d8238e 	lw	v1,-10040(s1)
801010b0:	00000000 	nop
801010b4:	0c00628c 	lw	v0,12(v1)
801010b8:	0004053c 	lui	a1,0x400
801010bc:	25104500 	or	v0,v0,a1
801010c0:	000002ae 	sw	v0,0(s0)
801010c4:	0c0070ac 	sw	s0,12(v1)
801010c8:	14001026 	addiu	s0,s0,20
801010cc:	0000e290 	lbu	v0,0(a3)
801010d0:	01002925 	addiu	t1,t1,1
801010d4:	1a00c200 	div	zero,a2,v0
801010d8:	02004014 	bnez	v0,0x801010e4
801010dc:	00000000 	nop
801010e0:	0d000700 	break	0x7
801010e4:	ffff0124 	li	at,-1
801010e8:	04004114 	bne	v0,at,0x801010fc
801010ec:	0080013c 	lui	at,0x8000
801010f0:	0200c114 	bne	a2,at,0x801010fc
801010f4:	00000000 	nop
801010f8:	0d000600 	break	0x6
801010fc:	10180000 	mfhi	v1
80101100:	1000023c 	lui	v0,0x10
80101104:	21400201 	addu	t0,t0,v0
80101108:	03002229 	slti	v0,t1,3
8010110c:	c0ff4014 	bnez	v0,0x80101010
80101110:	0100e724 	addiu	a3,a3,1
80101114:	c800023c 	lui	v0,0xc8
80101118:	20014234 	ori	v0,v0,0x120
8010111c:	1180043c 	lui	a0,0x8011
80101120:	061a9224 	addiu	s2,a0,6662
80101124:	04000aae 	sw	t2,4(s0)
80101128:	080002ae 	sw	v0,8(s0)
8010112c:	08004296 	lhu	v0,8(s2)
80101130:	02004386 	lh	v1,2(s2)
80101134:	061a8484 	lh	a0,6662(a0)
80101138:	00140200 	sll	v0,v0,0x10
8010113c:	001a0300 	sll	v1,v1,0x8
80101140:	25104300 	or	v0,v0,v1
80101144:	25104400 	or	v0,v0,a0
80101148:	0c0002ae 	sw	v0,12(s0)
8010114c:	06004286 	lh	v0,6(s2)
80101150:	04004386 	lh	v1,4(s2)
80101154:	00140200 	sll	v0,v0,0x10
80101158:	25104300 	or	v0,v0,v1
8010115c:	100002ae 	sw	v0,16(s0)
80101160:	c8d8238e 	lw	v1,-10040(s1)
80101164:	00000000 	nop
80101168:	0c00628c 	lw	v0,12(v1)
8010116c:	00000000 	nop
80101170:	25104500 	or	v0,v0,a1
80101174:	000002ae 	sw	v0,0(s0)
80101178:	0c0070ac 	sw	s0,12(v1)
8010117c:	14001026 	addiu	s0,s0,20
80101180:	21200002 	move	a0,s0
80101184:	21280000 	move	a1,zero
80101188:	2130a000 	move	a2,a1
8010118c:	0e000724 	li	a3,14
80101190:	780f020c 	jal	0x80083de0
80101194:	1000a0af 	sw	zero,16(sp)
80101198:	c8d8248e 	lw	a0,-10040(s1)
8010119c:	00000000 	nop
801011a0:	0c00828c 	lw	v0,12(a0)
801011a4:	0002033c 	lui	v1,0x200
801011a8:	25104300 	or	v0,v0,v1
801011ac:	000002ae 	sw	v0,0(s0)
801011b0:	0c0090ac 	sw	s0,12(a0)
801011b4:	0c80033c 	lui	v1,0x800c
801011b8:	801f023c 	lui	v0,0x1f80
801011bc:	35014290 	lbu	v0,309(v0)
801011c0:	f8f96890 	lbu	t0,-1544(v1)
801011c4:	05004010 	beqz	v0,0x801011dc
801011c8:	0c001026 	addiu	s0,s0,12
801011cc:	0e80023c 	lui	v0,0x800e
801011d0:	ab7e4290 	lbu	v0,32427(v0)
801011d4:	00000000 	nop
801011d8:	25400201 	or	t0,t0,v0
801011dc:	21380000 	move	a3,zero
801011e0:	11800d3c 	lui	t5,0x8011
801011e4:	56ff4c26 	addiu	t4,s2,-170
801011e8:	c8000b3c 	lui	t3,0xc8
801011ec:	21502002 	move	t2,s1
801011f0:	0004093c 	lui	t1,0x400
801011f4:	1000063c 	lui	a2,0x10
801011f8:	0710e800 	srav	v0,t0,a3
801011fc:	01004230 	andi	v0,v0,0x1
80101200:	02004014 	bnez	v0,0x8010120c
80101204:	8064023c 	lui	v0,0x6480
80101208:	8066023c 	lui	v0,0x6680
8010120c:	441ba48d 	lw	a0,6980(t5)
80101210:	80804234 	ori	v0,v0,0x8080
80101214:	040002ae 	sw	v0,4(s0)
80101218:	03140600 	sra	v0,a2,0x10
8010121c:	25104b00 	or	v0,v0,t3
80101220:	080002ae 	sw	v0,8(s0)
80101224:	83200400 	sra	a0,a0,0x2
80101228:	80180400 	sll	v1,a0,0x2
8010122c:	21186400 	addu	v1,v1,a0
80101230:	40180300 	sll	v1,v1,0x1
80101234:	21186c00 	addu	v1,v1,t4
80101238:	08006294 	lhu	v0,8(v1)
8010123c:	02006484 	lh	a0,2(v1)
80101240:	00006584 	lh	a1,0(v1)
80101244:	00140200 	sll	v0,v0,0x10
80101248:	00220400 	sll	a0,a0,0x8
8010124c:	25104400 	or	v0,v0,a0
80101250:	25104500 	or	v0,v0,a1
80101254:	0c0002ae 	sw	v0,12(s0)
80101258:	06006284 	lh	v0,6(v1)
8010125c:	04006384 	lh	v1,4(v1)
80101260:	00140200 	sll	v0,v0,0x10
80101264:	25104300 	or	v0,v0,v1
80101268:	100002ae 	sw	v0,16(s0)
8010126c:	c8d8438d 	lw	v1,-10040(t2)
80101270:	00000000 	nop
80101274:	0c00628c 	lw	v0,12(v1)
80101278:	00000000 	nop
8010127c:	25104900 	or	v0,v0,t1
80101280:	000002ae 	sw	v0,0(s0)
80101284:	0c0070ac 	sw	s0,12(v1)
80101288:	1000023c 	lui	v0,0x10
8010128c:	2130c200 	addu	a2,a2,v0
80101290:	0100e724 	addiu	a3,a3,1
80101294:	0500e228 	slti	v0,a3,5
80101298:	d7ff4014 	bnez	v0,0x801011f8
8010129c:	14001026 	addiu	s0,s0,20
801012a0:	1180033c 	lui	v1,0x8011
801012a4:	441b628c 	lw	v0,6980(v1)
801012a8:	00000000 	nop
801012ac:	01004224 	addiu	v0,v0,1
801012b0:	441b62ac 	sw	v0,6980(v1)
801012b4:	58004228 	slti	v0,v0,88
801012b8:	03004014 	bnez	v0,0x801012c8
801012bc:	21200002 	move	a0,s0
801012c0:	48000224 	li	v0,72
801012c4:	441b62ac 	sw	v0,6980(v1)
801012c8:	21280000 	move	a1,zero
801012cc:	2130a000 	move	a2,a1
801012d0:	6e000724 	li	a3,110
801012d4:	780f020c 	jal	0x80083de0
801012d8:	1000a0af 	sw	zero,16(sp)
801012dc:	0f80073c 	lui	a3,0x800f
801012e0:	c8d8e48c 	lw	a0,-10040(a3)
801012e4:	00000000 	nop
801012e8:	0c00828c 	lw	v0,12(a0)
801012ec:	0002033c 	lui	v1,0x200
801012f0:	25104300 	or	v0,v0,v1
801012f4:	000002ae 	sw	v0,0(s0)
801012f8:	0c0090ac 	sw	s0,12(a0)
801012fc:	801f023c 	lui	v0,0x1f80
80101300:	0c02428c 	lw	v0,524(v0)
80101304:	00000000 	nop
80101308:	07004630 	andi	a2,v0,0x7
8010130c:	4400c010 	beqz	a2,0x80101420
80101310:	0c001026 	addiu	s0,s0,12
80101314:	ffffc624 	addiu	a2,a2,-1
80101318:	0300c228 	slti	v0,a2,3
8010131c:	19004014 	bnez	v0,0x80101384
80101320:	8066053c 	lui	a1,0x6680
80101324:	8066033c 	lui	v1,0x6680
80101328:	80806334 	ori	v1,v1,0x8080
8010132c:	3800023c 	lui	v0,0x38
80101330:	20004234 	ori	v0,v0,0x20
80101334:	040003ae 	sw	v1,4(s0)
80101338:	80180600 	sll	v1,a2,0x2
8010133c:	21186600 	addu	v1,v1,a2
80101340:	40180300 	sll	v1,v1,0x1
80101344:	080002ae 	sw	v0,8(s0)
80101348:	1180023c 	lui	v0,0x8011
8010134c:	5c194224 	addiu	v0,v0,6492
80101350:	21186200 	addu	v1,v1,v0
80101354:	08006294 	lhu	v0,8(v1)
80101358:	02006484 	lh	a0,2(v1)
8010135c:	00006584 	lh	a1,0(v1)
80101360:	00140200 	sll	v0,v0,0x10
80101364:	00220400 	sll	a0,a0,0x8
80101368:	25104400 	or	v0,v0,a0
8010136c:	25104500 	or	v0,v0,a1
80101370:	0c0002ae 	sw	v0,12(s0)
80101374:	06006284 	lh	v0,6(v1)
80101378:	04006384 	lh	v1,4(v1)
8010137c:	e5280408 	j	0x8010a394
80101380:	00140200 	sll	v0,v0,0x10
80101384:	1180023c 	lui	v0,0x8011
80101388:	5c194224 	addiu	v0,v0,6492
8010138c:	80200600 	sll	a0,a2,0x2
80101390:	21208600 	addu	a0,a0,a2
80101394:	40200400 	sll	a0,a0,0x1
80101398:	21208200 	addu	a0,a0,v0
8010139c:	8080a534 	ori	a1,a1,0x8080
801013a0:	04008384 	lh	v1,4(a0)
801013a4:	40010224 	li	v0,320
801013a8:	040005ae 	sw	a1,4(s0)
801013ac:	23104300 	subu	v0,v0,v1
801013b0:	c21f0200 	srl	v1,v0,0x1f
801013b4:	21104300 	addu	v0,v0,v1
801013b8:	c0130200 	sll	v0,v0,0xf
801013bc:	03140200 	sra	v0,v0,0x10
801013c0:	3800033c 	lui	v1,0x38
801013c4:	25104300 	or	v0,v0,v1
801013c8:	080002ae 	sw	v0,8(s0)
801013cc:	08008294 	lhu	v0,8(a0)
801013d0:	02008384 	lh	v1,2(a0)
801013d4:	00008584 	lh	a1,0(a0)
801013d8:	00140200 	sll	v0,v0,0x10
801013dc:	001a0300 	sll	v1,v1,0x8
801013e0:	25104300 	or	v0,v0,v1
801013e4:	25104500 	or	v0,v0,a1
801013e8:	0c0002ae 	sw	v0,12(s0)
801013ec:	06008284 	lh	v0,6(a0)
801013f0:	04008384 	lh	v1,4(a0)
801013f4:	00140200 	sll	v0,v0,0x10
801013f8:	25104300 	or	v0,v0,v1
801013fc:	100002ae 	sw	v0,16(s0)
80101400:	c8d8e48c 	lw	a0,-10040(a3)
80101404:	00000000 	nop
80101408:	0c00828c 	lw	v0,12(a0)
8010140c:	0004033c 	lui	v1,0x400
80101410:	25104300 	or	v0,v0,v1
80101414:	000002ae 	sw	v0,0(s0)
80101418:	0c0090ac 	sw	s0,12(a0)
8010141c:	14001026 	addiu	s0,s0,20
80101420:	21200002 	move	a0,s0
80101424:	21280000 	move	a1,zero
80101428:	2130a000 	move	a2,a1
8010142c:	2e000724 	li	a3,46
80101430:	0c80153c 	lui	s5,0x800c
80101434:	44f5b0ae 	sw	s0,-2748(s5)
80101438:	780f020c 	jal	0x80083de0
8010143c:	1000a0af 	sw	zero,16(sp)
80101440:	0f80113c 	lui	s1,0x800f
80101444:	c8d8238e 	lw	v1,-10040(s1)
80101448:	00000000 	nop
8010144c:	0c00628c 	lw	v0,12(v1)
80101450:	0002143c 	lui	s4,0x200
80101454:	25105400 	or	v0,v0,s4
80101458:	000002ae 	sw	v0,0(s0)
8010145c:	0c0070ac 	sw	s0,12(v1)
80101460:	0c000226 	addiu	v0,s0,12
80101464:	21804000 	move	s0,v0
80101468:	80640b3c 	lui	t3,0x6480
8010146c:	80806b35 	ori	t3,t3,0x8080
80101470:	2000033c 	lui	v1,0x20
80101474:	0c80023c 	lui	v0,0x800c
80101478:	0e80163c 	lui	s6,0x800e
8010147c:	807ed626 	addiu	s6,s6,32384
80101480:	10006334 	ori	v1,v1,0x10
80101484:	1180183c 	lui	t8,0x8011
80101488:	4000c696 	lhu	a2,64(s6)
8010148c:	b8f94294 	lhu	v0,-1608(v0)
80101490:	381a0c27 	addiu	t4,t8,6712
80101494:	44f5b0ae 	sw	s0,-2748(s5)
80101498:	1800a2a7 	sh	v0,24(sp)
8010149c:	04000bae 	sw	t3,4(s0)
801014a0:	080003ae 	sw	v1,8(s0)
801014a4:	08008295 	lhu	v0,8(t4)
801014a8:	02008385 	lh	v1,2(t4)
801014ac:	381a0487 	lh	a0,6712(t8)
801014b0:	00140200 	sll	v0,v0,0x10
801014b4:	001a0300 	sll	v1,v1,0x8
801014b8:	25104300 	or	v0,v0,v1
801014bc:	25104400 	or	v0,v0,a0
801014c0:	0c0002ae 	sw	v0,12(s0)
801014c4:	06008285 	lh	v0,6(t4)
801014c8:	04008385 	lh	v1,4(t4)
801014cc:	00140200 	sll	v0,v0,0x10
801014d0:	25104300 	or	v0,v0,v1
801014d4:	100002ae 	sw	v0,16(s0)
801014d8:	c8d8238e 	lw	v1,-10040(s1)
801014dc:	00000000 	nop
801014e0:	0c00628c 	lw	v0,12(v1)
801014e4:	00040a3c 	lui	t2,0x400
801014e8:	25104a00 	or	v0,v0,t2
801014ec:	000002ae 	sw	v0,0(s0)
801014f0:	0c0070ac 	sw	s0,12(v1)
801014f4:	14001026 	addiu	s0,s0,20
801014f8:	2000023c 	lui	v0,0x20
801014fc:	18004234 	ori	v0,v0,0x18
80101500:	1180053c 	lui	a1,0x8011
80101504:	0a008425 	addiu	a0,t4,10
80101508:	04000bae 	sw	t3,4(s0)
8010150c:	080002ae 	sw	v0,8(s0)
80101510:	08008294 	lhu	v0,8(a0)
80101514:	02008384 	lh	v1,2(a0)
80101518:	421aa584 	lh	a1,6722(a1)
8010151c:	00140200 	sll	v0,v0,0x10
80101520:	001a0300 	sll	v1,v1,0x8
80101524:	25104300 	or	v0,v0,v1
80101528:	25104500 	or	v0,v0,a1
8010152c:	0c0002ae 	sw	v0,12(s0)
80101530:	06008284 	lh	v0,6(a0)
80101534:	04008384 	lh	v1,4(a0)
80101538:	00140200 	sll	v0,v0,0x10
8010153c:	25104300 	or	v0,v0,v1
80101540:	100002ae 	sw	v0,16(s0)
80101544:	c8d8238e 	lw	v1,-10040(s1)
80101548:	00000000 	nop
8010154c:	0c00628c 	lw	v0,12(v1)
80101550:	00000000 	nop
80101554:	25104a00 	or	v0,v0,t2
80101558:	000002ae 	sw	v0,0(s0)
8010155c:	0c0070ac 	sw	s0,12(v1)
80101560:	14001026 	addiu	s0,s0,20
80101564:	2000023c 	lui	v0,0x20
80101568:	20004234 	ori	v0,v0,0x20
8010156c:	1180053c 	lui	a1,0x8011
80101570:	14008425 	addiu	a0,t4,20
80101574:	04000bae 	sw	t3,4(s0)
80101578:	080002ae 	sw	v0,8(s0)
8010157c:	08008294 	lhu	v0,8(a0)
80101580:	02008384 	lh	v1,2(a0)
80101584:	4c1aa584 	lh	a1,6732(a1)
80101588:	00140200 	sll	v0,v0,0x10
8010158c:	001a0300 	sll	v1,v1,0x8
80101590:	25104300 	or	v0,v0,v1
80101594:	25104500 	or	v0,v0,a1
80101598:	0c0002ae 	sw	v0,12(s0)
8010159c:	06008284 	lh	v0,6(a0)
801015a0:	04008384 	lh	v1,4(a0)
801015a4:	00140200 	sll	v0,v0,0x10
801015a8:	25104300 	or	v0,v0,v1
801015ac:	100002ae 	sw	v0,16(s0)
801015b0:	c8d8238e 	lw	v1,-10040(s1)
801015b4:	00000000 	nop
801015b8:	0c00628c 	lw	v0,12(v1)
801015bc:	00000000 	nop
801015c0:	25104a00 	or	v0,v0,t2
801015c4:	000002ae 	sw	v0,0(s0)
801015c8:	0c0070ac 	sw	s0,12(v1)
801015cc:	14001026 	addiu	s0,s0,20
801015d0:	2000023c 	lui	v0,0x20
801015d4:	28004234 	ori	v0,v0,0x28
801015d8:	1180173c 	lui	s7,0x8011
801015dc:	1e008d25 	addiu	t5,t4,30
801015e0:	04000bae 	sw	t3,4(s0)
801015e4:	080002ae 	sw	v0,8(s0)
801015e8:	0800a295 	lhu	v0,8(t5)
801015ec:	0200a385 	lh	v1,2(t5)
801015f0:	561ae486 	lh	a0,6742(s7)
801015f4:	00140200 	sll	v0,v0,0x10
801015f8:	001a0300 	sll	v1,v1,0x8
801015fc:	25104300 	or	v0,v0,v1
80101600:	25104400 	or	v0,v0,a0
80101604:	0c0002ae 	sw	v0,12(s0)
80101608:	0600a285 	lh	v0,6(t5)
8010160c:	0400a385 	lh	v1,4(t5)
80101610:	00140200 	sll	v0,v0,0x10
80101614:	25104300 	or	v0,v0,v1
80101618:	100002ae 	sw	v0,16(s0)
8010161c:	c8d8238e 	lw	v1,-10040(s1)
80101620:	00000000 	nop
80101624:	0c00628c 	lw	v0,12(v1)
80101628:	00000000 	nop
8010162c:	25104a00 	or	v0,v0,t2
80101630:	000002ae 	sw	v0,0(s0)
80101634:	0c0070ac 	sw	s0,12(v1)
80101638:	14001026 	addiu	s0,s0,20
8010163c:	a291193c 	lui	t9,0x91a2
80101640:	c5b33937 	ori	t9,t9,0xb3c5
80101644:	00340600 	sll	a2,a2,0x10
80101648:	03440600 	sra	t0,a2,0x10
8010164c:	18001901 	mult	t0,t9
80101650:	66660e3c 	lui	t6,0x6666
80101654:	6766ce35 	ori	t6,t6,0x6667
80101658:	c3370600 	sra	a2,a2,0x1f
8010165c:	10b00000 	mfhi	s6
80101660:	2110c802 	addu	v0,s6,t0
80101664:	83120200 	sra	v0,v0,0xa
80101668:	23104600 	subu	v0,v0,a2
8010166c:	00140200 	sll	v0,v0,0x10
80101670:	03240200 	sra	a0,v0,0x10
80101674:	18008e00 	mult	a0,t6
80101678:	2000033c 	lui	v1,0x20
8010167c:	38006334 	ori	v1,v1,0x38
80101680:	50009325 	addiu	s3,t4,80
80101684:	04000bae 	sw	t3,4(s0)
80101688:	080003ae 	sw	v1,8(s0)
8010168c:	c3170200 	sra	v0,v0,0x1f
80101690:	10b00000 	mfhi	s6
80101694:	83181600 	sra	v1,s6,0x2
80101698:	23186200 	subu	v1,v1,v0
8010169c:	80100300 	sll	v0,v1,0x2
801016a0:	21104300 	addu	v0,v0,v1
801016a4:	40100200 	sll	v0,v0,0x1
801016a8:	23208200 	subu	a0,a0,v0
801016ac:	00240400 	sll	a0,a0,0x10
801016b0:	03240400 	sra	a0,a0,0x10
801016b4:	80180400 	sll	v1,a0,0x2
801016b8:	21186400 	addu	v1,v1,a0
801016bc:	40180300 	sll	v1,v1,0x1
801016c0:	21187300 	addu	v1,v1,s3
801016c4:	08006294 	lhu	v0,8(v1)
801016c8:	02006484 	lh	a0,2(v1)
801016cc:	00006584 	lh	a1,0(v1)
801016d0:	00140200 	sll	v0,v0,0x10
801016d4:	00220400 	sll	a0,a0,0x8
801016d8:	25104400 	or	v0,v0,a0
801016dc:	25104500 	or	v0,v0,a1
801016e0:	0c0002ae 	sw	v0,12(s0)
801016e4:	06006284 	lh	v0,6(v1)
801016e8:	04006384 	lh	v1,4(v1)
801016ec:	00140200 	sll	v0,v0,0x10
801016f0:	25104300 	or	v0,v0,v1
801016f4:	100002ae 	sw	v0,16(s0)
801016f8:	c8d8238e 	lw	v1,-10040(s1)
801016fc:	00000000 	nop
80101700:	0c00628c 	lw	v0,12(v1)
80101704:	00000000 	nop
80101708:	25104a00 	or	v0,v0,t2
8010170c:	000002ae 	sw	v0,0(s0)
80101710:	0c0070ac 	sw	s0,12(v1)
80101714:	14001026 	addiu	s0,s0,20
80101718:	2000023c 	lui	v0,0x20
8010171c:	40004234 	ori	v0,v0,0x40
80101720:	11801e3c 	lui	s8,0x8011
80101724:	3c008f25 	addiu	t7,t4,60
80101728:	04000bae 	sw	t3,4(s0)
8010172c:	080002ae 	sw	v0,8(s0)
80101730:	0800e295 	lhu	v0,8(t7)
80101734:	0200e385 	lh	v1,2(t7)
80101738:	741ac487 	lh	a0,6772(s8)
8010173c:	00140200 	sll	v0,v0,0x10
80101740:	001a0300 	sll	v1,v1,0x8
80101744:	25104300 	or	v0,v0,v1
80101748:	25104400 	or	v0,v0,a0
8010174c:	0c0002ae 	sw	v0,12(s0)
80101750:	0600e285 	lh	v0,6(t7)
80101754:	0400e385 	lh	v1,4(t7)
80101758:	00140200 	sll	v0,v0,0x10
8010175c:	25104300 	or	v0,v0,v1
80101760:	100002ae 	sw	v0,16(s0)
80101764:	c8d8238e 	lw	v1,-10040(s1)
80101768:	00000000 	nop
8010176c:	0c00628c 	lw	v0,12(v1)
80101770:	00000000 	nop
80101774:	25104a00 	or	v0,v0,t2
80101778:	000002ae 	sw	v0,0(s0)
8010177c:	0c0070ac 	sw	s0,12(v1)
80101780:	14001026 	addiu	s0,s0,20
80101784:	8888123c 	lui	s2,0x8888
80101788:	89885236 	ori	s2,s2,0x8889
8010178c:	18001201 	mult	t0,s2
80101790:	10b00000 	mfhi	s6
80101794:	2148c802 	addu	t1,s6,t0
80101798:	03490900 	sra	t1,t1,0x4
8010179c:	23482601 	subu	t1,t1,a2
801017a0:	00140900 	sll	v0,t1,0x10
801017a4:	03240200 	sra	a0,v0,0x10
801017a8:	18009200 	mult	a0,s2
801017ac:	c3170200 	sra	v0,v0,0x1f
801017b0:	10b00000 	mfhi	s6
801017b4:	2118c402 	addu	v1,s6,a0
801017b8:	43190300 	sra	v1,v1,0x5
801017bc:	23186200 	subu	v1,v1,v0
801017c0:	00110300 	sll	v0,v1,0x4
801017c4:	23104300 	subu	v0,v0,v1
801017c8:	80100200 	sll	v0,v0,0x2
801017cc:	23208200 	subu	a0,a0,v0
801017d0:	00240400 	sll	a0,a0,0x10
801017d4:	03340400 	sra	a2,a0,0x10
801017d8:	1800ce00 	mult	a2,t6
801017dc:	c3270400 	sra	a0,a0,0x1f
801017e0:	10b00000 	mfhi	s6
801017e4:	83381600 	sra	a3,s6,0x2
801017e8:	2338e400 	subu	a3,a3,a0
801017ec:	00140700 	sll	v0,a3,0x10
801017f0:	03240200 	sra	a0,v0,0x10
801017f4:	18008e00 	mult	a0,t6
801017f8:	04000bae 	sw	t3,4(s0)
801017fc:	2000033c 	lui	v1,0x20
80101800:	48006334 	ori	v1,v1,0x48
80101804:	080003ae 	sw	v1,8(s0)
80101808:	c3170200 	sra	v0,v0,0x1f
8010180c:	10b00000 	mfhi	s6
80101810:	83181600 	sra	v1,s6,0x2
80101814:	23186200 	subu	v1,v1,v0
80101818:	80100300 	sll	v0,v1,0x2
8010181c:	21104300 	addu	v0,v0,v1
80101820:	40100200 	sll	v0,v0,0x1
80101824:	23208200 	subu	a0,a0,v0
80101828:	00240400 	sll	a0,a0,0x10
8010182c:	03240400 	sra	a0,a0,0x10
80101830:	80180400 	sll	v1,a0,0x2
80101834:	21186400 	addu	v1,v1,a0
80101838:	40180300 	sll	v1,v1,0x1
8010183c:	21187300 	addu	v1,v1,s3
80101840:	08006294 	lhu	v0,8(v1)
80101844:	02006484 	lh	a0,2(v1)
80101848:	00006584 	lh	a1,0(v1)
8010184c:	00140200 	sll	v0,v0,0x10
80101850:	00220400 	sll	a0,a0,0x8
80101854:	25104400 	or	v0,v0,a0
80101858:	25104500 	or	v0,v0,a1
8010185c:	0c0002ae 	sw	v0,12(s0)
80101860:	06006284 	lh	v0,6(v1)
80101864:	04006384 	lh	v1,4(v1)
80101868:	00140200 	sll	v0,v0,0x10
8010186c:	25104300 	or	v0,v0,v1
80101870:	100002ae 	sw	v0,16(s0)
80101874:	80100700 	sll	v0,a3,0x2
80101878:	21104700 	addu	v0,v0,a3
8010187c:	40100200 	sll	v0,v0,0x1
80101880:	2330c200 	subu	a2,a2,v0
80101884:	c8d8238e 	lw	v1,-10040(s1)
80101888:	00000000 	nop
8010188c:	0c00628c 	lw	v0,12(v1)
80101890:	00000000 	nop
80101894:	25104a00 	or	v0,v0,t2
80101898:	000002ae 	sw	v0,0(s0)
8010189c:	0c0070ac 	sw	s0,12(v1)
801018a0:	14001026 	addiu	s0,s0,20
801018a4:	2000023c 	lui	v0,0x20
801018a8:	50004234 	ori	v0,v0,0x50
801018ac:	00340600 	sll	a2,a2,0x10
801018b0:	03340600 	sra	a2,a2,0x10
801018b4:	80180600 	sll	v1,a2,0x2
801018b8:	21186600 	addu	v1,v1,a2
801018bc:	40180300 	sll	v1,v1,0x1
801018c0:	21187300 	addu	v1,v1,s3
801018c4:	04000bae 	sw	t3,4(s0)
801018c8:	080002ae 	sw	v0,8(s0)
801018cc:	08006294 	lhu	v0,8(v1)
801018d0:	02006484 	lh	a0,2(v1)
801018d4:	00006584 	lh	a1,0(v1)
801018d8:	00140200 	sll	v0,v0,0x10
801018dc:	00220400 	sll	a0,a0,0x8
801018e0:	25104400 	or	v0,v0,a0
801018e4:	25104500 	or	v0,v0,a1
801018e8:	0c0002ae 	sw	v0,12(s0)
801018ec:	06006284 	lh	v0,6(v1)
801018f0:	04006384 	lh	v1,4(v1)
801018f4:	00140200 	sll	v0,v0,0x10
801018f8:	25104300 	or	v0,v0,v1
801018fc:	100002ae 	sw	v0,16(s0)
80101900:	c8d8238e 	lw	v1,-10040(s1)
80101904:	00000000 	nop
80101908:	0c00628c 	lw	v0,12(v1)
8010190c:	00000000 	nop
80101910:	25104a00 	or	v0,v0,t2
80101914:	000002ae 	sw	v0,0(s0)
80101918:	0c0070ac 	sw	s0,12(v1)
8010191c:	14001026 	addiu	s0,s0,20
80101920:	2000023c 	lui	v0,0x20
80101924:	58004234 	ori	v0,v0,0x58
80101928:	1180053c 	lui	a1,0x8011
8010192c:	46008425 	addiu	a0,t4,70
80101930:	04000bae 	sw	t3,4(s0)
80101934:	080002ae 	sw	v0,8(s0)
80101938:	08008294 	lhu	v0,8(a0)
8010193c:	02008384 	lh	v1,2(a0)
80101940:	7e1aa584 	lh	a1,6782(a1)
80101944:	00140200 	sll	v0,v0,0x10
80101948:	001a0300 	sll	v1,v1,0x8
8010194c:	25104300 	or	v0,v0,v1
80101950:	25104500 	or	v0,v0,a1
80101954:	0c0002ae 	sw	v0,12(s0)
80101958:	06008284 	lh	v0,6(a0)
8010195c:	04008384 	lh	v1,4(a0)
80101960:	00140200 	sll	v0,v0,0x10
80101964:	25104300 	or	v0,v0,v1
80101968:	100002ae 	sw	v0,16(s0)
8010196c:	c8d8238e 	lw	v1,-10040(s1)
80101970:	00000000 	nop
80101974:	0c00628c 	lw	v0,12(v1)
80101978:	00000000 	nop
8010197c:	25104a00 	or	v0,v0,t2
80101980:	000002ae 	sw	v0,0(s0)
80101984:	0c0070ac 	sw	s0,12(v1)
80101988:	14001026 	addiu	s0,s0,20
8010198c:	00110900 	sll	v0,t1,0x4
80101990:	23104900 	subu	v0,v0,t1
80101994:	40100200 	sll	v0,v0,0x1
80101998:	23400201 	subu	t0,t0,v0
8010199c:	00440800 	sll	t0,t0,0x10
801019a0:	03440800 	sra	t0,t0,0x10
801019a4:	40100800 	sll	v0,t0,0x1
801019a8:	21104800 	addu	v0,v0,t0
801019ac:	c0100200 	sll	v0,v0,0x3
801019b0:	21104800 	addu	v0,v0,t0
801019b4:	80100200 	sll	v0,v0,0x2
801019b8:	18005200 	mult	v0,s2
801019bc:	10b00000 	mfhi	s6
801019c0:	2118c202 	addu	v1,s6,v0
801019c4:	03190300 	sra	v1,v1,0x4
801019c8:	c3170200 	sra	v0,v0,0x1f
801019cc:	23186200 	subu	v1,v1,v0
801019d0:	001c0300 	sll	v1,v1,0x10
801019d4:	03340300 	sra	a2,v1,0x10
801019d8:	1800ce00 	mult	a2,t6
801019dc:	c31f0300 	sra	v1,v1,0x1f
801019e0:	10b00000 	mfhi	s6
801019e4:	83381600 	sra	a3,s6,0x2
801019e8:	2338e300 	subu	a3,a3,v1
801019ec:	00140700 	sll	v0,a3,0x10
801019f0:	03240200 	sra	a0,v0,0x10
801019f4:	18008e00 	mult	a0,t6
801019f8:	04000bae 	sw	t3,4(s0)
801019fc:	2000033c 	lui	v1,0x20
80101a00:	60006334 	ori	v1,v1,0x60
80101a04:	c3170200 	sra	v0,v0,0x1f
80101a08:	080003ae 	sw	v1,8(s0)
80101a0c:	10b00000 	mfhi	s6
80101a10:	83181600 	sra	v1,s6,0x2
80101a14:	23186200 	subu	v1,v1,v0
80101a18:	80100300 	sll	v0,v1,0x2
80101a1c:	21104300 	addu	v0,v0,v1
80101a20:	40100200 	sll	v0,v0,0x1
80101a24:	23208200 	subu	a0,a0,v0
80101a28:	00240400 	sll	a0,a0,0x10
80101a2c:	03240400 	sra	a0,a0,0x10
80101a30:	80180400 	sll	v1,a0,0x2
80101a34:	21186400 	addu	v1,v1,a0
80101a38:	40180300 	sll	v1,v1,0x1
80101a3c:	21187300 	addu	v1,v1,s3
80101a40:	08006294 	lhu	v0,8(v1)
80101a44:	02006484 	lh	a0,2(v1)
80101a48:	00006584 	lh	a1,0(v1)
80101a4c:	00140200 	sll	v0,v0,0x10
80101a50:	00220400 	sll	a0,a0,0x8
80101a54:	25104400 	or	v0,v0,a0
80101a58:	25104500 	or	v0,v0,a1
80101a5c:	0c0002ae 	sw	v0,12(s0)
80101a60:	06006284 	lh	v0,6(v1)
80101a64:	04006384 	lh	v1,4(v1)
80101a68:	00140200 	sll	v0,v0,0x10
80101a6c:	25104300 	or	v0,v0,v1
80101a70:	100002ae 	sw	v0,16(s0)
80101a74:	80100700 	sll	v0,a3,0x2
80101a78:	21104700 	addu	v0,v0,a3
80101a7c:	40100200 	sll	v0,v0,0x1
80101a80:	2330c200 	subu	a2,a2,v0
80101a84:	c8d8238e 	lw	v1,-10040(s1)
80101a88:	00000000 	nop
80101a8c:	0c00628c 	lw	v0,12(v1)
80101a90:	00000000 	nop
80101a94:	25104a00 	or	v0,v0,t2
80101a98:	000002ae 	sw	v0,0(s0)
80101a9c:	0c0070ac 	sw	s0,12(v1)
80101aa0:	14001026 	addiu	s0,s0,20
80101aa4:	2000023c 	lui	v0,0x20
80101aa8:	68004234 	ori	v0,v0,0x68
80101aac:	00340600 	sll	a2,a2,0x10
80101ab0:	03340600 	sra	a2,a2,0x10
80101ab4:	80180600 	sll	v1,a2,0x2
80101ab8:	21186600 	addu	v1,v1,a2
80101abc:	40180300 	sll	v1,v1,0x1
80101ac0:	21187300 	addu	v1,v1,s3
80101ac4:	04000bae 	sw	t3,4(s0)
80101ac8:	080002ae 	sw	v0,8(s0)
80101acc:	08006294 	lhu	v0,8(v1)
80101ad0:	02006484 	lh	a0,2(v1)
80101ad4:	00006584 	lh	a1,0(v1)
80101ad8:	00140200 	sll	v0,v0,0x10
80101adc:	00220400 	sll	a0,a0,0x8
80101ae0:	25104400 	or	v0,v0,a0
80101ae4:	25104500 	or	v0,v0,a1
80101ae8:	0c0002ae 	sw	v0,12(s0)
80101aec:	06006284 	lh	v0,6(v1)
80101af0:	04006384 	lh	v1,4(v1)
80101af4:	00140200 	sll	v0,v0,0x10
80101af8:	25104300 	or	v0,v0,v1
80101afc:	100002ae 	sw	v0,16(s0)
80101b00:	c8d8238e 	lw	v1,-10040(s1)
80101b04:	00000000 	nop
80101b08:	0c00628c 	lw	v0,12(v1)
80101b0c:	00000000 	nop
80101b10:	25104a00 	or	v0,v0,t2
80101b14:	000002ae 	sw	v0,0(s0)
80101b18:	0c0070ac 	sw	s0,12(v1)
80101b1c:	1800b697 	lhu	s6,24(sp)
80101b20:	00000000 	nop
80101b24:	00341600 	sll	a2,s6,0x10
80101b28:	033c0600 	sra	a3,a2,0x10
80101b2c:	a901e010 	beqz	a3,0x801021d4
80101b30:	14001026 	addiu	s0,s0,20
80101b34:	2000023c 	lui	v0,0x20
80101b38:	d0004234 	ori	v0,v0,0xd0
80101b3c:	1180053c 	lui	a1,0x8011
80101b40:	28008425 	addiu	a0,t4,40
80101b44:	04000bae 	sw	t3,4(s0)
80101b48:	080002ae 	sw	v0,8(s0)
80101b4c:	08008294 	lhu	v0,8(a0)
80101b50:	02008384 	lh	v1,2(a0)
80101b54:	601aa584 	lh	a1,6752(a1)
80101b58:	00140200 	sll	v0,v0,0x10
80101b5c:	001a0300 	sll	v1,v1,0x8
80101b60:	25104300 	or	v0,v0,v1
80101b64:	25104500 	or	v0,v0,a1
80101b68:	0c0002ae 	sw	v0,12(s0)
80101b6c:	06008284 	lh	v0,6(a0)
80101b70:	04008384 	lh	v1,4(a0)
80101b74:	00140200 	sll	v0,v0,0x10
80101b78:	25104300 	or	v0,v0,v1
80101b7c:	100002ae 	sw	v0,16(s0)
80101b80:	c8d8238e 	lw	v1,-10040(s1)
80101b84:	00000000 	nop
80101b88:	0c00628c 	lw	v0,12(v1)
80101b8c:	00000000 	nop
80101b90:	25104a00 	or	v0,v0,t2
80101b94:	000002ae 	sw	v0,0(s0)
80101b98:	0c0070ac 	sw	s0,12(v1)
80101b9c:	14001026 	addiu	s0,s0,20
80101ba0:	2000023c 	lui	v0,0x20
80101ba4:	d8004234 	ori	v0,v0,0xd8
80101ba8:	04000bae 	sw	t3,4(s0)
80101bac:	080002ae 	sw	v0,8(s0)
80101bb0:	0800a295 	lhu	v0,8(t5)
80101bb4:	0200a385 	lh	v1,2(t5)
80101bb8:	561ae486 	lh	a0,6742(s7)
80101bbc:	00140200 	sll	v0,v0,0x10
80101bc0:	001a0300 	sll	v1,v1,0x8
80101bc4:	25104300 	or	v0,v0,v1
80101bc8:	25104400 	or	v0,v0,a0
80101bcc:	0c0002ae 	sw	v0,12(s0)
80101bd0:	0600a285 	lh	v0,6(t5)
80101bd4:	0400a385 	lh	v1,4(t5)
80101bd8:	00140200 	sll	v0,v0,0x10
80101bdc:	25104300 	or	v0,v0,v1
80101be0:	100002ae 	sw	v0,16(s0)
80101be4:	c8d8238e 	lw	v1,-10040(s1)
80101be8:	00000000 	nop
80101bec:	0c00628c 	lw	v0,12(v1)
80101bf0:	00000000 	nop
80101bf4:	25104a00 	or	v0,v0,t2
80101bf8:	000002ae 	sw	v0,0(s0)
80101bfc:	0c0070ac 	sw	s0,12(v1)
80101c00:	14001026 	addiu	s0,s0,20
80101c04:	2000023c 	lui	v0,0x20
80101c08:	e0004234 	ori	v0,v0,0xe0
80101c0c:	1180053c 	lui	a1,0x8011
80101c10:	32008425 	addiu	a0,t4,50
80101c14:	04000bae 	sw	t3,4(s0)
80101c18:	080002ae 	sw	v0,8(s0)
80101c1c:	08008294 	lhu	v0,8(a0)
80101c20:	02008384 	lh	v1,2(a0)
80101c24:	6a1aa584 	lh	a1,6762(a1)
80101c28:	00140200 	sll	v0,v0,0x10
80101c2c:	001a0300 	sll	v1,v1,0x8
80101c30:	25104300 	or	v0,v0,v1
80101c34:	25104500 	or	v0,v0,a1
80101c38:	0c0002ae 	sw	v0,12(s0)
80101c3c:	06008284 	lh	v0,6(a0)
80101c40:	04008384 	lh	v1,4(a0)
80101c44:	00140200 	sll	v0,v0,0x10
80101c48:	25104300 	or	v0,v0,v1
80101c4c:	100002ae 	sw	v0,16(s0)
80101c50:	c8d8238e 	lw	v1,-10040(s1)
80101c54:	00000000 	nop
80101c58:	0c00628c 	lw	v0,12(v1)
80101c5c:	00000000 	nop
80101c60:	25104a00 	or	v0,v0,t2
80101c64:	000002ae 	sw	v0,0(s0)
80101c68:	0c0070ac 	sw	s0,12(v1)
80101c6c:	14001026 	addiu	s0,s0,20
80101c70:	2000023c 	lui	v0,0x20
80101c74:	e8004234 	ori	v0,v0,0xe8
80101c78:	04000bae 	sw	t3,4(s0)
80101c7c:	080002ae 	sw	v0,8(s0)
80101c80:	08008295 	lhu	v0,8(t4)
80101c84:	02008385 	lh	v1,2(t4)
80101c88:	381a0487 	lh	a0,6712(t8)
80101c8c:	00140200 	sll	v0,v0,0x10
80101c90:	001a0300 	sll	v1,v1,0x8
80101c94:	25104300 	or	v0,v0,v1
80101c98:	25104400 	or	v0,v0,a0
80101c9c:	0c0002ae 	sw	v0,12(s0)
80101ca0:	06008285 	lh	v0,6(t4)
80101ca4:	04008385 	lh	v1,4(t4)
80101ca8:	00140200 	sll	v0,v0,0x10
80101cac:	25104300 	or	v0,v0,v1
80101cb0:	100002ae 	sw	v0,16(s0)
80101cb4:	c8d8238e 	lw	v1,-10040(s1)
80101cb8:	00000000 	nop
80101cbc:	0c00628c 	lw	v0,12(v1)
80101cc0:	00000000 	nop
80101cc4:	25104a00 	or	v0,v0,t2
80101cc8:	000002ae 	sw	v0,0(s0)
80101ccc:	0c0070ac 	sw	s0,12(v1)
80101cd0:	14001026 	addiu	s0,s0,20
80101cd4:	1800f900 	mult	a3,t9
80101cd8:	c3370600 	sra	a2,a2,0x1f
80101cdc:	10b00000 	mfhi	s6
80101ce0:	2110c702 	addu	v0,s6,a3
80101ce4:	83120200 	sra	v0,v0,0xa
80101ce8:	23104600 	subu	v0,v0,a2
80101cec:	00140200 	sll	v0,v0,0x10
80101cf0:	03240200 	sra	a0,v0,0x10
80101cf4:	18008e00 	mult	a0,t6
80101cf8:	2000033c 	lui	v1,0x20
80101cfc:	f8006334 	ori	v1,v1,0xf8
80101d00:	04000bae 	sw	t3,4(s0)
80101d04:	080003ae 	sw	v1,8(s0)
80101d08:	c3170200 	sra	v0,v0,0x1f
80101d0c:	10b00000 	mfhi	s6
80101d10:	83181600 	sra	v1,s6,0x2
80101d14:	23186200 	subu	v1,v1,v0
80101d18:	80100300 	sll	v0,v1,0x2
80101d1c:	21104300 	addu	v0,v0,v1
80101d20:	40100200 	sll	v0,v0,0x1
80101d24:	23208200 	subu	a0,a0,v0
80101d28:	00240400 	sll	a0,a0,0x10
80101d2c:	03240400 	sra	a0,a0,0x10
80101d30:	80180400 	sll	v1,a0,0x2
80101d34:	21186400 	addu	v1,v1,a0
80101d38:	40180300 	sll	v1,v1,0x1
80101d3c:	21187300 	addu	v1,v1,s3
80101d40:	08006294 	lhu	v0,8(v1)
80101d44:	02006484 	lh	a0,2(v1)
80101d48:	00006584 	lh	a1,0(v1)
80101d4c:	00140200 	sll	v0,v0,0x10
80101d50:	00220400 	sll	a0,a0,0x8
80101d54:	25104400 	or	v0,v0,a0
80101d58:	25104500 	or	v0,v0,a1
80101d5c:	0c0002ae 	sw	v0,12(s0)
80101d60:	06006284 	lh	v0,6(v1)
80101d64:	04006384 	lh	v1,4(v1)
80101d68:	00140200 	sll	v0,v0,0x10
80101d6c:	25104300 	or	v0,v0,v1
80101d70:	100002ae 	sw	v0,16(s0)
80101d74:	c8d8238e 	lw	v1,-10040(s1)
80101d78:	00000000 	nop
80101d7c:	0c00628c 	lw	v0,12(v1)
80101d80:	00000000 	nop
80101d84:	25104a00 	or	v0,v0,t2
80101d88:	000002ae 	sw	v0,0(s0)
80101d8c:	0c0070ac 	sw	s0,12(v1)
80101d90:	14001026 	addiu	s0,s0,20
80101d94:	2000023c 	lui	v0,0x20
80101d98:	00014234 	ori	v0,v0,0x100
80101d9c:	04000bae 	sw	t3,4(s0)
80101da0:	080002ae 	sw	v0,8(s0)
80101da4:	0800e295 	lhu	v0,8(t7)
80101da8:	0200e385 	lh	v1,2(t7)
80101dac:	741ac487 	lh	a0,6772(s8)
80101db0:	00140200 	sll	v0,v0,0x10
80101db4:	001a0300 	sll	v1,v1,0x8
80101db8:	25104300 	or	v0,v0,v1
80101dbc:	25104400 	or	v0,v0,a0
80101dc0:	0c0002ae 	sw	v0,12(s0)
80101dc4:	0600e285 	lh	v0,6(t7)
80101dc8:	0400e385 	lh	v1,4(t7)
80101dcc:	00140200 	sll	v0,v0,0x10
80101dd0:	25104300 	or	v0,v0,v1
80101dd4:	100002ae 	sw	v0,16(s0)
80101dd8:	c8d8238e 	lw	v1,-10040(s1)
80101ddc:	00000000 	nop
80101de0:	0c00628c 	lw	v0,12(v1)
80101de4:	00000000 	nop
80101de8:	25104a00 	or	v0,v0,t2
80101dec:	000002ae 	sw	v0,0(s0)
80101df0:	0c0070ac 	sw	s0,12(v1)
80101df4:	14001026 	addiu	s0,s0,20
80101df8:	1800f200 	mult	a3,s2
80101dfc:	10b00000 	mfhi	s6
80101e00:	2110c702 	addu	v0,s6,a3
80101e04:	03110200 	sra	v0,v0,0x4
80101e08:	23104600 	subu	v0,v0,a2
80101e0c:	00140200 	sll	v0,v0,0x10
80101e10:	03240200 	sra	a0,v0,0x10
80101e14:	18009200 	mult	a0,s2
80101e18:	66660c3c 	lui	t4,0x6666
80101e1c:	67668c35 	ori	t4,t4,0x6667
80101e20:	c3170200 	sra	v0,v0,0x1f
80101e24:	10b00000 	mfhi	s6
80101e28:	2118c402 	addu	v1,s6,a0
80101e2c:	43190300 	sra	v1,v1,0x5
80101e30:	23186200 	subu	v1,v1,v0
80101e34:	00110300 	sll	v0,v1,0x4
80101e38:	23104300 	subu	v0,v0,v1
80101e3c:	80100200 	sll	v0,v0,0x2
80101e40:	23208200 	subu	a0,a0,v0
80101e44:	00240400 	sll	a0,a0,0x10
80101e48:	03340400 	sra	a2,a0,0x10
80101e4c:	1800cc00 	mult	a2,t4
80101e50:	c3270400 	sra	a0,a0,0x1f
80101e54:	10b00000 	mfhi	s6
80101e58:	83381600 	sra	a3,s6,0x2
80101e5c:	2338e400 	subu	a3,a3,a0
80101e60:	00140700 	sll	v0,a3,0x10
80101e64:	03240200 	sra	a0,v0,0x10
80101e68:	18008c00 	mult	a0,t4
80101e6c:	80640b3c 	lui	t3,0x6480
80101e70:	80806b35 	ori	t3,t3,0x8080
80101e74:	11800a3c 	lui	t2,0x8011
80101e78:	881a4a25 	addiu	t2,t2,6792
80101e7c:	04000bae 	sw	t3,4(s0)
80101e80:	2000033c 	lui	v1,0x20
80101e84:	08016334 	ori	v1,v1,0x108
80101e88:	080003ae 	sw	v1,8(s0)
80101e8c:	c3170200 	sra	v0,v0,0x1f
80101e90:	10b00000 	mfhi	s6
80101e94:	83181600 	sra	v1,s6,0x2
80101e98:	23186200 	subu	v1,v1,v0
80101e9c:	80100300 	sll	v0,v1,0x2
80101ea0:	21104300 	addu	v0,v0,v1
80101ea4:	40100200 	sll	v0,v0,0x1
80101ea8:	23208200 	subu	a0,a0,v0
80101eac:	00240400 	sll	a0,a0,0x10
80101eb0:	03240400 	sra	a0,a0,0x10
80101eb4:	80180400 	sll	v1,a0,0x2
80101eb8:	21186400 	addu	v1,v1,a0
80101ebc:	40180300 	sll	v1,v1,0x1
80101ec0:	21186a00 	addu	v1,v1,t2
80101ec4:	08006294 	lhu	v0,8(v1)
80101ec8:	02006484 	lh	a0,2(v1)
80101ecc:	00006584 	lh	a1,0(v1)
80101ed0:	00140200 	sll	v0,v0,0x10
80101ed4:	00220400 	sll	a0,a0,0x8
80101ed8:	25104400 	or	v0,v0,a0
80101edc:	25104500 	or	v0,v0,a1
80101ee0:	0c0002ae 	sw	v0,12(s0)
80101ee4:	06006284 	lh	v0,6(v1)
80101ee8:	04006384 	lh	v1,4(v1)
80101eec:	00140200 	sll	v0,v0,0x10
80101ef0:	25104300 	or	v0,v0,v1
80101ef4:	100002ae 	sw	v0,16(s0)
80101ef8:	80100700 	sll	v0,a3,0x2
80101efc:	21104700 	addu	v0,v0,a3
80101f00:	40100200 	sll	v0,v0,0x1
80101f04:	2330c200 	subu	a2,a2,v0
80101f08:	21482002 	move	t1,s1
80101f0c:	c8d8238d 	lw	v1,-10040(t1)
80101f10:	00000000 	nop
80101f14:	0c00628c 	lw	v0,12(v1)
80101f18:	0004083c 	lui	t0,0x400
80101f1c:	25104800 	or	v0,v0,t0
80101f20:	000002ae 	sw	v0,0(s0)
80101f24:	0c0070ac 	sw	s0,12(v1)
80101f28:	14001026 	addiu	s0,s0,20
80101f2c:	2000023c 	lui	v0,0x20
80101f30:	10014234 	ori	v0,v0,0x110
80101f34:	00340600 	sll	a2,a2,0x10
80101f38:	03340600 	sra	a2,a2,0x10
80101f3c:	80180600 	sll	v1,a2,0x2
80101f40:	21186600 	addu	v1,v1,a2
80101f44:	40180300 	sll	v1,v1,0x1
80101f48:	21186a00 	addu	v1,v1,t2
80101f4c:	04000bae 	sw	t3,4(s0)
80101f50:	080002ae 	sw	v0,8(s0)
80101f54:	08006294 	lhu	v0,8(v1)
80101f58:	02006484 	lh	a0,2(v1)
80101f5c:	00006584 	lh	a1,0(v1)
80101f60:	00140200 	sll	v0,v0,0x10
80101f64:	00220400 	sll	a0,a0,0x8
80101f68:	25104400 	or	v0,v0,a0
80101f6c:	25104500 	or	v0,v0,a1
80101f70:	0c0002ae 	sw	v0,12(s0)
80101f74:	06006284 	lh	v0,6(v1)
80101f78:	04006384 	lh	v1,4(v1)
80101f7c:	00140200 	sll	v0,v0,0x10
80101f80:	25104300 	or	v0,v0,v1
80101f84:	100002ae 	sw	v0,16(s0)
80101f88:	c8d8238d 	lw	v1,-10040(t1)
80101f8c:	00000000 	nop
80101f90:	0c00628c 	lw	v0,12(v1)
80101f94:	00000000 	nop
80101f98:	25104800 	or	v0,v0,t0
80101f9c:	000002ae 	sw	v0,0(s0)
80101fa0:	0c0070ac 	sw	s0,12(v1)
80101fa4:	14001026 	addiu	s0,s0,20
80101fa8:	2000023c 	lui	v0,0x20
80101fac:	18014234 	ori	v0,v0,0x118
80101fb0:	1180053c 	lui	a1,0x8011
80101fb4:	f6ff4425 	addiu	a0,t2,-10
80101fb8:	04000bae 	sw	t3,4(s0)
80101fbc:	080002ae 	sw	v0,8(s0)
80101fc0:	08008294 	lhu	v0,8(a0)
80101fc4:	02008384 	lh	v1,2(a0)
80101fc8:	7e1aa584 	lh	a1,6782(a1)
80101fcc:	00140200 	sll	v0,v0,0x10
80101fd0:	001a0300 	sll	v1,v1,0x8
80101fd4:	25104300 	or	v0,v0,v1
80101fd8:	25104500 	or	v0,v0,a1
80101fdc:	0c0002ae 	sw	v0,12(s0)
80101fe0:	06008284 	lh	v0,6(a0)
80101fe4:	04008384 	lh	v1,4(a0)
80101fe8:	00140200 	sll	v0,v0,0x10
80101fec:	25104300 	or	v0,v0,v1
80101ff0:	100002ae 	sw	v0,16(s0)
80101ff4:	c8d8238d 	lw	v1,-10040(t1)
80101ff8:	00000000 	nop
80101ffc:	0c00628c 	lw	v0,12(v1)
80102000:	00000000 	nop
80102004:	25104800 	or	v0,v0,t0
80102008:	000002ae 	sw	v0,0(s0)
8010200c:	0c0070ac 	sw	s0,12(v1)
80102010:	14001026 	addiu	s0,s0,20
80102014:	8888053c 	lui	a1,0x8888
80102018:	1800b697 	lhu	s6,24(sp)
8010201c:	8988a534 	ori	a1,a1,0x8889
80102020:	00141600 	sll	v0,s6,0x10
80102024:	03240200 	sra	a0,v0,0x10
80102028:	18008500 	mult	a0,a1
8010202c:	c3170200 	sra	v0,v0,0x1f
80102030:	10b00000 	mfhi	s6
80102034:	2118c402 	addu	v1,s6,a0
80102038:	03190300 	sra	v1,v1,0x4
8010203c:	23186200 	subu	v1,v1,v0
80102040:	00110300 	sll	v0,v1,0x4
80102044:	23104300 	subu	v0,v0,v1
80102048:	40100200 	sll	v0,v0,0x1
8010204c:	23208200 	subu	a0,a0,v0
80102050:	00240400 	sll	a0,a0,0x10
80102054:	03240400 	sra	a0,a0,0x10
80102058:	40100400 	sll	v0,a0,0x1
8010205c:	21104400 	addu	v0,v0,a0
80102060:	c0100200 	sll	v0,v0,0x3
80102064:	21104400 	addu	v0,v0,a0
80102068:	80100200 	sll	v0,v0,0x2
8010206c:	18004500 	mult	v0,a1
80102070:	10b00000 	mfhi	s6
80102074:	2118c202 	addu	v1,s6,v0
80102078:	03190300 	sra	v1,v1,0x4
8010207c:	c3170200 	sra	v0,v0,0x1f
80102080:	23186200 	subu	v1,v1,v0
80102084:	001c0300 	sll	v1,v1,0x10
80102088:	03340300 	sra	a2,v1,0x10
8010208c:	1800cc00 	mult	a2,t4
80102090:	c31f0300 	sra	v1,v1,0x1f
80102094:	10b00000 	mfhi	s6
80102098:	83381600 	sra	a3,s6,0x2
8010209c:	2338e300 	subu	a3,a3,v1
801020a0:	00140700 	sll	v0,a3,0x10
801020a4:	03240200 	sra	a0,v0,0x10
801020a8:	18008c00 	mult	a0,t4
801020ac:	04000bae 	sw	t3,4(s0)
801020b0:	2000033c 	lui	v1,0x20
801020b4:	20016334 	ori	v1,v1,0x120
801020b8:	c3170200 	sra	v0,v0,0x1f
801020bc:	080003ae 	sw	v1,8(s0)
801020c0:	10b00000 	mfhi	s6
801020c4:	83181600 	sra	v1,s6,0x2
801020c8:	23186200 	subu	v1,v1,v0
801020cc:	80100300 	sll	v0,v1,0x2
801020d0:	21104300 	addu	v0,v0,v1
801020d4:	40100200 	sll	v0,v0,0x1
801020d8:	23208200 	subu	a0,a0,v0
801020dc:	00240400 	sll	a0,a0,0x10
801020e0:	03240400 	sra	a0,a0,0x10
801020e4:	80180400 	sll	v1,a0,0x2
801020e8:	21186400 	addu	v1,v1,a0
801020ec:	40180300 	sll	v1,v1,0x1
801020f0:	21186a00 	addu	v1,v1,t2
801020f4:	08006294 	lhu	v0,8(v1)
801020f8:	02006484 	lh	a0,2(v1)
801020fc:	00006584 	lh	a1,0(v1)
80102100:	00140200 	sll	v0,v0,0x10
80102104:	00220400 	sll	a0,a0,0x8
80102108:	25104400 	or	v0,v0,a0
8010210c:	25104500 	or	v0,v0,a1
80102110:	0c0002ae 	sw	v0,12(s0)
80102114:	06006284 	lh	v0,6(v1)
80102118:	04006384 	lh	v1,4(v1)
8010211c:	00140200 	sll	v0,v0,0x10
80102120:	25104300 	or	v0,v0,v1
80102124:	100002ae 	sw	v0,16(s0)
80102128:	80100700 	sll	v0,a3,0x2
8010212c:	21104700 	addu	v0,v0,a3
80102130:	40100200 	sll	v0,v0,0x1
80102134:	2330c200 	subu	a2,a2,v0
80102138:	c8d8238d 	lw	v1,-10040(t1)
8010213c:	00000000 	nop
80102140:	0c00628c 	lw	v0,12(v1)
80102144:	00000000 	nop
80102148:	25104800 	or	v0,v0,t0
8010214c:	000002ae 	sw	v0,0(s0)
80102150:	0c0070ac 	sw	s0,12(v1)
80102154:	14001026 	addiu	s0,s0,20
80102158:	2000023c 	lui	v0,0x20
8010215c:	28014234 	ori	v0,v0,0x128
80102160:	00340600 	sll	a2,a2,0x10
80102164:	03340600 	sra	a2,a2,0x10
80102168:	80180600 	sll	v1,a2,0x2
8010216c:	21186600 	addu	v1,v1,a2
80102170:	40180300 	sll	v1,v1,0x1
80102174:	21186a00 	addu	v1,v1,t2
80102178:	04000bae 	sw	t3,4(s0)
8010217c:	080002ae 	sw	v0,8(s0)
80102180:	08006294 	lhu	v0,8(v1)
80102184:	02006484 	lh	a0,2(v1)
80102188:	00006584 	lh	a1,0(v1)
8010218c:	00140200 	sll	v0,v0,0x10
80102190:	00220400 	sll	a0,a0,0x8
80102194:	25104400 	or	v0,v0,a0
80102198:	25104500 	or	v0,v0,a1
8010219c:	0c0002ae 	sw	v0,12(s0)
801021a0:	06006284 	lh	v0,6(v1)
801021a4:	04006384 	lh	v1,4(v1)
801021a8:	00140200 	sll	v0,v0,0x10
801021ac:	25104300 	or	v0,v0,v1
801021b0:	100002ae 	sw	v0,16(s0)
801021b4:	c8d8238d 	lw	v1,-10040(t1)
801021b8:	00000000 	nop
801021bc:	0c00628c 	lw	v0,12(v1)
801021c0:	00000000 	nop
801021c4:	25104800 	or	v0,v0,t0
801021c8:	000002ae 	sw	v0,0(s0)
801021cc:	0c0070ac 	sw	s0,12(v1)
801021d0:	14001026 	addiu	s0,s0,20
801021d4:	21200002 	move	a0,s0
801021d8:	21280000 	move	a1,zero
801021dc:	2130a000 	move	a2,a1
801021e0:	1f000724 	li	a3,31
801021e4:	44f5b0ae 	sw	s0,-2748(s5)
801021e8:	780f020c 	jal	0x80083de0
801021ec:	1000a0af 	sw	zero,16(sp)
801021f0:	c8d8238e 	lw	v1,-10040(s1)
801021f4:	00000000 	nop
801021f8:	0c00628c 	lw	v0,12(v1)
801021fc:	00000000 	nop
80102200:	25105400 	or	v0,v0,s4
80102204:	000002ae 	sw	v0,0(s0)
80102208:	0c0070ac 	sw	s0,12(v1)
8010220c:	0c000226 	addiu	v0,s0,12
80102210:	44f5a2ae 	sw	v0,-2748(s5)
80102214:	0c80023c 	lui	v0,0x800c
80102218:	70f84524 	addiu	a1,v0,-1936
8010221c:	9900a390 	lbu	v1,153(a1)
80102220:	ff000224 	li	v0,255
80102224:	4d006210 	beq	v1,v0,0x8010235c
80102228:	0e80163c 	lui	s6,0x800e
8010222c:	807ed626 	addiu	s6,s6,32384
80102230:	4000c486 	lh	a0,64(s6)
80102234:	8601a284 	lh	v0,390(a1)
80102238:	00190400 	sll	v1,a0,0x4
8010223c:	21208300 	addu	a0,a0,v1
80102240:	1a008200 	div	zero,a0,v0
80102244:	02004014 	bnez	v0,0x80102250
80102248:	00000000 	nop
8010224c:	0d000700 	break	0x7
80102250:	ffff0124 	li	at,-1
80102254:	04004114 	bne	v0,at,0x80102268
80102258:	0080013c 	lui	at,0x8000
8010225c:	02008114 	bne	a0,at,0x80102268
80102260:	00000000 	nop
80102264:	0d000600 	break	0x6
80102268:	12200000 	mflo	a0
8010226c:	08000224 	li	v0,8
80102270:	01009238 	xori	s2,a0,0x1
80102274:	43200400 	sra	a0,a0,0x1
80102278:	23204400 	subu	a0,v0,a0
8010227c:	03008104 	bgez	a0,0x8010228c
80102280:	01005232 	andi	s2,s2,0x1
80102284:	8e2c0408 	j	0x8010b238
80102288:	21200000 	move	a0,zero
8010228c:	09008228 	slti	v0,a0,9
80102290:	04004014 	bnez	v0,0x801022a4
80102294:	21888000 	move	s1,a0
80102298:	08000424 	li	a0,8
8010229c:	21900000 	move	s2,zero
801022a0:	21888000 	move	s1,a0
801022a4:	07001024 	li	s0,7
801022a8:	801f133c 	lui	s3,0x1f80
801022ac:	801f033c 	lui	v1,0x1f80
801022b0:	03000224 	li	v0,3
801022b4:	800062ac 	sw	v0,128(v1)
801022b8:	801f023c 	lui	v0,0x1f80
801022bc:	0100033c 	lui	v1,0x1
801022c0:	840043ac 	sw	v1,132(v0)
801022c4:	801f023c 	lui	v0,0x1f80
801022c8:	880043ac 	sw	v1,136(v0)
801022cc:	801f023c 	lui	v0,0x1f80
801022d0:	1c000324 	li	v1,28
801022d4:	8c0043a4 	sh	v1,140(v0)
801022d8:	8c004224 	addiu	v0,v0,140
801022dc:	c0000324 	li	v1,192
801022e0:	020043a4 	sh	v1,2(v0)
801022e4:	801f023c 	lui	v0,0x1f80
801022e8:	900040ac 	sw	zero,144(v0)
801022ec:	0300201a 	blez	s1,0x801022fc
801022f0:	21200002 	move	a0,s0
801022f4:	b12c0408 	j	0x8010b2c4
801022f8:	01000524 	li	a1,1
801022fc:	0e002016 	bnez	s1,0x80102338
80102300:	00000000 	nop
80102304:	08004012 	beqz	s2,0x80102328
80102308:	21280000 	move	a1,zero
8010230c:	7c016296 	lhu	v0,380(s3)
80102310:	00000000 	nop
80102314:	01004230 	andi	v0,v0,0x1
80102318:	03004014 	bnez	v0,0x80102328
8010231c:	01000524 	li	a1,1
80102320:	21200002 	move	a0,s0
80102324:	21280000 	move	a1,zero
80102328:	8827040c 	jal	0x80109e20
8010232c:	ffff3126 	addiu	s1,s1,-1
80102330:	b82c0408 	j	0x8010b2e0
80102334:	ffff1026 	addiu	s0,s0,-1
80102338:	8827040c 	jal	0x80109e20
8010233c:	21280000 	move	a1,zero
80102340:	ffff1026 	addiu	s0,s0,-1
80102344:	e9ff0106 	bgez	s0,0x801022ec
80102348:	1180043c 	lui	a0,0x8011
8010234c:	f01a8424 	addiu	a0,a0,6896
80102350:	fcff858c 	lw	a1,-4(a0)
80102354:	939e000c 	jal	0x80027a4c
80102358:	00000000 	nop
8010235c:	4400bf8f 	lw	ra,68(sp)
80102360:	4000be8f 	lw	s8,64(sp)
80102364:	3c00b78f 	lw	s7,60(sp)
80102368:	3800b68f 	lw	s6,56(sp)
8010236c:	3400b58f 	lw	s5,52(sp)
80102370:	3000b48f 	lw	s4,48(sp)
80102374:	2c00b38f 	lw	s3,44(sp)
80102378:	2800b28f 	lw	s2,40(sp)
8010237c:	2400b18f 	lw	s1,36(sp)
80102380:	2000b08f 	lw	s0,32(sp)
80102384:	0800e003 	jr	ra
80102388:	4800bd27 	addiu	sp,sp,72
8010238c:	e8ffbd27 	addiu	sp,sp,-24
80102390:	1000bfaf 	sw	ra,16(sp)
80102394:	4c3f010c 	jal	0x8004fd30
80102398:	00000000 	nop
8010239c:	6697000c 	jal	0x80025d98
801023a0:	00000000 	nop
801023a4:	bb27040c 	jal	0x80109eec
801023a8:	00000000 	nop
801023ac:	3827040c 	jal	0x80109ce0
801023b0:	00000000 	nop
801023b4:	3def000c 	jal	0x8003bcf4
801023b8:	00000000 	nop
801023bc:	0f80043c 	lui	a0,0x800f
801023c0:	7542040c 	jal	0x801109d4
801023c4:	18248424 	addiu	a0,a0,9240
801023c8:	12f0000c 	jal	0x8003c048
801023cc:	00000000 	nop
801023d0:	1000bf8f 	lw	ra,16(sp)
801023d4:	00000000 	nop
801023d8:	0800e003 	jr	ra
801023dc:	1800bd27 	addiu	sp,sp,24
801023e0:	e0ffbd27 	addiu	sp,sp,-32
801023e4:	1400b1af 	sw	s1,20(sp)
801023e8:	21888000 	move	s1,a0
801023ec:	1000b0af 	sw	s0,16(sp)
801023f0:	1c00bfaf 	sw	ra,28(sp)
801023f4:	1800b2af 	sw	s2,24(sp)
801023f8:	04002392 	lbu	v1,4(s1)
801023fc:	01001224 	li	s2,1
80102400:	18007210 	beq	v1,s2,0x80102464
80102404:	60003026 	addiu	s0,s1,96
80102408:	02006228 	slti	v0,v1,2
8010240c:	05004010 	beqz	v0,0x80102424
80102410:	00000000 	nop
80102414:	0a006010 	beqz	v1,0x80102440
80102418:	00000000 	nop
8010241c:	c82d0408 	j	0x8010b720
80102420:	00000000 	nop
80102424:	02000224 	li	v0,2
80102428:	90006210 	beq	v1,v0,0x8010266c
8010242c:	03000224 	li	v0,3
80102430:	d2006210 	beq	v1,v0,0x8010277c
80102434:	00000000 	nop
80102438:	c82d0408 	j	0x8010b720
8010243c:	00000000 	nop
80102440:	7b2f040c 	jal	0x8010bdec
80102444:	21202002 	move	a0,s1
80102448:	ce2d040c 	jal	0x8010b738
8010244c:	00000000 	nop
80102450:	1280033c 	lui	v1,0x8012
80102454:	70fe0224 	li	v0,-400
80102458:	e8ba62ac 	sw	v0,-17688(v1)
8010245c:	040032a2 	sb	s2,4(s1)
80102460:	050020a2 	sb	zero,5(s1)
80102464:	5838040c 	jal	0x8010e160
80102468:	21202002 	move	a0,s1
8010246c:	05002392 	lbu	v1,5(s1)
80102470:	00000000 	nop
80102474:	0800622c 	sltiu	v0,v1,8
80102478:	71004010 	beqz	v0,0x80102640
8010247c:	1180023c 	lui	v0,0x8011
80102480:	bc8f4224 	addiu	v0,v0,-28740
80102484:	80180300 	sll	v1,v1,0x2
80102488:	21186200 	addu	v1,v1,v0
8010248c:	0000628c 	lw	v0,0(v1)
80102490:	00000000 	nop
80102494:	08004000 	jr	v0
80102498:	00000000 	nop
8010249c:	17000424 	li	a0,23
801024a0:	0ef8010c 	jal	0x8007e038
801024a4:	03000524 	li	a1,3
801024a8:	1280033c 	lui	v1,0x8012
801024ac:	801f043c 	lui	a0,0x1f80
801024b0:	34bb62ac 	sw	v0,-17612(v1)
801024b4:	0c02828c 	lw	v0,524(a0)
801024b8:	f8ff0324 	li	v1,-8
801024bc:	24104300 	and	v0,v0,v1
801024c0:	0c0282ac 	sw	v0,524(a0)
801024c4:	05002292 	lbu	v0,5(s1)
801024c8:	060020a2 	sb	zero,6(s1)
801024cc:	01004224 	addiu	v0,v0,1
801024d0:	050022a2 	sb	v0,5(s1)
801024d4:	1280033c 	lui	v1,0x8012
801024d8:	05002292 	lbu	v0,5(s1)
801024dc:	38bb6324 	addiu	v1,v1,-17608
801024e0:	ffff4224 	addiu	v0,v0,-1
801024e4:	80100200 	sll	v0,v0,0x2
801024e8:	21104300 	addu	v0,v0,v1
801024ec:	36002386 	lh	v1,54(s1)
801024f0:	0000428c 	lw	v0,0(v0)
801024f4:	00000000 	nop
801024f8:	2a104300 	slt	v0,v0,v1
801024fc:	50004010 	beqz	v0,0x80102640
80102500:	801f043c 	lui	a0,0x1f80
80102504:	0c02828c 	lw	v0,524(a0)
80102508:	f8ff0324 	li	v1,-8
8010250c:	24104300 	and	v0,v0,v1
80102510:	0c0282ac 	sw	v0,524(a0)
80102514:	05002392 	lbu	v1,5(s1)
80102518:	00000000 	nop
8010251c:	0500622c 	sltiu	v0,v1,5
80102520:	2a004010 	beqz	v0,0x801025cc
80102524:	04000224 	li	v0,4
80102528:	0b006214 	bne	v1,v0,0x80102558
8010252c:	1280023c 	lui	v0,0x8012
80102530:	34bb438c 	lw	v1,-17612(v0)
80102534:	02000224 	li	v0,2
80102538:	040062a0 	sb	v0,4(v1)
8010253c:	0e80033c 	lui	v1,0x800e
80102540:	807e6324 	addiu	v1,v1,32384
80102544:	05006290 	lbu	v0,5(v1)
80102548:	00000000 	nop
8010254c:	01004224 	addiu	v0,v0,1
80102550:	050062a0 	sb	v0,5(v1)
80102554:	05002392 	lbu	v1,5(s1)
80102558:	0c02828c 	lw	v0,524(a0)
8010255c:	21280000 	move	a1,zero
80102560:	25104300 	or	v0,v0,v1
80102564:	0c0282ac 	sw	v0,524(a0)
80102568:	1280023c 	lui	v0,0x8012
8010256c:	05002392 	lbu	v1,5(s1)
80102570:	4cbb4224 	addiu	v0,v0,-17588
80102574:	21186200 	addu	v1,v1,v0
80102578:	ffff6490 	lbu	a0,-1(v1)
8010257c:	64d1010c 	jal	0x80074590
80102580:	0f000624 	li	a2,15
80102584:	5a2d0408 	j	0x8010b568
80102588:	00000000 	nop
8010258c:	442e040c 	jal	0x8010b910
80102590:	00000000 	nop
80102594:	0c80023c 	lui	v0,0x800c
80102598:	0ef84290 	lbu	v0,-2034(v0)
8010259c:	00000000 	nop
801025a0:	27004010 	beqz	v0,0x80102640
801025a4:	8a000424 	li	a0,138
801025a8:	21280000 	move	a1,zero
801025ac:	64d1010c 	jal	0x80074590
801025b0:	07000624 	li	a2,7
801025b4:	801f043c 	lui	a0,0x1f80
801025b8:	0c02828c 	lw	v0,524(a0)
801025bc:	f8ff0324 	li	v1,-8
801025c0:	24104300 	and	v0,v0,v1
801025c4:	05004234 	ori	v0,v0,0x5
801025c8:	0c0282ac 	sw	v0,524(a0)
801025cc:	05002292 	lbu	v0,5(s1)
801025d0:	00000000 	nop
801025d4:	01004224 	addiu	v0,v0,1
801025d8:	772d0408 	j	0x8010b5dc
801025dc:	050022a2 	sb	v0,5(s1)
801025e0:	0e000296 	lhu	v0,14(s0)
801025e4:	10000396 	lhu	v1,16(s0)
801025e8:	00140200 	sll	v0,v0,0x10
801025ec:	43140200 	sra	v0,v0,0x11
801025f0:	001c0300 	sll	v1,v1,0x10
801025f4:	0e0002a6 	sh	v0,14(s0)
801025f8:	0c000286 	lh	v0,12(s0)
801025fc:	431c0300 	sra	v1,v1,0x11
80102600:	100003a6 	sh	v1,16(s0)
80102604:	c0030324 	li	v1,960
80102608:	23186200 	subu	v1,v1,v0
8010260c:	0c000296 	lhu	v0,12(s0)
80102610:	83190300 	sra	v1,v1,0x6
80102614:	21104300 	addu	v0,v0,v1
80102618:	16000386 	lh	v1,22(s0)
8010261c:	0c0002a6 	sh	v0,12(s0)
80102620:	16000296 	lhu	v0,22(s0)
80102624:	03006104 	bgez	v1,0x80102634
80102628:	00000000 	nop
8010262c:	762d0408 	j	0x8010b5d8
80102630:	01004224 	addiu	v0,v0,1
80102634:	02006018 	blez	v1,0x80102640
80102638:	ffff4224 	addiu	v0,v0,-1
8010263c:	160002a6 	sh	v0,22(s0)
80102640:	801f023c 	lui	v0,0x1f80
80102644:	37014390 	lbu	v1,311(v0)
80102648:	02000224 	li	v0,2
8010264c:	4d006214 	bne	v1,v0,0x80102784
80102650:	0c80023c 	lui	v0,0x800c
80102654:	0ff84290 	lbu	v0,-2033(v0)
80102658:	00000000 	nop
8010265c:	49004014 	bnez	v0,0x80102784
80102660:	03000224 	li	v0,3
80102664:	c82d0408 	j	0x8010b720
80102668:	040022a2 	sb	v0,4(s1)
8010266c:	05002292 	lbu	v0,5(s1)
80102670:	00000000 	nop
80102674:	05004010 	beqz	v0,0x8010268c
80102678:	21200000 	move	a0,zero
8010267c:	32005210 	beq	v0,s2,0x80102748
80102680:	00000000 	nop
80102684:	c82d0408 	j	0x8010b720
80102688:	00000000 	nop
8010268c:	03000524 	li	a1,3
80102690:	04000624 	li	a2,4
80102694:	0e80103c 	lui	s0,0x800e
80102698:	807e1026 	addiu	s0,s0,32384
8010269c:	77cb010c 	jal	0x80072ddc
801026a0:	26000724 	li	a3,38
801026a4:	1180033c 	lui	v1,0x8011
801026a8:	90e56324 	addiu	v1,v1,-6768
801026ac:	1c0043ac 	sw	v1,28(v0)
801026b0:	100050ac 	sw	s0,16(v0)
801026b4:	100002ae 	sw	v0,16(s0)
801026b8:	2e002396 	lhu	v1,46(s1)
801026bc:	00000000 	nop
801026c0:	2e0043a4 	sh	v1,46(v0)
801026c4:	32002396 	lhu	v1,50(s1)
801026c8:	00000000 	nop
801026cc:	320043a4 	sh	v1,50(v0)
801026d0:	36002396 	lhu	v1,54(s1)
801026d4:	00000000 	nop
801026d8:	360043a4 	sh	v1,54(v0)
801026dc:	07002392 	lbu	v1,7(s1)
801026e0:	21202002 	move	a0,s1
801026e4:	030043a0 	sb	v1,3(v0)
801026e8:	9800288e 	lw	t0,152(s1)
801026ec:	9c00298e 	lw	t1,156(s1)
801026f0:	a0002a8e 	lw	t2,160(s1)
801026f4:	a4002b8e 	lw	t3,164(s1)
801026f8:	980048ac 	sw	t0,152(v0)
801026fc:	9c0049ac 	sw	t1,156(v0)
80102700:	a0004aac 	sw	t2,160(v0)
80102704:	a4004bac 	sw	t3,164(v0)
80102708:	a800288e 	lw	t0,168(s1)
8010270c:	ac00298e 	lw	t1,172(s1)
80102710:	b0002a8e 	lw	t2,176(s1)
80102714:	b4002b8e 	lw	t3,180(s1)
80102718:	a80048ac 	sw	t0,168(v0)
8010271c:	ac0049ac 	sw	t1,172(v0)
80102720:	b0004aac 	sw	t2,176(v0)
80102724:	b4004bac 	sw	t3,180(v0)
80102728:	afdf010c 	jal	0x80077ebc
8010272c:	010032a2 	sb	s2,1(s1)
80102730:	c044010c 	jal	0x80051300
80102734:	21202002 	move	a0,s1
80102738:	05002292 	lbu	v0,5(s1)
8010273c:	00000000 	nop
80102740:	01004224 	addiu	v0,v0,1
80102744:	050022a2 	sb	v0,5(s1)
80102748:	5838040c 	jal	0x8010e160
8010274c:	21202002 	move	a0,s1
80102750:	801f023c 	lui	v0,0x1f80
80102754:	37014390 	lbu	v1,311(v0)
80102758:	02000224 	li	v0,2
8010275c:	09006214 	bne	v1,v0,0x80102784
80102760:	0c80023c 	lui	v0,0x800c
80102764:	0df84280 	lb	v0,-2035(v0)
80102768:	00000000 	nop
8010276c:	05004314 	bne	v0,v1,0x80102784
80102770:	03000224 	li	v0,3
80102774:	c82d0408 	j	0x8010b720
80102778:	040022a2 	sb	v0,4(s1)
8010277c:	89e9010c 	jal	0x8007a624
80102780:	21202002 	move	a0,s1
80102784:	1c00bf8f 	lw	ra,28(sp)
80102788:	1800b28f 	lw	s2,24(sp)
8010278c:	1400b18f 	lw	s1,20(sp)
80102790:	1000b08f 	lw	s0,16(sp)
80102794:	0800e003 	jr	ra
80102798:	2000bd27 	addiu	sp,sp,32
8010279c:	d0ffbd27 	addiu	sp,sp,-48
801027a0:	2400b1af 	sw	s1,36(sp)
801027a4:	21880000 	move	s1,zero
801027a8:	1280023c 	lui	v0,0x8012
801027ac:	2000b0af 	sw	s0,32(sp)
801027b0:	48ba5024 	addiu	s0,v0,-17848
801027b4:	2800bfaf 	sw	ra,40(sp)
801027b8:	1180033c 	lui	v1,0x8011
801027bc:	0400028e 	lw	v0,4(s0)
801027c0:	481b6324 	addiu	v1,v1,6984
801027c4:	40200200 	sll	a0,v0,0x1
801027c8:	21208200 	addu	a0,a0,v0
801027cc:	00210400 	sll	a0,a0,0x4
801027d0:	0c80023c 	lui	v0,0x800c
801027d4:	f8f94290 	lbu	v0,-1544(v0)
801027d8:	00000000 	nop
801027dc:	07102202 	srav	v0,v0,s1
801027e0:	01004230 	andi	v0,v0,0x1
801027e4:	59004014 	bnez	v0,0x8010294c
801027e8:	21388300 	addu	a3,a0,v1
801027ec:	0000e494 	lhu	a0,0(a3)
801027f0:	00000000 	nop
801027f4:	1200a4a7 	sh	a0,18(sp)
801027f8:	0200e594 	lhu	a1,2(a3)
801027fc:	00000000 	nop
80102800:	1600a5a7 	sh	a1,22(sp)
80102804:	0400e694 	lhu	a2,4(a3)
80102808:	00000000 	nop
8010280c:	1a00a6a7 	sh	a2,26(sp)
80102810:	1000e384 	lh	v1,16(a3)
80102814:	1000028e 	lw	v0,16(s0)
80102818:	00000000 	nop
8010281c:	18006200 	mult	v1,v0
80102820:	12400000 	mflo	t0
80102824:	03130800 	sra	v0,t0,0xc
80102828:	21208200 	addu	a0,a0,v0
8010282c:	1200a4a7 	sh	a0,18(sp)
80102830:	1600e384 	lh	v1,22(a3)
80102834:	1000028e 	lw	v0,16(s0)
80102838:	00000000 	nop
8010283c:	18006200 	mult	v1,v0
80102840:	12400000 	mflo	t0
80102844:	03130800 	sra	v0,t0,0xc
80102848:	2128a200 	addu	a1,a1,v0
8010284c:	1600a5a7 	sh	a1,22(sp)
80102850:	1c00e384 	lh	v1,28(a3)
80102854:	1000028e 	lw	v0,16(s0)
80102858:	00000000 	nop
8010285c:	18006200 	mult	v1,v0
80102860:	12400000 	mflo	t0
80102864:	03130800 	sra	v0,t0,0xc
80102868:	2130c200 	addu	a2,a2,v0
8010286c:	1a00a6a7 	sh	a2,26(sp)
80102870:	1200e384 	lh	v1,18(a3)
80102874:	1400028e 	lw	v0,20(s0)
80102878:	00000000 	nop
8010287c:	18006200 	mult	v1,v0
80102880:	12400000 	mflo	t0
80102884:	03130800 	sra	v0,t0,0xc
80102888:	21208200 	addu	a0,a0,v0
8010288c:	1200a4a7 	sh	a0,18(sp)
80102890:	1800e384 	lh	v1,24(a3)
80102894:	1400028e 	lw	v0,20(s0)
80102898:	00000000 	nop
8010289c:	18006200 	mult	v1,v0
801028a0:	12400000 	mflo	t0
801028a4:	03130800 	sra	v0,t0,0xc
801028a8:	2128a200 	addu	a1,a1,v0
801028ac:	1600a5a7 	sh	a1,22(sp)
801028b0:	1e00e384 	lh	v1,30(a3)
801028b4:	1400028e 	lw	v0,20(s0)
801028b8:	00000000 	nop
801028bc:	18006200 	mult	v1,v0
801028c0:	12400000 	mflo	t0
801028c4:	03130800 	sra	v0,t0,0xc
801028c8:	2130c200 	addu	a2,a2,v0
801028cc:	1a00a6a7 	sh	a2,26(sp)
801028d0:	1400e384 	lh	v1,20(a3)
801028d4:	1800028e 	lw	v0,24(s0)
801028d8:	00000000 	nop
801028dc:	18006200 	mult	v1,v0
801028e0:	12400000 	mflo	t0
801028e4:	03130800 	sra	v0,t0,0xc
801028e8:	21208200 	addu	a0,a0,v0
801028ec:	1200a4a7 	sh	a0,18(sp)
801028f0:	1a00e384 	lh	v1,26(a3)
801028f4:	1800028e 	lw	v0,24(s0)
801028f8:	00000000 	nop
801028fc:	18006200 	mult	v1,v0
80102900:	12400000 	mflo	t0
80102904:	03130800 	sra	v0,t0,0xc
80102908:	2128a200 	addu	a1,a1,v0
8010290c:	1600a5a7 	sh	a1,22(sp)
80102910:	2000e384 	lh	v1,32(a3)
80102914:	1800028e 	lw	v0,24(s0)
80102918:	00000000 	nop
8010291c:	18006200 	mult	v1,v0
80102920:	01040424 	li	a0,1025
80102924:	1000a527 	addiu	a1,sp,16
80102928:	12400000 	mflo	t0
8010292c:	03130800 	sra	v0,t0,0xc
80102930:	2130c200 	addu	a2,a2,v0
80102934:	1a00a6a7 	sh	a2,26(sp)
80102938:	5bc4000c 	jal	0x8003116c
8010293c:	21300000 	move	a2,zero
80102940:	000002ae 	sw	v0,0(s0)
80102944:	3b2e0408 	j	0x8010b8ec
80102948:	1c0000ae 	sw	zero,28(s0)
8010294c:	000000ae 	sw	zero,0(s0)
80102950:	01003126 	addiu	s1,s1,1
80102954:	0500222a 	slti	v0,s1,5
80102958:	97ff4014 	bnez	v0,0x801027b8
8010295c:	20001026 	addiu	s0,s0,32
80102960:	2800bf8f 	lw	ra,40(sp)
80102964:	2400b18f 	lw	s1,36(sp)
80102968:	2000b08f 	lw	s0,32(sp)
8010296c:	0800e003 	jr	ra
80102970:	3000bd27 	addiu	sp,sp,48
80102974:	c8ffbd27 	addiu	sp,sp,-56
80102978:	0e80023c 	lui	v0,0x800e
8010297c:	2800b4af 	sw	s4,40(sp)
80102980:	807e5424 	addiu	s4,v0,32384
80102984:	801f023c 	lui	v0,0x1f80
80102988:	1800b0af 	sw	s0,24(sp)
8010298c:	0802508c 	lw	s0,520(v0)
80102990:	21208002 	move	a0,s4
80102994:	3400bfaf 	sw	ra,52(sp)
80102998:	3000b6af 	sw	s6,48(sp)
8010299c:	2c00b5af 	sw	s5,44(sp)
801029a0:	2400b3af 	sw	s3,36(sp)
801029a4:	2000b2af 	sw	s2,32(sp)
801029a8:	1c26040c 	jal	0x80109870
801029ac:	1c00b1af 	sw	s1,28(sp)
801029b0:	c400828e 	lw	v0,196(s4)
801029b4:	00000000 	nop
801029b8:	2c004494 	lhu	a0,44(v0)
801029bc:	6000138e 	lw	s3,96(s0)
801029c0:	1000a4a7 	sh	a0,16(sp)
801029c4:	30004594 	lhu	a1,48(v0)
801029c8:	00000000 	nop
801029cc:	1200a5a7 	sh	a1,18(sp)
801029d0:	34004694 	lhu	a2,52(v0)
801029d4:	60001226 	addiu	s2,s0,96
801029d8:	1400a6a7 	sh	a2,20(sp)
801029dc:	14006386 	lh	v1,20(s3)
801029e0:	0a004286 	lh	v0,10(s2)
801029e4:	00000000 	nop
801029e8:	18006200 	mult	v1,v0
801029ec:	12380000 	mflo	a3
801029f0:	03130700 	sra	v0,a3,0xc
801029f4:	23208200 	subu	a0,a0,v0
801029f8:	1000a4a7 	sh	a0,16(sp)
801029fc:	1a006386 	lh	v1,26(s3)
80102a00:	0a004286 	lh	v0,10(s2)
80102a04:	00000000 	nop
80102a08:	18006200 	mult	v1,v0
80102a0c:	12380000 	mflo	a3
80102a10:	03130700 	sra	v0,a3,0xc
80102a14:	2328a200 	subu	a1,a1,v0
80102a18:	1200a5a7 	sh	a1,18(sp)
80102a1c:	20006386 	lh	v1,32(s3)
80102a20:	0a004286 	lh	v0,10(s2)
80102a24:	00000000 	nop
80102a28:	18006200 	mult	v1,v0
80102a2c:	1280023c 	lui	v0,0x8012
80102a30:	50bb428c 	lw	v0,-17584(v0)
80102a34:	12380000 	mflo	a3
80102a38:	031b0700 	sra	v1,a3,0xc
80102a3c:	2330c300 	subu	a2,a2,v1
80102a40:	03005310 	beq	v0,s3,0x80102a50
80102a44:	1400a6a7 	sh	a2,20(sp)
80102a48:	1280023c 	lui	v0,0x8012
80102a4c:	5cbb40ac 	sw	zero,-17572(v0)
80102a50:	7e018286 	lh	v0,382(s4)
80102a54:	00000000 	nop
80102a58:	00824230 	andi	v0,v0,0x8200
80102a5c:	5c004014 	bnez	v0,0x80102bd0
80102a60:	1280033c 	lui	v1,0x8012
80102a64:	5cbb628c 	lw	v0,-17572(v1)
80102a68:	00000000 	nop
80102a6c:	01004224 	addiu	v0,v0,1
80102a70:	5cbb62ac 	sw	v0,-17572(v1)
80102a74:	03004228 	slti	v0,v0,3
80102a78:	55004010 	beqz	v0,0x80102bd0
80102a7c:	21880000 	move	s1,zero
80102a80:	1180023c 	lui	v0,0x8011
80102a84:	481b5624 	addiu	s6,v0,6984
80102a88:	01001524 	li	s5,1
80102a8c:	1280023c 	lui	v0,0x8012
80102a90:	48ba5024 	addiu	s0,v0,-17848
80102a94:	0400038e 	lw	v1,4(s0)
80102a98:	0000048e 	lw	a0,0(s0)
80102a9c:	40100300 	sll	v0,v1,0x1
80102aa0:	21104300 	addu	v0,v0,v1
80102aa4:	00110200 	sll	v0,v0,0x4
80102aa8:	45008010 	beqz	a0,0x80102bc0
80102aac:	21105600 	addu	v0,v0,s6
80102ab0:	42005314 	bne	v0,s3,0x80102bbc
80102ab4:	00000000 	nop
80102ab8:	2c008284 	lh	v0,44(a0)
80102abc:	1000a387 	lh	v1,16(sp)
80102ac0:	00000000 	nop
80102ac4:	23104300 	subu	v0,v0,v1
80102ac8:	18004200 	mult	v0,v0
80102acc:	2e008284 	lh	v0,46(a0)
80102ad0:	1200a387 	lh	v1,18(sp)
80102ad4:	12300000 	mflo	a2
80102ad8:	23104300 	subu	v0,v0,v1
80102adc:	00000000 	nop
80102ae0:	18004200 	mult	v0,v0
80102ae4:	1400a387 	lh	v1,20(sp)
80102ae8:	30008284 	lh	v0,48(a0)
80102aec:	12280000 	mflo	a1
80102af0:	23104300 	subu	v0,v0,v1
80102af4:	00000000 	nop
80102af8:	18004200 	mult	v0,v0
80102afc:	2120c500 	addu	a0,a2,a1
80102b00:	12180000 	mflo	v1
80102b04:	ecdf010c 	jal	0x80077fb0
80102b08:	21208300 	addu	a0,a0,v1
80102b0c:	12004392 	lbu	v1,18(s2)
80102b10:	00000000 	nop
80102b14:	01006330 	andi	v1,v1,0x1
80102b18:	02006014 	bnez	v1,0x80102b24
80102b1c:	ffff4230 	andi	v0,v0,0xffff
80102b20:	83100200 	sra	v0,v0,0x2
80102b24:	96004228 	slti	v0,v0,150
80102b28:	24004010 	beqz	v0,0x80102bbc
80102b2c:	00000000 	nop
80102b30:	1c00028e 	lw	v0,28(s0)
80102b34:	00000000 	nop
80102b38:	21004014 	bnez	v0,0x80102bc0
80102b3c:	1f000424 	li	a0,31
80102b40:	3dc4000c 	jal	0x800310f4
80102b44:	21280000 	move	a1,zero
80102b48:	21184000 	move	v1,v0
80102b4c:	10006010 	beqz	v1,0x80102b90
80102b50:	36000424 	li	a0,54
80102b54:	0000028e 	lw	v0,0(s0)
80102b58:	00000000 	nop
80102b5c:	2c004294 	lhu	v0,44(v0)
80102b60:	00000000 	nop
80102b64:	2c0062a4 	sh	v0,44(v1)
80102b68:	0000028e 	lw	v0,0(s0)
80102b6c:	00000000 	nop
80102b70:	2e004294 	lhu	v0,46(v0)
80102b74:	00000000 	nop
80102b78:	2e0062a4 	sh	v0,46(v1)
80102b7c:	0000028e 	lw	v0,0(s0)
80102b80:	00000000 	nop
80102b84:	30004294 	lhu	v0,48(v0)
80102b88:	00000000 	nop
80102b8c:	300062a4 	sh	v0,48(v1)
80102b90:	02000524 	li	a1,2
80102b94:	0000038e 	lw	v1,0(s0)
80102b98:	2110a000 	move	v0,a1
80102b9c:	1c0015ae 	sw	s5,28(s0)
80102ba0:	433b010c 	jal	0x8004ed0c
80102ba4:	040062a0 	sb	v0,4(v1)
80102ba8:	2b008292 	lbu	v0,43(s4)
80102bac:	04183502 	sllv	v1,s5,s1
80102bb0:	25104300 	or	v0,v0,v1
80102bb4:	d72e0408 	j	0x8010bb5c
80102bb8:	2b0082a2 	sb	v0,43(s4)
80102bbc:	1c0000ae 	sw	zero,28(s0)
80102bc0:	01003126 	addiu	s1,s1,1
80102bc4:	0500222a 	slti	v0,s1,5
80102bc8:	b2ff4014 	bnez	v0,0x80102a94
80102bcc:	20001026 	addiu	s0,s0,32
80102bd0:	0000438e 	lw	v1,0(s2)
80102bd4:	3400bf8f 	lw	ra,52(sp)
80102bd8:	3000b68f 	lw	s6,48(sp)
80102bdc:	2c00b58f 	lw	s5,44(sp)
80102be0:	2800b48f 	lw	s4,40(sp)
80102be4:	2400b38f 	lw	s3,36(sp)
80102be8:	1c00b18f 	lw	s1,28(sp)
80102bec:	1800b08f 	lw	s0,24(sp)
80102bf0:	1280023c 	lui	v0,0x8012
80102bf4:	50bb43ac 	sw	v1,-17584(v0)
80102bf8:	0e004386 	lh	v1,14(s2)
80102bfc:	1280023c 	lui	v0,0x8012
80102c00:	54bb43ac 	sw	v1,-17580(v0)
80102c04:	16004386 	lh	v1,22(s2)
80102c08:	2000b28f 	lw	s2,32(sp)
80102c0c:	1280023c 	lui	v0,0x8012
80102c10:	58bb43ac 	sw	v1,-17576(v0)
80102c14:	0800e003 	jr	ra
80102c18:	3800bd27 	addiu	sp,sp,56
80102c1c:	c8ffbd27 	addiu	sp,sp,-56
80102c20:	3000b6af 	sw	s6,48(sp)
80102c24:	21b08000 	move	s6,a0
80102c28:	2000b2af 	sw	s2,32(sp)
80102c2c:	2190a000 	move	s2,a1
80102c30:	1c00b1af 	sw	s1,28(sp)
80102c34:	2188c000 	move	s1,a2
80102c38:	1280023c 	lui	v0,0x8012
80102c3c:	2c00b5af 	sw	s5,44(sp)
80102c40:	ecba5524 	addiu	s5,v0,-17684
80102c44:	3400bfaf 	sw	ra,52(sp)
80102c48:	2800b4af 	sw	s4,40(sp)
80102c4c:	2400b3af 	sw	s3,36(sp)
80102c50:	1800b0af 	sw	s0,24(sp)
80102c54:	1400a286 	lh	v0,20(s5)
80102c58:	1200a386 	lh	v1,18(s5)
80102c5c:	02004104 	bgez	v0,0x80102c68
80102c60:	00000000 	nop
80102c64:	23100200 	negu	v0,v0
80102c68:	1d005324 	addiu	s3,v0,29
80102c6c:	02006104 	bgez	v1,0x80102c78
80102c70:	00000000 	nop
80102c74:	23180300 	negu	v1,v1
80102c78:	02002106 	bgez	s1,0x80102c84
80102c7c:	17007424 	addiu	s4,v1,23
80102c80:	23981300 	negu	s3,s3
80102c84:	d40f020c 	jal	0x80083f50
80102c88:	21202002 	move	a0,s1
80102c8c:	21202002 	move	a0,s1
80102c90:	a00f020c 	jal	0x80083e80
80102c94:	21804000 	move	s0,v0
80102c98:	18007002 	mult	s3,s0
80102c9c:	12180000 	mflo	v1
	...
80102ca8:	18008202 	mult	s4,v0
80102cac:	21202002 	move	a0,s1
80102cb0:	12380000 	mflo	a3
80102cb4:	21806700 	addu	s0,v1,a3
80102cb8:	a00f020c 	jal	0x80083e80
80102cbc:	03831000 	sra	s0,s0,0xc
80102cc0:	21202002 	move	a0,s1
80102cc4:	d40f020c 	jal	0x80083f50
80102cc8:	21884000 	move	s1,v0
80102ccc:	23181300 	negu	v1,s3
80102cd0:	18007100 	mult	v1,s1
80102cd4:	12180000 	mflo	v1
	...
80102ce0:	18008202 	mult	s4,v0
80102ce4:	12400000 	mflo	t0
80102ce8:	04004286 	lh	v0,4(s2)
80102cec:	23801302 	subu	s0,s0,s3
80102cf0:	18000202 	mult	s0,v0
80102cf4:	12280000 	mflo	a1
80102cf8:	0a004286 	lh	v0,10(s2)
80102cfc:	00000000 	nop
80102d00:	18000202 	mult	s0,v0
80102d04:	12300000 	mflo	a2
80102d08:	10004286 	lh	v0,16(s2)
80102d0c:	00000000 	nop
80102d10:	18000202 	mult	s0,v0
80102d14:	21206800 	addu	a0,v1,t0
80102d18:	03230400 	sra	a0,a0,0xc
80102d1c:	12380000 	mflo	a3
80102d20:	02004286 	lh	v0,2(s2)
80102d24:	23209400 	subu	a0,a0,s4
80102d28:	18008200 	mult	a0,v0
80102d2c:	12400000 	mflo	t0
80102d30:	08004286 	lh	v0,8(s2)
80102d34:	00000000 	nop
80102d38:	18008200 	mult	a0,v0
80102d3c:	031b0500 	sra	v1,a1,0xc
80102d40:	1400428e 	lw	v0,20(s2)
80102d44:	032b0700 	sra	a1,a3,0xc
80102d48:	21104300 	addu	v0,v0,v1
80102d4c:	140042ae 	sw	v0,20(s2)
80102d50:	1800428e 	lw	v0,24(s2)
80102d54:	031b0600 	sra	v1,a2,0xc
80102d58:	21104300 	addu	v0,v0,v1
80102d5c:	180042ae 	sw	v0,24(s2)
80102d60:	1c00428e 	lw	v0,28(s2)
80102d64:	12480000 	mflo	t1
80102d68:	0e004386 	lh	v1,14(s2)
80102d6c:	21104500 	addu	v0,v0,a1
80102d70:	18008300 	mult	a0,v1
80102d74:	1c0042ae 	sw	v0,28(s2)
80102d78:	1400428e 	lw	v0,20(s2)
80102d7c:	031b0800 	sra	v1,t0,0xc
80102d80:	21104300 	addu	v0,v0,v1
80102d84:	031b0900 	sra	v1,t1,0xc
80102d88:	140042ae 	sw	v0,20(s2)
80102d8c:	1800428e 	lw	v0,24(s2)
80102d90:	02004486 	lh	a0,2(s2)
80102d94:	21104300 	addu	v0,v0,v1
80102d98:	180042ae 	sw	v0,24(s2)
80102d9c:	1c00428e 	lw	v0,28(s2)
80102da0:	12380000 	mflo	a3
80102da4:	031b0700 	sra	v1,a3,0xc
80102da8:	21104300 	addu	v0,v0,v1
80102dac:	1c0042ae 	sw	v0,28(s2)
80102db0:	1200a286 	lh	v0,18(s5)
80102db4:	8a00c386 	lh	v1,138(s6)
80102db8:	02004104 	bgez	v0,0x80102dc4
80102dbc:	00000000 	nop
80102dc0:	23100200 	negu	v0,v0
80102dc4:	17004224 	addiu	v0,v0,23
80102dc8:	23100200 	negu	v0,v0
80102dcc:	23104300 	subu	v0,v0,v1
80102dd0:	18004400 	mult	v0,a0
80102dd4:	12380000 	mflo	a3
80102dd8:	08004386 	lh	v1,8(s2)
80102ddc:	00000000 	nop
80102de0:	18004300 	mult	v0,v1
80102de4:	12200000 	mflo	a0
80102de8:	0e004386 	lh	v1,14(s2)
80102dec:	00000000 	nop
80102df0:	18004300 	mult	v0,v1
80102df4:	1400428e 	lw	v0,20(s2)
80102df8:	031b0700 	sra	v1,a3,0xc
80102dfc:	21104300 	addu	v0,v0,v1
80102e00:	140042ae 	sw	v0,20(s2)
80102e04:	1800428e 	lw	v0,24(s2)
80102e08:	031b0400 	sra	v1,a0,0xc
80102e0c:	21104300 	addu	v0,v0,v1
80102e10:	180042ae 	sw	v0,24(s2)
80102e14:	1c00428e 	lw	v0,28(s2)
80102e18:	12280000 	mflo	a1
80102e1c:	031b0500 	sra	v1,a1,0xc
80102e20:	21104300 	addu	v0,v0,v1
80102e24:	1c0042ae 	sw	v0,28(s2)
80102e28:	3400bf8f 	lw	ra,52(sp)
80102e2c:	3000b68f 	lw	s6,48(sp)
80102e30:	2c00b58f 	lw	s5,44(sp)
80102e34:	2800b48f 	lw	s4,40(sp)
80102e38:	2400b38f 	lw	s3,36(sp)
80102e3c:	2000b28f 	lw	s2,32(sp)
80102e40:	1c00b18f 	lw	s1,28(sp)
80102e44:	1800b08f 	lw	s0,24(sp)
80102e48:	0800e003 	jr	ra
80102e4c:	3800bd27 	addiu	sp,sp,56
80102e50:	c8ffbd27 	addiu	sp,sp,-56
80102e54:	2000b4af 	sw	s4,32(sp)
80102e58:	21a08000 	move	s4,a0
80102e5c:	2800b6af 	sw	s6,40(sp)
80102e60:	60009626 	addiu	s6,s4,96
80102e64:	1280023c 	lui	v0,0x8012
80102e68:	1c00b3af 	sw	s3,28(sp)
80102e6c:	ecba5324 	addiu	s3,v0,-17684
80102e70:	0c80023c 	lui	v0,0x800c
80102e74:	2c00b7af 	sw	s7,44(sp)
80102e78:	70f85724 	addiu	s7,v0,-1936
80102e7c:	1000b0af 	sw	s0,16(sp)
80102e80:	21808002 	move	s0,s4
80102e84:	05000224 	li	v0,5
80102e88:	3000bfaf 	sw	ra,48(sp)
80102e8c:	2400b5af 	sw	s5,36(sp)
80102e90:	1800b2af 	sw	s2,24(sp)
80102e94:	1400b1af 	sw	s1,20(sp)
80102e98:	080082a2 	sb	v0,8(s4)
80102e9c:	090082a2 	sb	v0,9(s4)
80102ea0:	0f80023c 	lui	v0,0x800f
80102ea4:	a0cf528c 	lw	s2,-12384(v0)
80102ea8:	0c007126 	addiu	s1,s3,12
80102eac:	0d0080a2 	sb	zero,13(s4)
80102eb0:	0b0080a2 	sb	zero,11(s4)
80102eb4:	04005526 	addiu	s5,s2,4
80102eb8:	baea010c 	jal	0x8007aae8
80102ebc:	00000000 	nop
80102ec0:	c00002ae 	sw	v0,192(s0)
80102ec4:	00006396 	lhu	v1,0(s3)
80102ec8:	00000000 	nop
80102ecc:	060043a4 	sh	v1,6(v0)
80102ed0:	c000038e 	lw	v1,192(s0)
80102ed4:	f6ff2296 	lhu	v0,-10(s1)
80102ed8:	00000000 	nop
80102edc:	000062a4 	sh	v0,0(v1)
80102ee0:	c000038e 	lw	v1,192(s0)
80102ee4:	f8ff2296 	lhu	v0,-8(s1)
80102ee8:	00000000 	nop
80102eec:	020062a4 	sh	v0,2(v1)
80102ef0:	c000038e 	lw	v1,192(s0)
80102ef4:	faff2296 	lhu	v0,-6(s1)
80102ef8:	00000000 	nop
80102efc:	040062a4 	sh	v0,4(v1)
80102f00:	c000038e 	lw	v1,192(s0)
80102f04:	fcff2296 	lhu	v0,-4(s1)
80102f08:	00000000 	nop
80102f0c:	080062a4 	sh	v0,8(v1)
80102f10:	c000038e 	lw	v1,192(s0)
80102f14:	feff2296 	lhu	v0,-2(s1)
80102f18:	00000000 	nop
80102f1c:	0a0062a4 	sh	v0,10(v1)
80102f20:	c000038e 	lw	v1,192(s0)
80102f24:	00002296 	lhu	v0,0(s1)
80102f28:	10001416 	bne	s0,s4,0x80102f6c
80102f2c:	0c0062a4 	sh	v0,12(v1)
80102f30:	9800e392 	lbu	v1,152(s7)
80102f34:	ff000224 	li	v0,255
80102f38:	09006214 	bne	v1,v0,0x80102f60
80102f3c:	00000000 	nop
80102f40:	9700e292 	lbu	v0,151(s7)
80102f44:	00000000 	nop
80102f48:	05004314 	bne	v0,v1,0x80102f60
80102f4c:	00000000 	nop
80102f50:	0c00a28e 	lw	v0,12(s5)
80102f54:	c000838e 	lw	v1,192(s4)
80102f58:	c52f0408 	j	0x8010bf14
80102f5c:	21104202 	addu	v0,s2,v0
80102f60:	0000a28e 	lw	v0,0(s5)
80102f64:	c32f0408 	j	0x8010bf0c
80102f68:	00000000 	nop
80102f6c:	0400a28e 	lw	v0,4(s5)
80102f70:	c000038e 	lw	v1,192(s0)
80102f74:	21104202 	addu	v0,s2,v0
80102f78:	400062ac 	sw	v0,64(v1)
80102f7c:	0e003126 	addiu	s1,s1,14
80102f80:	04001026 	addiu	s0,s0,4
80102f84:	14008226 	addiu	v0,s4,20
80102f88:	2a100202 	slt	v0,s0,v0
80102f8c:	caff4014 	bnez	v0,0x80102eb8
80102f90:	0e007326 	addiu	s3,s3,14
80102f94:	1180023c 	lui	v0,0x8011
80102f98:	481b4224 	addiu	v0,v0,6984
80102f9c:	540080a6 	sh	zero,84(s4)
80102fa0:	560080a6 	sh	zero,86(s4)
80102fa4:	580080a6 	sh	zero,88(s4)
80102fa8:	8a0080a6 	sh	zero,138(s4)
80102fac:	0000c2ae 	sw	v0,0(s6)
80102fb0:	d0080224 	li	v0,2256
80102fb4:	0c00c2a6 	sh	v0,12(s6)
80102fb8:	01000224 	li	v0,1
80102fbc:	1200c2a2 	sb	v0,18(s6)
80102fc0:	1180023c 	lui	v0,0x8011
80102fc4:	0400c0a6 	sh	zero,4(s6)
80102fc8:	0600c0a6 	sh	zero,6(s6)
80102fcc:	0800c0a6 	sh	zero,8(s6)
80102fd0:	0a00c0a6 	sh	zero,10(s6)
80102fd4:	1600c0a6 	sh	zero,22(s6)
80102fd8:	1c00838e 	lw	v1,28(s4)
80102fdc:	7cb34224 	addiu	v0,v0,-19588
80102fe0:	29006214 	bne	v1,v0,0x80103088
80102fe4:	4a0080a6 	sh	zero,74(s4)
80102fe8:	02040424 	li	a0,1026
80102fec:	c4ff0524 	li	a1,-60
80102ff0:	801f023c 	lui	v0,0x1f80
80102ff4:	080254ac 	sw	s4,520(v0)
80102ff8:	801f023c 	lui	v0,0x1f80
80102ffc:	3dc4000c 	jal	0x800310f4
80103000:	0c0240ac 	sw	zero,524(v0)
80103004:	21184000 	move	v1,v0
80103008:	05006010 	beqz	v1,0x80103020
8010300c:	02000224 	li	v0,2
80103010:	500062ac 	sw	v0,80(v1)
80103014:	60ff0224 	li	v0,-160
80103018:	540062ac 	sw	v0,84(v1)
8010301c:	100074ac 	sw	s4,16(v1)
80103020:	02040424 	li	a0,1026
80103024:	3dc4000c 	jal	0x800310f4
80103028:	c4ff0524 	li	a1,-60
8010302c:	21184000 	move	v1,v0
80103030:	05006010 	beqz	v1,0x80103048
80103034:	04000224 	li	v0,4
80103038:	500062ac 	sw	v0,80(v1)
8010303c:	a0000224 	li	v0,160
80103040:	540062ac 	sw	v0,84(v1)
80103044:	100074ac 	sw	s4,16(v1)
80103048:	21280000 	move	a1,zero
8010304c:	1280023c 	lui	v0,0x8012
80103050:	d8bc4224 	addiu	v0,v0,-17192
80103054:	04004424 	addiu	a0,v0,4
80103058:	21184000 	move	v1,v0
8010305c:	000060ac 	sw	zero,0(v1)
80103060:	000080ac 	sw	zero,0(a0)
80103064:	08008424 	addiu	a0,a0,8
80103068:	0100a524 	addiu	a1,a1,1
8010306c:	8000a228 	slti	v0,a1,128
80103070:	faff4014 	bnez	v0,0x8010305c
80103074:	08006324 	addiu	v1,v1,8
80103078:	1280023c 	lui	v0,0x8012
8010307c:	d8c040ac 	sw	zero,-16168(v0)
80103080:	1280023c 	lui	v0,0x8012
80103084:	dcc040ac 	sw	zero,-16164(v0)
80103088:	420080a6 	sh	zero,66(s4)
8010308c:	1800c0a6 	sh	zero,24(s6)
80103090:	1a00c0a6 	sh	zero,26(s6)
80103094:	1300c0a2 	sb	zero,19(s6)
80103098:	3000bf8f 	lw	ra,48(sp)
8010309c:	2c00b78f 	lw	s7,44(sp)
801030a0:	2800b68f 	lw	s6,40(sp)
801030a4:	2400b58f 	lw	s5,36(sp)
801030a8:	2000b48f 	lw	s4,32(sp)
801030ac:	1c00b38f 	lw	s3,28(sp)
801030b0:	1800b28f 	lw	s2,24(sp)
801030b4:	1400b18f 	lw	s1,20(sp)
801030b8:	1000b08f 	lw	s0,16(sp)
801030bc:	0800e003 	jr	ra
801030c0:	3800bd27 	addiu	sp,sp,56
801030c4:	21408000 	move	t0,a0
801030c8:	03000015 	bnez	t0,0x801030d8
801030cc:	2148a000 	move	t1,a1
801030d0:	1180023c 	lui	v0,0x8011
801030d4:	481b4824 	addiu	t0,v0,6984
801030d8:	0e002005 	bltz	t1,0x80103114
801030dc:	1180023c 	lui	v0,0x8011
801030e0:	21500001 	move	t2,t0
801030e4:	30004825 	addiu	t0,t2,48
801030e8:	2400028d 	lw	v0,36(t0)
801030ec:	00000000 	nop
801030f0:	f8ff4010 	beqz	v0,0x801030d4
801030f4:	1180023c 	lui	v0,0x8011
801030f8:	26004385 	lh	v1,38(t2)
801030fc:	00000000 	nop
80103100:	2a102301 	slt	v0,t1,v1
80103104:	17004014 	bnez	v0,0x80103164
80103108:	00000000 	nop
8010310c:	1f300408 	j	0x8010c07c
80103110:	23482301 	subu	t1,t1,v1
80103114:	481b4324 	addiu	v1,v0,6984
80103118:	21500001 	move	t2,t0
8010311c:	d0ff4825 	addiu	t0,t2,-48
80103120:	2b100301 	sltu	v0,t0,v1
80103124:	08004010 	beqz	v0,0x80103148
80103128:	00000000 	nop
8010312c:	30000825 	addiu	t0,t0,48
80103130:	2400028d 	lw	v0,36(t0)
80103134:	00000000 	nop
80103138:	fdff4014 	bnez	v0,0x80103130
8010313c:	30000825 	addiu	t0,t0,48
80103140:	1d300408 	j	0x8010c074
80103144:	d0ff0825 	addiu	t0,t0,-48
80103148:	26000285 	lh	v0,38(t0)
8010314c:	00000000 	nop
80103150:	21482201 	addu	t1,t1,v0
80103154:	f0ff2005 	bltz	t1,0x80103118
80103158:	21100001 	move	v0,t0
8010315c:	21404001 	move	t0,t2
80103160:	21504000 	move	t2,v0
80103164:	2400028d 	lw	v0,36(t0)
80103168:	00000000 	nop
8010316c:	d8ff4010 	beqz	v0,0x801030d0
80103170:	00140900 	sll	v0,t1,0x10
80103174:	26004385 	lh	v1,38(t2)
80103178:	00000000 	nop
8010317c:	1a004300 	div	zero,v0,v1
80103180:	02006014 	bnez	v1,0x8010318c
80103184:	00000000 	nop
80103188:	0d000700 	break	0x7
8010318c:	ffff0124 	li	at,-1
80103190:	04006114 	bne	v1,at,0x801031a4
80103194:	0080013c 	lui	at,0x8000
80103198:	02004114 	bne	v0,at,0x801031a4
8010319c:	00000000 	nop
801031a0:	0d000600 	break	0x6
801031a4:	12580000 	mflo	t3
801031a8:	00000285 	lh	v0,0(t0)
801031ac:	00004385 	lh	v1,0(t2)
801031b0:	00000000 	nop
801031b4:	23104300 	subu	v0,v0,v1
801031b8:	18004b00 	mult	v0,t3
801031bc:	02004385 	lh	v1,2(t2)
801031c0:	02000285 	lh	v0,2(t0)
801031c4:	12700000 	mflo	t6
801031c8:	23104300 	subu	v0,v0,v1
801031cc:	00000000 	nop
801031d0:	18004b00 	mult	v0,t3
801031d4:	04004485 	lh	a0,4(t2)
801031d8:	04000385 	lh	v1,4(t0)
801031dc:	00000000 	nop
801031e0:	23186400 	subu	v1,v1,a0
801031e4:	032c0e00 	sra	a1,t6,0x10
801031e8:	00004295 	lhu	v0,0(t2)
801031ec:	12600000 	mflo	t4
801031f0:	21104500 	addu	v0,v0,a1
801031f4:	0000c2a4 	sh	v0,0(a2)
801031f8:	18006b00 	mult	v1,t3
801031fc:	00140200 	sll	v0,v0,0x10
80103200:	03140200 	sra	v0,v0,0x10
80103204:	1400e2ac 	sw	v0,20(a3)
80103208:	02004295 	lhu	v0,2(t2)
8010320c:	031c0c00 	sra	v1,t4,0x10
80103210:	21104300 	addu	v0,v0,v1
80103214:	0200c2a4 	sh	v0,2(a2)
80103218:	00140200 	sll	v0,v0,0x10
8010321c:	03140200 	sra	v0,v0,0x10
80103220:	1800e2ac 	sw	v0,24(a3)
80103224:	04004295 	lhu	v0,4(t2)
80103228:	12700000 	mflo	t6
8010322c:	031c0e00 	sra	v1,t6,0x10
80103230:	21104300 	addu	v0,v0,v1
80103234:	0400c2a4 	sh	v0,4(a2)
80103238:	00140200 	sll	v0,v0,0x10
8010323c:	03140200 	sra	v0,v0,0x10
80103240:	1c00e2ac 	sw	v0,28(a3)
80103244:	0600c9a4 	sh	t1,6(a2)
80103248:	06000285 	lh	v0,6(t0)
8010324c:	00000000 	nop
80103250:	00804230 	andi	v0,v0,0x8000
80103254:	5c004014 	bnez	v0,0x801033c8
80103258:	10004525 	addiu	a1,t2,16
8010325c:	10000285 	lh	v0,16(t0)
80103260:	10004385 	lh	v1,16(t2)
80103264:	00000000 	nop
80103268:	23104300 	subu	v0,v0,v1
8010326c:	18004b00 	mult	v0,t3
80103270:	10000425 	addiu	a0,t0,16
80103274:	10004295 	lhu	v0,16(t2)
80103278:	12680000 	mflo	t5
8010327c:	031c0d00 	sra	v1,t5,0x10
80103280:	21104300 	addu	v0,v0,v1
80103284:	0400e2a4 	sh	v0,4(a3)
80103288:	06008284 	lh	v0,6(a0)
8010328c:	0600a384 	lh	v1,6(a1)
80103290:	00000000 	nop
80103294:	23104300 	subu	v0,v0,v1
80103298:	18004b00 	mult	v0,t3
8010329c:	0600a294 	lhu	v0,6(a1)
801032a0:	12680000 	mflo	t5
801032a4:	031c0d00 	sra	v1,t5,0x10
801032a8:	21104300 	addu	v0,v0,v1
801032ac:	0a00e2a4 	sh	v0,10(a3)
801032b0:	0c008284 	lh	v0,12(a0)
801032b4:	0c00a384 	lh	v1,12(a1)
801032b8:	00000000 	nop
801032bc:	23104300 	subu	v0,v0,v1
801032c0:	18004b00 	mult	v0,t3
801032c4:	0c00a294 	lhu	v0,12(a1)
801032c8:	12680000 	mflo	t5
801032cc:	031c0d00 	sra	v1,t5,0x10
801032d0:	21104300 	addu	v0,v0,v1
801032d4:	1000e2a4 	sh	v0,16(a3)
801032d8:	02008284 	lh	v0,2(a0)
801032dc:	0200a384 	lh	v1,2(a1)
801032e0:	00000000 	nop
801032e4:	23104300 	subu	v0,v0,v1
801032e8:	18004b00 	mult	v0,t3
801032ec:	0200a294 	lhu	v0,2(a1)
801032f0:	12680000 	mflo	t5
801032f4:	031c0d00 	sra	v1,t5,0x10
801032f8:	21104300 	addu	v0,v0,v1
801032fc:	0200e2a4 	sh	v0,2(a3)
80103300:	08008284 	lh	v0,8(a0)
80103304:	0800a384 	lh	v1,8(a1)
80103308:	00000000 	nop
8010330c:	23104300 	subu	v0,v0,v1
80103310:	18004b00 	mult	v0,t3
80103314:	0800a294 	lhu	v0,8(a1)
80103318:	12680000 	mflo	t5
8010331c:	031c0d00 	sra	v1,t5,0x10
80103320:	21104300 	addu	v0,v0,v1
80103324:	0800e2a4 	sh	v0,8(a3)
80103328:	0e008284 	lh	v0,14(a0)
8010332c:	0e00a384 	lh	v1,14(a1)
80103330:	00000000 	nop
80103334:	23104300 	subu	v0,v0,v1
80103338:	18004b00 	mult	v0,t3
8010333c:	0e00a294 	lhu	v0,14(a1)
80103340:	12680000 	mflo	t5
80103344:	031c0d00 	sra	v1,t5,0x10
80103348:	21104300 	addu	v0,v0,v1
8010334c:	0e00e2a4 	sh	v0,14(a3)
80103350:	04008284 	lh	v0,4(a0)
80103354:	0400a384 	lh	v1,4(a1)
80103358:	00000000 	nop
8010335c:	23104300 	subu	v0,v0,v1
80103360:	18004b00 	mult	v0,t3
80103364:	0400a294 	lhu	v0,4(a1)
80103368:	12680000 	mflo	t5
8010336c:	031c0d00 	sra	v1,t5,0x10
80103370:	21104300 	addu	v0,v0,v1
80103374:	0000e2a4 	sh	v0,0(a3)
80103378:	0a008284 	lh	v0,10(a0)
8010337c:	0a00a384 	lh	v1,10(a1)
80103380:	00000000 	nop
80103384:	23104300 	subu	v0,v0,v1
80103388:	18004b00 	mult	v0,t3
8010338c:	0a00a294 	lhu	v0,10(a1)
80103390:	12680000 	mflo	t5
80103394:	031c0d00 	sra	v1,t5,0x10
80103398:	21104300 	addu	v0,v0,v1
8010339c:	0600e2a4 	sh	v0,6(a3)
801033a0:	10008284 	lh	v0,16(a0)
801033a4:	1000a384 	lh	v1,16(a1)
801033a8:	00000000 	nop
801033ac:	23104300 	subu	v0,v0,v1
801033b0:	18004b00 	mult	v0,t3
801033b4:	1000a294 	lhu	v0,16(a1)
801033b8:	12680000 	mflo	t5
801033bc:	031c0d00 	sra	v1,t5,0x10
801033c0:	21104300 	addu	v0,v0,v1
801033c4:	0c00e2a4 	sh	v0,12(a3)
801033c8:	0800e003 	jr	ra
801033cc:	21104001 	move	v0,t2
801033d0:	21408000 	move	t0,a0
801033d4:	03000015 	bnez	t0,0x801033e4
801033d8:	2148a000 	move	t1,a1
801033dc:	1180023c 	lui	v0,0x8011
801033e0:	481b4824 	addiu	t0,v0,6984
801033e4:	0e002005 	bltz	t1,0x80103420
801033e8:	1180023c 	lui	v0,0x8011
801033ec:	21500001 	move	t2,t0
801033f0:	30004825 	addiu	t0,t2,48
801033f4:	2400028d 	lw	v0,36(t0)
801033f8:	00000000 	nop
801033fc:	1c004010 	beqz	v0,0x80103470
80103400:	00000000 	nop
80103404:	2a004385 	lh	v1,42(t2)
80103408:	00000000 	nop
8010340c:	2a102301 	slt	v0,t1,v1
80103410:	17004014 	bnez	v0,0x80103470
80103414:	00000000 	nop
80103418:	e2300408 	j	0x8010c388
8010341c:	23482301 	subu	t1,t1,v1
80103420:	481b4324 	addiu	v1,v0,6984
80103424:	21500001 	move	t2,t0
80103428:	d0ff4825 	addiu	t0,t2,-48
8010342c:	2b100301 	sltu	v0,t0,v1
80103430:	08004010 	beqz	v0,0x80103454
80103434:	00000000 	nop
80103438:	30000825 	addiu	t0,t0,48
8010343c:	2800028d 	lw	v0,40(t0)
80103440:	00000000 	nop
80103444:	fdff4014 	bnez	v0,0x8010343c
80103448:	30000825 	addiu	t0,t0,48
8010344c:	e0300408 	j	0x8010c380
80103450:	d0ff0825 	addiu	t0,t0,-48
80103454:	2a000285 	lh	v0,42(t0)
80103458:	00000000 	nop
8010345c:	21482201 	addu	t1,t1,v0
80103460:	f0ff2005 	bltz	t1,0x80103424
80103464:	21100001 	move	v0,t0
80103468:	21404001 	move	t0,t2
8010346c:	21504000 	move	t2,v0
80103470:	2800028d 	lw	v0,40(t0)
80103474:	00000000 	nop
80103478:	d8ff4010 	beqz	v0,0x801033dc
8010347c:	00140900 	sll	v0,t1,0x10
80103480:	2a004385 	lh	v1,42(t2)
80103484:	00000000 	nop
80103488:	1a004300 	div	zero,v0,v1
8010348c:	02006014 	bnez	v1,0x80103498
80103490:	00000000 	nop
80103494:	0d000700 	break	0x7
80103498:	ffff0124 	li	at,-1
8010349c:	04006114 	bne	v1,at,0x801034b0
801034a0:	0080013c 	lui	at,0x8000
801034a4:	02004114 	bne	v0,at,0x801034b0
801034a8:	00000000 	nop
801034ac:	0d000600 	break	0x6
801034b0:	12580000 	mflo	t3
801034b4:	00000285 	lh	v0,0(t0)
801034b8:	00004385 	lh	v1,0(t2)
801034bc:	00000000 	nop
801034c0:	23104300 	subu	v0,v0,v1
801034c4:	18004b00 	mult	v0,t3
801034c8:	02004385 	lh	v1,2(t2)
801034cc:	02000285 	lh	v0,2(t0)
801034d0:	12700000 	mflo	t6
801034d4:	23104300 	subu	v0,v0,v1
801034d8:	00000000 	nop
801034dc:	18004b00 	mult	v0,t3
801034e0:	04004485 	lh	a0,4(t2)
801034e4:	04000385 	lh	v1,4(t0)
801034e8:	00000000 	nop
801034ec:	23186400 	subu	v1,v1,a0
801034f0:	032c0e00 	sra	a1,t6,0x10
801034f4:	00004295 	lhu	v0,0(t2)
801034f8:	12600000 	mflo	t4
801034fc:	21104500 	addu	v0,v0,a1
80103500:	0000c2a4 	sh	v0,0(a2)
80103504:	18006b00 	mult	v1,t3
80103508:	00140200 	sll	v0,v0,0x10
8010350c:	03140200 	sra	v0,v0,0x10
80103510:	1400e2ac 	sw	v0,20(a3)
80103514:	02004295 	lhu	v0,2(t2)
80103518:	031c0c00 	sra	v1,t4,0x10
8010351c:	21104300 	addu	v0,v0,v1
80103520:	0200c2a4 	sh	v0,2(a2)
80103524:	00140200 	sll	v0,v0,0x10
80103528:	03140200 	sra	v0,v0,0x10
8010352c:	1800e2ac 	sw	v0,24(a3)
80103530:	04004295 	lhu	v0,4(t2)
80103534:	12700000 	mflo	t6
80103538:	031c0e00 	sra	v1,t6,0x10
8010353c:	21104300 	addu	v0,v0,v1
80103540:	0400c2a4 	sh	v0,4(a2)
80103544:	00140200 	sll	v0,v0,0x10
80103548:	03140200 	sra	v0,v0,0x10
8010354c:	1c00e2ac 	sw	v0,28(a3)
80103550:	0600c9a4 	sh	t1,6(a2)
80103554:	06000285 	lh	v0,6(t0)
80103558:	00000000 	nop
8010355c:	00804230 	andi	v0,v0,0x8000
80103560:	5c004014 	bnez	v0,0x801036d4
80103564:	10004525 	addiu	a1,t2,16
80103568:	10000285 	lh	v0,16(t0)
8010356c:	10004385 	lh	v1,16(t2)
80103570:	00000000 	nop
80103574:	23104300 	subu	v0,v0,v1
80103578:	18004b00 	mult	v0,t3
8010357c:	10000425 	addiu	a0,t0,16
80103580:	10004295 	lhu	v0,16(t2)
80103584:	12680000 	mflo	t5
80103588:	031c0d00 	sra	v1,t5,0x10
8010358c:	21104300 	addu	v0,v0,v1
80103590:	0400e2a4 	sh	v0,4(a3)
80103594:	06008284 	lh	v0,6(a0)
80103598:	0600a384 	lh	v1,6(a1)
8010359c:	00000000 	nop
801035a0:	23104300 	subu	v0,v0,v1
801035a4:	18004b00 	mult	v0,t3
801035a8:	0600a294 	lhu	v0,6(a1)
801035ac:	12680000 	mflo	t5
801035b0:	031c0d00 	sra	v1,t5,0x10
801035b4:	21104300 	addu	v0,v0,v1
801035b8:	0a00e2a4 	sh	v0,10(a3)
801035bc:	0c008284 	lh	v0,12(a0)
801035c0:	0c00a384 	lh	v1,12(a1)
801035c4:	00000000 	nop
801035c8:	23104300 	subu	v0,v0,v1
801035cc:	18004b00 	mult	v0,t3
801035d0:	0c00a294 	lhu	v0,12(a1)
801035d4:	12680000 	mflo	t5
801035d8:	031c0d00 	sra	v1,t5,0x10
801035dc:	21104300 	addu	v0,v0,v1
801035e0:	1000e2a4 	sh	v0,16(a3)
801035e4:	02008284 	lh	v0,2(a0)
801035e8:	0200a384 	lh	v1,2(a1)
801035ec:	00000000 	nop
801035f0:	23104300 	subu	v0,v0,v1
801035f4:	18004b00 	mult	v0,t3
801035f8:	0200a294 	lhu	v0,2(a1)
801035fc:	12680000 	mflo	t5
80103600:	031c0d00 	sra	v1,t5,0x10
80103604:	21104300 	addu	v0,v0,v1
80103608:	0200e2a4 	sh	v0,2(a3)
8010360c:	08008284 	lh	v0,8(a0)
80103610:	0800a384 	lh	v1,8(a1)
80103614:	00000000 	nop
80103618:	23104300 	subu	v0,v0,v1
8010361c:	18004b00 	mult	v0,t3
80103620:	0800a294 	lhu	v0,8(a1)
80103624:	12680000 	mflo	t5
80103628:	031c0d00 	sra	v1,t5,0x10
8010362c:	21104300 	addu	v0,v0,v1
80103630:	0800e2a4 	sh	v0,8(a3)
80103634:	0e008284 	lh	v0,14(a0)
80103638:	0e00a384 	lh	v1,14(a1)
8010363c:	00000000 	nop
80103640:	23104300 	subu	v0,v0,v1
80103644:	18004b00 	mult	v0,t3
80103648:	0e00a294 	lhu	v0,14(a1)
8010364c:	12680000 	mflo	t5
80103650:	031c0d00 	sra	v1,t5,0x10
80103654:	21104300 	addu	v0,v0,v1
80103658:	0e00e2a4 	sh	v0,14(a3)
8010365c:	04008284 	lh	v0,4(a0)
80103660:	0400a384 	lh	v1,4(a1)
80103664:	00000000 	nop
80103668:	23104300 	subu	v0,v0,v1
8010366c:	18004b00 	mult	v0,t3
80103670:	0400a294 	lhu	v0,4(a1)
80103674:	12680000 	mflo	t5
80103678:	031c0d00 	sra	v1,t5,0x10
8010367c:	21104300 	addu	v0,v0,v1
80103680:	0000e2a4 	sh	v0,0(a3)
80103684:	0a008284 	lh	v0,10(a0)
80103688:	0a00a384 	lh	v1,10(a1)
8010368c:	00000000 	nop
80103690:	23104300 	subu	v0,v0,v1
80103694:	18004b00 	mult	v0,t3
80103698:	0a00a294 	lhu	v0,10(a1)
8010369c:	12680000 	mflo	t5
801036a0:	031c0d00 	sra	v1,t5,0x10
801036a4:	21104300 	addu	v0,v0,v1
801036a8:	0600e2a4 	sh	v0,6(a3)
801036ac:	10008284 	lh	v0,16(a0)
801036b0:	1000a384 	lh	v1,16(a1)
801036b4:	00000000 	nop
801036b8:	23104300 	subu	v0,v0,v1
801036bc:	18004b00 	mult	v0,t3
801036c0:	1000a294 	lhu	v0,16(a1)
801036c4:	12680000 	mflo	t5
801036c8:	031c0d00 	sra	v1,t5,0x10
801036cc:	21104300 	addu	v0,v0,v1
801036d0:	0c00e2a4 	sh	v0,12(a3)
801036d4:	0800e003 	jr	ra
801036d8:	21104001 	move	v0,t2
801036dc:	d8ffbd27 	addiu	sp,sp,-40
801036e0:	1000b0af 	sw	s0,16(sp)
801036e4:	21808000 	move	s0,a0
801036e8:	2000b4af 	sw	s4,32(sp)
801036ec:	21a0a000 	move	s4,a1
801036f0:	1400b1af 	sw	s1,20(sp)
801036f4:	98001126 	addiu	s1,s0,152
801036f8:	00040424 	li	a0,1024
801036fc:	2400bfaf 	sw	ra,36(sp)
80103700:	1c00b3af 	sw	s3,28(sp)
80103704:	1800b2af 	sw	s2,24(sp)
80103708:	6000028e 	lw	v0,96(s0)
8010370c:	d8ff0524 	li	a1,-40
80103710:	3dc4000c 	jal	0x800310f4
80103714:	10005324 	addiu	s3,v0,16
80103718:	21404000 	move	t0,v0
8010371c:	9b000011 	beqz	t0,0x8010398c
80103720:	01000224 	li	v0,1
80103724:	04000392 	lbu	v1,4(s0)
80103728:	00000000 	nop
8010372c:	97006214 	bne	v1,v0,0x8010398c
80103730:	00000000 	nop
80103734:	04002286 	lh	v0,4(s1)
80103738:	00000000 	nop
8010373c:	18005400 	mult	v0,s4
80103740:	12500000 	mflo	t2
80103744:	0a002286 	lh	v0,10(s1)
80103748:	00000000 	nop
8010374c:	18005400 	mult	v0,s4
80103750:	12180000 	mflo	v1
80103754:	10002286 	lh	v0,16(s1)
80103758:	00000000 	nop
8010375c:	18005400 	mult	v0,s4
80103760:	2e000486 	lh	a0,46(s0)
80103764:	32000586 	lh	a1,50(s0)
80103768:	36000686 	lh	a2,54(s0)
8010376c:	03130a00 	sra	v0,t2,0xc
80103770:	21208200 	addu	a0,a0,v0
80103774:	03130300 	sra	v0,v1,0xc
80103778:	2128a200 	addu	a1,a1,v0
8010377c:	98000386 	lh	v1,152(s0)
80103780:	12380000 	mflo	a3
80103784:	03130700 	sra	v0,a3,0xc
80103788:	2130c200 	addu	a2,a2,v0
8010378c:	c0100300 	sll	v0,v1,0x3
80103790:	23104300 	subu	v0,v0,v1
80103794:	c0100200 	sll	v0,v0,0x3
80103798:	23104300 	subu	v0,v0,v1
8010379c:	40100200 	sll	v0,v0,0x1
801037a0:	23100200 	negu	v0,v0
801037a4:	03130200 	sra	v0,v0,0xc
801037a8:	06002386 	lh	v1,6(s1)
801037ac:	21208200 	addu	a0,a0,v0
801037b0:	c0100300 	sll	v0,v1,0x3
801037b4:	23104300 	subu	v0,v0,v1
801037b8:	c0100200 	sll	v0,v0,0x3
801037bc:	23104300 	subu	v0,v0,v1
801037c0:	40100200 	sll	v0,v0,0x1
801037c4:	23100200 	negu	v0,v0
801037c8:	03130200 	sra	v0,v0,0xc
801037cc:	0c002386 	lh	v1,12(s1)
801037d0:	2128a200 	addu	a1,a1,v0
801037d4:	c0100300 	sll	v0,v1,0x3
801037d8:	23104300 	subu	v0,v0,v1
801037dc:	c0100200 	sll	v0,v0,0x3
801037e0:	23104300 	subu	v0,v0,v1
801037e4:	40100200 	sll	v0,v0,0x1
801037e8:	23100200 	negu	v0,v0
801037ec:	03130200 	sra	v0,v0,0xc
801037f0:	02002386 	lh	v1,2(s1)
801037f4:	2130c200 	addu	a2,a2,v0
801037f8:	40100300 	sll	v0,v1,0x1
801037fc:	21104300 	addu	v0,v0,v1
80103800:	83110200 	sra	v0,v0,0x6
80103804:	08002386 	lh	v1,8(s1)
80103808:	21208200 	addu	a0,a0,v0
8010380c:	40100300 	sll	v0,v1,0x1
80103810:	21104300 	addu	v0,v0,v1
80103814:	83110200 	sra	v0,v0,0x6
80103818:	2128a200 	addu	a1,a1,v0
8010381c:	0e002386 	lh	v1,14(s1)
80103820:	2c001125 	addiu	s1,t0,44
80103824:	2c0004a5 	sh	a0,44(t0)
80103828:	2e0005a5 	sh	a1,46(t0)
8010382c:	40100300 	sll	v0,v1,0x1
80103830:	21104300 	addu	v0,v0,v1
80103834:	83110200 	sra	v0,v0,0x6
80103838:	2130c200 	addu	a2,a2,v0
8010383c:	1469020c 	jal	0x8009a450
80103840:	300006a5 	sh	a2,48(t0)
80103844:	03120200 	sra	v0,v0,0x8
80103848:	1469020c 	jal	0x8009a450
8010384c:	00035224 	addiu	s2,v0,768
80103850:	1469020c 	jal	0x8009a450
80103854:	21804000 	move	s0,v0
80103858:	18000202 	mult	s0,v0
8010385c:	12180000 	mflo	v1
80103860:	03140300 	sra	v0,v1,0x10
80103864:	07008106 	bgez	s4,0x80103884
80103868:	003e5024 	addiu	s0,v0,15872
8010386c:	1469020c 	jal	0x8009a450
80103870:	00000000 	nop
80103874:	03120200 	sra	v0,v0,0x8
80103878:	40000324 	li	v1,64
8010387c:	0c320408 	j	0x8010c830
80103880:	23206200 	subu	a0,v1,v0
80103884:	1469020c 	jal	0x8009a450
80103888:	00000000 	nop
8010388c:	03120200 	sra	v0,v0,0x8
80103890:	c0ff4424 	addiu	a0,v0,-64
80103894:	04006296 	lhu	v0,4(s3)
80103898:	00000000 	nop
8010389c:	00140200 	sll	v0,v0,0x10
801038a0:	03150200 	sra	v0,v0,0x14
801038a4:	18005200 	mult	v0,s2
801038a8:	12480000 	mflo	t1
801038ac:	03130900 	sra	v0,t1,0xc
801038b0:	080022a6 	sh	v0,8(s1)
801038b4:	0a006296 	lhu	v0,10(s3)
801038b8:	00000000 	nop
801038bc:	00140200 	sll	v0,v0,0x10
801038c0:	03150200 	sra	v0,v0,0x14
801038c4:	18005200 	mult	v0,s2
801038c8:	12480000 	mflo	t1
801038cc:	03130900 	sra	v0,t1,0xc
801038d0:	0a0022a6 	sh	v0,10(s1)
801038d4:	10006296 	lhu	v0,16(s3)
801038d8:	00000000 	nop
801038dc:	00140200 	sll	v0,v0,0x10
801038e0:	03150200 	sra	v0,v0,0x14
801038e4:	18005200 	mult	v0,s2
801038e8:	0a002396 	lhu	v1,10(s1)
801038ec:	40101000 	sll	v0,s0,0x1
801038f0:	21105000 	addu	v0,v0,s0
801038f4:	80100200 	sll	v0,v0,0x2
801038f8:	21105000 	addu	v0,v0,s0
801038fc:	03130200 	sra	v0,v0,0xc
80103900:	23186200 	subu	v1,v1,v0
80103904:	0a0023a6 	sh	v1,10(s1)
80103908:	12480000 	mflo	t1
8010390c:	03130900 	sra	v0,t1,0xc
80103910:	0c0022a6 	sh	v0,12(s1)
80103914:	00006296 	lhu	v0,0(s3)
80103918:	00000000 	nop
8010391c:	00140200 	sll	v0,v0,0x10
80103920:	c3140200 	sra	v0,v0,0x13
80103924:	18004400 	mult	v0,a0
80103928:	08002296 	lhu	v0,8(s1)
8010392c:	12480000 	mflo	t1
80103930:	031b0900 	sra	v1,t1,0xc
80103934:	21104300 	addu	v0,v0,v1
80103938:	080022a6 	sh	v0,8(s1)
8010393c:	06006296 	lhu	v0,6(s3)
80103940:	00000000 	nop
80103944:	00140200 	sll	v0,v0,0x10
80103948:	c3140200 	sra	v0,v0,0x13
8010394c:	18004400 	mult	v0,a0
80103950:	0a002296 	lhu	v0,10(s1)
80103954:	12480000 	mflo	t1
80103958:	031b0900 	sra	v1,t1,0xc
8010395c:	21104300 	addu	v0,v0,v1
80103960:	0a0022a6 	sh	v0,10(s1)
80103964:	0c006296 	lhu	v0,12(s3)
80103968:	00000000 	nop
8010396c:	00140200 	sll	v0,v0,0x10
80103970:	c3140200 	sra	v0,v0,0x13
80103974:	18004400 	mult	v0,a0
80103978:	0c002296 	lhu	v0,12(s1)
8010397c:	12480000 	mflo	t1
80103980:	031b0900 	sra	v1,t1,0xc
80103984:	21104300 	addu	v0,v0,v1
80103988:	0c0022a6 	sh	v0,12(s1)
8010398c:	2400bf8f 	lw	ra,36(sp)
80103990:	2000b48f 	lw	s4,32(sp)
80103994:	1c00b38f 	lw	s3,28(sp)
80103998:	1800b28f 	lw	s2,24(sp)
8010399c:	1400b18f 	lw	s1,20(sp)
801039a0:	1000b08f 	lw	s0,16(sp)
801039a4:	0800e003 	jr	ra
801039a8:	2800bd27 	addiu	sp,sp,40
801039ac:	70ffbd27 	addiu	sp,sp,-144
801039b0:	7c00b5af 	sw	s5,124(sp)
801039b4:	21a88000 	move	s5,a0
801039b8:	8400b7af 	sw	s7,132(sp)
801039bc:	6000b726 	addiu	s7,s5,96
801039c0:	0f80033c 	lui	v1,0x800f
801039c4:	6c00b1af 	sw	s1,108(sp)
801039c8:	08807124 	addiu	s1,v1,-32760
801039cc:	8c00bfaf 	sw	ra,140(sp)
801039d0:	8800beaf 	sw	s8,136(sp)
801039d4:	8000b6af 	sw	s6,128(sp)
801039d8:	7800b4af 	sw	s4,120(sp)
801039dc:	7400b3af 	sw	s3,116(sp)
801039e0:	7000b2af 	sw	s2,112(sp)
801039e4:	6800b0af 	sw	s0,104(sp)
801039e8:	0c00e296 	lhu	v0,12(s7)
801039ec:	0a00e386 	lh	v1,10(s7)
801039f0:	00140200 	sll	v0,v0,0x10
801039f4:	03850200 	sra	s0,v0,0x14
801039f8:	1200e292 	lbu	v0,18(s7)
801039fc:	00000000 	nop
80103a00:	01004230 	andi	v0,v0,0x1
80103a04:	01014010 	beqz	v0,0x80103e0c
80103a08:	21f07000 	addu	s8,v1,s0
80103a0c:	e8030526 	addiu	a1,s0,1000
80103a10:	2128c503 	addu	a1,s8,a1
80103a14:	3800a627 	addiu	a2,sp,56
80103a18:	4000a727 	addiu	a3,sp,64
80103a1c:	6000a48e 	lw	a0,96(s5)
80103a20:	1830040c 	jal	0x8010c060
80103a24:	23801000 	negu	s0,s0
80103a28:	1280033c 	lui	v1,0x8012
80103a2c:	3800a297 	lhu	v0,56(sp)
80103a30:	dcc06394 	lhu	v1,-16164(v1)
80103a34:	3a0022a6 	sh	v0,58(s1)
80103a38:	3a00a297 	lhu	v0,58(sp)
80103a3c:	3c00a497 	lhu	a0,60(sp)
80103a40:	21104300 	addu	v0,v0,v1
80103a44:	3e0022a6 	sh	v0,62(s1)
80103a48:	420024a6 	sh	a0,66(s1)
80103a4c:	9800a286 	lh	v0,152(s5)
80103a50:	38ff1224 	li	s2,-200
80103a54:	18005200 	mult	v0,s2
80103a58:	12400000 	mflo	t0
80103a5c:	a400a286 	lh	v0,164(s5)
80103a60:	00000000 	nop
80103a64:	18005200 	mult	v0,s2
80103a68:	6000b0af 	sw	s0,96(sp)
80103a6c:	2e00b486 	lh	s4,46(s5)
80103a70:	3200b386 	lh	s3,50(s5)
80103a74:	3600b686 	lh	s6,54(s5)
80103a78:	03130800 	sra	v0,t0,0xc
80103a7c:	21a08202 	addu	s4,s4,v0
80103a80:	12180000 	mflo	v1
80103a84:	03130300 	sra	v0,v1,0xc
80103a88:	21b0c202 	addu	s6,s6,v0
80103a8c:	1180023c 	lui	v0,0x8011
80103a90:	6000a38e 	lw	v1,96(s5)
80103a94:	984f4424 	addiu	a0,v0,20376
80103a98:	2b106400 	sltu	v0,v1,a0
80103a9c:	05004014 	bnez	v0,0x80103ab4
80103aa0:	b0258224 	addiu	v0,a0,9648
80103aa4:	d0058224 	addiu	v0,a0,1488
80103aa8:	2b104300 	sltu	v0,v0,v1
80103aac:	07004010 	beqz	v0,0x80103acc
80103ab0:	b0258224 	addiu	v0,a0,9648
80103ab4:	2b106200 	sltu	v0,v1,v0
80103ab8:	18004014 	bnez	v0,0x80103b1c
80103abc:	70298224 	addiu	v0,a0,10608
80103ac0:	2b104300 	sltu	v0,v0,v1
80103ac4:	15004014 	bnez	v0,0x80103b1c
80103ac8:	00000000 	nop
80103acc:	3a002386 	lh	v1,58(s1)
80103ad0:	3a002296 	lhu	v0,58(s1)
80103ad4:	42002486 	lh	a0,66(s1)
80103ad8:	3e002586 	lh	a1,62(s1)
80103adc:	23188302 	subu	v1,s4,v1
80103ae0:	83180300 	sra	v1,v1,0x2
80103ae4:	21104300 	addu	v0,v0,v1
80103ae8:	2320c402 	subu	a0,s6,a0
80103aec:	83200400 	sra	a0,a0,0x2
80103af0:	3a0022a6 	sh	v0,58(s1)
80103af4:	42002296 	lhu	v0,66(s1)
80103af8:	3200a386 	lh	v1,50(s5)
80103afc:	21104400 	addu	v0,v0,a0
80103b00:	23186500 	subu	v1,v1,a1
80103b04:	420022a6 	sh	v0,66(s1)
80103b08:	3e002296 	lhu	v0,62(s1)
80103b0c:	43180300 	sra	v1,v1,0x1
80103b10:	21104300 	addu	v0,v0,v1
80103b14:	0a330408 	j	0x8010cc28
80103b18:	3e0022a6 	sh	v0,62(s1)
80103b1c:	9e00a286 	lh	v0,158(s5)
80103b20:	00000000 	nop
80103b24:	18005200 	mult	v0,s2
80103b28:	3800a387 	lh	v1,56(sp)
80103b2c:	2e00a286 	lh	v0,46(s5)
80103b30:	12300000 	mflo	a2
80103b34:	23806200 	subu	s0,v1,v0
80103b38:	00000000 	nop
80103b3c:	18001002 	mult	s0,s0
80103b40:	3a00a387 	lh	v1,58(sp)
80103b44:	3200a286 	lh	v0,50(s5)
80103b48:	12280000 	mflo	a1
80103b4c:	23886200 	subu	s1,v1,v0
80103b50:	00000000 	nop
80103b54:	18003102 	mult	s1,s1
80103b58:	3c00a387 	lh	v1,60(sp)
80103b5c:	3600a286 	lh	v0,54(s5)
80103b60:	12200000 	mflo	a0
80103b64:	23906200 	subu	s2,v1,v0
80103b68:	00000000 	nop
80103b6c:	18005202 	mult	s2,s2
80103b70:	43120600 	sra	v0,a2,0x9
80103b74:	21986202 	addu	s3,s3,v0
80103b78:	2120a400 	addu	a0,a1,a0
80103b7c:	12180000 	mflo	v1
80103b80:	ecdf010c 	jal	0x80077fb0
80103b84:	21208300 	addu	a0,a0,v1
80103b88:	ffff4230 	andi	v0,v0,0xffff
80103b8c:	40291000 	sll	a1,s0,0x5
80103b90:	2328b000 	subu	a1,a1,s0
80103b94:	80280500 	sll	a1,a1,0x2
80103b98:	2128b000 	addu	a1,a1,s0
80103b9c:	c0280500 	sll	a1,a1,0x3
80103ba0:	23280500 	negu	a1,a1
80103ba4:	1a00a200 	div	zero,a1,v0
80103ba8:	02004014 	bnez	v0,0x80103bb4
80103bac:	00000000 	nop
80103bb0:	0d000700 	break	0x7
80103bb4:	ffff0124 	li	at,-1
80103bb8:	04004114 	bne	v0,at,0x80103bcc
80103bbc:	0080013c 	lui	at,0x8000
80103bc0:	0200a114 	bne	a1,at,0x80103bcc
80103bc4:	00000000 	nop
80103bc8:	0d000600 	break	0x6
80103bcc:	12280000 	mflo	a1
80103bd0:	40211100 	sll	a0,s1,0x5
80103bd4:	23209100 	subu	a0,a0,s1
80103bd8:	80200400 	sll	a0,a0,0x2
80103bdc:	21209100 	addu	a0,a0,s1
80103be0:	c0200400 	sll	a0,a0,0x3
80103be4:	23200400 	negu	a0,a0
80103be8:	1a008200 	div	zero,a0,v0
80103bec:	02004014 	bnez	v0,0x80103bf8
80103bf0:	00000000 	nop
80103bf4:	0d000700 	break	0x7
80103bf8:	ffff0124 	li	at,-1
80103bfc:	04004114 	bne	v0,at,0x80103c10
80103c00:	0080013c 	lui	at,0x8000
80103c04:	02008114 	bne	a0,at,0x80103c10
80103c08:	00000000 	nop
80103c0c:	0d000600 	break	0x6
80103c10:	12200000 	mflo	a0
80103c14:	40191200 	sll	v1,s2,0x5
80103c18:	23187200 	subu	v1,v1,s2
80103c1c:	80180300 	sll	v1,v1,0x2
80103c20:	21187200 	addu	v1,v1,s2
80103c24:	c0180300 	sll	v1,v1,0x3
80103c28:	23180300 	negu	v1,v1
80103c2c:	1a006200 	div	zero,v1,v0
80103c30:	02004014 	bnez	v0,0x80103c3c
80103c34:	00000000 	nop
80103c38:	0d000700 	break	0x7
80103c3c:	ffff0124 	li	at,-1
80103c40:	04004114 	bne	v0,at,0x80103c54
80103c44:	0080013c 	lui	at,0x8000
80103c48:	02006114 	bne	v1,at,0x80103c54
80103c4c:	00000000 	nop
80103c50:	0d000600 	break	0x6
80103c54:	12180000 	mflo	v1
80103c58:	2e00a286 	lh	v0,46(s5)
80103c5c:	00000000 	nop
80103c60:	2180a200 	addu	s0,a1,v0
80103c64:	3200a286 	lh	v0,50(s5)
80103c68:	3600a586 	lh	a1,54(s5)
80103c6c:	21888200 	addu	s1,a0,v0
80103c70:	21906500 	addu	s2,v1,a1
80103c74:	21109002 	addu	v0,s4,s0
80103c78:	43a00200 	sra	s4,v0,0x1
80103c7c:	21107102 	addu	v0,s3,s1
80103c80:	43980200 	sra	s3,v0,0x1
80103c84:	2110d202 	addu	v0,s6,s2
80103c88:	43b00200 	sra	s6,v0,0x1
80103c8c:	24fac527 	addiu	a1,s8,-1500
80103c90:	1000a627 	addiu	a2,sp,16
80103c94:	0000e48e 	lw	a0,0(s7)
80103c98:	1830040c 	jal	0x8010c060
80103c9c:	1800a727 	addiu	a3,sp,24
80103ca0:	801f053c 	lui	a1,0x1f80
80103ca4:	1280043c 	lui	a0,0x8012
80103ca8:	1280023c 	lui	v0,0x8012
80103cac:	d8c0438c 	lw	v1,-16168(v0)
80103cb0:	d8bc8424 	addiu	a0,a0,-17192
80103cb4:	c0180300 	sll	v1,v1,0x3
80103cb8:	21186400 	addu	v1,v1,a0
80103cbc:	1280043c 	lui	a0,0x8012
80103cc0:	00006294 	lhu	v0,0(v1)
80103cc4:	e8ba8494 	lhu	a0,-17688(a0)
80103cc8:	d000a524 	addiu	a1,a1,208
80103ccc:	0200a2a4 	sh	v0,2(a1)
80103cd0:	02006294 	lhu	v0,2(v1)
80103cd4:	00000000 	nop
80103cd8:	21104400 	addu	v0,v0,a0
80103cdc:	0600a2a4 	sh	v0,6(a1)
80103ce0:	04006294 	lhu	v0,4(v1)
80103ce4:	00000000 	nop
80103ce8:	0a00a2a4 	sh	v0,10(a1)
80103cec:	1180023c 	lui	v0,0x8011
80103cf0:	0000e48e 	lw	a0,0(s7)
80103cf4:	481b4524 	addiu	a1,v0,6984
80103cf8:	23188500 	subu	v1,a0,a1
80103cfc:	80100300 	sll	v0,v1,0x2
80103d00:	21104300 	addu	v0,v0,v1
80103d04:	00190200 	sll	v1,v0,0x4
80103d08:	21104300 	addu	v0,v0,v1
80103d0c:	001a0200 	sll	v1,v0,0x8
80103d10:	21104300 	addu	v0,v0,v1
80103d14:	001c0200 	sll	v1,v0,0x10
80103d18:	21104300 	addu	v0,v0,v1
80103d1c:	23100200 	negu	v0,v0
80103d20:	03110200 	sra	v0,v0,0x4
80103d24:	03ff4224 	addiu	v0,v0,-253
80103d28:	0b00422c 	sltiu	v0,v0,11
80103d2c:	02004010 	beqz	v0,0x80103d38
80103d30:	5034a224 	addiu	v0,a1,13392
80103d34:	38ff7326 	addiu	s3,s3,-200
80103d38:	2b108200 	sltu	v0,a0,v0
80103d3c:	05004014 	bnez	v0,0x80103d54
80103d40:	005aa224 	addiu	v0,a1,23040
80103d44:	203aa224 	addiu	v0,a1,14880
80103d48:	2b104400 	sltu	v0,v0,a0
80103d4c:	07004010 	beqz	v0,0x80103d6c
80103d50:	005aa224 	addiu	v0,a1,23040
80103d54:	2b108200 	sltu	v0,a0,v0
80103d58:	17004014 	bnez	v0,0x80103db8
80103d5c:	c05da224 	addiu	v0,a1,24000
80103d60:	2b104400 	sltu	v0,v0,a0
80103d64:	15004014 	bnez	v0,0x80103dbc
80103d68:	801f053c 	lui	a1,0x1f80
80103d6c:	801f053c 	lui	a1,0x1f80
80103d70:	d000a524 	addiu	a1,a1,208
80103d74:	0200a384 	lh	v1,2(a1)
80103d78:	0200a294 	lhu	v0,2(a1)
80103d7c:	0600a484 	lh	a0,6(a1)
80103d80:	23188302 	subu	v1,s4,v1
80103d84:	03190300 	sra	v1,v1,0x4
80103d88:	21104300 	addu	v0,v0,v1
80103d8c:	23206402 	subu	a0,s3,a0
80103d90:	03210400 	sra	a0,a0,0x4
80103d94:	0200a2a4 	sh	v0,2(a1)
80103d98:	0600a294 	lhu	v0,6(a1)
80103d9c:	0a00a384 	lh	v1,10(a1)
80103da0:	21104400 	addu	v0,v0,a0
80103da4:	2318c302 	subu	v1,s6,v1
80103da8:	0600a2a4 	sh	v0,6(a1)
80103dac:	0a00a294 	lhu	v0,10(a1)
80103db0:	67330408 	j	0x8010cd9c
80103db4:	03190300 	sra	v1,v1,0x4
80103db8:	801f053c 	lui	a1,0x1f80
80103dbc:	d000a524 	addiu	a1,a1,208
80103dc0:	0200a384 	lh	v1,2(a1)
80103dc4:	0200a294 	lhu	v0,2(a1)
80103dc8:	0600a484 	lh	a0,6(a1)
80103dcc:	23188302 	subu	v1,s4,v1
80103dd0:	c3180300 	sra	v1,v1,0x3
80103dd4:	21104300 	addu	v0,v0,v1
80103dd8:	23206402 	subu	a0,s3,a0
80103ddc:	c3200400 	sra	a0,a0,0x3
80103de0:	0200a2a4 	sh	v0,2(a1)
80103de4:	0600a294 	lhu	v0,6(a1)
80103de8:	0a00a384 	lh	v1,10(a1)
80103dec:	21104400 	addu	v0,v0,a0
80103df0:	2318c302 	subu	v1,s6,v1
80103df4:	0600a2a4 	sh	v0,6(a1)
80103df8:	0a00a294 	lhu	v0,10(a1)
80103dfc:	c3180300 	sra	v1,v1,0x3
80103e00:	21104300 	addu	v0,v0,v1
80103e04:	b6330408 	j	0x8010ced8
80103e08:	0a00a2a4 	sh	v0,10(a1)
80103e0c:	e803c527 	addiu	a1,s8,1000
80103e10:	3800a627 	addiu	a2,sp,56
80103e14:	6000a48e 	lw	a0,96(s5)
80103e18:	db30040c 	jal	0x8010c36c
80103e1c:	4000a727 	addiu	a3,sp,64
80103e20:	801f093c 	lui	t1,0x1f80
80103e24:	d0002925 	addiu	t1,t1,208
80103e28:	1280063c 	lui	a2,0x8012
80103e2c:	3800a387 	lh	v1,56(sp)
80103e30:	3a002286 	lh	v0,58(s1)
80103e34:	3a002796 	lhu	a3,58(s1)
80103e38:	3c00a487 	lh	a0,60(sp)
80103e3c:	42002896 	lhu	t0,66(s1)
80103e40:	e8bac694 	lhu	a2,-17688(a2)
80103e44:	23186200 	subu	v1,v1,v0
80103e48:	83180300 	sra	v1,v1,0x2
80103e4c:	2138e300 	addu	a3,a3,v1
80103e50:	1280033c 	lui	v1,0x8012
80103e54:	3a0027a6 	sh	a3,58(s1)
80103e58:	003c0700 	sll	a3,a3,0x10
80103e5c:	033c0700 	sra	a3,a3,0x10
80103e60:	42002286 	lh	v0,66(s1)
80103e64:	dcc0638c 	lw	v1,-16164(v1)
80103e68:	23208200 	subu	a0,a0,v0
80103e6c:	83200400 	sra	a0,a0,0x2
80103e70:	3200a286 	lh	v0,50(s5)
80103e74:	21400401 	addu	t0,t0,a0
80103e78:	420028a6 	sh	t0,66(s1)
80103e7c:	00440800 	sll	t0,t0,0x10
80103e80:	03440800 	sra	t0,t0,0x10
80103e84:	3e002486 	lh	a0,62(s1)
80103e88:	21104300 	addu	v0,v0,v1
80103e8c:	23104400 	subu	v0,v0,a0
80103e90:	83100200 	sra	v0,v0,0x2
80103e94:	1280033c 	lui	v1,0x8012
80103e98:	3e002496 	lhu	a0,62(s1)
80103e9c:	d8bc6324 	addiu	v1,v1,-17192
80103ea0:	21208200 	addu	a0,a0,v0
80103ea4:	1280023c 	lui	v0,0x8012
80103ea8:	3e0024a6 	sh	a0,62(s1)
80103eac:	00240400 	sll	a0,a0,0x10
80103eb0:	03240400 	sra	a0,a0,0x10
80103eb4:	d8c0458c 	lw	a1,-16168(v0)
80103eb8:	4a00a296 	lhu	v0,74(s5)
80103ebc:	c0280500 	sll	a1,a1,0x3
80103ec0:	2128a300 	addu	a1,a1,v1
80103ec4:	00140200 	sll	v0,v0,0x10
80103ec8:	03150200 	sra	v0,v0,0x14
80103ecc:	40580200 	sll	t3,v0,0x1
80103ed0:	0000aa94 	lhu	t2,0(a1)
80103ed4:	21586201 	addu	t3,t3,v0
80103ed8:	00140a00 	sll	v0,t2,0x10
80103edc:	03140200 	sra	v0,v0,0x10
80103ee0:	2338e200 	subu	a3,a3,v0
80103ee4:	c3380700 	sra	a3,a3,0x3
80103ee8:	02002aa5 	sh	t2,2(t1)
80103eec:	0200a394 	lhu	v1,2(a1)
80103ef0:	21504701 	addu	t2,t2,a3
80103ef4:	6000abaf 	sw	t3,96(sp)
80103ef8:	21186600 	addu	v1,v1,a2
80103efc:	00140300 	sll	v0,v1,0x10
80103f00:	03140200 	sra	v0,v0,0x10
80103f04:	23208200 	subu	a0,a0,v0
80103f08:	c3200400 	sra	a0,a0,0x3
80103f0c:	060023a5 	sh	v1,6(t1)
80103f10:	0400a594 	lhu	a1,4(a1)
80103f14:	21186400 	addu	v1,v1,a0
80103f18:	02002aa5 	sh	t2,2(t1)
80103f1c:	060023a5 	sh	v1,6(t1)
80103f20:	00140500 	sll	v0,a1,0x10
80103f24:	03140200 	sra	v0,v0,0x10
80103f28:	23400201 	subu	t0,t0,v0
80103f2c:	c3400800 	sra	t0,t0,0x3
80103f30:	0a0025a5 	sh	a1,10(t1)
80103f34:	2128a800 	addu	a1,a1,t0
80103f38:	0a0025a5 	sh	a1,10(t1)
80103f3c:	1280073c 	lui	a3,0x8012
80103f40:	1280023c 	lui	v0,0x8012
80103f44:	1280083c 	lui	t0,0x8012
80103f48:	d8bc4224 	addiu	v0,v0,-17192
80103f4c:	d8c0058d 	lw	a1,-16168(t0)
80103f50:	dcc0e48c 	lw	a0,-16164(a3)
80103f54:	2e00a396 	lhu	v1,46(s5)
80103f58:	c0300500 	sll	a2,a1,0x3
80103f5c:	2130c200 	addu	a2,a2,v0
80103f60:	0000c3a4 	sh	v1,0(a2)
80103f64:	6000ac8f 	lw	t4,96(sp)
80103f68:	00000000 	nop
80103f6c:	23108401 	subu	v0,t4,a0
80103f70:	c21f0200 	srl	v1,v0,0x1f
80103f74:	21104300 	addu	v0,v0,v1
80103f78:	43100200 	sra	v0,v0,0x1
80103f7c:	3200a396 	lhu	v1,50(s5)
80103f80:	21208200 	addu	a0,a0,v0
80103f84:	0200c3a4 	sh	v1,2(a2)
80103f88:	3600a296 	lhu	v0,54(s5)
80103f8c:	0100a524 	addiu	a1,a1,1
80103f90:	0400c2a4 	sh	v0,4(a2)
80103f94:	8c00bf8f 	lw	ra,140(sp)
80103f98:	8800be8f 	lw	s8,136(sp)
80103f9c:	8400b78f 	lw	s7,132(sp)
80103fa0:	8000b68f 	lw	s6,128(sp)
80103fa4:	7c00b58f 	lw	s5,124(sp)
80103fa8:	7800b48f 	lw	s4,120(sp)
80103fac:	7400b38f 	lw	s3,116(sp)
80103fb0:	7000b28f 	lw	s2,112(sp)
80103fb4:	6c00b18f 	lw	s1,108(sp)
80103fb8:	6800b08f 	lw	s0,104(sp)
80103fbc:	0700a530 	andi	a1,a1,0x7
80103fc0:	d8c005ad 	sw	a1,-16168(t0)
80103fc4:	dcc0e4ac 	sw	a0,-16164(a3)
80103fc8:	0800e003 	jr	ra
80103fcc:	9000bd27 	addiu	sp,sp,144
80103fd0:	21388000 	move	a3,a0
80103fd4:	0400e390 	lbu	v1,4(a3)
80103fd8:	01000224 	li	v0,1
80103fdc:	9c006214 	bne	v1,v0,0x80104250
80103fe0:	6000e524 	addiu	a1,a3,96
80103fe4:	0500e290 	lbu	v0,5(a3)
80103fe8:	00000000 	nop
80103fec:	fbff4224 	addiu	v0,v0,-5
80103ff0:	0200422c 	sltiu	v0,v0,2
80103ff4:	96004010 	beqz	v0,0x80104250
80103ff8:	0f80033c 	lui	v1,0x800f
80103ffc:	48cf6224 	addiu	v0,v1,-12472
80104000:	0b004690 	lbu	a2,11(v0)
80104004:	0a004490 	lbu	a0,10(v0)
80104008:	00000000 	nop
8010400c:	2510c400 	or	v0,a2,a0
80104010:	39004010 	beqz	v0,0x801040f8
80104014:	07000224 	li	v0,7
80104018:	48cf6394 	lhu	v1,-12472(v1)
8010401c:	00000000 	nop
80104020:	35006214 	bne	v1,v0,0x801040f8
80104024:	00260400 	sll	a0,a0,0x18
80104028:	03260400 	sra	a0,a0,0x18
8010402c:	18008400 	mult	a0,a0
80104030:	001e0600 	sll	v1,a2,0x18
80104034:	03160300 	sra	v0,v1,0x18
80104038:	c21f0300 	srl	v1,v1,0x1f
8010403c:	12380000 	mflo	a3
80104040:	21104300 	addu	v0,v0,v1
80104044:	42100200 	srl	v0,v0,0x1
80104048:	18004200 	mult	v0,v0
8010404c:	1600a394 	lhu	v1,22(a1)
80104050:	00240400 	sll	a0,a0,0x10
80104054:	03240400 	sra	a0,a0,0x10
80104058:	12100000 	mflo	v0
8010405c:	03008014 	bnez	a0,0x8010406c
80104060:	2110e200 	addu	v0,a3,v0
80104064:	21340408 	j	0x8010d084
80104068:	21180000 	move	v1,zero
8010406c:	10008104 	bgez	a0,0x801040b0
80104070:	00000000 	nop
80104074:	00140200 	sll	v0,v0,0x10
80104078:	03140200 	sra	v0,v0,0x10
8010407c:	11274228 	slti	v0,v0,10001
80104080:	03004014 	bnez	v0,0x80104090
80104084:	00000000 	nop
80104088:	0c340408 	j	0x8010d030
8010408c:	feff6324 	addiu	v1,v1,-2
80104090:	ffff6324 	addiu	v1,v1,-1
80104094:	00140300 	sll	v0,v1,0x10
80104098:	03140200 	sra	v0,v0,0x10
8010409c:	f9ff4228 	slti	v0,v0,-7
801040a0:	12004010 	beqz	v0,0x801040ec
801040a4:	01000224 	li	v0,1
801040a8:	22340408 	j	0x8010d088
801040ac:	f9ff0324 	li	v1,-7
801040b0:	00140200 	sll	v0,v0,0x10
801040b4:	03140200 	sra	v0,v0,0x10
801040b8:	11274228 	slti	v0,v0,10001
801040bc:	03004014 	bnez	v0,0x801040cc
801040c0:	00000000 	nop
801040c4:	1b340408 	j	0x8010d06c
801040c8:	02006324 	addiu	v1,v1,2
801040cc:	01006324 	addiu	v1,v1,1
801040d0:	00140300 	sll	v0,v1,0x10
801040d4:	03140200 	sra	v0,v0,0x10
801040d8:	08004228 	slti	v0,v0,8
801040dc:	03004014 	bnez	v0,0x801040ec
801040e0:	01000224 	li	v0,1
801040e4:	07000324 	li	v1,7
801040e8:	01000224 	li	v0,1
801040ec:	1600a3a4 	sh	v1,22(a1)
801040f0:	69340408 	j	0x8010d1a4
801040f4:	1300a2a0 	sb	v0,19(a1)
801040f8:	0e80023c 	lui	v0,0x800e
801040fc:	687e4394 	lhu	v1,32360(v0)
80104100:	00000000 	nop
80104104:	80006230 	andi	v0,v1,0x80
80104108:	0e004014 	bnez	v0,0x80104144
8010410c:	02000624 	li	a2,2
80104110:	20006230 	andi	v0,v1,0x20
80104114:	0b004014 	bnez	v0,0x80104144
80104118:	03000624 	li	a2,3
8010411c:	0f80023c 	lui	v0,0x800f
80104120:	54cf4394 	lhu	v1,-12460(v0)
80104124:	00000000 	nop
80104128:	80006230 	andi	v0,v1,0x80
8010412c:	05004014 	bnez	v0,0x80104144
80104130:	02000624 	li	a2,2
80104134:	20006230 	andi	v0,v1,0x20
80104138:	02004010 	beqz	v0,0x80104144
8010413c:	01000624 	li	a2,1
80104140:	03000624 	li	a2,3
80104144:	ff00c330 	andi	v1,a2,0xff
80104148:	01000224 	li	v0,1
8010414c:	17006210 	beq	v1,v0,0x801041ac
80104150:	02006228 	slti	v0,v1,2
80104154:	2b004014 	bnez	v0,0x80104204
80104158:	02000224 	li	v0,2
8010415c:	05006210 	beq	v1,v0,0x80104174
80104160:	03000224 	li	v0,3
80104164:	0a006210 	beq	v1,v0,0x80104190
80104168:	00000000 	nop
8010416c:	69340408 	j	0x8010d1a4
80104170:	1300a6a0 	sb	a2,19(a1)
80104174:	1600a284 	lh	v0,22(a1)
80104178:	1600a394 	lhu	v1,22(a1)
8010417c:	faff4228 	slti	v0,v0,-6
80104180:	20004014 	bnez	v0,0x80104204
80104184:	ffff6224 	addiu	v0,v1,-1
80104188:	68340408 	j	0x8010d1a0
8010418c:	1600a2a4 	sh	v0,22(a1)
80104190:	1600a284 	lh	v0,22(a1)
80104194:	1600a394 	lhu	v1,22(a1)
80104198:	07004228 	slti	v0,v0,7
8010419c:	19004010 	beqz	v0,0x80104204
801041a0:	01006224 	addiu	v0,v1,1
801041a4:	68340408 	j	0x8010d1a0
801041a8:	1600a2a4 	sh	v0,22(a1)
801041ac:	1300a290 	lbu	v0,19(a1)
801041b0:	00000000 	nop
801041b4:	03004310 	beq	v0,v1,0x801041c4
801041b8:	03000224 	li	v0,3
801041bc:	68340408 	j	0x8010d1a0
801041c0:	4200e2a4 	sh	v0,66(a3)
801041c4:	4200e284 	lh	v0,66(a3)
801041c8:	4200e394 	lhu	v1,66(a3)
801041cc:	03004018 	blez	v0,0x801041dc
801041d0:	ffff6224 	addiu	v0,v1,-1
801041d4:	68340408 	j	0x8010d1a0
801041d8:	4200e2a4 	sh	v0,66(a3)
801041dc:	4200e0a4 	sh	zero,66(a3)
801041e0:	1600a384 	lh	v1,22(a1)
801041e4:	1600a294 	lhu	v0,22(a1)
801041e8:	03006018 	blez	v1,0x801041f8
801041ec:	00000000 	nop
801041f0:	67340408 	j	0x8010d19c
801041f4:	ffff4224 	addiu	v0,v0,-1
801041f8:	02006104 	bgez	v1,0x80104204
801041fc:	01004224 	addiu	v0,v0,1
80104200:	1600a2a4 	sh	v0,22(a1)
80104204:	1300a6a0 	sb	a2,19(a1)
80104208:	1200a690 	lbu	a2,18(a1)
8010420c:	00000000 	nop
80104210:	0100c230 	andi	v0,a2,0x1
80104214:	0e004010 	beqz	v0,0x80104250
80104218:	801f023c 	lui	v0,0x1f80
8010421c:	801f033c 	lui	v1,0x1f80
80104220:	70014494 	lhu	a0,368(v0)
80104224:	72016294 	lhu	v0,370(v1)
80104228:	0f80033c 	lui	v1,0x800f
8010422c:	25208200 	or	a0,a0,v0
80104230:	801f023c 	lui	v0,0x1f80
80104234:	74014294 	lhu	v0,372(v0)
80104238:	54cf6394 	lhu	v1,-12460(v1)
8010423c:	25104400 	or	v0,v0,a0
80104240:	24186200 	and	v1,v1,v0
80104244:	02006010 	beqz	v1,0x80104250
80104248:	0800c234 	ori	v0,a2,0x8
8010424c:	1200a2a0 	sb	v0,18(a1)
80104250:	0800e003 	jr	ra
80104254:	00000000 	nop
80104258:	68ffbd27 	addiu	sp,sp,-152
8010425c:	8c00b3af 	sw	s3,140(sp)
80104260:	21988000 	move	s3,a0
80104264:	8400b1af 	sw	s1,132(sp)
80104268:	60007126 	addiu	s1,s3,96
8010426c:	9400bfaf 	sw	ra,148(sp)
80104270:	9000b4af 	sw	s4,144(sp)
80104274:	8800b2af 	sw	s2,136(sp)
80104278:	8000b0af 	sw	s0,128(sp)
8010427c:	12002292 	lbu	v0,18(s1)
80104280:	00000000 	nop
80104284:	01004230 	andi	v0,v0,0x1
80104288:	6a014010 	beqz	v0,0x80104834
8010428c:	64006626 	addiu	a2,s3,100
80104290:	1000a727 	addiu	a3,sp,16
80104294:	9800688e 	lw	t0,152(s3)
80104298:	9c00698e 	lw	t1,156(s3)
8010429c:	a0006a8e 	lw	t2,160(s3)
801042a0:	a4006b8e 	lw	t3,164(s3)
801042a4:	1000a8af 	sw	t0,16(sp)
801042a8:	1400a9af 	sw	t1,20(sp)
801042ac:	1800aaaf 	sw	t2,24(sp)
801042b0:	1c00abaf 	sw	t3,28(sp)
801042b4:	a800688e 	lw	t0,168(s3)
801042b8:	ac00698e 	lw	t1,172(s3)
801042bc:	b0006a8e 	lw	t2,176(s3)
801042c0:	b4006b8e 	lw	t3,180(s3)
801042c4:	2000a8af 	sw	t0,32(sp)
801042c8:	2400a9af 	sw	t1,36(sp)
801042cc:	2800aaaf 	sw	t2,40(sp)
801042d0:	2c00abaf 	sw	t3,44(sp)
801042d4:	0c002296 	lhu	v0,12(s1)
801042d8:	0a002596 	lhu	a1,10(s1)
801042dc:	2800b48f 	lw	s4,40(sp)
801042e0:	00140200 	sll	v0,v0,0x10
801042e4:	03150200 	sra	v0,v0,0x14
801042e8:	2128a200 	addu	a1,a1,v0
801042ec:	0a0025a6 	sh	a1,10(s1)
801042f0:	002c0500 	sll	a1,a1,0x10
801042f4:	6000648e 	lw	a0,96(s3)
801042f8:	1830040c 	jal	0x8010c060
801042fc:	032c0500 	sra	a1,a1,0x10
80104300:	600062ae 	sw	v0,96(s3)
80104304:	0e002486 	lh	a0,14(s1)
80104308:	00000000 	nop
8010430c:	ab028228 	slti	v0,a0,683
80104310:	03004010 	beqz	v0,0x80104320
80104314:	56fd8228 	slti	v0,a0,-682
80104318:	03004010 	beqz	v0,0x80104328
8010431c:	0c30023c 	lui	v0,0x300c
80104320:	c1340408 	j	0x8010d304
80104324:	21908000 	move	s2,a0
80104328:	01034234 	ori	v0,v0,0x301
8010432c:	80220400 	sll	a0,a0,0xa
80104330:	18008200 	mult	a0,v0
80104334:	c3270400 	sra	a0,a0,0x1f
80104338:	10400000 	mfhi	t0
8010433c:	c3110800 	sra	v0,t0,0x7
80104340:	a00f020c 	jal	0x80083e80
80104344:	23204400 	subu	a0,v0,a0
80104348:	80180200 	sll	v1,v0,0x2
8010434c:	21186200 	addu	v1,v1,v0
80104350:	00210300 	sll	a0,v1,0x4
80104354:	21186400 	addu	v1,v1,a0
80104358:	80180300 	sll	v1,v1,0x2
8010435c:	21186200 	addu	v1,v1,v0
80104360:	40180300 	sll	v1,v1,0x1
80104364:	03930300 	sra	s2,v1,0xc
80104368:	3000b027 	addiu	s0,sp,48
8010436c:	e545010c 	jal	0x80051794
80104370:	21200002 	move	a0,s0
80104374:	21204002 	move	a0,s2
80104378:	4413020c 	jal	0x80084d10
8010437c:	21280002 	move	a1,s0
80104380:	1000a427 	addiu	a0,sp,16
80104384:	9410020c 	jal	0x80084250
80104388:	21280002 	move	a1,s0
8010438c:	21206002 	move	a0,s3
80104390:	1000a527 	addiu	a1,sp,16
80104394:	ee2e040c 	jal	0x8010bbb8
80104398:	21304002 	move	a2,s2
8010439c:	0e002286 	lh	v0,14(s1)
801043a0:	00000000 	nop
801043a4:	01104228 	slti	v0,v0,4097
801043a8:	02004014 	bnez	v0,0x801043b4
801043ac:	00100224 	li	v0,4096
801043b0:	0e0022a6 	sh	v0,14(s1)
801043b4:	0e002286 	lh	v0,14(s1)
801043b8:	00000000 	nop
801043bc:	00f04228 	slti	v0,v0,-4096
801043c0:	02004010 	beqz	v0,0x801043cc
801043c4:	00f00224 	li	v0,-4096
801043c8:	0e0022a6 	sh	v0,14(s1)
801043cc:	1c00a487 	lh	a0,28(sp)
801043d0:	1000a587 	lh	a1,16(sp)
801043d4:	0e003096 	lhu	s0,14(s1)
801043d8:	a415020c 	jal	0x80085690
801043dc:	00000000 	nop
801043e0:	14002396 	lhu	v1,20(s1)
801043e4:	21304000 	move	a2,v0
801043e8:	23184300 	subu	v1,v0,v1
801043ec:	00140300 	sll	v0,v1,0x10
801043f0:	03240200 	sra	a0,v0,0x10
801043f4:	00f88228 	slti	v0,a0,-2048
801043f8:	03004010 	beqz	v0,0x80104408
801043fc:	21286000 	move	a1,v1
80104400:	ed340408 	j	0x8010d3b4
80104404:	00106524 	addiu	a1,v1,4096
80104408:	01088228 	slti	v0,a0,2049
8010440c:	03004014 	bnez	v0,0x8010441c
80104410:	00140500 	sll	v0,a1,0x10
80104414:	00f06524 	addiu	a1,v1,-4096
80104418:	00140500 	sll	v0,a1,0x10
8010441c:	0c002386 	lh	v1,12(s1)
80104420:	03140200 	sra	v0,v0,0x10
80104424:	18006200 	mult	v1,v0
80104428:	10002296 	lhu	v0,16(s1)
8010442c:	0e002396 	lhu	v1,14(s1)
80104430:	00140200 	sll	v0,v0,0x10
80104434:	03150200 	sra	v0,v0,0x14
80104438:	21186200 	addu	v1,v1,v0
8010443c:	0e0023a6 	sh	v1,14(s1)
80104440:	12400000 	mflo	t0
80104444:	83190800 	sra	v1,t0,0x6
80104448:	80100300 	sll	v0,v1,0x2
8010444c:	21104300 	addu	v0,v0,v1
80104450:	40100200 	sll	v0,v0,0x1
80104454:	02004104 	bgez	v0,0x80104460
80104458:	00000000 	nop
8010445c:	03004224 	addiu	v0,v0,3
80104460:	10002496 	lhu	a0,16(s1)
80104464:	16002386 	lh	v1,22(s1)
80104468:	c3110200 	sra	v0,v0,0x7
8010446c:	140026a6 	sh	a2,20(s1)
80104470:	21208200 	addu	a0,a0,v0
80104474:	40100300 	sll	v0,v1,0x1
80104478:	21104300 	addu	v0,v0,v1
8010447c:	0e002396 	lhu	v1,14(s1)
80104480:	80100200 	sll	v0,v0,0x2
80104484:	100024a6 	sh	a0,16(s1)
80104488:	21208200 	addu	a0,a0,v0
8010448c:	26180302 	xor	v1,s0,v1
80104490:	001c0300 	sll	v1,v1,0x10
80104494:	15006104 	bgez	v1,0x801044ec
80104498:	100024a6 	sh	a0,16(s1)
8010449c:	10002386 	lh	v1,16(s1)
801044a0:	00000000 	nop
801044a4:	40100300 	sll	v0,v1,0x1
801044a8:	21104300 	addu	v0,v0,v1
801044ac:	c3200200 	sra	a0,v0,0x3
801044b0:	100024a6 	sh	a0,16(s1)
801044b4:	04006392 	lbu	v1,4(s3)
801044b8:	01000224 	li	v0,1
801044bc:	0b006214 	bne	v1,v0,0x801044ec
801044c0:	00000000 	nop
801044c4:	02008104 	bgez	a0,0x801044d0
801044c8:	21108000 	move	v0,a0
801044cc:	23100200 	negu	v0,v0
801044d0:	c9004228 	slti	v0,v0,201
801044d4:	05004014 	bnez	v0,0x801044ec
801044d8:	21200000 	move	a0,zero
801044dc:	21288000 	move	a1,a0
801044e0:	90000624 	li	a2,144
801044e4:	7d48010c 	jal	0x800521f4
801044e8:	01000724 	li	a3,1
801044ec:	0e002286 	lh	v0,14(s1)
801044f0:	00000000 	nop
801044f4:	04004018 	blez	v0,0x80104508
801044f8:	00000000 	nop
801044fc:	10002296 	lhu	v0,16(s1)
80104500:	2c350408 	j	0x8010d4b0
80104504:	c8ff4224 	addiu	v0,v0,-56
80104508:	10002296 	lhu	v0,16(s1)
8010450c:	00000000 	nop
80104510:	38004224 	addiu	v0,v0,56
80104514:	100022a6 	sh	v0,16(s1)
80104518:	10002286 	lh	v0,16(s1)
8010451c:	10002396 	lhu	v1,16(s1)
80104520:	07004018 	blez	v0,0x80104540
80104524:	fdff6224 	addiu	v0,v1,-3
80104528:	100022a6 	sh	v0,16(s1)
8010452c:	00140200 	sll	v0,v0,0x10
80104530:	09004104 	bgez	v0,0x80104558
80104534:	00000000 	nop
80104538:	3d350408 	j	0x8010d4f4
8010453c:	100020a6 	sh	zero,16(s1)
80104540:	03006224 	addiu	v0,v1,3
80104544:	100022a6 	sh	v0,16(s1)
80104548:	00140200 	sll	v0,v0,0x10
8010454c:	02004018 	blez	v0,0x80104558
80104550:	00000000 	nop
80104554:	100020a6 	sh	zero,16(s1)
80104558:	10002396 	lhu	v1,16(s1)
8010455c:	0e002296 	lhu	v0,14(s1)
80104560:	00000000 	nop
80104564:	26106200 	xor	v0,v1,v0
80104568:	00140200 	sll	v0,v0,0x10
8010456c:	04004004 	bltz	v0,0x80104580
80104570:	00140300 	sll	v0,v1,0x10
80104574:	83140200 	sra	v0,v0,0x12
80104578:	23106200 	subu	v0,v1,v0
8010457c:	100022a6 	sh	v0,16(s1)
80104580:	1600a497 	lhu	a0,22(sp)
80104584:	00000000 	nop
80104588:	00240400 	sll	a0,a0,0x10
8010458c:	a00f020c 	jal	0x80083e80
80104590:	83240400 	sra	a0,a0,0x12
80104594:	0e002386 	lh	v1,14(s1)
80104598:	00000000 	nop
8010459c:	02006104 	bgez	v1,0x801045a8
801045a0:	21206000 	move	a0,v1
801045a4:	23200400 	negu	a0,a0
801045a8:	8fff8424 	addiu	a0,a0,-113
801045ac:	80180200 	sll	v1,v0,0x2
801045b0:	21186200 	addu	v1,v1,v0
801045b4:	c0180300 	sll	v1,v1,0x3
801045b8:	21186200 	addu	v1,v1,v0
801045bc:	0c002296 	lhu	v0,12(s1)
801045c0:	031b0300 	sra	v1,v1,0xc
801045c4:	21284300 	addu	a1,v0,v1
801045c8:	2e008018 	blez	a0,0x80104684
801045cc:	0c0025a6 	sh	a1,12(s1)
801045d0:	40100400 	sll	v0,a0,0x1
801045d4:	21104400 	addu	v0,v0,a0
801045d8:	c0100200 	sll	v0,v0,0x3
801045dc:	21208200 	addu	a0,a0,v0
801045e0:	9639023c 	lui	v0,0x3996
801045e4:	77b84234 	ori	v0,v0,0xb877
801045e8:	18008200 	mult	a0,v0
801045ec:	c31f0400 	sra	v1,a0,0x1f
801045f0:	10400000 	mfhi	t0
801045f4:	c3110800 	sra	v0,t0,0x7
801045f8:	23104300 	subu	v0,v0,v1
801045fc:	0e002386 	lh	v1,14(s1)
80104600:	2310a200 	subu	v0,a1,v0
80104604:	05006104 	bgez	v1,0x8010461c
80104608:	0c0022a6 	sh	v0,12(s1)
8010460c:	12002292 	lbu	v0,18(s1)
80104610:	a0000524 	li	a1,160
80104614:	71350408 	j	0x8010d5c4
80104618:	04004234 	ori	v0,v0,0x4
8010461c:	12002292 	lbu	v0,18(s1)
80104620:	60ff0524 	li	a1,-160
80104624:	02004234 	ori	v0,v0,0x2
80104628:	120022a2 	sb	v0,18(s1)
8010462c:	9e31040c 	jal	0x8010c678
80104630:	21206002 	move	a0,s3
80104634:	04006392 	lbu	v1,4(s3)
80104638:	01000224 	li	v0,1
8010463c:	11006214 	bne	v1,v0,0x80104684
80104640:	00000000 	nop
80104644:	0c002296 	lhu	v0,12(s1)
80104648:	1a002396 	lhu	v1,26(s1)
8010464c:	00140200 	sll	v0,v0,0x10
80104650:	03150200 	sra	v0,v0,0x14
80104654:	21186200 	addu	v1,v1,v0
80104658:	00140300 	sll	v0,v1,0x10
8010465c:	03140200 	sra	v0,v0,0x10
80104660:	e3044228 	slti	v0,v0,1251
80104664:	07004014 	bnez	v0,0x80104684
80104668:	1a0023a6 	sh	v1,26(s1)
8010466c:	1efb6224 	addiu	v0,v1,-1250
80104670:	1a0022a6 	sh	v0,26(s1)
80104674:	82000424 	li	a0,130
80104678:	21280000 	move	a1,zero
8010467c:	64d1010c 	jal	0x80074590
80104680:	bfff0624 	li	a2,-65
80104684:	12002292 	lbu	v0,18(s1)
80104688:	00000000 	nop
8010468c:	08004230 	andi	v0,v0,0x8
80104690:	16004010 	beqz	v0,0x801046ec
80104694:	21206002 	move	a0,s3
80104698:	9e31040c 	jal	0x8010c678
8010469c:	a0000524 	li	a1,160
801046a0:	21206002 	move	a0,s3
801046a4:	9e31040c 	jal	0x8010c678
801046a8:	60ff0524 	li	a1,-160
801046ac:	12002292 	lbu	v0,18(s1)
801046b0:	00000000 	nop
801046b4:	06004234 	ori	v0,v0,0x6
801046b8:	120022a2 	sb	v0,18(s1)
801046bc:	40006296 	lhu	v0,64(s3)
801046c0:	00000000 	nop
801046c4:	03004230 	andi	v0,v0,0x3
801046c8:	04004014 	bnez	v0,0x801046dc
801046cc:	82000424 	li	a0,130
801046d0:	21280000 	move	a1,zero
801046d4:	64d1010c 	jal	0x80074590
801046d8:	bfff0624 	li	a2,-65
801046dc:	0c002296 	lhu	v0,12(s1)
801046e0:	00000000 	nop
801046e4:	e0ff4224 	addiu	v0,v0,-32
801046e8:	0c0022a6 	sh	v0,12(s1)
801046ec:	04006392 	lbu	v1,4(s3)
801046f0:	01000224 	li	v0,1
801046f4:	11006214 	bne	v1,v0,0x8010473c
801046f8:	00000000 	nop
801046fc:	0c002296 	lhu	v0,12(s1)
80104700:	18002396 	lhu	v1,24(s1)
80104704:	00140200 	sll	v0,v0,0x10
80104708:	03150200 	sra	v0,v0,0x14
8010470c:	21186200 	addu	v1,v1,v0
80104710:	00140300 	sll	v0,v1,0x10
80104714:	03140200 	sra	v0,v0,0x10
80104718:	cb084228 	slti	v0,v0,2251
8010471c:	07004014 	bnez	v0,0x8010473c
80104720:	180023a6 	sh	v1,24(s1)
80104724:	36f76224 	addiu	v0,v1,-2250
80104728:	180022a6 	sh	v0,24(s1)
8010472c:	80000424 	li	a0,128
80104730:	21280000 	move	a1,zero
80104734:	64d1010c 	jal	0x80074590
80104738:	ecff0624 	li	a2,-20
8010473c:	4a006286 	lh	v0,74(s3)
80104740:	2800a38f 	lw	v1,40(sp)
80104744:	21108202 	addu	v0,s4,v0
80104748:	8d004224 	addiu	v0,v0,141
8010474c:	2a104300 	slt	v0,v0,v1
80104750:	22004010 	beqz	v0,0x801047dc
80104754:	00000000 	nop
80104758:	1600a287 	lh	v0,22(sp)
8010475c:	00000000 	nop
80104760:	1e004104 	bgez	v0,0x801047dc
80104764:	21206002 	move	a0,s3
80104768:	12002292 	lbu	v0,18(s1)
8010476c:	1000a527 	addiu	a1,sp,16
80104770:	0e0020a6 	sh	zero,14(s1)
80104774:	100020a6 	sh	zero,16(s1)
80104778:	fe004230 	andi	v0,v0,0xfe
8010477c:	120022a2 	sb	v0,18(s1)
80104780:	2800a297 	lhu	v0,40(sp)
80104784:	21300000 	move	a2,zero
80104788:	23105400 	subu	v0,v0,s4
8010478c:	ee2e040c 	jal	0x8010bbb8
80104790:	4a0062a6 	sh	v0,74(s3)
80104794:	1000a98f 	lw	t1,16(sp)
80104798:	1400aa8f 	lw	t2,20(sp)
8010479c:	1800ab8f 	lw	t3,24(sp)
801047a0:	1c00a88f 	lw	t0,28(sp)
801047a4:	980069ae 	sw	t1,152(s3)
801047a8:	9c006aae 	sw	t2,156(s3)
801047ac:	a0006bae 	sw	t3,160(s3)
801047b0:	a40068ae 	sw	t0,164(s3)
801047b4:	2000a98f 	lw	t1,32(sp)
801047b8:	2400aa8f 	lw	t2,36(sp)
801047bc:	2800ab8f 	lw	t3,40(sp)
801047c0:	2c00a88f 	lw	t0,44(sp)
801047c4:	a80069ae 	sw	t1,168(s3)
801047c8:	ac006aae 	sw	t2,172(s3)
801047cc:	b0006bae 	sw	t3,176(s3)
801047d0:	b40068ae 	sw	t0,180(s3)
801047d4:	5a360408 	j	0x8010d968
801047d8:	00000000 	nop
801047dc:	2800a297 	lhu	v0,40(sp)
801047e0:	00000000 	nop
801047e4:	23105400 	subu	v0,v0,s4
801047e8:	4a0062a6 	sh	v0,74(s3)
801047ec:	1000a98f 	lw	t1,16(sp)
801047f0:	1400aa8f 	lw	t2,20(sp)
801047f4:	1800ab8f 	lw	t3,24(sp)
801047f8:	1c00a88f 	lw	t0,28(sp)
801047fc:	980069ae 	sw	t1,152(s3)
80104800:	9c006aae 	sw	t2,156(s3)
80104804:	a0006bae 	sw	t3,160(s3)
80104808:	a40068ae 	sw	t0,164(s3)
8010480c:	2000a98f 	lw	t1,32(sp)
80104810:	2400aa8f 	lw	t2,36(sp)
80104814:	2800ab8f 	lw	t3,40(sp)
80104818:	2c00a88f 	lw	t0,44(sp)
8010481c:	a80069ae 	sw	t1,168(s3)
80104820:	ac006aae 	sw	t2,172(s3)
80104824:	b0006bae 	sw	t3,176(s3)
80104828:	b40068ae 	sw	t0,180(s3)
8010482c:	5a360408 	j	0x8010d968
80104830:	00000000 	nop
80104834:	7000a627 	addiu	a2,sp,112
80104838:	5000a727 	addiu	a3,sp,80
8010483c:	0c002296 	lhu	v0,12(s1)
80104840:	0a002596 	lhu	a1,10(s1)
80104844:	00140200 	sll	v0,v0,0x10
80104848:	03150200 	sra	v0,v0,0x14
8010484c:	2128a200 	addu	a1,a1,v0
80104850:	0a0025a6 	sh	a1,10(s1)
80104854:	002c0500 	sll	a1,a1,0x10
80104858:	6000648e 	lw	a0,96(s3)
8010485c:	db30040c 	jal	0x8010c36c
80104860:	032c0500 	sra	a1,a1,0x10
80104864:	600062ae 	sw	v0,96(s3)
80104868:	21184000 	move	v1,v0
8010486c:	00100224 	li	v0,4096
80104870:	a80062a6 	sh	v0,168(s3)
80104874:	a00062a6 	sh	v0,160(s3)
80104878:	980062a6 	sh	v0,152(s3)
8010487c:	a60060a6 	sh	zero,166(s3)
80104880:	a40060a6 	sh	zero,164(s3)
80104884:	a20060a6 	sh	zero,162(s3)
80104888:	9e0060a6 	sh	zero,158(s3)
8010488c:	9c0060a6 	sh	zero,156(s3)
80104890:	9a0060a6 	sh	zero,154(s3)
80104894:	0a006484 	lh	a0,10(v1)
80104898:	98006526 	addiu	a1,s3,152
8010489c:	ac13020c 	jal	0x80084eb0
801048a0:	00fc8424 	addiu	a0,a0,-1024
801048a4:	7000a287 	lh	v0,112(sp)
801048a8:	00000000 	nop
801048ac:	ac0062ae 	sw	v0,172(s3)
801048b0:	7400a287 	lh	v0,116(sp)
801048b4:	00000000 	nop
801048b8:	b40062ae 	sw	v0,180(s3)
801048bc:	7600a297 	lhu	v0,118(sp)
801048c0:	00000000 	nop
801048c4:	0a0022a6 	sh	v0,10(s1)
801048c8:	4a006396 	lhu	v1,74(s3)
801048cc:	b000628e 	lw	v0,176(s3)
801048d0:	4a006496 	lhu	a0,74(s3)
801048d4:	001c0300 	sll	v1,v1,0x10
801048d8:	031d0300 	sra	v1,v1,0x14
801048dc:	21104300 	addu	v0,v0,v1
801048e0:	04006392 	lbu	v1,4(s3)
801048e4:	47008424 	addiu	a0,a0,71
801048e8:	b00062ae 	sw	v0,176(s3)
801048ec:	01000224 	li	v0,1
801048f0:	36006214 	bne	v1,v0,0x801049cc
801048f4:	4a0064a6 	sh	a0,74(s3)
801048f8:	7200a287 	lh	v0,114(sp)
801048fc:	b000638e 	lw	v1,176(s3)
80104900:	00000000 	nop
80104904:	2a104300 	slt	v0,v0,v1
80104908:	30004010 	beqz	v0,0x801049cc
8010490c:	21200000 	move	a0,zero
80104910:	21288000 	move	a1,a0
80104914:	90000624 	li	a2,144
80104918:	7d48010c 	jal	0x800521f4
8010491c:	01000724 	li	a3,1
80104920:	83000424 	li	a0,131
80104924:	21280000 	move	a1,zero
80104928:	64d1010c 	jal	0x80074590
8010492c:	2130a000 	move	a2,a1
80104930:	0e0020a6 	sh	zero,14(s1)
80104934:	100020a6 	sh	zero,16(s1)
80104938:	4a0060a6 	sh	zero,74(s3)
8010493c:	12002292 	lbu	v0,18(s1)
80104940:	00000000 	nop
80104944:	01004234 	ori	v0,v0,0x1
80104948:	120022a2 	sb	v0,18(s1)
8010494c:	1280023c 	lui	v0,0x8012
80104950:	feba4284 	lh	v0,-17666(v0)
80104954:	8a006386 	lh	v1,138(s3)
80104958:	9a006486 	lh	a0,154(s3)
8010495c:	02004104 	bgez	v0,0x80104968
80104960:	00000000 	nop
80104964:	23100200 	negu	v0,v0
80104968:	17004224 	addiu	v0,v0,23
8010496c:	23100200 	negu	v0,v0
80104970:	23104300 	subu	v0,v0,v1
80104974:	18004400 	mult	v0,a0
80104978:	12600000 	mflo	t4
8010497c:	a0006386 	lh	v1,160(s3)
80104980:	00000000 	nop
80104984:	18004300 	mult	v0,v1
80104988:	12200000 	mflo	a0
8010498c:	a6006386 	lh	v1,166(s3)
80104990:	00000000 	nop
80104994:	18004300 	mult	v0,v1
80104998:	ac00628e 	lw	v0,172(s3)
8010499c:	031b0c00 	sra	v1,t4,0xc
801049a0:	21104300 	addu	v0,v0,v1
801049a4:	ac0062ae 	sw	v0,172(s3)
801049a8:	b000628e 	lw	v0,176(s3)
801049ac:	031b0400 	sra	v1,a0,0xc
801049b0:	21104300 	addu	v0,v0,v1
801049b4:	b00062ae 	sw	v0,176(s3)
801049b8:	b400628e 	lw	v0,180(s3)
801049bc:	12280000 	mflo	a1
801049c0:	031b0500 	sra	v1,a1,0xc
801049c4:	21104300 	addu	v0,v0,v1
801049c8:	b40062ae 	sw	v0,180(s3)
801049cc:	9400bf8f 	lw	ra,148(sp)
801049d0:	9000b48f 	lw	s4,144(sp)
801049d4:	8c00b38f 	lw	s3,140(sp)
801049d8:	8800b28f 	lw	s2,136(sp)
801049dc:	8400b18f 	lw	s1,132(sp)
801049e0:	8000b08f 	lw	s0,128(sp)
801049e4:	0800e003 	jr	ra
801049e8:	9800bd27 	addiu	sp,sp,152
801049ec:	68ffbd27 	addiu	sp,sp,-152
801049f0:	8c00b3af 	sw	s3,140(sp)
801049f4:	21988000 	move	s3,a0
801049f8:	8400b1af 	sw	s1,132(sp)
801049fc:	60007126 	addiu	s1,s3,96
80104a00:	9400bfaf 	sw	ra,148(sp)
80104a04:	9000b4af 	sw	s4,144(sp)
80104a08:	8800b2af 	sw	s2,136(sp)
80104a0c:	8000b0af 	sw	s0,128(sp)
80104a10:	12002292 	lbu	v0,18(s1)
80104a14:	00000000 	nop
80104a18:	01004230 	andi	v0,v0,0x1
80104a1c:	7b014010 	beqz	v0,0x8010500c
80104a20:	64006626 	addiu	a2,s3,100
80104a24:	1000a727 	addiu	a3,sp,16
80104a28:	9800688e 	lw	t0,152(s3)
80104a2c:	9c00698e 	lw	t1,156(s3)
80104a30:	a0006a8e 	lw	t2,160(s3)
80104a34:	a4006b8e 	lw	t3,164(s3)
80104a38:	1000a8af 	sw	t0,16(sp)
80104a3c:	1400a9af 	sw	t1,20(sp)
80104a40:	1800aaaf 	sw	t2,24(sp)
80104a44:	1c00abaf 	sw	t3,28(sp)
80104a48:	a800688e 	lw	t0,168(s3)
80104a4c:	ac00698e 	lw	t1,172(s3)
80104a50:	b0006a8e 	lw	t2,176(s3)
80104a54:	b4006b8e 	lw	t3,180(s3)
80104a58:	2000a8af 	sw	t0,32(sp)
80104a5c:	2400a9af 	sw	t1,36(sp)
80104a60:	2800aaaf 	sw	t2,40(sp)
80104a64:	2c00abaf 	sw	t3,44(sp)
80104a68:	0c002296 	lhu	v0,12(s1)
80104a6c:	0a002596 	lhu	a1,10(s1)
80104a70:	2800b48f 	lw	s4,40(sp)
80104a74:	00140200 	sll	v0,v0,0x10
80104a78:	03150200 	sra	v0,v0,0x14
80104a7c:	2128a200 	addu	a1,a1,v0
80104a80:	0a0025a6 	sh	a1,10(s1)
80104a84:	002c0500 	sll	a1,a1,0x10
80104a88:	6000648e 	lw	a0,96(s3)
80104a8c:	1830040c 	jal	0x8010c060
80104a90:	032c0500 	sra	a1,a1,0x10
80104a94:	600062ae 	sw	v0,96(s3)
80104a98:	0e002486 	lh	a0,14(s1)
80104a9c:	00000000 	nop
80104aa0:	ab028228 	slti	v0,a0,683
80104aa4:	03004010 	beqz	v0,0x80104ab4
80104aa8:	56fd8228 	slti	v0,a0,-682
80104aac:	03004010 	beqz	v0,0x80104abc
80104ab0:	0c30023c 	lui	v0,0x300c
80104ab4:	a6360408 	j	0x8010da98
80104ab8:	21908000 	move	s2,a0
80104abc:	01034234 	ori	v0,v0,0x301
80104ac0:	80220400 	sll	a0,a0,0xa
80104ac4:	18008200 	mult	a0,v0
80104ac8:	c3270400 	sra	a0,a0,0x1f
80104acc:	10400000 	mfhi	t0
80104ad0:	c3110800 	sra	v0,t0,0x7
80104ad4:	a00f020c 	jal	0x80083e80
80104ad8:	23204400 	subu	a0,v0,a0
80104adc:	80180200 	sll	v1,v0,0x2
80104ae0:	21186200 	addu	v1,v1,v0
80104ae4:	00210300 	sll	a0,v1,0x4
80104ae8:	21186400 	addu	v1,v1,a0
80104aec:	80180300 	sll	v1,v1,0x2
80104af0:	21186200 	addu	v1,v1,v0
80104af4:	40180300 	sll	v1,v1,0x1
80104af8:	03930300 	sra	s2,v1,0xc
80104afc:	3000b027 	addiu	s0,sp,48
80104b00:	e545010c 	jal	0x80051794
80104b04:	21200002 	move	a0,s0
80104b08:	21204002 	move	a0,s2
80104b0c:	4413020c 	jal	0x80084d10
80104b10:	21280002 	move	a1,s0
80104b14:	1000a427 	addiu	a0,sp,16
80104b18:	9410020c 	jal	0x80084250
80104b1c:	21280002 	move	a1,s0
80104b20:	21206002 	move	a0,s3
80104b24:	1000a527 	addiu	a1,sp,16
80104b28:	ee2e040c 	jal	0x8010bbb8
80104b2c:	21304002 	move	a2,s2
80104b30:	0e002286 	lh	v0,14(s1)
80104b34:	00000000 	nop
80104b38:	01104228 	slti	v0,v0,4097
80104b3c:	02004014 	bnez	v0,0x80104b48
80104b40:	00100224 	li	v0,4096
80104b44:	0e0022a6 	sh	v0,14(s1)
80104b48:	0e002286 	lh	v0,14(s1)
80104b4c:	00000000 	nop
80104b50:	00f04228 	slti	v0,v0,-4096
80104b54:	02004010 	beqz	v0,0x80104b60
80104b58:	00f00224 	li	v0,-4096
80104b5c:	0e0022a6 	sh	v0,14(s1)
80104b60:	1c00a487 	lh	a0,28(sp)
80104b64:	1000a587 	lh	a1,16(sp)
80104b68:	0e003096 	lhu	s0,14(s1)
80104b6c:	a415020c 	jal	0x80085690
80104b70:	00000000 	nop
80104b74:	14002396 	lhu	v1,20(s1)
80104b78:	21304000 	move	a2,v0
80104b7c:	23184300 	subu	v1,v0,v1
80104b80:	00140300 	sll	v0,v1,0x10
80104b84:	03240200 	sra	a0,v0,0x10
80104b88:	00f88228 	slti	v0,a0,-2048
80104b8c:	03004010 	beqz	v0,0x80104b9c
80104b90:	21286000 	move	a1,v1
80104b94:	d2360408 	j	0x8010db48
80104b98:	00106524 	addiu	a1,v1,4096
80104b9c:	01088228 	slti	v0,a0,2049
80104ba0:	03004014 	bnez	v0,0x80104bb0
80104ba4:	00140500 	sll	v0,a1,0x10
80104ba8:	00f06524 	addiu	a1,v1,-4096
80104bac:	00140500 	sll	v0,a1,0x10
80104bb0:	0c002386 	lh	v1,12(s1)
80104bb4:	03140200 	sra	v0,v0,0x10
80104bb8:	18006200 	mult	v1,v0
80104bbc:	10002496 	lhu	a0,16(s1)
80104bc0:	140026a6 	sh	a2,20(s1)
80104bc4:	10002396 	lhu	v1,16(s1)
80104bc8:	0e002296 	lhu	v0,14(s1)
80104bcc:	001c0300 	sll	v1,v1,0x10
80104bd0:	031d0300 	sra	v1,v1,0x14
80104bd4:	21104300 	addu	v0,v0,v1
80104bd8:	0e0022a6 	sh	v0,14(s1)
80104bdc:	12400000 	mflo	t0
80104be0:	83190800 	sra	v1,t0,0x6
80104be4:	40100300 	sll	v0,v1,0x1
80104be8:	21104300 	addu	v0,v0,v1
80104bec:	43110200 	sra	v0,v0,0x5
80104bf0:	16002386 	lh	v1,22(s1)
80104bf4:	21208200 	addu	a0,a0,v0
80104bf8:	100024a6 	sh	a0,16(s1)
80104bfc:	c0100300 	sll	v0,v1,0x3
80104c00:	23104300 	subu	v0,v0,v1
80104c04:	40100200 	sll	v0,v0,0x1
80104c08:	0e002396 	lhu	v1,14(s1)
80104c0c:	21208200 	addu	a0,a0,v0
80104c10:	26180302 	xor	v1,s0,v1
80104c14:	001c0300 	sll	v1,v1,0x10
80104c18:	13006104 	bgez	v1,0x80104c68
80104c1c:	100024a6 	sh	a0,16(s1)
80104c20:	10002286 	lh	v0,16(s1)
80104c24:	00000000 	nop
80104c28:	43200200 	sra	a0,v0,0x1
80104c2c:	100024a6 	sh	a0,16(s1)
80104c30:	04006392 	lbu	v1,4(s3)
80104c34:	01000224 	li	v0,1
80104c38:	0b006214 	bne	v1,v0,0x80104c68
80104c3c:	00000000 	nop
80104c40:	02008104 	bgez	a0,0x80104c4c
80104c44:	21108000 	move	v0,a0
80104c48:	23100200 	negu	v0,v0
80104c4c:	c9004228 	slti	v0,v0,201
80104c50:	05004014 	bnez	v0,0x80104c68
80104c54:	21200000 	move	a0,zero
80104c58:	21288000 	move	a1,a0
80104c5c:	90000624 	li	a2,144
80104c60:	7d48010c 	jal	0x800521f4
80104c64:	01000724 	li	a3,1
80104c68:	0e002286 	lh	v0,14(s1)
80104c6c:	00000000 	nop
80104c70:	04004018 	blez	v0,0x80104c84
80104c74:	00000000 	nop
80104c78:	10002296 	lhu	v0,16(s1)
80104c7c:	0b370408 	j	0x8010dc2c
80104c80:	bcff4224 	addiu	v0,v0,-68
80104c84:	10002296 	lhu	v0,16(s1)
80104c88:	00000000 	nop
80104c8c:	44004224 	addiu	v0,v0,68
80104c90:	100022a6 	sh	v0,16(s1)
80104c94:	10002286 	lh	v0,16(s1)
80104c98:	10002396 	lhu	v1,16(s1)
80104c9c:	07004018 	blez	v0,0x80104cbc
80104ca0:	fdff6224 	addiu	v0,v1,-3
80104ca4:	100022a6 	sh	v0,16(s1)
80104ca8:	00140200 	sll	v0,v0,0x10
80104cac:	09004104 	bgez	v0,0x80104cd4
80104cb0:	00000000 	nop
80104cb4:	1c370408 	j	0x8010dc70
80104cb8:	100020a6 	sh	zero,16(s1)
80104cbc:	03006224 	addiu	v0,v1,3
80104cc0:	100022a6 	sh	v0,16(s1)
80104cc4:	00140200 	sll	v0,v0,0x10
80104cc8:	02004018 	blez	v0,0x80104cd4
80104ccc:	00000000 	nop
80104cd0:	100020a6 	sh	zero,16(s1)
80104cd4:	10002496 	lhu	a0,16(s1)
80104cd8:	0e002296 	lhu	v0,14(s1)
80104cdc:	00000000 	nop
80104ce0:	26108200 	xor	v0,a0,v0
80104ce4:	00140200 	sll	v0,v0,0x10
80104ce8:	07004004 	bltz	v0,0x80104d08
80104cec:	001c0400 	sll	v1,a0,0x10
80104cf0:	031c0300 	sra	v1,v1,0x10
80104cf4:	40100300 	sll	v0,v1,0x1
80104cf8:	21104300 	addu	v0,v0,v1
80104cfc:	c3100200 	sra	v0,v0,0x3
80104d00:	23108200 	subu	v0,a0,v0
80104d04:	100022a6 	sh	v0,16(s1)
80104d08:	1600a297 	lhu	v0,22(sp)
80104d0c:	00000000 	nop
80104d10:	00140200 	sll	v0,v0,0x10
80104d14:	07004104 	bgez	v0,0x80104d34
80104d18:	00000000 	nop
80104d1c:	a00f020c 	jal	0x80083e80
80104d20:	83240200 	sra	a0,v0,0x12
80104d24:	80180200 	sll	v1,v0,0x2
80104d28:	21186200 	addu	v1,v1,v0
80104d2c:	3b370408 	j	0x8010dcec
80104d30:	c0180300 	sll	v1,v1,0x3
80104d34:	a00f020c 	jal	0x80083e80
80104d38:	83240200 	sra	a0,v0,0x12
80104d3c:	40180200 	sll	v1,v0,0x1
80104d40:	21186200 	addu	v1,v1,v0
80104d44:	80180300 	sll	v1,v1,0x2
80104d48:	21186200 	addu	v1,v1,v0
80104d4c:	80180300 	sll	v1,v1,0x2
80104d50:	21186200 	addu	v1,v1,v0
80104d54:	0c002296 	lhu	v0,12(s1)
80104d58:	031b0300 	sra	v1,v1,0xc
80104d5c:	21104300 	addu	v0,v0,v1
80104d60:	0c0022a6 	sh	v0,12(s1)
80104d64:	0e002286 	lh	v0,14(s1)
80104d68:	00000000 	nop
80104d6c:	02004104 	bgez	v0,0x80104d78
80104d70:	21204000 	move	a0,v0
80104d74:	23200400 	negu	a0,a0
80104d78:	8fff8424 	addiu	a0,a0,-113
80104d7c:	31008018 	blez	a0,0x80104e44
80104d80:	9639033c 	lui	v1,0x3996
80104d84:	77b86334 	ori	v1,v1,0xb877
80104d88:	80100400 	sll	v0,a0,0x2
80104d8c:	21104400 	addu	v0,v0,a0
80104d90:	c0100200 	sll	v0,v0,0x3
80104d94:	18004300 	mult	v0,v1
80104d98:	c3170200 	sra	v0,v0,0x1f
80104d9c:	10400000 	mfhi	t0
80104da0:	c3190800 	sra	v1,t0,0x7
80104da4:	23186200 	subu	v1,v1,v0
80104da8:	0c002296 	lhu	v0,12(s1)
80104dac:	0e002486 	lh	a0,14(s1)
80104db0:	23104300 	subu	v0,v0,v1
80104db4:	05008104 	bgez	a0,0x80104dcc
80104db8:	0c0022a6 	sh	v0,12(s1)
80104dbc:	12002292 	lbu	v0,18(s1)
80104dc0:	a0001024 	li	s0,160
80104dc4:	5d370408 	j	0x8010dd74
80104dc8:	04004234 	ori	v0,v0,0x4
80104dcc:	12002292 	lbu	v0,18(s1)
80104dd0:	60ff1024 	li	s0,-160
80104dd4:	02004234 	ori	v0,v0,0x2
80104dd8:	120022a2 	sb	v0,18(s1)
80104ddc:	21206002 	move	a0,s3
80104de0:	9e31040c 	jal	0x8010c678
80104de4:	21280002 	move	a1,s0
80104de8:	21206002 	move	a0,s3
80104dec:	9e31040c 	jal	0x8010c678
80104df0:	21280002 	move	a1,s0
80104df4:	04006392 	lbu	v1,4(s3)
80104df8:	01000224 	li	v0,1
80104dfc:	11006214 	bne	v1,v0,0x80104e44
80104e00:	00000000 	nop
80104e04:	0c002296 	lhu	v0,12(s1)
80104e08:	1a002396 	lhu	v1,26(s1)
80104e0c:	00140200 	sll	v0,v0,0x10
80104e10:	03150200 	sra	v0,v0,0x14
80104e14:	21186200 	addu	v1,v1,v0
80104e18:	00140300 	sll	v0,v1,0x10
80104e1c:	03140200 	sra	v0,v0,0x10
80104e20:	e3044228 	slti	v0,v0,1251
80104e24:	07004014 	bnez	v0,0x80104e44
80104e28:	1a0023a6 	sh	v1,26(s1)
80104e2c:	1efb6224 	addiu	v0,v1,-1250
80104e30:	1a0022a6 	sh	v0,26(s1)
80104e34:	82000424 	li	a0,130
80104e38:	21280000 	move	a1,zero
80104e3c:	64d1010c 	jal	0x80074590
80104e40:	bfff0624 	li	a2,-65
80104e44:	12002292 	lbu	v0,18(s1)
80104e48:	00000000 	nop
80104e4c:	08004230 	andi	v0,v0,0x8
80104e50:	1c004010 	beqz	v0,0x80104ec4
80104e54:	21206002 	move	a0,s3
80104e58:	9e31040c 	jal	0x8010c678
80104e5c:	a0000524 	li	a1,160
80104e60:	21206002 	move	a0,s3
80104e64:	9e31040c 	jal	0x8010c678
80104e68:	60ff0524 	li	a1,-160
80104e6c:	21206002 	move	a0,s3
80104e70:	9e31040c 	jal	0x8010c678
80104e74:	a0000524 	li	a1,160
80104e78:	21206002 	move	a0,s3
80104e7c:	9e31040c 	jal	0x8010c678
80104e80:	60ff0524 	li	a1,-160
80104e84:	12002292 	lbu	v0,18(s1)
80104e88:	00000000 	nop
80104e8c:	06004234 	ori	v0,v0,0x6
80104e90:	120022a2 	sb	v0,18(s1)
80104e94:	40006296 	lhu	v0,64(s3)
80104e98:	00000000 	nop
80104e9c:	03004230 	andi	v0,v0,0x3
80104ea0:	04004014 	bnez	v0,0x80104eb4
80104ea4:	82000424 	li	a0,130
80104ea8:	21280000 	move	a1,zero
80104eac:	64d1010c 	jal	0x80074590
80104eb0:	bfff0624 	li	a2,-65
80104eb4:	0c002296 	lhu	v0,12(s1)
80104eb8:	00000000 	nop
80104ebc:	d0ff4224 	addiu	v0,v0,-48
80104ec0:	0c0022a6 	sh	v0,12(s1)
80104ec4:	04006392 	lbu	v1,4(s3)
80104ec8:	01000224 	li	v0,1
80104ecc:	11006214 	bne	v1,v0,0x80104f14
80104ed0:	00000000 	nop
80104ed4:	0c002296 	lhu	v0,12(s1)
80104ed8:	18002396 	lhu	v1,24(s1)
80104edc:	00140200 	sll	v0,v0,0x10
80104ee0:	03150200 	sra	v0,v0,0x14
80104ee4:	21186200 	addu	v1,v1,v0
80104ee8:	00140300 	sll	v0,v1,0x10
80104eec:	03140200 	sra	v0,v0,0x10
80104ef0:	cb084228 	slti	v0,v0,2251
80104ef4:	07004014 	bnez	v0,0x80104f14
80104ef8:	180023a6 	sh	v1,24(s1)
80104efc:	36f76224 	addiu	v0,v1,-2250
80104f00:	180022a6 	sh	v0,24(s1)
80104f04:	80000424 	li	a0,128
80104f08:	21280000 	move	a1,zero
80104f0c:	64d1010c 	jal	0x80074590
80104f10:	ecff0624 	li	a2,-20
80104f14:	4a006286 	lh	v0,74(s3)
80104f18:	2800a38f 	lw	v1,40(sp)
80104f1c:	21108202 	addu	v0,s4,v0
80104f20:	8d004224 	addiu	v0,v0,141
80104f24:	2a104300 	slt	v0,v0,v1
80104f28:	22004010 	beqz	v0,0x80104fb4
80104f2c:	00000000 	nop
80104f30:	1600a287 	lh	v0,22(sp)
80104f34:	00000000 	nop
80104f38:	1e004104 	bgez	v0,0x80104fb4
80104f3c:	21206002 	move	a0,s3
80104f40:	12002292 	lbu	v0,18(s1)
80104f44:	1000a527 	addiu	a1,sp,16
80104f48:	0e0020a6 	sh	zero,14(s1)
80104f4c:	100020a6 	sh	zero,16(s1)
80104f50:	fe004230 	andi	v0,v0,0xfe
80104f54:	120022a2 	sb	v0,18(s1)
80104f58:	2800a297 	lhu	v0,40(sp)
80104f5c:	21300000 	move	a2,zero
80104f60:	23105400 	subu	v0,v0,s4
80104f64:	ee2e040c 	jal	0x8010bbb8
80104f68:	4a0062a6 	sh	v0,74(s3)
80104f6c:	1000a98f 	lw	t1,16(sp)
80104f70:	1400aa8f 	lw	t2,20(sp)
80104f74:	1800ab8f 	lw	t3,24(sp)
80104f78:	1c00a88f 	lw	t0,28(sp)
80104f7c:	980069ae 	sw	t1,152(s3)
80104f80:	9c006aae 	sw	t2,156(s3)
80104f84:	a0006bae 	sw	t3,160(s3)
80104f88:	a40068ae 	sw	t0,164(s3)
80104f8c:	2000a98f 	lw	t1,32(sp)
80104f90:	2400aa8f 	lw	t2,36(sp)
80104f94:	2800ab8f 	lw	t3,40(sp)
80104f98:	2c00a88f 	lw	t0,44(sp)
80104f9c:	a80069ae 	sw	t1,168(s3)
80104fa0:	ac006aae 	sw	t2,172(s3)
80104fa4:	b0006bae 	sw	t3,176(s3)
80104fa8:	b40068ae 	sw	t0,180(s3)
80104fac:	50380408 	j	0x8010e140
80104fb0:	00000000 	nop
80104fb4:	2800a297 	lhu	v0,40(sp)
80104fb8:	00000000 	nop
80104fbc:	23105400 	subu	v0,v0,s4
80104fc0:	4a0062a6 	sh	v0,74(s3)
80104fc4:	1000a98f 	lw	t1,16(sp)
80104fc8:	1400aa8f 	lw	t2,20(sp)
80104fcc:	1800ab8f 	lw	t3,24(sp)
80104fd0:	1c00a88f 	lw	t0,28(sp)
80104fd4:	980069ae 	sw	t1,152(s3)
80104fd8:	9c006aae 	sw	t2,156(s3)
80104fdc:	a0006bae 	sw	t3,160(s3)
80104fe0:	a40068ae 	sw	t0,164(s3)
80104fe4:	2000a98f 	lw	t1,32(sp)
80104fe8:	2400aa8f 	lw	t2,36(sp)
80104fec:	2800ab8f 	lw	t3,40(sp)
80104ff0:	2c00a88f 	lw	t0,44(sp)
80104ff4:	a80069ae 	sw	t1,168(s3)
80104ff8:	ac006aae 	sw	t2,172(s3)
80104ffc:	b0006bae 	sw	t3,176(s3)
80105000:	b40068ae 	sw	t0,180(s3)
80105004:	50380408 	j	0x8010e140
80105008:	00000000 	nop
8010500c:	7000a627 	addiu	a2,sp,112
80105010:	5000a727 	addiu	a3,sp,80
80105014:	0c002296 	lhu	v0,12(s1)
80105018:	0a002596 	lhu	a1,10(s1)
8010501c:	00140200 	sll	v0,v0,0x10
80105020:	03150200 	sra	v0,v0,0x14
80105024:	2128a200 	addu	a1,a1,v0
80105028:	0a0025a6 	sh	a1,10(s1)
8010502c:	002c0500 	sll	a1,a1,0x10
80105030:	6000648e 	lw	a0,96(s3)
80105034:	db30040c 	jal	0x8010c36c
80105038:	032c0500 	sra	a1,a1,0x10
8010503c:	600062ae 	sw	v0,96(s3)
80105040:	21184000 	move	v1,v0
80105044:	00100224 	li	v0,4096
80105048:	a80062a6 	sh	v0,168(s3)
8010504c:	a00062a6 	sh	v0,160(s3)
80105050:	980062a6 	sh	v0,152(s3)
80105054:	a60060a6 	sh	zero,166(s3)
80105058:	a40060a6 	sh	zero,164(s3)
8010505c:	a20060a6 	sh	zero,162(s3)
80105060:	9e0060a6 	sh	zero,158(s3)
80105064:	9c0060a6 	sh	zero,156(s3)
80105068:	9a0060a6 	sh	zero,154(s3)
8010506c:	0a006484 	lh	a0,10(v1)
80105070:	98006526 	addiu	a1,s3,152
80105074:	ac13020c 	jal	0x80084eb0
80105078:	00fc8424 	addiu	a0,a0,-1024
8010507c:	7000a287 	lh	v0,112(sp)
80105080:	00000000 	nop
80105084:	ac0062ae 	sw	v0,172(s3)
80105088:	7400a287 	lh	v0,116(sp)
8010508c:	00000000 	nop
80105090:	b40062ae 	sw	v0,180(s3)
80105094:	7600a297 	lhu	v0,118(sp)
80105098:	00000000 	nop
8010509c:	0a0022a6 	sh	v0,10(s1)
801050a0:	4a006396 	lhu	v1,74(s3)
801050a4:	b000628e 	lw	v0,176(s3)
801050a8:	4a006496 	lhu	a0,74(s3)
801050ac:	001c0300 	sll	v1,v1,0x10
801050b0:	031d0300 	sra	v1,v1,0x14
801050b4:	21104300 	addu	v0,v0,v1
801050b8:	04006392 	lbu	v1,4(s3)
801050bc:	47008424 	addiu	a0,a0,71
801050c0:	b00062ae 	sw	v0,176(s3)
801050c4:	01000224 	li	v0,1
801050c8:	36006214 	bne	v1,v0,0x801051a4
801050cc:	4a0064a6 	sh	a0,74(s3)
801050d0:	7200a287 	lh	v0,114(sp)
801050d4:	b000638e 	lw	v1,176(s3)
801050d8:	00000000 	nop
801050dc:	2a104300 	slt	v0,v0,v1
801050e0:	30004010 	beqz	v0,0x801051a4
801050e4:	21200000 	move	a0,zero
801050e8:	21288000 	move	a1,a0
801050ec:	90000624 	li	a2,144
801050f0:	7d48010c 	jal	0x800521f4
801050f4:	01000724 	li	a3,1
801050f8:	83000424 	li	a0,131
801050fc:	21280000 	move	a1,zero
80105100:	64d1010c 	jal	0x80074590
80105104:	2130a000 	move	a2,a1
80105108:	0e0020a6 	sh	zero,14(s1)
8010510c:	100020a6 	sh	zero,16(s1)
80105110:	4a0060a6 	sh	zero,74(s3)
80105114:	12002292 	lbu	v0,18(s1)
80105118:	00000000 	nop
8010511c:	01004234 	ori	v0,v0,0x1
80105120:	120022a2 	sb	v0,18(s1)
80105124:	1280023c 	lui	v0,0x8012
80105128:	feba4284 	lh	v0,-17666(v0)
8010512c:	8a006386 	lh	v1,138(s3)
80105130:	9a006486 	lh	a0,154(s3)
80105134:	02004104 	bgez	v0,0x80105140
80105138:	00000000 	nop
8010513c:	23100200 	negu	v0,v0
80105140:	17004224 	addiu	v0,v0,23
80105144:	23100200 	negu	v0,v0
80105148:	23104300 	subu	v0,v0,v1
8010514c:	18004400 	mult	v0,a0
80105150:	12600000 	mflo	t4
80105154:	a0006386 	lh	v1,160(s3)
80105158:	00000000 	nop
8010515c:	18004300 	mult	v0,v1
80105160:	12200000 	mflo	a0
80105164:	a6006386 	lh	v1,166(s3)
80105168:	00000000 	nop
8010516c:	18004300 	mult	v0,v1
80105170:	ac00628e 	lw	v0,172(s3)
80105174:	031b0c00 	sra	v1,t4,0xc
80105178:	21104300 	addu	v0,v0,v1
8010517c:	ac0062ae 	sw	v0,172(s3)
80105180:	b000628e 	lw	v0,176(s3)
80105184:	031b0400 	sra	v1,a0,0xc
80105188:	21104300 	addu	v0,v0,v1
8010518c:	b00062ae 	sw	v0,176(s3)
80105190:	b400628e 	lw	v0,180(s3)
80105194:	12280000 	mflo	a1
80105198:	031b0500 	sra	v1,a1,0xc
8010519c:	21104300 	addu	v0,v0,v1
801051a0:	b40062ae 	sw	v0,180(s3)
801051a4:	9400bf8f 	lw	ra,148(sp)
801051a8:	9000b48f 	lw	s4,144(sp)
801051ac:	8c00b38f 	lw	s3,140(sp)
801051b0:	8800b28f 	lw	s2,136(sp)
801051b4:	8400b18f 	lw	s1,132(sp)
801051b8:	8000b08f 	lw	s0,128(sp)
801051bc:	0800e003 	jr	ra
801051c0:	9800bd27 	addiu	sp,sp,152
801051c4:	b8ffbd27 	addiu	sp,sp,-72
801051c8:	3c00b1af 	sw	s1,60(sp)
801051cc:	21888000 	move	s1,a0
801051d0:	3800b0af 	sw	s0,56(sp)
801051d4:	60003026 	addiu	s0,s1,96
801051d8:	4400bfaf 	sw	ra,68(sp)
801051dc:	4000b2af 	sw	s2,64(sp)
801051e0:	12000292 	lbu	v0,18(s0)
801051e4:	00000000 	nop
801051e8:	f1004230 	andi	v0,v0,0xf1
801051ec:	120002a2 	sb	v0,18(s0)
801051f0:	40002296 	lhu	v0,64(s1)
801051f4:	6000238e 	lw	v1,96(s1)
801051f8:	01004224 	addiu	v0,v0,1
801051fc:	400022a6 	sh	v0,64(s1)
80105200:	1180023c 	lui	v0,0x8011
80105204:	a81b4224 	addiu	v0,v0,7080
80105208:	2b104300 	sltu	v0,v0,v1
8010520c:	08004014 	bnez	v0,0x80105230
80105210:	d0080224 	li	v0,2256
80105214:	12000392 	lbu	v1,18(s0)
80105218:	0c0002a6 	sh	v0,12(s0)
8010521c:	0e0000a6 	sh	zero,14(s0)
80105220:	100000a6 	sh	zero,16(s0)
80105224:	160000a6 	sh	zero,22(s0)
80105228:	01006334 	ori	v1,v1,0x1
8010522c:	120003a2 	sb	v1,18(s0)
80105230:	04002392 	lbu	v1,4(s1)
80105234:	01000224 	li	v0,1
80105238:	05006214 	bne	v1,v0,0x80105250
8010523c:	00000000 	nop
80105240:	db33040c 	jal	0x8010cf6c
80105244:	21202002 	move	a0,s1
80105248:	94380408 	j	0x8010e250
8010524c:	0c80023c 	lui	v0,0x800c
80105250:	0e000296 	lhu	v0,14(s0)
80105254:	10000396 	lhu	v1,16(s0)
80105258:	00140200 	sll	v0,v0,0x10
8010525c:	43140200 	sra	v0,v0,0x11
80105260:	001c0300 	sll	v1,v1,0x10
80105264:	0e0002a6 	sh	v0,14(s0)
80105268:	0c000286 	lh	v0,12(s0)
8010526c:	431c0300 	sra	v1,v1,0x11
80105270:	100003a6 	sh	v1,16(s0)
80105274:	c0030324 	li	v1,960
80105278:	23186200 	subu	v1,v1,v0
8010527c:	0c000296 	lhu	v0,12(s0)
80105280:	83190300 	sra	v1,v1,0x6
80105284:	21104300 	addu	v0,v0,v1
80105288:	16000386 	lh	v1,22(s0)
8010528c:	0c0002a6 	sh	v0,12(s0)
80105290:	16000296 	lhu	v0,22(s0)
80105294:	03006104 	bgez	v1,0x801052a4
80105298:	00000000 	nop
8010529c:	92380408 	j	0x8010e248
801052a0:	01004224 	addiu	v0,v0,1
801052a4:	02006018 	blez	v1,0x801052b0
801052a8:	ffff4224 	addiu	v0,v0,-1
801052ac:	160002a6 	sh	v0,22(s0)
801052b0:	0c80023c 	lui	v0,0x800c
801052b4:	70f84424 	addiu	a0,v0,-1936
801052b8:	98008390 	lbu	v1,152(a0)
801052bc:	ff000224 	li	v0,255
801052c0:	12006214 	bne	v1,v0,0x8010530c
801052c4:	00000000 	nop
801052c8:	97008290 	lbu	v0,151(a0)
801052cc:	00000000 	nop
801052d0:	0e004314 	bne	v0,v1,0x8010530c
801052d4:	00000000 	nop
801052d8:	6236040c 	jal	0x8010d988
801052dc:	21202002 	move	a0,s1
801052e0:	60002326 	addiu	v1,s1,96
801052e4:	0c006484 	lh	a0,12(v1)
801052e8:	00000000 	nop
801052ec:	d0088228 	slti	v0,a0,2256
801052f0:	12004014 	bnez	v0,0x8010533c
801052f4:	d0080224 	li	v0,2256
801052f8:	11358228 	slti	v0,a0,13585
801052fc:	11004014 	bnez	v0,0x80105344
80105300:	0c80023c 	lui	v0,0x800c
80105304:	b6380408 	j	0x8010e2d8
80105308:	10350224 	li	v0,13584
8010530c:	7d34040c 	jal	0x8010d1f4
80105310:	21202002 	move	a0,s1
80105314:	60002326 	addiu	v1,s1,96
80105318:	0c006484 	lh	a0,12(v1)
8010531c:	00000000 	nop
80105320:	d0088228 	slti	v0,a0,2256
80105324:	05004014 	bnez	v0,0x8010533c
80105328:	d0080224 	li	v0,2256
8010532c:	811a8228 	slti	v0,a0,6785
80105330:	04004014 	bnez	v0,0x80105344
80105334:	0c80023c 	lui	v0,0x800c
80105338:	801a0224 	li	v0,6784
8010533c:	0c0062a4 	sh	v0,12(v1)
80105340:	0c80023c 	lui	v0,0x800c
80105344:	08f85224 	addiu	s2,v0,-2040
80105348:	05004282 	lb	v0,5(s2)
8010534c:	00000000 	nop
80105350:	21004014 	bnez	v0,0x801053d8
80105354:	60002326 	addiu	v1,s1,96
80105358:	0e006294 	lhu	v0,14(v1)
8010535c:	00000000 	nop
80105360:	aa024224 	addiu	v0,v0,682
80105364:	ffff4230 	andi	v0,v0,0xffff
80105368:	5505422c 	sltiu	v0,v0,1365
8010536c:	03004014 	bnez	v0,0x8010537c
80105370:	01000224 	li	v0,1
80105374:	dc380408 	j	0x8010e370
80105378:	070020a2 	sb	zero,7(s1)
8010537c:	12006290 	lbu	v0,18(v1)
80105380:	00000000 	nop
80105384:	01004230 	andi	v0,v0,0x1
80105388:	13004010 	beqz	v0,0x801053d8
8010538c:	00000000 	nop
80105390:	6000248e 	lw	a0,96(s1)
80105394:	00000000 	nop
80105398:	06008284 	lh	v0,6(a0)
8010539c:	00000000 	nop
801053a0:	00804230 	andi	v0,v0,0x8000
801053a4:	0c004010 	beqz	v0,0x801053d8
801053a8:	3000a627 	addiu	a2,sp,48
801053ac:	0a006584 	lh	a1,10(v1)
801053b0:	1000a727 	addiu	a3,sp,16
801053b4:	1830040c 	jal	0x8010c060
801053b8:	18fca524 	addiu	a1,a1,-1000
801053bc:	06004284 	lh	v0,6(v0)
801053c0:	00000000 	nop
801053c4:	00804230 	andi	v0,v0,0x8000
801053c8:	03004010 	beqz	v0,0x801053d8
801053cc:	01000224 	li	v0,1
801053d0:	070022a2 	sb	v0,7(s1)
801053d4:	050042a2 	sb	v0,5(s2)
801053d8:	ac002296 	lhu	v0,172(s1)
801053dc:	b0002396 	lhu	v1,176(s1)
801053e0:	b4002496 	lhu	a0,180(s1)
801053e4:	2e0022a6 	sh	v0,46(s1)
801053e8:	320023a6 	sh	v1,50(s1)
801053ec:	360024a6 	sh	a0,54(s1)
801053f0:	0c000396 	lhu	v1,12(s0)
801053f4:	c400248e 	lw	a0,196(s1)
801053f8:	001c0300 	sll	v1,v1,0x10
801053fc:	0c008294 	lhu	v0,12(a0)
80105400:	831c0300 	sra	v1,v1,0x12
80105404:	21104300 	addu	v0,v0,v1
80105408:	0c0082a4 	sh	v0,12(a0)
8010540c:	c800248e 	lw	a0,200(s1)
80105410:	00000000 	nop
80105414:	0c008294 	lhu	v0,12(a0)
80105418:	00000000 	nop
8010541c:	21104300 	addu	v0,v0,v1
80105420:	0c0082a4 	sh	v0,12(a0)
80105424:	cc00248e 	lw	a0,204(s1)
80105428:	00000000 	nop
8010542c:	0c008294 	lhu	v0,12(a0)
80105430:	00000000 	nop
80105434:	21104300 	addu	v0,v0,v1
80105438:	0c0082a4 	sh	v0,12(a0)
8010543c:	d000248e 	lw	a0,208(s1)
80105440:	00000000 	nop
80105444:	0c008294 	lhu	v0,12(a0)
80105448:	00000000 	nop
8010544c:	21104300 	addu	v0,v0,v1
80105450:	0c0082a4 	sh	v0,12(a0)
80105454:	04002392 	lbu	v1,4(s1)
80105458:	01000224 	li	v0,1
8010545c:	04006214 	bne	v1,v0,0x80105470
80105460:	00000000 	nop
80105464:	010023a2 	sb	v1,1(s1)
80105468:	afdf010c 	jal	0x80077ebc
8010546c:	21202002 	move	a0,s1
80105470:	c044010c 	jal	0x80051300
80105474:	21202002 	move	a0,s1
80105478:	5232040c 	jal	0x8010c948
8010547c:	21202002 	move	a0,s1
80105480:	4400bf8f 	lw	ra,68(sp)
80105484:	4000b28f 	lw	s2,64(sp)
80105488:	3c00b18f 	lw	s1,60(sp)
8010548c:	3800b08f 	lw	s0,56(sp)
80105490:	0800e003 	jr	ra
80105494:	4800bd27 	addiu	sp,sp,72
80105498:	e0ffbd27 	addiu	sp,sp,-32
8010549c:	1000b0af 	sw	s0,16(sp)
801054a0:	21808000 	move	s0,a0
801054a4:	1800bfaf 	sw	ra,24(sp)
801054a8:	1400b1af 	sw	s1,20(sp)
801054ac:	06000392 	lbu	v1,6(s0)
801054b0:	01000524 	li	a1,1
801054b4:	12006510 	beq	v1,a1,0x80105500
801054b8:	02006228 	slti	v0,v1,2
801054bc:	05004010 	beqz	v0,0x801054d4
801054c0:	02001124 	li	s1,2
801054c4:	09006010 	beqz	v1,0x801054ec
801054c8:	17000424 	li	a0,23
801054cc:	5f390408 	j	0x8010e57c
801054d0:	00000000 	nop
801054d4:	28007110 	beq	v1,s1,0x80105578
801054d8:	03000224 	li	v0,3
801054dc:	38006210 	beq	v1,v0,0x801055c0
801054e0:	00000000 	nop
801054e4:	5f390408 	j	0x8010e57c
801054e8:	00000000 	nop
801054ec:	060005a2 	sb	a1,6(s0)
801054f0:	0ef8010c 	jal	0x8007e038
801054f4:	03000524 	li	a1,3
801054f8:	1280033c 	lui	v1,0x8012
801054fc:	60bb62ac 	sw	v0,-17568(v1)
80105500:	5838040c 	jal	0x8010e160
80105504:	21200002 	move	a0,s0
80105508:	801f053c 	lui	a1,0x1f80
8010550c:	f8ff0324 	li	v1,-8
80105510:	0c02a28c 	lw	v0,524(a1)
80105514:	36000486 	lh	a0,54(s0)
80105518:	24184300 	and	v1,v0,v1
8010551c:	46fa8228 	slti	v0,a0,-1466
80105520:	06004014 	bnez	v0,0x8010553c
80105524:	0c02a3ac 	sw	v1,524(a1)
80105528:	1280023c 	lui	v0,0x8012
8010552c:	60bb438c 	lw	v1,-17568(v0)
80105530:	02000224 	li	v0,2
80105534:	4f390408 	j	0x8010e53c
80105538:	040062a0 	sb	v0,4(v1)
8010553c:	d7e78228 	slti	v0,a0,-6185
80105540:	04004014 	bnez	v0,0x80105554
80105544:	a0d68228 	slti	v0,a0,-10592
80105548:	03006234 	ori	v0,v1,0x3
8010554c:	5f390408 	j	0x8010e57c
80105550:	0c02a2ac 	sw	v0,524(a1)
80105554:	04004014 	bnez	v0,0x80105568
80105558:	38c68228 	slti	v0,a0,-14792
8010555c:	02006234 	ori	v0,v1,0x2
80105560:	5f390408 	j	0x8010e57c
80105564:	0c02a2ac 	sw	v0,524(a1)
80105568:	1d004014 	bnez	v0,0x801055e0
8010556c:	01006234 	ori	v0,v1,0x1
80105570:	5f390408 	j	0x8010e57c
80105574:	0c02a2ac 	sw	v0,524(a1)
80105578:	5838040c 	jal	0x8010e160
8010557c:	21200002 	move	a0,s0
80105580:	801f053c 	lui	a1,0x1f80
80105584:	f8ff0424 	li	a0,-8
80105588:	0c02a38c 	lw	v1,524(a1)
8010558c:	36000286 	lh	v0,54(s0)
80105590:	24186400 	and	v1,v1,a0
80105594:	720a4228 	slti	v0,v0,2674
80105598:	06004014 	bnez	v0,0x801055b4
8010559c:	0c02a3ac 	sw	v1,524(a1)
801055a0:	06000292 	lbu	v0,6(s0)
801055a4:	00000000 	nop
801055a8:	01004224 	addiu	v0,v0,1
801055ac:	5f390408 	j	0x8010e57c
801055b0:	060002a2 	sb	v0,6(s0)
801055b4:	04006234 	ori	v0,v1,0x4
801055b8:	5f390408 	j	0x8010e57c
801055bc:	0c02a2ac 	sw	v0,524(a1)
801055c0:	5838040c 	jal	0x8010e160
801055c4:	21200002 	move	a0,s0
801055c8:	0c80023c 	lui	v0,0x800c
801055cc:	0df84280 	lb	v0,-2035(v0)
801055d0:	00000000 	nop
801055d4:	02004010 	beqz	v0,0x801055e0
801055d8:	00000000 	nop
801055dc:	040011a2 	sb	s1,4(s0)
801055e0:	1800bf8f 	lw	ra,24(sp)
801055e4:	1400b18f 	lw	s1,20(sp)
801055e8:	1000b08f 	lw	s0,16(sp)
801055ec:	0800e003 	jr	ra
801055f0:	2000bd27 	addiu	sp,sp,32
801055f4:	e0ffbd27 	addiu	sp,sp,-32
801055f8:	1000b0af 	sw	s0,16(sp)
801055fc:	21808000 	move	s0,a0
80105600:	1800b2af 	sw	s2,24(sp)
80105604:	1c00bfaf 	sw	ra,28(sp)
80105608:	1400b1af 	sw	s1,20(sp)
8010560c:	04000392 	lbu	v1,4(s0)
80105610:	01001124 	li	s1,1
80105614:	59007110 	beq	v1,s1,0x8010577c
80105618:	60001226 	addiu	s2,s0,96
8010561c:	02006228 	slti	v0,v1,2
80105620:	05004010 	beqz	v0,0x80105638
80105624:	00000000 	nop
80105628:	0a006010 	beqz	v1,0x80105654
8010562c:	8c000424 	li	a0,140
80105630:	023a0408 	j	0x8010e808
80105634:	00000000 	nop
80105638:	02000224 	li	v0,2
8010563c:	8b006210 	beq	v1,v0,0x8010586c
80105640:	03000224 	li	v0,3
80105644:	87006210 	beq	v1,v0,0x80105864
80105648:	00000000 	nop
8010564c:	023a0408 	j	0x8010e808
80105650:	00000000 	nop
80105654:	21280000 	move	a1,zero
80105658:	64d1010c 	jal	0x80074590
8010565c:	14000624 	li	a2,20
80105660:	801f033c 	lui	v1,0x1f80
80105664:	0c02628c 	lw	v0,524(v1)
80105668:	21200002 	move	a0,s0
8010566c:	07004234 	ori	v0,v0,0x7
80105670:	7b2f040c 	jal	0x8010bdec
80105674:	0c0262ac 	sw	v0,524(v1)
80105678:	03000292 	lbu	v0,3(s0)
8010567c:	040011a2 	sb	s1,4(s0)
80105680:	050000a2 	sb	zero,5(s0)
80105684:	05004010 	beqz	v0,0x8010569c
80105688:	060000a2 	sb	zero,6(s0)
8010568c:	29005110 	beq	v0,s1,0x80105734
80105690:	0e80023c 	lui	v0,0x800e
80105694:	c6390408 	j	0x8010e718
80105698:	907e50ac 	sw	s0,32400(v0)
8010569c:	0e004286 	lh	v0,14(s2)
801056a0:	00000000 	nop
801056a4:	0d004104 	bgez	v0,0x801056dc
801056a8:	00000000 	nop
801056ac:	9c000386 	lh	v1,156(s0)
801056b0:	00000000 	nop
801056b4:	00110300 	sll	v0,v1,0x4
801056b8:	23104300 	subu	v0,v0,v1
801056bc:	a2000386 	lh	v1,162(s0)
801056c0:	c3120200 	sra	v0,v0,0xb
801056c4:	4e0002a6 	sh	v0,78(s0)
801056c8:	00110300 	sll	v0,v1,0x4
801056cc:	23104300 	subu	v0,v0,v1
801056d0:	a8000386 	lh	v1,168(s0)
801056d4:	bf390408 	j	0x8010e6fc
801056d8:	c3120200 	sra	v0,v0,0xb
801056dc:	9c000386 	lh	v1,156(s0)
801056e0:	00000000 	nop
801056e4:	00110300 	sll	v0,v1,0x4
801056e8:	23104300 	subu	v0,v0,v1
801056ec:	40100200 	sll	v0,v0,0x1
801056f0:	23100200 	negu	v0,v0
801056f4:	a2000386 	lh	v1,162(s0)
801056f8:	03130200 	sra	v0,v0,0xc
801056fc:	4e0002a6 	sh	v0,78(s0)
80105700:	00110300 	sll	v0,v1,0x4
80105704:	23104300 	subu	v0,v0,v1
80105708:	40100200 	sll	v0,v0,0x1
8010570c:	23100200 	negu	v0,v0
80105710:	a8000386 	lh	v1,168(s0)
80105714:	03130200 	sra	v0,v0,0xc
80105718:	500002a6 	sh	v0,80(s0)
8010571c:	00110300 	sll	v0,v1,0x4
80105720:	23104300 	subu	v0,v0,v1
80105724:	40100200 	sll	v0,v0,0x1
80105728:	23100200 	negu	v0,v0
8010572c:	c3390408 	j	0x8010e70c
80105730:	03130200 	sra	v0,v0,0xc
80105734:	9a000386 	lh	v1,154(s0)
80105738:	00000000 	nop
8010573c:	00110300 	sll	v0,v1,0x4
80105740:	23104300 	subu	v0,v0,v1
80105744:	a0000386 	lh	v1,160(s0)
80105748:	c3120200 	sra	v0,v0,0xb
8010574c:	4e0002a6 	sh	v0,78(s0)
80105750:	00110300 	sll	v0,v1,0x4
80105754:	23104300 	subu	v0,v0,v1
80105758:	a6000386 	lh	v1,166(s0)
8010575c:	c3120200 	sra	v0,v0,0xb
80105760:	500002a6 	sh	v0,80(s0)
80105764:	00110300 	sll	v0,v1,0x4
80105768:	23104300 	subu	v0,v0,v1
8010576c:	c3120200 	sra	v0,v0,0xb
80105770:	520002a6 	sh	v0,82(s0)
80105774:	0e80023c 	lui	v0,0x800e
80105778:	907e50ac 	sw	s0,32400(v0)
8010577c:	05000392 	lbu	v1,5(s0)
80105780:	00000000 	nop
80105784:	05006010 	beqz	v1,0x8010579c
80105788:	01000224 	li	v0,1
8010578c:	04006210 	beq	v1,v0,0x801057a0
80105790:	801f023c 	lui	v0,0x1f80
80105794:	f6390408 	j	0x8010e7d8
80105798:	00000000 	nop
8010579c:	050002a2 	sb	v0,5(s0)
801057a0:	4e000396 	lhu	v1,78(s0)
801057a4:	50000596 	lhu	a1,80(s0)
801057a8:	52000696 	lhu	a2,82(s0)
801057ac:	00140300 	sll	v0,v1,0x10
801057b0:	43150200 	sra	v0,v0,0x15
801057b4:	21186200 	addu	v1,v1,v0
801057b8:	00140500 	sll	v0,a1,0x10
801057bc:	43150200 	sra	v0,v0,0x15
801057c0:	2128a200 	addu	a1,a1,v0
801057c4:	00140600 	sll	v0,a2,0x10
801057c8:	43150200 	sra	v0,v0,0x15
801057cc:	4e0003a6 	sh	v1,78(s0)
801057d0:	2e000396 	lhu	v1,46(s0)
801057d4:	2130c200 	addu	a2,a2,v0
801057d8:	500005a6 	sh	a1,80(s0)
801057dc:	4e000596 	lhu	a1,78(s0)
801057e0:	32000296 	lhu	v0,50(s0)
801057e4:	21200002 	move	a0,s0
801057e8:	520006a6 	sh	a2,82(s0)
801057ec:	21186500 	addu	v1,v1,a1
801057f0:	2e0003a6 	sh	v1,46(s0)
801057f4:	36000396 	lhu	v1,54(s0)
801057f8:	50000596 	lhu	a1,80(s0)
801057fc:	21186600 	addu	v1,v1,a2
80105800:	360003a6 	sh	v1,54(s0)
80105804:	2e000386 	lh	v1,46(s0)
80105808:	21104500 	addu	v0,v0,a1
8010580c:	320002a6 	sh	v0,50(s0)
80105810:	32000586 	lh	a1,50(s0)
80105814:	36000686 	lh	a2,54(s0)
80105818:	01000224 	li	v0,1
8010581c:	010002a2 	sb	v0,1(s0)
80105820:	ac0003ae 	sw	v1,172(s0)
80105824:	b00005ae 	sw	a1,176(s0)
80105828:	afdf010c 	jal	0x80077ebc
8010582c:	b40006ae 	sw	a2,180(s0)
80105830:	c044010c 	jal	0x80051300
80105834:	21200002 	move	a0,s0
80105838:	801f023c 	lui	v0,0x1f80
8010583c:	37014390 	lbu	v1,311(v0)
80105840:	02000224 	li	v0,2
80105844:	09006214 	bne	v1,v0,0x8010586c
80105848:	0c80023c 	lui	v0,0x800c
8010584c:	0df84280 	lb	v0,-2035(v0)
80105850:	00000000 	nop
80105854:	05004314 	bne	v0,v1,0x8010586c
80105858:	03000224 	li	v0,3
8010585c:	023a0408 	j	0x8010e808
80105860:	040002a2 	sb	v0,4(s0)
80105864:	89e9010c 	jal	0x8007a624
80105868:	21200002 	move	a0,s0
8010586c:	1c00bf8f 	lw	ra,28(sp)
80105870:	1800b28f 	lw	s2,24(sp)
80105874:	1400b18f 	lw	s1,20(sp)
80105878:	1000b08f 	lw	s0,16(sp)
8010587c:	0800e003 	jr	ra
80105880:	2000bd27 	addiu	sp,sp,32
80105884:	6000838c 	lw	v1,96(a0)
80105888:	1280023c 	lui	v0,0x8012
8010588c:	48b74224 	addiu	v0,v0,-18616
80105890:	0800e003 	jr	ra
80105894:	2b104300 	sltu	v0,v0,v1
80105898:	b8ffbd27 	addiu	sp,sp,-72
8010589c:	3800b0af 	sw	s0,56(sp)
801058a0:	21808000 	move	s0,a0
801058a4:	0c80023c 	lui	v0,0x800c
801058a8:	3c00b1af 	sw	s1,60(sp)
801058ac:	08f85124 	addiu	s1,v0,-2040
801058b0:	4000bfaf 	sw	ra,64(sp)
801058b4:	05002282 	lb	v0,5(s1)
801058b8:	00000000 	nop
801058bc:	21004014 	bnez	v0,0x80105944
801058c0:	60000326 	addiu	v1,s0,96
801058c4:	0e006294 	lhu	v0,14(v1)
801058c8:	00000000 	nop
801058cc:	aa024224 	addiu	v0,v0,682
801058d0:	ffff4230 	andi	v0,v0,0xffff
801058d4:	5505422c 	sltiu	v0,v0,1365
801058d8:	03004014 	bnez	v0,0x801058e8
801058dc:	01000224 	li	v0,1
801058e0:	373a0408 	j	0x8010e8dc
801058e4:	070000a2 	sb	zero,7(s0)
801058e8:	12006290 	lbu	v0,18(v1)
801058ec:	00000000 	nop
801058f0:	01004230 	andi	v0,v0,0x1
801058f4:	13004010 	beqz	v0,0x80105944
801058f8:	00000000 	nop
801058fc:	6000048e 	lw	a0,96(s0)
80105900:	00000000 	nop
80105904:	06008284 	lh	v0,6(a0)
80105908:	00000000 	nop
8010590c:	00804230 	andi	v0,v0,0x8000
80105910:	0c004010 	beqz	v0,0x80105944
80105914:	3000a627 	addiu	a2,sp,48
80105918:	0a006584 	lh	a1,10(v1)
8010591c:	1000a727 	addiu	a3,sp,16
80105920:	1830040c 	jal	0x8010c060
80105924:	18fca524 	addiu	a1,a1,-1000
80105928:	06004284 	lh	v0,6(v0)
8010592c:	00000000 	nop
80105930:	00804230 	andi	v0,v0,0x8000
80105934:	03004010 	beqz	v0,0x80105944
80105938:	01000224 	li	v0,1
8010593c:	070002a2 	sb	v0,7(s0)
80105940:	050022a2 	sb	v0,5(s1)
80105944:	4000bf8f 	lw	ra,64(sp)
80105948:	3c00b18f 	lw	s1,60(sp)
8010594c:	3800b08f 	lw	s0,56(sp)
80105950:	0800e003 	jr	ra
80105954:	4800bd27 	addiu	sp,sp,72
80105958:	60008424 	addiu	a0,a0,96
8010595c:	0c008384 	lh	v1,12(a0)
80105960:	00000000 	nop
80105964:	d0086228 	slti	v0,v1,2256
80105968:	04004010 	beqz	v0,0x8010597c
8010596c:	811a6228 	slti	v0,v1,6785
80105970:	d0080224 	li	v0,2256
80105974:	0800e003 	jr	ra
80105978:	0c0082a4 	sh	v0,12(a0)
8010597c:	02004014 	bnez	v0,0x80105988
80105980:	801a0224 	li	v0,6784
80105984:	0c0082a4 	sh	v0,12(a0)
80105988:	0800e003 	jr	ra
8010598c:	00000000 	nop
80105990:	60008424 	addiu	a0,a0,96
80105994:	0c008384 	lh	v1,12(a0)
80105998:	00000000 	nop
8010599c:	d0086228 	slti	v0,v1,2256
801059a0:	04004010 	beqz	v0,0x801059b4
801059a4:	11356228 	slti	v0,v1,13585
801059a8:	d0080224 	li	v0,2256
801059ac:	0800e003 	jr	ra
801059b0:	0c0082a4 	sh	v0,12(a0)
801059b4:	02004014 	bnez	v0,0x801059c0
801059b8:	10350224 	li	v0,13584
801059bc:	0c0082a4 	sh	v0,12(a0)
801059c0:	0800e003 	jr	ra
801059c4:	00000000 	nop
801059c8:	c0ffbd27 	addiu	sp,sp,-64
801059cc:	3800b4af 	sw	s4,56(sp)
801059d0:	21a08000 	move	s4,a0
801059d4:	3000b2af 	sw	s2,48(sp)
801059d8:	0a80123c 	lui	s2,0x800a
801059dc:	803e0224 	li	v0,16000
801059e0:	2800b0af 	sw	s0,40(sp)
801059e4:	801f103c 	lui	s0,0x1f80
801059e8:	d0001026 	addiu	s0,s0,208
801059ec:	2c00b1af 	sw	s1,44(sp)
801059f0:	0a80113c 	lui	s1,0x800a
801059f4:	3c00bfaf 	sw	ra,60(sp)
801059f8:	3400b3af 	sw	s3,52(sp)
801059fc:	903f42ae 	sw	v0,16272(s2)
80105a00:	22000296 	lhu	v0,34(s0)
80105a04:	c7010324 	li	v1,455
80105a08:	943f23ae 	sw	v1,16276(s1)
80105a0c:	0a000386 	lh	v1,10(s0)
80105a10:	00140200 	sll	v0,v0,0x10
80105a14:	03140200 	sra	v0,v0,0x10
80105a18:	23100200 	negu	v0,v0
80105a1c:	39fe4224 	addiu	v0,v0,-455
80105a20:	ff0f5330 	andi	s3,v0,0xfff
80105a24:	02000286 	lh	v0,2(s0)
80105a28:	21206002 	move	a0,s3
80105a2c:	1400a3af 	sw	v1,20(sp)
80105a30:	a00f020c 	jal	0x80083e80
80105a34:	1000a2af 	sw	v0,16(sp)
80105a38:	903f438e 	lw	v1,16272(s2)
80105a3c:	00000000 	nop
80105a40:	18004300 	mult	v0,v1
80105a44:	21206002 	move	a0,s3
80105a48:	1000a28f 	lw	v0,16(sp)
80105a4c:	12180000 	mflo	v1
80105a50:	031b0300 	sra	v1,v1,0xc
80105a54:	21104300 	addu	v0,v0,v1
80105a58:	d40f020c 	jal	0x80083f50
80105a5c:	1800a2af 	sw	v0,24(sp)
80105a60:	903f438e 	lw	v1,16272(s2)
80105a64:	00000000 	nop
80105a68:	18004300 	mult	v0,v1
80105a6c:	22000386 	lh	v1,34(s0)
80105a70:	943f228e 	lw	v0,16276(s1)
80105a74:	00000000 	nop
80105a78:	23104300 	subu	v0,v0,v1
80105a7c:	ff0f5330 	andi	s3,v0,0xfff
80105a80:	21206002 	move	a0,s3
80105a84:	1400a28f 	lw	v0,20(sp)
80105a88:	12400000 	mflo	t0
80105a8c:	031b0800 	sra	v1,t0,0xc
80105a90:	21104300 	addu	v0,v0,v1
80105a94:	a00f020c 	jal	0x80083e80
80105a98:	1c00a2af 	sw	v0,28(sp)
80105a9c:	903f438e 	lw	v1,16272(s2)
80105aa0:	00000000 	nop
80105aa4:	18004300 	mult	v0,v1
80105aa8:	21206002 	move	a0,s3
80105aac:	1000a28f 	lw	v0,16(sp)
80105ab0:	12180000 	mflo	v1
80105ab4:	031b0300 	sra	v1,v1,0xc
80105ab8:	21104300 	addu	v0,v0,v1
80105abc:	d40f020c 	jal	0x80083f50
80105ac0:	2000a2af 	sw	v0,32(sp)
80105ac4:	903f438e 	lw	v1,16272(s2)
80105ac8:	00000000 	nop
80105acc:	18004300 	mult	v0,v1
80105ad0:	20000486 	lh	a0,32(s0)
80105ad4:	1400a28f 	lw	v0,20(sp)
80105ad8:	12180000 	mflo	v1
80105adc:	031b0300 	sra	v1,v1,0xc
80105ae0:	21104300 	addu	v0,v0,v1
80105ae4:	a00f020c 	jal	0x80083e80
80105ae8:	2400a2af 	sw	v0,36(sp)
80105aec:	22000486 	lh	a0,34(s0)
80105af0:	02004104 	bgez	v0,0x80105afc
80105af4:	21884000 	move	s1,v0
80105af8:	23881100 	negu	s1,s1
80105afc:	a00f020c 	jal	0x80083e80
80105b00:	23200400 	negu	a0,a0
80105b04:	18005100 	mult	v0,s1
80105b08:	22000486 	lh	a0,34(s0)
80105b0c:	00000000 	nop
80105b10:	23200400 	negu	a0,a0
80105b14:	12180000 	mflo	v1
80105b18:	d40f020c 	jal	0x80083f50
80105b1c:	03830300 	sra	s0,v1,0xc
80105b20:	18005100 	mult	v0,s1
80105b24:	12400000 	mflo	t0
80105b28:	903f458e 	lw	a1,16272(s2)
80105b2c:	00000000 	nop
80105b30:	18000502 	mult	s0,a1
80105b34:	00800634 	li	a2,0x8000
80105b38:	1000a48f 	lw	a0,16(sp)
80105b3c:	033b0800 	sra	a3,t0,0xc
80105b40:	12180000 	mflo	v1
80105b44:	80100300 	sll	v0,v1,0x2
80105b48:	21104300 	addu	v0,v0,v1
80105b4c:	03840200 	sra	s0,v0,0x10
80105b50:	23209000 	subu	a0,a0,s0
80105b54:	21108600 	addu	v0,a0,a2
80105b58:	21404000 	move	t0,v0
80105b5c:	1800a28f 	lw	v0,24(sp)
80105b60:	2000a38f 	lw	v1,32(sp)
80105b64:	1800e500 	mult	a3,a1
80105b68:	1000a4af 	sw	a0,16(sp)
80105b6c:	1c00a48f 	lw	a0,28(sp)
80105b70:	1000a8af 	sw	t0,16(sp)
80105b74:	23105000 	subu	v0,v0,s0
80105b78:	23187000 	subu	v1,v1,s0
80105b7c:	21506600 	addu	t2,v1,a2
80105b80:	2000a3af 	sw	v1,32(sp)
80105b84:	2400a38f 	lw	v1,36(sp)
80105b88:	21484600 	addu	t1,v0,a2
80105b8c:	1800a2af 	sw	v0,24(sp)
80105b90:	1800a9af 	sw	t1,24(sp)
80105b94:	2000aaaf 	sw	t2,32(sp)
80105b98:	12280000 	mflo	a1
80105b9c:	80100500 	sll	v0,a1,0x2
80105ba0:	21104500 	addu	v0,v0,a1
80105ba4:	033c0200 	sra	a3,v0,0x10
80105ba8:	23208700 	subu	a0,a0,a3
80105bac:	1400a28f 	lw	v0,20(sp)
80105bb0:	23186700 	subu	v1,v1,a3
80105bb4:	1c00a4af 	sw	a0,28(sp)
80105bb8:	21208600 	addu	a0,a0,a2
80105bbc:	2400a3af 	sw	v1,36(sp)
80105bc0:	21186600 	addu	v1,v1,a2
80105bc4:	1c00a4af 	sw	a0,28(sp)
80105bc8:	2400a3af 	sw	v1,36(sp)
80105bcc:	23104700 	subu	v0,v0,a3
80105bd0:	21284600 	addu	a1,v0,a2
80105bd4:	1400a2af 	sw	v0,20(sp)
80105bd8:	02000105 	bgez	t0,0x80105be4
80105bdc:	1400a5af 	sw	a1,20(sp)
80105be0:	ff030825 	addiu	t0,t0,1023
80105be4:	83120800 	sra	v0,t0,0xa
80105be8:	1000a2af 	sw	v0,16(sp)
80105bec:	2110a000 	move	v0,a1
80105bf0:	02004104 	bgez	v0,0x80105bfc
80105bf4:	00000000 	nop
80105bf8:	ff034224 	addiu	v0,v0,1023
80105bfc:	83120200 	sra	v0,v0,0xa
80105c00:	1400a2af 	sw	v0,20(sp)
80105c04:	21102001 	move	v0,t1
80105c08:	02004104 	bgez	v0,0x80105c14
80105c0c:	00000000 	nop
80105c10:	ff034224 	addiu	v0,v0,1023
80105c14:	83120200 	sra	v0,v0,0xa
80105c18:	1800a2af 	sw	v0,24(sp)
80105c1c:	21108000 	move	v0,a0
80105c20:	02004104 	bgez	v0,0x80105c2c
80105c24:	00000000 	nop
80105c28:	ff034224 	addiu	v0,v0,1023
80105c2c:	83120200 	sra	v0,v0,0xa
80105c30:	1c00a2af 	sw	v0,28(sp)
80105c34:	21104001 	move	v0,t2
80105c38:	02004104 	bgez	v0,0x80105c44
80105c3c:	00000000 	nop
80105c40:	ff034224 	addiu	v0,v0,1023
80105c44:	83120200 	sra	v0,v0,0xa
80105c48:	2000a2af 	sw	v0,32(sp)
80105c4c:	21106000 	move	v0,v1
80105c50:	02004104 	bgez	v0,0x80105c5c
80105c54:	21208002 	move	a0,s4
80105c58:	ff034224 	addiu	v0,v0,1023
80105c5c:	83120200 	sra	v0,v0,0xa
80105c60:	1000a527 	addiu	a1,sp,16
80105c64:	1800a627 	addiu	a2,sp,24
80105c68:	2000a727 	addiu	a3,sp,32
80105c6c:	2400a2af 	sw	v0,36(sp)
80105c70:	0d3b040c 	jal	0x8010ec34
80105c74:	060080a0 	sb	zero,6(a0)
80105c78:	3c00bf8f 	lw	ra,60(sp)
80105c7c:	3800b48f 	lw	s4,56(sp)
80105c80:	3400b38f 	lw	s3,52(sp)
80105c84:	3000b28f 	lw	s2,48(sp)
80105c88:	2c00b18f 	lw	s1,44(sp)
80105c8c:	2800b08f 	lw	s0,40(sp)
80105c90:	0800e003 	jr	ra
80105c94:	4000bd27 	addiu	sp,sp,64
80105c98:	f8ffbd27 	addiu	sp,sp,-8
80105c9c:	0400b1af 	sw	s1,4(sp)
80105ca0:	0000b0af 	sw	s0,0(sp)
80105ca4:	0000a38c 	lw	v1,0(a1)
80105ca8:	0400a88c 	lw	t0,4(a1)
80105cac:	0000c98c 	lw	t1,0(a2)
80105cb0:	0400cc8c 	lw	t4,4(a2)
80105cb4:	0000ea8c 	lw	t2,0(a3)
80105cb8:	0400ed8c 	lw	t5,4(a3)
80105cbc:	03008815 	bne	t4,t0,0x80105ccc
80105cc0:	2a108801 	slt	v0,t4,t0
80105cc4:	40018d11 	beq	t4,t5,0x801061c8
80105cc8:	00000000 	nop
80105ccc:	06004010 	beqz	v0,0x80105ce8
80105cd0:	21106000 	move	v0,v1
80105cd4:	21182001 	move	v1,t1
80105cd8:	21484000 	move	t1,v0
80105cdc:	21100001 	move	v0,t0
80105ce0:	21408001 	move	t0,t4
80105ce4:	21604000 	move	t4,v0
80105ce8:	2a10a801 	slt	v0,t5,t0
80105cec:	06004010 	beqz	v0,0x80105d08
80105cf0:	21106000 	move	v0,v1
80105cf4:	21184001 	move	v1,t2
80105cf8:	21504000 	move	t2,v0
80105cfc:	21100001 	move	v0,t0
80105d00:	2140a001 	move	t0,t5
80105d04:	21684000 	move	t5,v0
80105d08:	2a10ac01 	slt	v0,t5,t4
80105d0c:	06004010 	beqz	v0,0x80105d28
80105d10:	21102001 	move	v0,t1
80105d14:	21484001 	move	t1,t2
80105d18:	21504000 	move	t2,v0
80105d1c:	21108001 	move	v0,t4
80105d20:	2160a001 	move	t4,t5
80105d24:	21684000 	move	t5,v0
80105d28:	23702301 	subu	t6,t1,v1
80105d2c:	23c04301 	subu	t8,t2,v1
80105d30:	23308801 	subu	a2,t4,t0
80105d34:	0a008815 	bne	t4,t0,0x80105d60
80105d38:	2338a801 	subu	a3,t5,t0
80105d3c:	2a106900 	slt	v0,v1,t1
80105d40:	03004010 	beqz	v0,0x80105d50
80105d44:	005c0300 	sll	t3,v1,0x10
80105d48:	3d3b0408 	j	0x8010ecf4
80105d4c:	002c0900 	sll	a1,t1,0x10
80105d50:	005c0900 	sll	t3,t1,0x10
80105d54:	002c0300 	sll	a1,v1,0x10
80105d58:	4d3b0408 	j	0x8010ed34
80105d5c:	21780000 	move	t7,zero
80105d60:	002c0300 	sll	a1,v1,0x10
80105d64:	2158a000 	move	t3,a1
80105d68:	00140e00 	sll	v0,t6,0x10
80105d6c:	1a004600 	div	zero,v0,a2
80105d70:	0200c014 	bnez	a2,0x80105d7c
80105d74:	00000000 	nop
80105d78:	0d000700 	break	0x7
80105d7c:	ffff0124 	li	at,-1
80105d80:	0400c114 	bne	a2,at,0x80105d94
80105d84:	0080013c 	lui	at,0x8000
80105d88:	02004114 	bne	v0,at,0x80105d94
80105d8c:	00000000 	nop
80105d90:	0d000600 	break	0x6
80105d94:	12780000 	mflo	t7
80105d98:	0100023c 	lui	v0,0x1
80105d9c:	03008d15 	bne	t4,t5,0x80105dac
80105da0:	2128a200 	addu	a1,a1,v0
80105da4:	603b0408 	j	0x8010ed80
80105da8:	21c80000 	move	t9,zero
80105dac:	23104901 	subu	v0,t2,t1
80105db0:	00140200 	sll	v0,v0,0x10
80105db4:	2318ac01 	subu	v1,t5,t4
80105db8:	1a004300 	div	zero,v0,v1
80105dbc:	02006014 	bnez	v1,0x80105dc8
80105dc0:	00000000 	nop
80105dc4:	0d000700 	break	0x7
80105dc8:	ffff0124 	li	at,-1
80105dcc:	04006114 	bne	v1,at,0x80105de0
80105dd0:	0080013c 	lui	at,0x8000
80105dd4:	02004114 	bne	v0,at,0x80105de0
80105dd8:	00000000 	nop
80105ddc:	0d000600 	break	0x6
80105de0:	12c80000 	mflo	t9
80105de4:	23100700 	negu	v0,a3
80105de8:	00000000 	nop
80105dec:	18004e00 	mult	v0,t6
80105df0:	12180000 	mflo	v1
	...
80105dfc:	18000603 	mult	t8,a2
80105e00:	12480000 	mflo	t1
80105e04:	00141800 	sll	v0,t8,0x10
80105e08:	21186900 	addu	v1,v1,t1
80105e0c:	1a004700 	div	zero,v0,a3
80105e10:	0200e014 	bnez	a3,0x80105e1c
80105e14:	00000000 	nop
80105e18:	0d000700 	break	0x7
80105e1c:	ffff0124 	li	at,-1
80105e20:	0400e114 	bne	a3,at,0x80105e34
80105e24:	0080013c 	lui	at,0x8000
80105e28:	02004114 	bne	v0,at,0x80105e34
80105e2c:	00000000 	nop
80105e30:	0d000600 	break	0x6
80105e34:	12700000 	mflo	t6
80105e38:	73006018 	blez	v1,0x80106008
80105e3c:	21480001 	move	t1,t0
80105e40:	2a102c01 	slt	v0,t1,t4
80105e44:	36004010 	beqz	v0,0x80105f20
80105e48:	0f80023c 	lui	v0,0x800f
80105e4c:	58cf5024 	addiu	s0,v0,-12456
80105e50:	ffff1824 	li	t8,-1
80105e54:	03540500 	sra	t2,a1,0x10
80105e58:	2c002005 	bltz	t1,0x80105f0c
80105e5c:	033c0b00 	sra	a3,t3,0x10
80105e60:	0a008684 	lh	a2,10(a0)
80105e64:	00000000 	nop
80105e68:	2a102601 	slt	v0,t1,a2
80105e6c:	27004010 	beqz	v0,0x80105f0c
80105e70:	00000000 	nop
80105e74:	08008384 	lh	v1,8(a0)
80105e78:	00000000 	nop
80105e7c:	2a104301 	slt	v0,t2,v1
80105e80:	02004014 	bnez	v0,0x80105e8c
80105e84:	2140e000 	move	t0,a3
80105e88:	ffff6a24 	addiu	t2,v1,-1
80105e8c:	03000105 	bgez	t0,0x80105e9c
80105e90:	18000601 	mult	t0,a2
80105e94:	21400000 	move	t0,zero
80105e98:	18000601 	mult	t0,a2
80105e9c:	2000078e 	lw	a3,32(s0)
80105ea0:	00000000 	nop
80105ea4:	0400e724 	addiu	a3,a3,4
80105ea8:	12880000 	mflo	s1
80105eac:	a53b0408 	j	0x8010ee94
80105eb0:	21102902 	addu	v0,s1,t1
80105eb4:	0000e284 	lh	v0,0(a3)
80105eb8:	00000000 	nop
80105ebc:	0c005810 	beq	v0,t8,0x80105ef0
80105ec0:	00000000 	nop
80105ec4:	06008390 	lbu	v1,6(a0)
80105ec8:	00000000 	nop
80105ecc:	ff006630 	andi	a2,v1,0xff
80105ed0:	fe00c22c 	sltiu	v0,a2,254
80105ed4:	06004010 	beqz	v0,0x80105ef0
80105ed8:	01006224 	addiu	v0,v1,1
80105edc:	060082a0 	sb	v0,6(a0)
80105ee0:	40100600 	sll	v0,a2,0x1
80105ee4:	0000e394 	lhu	v1,0(a3)
80105ee8:	21108200 	addu	v0,a0,v0
80105eec:	100043a4 	sh	v1,16(v0)
80105ef0:	0a008284 	lh	v0,10(a0)
80105ef4:	01000825 	addiu	t0,t0,1
80105ef8:	40100200 	sll	v0,v0,0x1
80105efc:	2138e200 	addu	a3,a3,v0
80105f00:	2a104801 	slt	v0,t2,t0
80105f04:	ebff4010 	beqz	v0,0x80105eb4
80105f08:	00000000 	nop
80105f0c:	21586f01 	addu	t3,t3,t7
80105f10:	01002925 	addiu	t1,t1,1
80105f14:	2a102c01 	slt	v0,t1,t4
80105f18:	ceff4014 	bnez	v0,0x80105e54
80105f1c:	2128ae00 	addu	a1,a1,t6
80105f20:	2a10a901 	slt	v0,t5,t1
80105f24:	a8004014 	bnez	v0,0x801061c8
80105f28:	0f80023c 	lui	v0,0x800f
80105f2c:	58cf4f24 	addiu	t7,v0,-12456
80105f30:	ffff0c24 	li	t4,-1
80105f34:	03540500 	sra	t2,a1,0x10
80105f38:	2c002005 	bltz	t1,0x80105fec
80105f3c:	033c0b00 	sra	a3,t3,0x10
80105f40:	0a008684 	lh	a2,10(a0)
80105f44:	00000000 	nop
80105f48:	2a102601 	slt	v0,t1,a2
80105f4c:	27004010 	beqz	v0,0x80105fec
80105f50:	00000000 	nop
80105f54:	08008384 	lh	v1,8(a0)
80105f58:	00000000 	nop
80105f5c:	2a104301 	slt	v0,t2,v1
80105f60:	02004014 	bnez	v0,0x80105f6c
80105f64:	2140e000 	move	t0,a3
80105f68:	ffff6a24 	addiu	t2,v1,-1
80105f6c:	03000105 	bgez	t0,0x80105f7c
80105f70:	18000601 	mult	t0,a2
80105f74:	21400000 	move	t0,zero
80105f78:	18000601 	mult	t0,a2
80105f7c:	2000e78d 	lw	a3,32(t7)
80105f80:	00000000 	nop
80105f84:	0400e724 	addiu	a3,a3,4
80105f88:	12880000 	mflo	s1
80105f8c:	dd3b0408 	j	0x8010ef74
80105f90:	21102902 	addu	v0,s1,t1
80105f94:	0000e284 	lh	v0,0(a3)
80105f98:	00000000 	nop
80105f9c:	0c004c10 	beq	v0,t4,0x80105fd0
80105fa0:	00000000 	nop
80105fa4:	06008390 	lbu	v1,6(a0)
80105fa8:	00000000 	nop
80105fac:	ff006630 	andi	a2,v1,0xff
80105fb0:	fe00c22c 	sltiu	v0,a2,254
80105fb4:	06004010 	beqz	v0,0x80105fd0
80105fb8:	01006224 	addiu	v0,v1,1
80105fbc:	060082a0 	sb	v0,6(a0)
80105fc0:	40100600 	sll	v0,a2,0x1
80105fc4:	0000e394 	lhu	v1,0(a3)
80105fc8:	21108200 	addu	v0,a0,v0
80105fcc:	100043a4 	sh	v1,16(v0)
80105fd0:	0a008284 	lh	v0,10(a0)
80105fd4:	01000825 	addiu	t0,t0,1
80105fd8:	40100200 	sll	v0,v0,0x1
80105fdc:	2138e200 	addu	a3,a3,v0
80105fe0:	2a104801 	slt	v0,t2,t0
80105fe4:	ebff4010 	beqz	v0,0x80105f94
80105fe8:	00000000 	nop
80105fec:	21587901 	addu	t3,t3,t9
80105ff0:	01002925 	addiu	t1,t1,1
80105ff4:	2a10a901 	slt	v0,t5,t1
80105ff8:	ceff4010 	beqz	v0,0x80105f34
80105ffc:	2128ae00 	addu	a1,a1,t6
80106000:	593c0408 	j	0x8010f164
80106004:	00000000 	nop
80106008:	2a102c01 	slt	v0,t1,t4
8010600c:	36004010 	beqz	v0,0x801060e8
80106010:	0f80023c 	lui	v0,0x800f
80106014:	58cf5024 	addiu	s0,v0,-12456
80106018:	ffff1824 	li	t8,-1
8010601c:	03540500 	sra	t2,a1,0x10
80106020:	2c002005 	bltz	t1,0x801060d4
80106024:	033c0b00 	sra	a3,t3,0x10
80106028:	0a008684 	lh	a2,10(a0)
8010602c:	00000000 	nop
80106030:	2a102601 	slt	v0,t1,a2
80106034:	27004010 	beqz	v0,0x801060d4
80106038:	00000000 	nop
8010603c:	08008384 	lh	v1,8(a0)
80106040:	00000000 	nop
80106044:	2a104301 	slt	v0,t2,v1
80106048:	02004014 	bnez	v0,0x80106054
8010604c:	2140e000 	move	t0,a3
80106050:	ffff6a24 	addiu	t2,v1,-1
80106054:	03000105 	bgez	t0,0x80106064
80106058:	18000601 	mult	t0,a2
8010605c:	21400000 	move	t0,zero
80106060:	18000601 	mult	t0,a2
80106064:	2000078e 	lw	a3,32(s0)
80106068:	00000000 	nop
8010606c:	0400e724 	addiu	a3,a3,4
80106070:	12880000 	mflo	s1
80106074:	173c0408 	j	0x8010f05c
80106078:	21102902 	addu	v0,s1,t1
8010607c:	0000e284 	lh	v0,0(a3)
80106080:	00000000 	nop
80106084:	0c005810 	beq	v0,t8,0x801060b8
80106088:	00000000 	nop
8010608c:	06008390 	lbu	v1,6(a0)
80106090:	00000000 	nop
80106094:	ff006630 	andi	a2,v1,0xff
80106098:	fe00c22c 	sltiu	v0,a2,254
8010609c:	06004010 	beqz	v0,0x801060b8
801060a0:	01006224 	addiu	v0,v1,1
801060a4:	060082a0 	sb	v0,6(a0)
801060a8:	40100600 	sll	v0,a2,0x1
801060ac:	0000e394 	lhu	v1,0(a3)
801060b0:	21108200 	addu	v0,a0,v0
801060b4:	100043a4 	sh	v1,16(v0)
801060b8:	0a008284 	lh	v0,10(a0)
801060bc:	01000825 	addiu	t0,t0,1
801060c0:	40100200 	sll	v0,v0,0x1
801060c4:	2138e200 	addu	a3,a3,v0
801060c8:	2a104801 	slt	v0,t2,t0
801060cc:	ebff4010 	beqz	v0,0x8010607c
801060d0:	00000000 	nop
801060d4:	2128af00 	addu	a1,a1,t7
801060d8:	01002925 	addiu	t1,t1,1
801060dc:	2a102c01 	slt	v0,t1,t4
801060e0:	ceff4014 	bnez	v0,0x8010601c
801060e4:	21586e01 	addu	t3,t3,t6
801060e8:	2a10a901 	slt	v0,t5,t1
801060ec:	36004014 	bnez	v0,0x801061c8
801060f0:	0f80023c 	lui	v0,0x800f
801060f4:	58cf4f24 	addiu	t7,v0,-12456
801060f8:	ffff0c24 	li	t4,-1
801060fc:	03540500 	sra	t2,a1,0x10
80106100:	2c002005 	bltz	t1,0x801061b4
80106104:	033c0b00 	sra	a3,t3,0x10
80106108:	0a008684 	lh	a2,10(a0)
8010610c:	00000000 	nop
80106110:	2a102601 	slt	v0,t1,a2
80106114:	27004010 	beqz	v0,0x801061b4
80106118:	00000000 	nop
8010611c:	08008384 	lh	v1,8(a0)
80106120:	00000000 	nop
80106124:	2a104301 	slt	v0,t2,v1
80106128:	02004014 	bnez	v0,0x80106134
8010612c:	2140e000 	move	t0,a3
80106130:	ffff6a24 	addiu	t2,v1,-1
80106134:	03000105 	bgez	t0,0x80106144
80106138:	18000601 	mult	t0,a2
8010613c:	21400000 	move	t0,zero
80106140:	18000601 	mult	t0,a2
80106144:	2000e78d 	lw	a3,32(t7)
80106148:	00000000 	nop
8010614c:	0400e724 	addiu	a3,a3,4
80106150:	12880000 	mflo	s1
80106154:	4f3c0408 	j	0x8010f13c
80106158:	21102902 	addu	v0,s1,t1
8010615c:	0000e284 	lh	v0,0(a3)
80106160:	00000000 	nop
80106164:	0c004c10 	beq	v0,t4,0x80106198
80106168:	00000000 	nop
8010616c:	06008390 	lbu	v1,6(a0)
80106170:	00000000 	nop
80106174:	ff006630 	andi	a2,v1,0xff
80106178:	fe00c22c 	sltiu	v0,a2,254
8010617c:	06004010 	beqz	v0,0x80106198
80106180:	01006224 	addiu	v0,v1,1
80106184:	060082a0 	sb	v0,6(a0)
80106188:	40100600 	sll	v0,a2,0x1
8010618c:	0000e394 	lhu	v1,0(a3)
80106190:	21108200 	addu	v0,a0,v0
80106194:	100043a4 	sh	v1,16(v0)
80106198:	0a008284 	lh	v0,10(a0)
8010619c:	01000825 	addiu	t0,t0,1
801061a0:	40100200 	sll	v0,v0,0x1
801061a4:	2138e200 	addu	a3,a3,v0
801061a8:	2a104801 	slt	v0,t2,t0
801061ac:	ebff4010 	beqz	v0,0x8010615c
801061b0:	00000000 	nop
801061b4:	21586e01 	addu	t3,t3,t6
801061b8:	01002925 	addiu	t1,t1,1
801061bc:	2a10a901 	slt	v0,t5,t1
801061c0:	ceff4010 	beqz	v0,0x801060fc
801061c4:	2128b900 	addu	a1,a1,t9
801061c8:	0400b18f 	lw	s1,4(sp)
801061cc:	0000b08f 	lw	s0,0(sp)
801061d0:	0800e003 	jr	ra
801061d4:	0800bd27 	addiu	sp,sp,8
801061d8:	0f80023c 	lui	v0,0x800f
801061dc:	78cf428c 	lw	v0,-12424(v0)
801061e0:	00000000 	nop
801061e4:	0c0082ac 	sw	v0,12(a0)
801061e8:	00004394 	lhu	v1,0(v0)
801061ec:	00000000 	nop
801061f0:	080083a4 	sh	v1,8(a0)
801061f4:	02004294 	lhu	v0,2(v0)
801061f8:	070080a0 	sb	zero,7(a0)
801061fc:	0800e003 	jr	ra
80106200:	0a0082a4 	sh	v0,10(a0)
80106204:	48ffbd27 	addiu	sp,sp,-184
80106208:	9800b2af 	sw	s2,152(sp)
8010620c:	c800b28f 	lw	s2,200(sp)
80106210:	a400b5af 	sw	s5,164(sp)
80106214:	cc00b58f 	lw	s5,204(sp)
80106218:	a800b6af 	sw	s6,168(sp)
8010621c:	d000b68f 	lw	s6,208(sp)
80106220:	ac00b7af 	sw	s7,172(sp)
80106224:	21b88000 	move	s7,a0
80106228:	9000b0af 	sw	s0,144(sp)
8010622c:	2180a000 	move	s0,a1
80106230:	9400b1af 	sw	s1,148(sp)
80106234:	2188e000 	move	s1,a3
80106238:	b000bfaf 	sw	ra,176(sp)
8010623c:	a000b4af 	sw	s4,160(sp)
80106240:	0001c010 	beqz	a2,0x80106644
80106244:	9c00b3af 	sw	s3,156(sp)
80106248:	00002286 	lh	v0,0(s1)
8010624c:	00004386 	lh	v1,0(s2)
80106250:	00000000 	nop
80106254:	21104300 	addu	v0,v0,v1
80106258:	43100200 	sra	v0,v0,0x1
8010625c:	2800a2a7 	sh	v0,40(sp)
80106260:	02002286 	lh	v0,2(s1)
80106264:	02004386 	lh	v1,2(s2)
80106268:	00000000 	nop
8010626c:	21104300 	addu	v0,v0,v1
80106270:	43100200 	sra	v0,v0,0x1
80106274:	2a00a2a7 	sh	v0,42(sp)
80106278:	04002286 	lh	v0,4(s1)
8010627c:	04004386 	lh	v1,4(s2)
80106280:	00000000 	nop
80106284:	21104300 	addu	v0,v0,v1
80106288:	43100200 	sra	v0,v0,0x1
8010628c:	2c00a2a7 	sh	v0,44(sp)
80106290:	06002292 	lbu	v0,6(s1)
80106294:	06004392 	lbu	v1,6(s2)
80106298:	00000000 	nop
8010629c:	21104300 	addu	v0,v0,v1
801062a0:	43100200 	sra	v0,v0,0x1
801062a4:	2e00a2a3 	sb	v0,46(sp)
801062a8:	07002292 	lbu	v0,7(s1)
801062ac:	07004392 	lbu	v1,7(s2)
801062b0:	00000000 	nop
801062b4:	21104300 	addu	v0,v0,v1
801062b8:	43100200 	sra	v0,v0,0x1
801062bc:	2f00a2a3 	sb	v0,47(sp)
801062c0:	08002292 	lbu	v0,8(s1)
801062c4:	08004392 	lbu	v1,8(s2)
801062c8:	00000000 	nop
801062cc:	21104300 	addu	v0,v0,v1
801062d0:	43100200 	sra	v0,v0,0x1
801062d4:	3000a2a3 	sb	v0,48(sp)
801062d8:	09002292 	lbu	v0,9(s1)
801062dc:	09004392 	lbu	v1,9(s2)
801062e0:	00000000 	nop
801062e4:	21104300 	addu	v0,v0,v1
801062e8:	43100200 	sra	v0,v0,0x1
801062ec:	3100a2a3 	sb	v0,49(sp)
801062f0:	0a002292 	lbu	v0,10(s1)
801062f4:	0a004392 	lbu	v1,10(s2)
801062f8:	00000000 	nop
801062fc:	21104300 	addu	v0,v0,v1
80106300:	43100200 	sra	v0,v0,0x1
80106304:	3200a2a3 	sb	v0,50(sp)
80106308:	0000aa86 	lh	t2,0(s5)
8010630c:	0000c286 	lh	v0,0(s6)
80106310:	00000000 	nop
80106314:	21504201 	addu	t2,t2,v0
80106318:	43500a00 	sra	t2,t2,0x1
8010631c:	3800aaa7 	sh	t2,56(sp)
80106320:	0200a786 	lh	a3,2(s5)
80106324:	0200c286 	lh	v0,2(s6)
80106328:	00000000 	nop
8010632c:	2138e200 	addu	a3,a3,v0
80106330:	43380700 	sra	a3,a3,0x1
80106334:	3a00a7a7 	sh	a3,58(sp)
80106338:	0400a986 	lh	t1,4(s5)
8010633c:	0400c286 	lh	v0,4(s6)
80106340:	00000000 	nop
80106344:	21482201 	addu	t1,t1,v0
80106348:	43480900 	sra	t1,t1,0x1
8010634c:	3c00a9a7 	sh	t1,60(sp)
80106350:	0600a292 	lbu	v0,6(s5)
80106354:	0600c392 	lbu	v1,6(s6)
80106358:	00000000 	nop
8010635c:	21104300 	addu	v0,v0,v1
80106360:	43100200 	sra	v0,v0,0x1
80106364:	3e00a2a3 	sb	v0,62(sp)
80106368:	0700a292 	lbu	v0,7(s5)
8010636c:	0700c392 	lbu	v1,7(s6)
80106370:	00000000 	nop
80106374:	21104300 	addu	v0,v0,v1
80106378:	43100200 	sra	v0,v0,0x1
8010637c:	3f00a2a3 	sb	v0,63(sp)
80106380:	0800a292 	lbu	v0,8(s5)
80106384:	0800c392 	lbu	v1,8(s6)
80106388:	00000000 	nop
8010638c:	21104300 	addu	v0,v0,v1
80106390:	43100200 	sra	v0,v0,0x1
80106394:	4000a2a3 	sb	v0,64(sp)
80106398:	0900a292 	lbu	v0,9(s5)
8010639c:	0900c392 	lbu	v1,9(s6)
801063a0:	00000000 	nop
801063a4:	21104300 	addu	v0,v0,v1
801063a8:	43100200 	sra	v0,v0,0x1
801063ac:	4100a2a3 	sb	v0,65(sp)
801063b0:	0a00a292 	lbu	v0,10(s5)
801063b4:	0a00c392 	lbu	v1,10(s6)
801063b8:	00000000 	nop
801063bc:	21104300 	addu	v0,v0,v1
801063c0:	43100200 	sra	v0,v0,0x1
801063c4:	4200a2a3 	sb	v0,66(sp)
801063c8:	00002886 	lh	t0,0(s1)
801063cc:	0000a286 	lh	v0,0(s5)
801063d0:	00000000 	nop
801063d4:	21400201 	addu	t0,t0,v0
801063d8:	43400800 	sra	t0,t0,0x1
801063dc:	4800a8a7 	sh	t0,72(sp)
801063e0:	02002c86 	lh	t4,2(s1)
801063e4:	0200a286 	lh	v0,2(s5)
801063e8:	00000000 	nop
801063ec:	21608201 	addu	t4,t4,v0
801063f0:	43600c00 	sra	t4,t4,0x1
801063f4:	4a00aca7 	sh	t4,74(sp)
801063f8:	04002b86 	lh	t3,4(s1)
801063fc:	0400a286 	lh	v0,4(s5)
80106400:	00000000 	nop
80106404:	21586201 	addu	t3,t3,v0
80106408:	43580b00 	sra	t3,t3,0x1
8010640c:	4c00aba7 	sh	t3,76(sp)
80106410:	06002292 	lbu	v0,6(s1)
80106414:	0600a392 	lbu	v1,6(s5)
80106418:	00000000 	nop
8010641c:	21104300 	addu	v0,v0,v1
80106420:	43100200 	sra	v0,v0,0x1
80106424:	4e00a2a3 	sb	v0,78(sp)
80106428:	07002292 	lbu	v0,7(s1)
8010642c:	0700a392 	lbu	v1,7(s5)
80106430:	00000000 	nop
80106434:	21104300 	addu	v0,v0,v1
80106438:	43100200 	sra	v0,v0,0x1
8010643c:	4f00a2a3 	sb	v0,79(sp)
80106440:	08002292 	lbu	v0,8(s1)
80106444:	0800a392 	lbu	v1,8(s5)
80106448:	00000000 	nop
8010644c:	21104300 	addu	v0,v0,v1
80106450:	43100200 	sra	v0,v0,0x1
80106454:	5000a2a3 	sb	v0,80(sp)
80106458:	09002292 	lbu	v0,9(s1)
8010645c:	0900a392 	lbu	v1,9(s5)
80106460:	00000000 	nop
80106464:	21104300 	addu	v0,v0,v1
80106468:	43100200 	sra	v0,v0,0x1
8010646c:	5100a2a3 	sb	v0,81(sp)
80106470:	0a002292 	lbu	v0,10(s1)
80106474:	0a00a392 	lbu	v1,10(s5)
80106478:	ffffd424 	addiu	s4,a2,-1
8010647c:	21104300 	addu	v0,v0,v1
80106480:	43100200 	sra	v0,v0,0x1
80106484:	5200a2a3 	sb	v0,82(sp)
80106488:	00004286 	lh	v0,0(s2)
8010648c:	0000c386 	lh	v1,0(s6)
80106490:	21308002 	move	a2,s4
80106494:	21104300 	addu	v0,v0,v1
80106498:	43100200 	sra	v0,v0,0x1
8010649c:	5800a2a7 	sh	v0,88(sp)
801064a0:	02004286 	lh	v0,2(s2)
801064a4:	0200c386 	lh	v1,2(s6)
801064a8:	4800b327 	addiu	s3,sp,72
801064ac:	21104300 	addu	v0,v0,v1
801064b0:	43100200 	sra	v0,v0,0x1
801064b4:	5a00a2a7 	sh	v0,90(sp)
801064b8:	04004286 	lh	v0,4(s2)
801064bc:	0400c386 	lh	v1,4(s6)
801064c0:	6800b027 	addiu	s0,sp,104
801064c4:	21104300 	addu	v0,v0,v1
801064c8:	43100200 	sra	v0,v0,0x1
801064cc:	5c00a2a7 	sh	v0,92(sp)
801064d0:	06004292 	lbu	v0,6(s2)
801064d4:	0600c392 	lbu	v1,6(s6)
801064d8:	21504801 	addu	t2,t2,t0
801064dc:	21104300 	addu	v0,v0,v1
801064e0:	43100200 	sra	v0,v0,0x1
801064e4:	5e00a2a3 	sb	v0,94(sp)
801064e8:	07004292 	lbu	v0,7(s2)
801064ec:	0700c392 	lbu	v1,7(s6)
801064f0:	43500a00 	sra	t2,t2,0x1
801064f4:	21104300 	addu	v0,v0,v1
801064f8:	43100200 	sra	v0,v0,0x1
801064fc:	5f00a2a3 	sb	v0,95(sp)
80106500:	08004292 	lbu	v0,8(s2)
80106504:	0800c392 	lbu	v1,8(s6)
80106508:	2138ec00 	addu	a3,a3,t4
8010650c:	21104300 	addu	v0,v0,v1
80106510:	43100200 	sra	v0,v0,0x1
80106514:	6000a2a3 	sb	v0,96(sp)
80106518:	09004292 	lbu	v0,9(s2)
8010651c:	0900c392 	lbu	v1,9(s6)
80106520:	43380700 	sra	a3,a3,0x1
80106524:	21104300 	addu	v0,v0,v1
80106528:	43100200 	sra	v0,v0,0x1
8010652c:	6100a2a3 	sb	v0,97(sp)
80106530:	0a004892 	lbu	t0,10(s2)
80106534:	0a00cd92 	lbu	t5,10(s6)
80106538:	3e00a393 	lbu	v1,62(sp)
8010653c:	4e00a293 	lbu	v0,78(sp)
80106540:	21482b01 	addu	t1,t1,t3
80106544:	6a00a7a7 	sh	a3,106(sp)
80106548:	4f00a793 	lbu	a3,79(sp)
8010654c:	43480900 	sra	t1,t1,0x1
80106550:	6800aaa7 	sh	t2,104(sp)
80106554:	6c00a9a7 	sh	t1,108(sp)
80106558:	21186200 	addu	v1,v1,v0
8010655c:	43180300 	sra	v1,v1,0x1
80106560:	21400d01 	addu	t0,t0,t5
80106564:	3f00a293 	lbu	v0,63(sp)
80106568:	43400800 	sra	t0,t0,0x1
8010656c:	6e00a3a3 	sb	v1,110(sp)
80106570:	5000a393 	lbu	v1,80(sp)
80106574:	21104700 	addu	v0,v0,a3
80106578:	43100200 	sra	v0,v0,0x1
8010657c:	21382002 	move	a3,s1
80106580:	6f00a2a3 	sb	v0,111(sp)
80106584:	4000a293 	lbu	v0,64(sp)
80106588:	2800b127 	addiu	s1,sp,40
8010658c:	6200a8a3 	sb	t0,98(sp)
80106590:	21104300 	addu	v0,v0,v1
80106594:	43100200 	sra	v0,v0,0x1
80106598:	7000a2a3 	sb	v0,112(sp)
8010659c:	4100a393 	lbu	v1,65(sp)
801065a0:	5100a293 	lbu	v0,81(sp)
801065a4:	5200a893 	lbu	t0,82(sp)
801065a8:	21186200 	addu	v1,v1,v0
801065ac:	4200a293 	lbu	v0,66(sp)
801065b0:	43180300 	sra	v1,v1,0x1
801065b4:	7100a3a3 	sb	v1,113(sp)
801065b8:	21104800 	addu	v0,v0,t0
801065bc:	43100200 	sra	v0,v0,0x1
801065c0:	7200a2a3 	sb	v0,114(sp)
801065c4:	1000b1af 	sw	s1,16(sp)
801065c8:	1400b3af 	sw	s3,20(sp)
801065cc:	683c040c 	jal	0x8010f1a0
801065d0:	1800b0af 	sw	s0,24(sp)
801065d4:	2120e002 	move	a0,s7
801065d8:	21284000 	move	a1,v0
801065dc:	21308002 	move	a2,s4
801065e0:	21382002 	move	a3,s1
801065e4:	1000b2af 	sw	s2,16(sp)
801065e8:	5800b227 	addiu	s2,sp,88
801065ec:	1400b0af 	sw	s0,20(sp)
801065f0:	683c040c 	jal	0x8010f1a0
801065f4:	1800b2af 	sw	s2,24(sp)
801065f8:	2120e002 	move	a0,s7
801065fc:	21284000 	move	a1,v0
80106600:	21308002 	move	a2,s4
80106604:	21386002 	move	a3,s3
80106608:	3800b127 	addiu	s1,sp,56
8010660c:	1000b0af 	sw	s0,16(sp)
80106610:	1400b5af 	sw	s5,20(sp)
80106614:	683c040c 	jal	0x8010f1a0
80106618:	1800b1af 	sw	s1,24(sp)
8010661c:	2120e002 	move	a0,s7
80106620:	21284000 	move	a1,v0
80106624:	21308002 	move	a2,s4
80106628:	21380002 	move	a3,s0
8010662c:	1000b2af 	sw	s2,16(sp)
80106630:	1400b1af 	sw	s1,20(sp)
80106634:	683c040c 	jal	0x8010f1a0
80106638:	1800b6af 	sw	s6,24(sp)
8010663c:	4e3e0408 	j	0x8010f938
80106640:	21804000 	move	s0,v0
80106644:	21202002 	move	a0,s1
80106648:	21284002 	move	a1,s2
8010664c:	2130a002 	move	a2,s5
80106650:	2138c002 	move	a3,s6
80106654:	08000226 	addiu	v0,s0,8
80106658:	1000a2af 	sw	v0,16(sp)
8010665c:	14000226 	addiu	v0,s0,20
80106660:	1400a2af 	sw	v0,20(sp)
80106664:	20000226 	addiu	v0,s0,32
80106668:	1800a2af 	sw	v0,24(sp)
8010666c:	2c000226 	addiu	v0,s0,44
80106670:	1c00a2af 	sw	v0,28(sp)
80106674:	7800a227 	addiu	v0,sp,120
80106678:	1280083c 	lui	t0,0x8012
8010667c:	2000a2af 	sw	v0,32(sp)
80106680:	e4c0028d 	lw	v0,-16156(t0)
80106684:	7c00a327 	addiu	v1,sp,124
80106688:	2400a3af 	sw	v1,36(sp)
8010668c:	01004224 	addiu	v0,v0,1
80106690:	cc11020c 	jal	0x80084730
80106694:	e4c002ad 	sw	v0,-16156(t0)
80106698:	08000296 	lhu	v0,8(s0)
8010669c:	00000000 	nop
801066a0:	4001422c 	sltiu	v0,v0,320
801066a4:	10004014 	bnez	v0,0x801066e8
801066a8:	00000000 	nop
801066ac:	14000296 	lhu	v0,20(s0)
801066b0:	00000000 	nop
801066b4:	4001422c 	sltiu	v0,v0,320
801066b8:	0b004014 	bnez	v0,0x801066e8
801066bc:	00000000 	nop
801066c0:	20000296 	lhu	v0,32(s0)
801066c4:	00000000 	nop
801066c8:	4001422c 	sltiu	v0,v0,320
801066cc:	06004014 	bnez	v0,0x801066e8
801066d0:	00000000 	nop
801066d4:	2c000296 	lhu	v0,44(s0)
801066d8:	00000000 	nop
801066dc:	4001422c 	sltiu	v0,v0,320
801066e0:	af004010 	beqz	v0,0x801069a0
801066e4:	21100002 	move	v0,s0
801066e8:	0a000296 	lhu	v0,10(s0)
801066ec:	00000000 	nop
801066f0:	f000422c 	sltiu	v0,v0,240
801066f4:	10004014 	bnez	v0,0x80106738
801066f8:	8000a427 	addiu	a0,sp,128
801066fc:	16000296 	lhu	v0,22(s0)
80106700:	00000000 	nop
80106704:	f000422c 	sltiu	v0,v0,240
80106708:	0c004014 	bnez	v0,0x8010673c
8010670c:	8400a527 	addiu	a1,sp,132
80106710:	22000296 	lhu	v0,34(s0)
80106714:	00000000 	nop
80106718:	f000422c 	sltiu	v0,v0,240
8010671c:	08004014 	bnez	v0,0x80106740
80106720:	8800a627 	addiu	a2,sp,136
80106724:	2e000296 	lhu	v0,46(s0)
80106728:	00000000 	nop
8010672c:	f000422c 	sltiu	v0,v0,240
80106730:	9b004010 	beqz	v0,0x801069a0
80106734:	21100002 	move	v0,s0
80106738:	8400a527 	addiu	a1,sp,132
8010673c:	8800a627 	addiu	a2,sp,136
80106740:	ac11020c 	jal	0x800846b0
80106744:	8c00a727 	addiu	a3,sp,140
80106748:	8400a48f 	lw	a0,132(sp)
8010674c:	8000a38f 	lw	v1,128(sp)
80106750:	00000000 	nop
80106754:	2a108300 	slt	v0,a0,v1
80106758:	02004010 	beqz	v0,0x80106764
8010675c:	00000000 	nop
80106760:	21206000 	move	a0,v1
80106764:	8c00a38f 	lw	v1,140(sp)
80106768:	8800a58f 	lw	a1,136(sp)
8010676c:	00000000 	nop
80106770:	2a106500 	slt	v0,v1,a1
80106774:	03004010 	beqz	v0,0x80106784
80106778:	2a106400 	slt	v0,v1,a0
8010677c:	2118a000 	move	v1,a1
80106780:	2a106400 	slt	v0,v1,a0
80106784:	02004010 	beqz	v0,0x80106790
80106788:	00000000 	nop
8010678c:	21188000 	move	v1,a0
80106790:	83200300 	sra	a0,v1,0x2
80106794:	17ff8224 	addiu	v0,a0,-233
80106798:	83120200 	sra	v0,v0,0xa
8010679c:	07184400 	srav	v1,a0,v0
801067a0:	40120200 	sll	v0,v0,0x9
801067a4:	21206200 	addu	a0,v1,v0
801067a8:	fcff8224 	addiu	v0,a0,-4
801067ac:	fc07422c 	sltiu	v0,v0,2044
801067b0:	02004014 	bnez	v0,0x801067bc
801067b4:	00000000 	nop
801067b8:	ffff0424 	li	a0,-1
801067bc:	7c00a28f 	lw	v0,124(sp)
801067c0:	00000000 	nop
801067c4:	75004004 	bltz	v0,0x8010699c
801067c8:	06008228 	slti	v0,a0,6
801067cc:	74004014 	bnez	v0,0x801069a0
801067d0:	21100002 	move	v0,s0
801067d4:	d0078228 	slti	v0,a0,2000
801067d8:	70004010 	beqz	v0,0x8010699c
801067dc:	0f80023c 	lui	v0,0x800f
801067e0:	c8d8458c 	lw	a1,-10040(v0)
801067e4:	05008228 	slti	v0,a0,5
801067e8:	02004010 	beqz	v0,0x801067f4
801067ec:	00000000 	nop
801067f0:	05000424 	li	a0,5
801067f4:	0a00e296 	lhu	v0,10(s7)
801067f8:	00000000 	nop
801067fc:	0e0002a6 	sh	v0,14(s0)
80106800:	0e00e396 	lhu	v1,14(s7)
80106804:	3c000224 	li	v0,60
80106808:	070002a2 	sb	v0,7(s0)
8010680c:	1a0003a6 	sh	v1,26(s0)
80106810:	08002292 	lbu	v0,8(s1)
80106814:	00000000 	nop
80106818:	040002a2 	sb	v0,4(s0)
8010681c:	09002292 	lbu	v0,9(s1)
80106820:	00000000 	nop
80106824:	050002a2 	sb	v0,5(s0)
80106828:	0a002292 	lbu	v0,10(s1)
8010682c:	00000000 	nop
80106830:	060002a2 	sb	v0,6(s0)
80106834:	06002292 	lbu	v0,6(s1)
80106838:	00000000 	nop
8010683c:	0c0002a2 	sb	v0,12(s0)
80106840:	07002292 	lbu	v0,7(s1)
80106844:	00000000 	nop
80106848:	0d0002a2 	sb	v0,13(s0)
8010684c:	08004292 	lbu	v0,8(s2)
80106850:	00000000 	nop
80106854:	100002a2 	sb	v0,16(s0)
80106858:	09004292 	lbu	v0,9(s2)
8010685c:	00000000 	nop
80106860:	110002a2 	sb	v0,17(s0)
80106864:	0a004292 	lbu	v0,10(s2)
80106868:	00000000 	nop
8010686c:	120002a2 	sb	v0,18(s0)
80106870:	06004292 	lbu	v0,6(s2)
80106874:	00000000 	nop
80106878:	180002a2 	sb	v0,24(s0)
8010687c:	07004292 	lbu	v0,7(s2)
80106880:	00000000 	nop
80106884:	190002a2 	sb	v0,25(s0)
80106888:	0800a292 	lbu	v0,8(s5)
8010688c:	00000000 	nop
80106890:	1c0002a2 	sb	v0,28(s0)
80106894:	0900a292 	lbu	v0,9(s5)
80106898:	00000000 	nop
8010689c:	1d0002a2 	sb	v0,29(s0)
801068a0:	0a00a292 	lbu	v0,10(s5)
801068a4:	00000000 	nop
801068a8:	1e0002a2 	sb	v0,30(s0)
801068ac:	0600a292 	lbu	v0,6(s5)
801068b0:	00000000 	nop
801068b4:	240002a2 	sb	v0,36(s0)
801068b8:	0700a292 	lbu	v0,7(s5)
801068bc:	00000000 	nop
801068c0:	250002a2 	sb	v0,37(s0)
801068c4:	0800c292 	lbu	v0,8(s6)
801068c8:	00000000 	nop
801068cc:	280002a2 	sb	v0,40(s0)
801068d0:	0900c292 	lbu	v0,9(s6)
801068d4:	00000000 	nop
801068d8:	290002a2 	sb	v0,41(s0)
801068dc:	0a00c292 	lbu	v0,10(s6)
801068e0:	00000000 	nop
801068e4:	2a0002a2 	sb	v0,42(s0)
801068e8:	0600c292 	lbu	v0,6(s6)
801068ec:	00000000 	nop
801068f0:	300002a2 	sb	v0,48(s0)
801068f4:	0700c292 	lbu	v0,7(s6)
801068f8:	00000000 	nop
801068fc:	310002a2 	sb	v0,49(s0)
80106900:	8000a28f 	lw	v0,128(sp)
80106904:	00000000 	nop
80106908:	14054228 	slti	v0,v0,1300
8010690c:	04004010 	beqz	v0,0x80106920
80106910:	00000000 	nop
80106914:	060000a2 	sb	zero,6(s0)
80106918:	050000a2 	sb	zero,5(s0)
8010691c:	040000a2 	sb	zero,4(s0)
80106920:	8400a28f 	lw	v0,132(sp)
80106924:	00000000 	nop
80106928:	14054228 	slti	v0,v0,1300
8010692c:	04004010 	beqz	v0,0x80106940
80106930:	00000000 	nop
80106934:	120000a2 	sb	zero,18(s0)
80106938:	110000a2 	sb	zero,17(s0)
8010693c:	100000a2 	sb	zero,16(s0)
80106940:	8800a28f 	lw	v0,136(sp)
80106944:	00000000 	nop
80106948:	14054228 	slti	v0,v0,1300
8010694c:	04004010 	beqz	v0,0x80106960
80106950:	00000000 	nop
80106954:	1e0000a2 	sb	zero,30(s0)
80106958:	1d0000a2 	sb	zero,29(s0)
8010695c:	1c0000a2 	sb	zero,28(s0)
80106960:	8c00a28f 	lw	v0,140(sp)
80106964:	00000000 	nop
80106968:	14054228 	slti	v0,v0,1300
8010696c:	04004010 	beqz	v0,0x80106980
80106970:	80100400 	sll	v0,a0,0x2
80106974:	2a0000a2 	sb	zero,42(s0)
80106978:	290000a2 	sb	zero,41(s0)
8010697c:	280000a2 	sb	zero,40(s0)
80106980:	2110a200 	addu	v0,a1,v0
80106984:	0000438c 	lw	v1,0(v0)
80106988:	000c043c 	lui	a0,0xc00
8010698c:	25186400 	or	v1,v1,a0
80106990:	000003ae 	sw	v1,0(s0)
80106994:	000050ac 	sw	s0,0(v0)
80106998:	34001026 	addiu	s0,s0,52
8010699c:	21100002 	move	v0,s0
801069a0:	b000bf8f 	lw	ra,176(sp)
801069a4:	ac00b78f 	lw	s7,172(sp)
801069a8:	a800b68f 	lw	s6,168(sp)
801069ac:	a400b58f 	lw	s5,164(sp)
801069b0:	a000b48f 	lw	s4,160(sp)
801069b4:	9c00b38f 	lw	s3,156(sp)
801069b8:	9800b28f 	lw	s2,152(sp)
801069bc:	9400b18f 	lw	s1,148(sp)
801069c0:	9000b08f 	lw	s0,144(sp)
801069c4:	0800e003 	jr	ra
801069c8:	b800bd27 	addiu	sp,sp,184
801069cc:	2140a000 	move	t0,a1
801069d0:	0800028d 	lw	v0,8(t0)
801069d4:	88ffbd27 	addiu	sp,sp,-120
801069d8:	1800a2af 	sw	v0,24(sp)
801069dc:	1400028d 	lw	v0,20(t0)
801069e0:	00000000 	nop
801069e4:	1c00a2af 	sw	v0,28(sp)
801069e8:	2000028d 	lw	v0,32(t0)
801069ec:	00000000 	nop
801069f0:	2000a2af 	sw	v0,32(sp)
801069f4:	2c00028d 	lw	v0,44(t0)
801069f8:	00000000 	nop
801069fc:	2400a2af 	sw	v0,36(sp)
80106a00:	0c000295 	lhu	v0,12(t0)
80106a04:	00000000 	nop
80106a08:	0000a2a7 	sh	v0,0(sp)
80106a0c:	18000295 	lhu	v0,24(t0)
80106a10:	00000000 	nop
80106a14:	0200a2a7 	sh	v0,2(sp)
80106a18:	24000295 	lhu	v0,36(t0)
80106a1c:	21508000 	move	t2,a0
80106a20:	0400a2a7 	sh	v0,4(sp)
80106a24:	30000295 	lhu	v0,48(t0)
80106a28:	00000000 	nop
80106a2c:	0600a2a7 	sh	v0,6(sp)
80106a30:	0f80023c 	lui	v0,0x800f
80106a34:	c8d84b8c 	lw	t3,-10040(v0)
80106a38:	3100e010 	beqz	a3,0x80106b00
80106a3c:	2148c000 	move	t1,a2
80106a40:	0000228d 	lw	v0,0(t1)
80106a44:	ac0d0324 	li	v1,3500
80106a48:	23106200 	subu	v0,v1,v0
80106a4c:	00408248 	mtc2	v0,$8
80106a50:	04000c8d 	lw	t4,4(t0)
80106a54:	00000000 	nop
80106a58:	00308c48 	mtc2	t4,$6
	...
80106a64:	1000784a 	c2	0x780010
80106a68:	04000225 	addiu	v0,t0,4
80106a6c:	000056e8 	swc2	$22,0(v0)
80106a70:	0400228d 	lw	v0,4(t1)
80106a74:	00000000 	nop
80106a78:	23106200 	subu	v0,v1,v0
80106a7c:	00408248 	mtc2	v0,$8
80106a80:	10000c8d 	lw	t4,16(t0)
80106a84:	00000000 	nop
80106a88:	00308c48 	mtc2	t4,$6
	...
80106a94:	1000784a 	c2	0x780010
80106a98:	10000225 	addiu	v0,t0,16
80106a9c:	000056e8 	swc2	$22,0(v0)
80106aa0:	0800228d 	lw	v0,8(t1)
80106aa4:	00000000 	nop
80106aa8:	23106200 	subu	v0,v1,v0
80106aac:	00408248 	mtc2	v0,$8
80106ab0:	1c000c8d 	lw	t4,28(t0)
80106ab4:	00000000 	nop
80106ab8:	00308c48 	mtc2	t4,$6
	...
80106ac4:	1000784a 	c2	0x780010
80106ac8:	1c000225 	addiu	v0,t0,28
80106acc:	000056e8 	swc2	$22,0(v0)
80106ad0:	0c00228d 	lw	v0,12(t1)
80106ad4:	00000000 	nop
80106ad8:	23106200 	subu	v0,v1,v0
80106adc:	00408248 	mtc2	v0,$8
80106ae0:	28000c8d 	lw	t4,40(t0)
80106ae4:	00000000 	nop
80106ae8:	00308c48 	mtc2	t4,$6
	...
80106af4:	1000784a 	c2	0x780010
80106af8:	28000225 	addiu	v0,t0,40
80106afc:	000056e8 	swc2	$22,0(v0)
80106b00:	0400028d 	lw	v0,4(t0)
80106b04:	00000000 	nop
80106b08:	2800a2af 	sw	v0,40(sp)
80106b0c:	1000028d 	lw	v0,16(t0)
80106b10:	00000000 	nop
80106b14:	2c00a2af 	sw	v0,44(sp)
80106b18:	1c00028d 	lw	v0,28(t0)
80106b1c:	00000000 	nop
80106b20:	3000a2af 	sw	v0,48(sp)
80106b24:	2800028d 	lw	v0,40(t0)
80106b28:	00000000 	nop
80106b2c:	3400a2af 	sw	v0,52(sp)
80106b30:	08000485 	lh	a0,8(t0)
80106b34:	14000285 	lh	v0,20(t0)
80106b38:	00000000 	nop
80106b3c:	21208200 	addu	a0,a0,v0
80106b40:	43200400 	sra	a0,a0,0x1
80106b44:	3800a4a7 	sh	a0,56(sp)
80106b48:	20000585 	lh	a1,32(t0)
80106b4c:	2c000285 	lh	v0,44(t0)
80106b50:	00000000 	nop
80106b54:	2128a200 	addu	a1,a1,v0
80106b58:	43280500 	sra	a1,a1,0x1
80106b5c:	4000a5a7 	sh	a1,64(sp)
80106b60:	08000285 	lh	v0,8(t0)
80106b64:	20000385 	lh	v1,32(t0)
80106b68:	21208500 	addu	a0,a0,a1
80106b6c:	21104300 	addu	v0,v0,v1
80106b70:	43100200 	sra	v0,v0,0x1
80106b74:	4800a2a7 	sh	v0,72(sp)
80106b78:	14000285 	lh	v0,20(t0)
80106b7c:	2c000385 	lh	v1,44(t0)
80106b80:	43200400 	sra	a0,a0,0x1
80106b84:	5800a4a7 	sh	a0,88(sp)
80106b88:	21104300 	addu	v0,v0,v1
80106b8c:	43100200 	sra	v0,v0,0x1
80106b90:	5000a2a7 	sh	v0,80(sp)
80106b94:	0a000485 	lh	a0,10(t0)
80106b98:	16000285 	lh	v0,22(t0)
80106b9c:	00000000 	nop
80106ba0:	21208200 	addu	a0,a0,v0
80106ba4:	43200400 	sra	a0,a0,0x1
80106ba8:	3a00a4a7 	sh	a0,58(sp)
80106bac:	22000585 	lh	a1,34(t0)
80106bb0:	2e000285 	lh	v0,46(t0)
80106bb4:	00000000 	nop
80106bb8:	2128a200 	addu	a1,a1,v0
80106bbc:	43280500 	sra	a1,a1,0x1
80106bc0:	4200a5a7 	sh	a1,66(sp)
80106bc4:	0a000285 	lh	v0,10(t0)
80106bc8:	22000385 	lh	v1,34(t0)
80106bcc:	21208500 	addu	a0,a0,a1
80106bd0:	21104300 	addu	v0,v0,v1
80106bd4:	43100200 	sra	v0,v0,0x1
80106bd8:	4a00a2a7 	sh	v0,74(sp)
80106bdc:	16000285 	lh	v0,22(t0)
80106be0:	2e000385 	lh	v1,46(t0)
80106be4:	43200400 	sra	a0,a0,0x1
80106be8:	21104300 	addu	v0,v0,v1
80106bec:	43100200 	sra	v0,v0,0x1
80106bf0:	5200a2a7 	sh	v0,82(sp)
80106bf4:	5a00a4a7 	sh	a0,90(sp)
80106bf8:	0c000291 	lbu	v0,12(t0)
80106bfc:	18000391 	lbu	v1,24(t0)
80106c00:	00000000 	nop
80106c04:	21104300 	addu	v0,v0,v1
80106c08:	43100200 	sra	v0,v0,0x1
80106c0c:	0800a2a3 	sb	v0,8(sp)
80106c10:	24000291 	lbu	v0,36(t0)
80106c14:	30000391 	lbu	v1,48(t0)
80106c18:	fe00063c 	lui	a2,0xfe
80106c1c:	21104300 	addu	v0,v0,v1
80106c20:	43100200 	sra	v0,v0,0x1
80106c24:	0a00a2a3 	sb	v0,10(sp)
80106c28:	0c000291 	lbu	v0,12(t0)
80106c2c:	24000391 	lbu	v1,36(t0)
80106c30:	0a00a493 	lbu	a0,10(sp)
80106c34:	21104300 	addu	v0,v0,v1
80106c38:	0800a393 	lbu	v1,8(sp)
80106c3c:	43100200 	sra	v0,v0,0x1
80106c40:	0c00a2a3 	sb	v0,12(sp)
80106c44:	18000291 	lbu	v0,24(t0)
80106c48:	21186400 	addu	v1,v1,a0
80106c4c:	30000491 	lbu	a0,48(t0)
80106c50:	43180300 	sra	v1,v1,0x1
80106c54:	1000a3a3 	sb	v1,16(sp)
80106c58:	21104400 	addu	v0,v0,a0
80106c5c:	43100200 	sra	v0,v0,0x1
80106c60:	0e00a2a3 	sb	v0,14(sp)
80106c64:	0d000291 	lbu	v0,13(t0)
80106c68:	19000391 	lbu	v1,25(t0)
80106c6c:	fefec634 	ori	a2,a2,0xfefe
80106c70:	21104300 	addu	v0,v0,v1
80106c74:	43100200 	sra	v0,v0,0x1
80106c78:	0900a2a3 	sb	v0,9(sp)
80106c7c:	25000291 	lbu	v0,37(t0)
80106c80:	31000391 	lbu	v1,49(t0)
80106c84:	1280073c 	lui	a3,0x8012
80106c88:	21104300 	addu	v0,v0,v1
80106c8c:	43100200 	sra	v0,v0,0x1
80106c90:	0b00a2a3 	sb	v0,11(sp)
80106c94:	0d000291 	lbu	v0,13(t0)
80106c98:	25000391 	lbu	v1,37(t0)
80106c9c:	0b00a493 	lbu	a0,11(sp)
80106ca0:	21104300 	addu	v0,v0,v1
80106ca4:	0900a393 	lbu	v1,9(sp)
80106ca8:	43100200 	sra	v0,v0,0x1
80106cac:	0d00a2a3 	sb	v0,13(sp)
80106cb0:	19000291 	lbu	v0,25(t0)
80106cb4:	21186400 	addu	v1,v1,a0
80106cb8:	31000491 	lbu	a0,49(t0)
80106cbc:	43180300 	sra	v1,v1,0x1
80106cc0:	1100a3a3 	sb	v1,17(sp)
80106cc4:	21104400 	addu	v0,v0,a0
80106cc8:	43100200 	sra	v0,v0,0x1
80106ccc:	0f00a2a3 	sb	v0,15(sp)
80106cd0:	0400058d 	lw	a1,4(t0)
80106cd4:	1000028d 	lw	v0,16(t0)
80106cd8:	2428a600 	and	a1,a1,a2
80106cdc:	24104600 	and	v0,v0,a2
80106ce0:	2128a200 	addu	a1,a1,v0
80106ce4:	42280500 	srl	a1,a1,0x1
80106ce8:	6000a5af 	sw	a1,96(sp)
80106cec:	2428a600 	and	a1,a1,a2
80106cf0:	1c00048d 	lw	a0,28(t0)
80106cf4:	2800028d 	lw	v0,40(t0)
80106cf8:	24208600 	and	a0,a0,a2
80106cfc:	24104600 	and	v0,v0,a2
80106d00:	21208200 	addu	a0,a0,v0
80106d04:	42200400 	srl	a0,a0,0x1
80106d08:	6400a4af 	sw	a0,100(sp)
80106d0c:	24208600 	and	a0,a0,a2
80106d10:	2128a400 	addu	a1,a1,a0
80106d14:	0400028d 	lw	v0,4(t0)
80106d18:	1c00038d 	lw	v1,28(t0)
80106d1c:	24104600 	and	v0,v0,a2
80106d20:	24186600 	and	v1,v1,a2
80106d24:	21104300 	addu	v0,v0,v1
80106d28:	42100200 	srl	v0,v0,0x1
80106d2c:	6800a2af 	sw	v0,104(sp)
80106d30:	1000028d 	lw	v0,16(t0)
80106d34:	2800048d 	lw	a0,40(t0)
80106d38:	e0c0e38c 	lw	v1,-16160(a3)
80106d3c:	42280500 	srl	a1,a1,0x1
80106d40:	7000a5af 	sw	a1,112(sp)
80106d44:	24104600 	and	v0,v0,a2
80106d48:	24208600 	and	a0,a0,a2
80106d4c:	21104400 	addu	v0,v0,a0
80106d50:	42100200 	srl	v0,v0,0x1
80106d54:	6c00a2af 	sw	v0,108(sp)
80106d58:	0400248d 	lw	a0,4(t1)
80106d5c:	01006324 	addiu	v1,v1,1
80106d60:	e0c0e3ac 	sw	v1,-16160(a3)
80106d64:	0000238d 	lw	v1,0(t1)
80106d68:	00000000 	nop
80106d6c:	2a108300 	slt	v0,a0,v1
80106d70:	02004010 	beqz	v0,0x80106d7c
80106d74:	00000000 	nop
80106d78:	21206000 	move	a0,v1
80106d7c:	0c00238d 	lw	v1,12(t1)
80106d80:	0800268d 	lw	a2,8(t1)
80106d84:	00000000 	nop
80106d88:	2a106600 	slt	v0,v1,a2
80106d8c:	03004010 	beqz	v0,0x80106d9c
80106d90:	2a106400 	slt	v0,v1,a0
80106d94:	2118c000 	move	v1,a2
80106d98:	2a106400 	slt	v0,v1,a0
80106d9c:	03004010 	beqz	v0,0x80106dac
80106da0:	83180300 	sra	v1,v1,0x2
80106da4:	21188000 	move	v1,a0
80106da8:	83180300 	sra	v1,v1,0x2
80106dac:	17ff6224 	addiu	v0,v1,-233
80106db0:	83120200 	sra	v0,v0,0xa
80106db4:	07184300 	srav	v1,v1,v0
80106db8:	40120200 	sll	v0,v0,0x9
80106dbc:	21186200 	addu	v1,v1,v0
80106dc0:	fcff6224 	addiu	v0,v1,-4
80106dc4:	fc07422c 	sltiu	v0,v0,2044
80106dc8:	03004014 	bnez	v0,0x80106dd8
80106dcc:	faff6224 	addiu	v0,v1,-6
80106dd0:	ffff0324 	li	v1,-1
80106dd4:	faff6224 	addiu	v0,v1,-6
80106dd8:	ca07422c 	sltiu	v0,v0,1994
80106ddc:	c3004010 	beqz	v0,0x801070ec
80106de0:	3c000524 	li	a1,60
80106de4:	1800a28f 	lw	v0,24(sp)
80106de8:	00000000 	nop
80106dec:	080002ad 	sw	v0,8(t0)
80106df0:	3800a28f 	lw	v0,56(sp)
80106df4:	00000000 	nop
80106df8:	140002ad 	sw	v0,20(t0)
80106dfc:	4800a28f 	lw	v0,72(sp)
80106e00:	00000000 	nop
80106e04:	200002ad 	sw	v0,32(t0)
80106e08:	5800a28f 	lw	v0,88(sp)
80106e0c:	00000000 	nop
80106e10:	2c0002ad 	sw	v0,44(t0)
80106e14:	0000a297 	lhu	v0,0(sp)
80106e18:	00000000 	nop
80106e1c:	0c0002a5 	sh	v0,12(t0)
80106e20:	0800a297 	lhu	v0,8(sp)
80106e24:	00000000 	nop
80106e28:	180002a5 	sh	v0,24(t0)
80106e2c:	0c00a297 	lhu	v0,12(sp)
80106e30:	00000000 	nop
80106e34:	240002a5 	sh	v0,36(t0)
80106e38:	1000a297 	lhu	v0,16(sp)
80106e3c:	00000000 	nop
80106e40:	300002a5 	sh	v0,48(t0)
80106e44:	2800a28f 	lw	v0,40(sp)
80106e48:	00000000 	nop
80106e4c:	040002ad 	sw	v0,4(t0)
80106e50:	6000a28f 	lw	v0,96(sp)
80106e54:	00000000 	nop
80106e58:	100002ad 	sw	v0,16(t0)
80106e5c:	6800a28f 	lw	v0,104(sp)
80106e60:	00000000 	nop
80106e64:	1c0002ad 	sw	v0,28(t0)
80106e68:	7000a28f 	lw	v0,112(sp)
80106e6c:	00000000 	nop
80106e70:	280002ad 	sw	v0,40(t0)
80106e74:	0a004295 	lhu	v0,10(t2)
80106e78:	00000000 	nop
80106e7c:	0e0002a5 	sh	v0,14(t0)
80106e80:	0e004295 	lhu	v0,14(t2)
80106e84:	070005a1 	sb	a1,7(t0)
80106e88:	1a0002a5 	sh	v0,26(t0)
80106e8c:	80180300 	sll	v1,v1,0x2
80106e90:	21186301 	addu	v1,t3,v1
80106e94:	0000628c 	lw	v0,0(v1)
80106e98:	000c043c 	lui	a0,0xc00
80106e9c:	25104400 	or	v0,v0,a0
80106ea0:	000002ad 	sw	v0,0(t0)
80106ea4:	000068ac 	sw	t0,0(v1)
80106ea8:	34000825 	addiu	t0,t0,52
80106eac:	1c00a28f 	lw	v0,28(sp)
80106eb0:	00000000 	nop
80106eb4:	080002ad 	sw	v0,8(t0)
80106eb8:	3800a28f 	lw	v0,56(sp)
80106ebc:	00000000 	nop
80106ec0:	140002ad 	sw	v0,20(t0)
80106ec4:	5000a28f 	lw	v0,80(sp)
80106ec8:	00000000 	nop
80106ecc:	200002ad 	sw	v0,32(t0)
80106ed0:	5800a28f 	lw	v0,88(sp)
80106ed4:	00000000 	nop
80106ed8:	2c0002ad 	sw	v0,44(t0)
80106edc:	0200a297 	lhu	v0,2(sp)
80106ee0:	00000000 	nop
80106ee4:	0c0002a5 	sh	v0,12(t0)
80106ee8:	0800a297 	lhu	v0,8(sp)
80106eec:	00000000 	nop
80106ef0:	180002a5 	sh	v0,24(t0)
80106ef4:	0e00a297 	lhu	v0,14(sp)
80106ef8:	00000000 	nop
80106efc:	240002a5 	sh	v0,36(t0)
80106f00:	1000a297 	lhu	v0,16(sp)
80106f04:	00000000 	nop
80106f08:	300002a5 	sh	v0,48(t0)
80106f0c:	2c00a28f 	lw	v0,44(sp)
80106f10:	00000000 	nop
80106f14:	040002ad 	sw	v0,4(t0)
80106f18:	6000a28f 	lw	v0,96(sp)
80106f1c:	00000000 	nop
80106f20:	100002ad 	sw	v0,16(t0)
80106f24:	6c00a28f 	lw	v0,108(sp)
80106f28:	00000000 	nop
80106f2c:	1c0002ad 	sw	v0,28(t0)
80106f30:	7000a28f 	lw	v0,112(sp)
80106f34:	00000000 	nop
80106f38:	280002ad 	sw	v0,40(t0)
80106f3c:	0a004295 	lhu	v0,10(t2)
80106f40:	00000000 	nop
80106f44:	0e0002a5 	sh	v0,14(t0)
80106f48:	0e004295 	lhu	v0,14(t2)
80106f4c:	070005a1 	sb	a1,7(t0)
80106f50:	1a0002a5 	sh	v0,26(t0)
80106f54:	0000628c 	lw	v0,0(v1)
80106f58:	00000000 	nop
80106f5c:	25104400 	or	v0,v0,a0
80106f60:	000002ad 	sw	v0,0(t0)
80106f64:	000068ac 	sw	t0,0(v1)
80106f68:	34000825 	addiu	t0,t0,52
80106f6c:	2400a28f 	lw	v0,36(sp)
80106f70:	00000000 	nop
80106f74:	080002ad 	sw	v0,8(t0)
80106f78:	4000a28f 	lw	v0,64(sp)
80106f7c:	00000000 	nop
80106f80:	140002ad 	sw	v0,20(t0)
80106f84:	5000a28f 	lw	v0,80(sp)
80106f88:	00000000 	nop
80106f8c:	200002ad 	sw	v0,32(t0)
80106f90:	5800a28f 	lw	v0,88(sp)
80106f94:	00000000 	nop
80106f98:	2c0002ad 	sw	v0,44(t0)
80106f9c:	0600a297 	lhu	v0,6(sp)
80106fa0:	00000000 	nop
80106fa4:	0c0002a5 	sh	v0,12(t0)
80106fa8:	0a00a297 	lhu	v0,10(sp)
80106fac:	00000000 	nop
80106fb0:	180002a5 	sh	v0,24(t0)
80106fb4:	0e00a297 	lhu	v0,14(sp)
80106fb8:	00000000 	nop
80106fbc:	240002a5 	sh	v0,36(t0)
80106fc0:	1000a297 	lhu	v0,16(sp)
80106fc4:	00000000 	nop
80106fc8:	300002a5 	sh	v0,48(t0)
80106fcc:	3400a28f 	lw	v0,52(sp)
80106fd0:	00000000 	nop
80106fd4:	040002ad 	sw	v0,4(t0)
80106fd8:	6400a28f 	lw	v0,100(sp)
80106fdc:	00000000 	nop
80106fe0:	100002ad 	sw	v0,16(t0)
80106fe4:	6c00a28f 	lw	v0,108(sp)
80106fe8:	00000000 	nop
80106fec:	1c0002ad 	sw	v0,28(t0)
80106ff0:	7000a28f 	lw	v0,112(sp)
80106ff4:	00000000 	nop
80106ff8:	280002ad 	sw	v0,40(t0)
80106ffc:	0a004295 	lhu	v0,10(t2)
80107000:	00000000 	nop
80107004:	0e0002a5 	sh	v0,14(t0)
80107008:	0e004295 	lhu	v0,14(t2)
8010700c:	070005a1 	sb	a1,7(t0)
80107010:	1a0002a5 	sh	v0,26(t0)
80107014:	0000628c 	lw	v0,0(v1)
80107018:	00000000 	nop
8010701c:	25104400 	or	v0,v0,a0
80107020:	000002ad 	sw	v0,0(t0)
80107024:	000068ac 	sw	t0,0(v1)
80107028:	34000825 	addiu	t0,t0,52
8010702c:	2000a28f 	lw	v0,32(sp)
80107030:	00000000 	nop
80107034:	080002ad 	sw	v0,8(t0)
80107038:	4000a28f 	lw	v0,64(sp)
8010703c:	00000000 	nop
80107040:	140002ad 	sw	v0,20(t0)
80107044:	4800a28f 	lw	v0,72(sp)
80107048:	00000000 	nop
8010704c:	200002ad 	sw	v0,32(t0)
80107050:	5800a28f 	lw	v0,88(sp)
80107054:	00000000 	nop
80107058:	2c0002ad 	sw	v0,44(t0)
8010705c:	0400a297 	lhu	v0,4(sp)
80107060:	00000000 	nop
80107064:	0c0002a5 	sh	v0,12(t0)
80107068:	0a00a297 	lhu	v0,10(sp)
8010706c:	00000000 	nop
80107070:	180002a5 	sh	v0,24(t0)
80107074:	0c00a297 	lhu	v0,12(sp)
80107078:	00000000 	nop
8010707c:	240002a5 	sh	v0,36(t0)
80107080:	1000a297 	lhu	v0,16(sp)
80107084:	00000000 	nop
80107088:	300002a5 	sh	v0,48(t0)
8010708c:	3000a28f 	lw	v0,48(sp)
80107090:	00000000 	nop
80107094:	040002ad 	sw	v0,4(t0)
80107098:	6400a28f 	lw	v0,100(sp)
8010709c:	00000000 	nop
801070a0:	100002ad 	sw	v0,16(t0)
801070a4:	6800a28f 	lw	v0,104(sp)
801070a8:	00000000 	nop
801070ac:	1c0002ad 	sw	v0,28(t0)
801070b0:	7000a28f 	lw	v0,112(sp)
801070b4:	00000000 	nop
801070b8:	280002ad 	sw	v0,40(t0)
801070bc:	0a004295 	lhu	v0,10(t2)
801070c0:	00000000 	nop
801070c4:	0e0002a5 	sh	v0,14(t0)
801070c8:	0e004295 	lhu	v0,14(t2)
801070cc:	070005a1 	sb	a1,7(t0)
801070d0:	1a0002a5 	sh	v0,26(t0)
801070d4:	0000628c 	lw	v0,0(v1)
801070d8:	00000000 	nop
801070dc:	25104400 	or	v0,v0,a0
801070e0:	000002ad 	sw	v0,0(t0)
801070e4:	000068ac 	sw	t0,0(v1)
801070e8:	34000825 	addiu	t0,t0,52
801070ec:	21100001 	move	v0,t0
801070f0:	0800e003 	jr	ra
801070f4:	7800bd27 	addiu	sp,sp,120
801070f8:	21588000 	move	t3,a0
801070fc:	801f083c 	lui	t0,0x1f80
80107100:	04000835 	ori	t0,t0,0x4
80107104:	0c80023c 	lui	v0,0x800c
80107108:	44f5498c 	lw	t1,-2748(v0)
8010710c:	2110c000 	move	v0,a2
80107110:	ffffc624 	addiu	a2,a2,-1
80107114:	73004010 	beqz	v0,0x801072e4
80107118:	801f0d3c 	lui	t5,0x1f80
8010711c:	f0000e3c 	lui	t6,0xf0
80107120:	f0f0ce35 	ori	t6,t6,0xf0f0
80107124:	22008a24 	addiu	t2,a0,34
80107128:	24002725 	addiu	a3,t1,36
8010712c:	100060c9 	lwc2	$0,16(t3)
80107130:	14006c8d 	lw	t4,20(t3)
80107134:	180062c9 	lwc2	$2,24(t3)
80107138:	00088c48 	mtc2	t4,$1
8010713c:	1c0064c9 	lwc2	$4,28(t3)
80107140:	02640c00 	srl	t4,t4,0x10
80107144:	00188c48 	mtc2	t4,$3
80107148:	200065c9 	lwc2	$5,32(t3)
8010714c:	0000628d 	lw	v0,0(t3)
80107150:	00000000 	nop
80107154:	e0ffe2ac 	sw	v0,-32(a3)
80107158:	3000284a 	c2	0x280030
8010715c:	e6ff428d 	lw	v0,-26(t2)
80107160:	00000000 	nop
80107164:	e8ffe2ac 	sw	v0,-24(a3)
80107168:	eaff428d 	lw	v0,-22(t2)
8010716c:	00000000 	nop
80107170:	f4ffe2ac 	sw	v0,-12(a3)
80107174:	e2ff448d 	lw	a0,-30(t2)
80107178:	00f84c48 	cfc2	t4,$31
8010717c:	00000000 	nop
80107180:	0000acad 	sw	t4,0(t5)
80107184:	0000a28d 	lw	v0,0(t5)
80107188:	00000000 	nop
8010718c:	50004004 	bltz	v0,0x801072d0
80107190:	24108e00 	and	v0,a0,t6
80107194:	ecffe2ac 	sw	v0,-20(a3)
80107198:	02160400 	srl	v0,a0,0x18
8010719c:	01004230 	andi	v0,v0,0x1
801071a0:	07004014 	bnez	v0,0x801071c0
801071a4:	00000000 	nop
801071a8:	0600404b 	c2	0x1400006
801071ac:	0000b8e9 	swc2	$24,0(t5)
801071b0:	0000a28d 	lw	v0,0(t5)
801071b4:	00000000 	nop
801071b8:	45004018 	blez	v0,0x801072d0
801071bc:	00000000 	nop
801071c0:	08002ce9 	swc2	$12,8(t1)
801071c4:	14002de9 	swc2	$13,20(t1)
801071c8:	20002ee9 	swc2	$14,32(t1)
801071cc:	e4ffe294 	lhu	v0,-28(a3)
801071d0:	00000000 	nop
801071d4:	4001422c 	sltiu	v0,v0,320
801071d8:	0b004014 	bnez	v0,0x80107208
801071dc:	00000000 	nop
801071e0:	f0ffe294 	lhu	v0,-16(a3)
801071e4:	00000000 	nop
801071e8:	4001422c 	sltiu	v0,v0,320
801071ec:	06004014 	bnez	v0,0x80107208
801071f0:	00000000 	nop
801071f4:	fcffe294 	lhu	v0,-4(a3)
801071f8:	00000000 	nop
801071fc:	4001422c 	sltiu	v0,v0,320
80107200:	33004010 	beqz	v0,0x801072d0
80107204:	00000000 	nop
80107208:	e6ffe294 	lhu	v0,-26(a3)
8010720c:	00000000 	nop
80107210:	f000422c 	sltiu	v0,v0,240
80107214:	0b004014 	bnez	v0,0x80107244
80107218:	00000000 	nop
8010721c:	f2ffe294 	lhu	v0,-14(a3)
80107220:	00000000 	nop
80107224:	f000422c 	sltiu	v0,v0,240
80107228:	06004014 	bnez	v0,0x80107244
8010722c:	00000000 	nop
80107230:	feffe294 	lhu	v0,-2(a3)
80107234:	00000000 	nop
80107238:	f000422c 	sltiu	v0,v0,240
8010723c:	24004010 	beqz	v0,0x801072d0
80107240:	00000000 	nop
80107244:	2d00584b 	c2	0x158002d
80107248:	000007e9 	swc2	$7,0(t0)
8010724c:	0000038d 	lw	v1,0(t0)
80107250:	00000000 	nop
80107254:	17ff6224 	addiu	v0,v1,-233
80107258:	83120200 	sra	v0,v0,0xa
8010725c:	07184300 	srav	v1,v1,v0
80107260:	40120200 	sll	v0,v0,0x9
80107264:	21186200 	addu	v1,v1,v0
80107268:	000003ad 	sw	v1,0(t0)
8010726c:	fcff6324 	addiu	v1,v1,-4
80107270:	fc07632c 	sltiu	v1,v1,2044
80107274:	02006014 	bnez	v1,0x80107280
80107278:	ffff0224 	li	v0,-1
8010727c:	000002ad 	sw	v0,0(t0)
80107280:	0000028d 	lw	v0,0(t0)
80107284:	00000000 	nop
80107288:	11004004 	bltz	v0,0x801072d0
8010728c:	00110400 	sll	v0,a0,0x4
80107290:	24104e00 	and	v0,v0,t6
80107294:	f8ffe2ac 	sw	v0,-8(a3)
80107298:	00004295 	lhu	v0,0(t2)
8010729c:	00000000 	nop
801072a0:	0000e2a4 	sh	v0,0(a3)
801072a4:	0000028d 	lw	v0,0(t0)
801072a8:	00000000 	nop
801072ac:	80100200 	sll	v0,v0,0x2
801072b0:	2110a200 	addu	v0,a1,v0
801072b4:	0000438c 	lw	v1,0(v0)
801072b8:	0009043c 	lui	a0,0x900
801072bc:	25186400 	or	v1,v1,a0
801072c0:	000023ad 	sw	v1,0(t1)
801072c4:	000049ac 	sw	t1,0(v0)
801072c8:	2800e724 	addiu	a3,a3,40
801072cc:	28002925 	addiu	t1,t1,40
801072d0:	24004a25 	addiu	t2,t2,36
801072d4:	24006b25 	addiu	t3,t3,36
801072d8:	2110c000 	move	v0,a2
801072dc:	93ff4014 	bnez	v0,0x8010712c
801072e0:	ffffc624 	addiu	a2,a2,-1
801072e4:	0c80023c 	lui	v0,0x800c
801072e8:	44f549ac 	sw	t1,-2748(v0)
801072ec:	0800e003 	jr	ra
801072f0:	21106001 	move	v0,t3
801072f4:	68ffbd27 	addiu	sp,sp,-152
801072f8:	7800b2af 	sw	s2,120(sp)
801072fc:	21908000 	move	s2,a0
80107300:	8800b6af 	sw	s6,136(sp)
80107304:	21b0a000 	move	s6,a1
80107308:	7c00b3af 	sw	s3,124(sp)
8010730c:	2198c000 	move	s3,a2
80107310:	7400b1af 	sw	s1,116(sp)
80107314:	801f113c 	lui	s1,0x1f80
80107318:	04003136 	ori	s1,s1,0x4
8010731c:	0c80023c 	lui	v0,0x800c
80107320:	44f5458c 	lw	a1,-2748(v0)
80107324:	21106002 	move	v0,s3
80107328:	ffff7326 	addiu	s3,s3,-1
8010732c:	8c00b7af 	sw	s7,140(sp)
80107330:	801f173c 	lui	s7,0x1f80
80107334:	9000bfaf 	sw	ra,144(sp)
80107338:	8400b5af 	sw	s5,132(sp)
8010733c:	8000b4af 	sw	s4,128(sp)
80107340:	af014010 	beqz	v0,0x80107a00
80107344:	7000b0af 	sw	s0,112(sp)
80107348:	f000153c 	lui	s5,0xf0
8010734c:	f0f0b536 	ori	s5,s5,0xf0f0
80107350:	2000b427 	addiu	s4,sp,32
80107354:	06009024 	addiu	s0,a0,6
80107358:	18004c8e 	lw	t4,24(s2)
8010735c:	140040ca 	lwc2	$0,20(s2)
80107360:	00088c48 	mtc2	t4,$1
80107364:	02640c00 	srl	t4,t4,0x10
80107368:	00188c48 	mtc2	t4,$3
8010736c:	1c0042ca 	lwc2	$2,28(s2)
80107370:	24004c8e 	lw	t4,36(s2)
80107374:	200044ca 	lwc2	$4,32(s2)
80107378:	00288c48 	mtc2	t4,$5
8010737c:	f0ff023c 	lui	v0,0xfff0
80107380:	0000438e 	lw	v1,0(s2)
80107384:	f0f04234 	ori	v0,v0,0xf0f0
80107388:	24106200 	and	v0,v1,v0
8010738c:	0400a2ac 	sw	v0,4(a1)
80107390:	3000284a 	c2	0x280030
80107394:	00190300 	sll	v1,v1,0x4
80107398:	24187500 	and	v1,v1,s5
8010739c:	1000a3ac 	sw	v1,16(a1)
801073a0:	feff038e 	lw	v1,-2(s0)
801073a4:	00f84c48 	cfc2	t4,$31
801073a8:	00000000 	nop
801073ac:	0000ecae 	sw	t4,0(s7)
801073b0:	02460300 	srl	t0,v1,0x18
801073b4:	0800ace8 	swc2	$12,8(a1)
801073b8:	1400ade8 	swc2	$13,20(a1)
801073bc:	2000aee8 	swc2	$14,32(a1)
801073c0:	24107500 	and	v0,v1,s5
801073c4:	1c00a2ac 	sw	v0,28(a1)
801073c8:	24004c8e 	lw	t4,36(s2)
801073cc:	280040ca 	lwc2	$0,40(s2)
801073d0:	02640c00 	srl	t4,t4,0x10
801073d4:	00088c48 	mtc2	t4,$1
801073d8:	00190300 	sll	v1,v1,0x4
801073dc:	24187500 	and	v1,v1,s5
801073e0:	2800a3ac 	sw	v1,40(a1)
801073e4:	0100184a 	c2	0x180001
801073e8:	0200028e 	lw	v0,2(s0)
801073ec:	00000000 	nop
801073f0:	0c00a2ac 	sw	v0,12(a1)
801073f4:	00f84c48 	cfc2	t4,$31
801073f8:	00000000 	nop
801073fc:	0000ecae 	sw	t4,0(s7)
80107400:	2c00a224 	addiu	v0,a1,44
80107404:	00004ee8 	swc2	$14,0(v0)
80107408:	0800a294 	lhu	v0,8(a1)
8010740c:	00000000 	nop
80107410:	4001422c 	sltiu	v0,v0,320
80107414:	10004014 	bnez	v0,0x80107458
80107418:	00000000 	nop
8010741c:	1400a294 	lhu	v0,20(a1)
80107420:	00000000 	nop
80107424:	4001422c 	sltiu	v0,v0,320
80107428:	0b004014 	bnez	v0,0x80107458
8010742c:	00000000 	nop
80107430:	2000a294 	lhu	v0,32(a1)
80107434:	00000000 	nop
80107438:	4001422c 	sltiu	v0,v0,320
8010743c:	06004014 	bnez	v0,0x80107458
80107440:	00000000 	nop
80107444:	2c00a294 	lhu	v0,44(a1)
80107448:	00000000 	nop
8010744c:	4001422c 	sltiu	v0,v0,320
80107450:	66014010 	beqz	v0,0x801079ec
80107454:	00000000 	nop
80107458:	0a00a294 	lhu	v0,10(a1)
8010745c:	00000000 	nop
80107460:	f000422c 	sltiu	v0,v0,240
80107464:	10004014 	bnez	v0,0x801074a8
80107468:	00000000 	nop
8010746c:	1600a294 	lhu	v0,22(a1)
80107470:	00000000 	nop
80107474:	f000422c 	sltiu	v0,v0,240
80107478:	0b004014 	bnez	v0,0x801074a8
8010747c:	00000000 	nop
80107480:	2200a294 	lhu	v0,34(a1)
80107484:	00000000 	nop
80107488:	f000422c 	sltiu	v0,v0,240
8010748c:	06004014 	bnez	v0,0x801074a8
80107490:	00000000 	nop
80107494:	2e00a294 	lhu	v0,46(a1)
80107498:	00000000 	nop
8010749c:	f000422c 	sltiu	v0,v0,240
801074a0:	52014010 	beqz	v0,0x801079ec
801074a4:	00000000 	nop
801074a8:	0600028e 	lw	v0,6(s0)
801074ac:	00000000 	nop
801074b0:	1800a2ac 	sw	v0,24(a1)
801074b4:	000090ea 	swc2	$16,0(s4)
801074b8:	2400a227 	addiu	v0,sp,36
801074bc:	000051e8 	swc2	$17,0(v0)
801074c0:	2800a227 	addiu	v0,sp,40
801074c4:	000052e8 	swc2	$18,0(v0)
801074c8:	2c00a227 	addiu	v0,sp,44
801074cc:	000053e8 	swc2	$19,0(v0)
801074d0:	0a00028e 	lw	v0,10(s0)
801074d4:	00000000 	nop
801074d8:	2400a2ac 	sw	v0,36(a1)
801074dc:	02140200 	srl	v0,v0,0x10
801074e0:	3000a2ac 	sw	v0,48(a1)
801074e4:	2400a48f 	lw	a0,36(sp)
801074e8:	2000a78f 	lw	a3,32(sp)
801074ec:	00000000 	nop
801074f0:	2a10e400 	slt	v0,a3,a0
801074f4:	2120e000 	move	a0,a3
801074f8:	2c00a38f 	lw	v1,44(sp)
801074fc:	2800a68f 	lw	a2,40(sp)
80107500:	00000000 	nop
80107504:	2a10c300 	slt	v0,a2,v1
80107508:	2400a48f 	lw	a0,36(sp)
8010750c:	00000000 	nop
80107510:	2a108700 	slt	v0,a0,a3
80107514:	02004010 	beqz	v0,0x80107520
80107518:	2118c000 	move	v1,a2
8010751c:	2120e000 	move	a0,a3
80107520:	2c00a38f 	lw	v1,44(sp)
80107524:	00000000 	nop
80107528:	2a106600 	slt	v0,v1,a2
8010752c:	03004010 	beqz	v0,0x8010753c
80107530:	2a106400 	slt	v0,v1,a0
80107534:	2118c000 	move	v1,a2
80107538:	2a106400 	slt	v0,v1,a0
8010753c:	03004010 	beqz	v0,0x8010754c
80107540:	84036228 	slti	v0,v1,900
80107544:	21188000 	move	v1,a0
80107548:	84036228 	slti	v0,v1,900
8010754c:	27014014 	bnez	v0,0x801079ec
80107550:	01000231 	andi	v0,t0,0x1
80107554:	c4004010 	beqz	v0,0x80107868
80107558:	ac0d6228 	slti	v0,v1,3500
8010755c:	76004010 	beqz	v0,0x80107738
80107560:	21204002 	move	a0,s2
80107564:	0e000296 	lhu	v0,14(s0)
80107568:	00000000 	nop
8010756c:	3000a2a7 	sh	v0,48(sp)
80107570:	10000296 	lhu	v0,16(s0)
80107574:	00000000 	nop
80107578:	3200a2a7 	sh	v0,50(sp)
8010757c:	12000296 	lhu	v0,18(s0)
80107580:	00000000 	nop
80107584:	3400a2a7 	sh	v0,52(sp)
80107588:	02000292 	lbu	v0,2(s0)
8010758c:	00000000 	nop
80107590:	3600a2a3 	sb	v0,54(sp)
80107594:	03000292 	lbu	v0,3(s0)
80107598:	00000000 	nop
8010759c:	3700a2a3 	sb	v0,55(sp)
801075a0:	00004292 	lbu	v0,0(s2)
801075a4:	00000000 	nop
801075a8:	f0004230 	andi	v0,v0,0xf0
801075ac:	3800a2a3 	sb	v0,56(sp)
801075b0:	fbff0292 	lbu	v0,-5(s0)
801075b4:	00000000 	nop
801075b8:	f0004230 	andi	v0,v0,0xf0
801075bc:	3900a2a3 	sb	v0,57(sp)
801075c0:	fcff0292 	lbu	v0,-4(s0)
801075c4:	00000000 	nop
801075c8:	f0004230 	andi	v0,v0,0xf0
801075cc:	3a00a2a3 	sb	v0,58(sp)
801075d0:	16000296 	lhu	v0,22(s0)
801075d4:	00000000 	nop
801075d8:	4000a2a7 	sh	v0,64(sp)
801075dc:	18000296 	lhu	v0,24(s0)
801075e0:	00000000 	nop
801075e4:	4200a2a7 	sh	v0,66(sp)
801075e8:	14000296 	lhu	v0,20(s0)
801075ec:	00000000 	nop
801075f0:	4400a2a7 	sh	v0,68(sp)
801075f4:	06000292 	lbu	v0,6(s0)
801075f8:	00000000 	nop
801075fc:	4600a2a3 	sb	v0,70(sp)
80107600:	07000292 	lbu	v0,7(s0)
80107604:	00000000 	nop
80107608:	4700a2a3 	sb	v0,71(sp)
8010760c:	00004292 	lbu	v0,0(s2)
80107610:	00000000 	nop
80107614:	00110200 	sll	v0,v0,0x4
80107618:	4800a2a3 	sb	v0,72(sp)
8010761c:	fbff0292 	lbu	v0,-5(s0)
80107620:	00000000 	nop
80107624:	00110200 	sll	v0,v0,0x4
80107628:	4900a2a3 	sb	v0,73(sp)
8010762c:	fcff0292 	lbu	v0,-4(s0)
80107630:	00000000 	nop
80107634:	00110200 	sll	v0,v0,0x4
80107638:	4a00a2a3 	sb	v0,74(sp)
8010763c:	1a000296 	lhu	v0,26(s0)
80107640:	00000000 	nop
80107644:	5000a2a7 	sh	v0,80(sp)
80107648:	1c000296 	lhu	v0,28(s0)
8010764c:	00000000 	nop
80107650:	5200a2a7 	sh	v0,82(sp)
80107654:	1e000296 	lhu	v0,30(s0)
80107658:	00000000 	nop
8010765c:	5400a2a7 	sh	v0,84(sp)
80107660:	0a000292 	lbu	v0,10(s0)
80107664:	00000000 	nop
80107668:	5600a2a3 	sb	v0,86(sp)
8010766c:	0b000292 	lbu	v0,11(s0)
80107670:	00000000 	nop
80107674:	5700a2a3 	sb	v0,87(sp)
80107678:	feff0292 	lbu	v0,-2(s0)
8010767c:	00000000 	nop
80107680:	f0004230 	andi	v0,v0,0xf0
80107684:	5800a2a3 	sb	v0,88(sp)
80107688:	ffff0292 	lbu	v0,-1(s0)
8010768c:	00000000 	nop
80107690:	f0004230 	andi	v0,v0,0xf0
80107694:	5900a2a3 	sb	v0,89(sp)
80107698:	00000292 	lbu	v0,0(s0)
8010769c:	00000000 	nop
801076a0:	f0004230 	andi	v0,v0,0xf0
801076a4:	5a00a2a3 	sb	v0,90(sp)
801076a8:	22000296 	lhu	v0,34(s0)
801076ac:	00000000 	nop
801076b0:	6000a2a7 	sh	v0,96(sp)
801076b4:	24000296 	lhu	v0,36(s0)
801076b8:	00000000 	nop
801076bc:	6200a2a7 	sh	v0,98(sp)
801076c0:	20000296 	lhu	v0,32(s0)
801076c4:	00000000 	nop
801076c8:	6400a2a7 	sh	v0,100(sp)
801076cc:	0c000292 	lbu	v0,12(s0)
801076d0:	00000000 	nop
801076d4:	6600a2a3 	sb	v0,102(sp)
801076d8:	0d000292 	lbu	v0,13(s0)
801076dc:	00000000 	nop
801076e0:	6700a2a3 	sb	v0,103(sp)
801076e4:	feff0292 	lbu	v0,-2(s0)
801076e8:	00000000 	nop
801076ec:	00110200 	sll	v0,v0,0x4
801076f0:	6800a2a3 	sb	v0,104(sp)
801076f4:	ffff0292 	lbu	v0,-1(s0)
801076f8:	02000624 	li	a2,2
801076fc:	00110200 	sll	v0,v0,0x4
80107700:	6900a2a3 	sb	v0,105(sp)
80107704:	00000292 	lbu	v0,0(s0)
80107708:	3000a727 	addiu	a3,sp,48
8010770c:	00110200 	sll	v0,v0,0x4
80107710:	6a00a2a3 	sb	v0,106(sp)
80107714:	4000a227 	addiu	v0,sp,64
80107718:	1000a2af 	sw	v0,16(sp)
8010771c:	5000a227 	addiu	v0,sp,80
80107720:	1400a2af 	sw	v0,20(sp)
80107724:	6000a227 	addiu	v0,sp,96
80107728:	683c040c 	jal	0x8010f1a0
8010772c:	1800a2af 	sw	v0,24(sp)
80107730:	62420408 	j	0x80110988
80107734:	21284000 	move	a1,v0
80107738:	7c156228 	slti	v0,v1,5500
8010773c:	03004010 	beqz	v0,0x8010774c
80107740:	21308002 	move	a2,s4
80107744:	05420408 	j	0x80110814
80107748:	21380000 	move	a3,zero
8010774c:	2e00684b 	c2	0x168002e
80107750:	000027ea 	swc2	$7,0(s1)
80107754:	0000228e 	lw	v0,0(s1)
80107758:	00000000 	nop
8010775c:	831a0200 	sra	v1,v0,0xa
80107760:	07106200 	srav	v0,v0,v1
80107764:	401a0300 	sll	v1,v1,0x9
80107768:	21104300 	addu	v0,v0,v1
8010776c:	000022ae 	sw	v0,0(s1)
80107770:	fcff4224 	addiu	v0,v0,-4
80107774:	fc07422c 	sltiu	v0,v0,2044
80107778:	02004014 	bnez	v0,0x80107784
8010777c:	ffff0224 	li	v0,-1
80107780:	000022ae 	sw	v0,0(s1)
80107784:	0000238e 	lw	v1,0(s1)
80107788:	00000000 	nop
8010778c:	00086228 	slti	v0,v1,2048
80107790:	96004010 	beqz	v0,0x801079ec
80107794:	01066228 	slti	v0,v1,1537
80107798:	8a004014 	bnez	v0,0x801079c4
8010779c:	00000000 	nop
801077a0:	2000a28f 	lw	v0,32(sp)
801077a4:	00000000 	nop
801077a8:	b4e24224 	addiu	v0,v0,-7500
801077ac:	00408248 	mtc2	v0,$8
801077b0:	0400a98c 	lw	t1,4(a1)
801077b4:	00000000 	nop
801077b8:	00308948 	mtc2	t1,$6
	...
801077c4:	1000784a 	c2	0x780010
801077c8:	0400a224 	addiu	v0,a1,4
801077cc:	000056e8 	swc2	$22,0(v0)
801077d0:	2400a28f 	lw	v0,36(sp)
801077d4:	00000000 	nop
801077d8:	b4e24224 	addiu	v0,v0,-7500
801077dc:	00408248 	mtc2	v0,$8
801077e0:	1000a98c 	lw	t1,16(a1)
801077e4:	00000000 	nop
801077e8:	00308948 	mtc2	t1,$6
	...
801077f4:	1000784a 	c2	0x780010
801077f8:	1000a224 	addiu	v0,a1,16
801077fc:	000056e8 	swc2	$22,0(v0)
80107800:	2800a28f 	lw	v0,40(sp)
80107804:	00000000 	nop
80107808:	b4e24224 	addiu	v0,v0,-7500
8010780c:	00408248 	mtc2	v0,$8
80107810:	1c00a98c 	lw	t1,28(a1)
80107814:	00000000 	nop
80107818:	00308948 	mtc2	t1,$6
	...
80107824:	1000784a 	c2	0x780010
80107828:	1c00a224 	addiu	v0,a1,28
8010782c:	000056e8 	swc2	$22,0(v0)
80107830:	2c00a28f 	lw	v0,44(sp)
80107834:	00000000 	nop
80107838:	b4e24224 	addiu	v0,v0,-7500
8010783c:	00408248 	mtc2	v0,$8
80107840:	2800a98c 	lw	t1,40(a1)
80107844:	00000000 	nop
80107848:	00308948 	mtc2	t1,$6
	...
80107854:	1000784a 	c2	0x780010
80107858:	2800a224 	addiu	v0,a1,40
8010785c:	000056e8 	swc2	$22,0(v0)
80107860:	58420408 	j	0x80110960
80107864:	00000000 	nop
80107868:	07004010 	beqz	v0,0x80107888
8010786c:	21204002 	move	a0,s2
80107870:	21308002 	move	a2,s4
80107874:	01000724 	li	a3,1
80107878:	5a3e040c 	jal	0x8010f968
8010787c:	2c001026 	addiu	s0,s0,44
80107880:	63420408 	j	0x8011098c
80107884:	21284000 	move	a1,v0
80107888:	2e00684b 	c2	0x168002e
8010788c:	000027ea 	swc2	$7,0(s1)
80107890:	0000228e 	lw	v0,0(s1)
80107894:	00000000 	nop
80107898:	831a0200 	sra	v1,v0,0xa
8010789c:	07106200 	srav	v0,v0,v1
801078a0:	401a0300 	sll	v1,v1,0x9
801078a4:	21104300 	addu	v0,v0,v1
801078a8:	000022ae 	sw	v0,0(s1)
801078ac:	fcff4224 	addiu	v0,v0,-4
801078b0:	fc07422c 	sltiu	v0,v0,2044
801078b4:	02004014 	bnez	v0,0x801078c0
801078b8:	ffff0224 	li	v0,-1
801078bc:	000022ae 	sw	v0,0(s1)
801078c0:	0000238e 	lw	v1,0(s1)
801078c4:	00000000 	nop
801078c8:	00086228 	slti	v0,v1,2048
801078cc:	47004010 	beqz	v0,0x801079ec
801078d0:	05006228 	slti	v0,v1,5
801078d4:	45004014 	bnez	v0,0x801079ec
801078d8:	5a006224 	addiu	v0,v1,90
801078dc:	000022ae 	sw	v0,0(s1)
801078e0:	00084228 	slti	v0,v0,2048
801078e4:	02004014 	bnez	v0,0x801078f0
801078e8:	ff070224 	li	v0,2047
801078ec:	000022ae 	sw	v0,0(s1)
801078f0:	0000228e 	lw	v0,0(s1)
801078f4:	00000000 	nop
801078f8:	01064228 	slti	v0,v0,1537
801078fc:	31004014 	bnez	v0,0x801079c4
80107900:	00000000 	nop
80107904:	2000a28f 	lw	v0,32(sp)
80107908:	00000000 	nop
8010790c:	b4e24224 	addiu	v0,v0,-7500
80107910:	00408248 	mtc2	v0,$8
80107914:	0400a98c 	lw	t1,4(a1)
80107918:	00000000 	nop
8010791c:	00308948 	mtc2	t1,$6
	...
80107928:	1000784a 	c2	0x780010
8010792c:	0400a224 	addiu	v0,a1,4
80107930:	000056e8 	swc2	$22,0(v0)
80107934:	2400a28f 	lw	v0,36(sp)
80107938:	00000000 	nop
8010793c:	b4e24224 	addiu	v0,v0,-7500
80107940:	00408248 	mtc2	v0,$8
80107944:	1000a98c 	lw	t1,16(a1)
80107948:	00000000 	nop
8010794c:	00308948 	mtc2	t1,$6
	...
80107958:	1000784a 	c2	0x780010
8010795c:	1000a224 	addiu	v0,a1,16
80107960:	000056e8 	swc2	$22,0(v0)
80107964:	2800a28f 	lw	v0,40(sp)
80107968:	00000000 	nop
8010796c:	b4e24224 	addiu	v0,v0,-7500
80107970:	00408248 	mtc2	v0,$8
80107974:	1c00a98c 	lw	t1,28(a1)
80107978:	00000000 	nop
8010797c:	00308948 	mtc2	t1,$6
	...
80107988:	1000784a 	c2	0x780010
8010798c:	1c00a224 	addiu	v0,a1,28
80107990:	000056e8 	swc2	$22,0(v0)
80107994:	2c00a28f 	lw	v0,44(sp)
80107998:	00000000 	nop
8010799c:	b4e24224 	addiu	v0,v0,-7500
801079a0:	00408248 	mtc2	v0,$8
801079a4:	2800a98c 	lw	t1,40(a1)
801079a8:	00000000 	nop
801079ac:	00308948 	mtc2	t1,$6
	...
801079b8:	1000784a 	c2	0x780010
801079bc:	2800a224 	addiu	v0,a1,40
801079c0:	000056e8 	swc2	$22,0(v0)
801079c4:	0000228e 	lw	v0,0(s1)
801079c8:	00000000 	nop
801079cc:	80100200 	sll	v0,v0,0x2
801079d0:	2110c202 	addu	v0,s6,v0
801079d4:	0000438c 	lw	v1,0(v0)
801079d8:	000c043c 	lui	a0,0xc00
801079dc:	25186400 	or	v1,v1,a0
801079e0:	0000a3ac 	sw	v1,0(a1)
801079e4:	000045ac 	sw	a1,0(v0)
801079e8:	3400a524 	addiu	a1,a1,52
801079ec:	2c001026 	addiu	s0,s0,44
801079f0:	2c005226 	addiu	s2,s2,44
801079f4:	21106002 	move	v0,s3
801079f8:	57fe4014 	bnez	v0,0x80107358
801079fc:	ffff7326 	addiu	s3,s3,-1
80107a00:	0c80023c 	lui	v0,0x800c
80107a04:	44f545ac 	sw	a1,-2748(v0)
80107a08:	21104002 	move	v0,s2
80107a0c:	9000bf8f 	lw	ra,144(sp)
80107a10:	8c00b78f 	lw	s7,140(sp)
80107a14:	8800b68f 	lw	s6,136(sp)
80107a18:	8400b58f 	lw	s5,132(sp)
80107a1c:	8000b48f 	lw	s4,128(sp)
80107a20:	7c00b38f 	lw	s3,124(sp)
80107a24:	7800b28f 	lw	s2,120(sp)
80107a28:	7400b18f 	lw	s1,116(sp)
80107a2c:	7000b08f 	lw	s0,112(sp)
80107a30:	0800e003 	jr	ra
80107a34:	9800bd27 	addiu	sp,sp,152
80107a38:	d8ffbd27 	addiu	sp,sp,-40
80107a3c:	2400bfaf 	sw	ra,36(sp)
80107a40:	2000b4af 	sw	s4,32(sp)
80107a44:	1c00b3af 	sw	s3,28(sp)
80107a48:	1800b2af 	sw	s2,24(sp)
80107a4c:	1400b1af 	sw	s1,20(sp)
80107a50:	1000b0af 	sw	s0,16(sp)
80107a54:	06008290 	lbu	v0,6(a0)
80107a58:	00000000 	nop
80107a5c:	39004010 	beqz	v0,0x80107b44
80107a60:	1280023c 	lui	v0,0x8012
80107a64:	e4c040ac 	sw	zero,-16156(v0)
80107a68:	1280023c 	lui	v0,0x8012
80107a6c:	21180000 	move	v1,zero
80107a70:	21386000 	move	a3,v1
80107a74:	21406000 	move	t0,v1
80107a78:	e0c040ac 	sw	zero,-16160(v0)
80107a7c:	00a8c348 	ctc2	v1,$21
80107a80:	00b0c748 	ctc2	a3,$22
80107a84:	00b8c848 	ctc2	t0,$23
80107a88:	10009124 	addiu	s1,a0,16
80107a8c:	801f033c 	lui	v1,0x1f80
80107a90:	f8006324 	addiu	v1,v1,248
80107a94:	06008290 	lbu	v0,6(a0)
80107a98:	0c00948c 	lw	s4,12(a0)
80107a9c:	40100200 	sll	v0,v0,0x1
80107aa0:	10004224 	addiu	v0,v0,16
80107aa4:	21988200 	addu	s3,a0,v0
80107aa8:	0f80023c 	lui	v0,0x800f
80107aac:	c8d8528c 	lw	s2,-10040(v0)
80107ab0:	00006c8c 	lw	t4,0(v1)
80107ab4:	04006d8c 	lw	t5,4(v1)
80107ab8:	0000cc48 	ctc2	t4,$0
80107abc:	0008cd48 	ctc2	t5,$1
80107ac0:	08006c8c 	lw	t4,8(v1)
80107ac4:	0c006d8c 	lw	t5,12(v1)
80107ac8:	10006e8c 	lw	t6,16(v1)
80107acc:	0010cc48 	ctc2	t4,$2
80107ad0:	0018cd48 	ctc2	t5,$3
80107ad4:	0020ce48 	ctc2	t6,$4
80107ad8:	801f073c 	lui	a3,0x1f80
80107adc:	f800e724 	addiu	a3,a3,248
80107ae0:	1400ec8c 	lw	t4,20(a3)
80107ae4:	1800ed8c 	lw	t5,24(a3)
80107ae8:	0028cc48 	ctc2	t4,$5
80107aec:	1c00ee8c 	lw	t6,28(a3)
80107af0:	0030cd48 	ctc2	t5,$6
80107af4:	0038ce48 	ctc2	t6,$7
80107af8:	2b103302 	sltu	v0,s1,s3
80107afc:	11004010 	beqz	v0,0x80107b44
80107b00:	21284002 	move	a1,s2
80107b04:	00002496 	lhu	a0,0(s1)
80107b08:	02003126 	addiu	s1,s1,2
80107b0c:	80200400 	sll	a0,a0,0x2
80107b10:	21208402 	addu	a0,s4,a0
80107b14:	0000908c 	lw	s0,0(a0)
80107b18:	04008424 	addiu	a0,a0,4
80107b1c:	2540040c 	jal	0x80110094
80107b20:	ff000632 	andi	a2,s0,0xff
80107b24:	02841000 	srl	s0,s0,0x10
80107b28:	21204000 	move	a0,v0
80107b2c:	21284002 	move	a1,s2
80107b30:	a440040c 	jal	0x80110290
80107b34:	ff000632 	andi	a2,s0,0xff
80107b38:	2b103302 	sltu	v0,s1,s3
80107b3c:	f1ff4014 	bnez	v0,0x80107b04
80107b40:	21284002 	move	a1,s2
80107b44:	2400bf8f 	lw	ra,36(sp)
80107b48:	2000b48f 	lw	s4,32(sp)
80107b4c:	1c00b38f 	lw	s3,28(sp)
80107b50:	1800b28f 	lw	s2,24(sp)
80107b54:	1400b18f 	lw	s1,20(sp)
80107b58:	1000b08f 	lw	s0,16(sp)
80107b5c:	0800e003 	jr	ra
80107b60:	2800bd27 	addiu	sp,sp,40
80107b64:	68ffbd27 	addiu	sp,sp,-152
80107b68:	0c80023c 	lui	v0,0x800c
80107b6c:	8c00b7af 	sw	s7,140(sp)
80107b70:	21b80000 	move	s7,zero
80107b74:	1800a327 	addiu	v1,sp,24
80107b78:	8800b6af 	sw	s6,136(sp)
80107b7c:	44f5568c 	lw	s6,-2748(v0)
80107b80:	1180023c 	lui	v0,0x8011
80107b84:	dc8f4224 	addiu	v0,v0,-28708
80107b88:	40004424 	addiu	a0,v0,64
80107b8c:	9400bfaf 	sw	ra,148(sp)
80107b90:	9000beaf 	sw	s8,144(sp)
80107b94:	8400b5af 	sw	s5,132(sp)
80107b98:	8000b4af 	sw	s4,128(sp)
80107b9c:	7c00b3af 	sw	s3,124(sp)
80107ba0:	7800b2af 	sw	s2,120(sp)
80107ba4:	7400b1af 	sw	s1,116(sp)
80107ba8:	7000b0af 	sw	s0,112(sp)
80107bac:	00004b8c 	lw	t3,0(v0)
80107bb0:	04004c8c 	lw	t4,4(v0)
80107bb4:	08004d8c 	lw	t5,8(v0)
80107bb8:	0c004e8c 	lw	t6,12(v0)
80107bbc:	00006bac 	sw	t3,0(v1)
80107bc0:	04006cac 	sw	t4,4(v1)
80107bc4:	08006dac 	sw	t5,8(v1)
80107bc8:	0c006eac 	sw	t6,12(v1)
80107bcc:	10004224 	addiu	v0,v0,16
80107bd0:	f6ff4414 	bne	v0,a0,0x80107bac
80107bd4:	10006324 	addiu	v1,v1,16
80107bd8:	801f023c 	lui	v0,0x1f80
80107bdc:	35014290 	lbu	v0,309(v0)
80107be0:	00000000 	nop
80107be4:	04004014 	bnez	v0,0x80107bf8
80107be8:	0e80023c 	lui	v0,0x800e
80107bec:	0d80023c 	lui	v0,0x800d
80107bf0:	e6420408 	j	0x80110b98
80107bf4:	683e4324 	addiu	v1,v0,15976
80107bf8:	687e4324 	addiu	v1,v0,32360
80107bfc:	ff00023c 	lui	v0,0xff
80107c00:	ffff4234 	ori	v0,v0,0xffff
80107c04:	24186200 	and	v1,v1,v0
80107c08:	0c80023c 	lui	v0,0x800c
80107c0c:	44f5428c 	lw	v0,-2748(v0)
80107c10:	e8ed6324 	addiu	v1,v1,-4632
80107c14:	2b104300 	sltu	v0,v0,v1
80107c18:	de004010 	beqz	v0,0x80107f94
80107c1c:	21f00000 	move	s8,zero
80107c20:	5800a0af 	sw	zero,88(sp)
80107c24:	0000b284 	lh	s2,0(a1)
80107c28:	0200b384 	lh	s3,2(a1)
80107c2c:	2400c226 	addiu	v0,s6,36
80107c30:	180052a4 	sh	s2,24(v0)
80107c34:	1800d2a6 	sh	s2,24(s6)
80107c38:	1a0053a4 	sh	s3,26(v0)
80107c3c:	1800a227 	addiu	v0,sp,24
80107c40:	04004016 	bnez	s2,0x80107c54
80107c44:	1a00d3a6 	sh	s3,26(s6)
80107c48:	03006016 	bnez	s3,0x80107c58
80107c4c:	01000b24 	li	t3,1
80107c50:	01001724 	li	s7,1
80107c54:	01000b24 	li	t3,1
80107c58:	00080a3c 	lui	t2,0x800
80107c5c:	04004924 	addiu	t1,v0,4
80107c60:	0400a524 	addiu	a1,a1,4
80107c64:	6c00d126 	addiu	s1,s6,108
80107c68:	2400cc26 	addiu	t4,s6,36
80107c6c:	5c00abaf 	sw	t3,92(sp)
80107c70:	6000a5af 	sw	a1,96(sp)
80107c74:	6400acaf 	sw	t4,100(sp)
80107c78:	40b81700 	sll	s7,s7,0x1
80107c7c:	6000ad8f 	lw	t5,96(sp)
80107c80:	00000000 	nop
80107c84:	0000b485 	lh	s4,0(t5)
80107c88:	0200b585 	lh	s5,2(t5)
80107c8c:	04008016 	bnez	s4,0x80107ca0
80107c90:	0300f732 	andi	s7,s7,0x3
80107c94:	0200a016 	bnez	s5,0x80107ca0
80107c98:	00000000 	nop
80107c9c:	0100f736 	ori	s7,s7,0x1
80107ca0:	05009216 	bne	s4,s2,0x80107cb8
80107ca4:	2320b302 	subu	a0,s5,s3
80107ca8:	0400b316 	bne	s5,s3,0x80107cbc
80107cac:	23289202 	subu	a1,s4,s2
80107cb0:	0100f736 	ori	s7,s7,0x1
80107cb4:	2320b302 	subu	a0,s5,s3
80107cb8:	23289202 	subu	a1,s4,s2
80107cbc:	6800a9af 	sw	t1,104(sp)
80107cc0:	a415020c 	jal	0x80085690
80107cc4:	6c00aaaf 	sw	t2,108(sp)
80107cc8:	00045024 	addiu	s0,v0,1024
80107ccc:	d40f020c 	jal	0x80083f50
80107cd0:	21200002 	move	a0,s0
80107cd4:	21200002 	move	a0,s0
80107cd8:	40100200 	sll	v0,v0,0x1
80107cdc:	00084224 	addiu	v0,v0,2048
80107ce0:	a00f020c 	jal	0x80083e80
80107ce4:	03830200 	sra	s0,v0,0xc
80107ce8:	40100200 	sll	v0,v0,0x1
80107cec:	00084224 	addiu	v0,v0,2048
80107cf0:	032b0200 	sra	a1,v0,0xc
80107cf4:	80381e00 	sll	a3,s8,0x2
80107cf8:	80201000 	sll	a0,s0,0x2
80107cfc:	80300500 	sll	a2,a1,0x2
80107d00:	5800ae8f 	lw	t6,88(sp)
80107d04:	6800a98f 	lw	t1,104(sp)
80107d08:	6c00aa8f 	lw	t2,108(sp)
80107d0c:	8300e016 	bnez	s7,0x80107f1c
80107d10:	80400e00 	sll	t0,t6,0x2
80107d14:	c4ff20ae 	sw	zero,-60(s1)
80107d18:	bcff20ae 	sw	zero,-68(s1)
80107d1c:	a0ff20ae 	sw	zero,-96(s1)
80107d20:	98ff20ae 	sw	zero,-104(s1)
80107d24:	fcff228d 	lw	v0,-4(t1)
80107d28:	00000000 	nop
80107d2c:	ccff22ae 	sw	v0,-52(s1)
80107d30:	a8ff22ae 	sw	v0,-88(s1)
80107d34:	0000228d 	lw	v0,0(t1)
80107d38:	7fff033c 	lui	v1,0xff7f
80107d3c:	0c0020ae 	sw	zero,12(s1)
80107d40:	040020ae 	sw	zero,4(s1)
80107d44:	e8ff20ae 	sw	zero,-24(s1)
80107d48:	e0ff20ae 	sw	zero,-32(s1)
80107d4c:	d4ff22ae 	sw	v0,-44(s1)
80107d50:	b0ff22ae 	sw	v0,-80(s1)
80107d54:	fcff228d 	lw	v0,-4(t1)
80107d58:	7f7f6334 	ori	v1,v1,0x7f7f
80107d5c:	42100200 	srl	v0,v0,0x1
80107d60:	24104300 	and	v0,v0,v1
80107d64:	140022ae 	sw	v0,20(s1)
80107d68:	f0ff22ae 	sw	v0,-16(s1)
80107d6c:	0000228d 	lw	v0,0(t1)
80107d70:	00000000 	nop
80107d74:	42100200 	srl	v0,v0,0x1
80107d78:	24104300 	and	v0,v0,v1
80107d7c:	1c0022ae 	sw	v0,28(s1)
80107d80:	f8ff22ae 	sw	v0,-8(s1)
80107d84:	5c00ab8f 	lw	t3,92(sp)
80107d88:	01000224 	li	v0,1
80107d8c:	10006215 	bne	t3,v0,0x80107dd0
80107d90:	23105002 	subu	v0,s2,s0
80107d94:	9cff22a6 	sh	v0,-100(s1)
80107d98:	23106502 	subu	v0,s3,a1
80107d9c:	9eff22a6 	sh	v0,-98(s1)
80107da0:	21105002 	addu	v0,s2,s0
80107da4:	c0ff22a6 	sh	v0,-64(s1)
80107da8:	21106502 	addu	v0,s3,a1
80107dac:	c2ff22a6 	sh	v0,-62(s1)
80107db0:	23104402 	subu	v0,s2,a0
80107db4:	e4ff22a6 	sh	v0,-28(s1)
80107db8:	23106602 	subu	v0,s3,a2
80107dbc:	e6ff22a6 	sh	v0,-26(s1)
80107dc0:	21104402 	addu	v0,s2,a0
80107dc4:	080022a6 	sh	v0,8(s1)
80107dc8:	6c430408 	j	0x80110db0
80107dcc:	21106602 	addu	v0,s3,a2
80107dd0:	23105e02 	subu	v0,s2,s8
80107dd4:	9cff22a6 	sh	v0,-100(s1)
80107dd8:	5800ac8f 	lw	t4,88(sp)
80107ddc:	00000000 	nop
80107de0:	23106c02 	subu	v0,s3,t4
80107de4:	9eff22a6 	sh	v0,-98(s1)
80107de8:	21105e02 	addu	v0,s2,s8
80107dec:	c0ff22a6 	sh	v0,-64(s1)
80107df0:	21106c02 	addu	v0,s3,t4
80107df4:	c2ff22a6 	sh	v0,-62(s1)
80107df8:	23104702 	subu	v0,s2,a3
80107dfc:	e4ff22a6 	sh	v0,-28(s1)
80107e00:	23106802 	subu	v0,s3,t0
80107e04:	e6ff22a6 	sh	v0,-26(s1)
80107e08:	21104702 	addu	v0,s2,a3
80107e0c:	080022a6 	sh	v0,8(s1)
80107e10:	21106802 	addu	v0,s3,t0
80107e14:	0a0022a6 	sh	v0,10(s1)
80107e18:	23109002 	subu	v0,s4,s0
80107e1c:	a4ff22a6 	sh	v0,-92(s1)
80107e20:	2310a502 	subu	v0,s5,a1
80107e24:	a6ff22a6 	sh	v0,-90(s1)
80107e28:	21109002 	addu	v0,s4,s0
80107e2c:	c8ff22a6 	sh	v0,-56(s1)
80107e30:	2110a502 	addu	v0,s5,a1
80107e34:	caff22a6 	sh	v0,-54(s1)
80107e38:	23108402 	subu	v0,s4,a0
80107e3c:	ecff22a6 	sh	v0,-20(s1)
80107e40:	2310a602 	subu	v0,s5,a2
80107e44:	eeff22a6 	sh	v0,-18(s1)
80107e48:	21108402 	addu	v0,s4,a0
80107e4c:	100022a6 	sh	v0,16(s1)
80107e50:	2110a602 	addu	v0,s5,a2
80107e54:	120022a6 	sh	v0,18(s1)
80107e58:	3a000224 	li	v0,58
80107e5c:	d0ff32a6 	sh	s2,-48(s1)
80107e60:	acff32a6 	sh	s2,-84(s1)
80107e64:	d2ff33a6 	sh	s3,-46(s1)
80107e68:	aeff33a6 	sh	s3,-82(s1)
80107e6c:	d8ff34a6 	sh	s4,-40(s1)
80107e70:	b4ff34a6 	sh	s4,-76(s1)
80107e74:	daff35a6 	sh	s5,-38(s1)
80107e78:	b6ff35a6 	sh	s5,-74(s1)
80107e7c:	180032a6 	sh	s2,24(s1)
80107e80:	f4ff32a6 	sh	s2,-12(s1)
80107e84:	1a0033a6 	sh	s3,26(s1)
80107e88:	f6ff33a6 	sh	s3,-10(s1)
80107e8c:	200034a6 	sh	s4,32(s1)
80107e90:	fcff34a6 	sh	s4,-4(s1)
80107e94:	220035a6 	sh	s5,34(s1)
80107e98:	feff35a6 	sh	s5,-2(s1)
80107e9c:	9bff22a2 	sb	v0,-101(s1)
80107ea0:	bfff22a2 	sb	v0,-65(s1)
80107ea4:	e3ff22a2 	sb	v0,-29(s1)
80107ea8:	070022a2 	sb	v0,7(s1)
80107eac:	0f800d3c 	lui	t5,0x800f
80107eb0:	c8d8a38d 	lw	v1,-10040(t5)
80107eb4:	00000000 	nop
80107eb8:	1000628c 	lw	v0,16(v1)
80107ebc:	00000000 	nop
80107ec0:	25104a00 	or	v0,v0,t2
80107ec4:	0000c2ae 	sw	v0,0(s6)
80107ec8:	100076ac 	sw	s6,16(v1)
80107ecc:	c8d8a48d 	lw	a0,-10040(t5)
80107ed0:	00000000 	nop
80107ed4:	1000828c 	lw	v0,16(a0)
80107ed8:	00000000 	nop
80107edc:	25104a00 	or	v0,v0,t2
80107ee0:	b8ff22ae 	sw	v0,-72(s1)
80107ee4:	6400ae8f 	lw	t6,100(sp)
80107ee8:	00000000 	nop
80107eec:	10008eac 	sw	t6,16(a0)
80107ef0:	4800c326 	addiu	v1,s6,72
80107ef4:	2510ca01 	or	v0,t6,t2
80107ef8:	dcff22ae 	sw	v0,-36(s1)
80107efc:	100083ac 	sw	v1,16(a0)
80107f00:	25186a00 	or	v1,v1,t2
80107f04:	000023ae 	sw	v1,0(s1)
80107f08:	100091ac 	sw	s1,16(a0)
80107f0c:	90003126 	addiu	s1,s1,144
80107f10:	9000ce25 	addiu	t6,t6,144
80107f14:	9000d626 	addiu	s6,s6,144
80107f18:	6400aeaf 	sw	t6,100(sp)
80107f1c:	21f00002 	move	s8,s0
80107f20:	21908002 	move	s2,s4
80107f24:	2198a002 	move	s3,s5
80107f28:	6000ab8f 	lw	t3,96(sp)
80107f2c:	5c00ac8f 	lw	t4,92(sp)
80107f30:	04002925 	addiu	t1,t1,4
80107f34:	5800a5af 	sw	a1,88(sp)
80107f38:	04006b25 	addiu	t3,t3,4
80107f3c:	01008c25 	addiu	t4,t4,1
80107f40:	0b008229 	slti	v0,t4,11
80107f44:	6000abaf 	sw	t3,96(sp)
80107f48:	4bff4014 	bnez	v0,0x80107c78
80107f4c:	5c00acaf 	sw	t4,92(sp)
80107f50:	2120c002 	move	a0,s6
80107f54:	21280000 	move	a1,zero
80107f58:	01000624 	li	a2,1
80107f5c:	35000724 	li	a3,53
80107f60:	780f020c 	jal	0x80083de0
80107f64:	1000a0af 	sw	zero,16(sp)
80107f68:	0f80023c 	lui	v0,0x800f
80107f6c:	c8d8448c 	lw	a0,-10040(v0)
80107f70:	00000000 	nop
80107f74:	1000828c 	lw	v0,16(a0)
80107f78:	0002033c 	lui	v1,0x200
80107f7c:	25104300 	or	v0,v0,v1
80107f80:	0000c2ae 	sw	v0,0(s6)
80107f84:	100096ac 	sw	s6,16(a0)
80107f88:	0c00d626 	addiu	s6,s6,12
80107f8c:	0c80023c 	lui	v0,0x800c
80107f90:	44f556ac 	sw	s6,-2748(v0)
80107f94:	9400bf8f 	lw	ra,148(sp)
80107f98:	9000be8f 	lw	s8,144(sp)
80107f9c:	8c00b78f 	lw	s7,140(sp)
80107fa0:	8800b68f 	lw	s6,136(sp)
80107fa4:	8400b58f 	lw	s5,132(sp)
80107fa8:	8000b48f 	lw	s4,128(sp)
80107fac:	7c00b38f 	lw	s3,124(sp)
80107fb0:	7800b28f 	lw	s2,120(sp)
80107fb4:	7400b18f 	lw	s1,116(sp)
80107fb8:	7000b08f 	lw	s0,112(sp)
80107fbc:	0800e003 	jr	ra
80107fc0:	9800bd27 	addiu	sp,sp,152
80107fc4:	d8ffbd27 	addiu	sp,sp,-40
80107fc8:	1400b1af 	sw	s1,20(sp)
80107fcc:	21888000 	move	s1,a0
80107fd0:	801f023c 	lui	v0,0x1f80
80107fd4:	1800b2af 	sw	s2,24(sp)
80107fd8:	80005224 	addiu	s2,v0,128
80107fdc:	1c00b3af 	sw	s3,28(sp)
80107fe0:	21984002 	move	s3,s2
80107fe4:	1000b0af 	sw	s0,16(sp)
80107fe8:	2000bfaf 	sw	ra,32(sp)
80107fec:	04002392 	lbu	v1,4(s1)
80107ff0:	01000424 	li	a0,1
80107ff4:	0e006410 	beq	v1,a0,0x80108030
80107ff8:	2c003026 	addiu	s0,s1,44
80107ffc:	02006228 	slti	v0,v1,2
80108000:	05004010 	beqz	v0,0x80108018
80108004:	04006228 	slti	v0,v1,4
80108008:	07006010 	beqz	v1,0x80108028
8010800c:	10000224 	li	v0,16
80108010:	4f440408 	j	0x8011113c
80108014:	00000000 	nop
80108018:	61004010 	beqz	v0,0x801081a0
8010801c:	00000000 	nop
80108020:	4d440408 	j	0x80111134
80108024:	00000000 	nop
80108028:	040024a2 	sb	a0,4(s1)
8010802c:	050022a2 	sb	v0,5(s1)
80108030:	0f000524 	li	a1,15
80108034:	80200500 	sll	a0,a1,0x2
80108038:	ffffa524 	addiu	a1,a1,-1
8010803c:	80100500 	sll	v0,a1,0x2
80108040:	21100202 	addu	v0,s0,v0
80108044:	10004394 	lhu	v1,16(v0)
80108048:	21200402 	addu	a0,s0,a0
8010804c:	100083a4 	sh	v1,16(a0)
80108050:	12004294 	lhu	v0,18(v0)
80108054:	f7ffa01c 	bgtz	a1,0x80108034
80108058:	120082a4 	sh	v0,18(a0)
8010805c:	78ca000c 	jal	0x800329e0
80108060:	06000424 	li	a0,6
80108064:	2c002226 	addiu	v0,s1,44
80108068:	000040c8 	lwc2	$0,0(v0)
8010806c:	040041c8 	lwc2	$1,4(v0)
	...
80108078:	0100184a 	c2	0x180001
8010807c:	00f84c48 	cfc2	t4,$31
80108080:	00000000 	nop
80108084:	00006cae 	sw	t4,0(s3)
80108088:	0000628e 	lw	v0,0(s3)
8010808c:	00000000 	nop
80108090:	13004004 	bltz	v0,0x801080e0
80108094:	00000000 	nop
80108098:	000053ea 	swc2	$19,0(s2)
8010809c:	0000438e 	lw	v1,0(s2)
801080a0:	00000000 	nop
801080a4:	83100300 	sra	v0,v1,0x2
801080a8:	031b0300 	sra	v1,v1,0xc
801080ac:	07106200 	srav	v0,v0,v1
801080b0:	401a0300 	sll	v1,v1,0x9
801080b4:	21104300 	addu	v0,v0,v1
801080b8:	000042ae 	sw	v0,0(s2)
801080bc:	fcff4224 	addiu	v0,v0,-4
801080c0:	fc07422c 	sltiu	v0,v0,2044
801080c4:	02004014 	bnez	v0,0x801080d0
801080c8:	ffff0224 	li	v0,-1
801080cc:	000042ae 	sw	v0,0(s2)
801080d0:	0000428e 	lw	v0,0(s2)
801080d4:	00000000 	nop
801080d8:	0300401c 	bgtz	v0,0x801080e8
801080dc:	10000226 	addiu	v0,s0,16
801080e0:	22440408 	j	0x80111088
801080e4:	100000ae 	sw	zero,16(s0)
801080e8:	00004ee8 	swc2	$14,0(v0)
801080ec:	2c002296 	lhu	v0,44(s1)
801080f0:	08000396 	lhu	v1,8(s0)
801080f4:	00000000 	nop
801080f8:	21104300 	addu	v0,v0,v1
801080fc:	2c0022a6 	sh	v0,44(s1)
80108100:	2e002296 	lhu	v0,46(s1)
80108104:	0a000396 	lhu	v1,10(s0)
80108108:	00000000 	nop
8010810c:	21104300 	addu	v0,v0,v1
80108110:	2e0022a6 	sh	v0,46(s1)
80108114:	30002296 	lhu	v0,48(s1)
80108118:	0c000396 	lhu	v1,12(s0)
8010811c:	00000000 	nop
80108120:	21104300 	addu	v0,v0,v1
80108124:	300022a6 	sh	v0,48(s1)
80108128:	0a000296 	lhu	v0,10(s0)
8010812c:	00000000 	nop
80108130:	02004224 	addiu	v0,v0,2
80108134:	0a0002a6 	sh	v0,10(s0)
80108138:	05002392 	lbu	v1,5(s1)
8010813c:	10000224 	li	v0,16
80108140:	09006214 	bne	v1,v0,0x80108168
80108144:	00000000 	nop
80108148:	01000524 	li	a1,1
8010814c:	04000326 	addiu	v1,s0,4
80108150:	1000028e 	lw	v0,16(s0)
80108154:	0100a524 	addiu	a1,a1,1
80108158:	100062ac 	sw	v0,16(v1)
8010815c:	1000a228 	slti	v0,a1,16
80108160:	fbff4014 	bnez	v0,0x80108150
80108164:	04006324 	addiu	v1,v1,4
80108168:	05002292 	lbu	v0,5(s1)
8010816c:	00000000 	nop
80108170:	ffff4224 	addiu	v0,v0,-1
80108174:	050022a2 	sb	v0,5(s1)
80108178:	ff004230 	andi	v0,v0,0xff
8010817c:	03004010 	beqz	v0,0x8010818c
80108180:	01000224 	li	v0,1
80108184:	4f440408 	j	0x8011113c
80108188:	010022a2 	sb	v0,1(s1)
8010818c:	02000224 	li	v0,2
80108190:	4f440408 	j	0x8011113c
80108194:	040022a2 	sb	v0,4(s1)
80108198:	89e9010c 	jal	0x8007a624
8010819c:	21202002 	move	a0,s1
801081a0:	2000bf8f 	lw	ra,32(sp)
801081a4:	1c00b38f 	lw	s3,28(sp)
801081a8:	1800b28f 	lw	s2,24(sp)
801081ac:	1400b18f 	lw	s1,20(sp)
801081b0:	1000b08f 	lw	s0,16(sp)
801081b4:	0800e003 	jr	ra
801081b8:	2800bd27 	addiu	sp,sp,40
801081bc:	e8ffbd27 	addiu	sp,sp,-24
801081c0:	21288000 	move	a1,a0
801081c4:	01000424 	li	a0,1
801081c8:	1000bfaf 	sw	ra,16(sp)
801081cc:	1000a68c 	lw	a2,16(a1)
801081d0:	0400a390 	lbu	v1,4(a1)
801081d4:	00000000 	nop
801081d8:	14006410 	beq	v1,a0,0x8010822c
801081dc:	6000c724 	addiu	a3,a2,96
801081e0:	02006228 	slti	v0,v1,2
801081e4:	05004010 	beqz	v0,0x801081fc
801081e8:	00000000 	nop
801081ec:	08006010 	beqz	v1,0x80108210
801081f0:	1280023c 	lui	v0,0x8012
801081f4:	e9440408 	j	0x801113a4
801081f8:	00000000 	nop
801081fc:	04006228 	slti	v0,v1,4
80108200:	81004010 	beqz	v0,0x80108408
80108204:	00000000 	nop
80108208:	e7440408 	j	0x8011139c
8010820c:	00000000 	nop
80108210:	28bc4324 	addiu	v1,v0,-17368
80108214:	0400a4a0 	sb	a0,4(a1)
80108218:	28bc4294 	lhu	v0,-17368(v0)
8010821c:	02006394 	lhu	v1,2(v1)
80108220:	3800a0ac 	sw	zero,56(a1)
80108224:	4400a2a4 	sh	v0,68(a1)
80108228:	4600a3a4 	sh	v1,70(a1)
8010822c:	0400c290 	lbu	v0,4(a2)
80108230:	00000000 	nop
80108234:	0200422c 	sltiu	v0,v0,2
80108238:	03004014 	bnez	v0,0x80108248
8010823c:	02000224 	li	v0,2
80108240:	e9440408 	j	0x801113a4
80108244:	0400a2a0 	sb	v0,4(a1)
80108248:	3800a28c 	lw	v0,56(a1)
8010824c:	00000000 	nop
80108250:	05004014 	bnez	v0,0x80108268
80108254:	3400a2ac 	sw	v0,52(a1)
80108258:	1280023c 	lui	v0,0x8012
8010825c:	2cbc4224 	addiu	v0,v0,-17364
80108260:	3800a2ac 	sw	v0,56(a1)
80108264:	3400a2ac 	sw	v0,52(a1)
80108268:	1200e290 	lbu	v0,18(a3)
8010826c:	5000a38c 	lw	v1,80(a1)
80108270:	00000000 	nop
80108274:	24104300 	and	v0,v0,v1
80108278:	63004010 	beqz	v0,0x80108408
8010827c:	00000000 	nop
80108280:	2e00c294 	lhu	v0,46(a2)
80108284:	5400a48c 	lw	a0,84(a1)
80108288:	2c00a2a4 	sh	v0,44(a1)
8010828c:	3200c294 	lhu	v0,50(a2)
80108290:	00000000 	nop
80108294:	2e00a2a4 	sh	v0,46(a1)
80108298:	3600c294 	lhu	v0,54(a2)
8010829c:	00000000 	nop
801082a0:	3000a2a4 	sh	v0,48(a1)
801082a4:	9c00c284 	lh	v0,156(a2)
801082a8:	00000000 	nop
801082ac:	18004400 	mult	v0,a0
801082b0:	2c00a294 	lhu	v0,44(a1)
801082b4:	12400000 	mflo	t0
801082b8:	031b0800 	sra	v1,t0,0xc
801082bc:	21104300 	addu	v0,v0,v1
801082c0:	2c00a2a4 	sh	v0,44(a1)
801082c4:	a200c284 	lh	v0,162(a2)
801082c8:	00000000 	nop
801082cc:	18004400 	mult	v0,a0
801082d0:	2e00a294 	lhu	v0,46(a1)
801082d4:	12400000 	mflo	t0
801082d8:	031b0800 	sra	v1,t0,0xc
801082dc:	21104300 	addu	v0,v0,v1
801082e0:	2e00a2a4 	sh	v0,46(a1)
801082e4:	a800c284 	lh	v0,168(a2)
801082e8:	00000000 	nop
801082ec:	18004400 	mult	v0,a0
801082f0:	3000a294 	lhu	v0,48(a1)
801082f4:	12400000 	mflo	t0
801082f8:	031b0800 	sra	v1,t0,0xc
801082fc:	21104300 	addu	v0,v0,v1
80108300:	3000a2a4 	sh	v0,48(a1)
80108304:	9800c384 	lh	v1,152(a2)
80108308:	00000000 	nop
8010830c:	c0100300 	sll	v0,v1,0x3
80108310:	23104300 	subu	v0,v0,v1
80108314:	c0100200 	sll	v0,v0,0x3
80108318:	23104300 	subu	v0,v0,v1
8010831c:	40100200 	sll	v0,v0,0x1
80108320:	23100200 	negu	v0,v0
80108324:	2c00a394 	lhu	v1,44(a1)
80108328:	03130200 	sra	v0,v0,0xc
8010832c:	21186200 	addu	v1,v1,v0
80108330:	2c00a3a4 	sh	v1,44(a1)
80108334:	9e00c384 	lh	v1,158(a2)
80108338:	00000000 	nop
8010833c:	c0100300 	sll	v0,v1,0x3
80108340:	23104300 	subu	v0,v0,v1
80108344:	c0100200 	sll	v0,v0,0x3
80108348:	23104300 	subu	v0,v0,v1
8010834c:	40100200 	sll	v0,v0,0x1
80108350:	23100200 	negu	v0,v0
80108354:	2e00a394 	lhu	v1,46(a1)
80108358:	03130200 	sra	v0,v0,0xc
8010835c:	21186200 	addu	v1,v1,v0
80108360:	2e00a3a4 	sh	v1,46(a1)
80108364:	a400c384 	lh	v1,164(a2)
80108368:	00000000 	nop
8010836c:	c0100300 	sll	v0,v1,0x3
80108370:	23104300 	subu	v0,v0,v1
80108374:	c0100200 	sll	v0,v0,0x3
80108378:	23104300 	subu	v0,v0,v1
8010837c:	40100200 	sll	v0,v0,0x1
80108380:	23100200 	negu	v0,v0
80108384:	3000a394 	lhu	v1,48(a1)
80108388:	03130200 	sra	v0,v0,0xc
8010838c:	21186200 	addu	v1,v1,v0
80108390:	3000a3a4 	sh	v1,48(a1)
80108394:	9a00c384 	lh	v1,154(a2)
80108398:	00000000 	nop
8010839c:	40100300 	sll	v0,v1,0x1
801083a0:	21104300 	addu	v0,v0,v1
801083a4:	2c00a394 	lhu	v1,44(a1)
801083a8:	83110200 	sra	v0,v0,0x6
801083ac:	21186200 	addu	v1,v1,v0
801083b0:	2c00a3a4 	sh	v1,44(a1)
801083b4:	a000c384 	lh	v1,160(a2)
801083b8:	00000000 	nop
801083bc:	40100300 	sll	v0,v1,0x1
801083c0:	21104300 	addu	v0,v0,v1
801083c4:	2e00a394 	lhu	v1,46(a1)
801083c8:	83110200 	sra	v0,v0,0x6
801083cc:	21186200 	addu	v1,v1,v0
801083d0:	2e00a3a4 	sh	v1,46(a1)
801083d4:	a600c384 	lh	v1,166(a2)
801083d8:	00000000 	nop
801083dc:	40100300 	sll	v0,v1,0x1
801083e0:	21104300 	addu	v0,v0,v1
801083e4:	3000a394 	lhu	v1,48(a1)
801083e8:	83110200 	sra	v0,v0,0x6
801083ec:	21186200 	addu	v1,v1,v0
801083f0:	01000224 	li	v0,1
801083f4:	3000a3a4 	sh	v1,48(a1)
801083f8:	e9440408 	j	0x801113a4
801083fc:	0100a2a0 	sb	v0,1(a1)
80108400:	89e9010c 	jal	0x8007a624
80108404:	2120a000 	move	a0,a1
80108408:	1000bf8f 	lw	ra,16(sp)
8010840c:	00000000 	nop
80108410:	0800e003 	jr	ra
80108414:	1800bd27 	addiu	sp,sp,24
80108418:	e8ffbd27 	addiu	sp,sp,-24
8010841c:	3c008524 	addiu	a1,a0,60
80108420:	04000424 	li	a0,4
80108424:	1000bfaf 	sw	ra,16(sp)
80108428:	c042040c 	jal	0x80110b00
8010842c:	10000624 	li	a2,16
80108430:	1000bf8f 	lw	ra,16(sp)
80108434:	00000000 	nop
80108438:	0800e003 	jr	ra
8010843c:	1800bd27 	addiu	sp,sp,24
80108440:	e8ffbd27 	addiu	sp,sp,-24
80108444:	1000bfaf 	sw	ra,16(sp)
80108448:	04008390 	lbu	v1,4(a0)
8010844c:	01000524 	li	a1,1
80108450:	14006510 	beq	v1,a1,0x801084a4
80108454:	02006228 	slti	v0,v1,2
80108458:	05004010 	beqz	v0,0x80108470
8010845c:	00000000 	nop
80108460:	08006010 	beqz	v1,0x80108484
80108464:	1280023c 	lui	v0,0x8012
80108468:	1d450408 	j	0x80111474
8010846c:	00000000 	nop
80108470:	04006228 	slti	v0,v1,4
80108474:	18004010 	beqz	v0,0x801084d8
80108478:	00000000 	nop
8010847c:	1b450408 	j	0x8011146c
80108480:	00000000 	nop
80108484:	64bb4324 	addiu	v1,v0,-17564
80108488:	040085a0 	sb	a1,4(a0)
8010848c:	64bb4294 	lhu	v0,-17564(v0)
80108490:	02006394 	lhu	v1,2(v1)
80108494:	380080ac 	sw	zero,56(a0)
80108498:	320080a4 	sh	zero,50(a0)
8010849c:	440082a4 	sh	v0,68(a0)
801084a0:	460083a4 	sh	v1,70(a0)
801084a4:	3800828c 	lw	v0,56(a0)
801084a8:	00000000 	nop
801084ac:	05004014 	bnez	v0,0x801084c4
801084b0:	340082ac 	sw	v0,52(a0)
801084b4:	1280023c 	lui	v0,0x8012
801084b8:	68bb4224 	addiu	v0,v0,-17560
801084bc:	380082ac 	sw	v0,56(a0)
801084c0:	340082ac 	sw	v0,52(a0)
801084c4:	01000224 	li	v0,1
801084c8:	1d450408 	j	0x80111474
801084cc:	010082a0 	sb	v0,1(a0)
801084d0:	89e9010c 	jal	0x8007a624
801084d4:	00000000 	nop
801084d8:	1000bf8f 	lw	ra,16(sp)
801084dc:	00000000 	nop
801084e0:	0800e003 	jr	ra
801084e4:	1800bd27 	addiu	sp,sp,24
801084e8:	0e80023c 	lui	v0,0x800e
801084ec:	687e4394 	lhu	v1,32360(v0)
801084f0:	98ffbd27 	addiu	sp,sp,-104
801084f4:	6000bfaf 	sw	ra,96(sp)
801084f8:	5c00b3af 	sw	s3,92(sp)
801084fc:	5800b2af 	sw	s2,88(sp)
80108500:	5400b1af 	sw	s1,84(sp)
80108504:	00406230 	andi	v0,v1,0x4000
80108508:	05004010 	beqz	v0,0x80108520
8010850c:	5000b0af 	sw	s0,80(sp)
80108510:	0c80023c 	lui	v0,0x800c
80108514:	08f84290 	lbu	v0,-2040(v0)
80108518:	9b450408 	j	0x8011166c
8010851c:	01004224 	addiu	v0,v0,1
80108520:	00106230 	andi	v0,v1,0x1000
80108524:	6a004014 	bnez	v0,0x801086d0
80108528:	01000224 	li	v0,1
8010852c:	40006230 	andi	v0,v1,0x40
80108530:	08004010 	beqz	v0,0x80108554
80108534:	0c80043c 	lui	a0,0x800c
80108538:	08f88390 	lbu	v1,-2040(a0)
8010853c:	00000000 	nop
80108540:	0200622c 	sltiu	v0,v1,2
80108544:	0f004010 	beqz	v0,0x80108584
80108548:	01006224 	addiu	v0,v1,1
8010854c:	44450408 	j	0x80111510
80108550:	08f882a0 	sb	v0,-2040(a0)
80108554:	10006230 	andi	v0,v1,0x10
80108558:	0a004010 	beqz	v0,0x80108584
8010855c:	0c80033c 	lui	v1,0x800c
80108560:	08f86290 	lbu	v0,-2040(v1)
80108564:	00000000 	nop
80108568:	06004010 	beqz	v0,0x80108584
8010856c:	ffff4224 	addiu	v0,v0,-1
80108570:	08f862a0 	sb	v0,-2040(v1)
80108574:	15000424 	li	a0,21
80108578:	21280000 	move	a1,zero
8010857c:	64d1010c 	jal	0x80074590
80108580:	2130a000 	move	a2,a1
80108584:	1800a427 	addiu	a0,sp,24
80108588:	03000524 	li	a1,3
8010858c:	3800a627 	addiu	a2,sp,56
80108590:	50000224 	li	v0,80
80108594:	2800a2af 	sw	v0,40(sp)
80108598:	64000224 	li	v0,100
8010859c:	2c00a2af 	sw	v0,44(sp)
801085a0:	0a80023c 	lui	v0,0x800a
801085a4:	54284224 	addiu	v0,v0,10324
801085a8:	1001438c 	lw	v1,272(v0)
801085ac:	1401478c 	lw	a3,276(v0)
801085b0:	1801488c 	lw	t0,280(v0)
801085b4:	78000224 	li	v0,120
801085b8:	3000a2af 	sw	v0,48(sp)
801085bc:	1800a3af 	sw	v1,24(sp)
801085c0:	1c00a7af 	sw	a3,28(sp)
801085c4:	f1e4010c 	jal	0x800793c4
801085c8:	2000a8af 	sw	t0,32(sp)
801085cc:	3800a48f 	lw	a0,56(sp)
801085d0:	3c00a38f 	lw	v1,60(sp)
801085d4:	00000000 	nop
801085d8:	2a108300 	slt	v0,a0,v1
801085dc:	08004010 	beqz	v0,0x80108600
801085e0:	00000000 	nop
801085e4:	4000b18f 	lw	s1,64(sp)
801085e8:	00000000 	nop
801085ec:	2a109100 	slt	v0,a0,s1
801085f0:	09004010 	beqz	v0,0x80108618
801085f4:	21800000 	move	s0,zero
801085f8:	6d450408 	j	0x801115b4
801085fc:	21888000 	move	s1,a0
80108600:	4000b18f 	lw	s1,64(sp)
80108604:	00000000 	nop
80108608:	2a107100 	slt	v0,v1,s1
8010860c:	02004010 	beqz	v0,0x80108618
80108610:	21800000 	move	s0,zero
80108614:	21886000 	move	s1,v1
80108618:	0c80133c 	lui	s3,0x800c
8010861c:	00241100 	sll	a0,s1,0x10
80108620:	80181000 	sll	v1,s0,0x2
80108624:	2800b227 	addiu	s2,sp,40
80108628:	21104302 	addu	v0,s2,v1
8010862c:	03240400 	sra	a0,a0,0x10
80108630:	00004584 	lh	a1,0(v0)
80108634:	08f86692 	lbu	a2,-2040(s3)
80108638:	2110a303 	addu	v0,sp,v1
8010863c:	1000a0af 	sw	zero,16(sp)
80108640:	1800478c 	lw	a3,24(v0)
80108644:	2630d000 	xor	a2,a2,s0
80108648:	0100c62c 	sltiu	a2,a2,1
8010864c:	dde4010c 	jal	0x80079374
80108650:	40300600 	sll	a2,a2,0x1
80108654:	01001026 	addiu	s0,s0,1
80108658:	0300022a 	slti	v0,s0,3
8010865c:	f0ff4014 	bnez	v0,0x80108620
80108660:	00241100 	sll	a0,s1,0x10
80108664:	0c80023c 	lui	v0,0x800c
80108668:	08f84290 	lbu	v0,-2040(v0)
8010866c:	f0ff2426 	addiu	a0,s1,-16
80108670:	80100200 	sll	v0,v0,0x2
80108674:	21104202 	addu	v0,s2,v0
80108678:	0000458c 	lw	a1,0(v0)
8010867c:	21300000 	move	a2,zero
80108680:	66fa010c 	jal	0x8007e998
80108684:	0400a524 	addiu	a1,a1,4
80108688:	4800a427 	addiu	a0,sp,72
8010868c:	21280000 	move	a1,zero
80108690:	01000624 	li	a2,1
80108694:	2138c000 	move	a3,a2
80108698:	e0ff2226 	addiu	v0,s1,-32
8010869c:	4800a2a7 	sh	v0,72(sp)
801086a0:	a0000224 	li	v0,160
801086a4:	23105100 	subu	v0,v0,s1
801086a8:	0410c200 	sllv	v0,v0,a2
801086ac:	30004224 	addiu	v0,v0,48
801086b0:	4c00a2a7 	sh	v0,76(sp)
801086b4:	2800a297 	lhu	v0,40(sp)
801086b8:	40000324 	li	v1,64
801086bc:	4e00a3a7 	sh	v1,78(sp)
801086c0:	fcff4224 	addiu	v0,v0,-4
801086c4:	6740010c 	jal	0x8005019c
801086c8:	4a00a2a7 	sh	v0,74(sp)
801086cc:	21100000 	move	v0,zero
801086d0:	6000bf8f 	lw	ra,96(sp)
801086d4:	5c00b38f 	lw	s3,92(sp)
801086d8:	5800b28f 	lw	s2,88(sp)
801086dc:	5400b18f 	lw	s1,84(sp)
801086e0:	5000b08f 	lw	s0,80(sp)
801086e4:	0800e003 	jr	ra
801086e8:	6800bd27 	addiu	sp,sp,104
801086ec:	0e80023c 	lui	v0,0x800e
801086f0:	687e4394 	lhu	v1,32360(v0)
801086f4:	98ffbd27 	addiu	sp,sp,-104
801086f8:	6000bfaf 	sw	ra,96(sp)
801086fc:	5c00b3af 	sw	s3,92(sp)
80108700:	5800b2af 	sw	s2,88(sp)
80108704:	5400b1af 	sw	s1,84(sp)
80108708:	00406230 	andi	v0,v1,0x4000
8010870c:	05004010 	beqz	v0,0x80108724
80108710:	5000b0af 	sw	s0,80(sp)
80108714:	0c80023c 	lui	v0,0x800c
80108718:	08f84290 	lbu	v0,-2040(v0)
8010871c:	10460408 	j	0x80111840
80108720:	01004224 	addiu	v0,v0,1
80108724:	40006230 	andi	v0,v1,0x40
80108728:	08004010 	beqz	v0,0x8010874c
8010872c:	10006230 	andi	v0,v1,0x10
80108730:	0c80033c 	lui	v1,0x800c
80108734:	08f86290 	lbu	v0,-2040(v1)
80108738:	00000000 	nop
8010873c:	0f004014 	bnez	v0,0x8010877c
80108740:	1800a427 	addiu	a0,sp,24
80108744:	c0450408 	j	0x80111700
80108748:	01004224 	addiu	v0,v0,1
8010874c:	0a004010 	beqz	v0,0x80108778
80108750:	0c80033c 	lui	v1,0x800c
80108754:	08f86290 	lbu	v0,-2040(v1)
80108758:	00000000 	nop
8010875c:	06004010 	beqz	v0,0x80108778
80108760:	ffff4224 	addiu	v0,v0,-1
80108764:	08f862a0 	sb	v0,-2040(v1)
80108768:	15000424 	li	a0,21
8010876c:	21280000 	move	a1,zero
80108770:	64d1010c 	jal	0x80074590
80108774:	2130a000 	move	a2,a1
80108778:	1800a427 	addiu	a0,sp,24
8010877c:	01000524 	li	a1,1
80108780:	3800b127 	addiu	s1,sp,56
80108784:	21302002 	move	a2,s1
80108788:	0a80103c 	lui	s0,0x800a
8010878c:	54281026 	addiu	s0,s0,10324
80108790:	0401028e 	lw	v0,260(s0)
80108794:	21900000 	move	s2,zero
80108798:	f1e4010c 	jal	0x800793c4
8010879c:	1800a2af 	sw	v0,24(sp)
801087a0:	3800a487 	lh	a0,56(sp)
801087a4:	70000524 	li	a1,112
801087a8:	1000a0af 	sw	zero,16(sp)
801087ac:	1800a78f 	lw	a3,24(sp)
801087b0:	dde4010c 	jal	0x80079374
801087b4:	21304002 	move	a2,s2
801087b8:	1800a427 	addiu	a0,sp,24
801087bc:	02000524 	li	a1,2
801087c0:	21302002 	move	a2,s1
801087c4:	6c000224 	li	v0,108
801087c8:	4a00a2a7 	sh	v0,74(sp)
801087cc:	84000224 	li	v0,132
801087d0:	2800a2af 	sw	v0,40(sp)
801087d4:	3800a297 	lhu	v0,56(sp)
801087d8:	98000324 	li	v1,152
801087dc:	2c00a3af 	sw	v1,44(sp)
801087e0:	3800a38f 	lw	v1,56(sp)
801087e4:	f0ff4224 	addiu	v0,v0,-16
801087e8:	4800a2a7 	sh	v0,72(sp)
801087ec:	a0000224 	li	v0,160
801087f0:	23104300 	subu	v0,v0,v1
801087f4:	40100200 	sll	v0,v0,0x1
801087f8:	0801038e 	lw	v1,264(s0)
801087fc:	0c01078e 	lw	a3,268(s0)
80108800:	20004224 	addiu	v0,v0,32
80108804:	4c00a2a7 	sh	v0,76(sp)
80108808:	1800a3af 	sw	v1,24(sp)
8010880c:	f1e4010c 	jal	0x800793c4
80108810:	1c00a7af 	sw	a3,28(sp)
80108814:	21984000 	move	s3,v0
80108818:	80181200 	sll	v1,s2,0x2
8010881c:	2120a303 	addu	a0,sp,v1
80108820:	2800b127 	addiu	s1,sp,40
80108824:	21102302 	addu	v0,s1,v1
80108828:	0c80103c 	lui	s0,0x800c
8010882c:	38008484 	lh	a0,56(a0)
80108830:	00004584 	lh	a1,0(v0)
80108834:	08f80692 	lbu	a2,-2040(s0)
80108838:	2110a303 	addu	v0,sp,v1
8010883c:	1000a0af 	sw	zero,16(sp)
80108840:	1800478c 	lw	a3,24(v0)
80108844:	2630d200 	xor	a2,a2,s2
80108848:	0100c62c 	sltiu	a2,a2,1
8010884c:	dde4010c 	jal	0x80079374
80108850:	40300600 	sll	a2,a2,0x1
80108854:	01005226 	addiu	s2,s2,1
80108858:	0200422a 	slti	v0,s2,2
8010885c:	efff4014 	bnez	v0,0x8010881c
80108860:	80181200 	sll	v1,s2,0x2
80108864:	08f80292 	lbu	v0,-2040(s0)
80108868:	21206002 	move	a0,s3
8010886c:	80100200 	sll	v0,v0,0x2
80108870:	21102202 	addu	v0,s1,v0
80108874:	0000458c 	lw	a1,0(v0)
80108878:	21300000 	move	a2,zero
8010887c:	66fa010c 	jal	0x8007e998
80108880:	0400a524 	addiu	a1,a1,4
80108884:	4800a427 	addiu	a0,sp,72
80108888:	21280000 	move	a1,zero
8010888c:	01000624 	li	a2,1
80108890:	2138c000 	move	a3,a2
80108894:	40000224 	li	v0,64
80108898:	6740010c 	jal	0x8005019c
8010889c:	4e00a2a7 	sh	v0,78(sp)
801088a0:	21100000 	move	v0,zero
801088a4:	6000bf8f 	lw	ra,96(sp)
801088a8:	5c00b38f 	lw	s3,92(sp)
801088ac:	5800b28f 	lw	s2,88(sp)
801088b0:	5400b18f 	lw	s1,84(sp)
801088b4:	5000b08f 	lw	s0,80(sp)
801088b8:	0800e003 	jr	ra
801088bc:	6800bd27 	addiu	sp,sp,104
801088c0:	e8ffbd27 	addiu	sp,sp,-24
801088c4:	1000b0af 	sw	s0,16(sp)
801088c8:	801f103c 	lui	s0,0x1f80
801088cc:	3801048e 	lw	a0,312(s0)
801088d0:	1400bfaf 	sw	ra,20(sp)
801088d4:	50008394 	lhu	v1,80(a0)
801088d8:	00000000 	nop
801088dc:	05006010 	beqz	v1,0x801088f4
801088e0:	01000224 	li	v0,1
801088e4:	09006210 	beq	v1,v0,0x8010890c
801088e8:	00000000 	nop
801088ec:	53460408 	j	0x8011194c
801088f0:	00000000 	nop
801088f4:	801f033c 	lui	v1,0x1f80
801088f8:	500082a4 	sh	v0,80(a0)
801088fc:	360162a0 	sb	v0,310(v1)
80108900:	0c80023c 	lui	v0,0x800c
80108904:	53460408 	j	0x8011194c
80108908:	08f840a0 	sb	zero,-2040(v0)
8010890c:	2145040c 	jal	0x80111484
80108910:	00000000 	nop
80108914:	21284000 	move	a1,v0
80108918:	2500a010 	beqz	a1,0x801089b0
8010891c:	02000624 	li	a2,2
80108920:	0a00a614 	bne	a1,a2,0x8010894c
80108924:	03000224 	li	v0,3
80108928:	801f023c 	lui	v0,0x1f80
8010892c:	370145a0 	sb	a1,311(v0)
80108930:	0c80023c 	lui	v0,0x800c
80108934:	08f84224 	addiu	v0,v0,-2040
80108938:	03000324 	li	v1,3
8010893c:	070045a0 	sb	a1,7(v0)
80108940:	050043a0 	sb	v1,5(v0)
80108944:	4b460408 	j	0x8011192c
80108948:	310040a0 	sb	zero,49(v0)
8010894c:	1100a214 	bne	a1,v0,0x80108994
80108950:	801f033c 	lui	v1,0x1f80
80108954:	0c80023c 	lui	v0,0x800c
80108958:	08f84224 	addiu	v0,v0,-2040
8010895c:	070046a0 	sb	a2,7(v0)
80108960:	050040a0 	sb	zero,5(v0)
80108964:	310045a0 	sb	a1,49(v0)
80108968:	3801048e 	lw	a0,312(s0)
8010896c:	04010324 	li	v1,260
80108970:	320043a4 	sh	v1,50(v0)
80108974:	0c80023c 	lui	v0,0x800c
80108978:	fbf945a0 	sb	a1,-1541(v0)
8010897c:	50008294 	lhu	v0,80(a0)
80108980:	801f033c 	lui	v1,0x1f80
80108984:	370166a0 	sb	a2,311(v1)
80108988:	01004224 	addiu	v0,v0,1
8010898c:	500082a4 	sh	v0,80(a0)
80108990:	801f033c 	lui	v1,0x1f80
80108994:	3801628c 	lw	v0,312(v1)
80108998:	00000000 	nop
8010899c:	6b0040a0 	sb	zero,107(v0)
801089a0:	3801638c 	lw	v1,312(v1)
801089a4:	801f023c 	lui	v0,0x1f80
801089a8:	360140a0 	sb	zero,310(v0)
801089ac:	500060a4 	sh	zero,80(v1)
801089b0:	1400bf8f 	lw	ra,20(sp)
801089b4:	1000b08f 	lw	s0,16(sp)
801089b8:	0800e003 	jr	ra
801089bc:	1800bd27 	addiu	sp,sp,24
801089c0:	00000000 	nop
801089c4:	28003000 	.word	0x300028
801089c8:	3f3f2800 	.word	0x283f3f
801089cc:	00002800 	.word	0x280000
801089d0:	30007f3f 	.word	0x3f7f0030
801089d4:	50000000 	.word	0x50
801089d8:	30003000 	.word	0x300030
801089dc:	ff3e0000 	.word	0x3eff
801089e0:	3000ff00 	.word	0xff0030
801089e4:	3000bf3e 	.word	0x3ebf0030
801089e8:	00006000 	.word	0x600000
801089ec:	ff003000 	.word	0x3000ff
801089f0:	ff3e0000 	.word	0x3eff
801089f4:	9000ff00 	.word	0xff0090
801089f8:	30003f3f 	.word	0x3f3f0030
801089fc:	0000c000 	.word	0xc00000
80108a00:	ff003000 	.word	0x3000ff
80108a04:	7f3fa000 	.word	0xa03f7f
80108a08:	00001000 	sll	zero,s0,0x0
80108a0c:	10003f3e 	.word	0x3e3f0010
80108a10:	b0000000 	.word	0xb0
80108a14:	10001000 	.word	0x100010
80108a18:	3f3ec000 	.word	0xc03e3f
80108a1c:	00001000 	sll	zero,s0,0x0
80108a20:	10003f3e 	.word	0x3e3f0010
80108a24:	d0000000 	.word	0xd0
80108a28:	10001000 	.word	0x100010
80108a2c:	3f3ee000 	.word	0xe03e3f
80108a30:	00001000 	sll	zero,s0,0x0
80108a34:	10003f3e 	.word	0x3e3f0010
80108a38:	f0000000 	.word	0xf0
80108a3c:	10001000 	.word	0x100010
80108a40:	3f3ea000 	.word	0xa03e3f
80108a44:	10001000 	.word	0x100010
80108a48:	10003f3e 	.word	0x3e3f0010
80108a4c:	b0001000 	.word	0x1000b0
80108a50:	10001000 	.word	0x100010
80108a54:	3f3ec000 	.word	0xc03e3f
80108a58:	10001000 	.word	0x100010
80108a5c:	10003f3e 	.word	0x3e3f0010
80108a60:	d0001000 	.word	0x1000d0
80108a64:	10001000 	.word	0x100010
80108a68:	3f3ee000 	.word	0xe03e3f
80108a6c:	10002000 	.word	0x200010
80108a70:	10003f3e 	.word	0x3e3f0010
80108a74:	a0002000 	.word	0x2000a0
80108a78:	10001000 	.word	0x100010
80108a7c:	7f3eb000 	.word	0xb03e7f
80108a80:	20001000 	add	zero,zero,s0
80108a84:	10007f3e 	.word	0x3e7f0010
80108a88:	c0002000 	.word	0x2000c0
80108a8c:	10001000 	.word	0x100010
80108a90:	7f3ed000 	.word	0xd03e7f
80108a94:	20001000 	add	zero,zero,s0
80108a98:	10007f3e 	.word	0x3e7f0010
80108a9c:	a0003800 	.word	0x3800a0
80108aa0:	08001000 	.word	0x100008
80108aa4:	3f7c4800 	.word	0x487c3f
80108aa8:	38000800 	.word	0x80038
80108aac:	10003f7c 	.word	0x7c3f0010
80108ab0:	68003800 	.word	0x380068
80108ab4:	08001000 	.word	0x100008
80108ab8:	3f7c2800 	.word	0x287c3f
80108abc:	38000800 	.word	0x80038
80108ac0:	10003f7c 	.word	0x7c3f0010
80108ac4:	10003800 	.word	0x380010
80108ac8:	08001000 	.word	0x100008
80108acc:	3f7c9800 	.word	0x987c3f
80108ad0:	38000800 	.word	0x80038
80108ad4:	10003f7c 	.word	0x7c3f0010
80108ad8:	38002800 	.word	0x280038
80108adc:	08001000 	.word	0x100008
80108ae0:	3f7c1000 	.word	0x107c3f
80108ae4:	28000800 	.word	0x80028
80108ae8:	10003f7c 	.word	0x7c3f0010
80108aec:	80002800 	.word	0x280080
80108af0:	08001000 	.word	0x100008
80108af4:	3f7c8800 	.word	0x887c3f
80108af8:	28000800 	.word	0x80028
80108afc:	10003f7c 	.word	0x7c3f0010
80108b00:	90002800 	.word	0x280090
80108b04:	08001000 	.word	0x100008
80108b08:	3f7c9800 	.word	0x987c3f
80108b0c:	28000800 	.word	0x80028
80108b10:	10003f7c 	.word	0x7c3f0010
80108b14:	a0002800 	.word	0x2800a0
80108b18:	08001000 	.word	0x100008
80108b1c:	3f7ca800 	.word	0xa87c3f
80108b20:	28000800 	.word	0x80028
80108b24:	10003f7c 	.word	0x7c3f0010
80108b28:	b0002800 	.word	0x2800b0
80108b2c:	08001000 	.word	0x100008
80108b30:	3f7cb800 	.word	0xb87c3f
80108b34:	28000800 	.word	0x80028
80108b38:	10003f7c 	.word	0x7c3f0010
80108b3c:	c0002800 	.word	0x2800c0
80108b40:	08001000 	.word	0x100008
80108b44:	3f7cc800 	.word	0xc87c3f
80108b48:	28000800 	.word	0x80028
80108b4c:	10003f7c 	.word	0x7c3f0010
80108b50:	bf3f0f00 	.word	0xf3fbf
80108b54:	e818f6fe 	.word	0xfef618e8
80108b58:	35008100 	.word	0x810035
80108b5c:	e818f1f9 	.word	0xf9f118e8
80108b60:	65008100 	.word	0x810065
80108b64:	e818ecf4 	.word	0xf4ec18e8
80108b68:	95008100 	.word	0x810095
80108b6c:	e818e7ef 	swc3	$7,6376(ra)
80108b70:	c5008100 	.word	0x8100c5
80108b74:	e8f8e2ea 	swc2	$2,-1816(s7)
80108b78:	f1008100 	.word	0x8100f1
80108b7c:	f818e2ea 	swc2	$2,6392(s7)
80108b80:	03088100 	.word	0x810803
80108b84:	e818dde5 	swc1	$f29,6376(t6)
80108b88:	25088100 	or	at,a0,at
80108b8c:	e818d8e0 	swc0	$24,6376(a2)
80108b90:	55088100 	.word	0x810855
80108b94:	e818d3db 	.word	0xdbd318e8
80108b98:	85088100 	.word	0x810885
80108b9c:	e818fc04 	.word	0x4fc18e8
80108ba0:	050080c0 	lwc0	c0_index,5(a0)
80108ba4:	640a0100 	.word	0x10a64
80108ba8:	48000000 	.word	0x48
80108bac:	a9218e86 	lh	t6,8617(s4)
80108bb0:	bd8b0100 	.word	0x18bbd
80108bb4:	31000300 	.word	0x30031
80108bb8:	00000000 	nop
80108bbc:	01f00900 	.word	0x9f001
80108bc0:	18000a00 	mult	zero,t2
80108bc4:	f40f3601 	.word	0x1360ff4
80108bc8:	1700cafe 	.word	0xfeca0017
80108bcc:	f40f0000 	.word	0xff4
80108bd0:	201dfa02 	.word	0x2fa1d20
80108bd4:	def1f702 	.word	0x2f7f1de
80108bd8:	00000000 	nop
80108bdc:	ab21c786 	lh	a3,8619(s6)
80108be0:	b58e0100 	.word	0x18eb5
80108be4:	31000200 	.word	0x20031
80108be8:	00000000 	nop
80108bec:	01f00400 	.word	0x4f001
80108bf0:	0f000500 	.word	0x5000f
80108bf4:	f40f3601 	.word	0x1360ff4
80108bf8:	0e00cafe 	.word	0xfeca000e
80108bfc:	f40f0000 	.word	0xff4
80108c00:	711cfa02 	.word	0x2fa1c71
80108c04:	3af1f702 	.word	0x2f7f13a
80108c08:	00000000 	nop
80108c0c:	ae210187 	lh	at,8622(t8)
80108c10:	ad910100 	.word	0x191ad
80108c14:	2b000000 	sltu	zero,zero,zero
80108c18:	00000000 	nop
80108c1c:	01f00000 	.word	0xf001
80108c20:	05000000 	.word	0x5
80108c24:	f70f0e01 	.word	0x10e0ff7
80108c28:	0500f2fe 	.word	0xfef20005
80108c2c:	f70f0000 	.word	0xff7
80108c30:	32d87d04 	.word	0x47dd832
80108c34:	90567b04 	.word	0x47b5690
80108c38:	00000000 	nop
80108c3c:	ae214d87 	lh	t5,8622(k0)
80108c40:	28960100 	.word	0x19628
80108c44:	2b000000 	sltu	zero,zero,zero
80108c48:	00000000 	nop
80108c4c:	01f00000 	.word	0xf001
80108c50:	02000000 	srl	zero,zero,0x0
80108c54:	f70f0e01 	.word	0x10e0ff7
80108c58:	0200f2fe 	.word	0xfef20002
80108c5c:	f70f0000 	.word	0xff7
80108c60:	32d87d04 	.word	0x47dd832
80108c64:	90567b04 	.word	0x47b5690
80108c68:	00000000 	nop
80108c6c:	af219887 	lh	t8,8623(gp)
80108c70:	a49a0100 	.word	0x19aa4
80108c74:	28000000 	.word	0x28
80108c78:	00000000 	nop
80108c7c:	01f00000 	.word	0xf001
80108c80:	00000000 	nop
80108c84:	f70f0001 	.word	0x1000ff7
80108c88:	000000ff 	.word	0xff000000
80108c8c:	f70f0000 	.word	0xff7
80108c90:	6dd8a605 	.word	0x5a6d86d
80108c94:	4d03a405 	.word	0x5a4034d
80108c98:	00000000 	nop
80108c9c:	ae21f387 	lh	s3,8622(ra)
80108ca0:	48a00100 	.word	0x1a048
80108ca4:	28000000 	.word	0x28
80108ca8:	00000000 	nop
80108cac:	01f00000 	.word	0xf001
80108cb0:	feff0000 	.word	0xfffe
80108cb4:	f70f0001 	.word	0x1000ff7
80108cb8:	feff00ff 	.word	0xff00fffe
80108cbc:	f70f0000 	.word	0xff7
80108cc0:	b3d8a605 	.word	0x5a6d8b3
80108cc4:	8e03a405 	.word	0x5a4038e
80108cc8:	00000000 	nop
80108ccc:	ad214d88 	lwl	t5,8621(v0)
80108cd0:	eca50100 	.word	0x1a5ec
80108cd4:	28000000 	.word	0x28
80108cd8:	00000000 	nop
80108cdc:	01f00000 	.word	0xf001
80108ce0:	fcff0000 	.word	0xfffc
80108ce4:	f80ffb00 	.word	0xfb0ff8
80108ce8:	fcff05ff 	.word	0xff05fffc
80108cec:	f80f0000 	.word	0xff8
80108cf0:	65127506 	.word	0x6751265
80108cf4:	d1f17106 	bgezal	s3,0x8010543c
80108cf8:	00000000 	nop
80108cfc:	aa21b388 	lwl	s3,8618(a1)
80108d00:	5eac0100 	.word	0x1ac5e
80108d04:	2800ff0f 	jal	0x8ffc00a0
80108d08:	00000000 	nop
80108d0c:	01f00000 	.word	0xf001
80108d10:	faff0000 	.word	0xfffa
80108d14:	f80ffb00 	.word	0xfb0ff8
80108d18:	faff05ff 	.word	0xff05fffa
80108d1c:	f80f0000 	.word	0xff8
80108d20:	a6127506 	.word	0x67512a6
80108d24:	13f27106 	bgezal	s3,0x80105574
80108d28:	00000000 	nop
80108d2c:	a7211989 	lwl	t9,8615(t0)
80108d30:	cfb20100 	.word	0x1b2cf
80108d34:	2800ff0f 	jal	0x8ffc00a0
80108d38:	00000000 	nop
80108d3c:	01f00000 	.word	0xf001
80108d40:	f8ff0000 	.word	0xfff8
80108d44:	f80ffd00 	.word	0xfd0ff8
80108d48:	f8ff03ff 	.word	0xff03fff8
80108d4c:	f80f0000 	.word	0xff8
80108d50:	1386e806 	.word	0x6e88613
80108d54:	8d24e506 	.word	0x6e5248d
80108d58:	00000000 	nop
80108d5c:	a3218689 	lwl	a2,8611(t4)
80108d60:	b5b90100 	.word	0x1b9b5
80108d64:	2800ff0f 	jal	0x8ffc00a0
80108d68:	00000000 	nop
80108d6c:	01f00000 	.word	0xf001
80108d70:	f7ff0000 	.word	0xfff7
80108d74:	f80ffd00 	.word	0xfd0ff8
80108d78:	f7ff03ff 	.word	0xff03fff7
80108d7c:	f80f0000 	.word	0xff8
80108d80:	f285e806 	.word	0x6e885f2
80108d84:	6c24e506 	.word	0x6e5246c
80108d88:	00000000 	nop
80108d8c:	9f21f389 	lwl	s3,8607(t7)
80108d90:	9ac00100 	.word	0x1c09a
80108d94:	2900ff0f 	jal	0x8ffc00a4
80108d98:	00000000 	nop
80108d9c:	01f00000 	.word	0xf001
80108da0:	f5ff0000 	.word	0xfff5
80108da4:	f70f0301 	.word	0x1030ff7
80108da8:	f5fffdfe 	.word	0xfefdfff5
80108dac:	f70f0000 	.word	0xff7
80108db0:	94320107 	bgez	t8,0x80115804
80108db4:	1c9afd06 	.word	0x6fd9a1c
80108db8:	00000000 	nop
80108dbc:	9a21658a 	lwl	a1,8602(s3)
80108dc0:	97c70100 	.word	0x1c797
80108dc4:	2900fe0f 	jal	0x8ff800a4
80108dc8:	00000000 	nop
80108dcc:	01f00000 	.word	0xf001
80108dd0:	f4ff0000 	.word	0xfff4
80108dd4:	f70f0301 	.word	0x1030ff7
80108dd8:	f4fffdfe 	.word	0xfefdfff4
80108ddc:	f70f0000 	.word	0xff7
80108de0:	de320107 	bgez	t8,0x8011595c
80108de4:	5e9afd06 	.word	0x6fd9a5e
80108de8:	00000000 	nop
80108dec:	9421d68a 	lwl	s6,8596(s6)
80108df0:	95ce0100 	.word	0x1ce95
80108df4:	2b00fe0f 	jal	0x8ff800ac
80108df8:	00000000 	nop
80108dfc:	01f00000 	.word	0xf001
80108e00:	f2ff0000 	.word	0xfff2
80108e04:	f70f0e01 	.word	0x10e0ff7
80108e08:	f2fff2fe 	.word	0xfef2fff2
80108e0c:	f70f0000 	.word	0xff7
80108e10:	b01abf06 	.word	0x6bf1ab0
80108e14:	9352bb06 	.word	0x6bb5293
80108e18:	00000000 	nop
80108e1c:	8d21498b 	lwl	t1,8589(k0)
80108e20:	50d50100 	.word	0x1d550
80108e24:	2b00fe0f 	jal	0x8ff800ac
80108e28:	00000000 	nop
80108e2c:	01f00100 	.word	0x1f001
80108e30:	f0ff0000 	.word	0xfff0
80108e34:	f70f0e01 	.word	0x10e0ff7
80108e38:	f0fff2fe 	.word	0xfef2fff0
80108e3c:	f60f0000 	.word	0xff6
80108e40:	f61abf06 	.word	0x6bf1af6
80108e44:	d452bb06 	.word	0x6bb52d4
80108e48:	00000000 	nop
80108e4c:	8621bb8b 	lwl	k1,8582(sp)
80108e50:	0cdc0100 	syscall	0x770
80108e54:	2e00fe0f 	jal	0x8ff800b8
80108e58:	00000000 	nop
80108e5c:	01f00100 	.word	0x1f001
80108e60:	eeff0000 	.word	0xffee
80108e64:	f50f2201 	.word	0x1220ff5
80108e68:	eeffdefe 	.word	0xfedeffee
80108e6c:	f50f0000 	.word	0xff5
80108e70:	ee432206 	.word	0x62243ee
80108e74:	874d1e06 	.word	0x61e4d87
80108e78:	00000000 	nop
80108e7c:	7e212a8c 	lw	t2,8574(at)
80108e80:	2ae20100 	.word	0x1e22a
80108e84:	2e00fd0f 	jal	0x8ff400b8
80108e88:	00000000 	nop
80108e8c:	01f00100 	.word	0x1f001
80108e90:	ebff0000 	.word	0xffeb
80108e94:	f50f2201 	.word	0x1220ff5
80108e98:	ebffdefe 	.word	0xfedeffeb
80108e9c:	f50f0000 	.word	0xff5
80108ea0:	2f442206 	.word	0x622442f
80108ea4:	c84d1e06 	.word	0x61e4dc8
80108ea8:	00000000 	nop
80108eac:	76219a8c 	lw	k0,8566(a0)
80108eb0:	48e80100 	.word	0x1e848
80108eb4:	3300fd0f 	jal	0x8ff400cc
80108eb8:	00000000 	nop
80108ebc:	01f00100 	.word	0x1f001
80108ec0:	e8ff0000 	.word	0xffe8
80108ec4:	f30f4501 	.word	0x1450ff3
80108ec8:	e8ffbbfe 	.word	0xfebbffe8
80108ecc:	f20f0000 	.word	0xff2
80108ed0:	ddbf2a05 	.word	0x52abfdd
80108ed4:	cc8d2605 	.word	0x5268dcc
80108ed8:	00000000 	nop
80108edc:	6d21038d 	lw	v1,8557(t0)
80108ee0:	6fed0100 	.word	0x1ed6f
80108ee4:	3300fc0f 	jal	0x8ff000cc
80108ee8:	00000000 	nop
80108eec:	01f00200 	.word	0x2f001
80108ef0:	e3ff0000 	.word	0xffe3
80108ef4:	f30f4501 	.word	0x1450ff3
80108ef8:	e3ffbbfe 	.word	0xfebbffe3
80108efc:	f20f0000 	.word	0xff2
80108f00:	03c02a05 	.word	0x52ac003
80108f04:	ed8d2605 	.word	0x5268ded
80108f08:	00000000 	nop
80108f0c:	64216c8d 	lw	t4,8548(t3)
80108f10:	95f20100 	.word	0x1f295
80108f14:	3f00fb0f 	jal	0x8fec00fc
80108f18:	00000000 	nop
80108f1c:	01f00300 	.word	0x3f001
80108f20:	deff0000 	.word	0xffde
80108f24:	ec0f8d01 	.word	0x18d0fec
80108f28:	deff73fe 	.word	0xfe73ffde
80108f2c:	ec0f0000 	.word	0xfec
80108f30:	13b9d803 	.word	0x3d8b913
80108f34:	ad12d403 	.word	0x3d412ad
80108f38:	00000000 	nop
80108f3c:	5921cc8d 	lw	t4,8537(t6)
80108f40:	69f60100 	.word	0x1f669
80108f44:	3f00f90f 	jal	0x8fe400fc
80108f48:	00000000 	nop
80108f4c:	01f00400 	.word	0x4f001
80108f50:	d3ff0000 	.word	0xffd3
80108f54:	ec0f8d01 	.word	0x18d0fec
80108f58:	d3ff73fe 	.word	0xfe73ffd3
80108f5c:	ec0f0000 	.word	0xfec
80108f60:	13b9d803 	.word	0x3d8b913
80108f64:	ad12d403 	.word	0x3d412ad
80108f68:	00000000 	nop
80108f6c:	4f212b8e 	lw	t3,8527(s1)
80108f70:	3dfa0100 	.word	0x1fa3d
80108f74:	6000f70f 	jal	0x8fdc0180
80108f78:	00000000 	nop
80108f7c:	01f00800 	.word	0x8f001
80108f80:	c8ff0000 	.word	0xffc8
80108f84:	d30f5a02 	.word	0x25a0fd3
80108f88:	c8ffa6fd 	.word	0xfda6ffc8
80108f8c:	d30f0000 	.word	0xfd3
80108f90:	f50c5a04 	.word	0x45a0cf5
80108f94:	29c94d04 	.word	0x44dc929
80108f98:	00000000 	nop
80108f9c:	3821d08e 	lw	s0,8504(s6)
80108fa0:	8bfe0100 	.word	0x1fe8b
80108fa4:	6801e70f 	jal	0x8f9c05a0
80108fa8:	00000000 	nop
80108fac:	04f05300 	sllv	s8,s3,v0
80108fb0:	7aff0000 	.word	0xff7a
80108fb4:	9d0d6608 	j	0x81983674
80108fb8:	62ff9bf7 	.word	0xf79bff62
80108fbc:	9b0d0000 	.word	0xd9b
80108fc0:	131ef702 	.word	0x2f71e13
80108fc4:	39688802 	.word	0x2886839
80108fc8:	00000000 	nop
80108fcc:	2b215b90 	lbu	k1,8491(v0)
80108fd0:	12010100 	.word	0x10112
80108fd4:	2d02fd0f 	jal	0x8ff408b4
80108fd8:	00000000 	nop
80108fdc:	01f00e00 	.word	0xef001
80108fe0:	f3ff0000 	.word	0xfff3
80108fe4:	7d0a150c 	jal	0x805429f4
80108fe8:	edffecf3 	.word	0xf3ecffed
80108fec:	7d0a0000 	.word	0xa7d
80108ff0:	11494404 	.word	0x4444911
80108ff4:	daf2ce02 	.word	0x2cef2da
80108ff8:	00000000 	nop
80108ffc:	30219193 	lbu	s1,8496(gp)
80109000:	e1030100 	.word	0x103e1
80109004:	7b020900 	.word	0x9027b
80109008:	00000000 	nop
8010900c:	01f0ceff 	.word	0xffcef001
80109010:	22000000 	neg	zero,zero
80109014:	fc083d0d 	jal	0x84f423f0
80109018:	3c00c4f2 	.word	0xf2c4003c
8010901c:	fb080000 	.word	0x8fb
80109020:	76677505 	.word	0x5756776
80109024:	125e1203 	.word	0x3125e12
80109028:	00000000 	nop
8010902c:	40211598 	lwr	s5,8512(zero)
80109030:	f3060100 	.word	0x106f3
80109034:	9a020f00 	.word	0xf029a
80109038:	00000000 	nop
8010903c:	02f0acff 	.word	0xffacf002
80109040:	33000000 	.word	0x33
80109044:	5508a80d 	jal	0x86a02154
80109048:	630059f2 	.word	0xf2590063
8010904c:	54080000 	.word	0x854
80109050:	9c3e6006 	bltz	s3,0x80118ac4
80109054:	8c5d5203 	syscall	0xd4976
80109058:	00000000 	nop
8010905c:	5621869d 	.word	0x9d862156
80109060:	450a0100 	.word	0x10a45
80109064:	a2021000 	.word	0x1002a2
80109068:	00000000 	nop
8010906c:	02f0a5ff 	.word	0xffa5f002
80109070:	36000000 	.word	0x36
80109074:	2a08c20d 	jal	0x870820a8
80109078:	69003ff2 	.word	0xf23f0069
8010907c:	29080000 	.word	0x829
80109080:	3a41fa06 	.word	0x6fa413a
80109084:	d7d68e03 	.word	0x38ed6d7
80109088:	00000000 	nop
8010908c:	6c2186a3 	sb	a2,8556(gp)
80109090:	d40d0100 	.word	0x10dd4
80109094:	99020d00 	.word	0xd0299
80109098:	00000000 	nop
8010909c:	01f0b7ff 	.word	0xffb7f001
801090a0:	2d000000 	.word	0x2d
801090a4:	5a08a50d 	jal	0x86942168
801090a8:	56005cf2 	.word	0xf25c0056
801090ac:	59080000 	.word	0x859
801090b0:	6b474107 	bgez	k0,0x8011ae60
801090b4:	6cd0c703 	.word	0x3c7d06c
801090b8:	00000000 	nop
801090bc:	7c21b8a9 	swl	t8,8572(t5)
801090c0:	9c110100 	.word	0x1119c
801090c4:	80020700 	sll	zero,a3,0xa
801090c8:	00000000 	nop
801090cc:	01f0daff 	.word	0xffdaf001
801090d0:	19000000 	multu	zero,zero
801090d4:	de08510d 	jal	0x85442378
801090d8:	2e00b0f2 	.word	0xf2b0002e
801090dc:	de080000 	.word	0x8de
801090e0:	cb253707 	.word	0x73725cb
801090e4:	f167fd03 	.word	0x3fd67f1
801090e8:	00000000 	nop
801090ec:	8021bbaf 	sw	k1,8576(sp)
801090f0:	99150100 	.word	0x11599
801090f4:	5402fe0f 	jal	0x8ff80950
801090f8:	00000000 	nop
801090fc:	01f00a00 	.word	0xaf001
80109100:	f9ff0000 	.word	0xfff9
80109104:	c209ad0c 	jal	0x82b42708
80109108:	f3ff53f3 	.word	0xf353fff3
8010910c:	c2090000 	srl	at,zero,0x7
80109110:	d5b7e106 	bgez	s7,0x800f7068
80109114:	0ccd2f04 	.word	0x42fcd0c
80109118:	00000000 	nop
8010911c:	732131b5 	.word	0xb5312173
80109120:	c9190100 	.word	0x119c9
80109124:	0a02f20f 	jal	0x8fc80828
80109128:	00000000 	nop
8010912c:	01f03f00 	.word	0x3ff001
80109130:	c3ff0000 	sra	ra,zero,0x1f
80109134:	200b7f0b 	j	0x8dfc2c80
80109138:	a8ff81f4 	.word	0xf481ffa8
8010913c:	1f0b0000 	.word	0xb1f
80109140:	5dc54d06 	.word	0x64dc55d
80109144:	2a3f5f04 	.word	0x45f3f2a
80109148:	00000000 	nop
8010914c:	4f21bbb9 	swr	k1,8527(t5)
80109150:	271e0100 	.word	0x11e27
80109154:	9201e40f 	jal	0x8f900648
80109158:	00000000 	nop
8010915c:	04f06700 	sllv	s8,a3,v1
80109160:	6fff0000 	.word	0xff6f
80109164:	0a0d4509 	j	0x85143428
80109168:	4effbdf6 	.word	0xf6bdff4e
8010916c:	060d0000 	.word	0xd06
80109170:	71ed9605 	.word	0x596ed71
80109174:	870a8c04 	.word	0x48c0a87
80109178:	00000000 	nop
8010917c:	0e21fcbc 	.word	0xbcfc210e
80109180:	b2220100 	.word	0x122b2
80109184:	d200d40f 	jal	0x8f500348
80109188:	00000000 	nop
8010918c:	0af05900 	.word	0x59f00a
80109190:	f5fe0000 	.word	0xfef5
80109194:	2b0f1605 	.word	0x5160f2b
80109198:	e6feedfa 	.word	0xfaedfee6
8010919c:	220f0000 	.word	0xf22
801091a0:	285cf904 	.word	0x4f95c28
801091a4:	6687b604 	.word	0x4b68766
801091a8:	00000000 	nop
801091ac:	a92093be 	.word	0xbe9320a9
801091b0:	64270100 	.word	0x12764
801091b4:	2e00c10f 	jal	0x8f0400b8
801091b8:	00000000 	nop
801091bc:	14f01c00 	.word	0x1cf014
801091c0:	73fe0000 	.word	0xfe73
801091c4:	f50f2201 	.word	0x1220ff5
801091c8:	72fedffe 	.word	0xfedffe72
801091cc:	e20f0000 	.word	0xfe2
801091d0:	edd2b304 	.word	0x4b3d2ed
801091d4:	eabcb004 	bltzal	a1,0x800f8580
801091d8:	00000000 	nop
801091dc:	1d20e9be 	.word	0xbee9201d
801091e0:	0c2c0100 	syscall	0x4b0
801091e4:	e3ffa70f 	jal	0x8e9fff8c
801091e8:	00000000 	nop
801091ec:	27f0e7ff 	.word	0xffe7f027
801091f0:	cffd0000 	.word	0xfdcf
801091f4:	fb0f47ff 	.word	0xff470ffb
801091f8:	cefdb700 	.word	0xb7fdce
801091fc:	d50f0000 	.word	0xfd5
80109200:	c43b7d04 	.word	0x47d3bc4
80109204:	82097c04 	.word	0x47c0982
80109208:	00000000 	nop
8010920c:	661fb4be 	.word	0xbeb41f66
80109210:	7a300100 	.word	0x1307a
80109214:	9eff880f 	jal	0x8e23fe78
80109218:	00000000 	nop
8010921c:	46f090ff 	.word	0xff90f046
80109220:	1bfd0000 	.word	0xfd1b
80109224:	d10f9afd 	.word	0xfd9a0fd1
80109228:	13fd5c02 	.word	0x25cfd13
8010922c:	8d0f0000 	break	0x0,0x3e
80109230:	66a85404 	.word	0x454a866
80109234:	99cd4704 	.word	0x447cd99
80109238:	00000000 	nop
8010923c:	821e0cbe 	.word	0xbe0c1e82
80109240:	a9340100 	.word	0x134a9
80109244:	63ff660f 	jal	0x8d9bfd8c
80109248:	00000000 	nop
8010924c:	74f01aff 	.word	0xff1af074
80109250:	59fc0000 	.word	0xfc59
80109254:	880f2bfc 	.word	0xfc2b0f88
80109258:	3dfcb903 	.word	0x3b9fc3d
8010925c:	180f0000 	.word	0xf18
80109260:	e5163504 	.word	0x43516e5
80109264:	49d61404 	.word	0x414d649
80109268:	00000000 	nop
8010926c:	6e1d06bd 	.word	0xbd061d6e
80109270:	99380100 	.word	0x13899
80109274:	32ff3e0f 	jal	0x8cfbfcc8
80109278:	00000000 	nop
8010927c:	b6f089fe 	.word	0xfe89f0b6
80109280:	86fb0000 	.word	0xfb86
80109284:	340f05fb 	.word	0xfb050f34
80109288:	4afbc304 	.word	0x4c3fb4a
8010928c:	870e0000 	.word	0xe87
80109290:	46121a04 	.word	0x41a1246
80109294:	4c21e403 	syscall	0xf9085
80109298:	00000000 	nop
8010929c:	281cbabb 	swr	k0,7208(sp)
801092a0:	463c0100 	.word	0x13c46
801092a4:	0dff0f0f 	jal	0x8c3ffc34
801092a8:	00000000 	nop
801092ac:	15f1e5fd 	.word	0xfde5f115
801092b0:	9efa0000 	.word	0xfa9e
801092b4:	e50e2bfa 	.word	0xfa2b0ee5
801092b8:	38fa7005 	bltzal	t3,0x80107b9c
801092bc:	e40d0000 	.word	0xde4
801092c0:	f5170004 	bltz	zero,0x8010f298
801092c4:	8fe7b603 	.word	0x3b6e78f
801092c8:	00000000 	nop
801092cc:	ad1a3eba 	swr	s8,6829(s1)
801092d0:	af3f0100 	.word	0x13faf
801092d4:	f5fedb0e 	jal	0x8b6ffbd4
801092d8:	00000000 	nop
801092dc:	9af139fd 	.word	0xfd39f19a
801092e0:	9cf90000 	.word	0xf99c
801092e4:	ac0ea0f9 	.word	0xf9a00eac
801092e8:	08f9bd05 	.word	0x5bdf908
801092ec:	350d0000 	.word	0xd35
801092f0:	63d6e403 	.word	0x3e4d663
801092f4:	4ea08e03 	.word	0x38ea04e
801092f8:	00000000 	nop
801092fc:	fd18a8b8 	swr	t0,6397(a1)
80109300:	d0420100 	.word	0x142d0
80109304:	ebfe9f0e 	jal	0x8a7ffbac
80109308:	00000000 	nop
8010930c:	4cf299fc 	.word	0xfc99f24c
80109310:	7af80000 	.word	0xf87a
80109314:	930e68f9 	.word	0xf9680e93
80109318:	bef7a605 	.word	0x5a6f7be
8010931c:	7c0c0000 	.word	0xc7c
80109320:	7457c703 	.word	0x3c75774
80109324:	22006d03 	sub	zero,k1,t5
80109328:	00000000 	nop
8010932c:	131710b7 	.word	0xb7101713
80109330:	a8450100 	.word	0x145a8
80109334:	f1fe5c0e 	jal	0x8973fbc4
80109338:	00000000 	nop
8010933c:	37f31efc 	.word	0xfc1ef337
80109340:	34f70000 	.word	0xf734
80109344:	a20e8af9 	.word	0xf98a0ea2
80109348:	62f62a05 	.word	0x52af662
8010934c:	b20b0000 	.word	0xbb2
80109350:	4332a803 	.word	0x3a83243
80109354:	09e95303 	.word	0x353e909
80109358:	00000000 	nop
8010935c:	ee148cb5 	.word	0xb58c14ee
80109360:	33480100 	.word	0x14833
80109364:	09ff130e 	jal	0x884ffc24
80109368:	00000000 	nop
8010936c:	61f4eefb 	.word	0xfbeef461
80109370:	caf50000 	.word	0xf5ca
80109374:	dc0e13fa 	.word	0xfa130edc
80109378:	02f54e04 	.word	0x44ef502
8010937c:	cc0a0000 	syscall	0x2b
80109380:	e2c98903 	.word	0x389c9e2
80109384:	d5444503 	.word	0x34544d5
80109388:	00000000 	nop
8010938c:	8b1232b4 	.word	0xb432128b
80109390:	704a0100 	.word	0x14a70
80109394:	34ffc40d 	jal	0x8713fcd0
80109398:	00000000 	nop
8010939c:	c9f535fc 	.word	0xfc35f5c9
801093a0:	4af40000 	.word	0xf44a
801093a4:	380f12fb 	.word	0xfb120f38
801093a8:	b1f32603 	.word	0x326f3b1
801093ac:	b8090000 	.word	0x9b8
801093b0:	45a47003 	.word	0x370a445
801093b4:	15d64203 	.word	0x342d615
801093b8:	00000000 	nop
801093bc:	e90f1ab3 	.word	0xb31a0fe9
801093c0:	5c4c0100 	.word	0x14c5c
801093c4:	5aff720d 	jal	0x85cbfd68
801093c8:	00000000 	nop
801093cc:	67f798fc 	.word	0xfc98f767
801093d0:	f3f20000 	.word	0xf2f3
801093d4:	7b0ff6fb 	.word	0xfbf60f7b
801093d8:	83f22b02 	.word	0x22bf283
801093dc:	52080000 	.word	0x852
801093e0:	6d876a03 	.word	0x36a876d
801093e4:	8a524c03 	.word	0x34c528a
801093e8:	00000000 	nop
801093ec:	070d36b2 	.word	0xb2360d07
801093f0:	f64d0100 	.word	0x14df6
801093f4:	6cff240d 	jal	0x8493fdb0
801093f8:	00000000 	nop
801093fc:	15f9c1fc 	.word	0xfcc1f915
80109400:	f2f10000 	.word	0xf1f2
80109404:	960f66fc 	.word	0xfc660f96
80109408:	93f18e01 	.word	0x18ef193
8010940c:	bd060000 	.word	0x6bd
80109410:	da497103 	.word	0x37149da
80109414:	aa3f5903 	.word	0x3593faa
80109418:	00000000 	nop
8010941c:	ee096ab1 	.word	0xb16a09ee
80109420:	3c4f0100 	.word	0x14f3c
80109424:	7dffda0c 	jal	0x836bfdf4
80109428:	00000000 	nop
8010942c:	c1fafbfc 	.word	0xfcfbfac1
80109430:	31f10000 	.word	0xf131
80109434:	ad0fcefc 	.word	0xfcce0fad
80109438:	e3f00c01 	.word	0x10cf0e3
8010943c:	24050000 	.word	0x524
80109440:	4c9c7803 	syscall	0xde271
80109444:	a2a06503 	.word	0x365a0a2
80109448:	00000000 	nop
8010944c:	aa06b3b0 	.word	0xb0b306aa
80109450:	2c500100 	.word	0x1502c
80109454:	8dff940c 	jal	0x8253fe34
80109458:	00000000 	nop
8010945c:	68fc3ffd 	.word	0xfd3ffc68
80109460:	a8f00000 	.word	0xf0a8
80109464:	bf0f2dfd 	.word	0xfd2d0fbf
80109468:	69f0a200 	.word	0xa2f069
8010946c:	89030000 	.word	0x389
80109470:	68437f03 	.word	0x37f4368
80109474:	5c5e7003 	.word	0x3705e5c
80109478:	00000000 	nop
8010947c:	470311b0 	.word	0xb0110347
80109480:	c4500100 	.word	0x150c4
80109484:	9aff500c 	jal	0x8143fe68
80109488:	00000000 	nop
8010948c:	0dfe87fd 	.word	0xfd87fe0d
80109490:	51f00000 	.word	0xf051
80109494:	cd0f82fd 	.word	0xfd820fcd
80109498:	1ff04d00 	.word	0x4df01f
8010949c:	ed010000 	.word	0x1ed
801094a0:	15878403 	.word	0x3848715
801094a4:	65e67803 	.word	0x378e665
801094a8:	00000000 	nop
801094ac:	d1ff80af 	sw	zero,-47(gp)
801094b0:	03510100 	sra	t2,at,0x4
801094b4:	a7ff0d0c 	jal	0x8037fe9c
801094b8:	00000000 	nop
801094bc:	b1ffcefd 	.word	0xfdceffb1
801094c0:	28f00000 	.word	0xf028
801094c4:	d90fcefd 	.word	0xfdce0fd9
801094c8:	01f00a00 	.word	0xaf001
801094cc:	4e000000 	.word	0x4e
801094d0:	2b2b8803 	.word	0x3882b2b
801094d4:	d9207f03 	.word	0x37f20d9
801094d8:	00000000 	nop
801094dc:	53fc01af 	sw	at,-941(t8)
801094e0:	e6500100 	.word	0x150e6
801094e4:	b2ffca0b 	j	0x8f2bfec8
801094e8:	00000000 	nop
801094ec:	580114fe 	.word	0xfe140158
801094f0:	2df00000 	.word	0xf02d
801094f4:	e20f12fe 	.word	0xfe120fe2
801094f8:	0ff0d7ff 	.word	0xffd7f00f
801094fc:	aafe0000 	.word	0xfeaa
80109500:	766b8a03 	.word	0x38a6b76
80109504:	c3688303 	.word	0x38368c3
80109508:	00000000 	nop
8010950c:	d8f890ae 	sw	s0,-1832(s4)
80109510:	6b500100 	.word	0x1506b
80109514:	bbff850b 	j	0x8e17feec
80109518:	00000000 	nop
8010951c:	050356fe 	.word	0xfe560305
80109520:	61f00000 	.word	0xf061
80109524:	e80f4efe 	.word	0xfe4e0fe8
80109528:	4af0aeff 	.word	0xffaef04a
8010952c:	fffc0000 	.word	0xfcff
80109530:	a2fa8b03 	.word	0x38bfaa2
80109534:	e28b8603 	.word	0x3868be2
80109538:	00000000 	nop
8010953c:	6cf52dae 	sw	t5,-2708(s1)
80109540:	914f0100 	.word	0x14f91
80109544:	c4ff3d0b 	j	0x8cf7ff10
80109548:	00000000 	nop
8010954c:	b90493fe 	.word	0xfe9304b9
80109550:	c8f00000 	.word	0xf0c8
80109554:	ee0f82fe 	.word	0xfe820fee
80109558:	b7f090ff 	.word	0xff90f0b7
8010955c:	4cfb0000 	syscall	0x3ed
80109560:	cdff8d03 	break	0x38d,0x3ff
80109564:	1ac88903 	.word	0x389c81a
80109568:	00000000 	nop
8010956c:	1bf2d6ad 	sw	s6,-3557(t6)
80109570:	544e0100 	.word	0x14e54
80109574:	cbfff20a 	j	0x8bcbff2c
80109578:	00000000 	nop
8010957c:	7206ccfe 	.word	0xfecc0672
80109580:	68f10000 	.word	0xf168
80109584:	f20fb0fe 	.word	0xfeb00ff2
80109588:	5cf179ff 	.word	0xff79f15c
8010958c:	94f90000 	.word	0xf994
80109590:	d8189203 	.word	0x39218d8
80109594:	abcd8e03 	.word	0x38ecdab
80109598:	00000000 	nop
8010959c:	f1ee88ad 	sw	t0,-4367(t4)
801095a0:	b44c0100 	.word	0x14cb4
801095a4:	d1ffa30a 	j	0x8a8fff44
801095a8:	00000000 	nop
801095ac:	290800ff 	.word	0xff000829
801095b0:	47f20000 	.word	0xf247
801095b4:	f50fd7fe 	.word	0xfed70ff5
801095b8:	3ef269ff 	.word	0xff69f23e
801095bc:	dcf70000 	.word	0xf7dc
801095c0:	c44e9a03 	.word	0x39a4ec4
801095c4:	bfb49703 	.word	0x397b4bf
801095c8:	00000000 	nop
801095cc:	f9eb43ad 	sw	v1,-5127(t2)
801095d0:	ae4a0100 	.word	0x14aae
801095d4:	d7ff510a 	j	0x8947ff5c
801095d8:	00000000 	nop
801095dc:	d60934ff 	.word	0xff3409d6
801095e0:	69f30000 	.word	0xf369
801095e4:	f70ffdfe 	.word	0xfefd0ff7
801095e8:	62f361ff 	.word	0xff61f362
801095ec:	2ff60000 	.word	0xf62f
801095f0:	62d19903 	.word	0x399d162
801095f4:	41b99703 	.word	0x397b941
801095f8:	00000000 	nop
801095fc:	7be905ad 	sw	a1,-5765(t0)
80109600:	18480100 	.word	0x14818
80109604:	ddff9c09 	j	0x8673ff74
80109608:	00000000 	nop
8010960c:	ea0c7eff 	.word	0xff7e0cea
80109610:	93f60000 	.word	0xf693
80109614:	f90f23ff 	.word	0xff230ff9
80109618:	8ff64dff 	.word	0xff4df68f
8010961c:	1bf30000 	.word	0xf31b
80109620:	0c66b403 	syscall	0xed198
80109624:	3adab203 	.word	0x3b2da3a
80109628:	00000000 	nop
8010962c:	ace7cfac 	sw	t7,-6228(a2)
80109630:	de440100 	.word	0x144de
80109634:	e5ff0709 	j	0x841fff94
80109638:	00000000 	nop
8010963c:	b80ebcff 	.word	0xffbc0eb8
80109640:	bef90000 	.word	0xf9be
80109644:	fc0f51ff 	.word	0xff510ffc
80109648:	bcf95fff 	.word	0xff5ff9bc
8010964c:	4bf10000 	.word	0xf14b
80109650:	566dec03 	.word	0x3ec6d56
80109654:	2b6deb03 	.word	0x3eb6d2b
80109658:	00000000 	nop
8010965c:	7be6a2ac 	sw	v0,-6533(a1)
80109660:	22410100 	.word	0x14122
80109664:	ecff9408 	j	0x8253ffb0
80109668:	00000000 	nop
8010966c:	980fe4ff 	.word	0xffe40f98
80109670:	6dfc0000 	.word	0xfc6d
80109674:	fe0f81ff 	.word	0xff810ffe
80109678:	6dfc84ff 	.word	0xff84fc6d
8010967c:	6af00000 	.word	0xf06a
80109680:	c20a2a04 	.word	0x42a0ac2
80109684:	877e2904 	.word	0x4297e87
80109688:	00000000 	nop
8010968c:	d7e580ac 	sw	zero,-6697(a0)
80109690:	053d0100 	.word	0x13d05
80109694:	f4ff3b08 	j	0x80efffd0
80109698:	00000000 	nop
8010969c:	ef0ff9ff 	.word	0xfff90fef
801096a0:	90fe0000 	.word	0xfe90
801096a4:	ff0fb1ff 	.word	0xffb10fff
801096a8:	90feb1ff 	.word	0xffb1fe90
801096ac:	12f00000 	mflo	s8
801096b0:	468e5d04 	.word	0x45d8e46
801096b4:	f4555d04 	.word	0x45d55f4
801096b8:	00000000 	nop
801096bc:	b0e569ac 	sw	t1,-6736(v1)
801096c0:	a8380100 	.word	0x138a8
801096c4:	fcfff507 	.word	0x7f5fffc
801096c8:	00000000 	nop
801096cc:	ff0f0000 	.word	0xfff
801096d0:	41000000 	.word	0x41
801096d4:	ff0fe2ff 	.word	0xffe20fff
801096d8:	4100e2ff 	.word	0xffe20041
801096dc:	01f00000 	.word	0xf001
801096e0:	7a797d04 	.word	0x47d797a
801096e4:	ca707d04 	.word	0x47d70ca
801096e8:	00000000 	nop
801096ec:	f6e561ac 	sw	at,-6666(v1)
801096f0:	2d340100 	.word	0x1342d
801096f4:	0300bd07 	.word	0x7bd0003
801096f8:	00000000 	nop
801096fc:	ea0ffeff 	.word	0xfffe0fea
80109700:	a3010000 	.word	0x1a3
80109704:	ff0f1400 	.word	0x140fff
80109708:	a3011400 	.word	0x1401a3
8010970c:	16f00000 	.word	0xf016
80109710:	8f308404 	.word	0x484308f
80109714:	c42c8404 	.word	0x4842cc4
80109718:	00000000 	nop
8010971c:	98e666ac 	sw	a2,-6504(v1)
80109720:	b42f0100 	.word	0x12fb4
80109724:	0c008c07 	.word	0x78c000c
80109728:	00000000 	nop
8010972c:	c00ff3ff 	.word	0xfff30fc0
80109730:	cf020000 	.word	0x2cf
80109734:	ff0f4d00 	.word	0x4d0fff
80109738:	cf024c00 	.word	0x4c02cf
8010973c:	41f00000 	.word	0xf041
80109740:	80666e04 	.word	0x46e6680
80109744:	78306e04 	.word	0x46e3078
80109748:	00000000 	nop
8010974c:	85e77cac 	sw	gp,-6267(v1)
80109750:	5f2b0100 	.word	0x12b5f
80109754:	17006007 	bltz	k1,0x801097b4
80109758:	00000000 	nop
8010975c:	860fddff 	.word	0xffdd0f86
80109760:	dd030000 	.word	0x3dd
80109764:	fd0f9200 	.word	0x920ffd
80109768:	de038e00 	.word	0x8e03de
8010976c:	7cf00000 	.word	0xf07c
80109770:	40443a04 	.word	0x43a4440
80109774:	f38d3904 	.word	0x4398df3
80109778:	00000000 	nop
8010977c:	ace8a4ac 	sw	a0,-5972(a1)
80109780:	4f270100 	.word	0x1274f
80109784:	25003507 	.word	0x7350025
80109788:	00000000 	nop
8010978c:	3b0fb9ff 	.word	0xffb90f3b
80109790:	e2040000 	.word	0x4e2
80109794:	f90fe900 	.word	0xe90ff9
80109798:	e404de00 	.word	0xde04e4
8010979c:	cbf00000 	.word	0xf0cb
801097a0:	090ae703 	.word	0x3e70a09
801097a4:	1c5be503 	.word	0x3e55b1c
801097a8:	00000000 	nop
801097ac:	fee9deac 	sw	s8,-5634(a2)
801097b0:	a4230100 	.word	0x123a4
801097b4:	38000607 	.word	0x7060038
801097b8:	00000000 	nop
801097bc:	d60e7dff 	.word	0xff7d0ed6
801097c0:	f6050000 	.word	0x5f6
801097c4:	f00f6001 	.word	0x1600ff0
801097c8:	fc054601 	.word	0x14605fc
801097cc:	38f10000 	.word	0xf138
801097d0:	82207503 	.word	0x3752082
801097d4:	40ae7103 	.word	0x371ae40
801097d8:	00000000 	nop
801097dc:	6aeb2cad 	sw	t4,-5270(t1)
801097e0:	81200100 	.word	0x12081
801097e4:	4500cb06 	.word	0x6cb0045
801097e8:	00000000 	nop
801097ec:	3e0e3aff 	.word	0xff3a0e3e
801097f0:	3f070000 	.word	0x73f
801097f4:	e80fb301 	.word	0x1b30fe8
801097f8:	4a078401 	.word	0x184074a
801097fc:	d7f10000 	.word	0xf1d7
80109800:	a89a4003 	.word	0x3409aa8
80109804:	c7e53b03 	.word	0x33be5c7
80109808:	00000000 	nop
8010980c:	e0ec84ad 	sw	a0,-4896(t4)
80109810:	9f1d0100 	.word	0x11d9f
80109814:	4300d006 	bltzal	s6,0x80109924
80109818:	00000000 	nop
8010981c:	4c0e42ff 	.word	0xff420e4c
80109820:	23070000 	.word	0x723
80109824:	e90fa901 	.word	0x1a90fe9
80109828:	2d077b01 	.word	0x17b072d
8010982c:	c8f10000 	.word	0xf1c8
80109830:	e9b25603 	.word	0x356b2e9
80109834:	de1c5203 	.word	0x3521cde
80109838:	00000000 	nop
8010983c:	5aeedcad 	sw	gp,-4518(t6)
80109840:	a51a0100 	.word	0x11aa5
80109844:	4200d706 	.word	0x6d70042
80109848:	00000000 	nop
8010984c:	5e0e48ff 	.word	0xff480e5e
80109850:	ff060000 	.word	0x6ff
80109854:	ea0fa401 	.word	0x1a40fea
80109858:	09077901 	.word	0x1790709
8010985c:	b5f10000 	.word	0xf1b5
80109860:	df926403 	.word	0x36492df
80109864:	19066003 	.word	0x3600619
80109868:	00000000 	nop
8010986c:	d1ef35ae 	sw	s5,-4143(s1)
80109870:	9b170100 	.word	0x1179b
80109874:	4300df06 	.word	0x6df0043
80109878:	00000000 	nop
8010987c:	740e4cff 	.word	0xff4c0e74
80109880:	d2060000 	.word	0x6d2
80109884:	ea0fa501 	.word	0x1a50fea
80109888:	db067c01 	.word	0x17c06db
8010988c:	9ff10000 	.word	0xf19f
80109890:	e04a6a03 	.word	0x36a4ae0
80109894:	1bb36503 	.word	0x365b31b
80109898:	00000000 	nop
8010989c:	40f18fae 	sw	t7,-3776(s4)
801098a0:	87140100 	.word	0x11487
801098a4:	4400e906 	.word	0x6e90044
801098a8:	00000000 	nop
801098ac:	8e0e4fff 	.word	0xff4f0e8e
801098b0:	9a060000 	.word	0x69a
801098b4:	e90fab01 	.word	0x1ab0fe9
801098b8:	a3068501 	.word	0x18506a3
801098bc:	86f10000 	.word	0xf186
801098c0:	01f56703 	.word	0x367f501
801098c4:	093e6303 	.word	0x3633e09
801098c8:	00000000 	nop
801098cc:	a1f2e9ae 	sw	t1,-3423(s7)
801098d0:	6e110100 	.word	0x1116e
801098d4:	4600f406 	.word	0x6f40046
801098d8:	00000000 	nop
801098dc:	ac0e51ff 	.word	0xff510eac
801098e0:	56060000 	.word	0x656
801098e4:	e80fb701 	.word	0x1b70fe8
801098e8:	60069301 	.word	0x1930660
801098ec:	6af10000 	.word	0xf16a
801098f0:	5ab35d03 	.word	0x35db35a
801098f4:	c4c75803 	.word	0x358c7c4
801098f8:	00000000 	nop
801098fc:	eff345af 	sw	a1,-3089(k0)
80109900:	590e0100 	.word	0x10e59
80109904:	49000207 	.word	0x7020049
80109908:	00000000 	nop
8010990c:	cf0e53ff 	.word	0xff530ecf
80109910:	04060000 	.word	0x604
80109914:	e60fca01 	.word	0x1ca0fe6
80109918:	0e06a801 	.word	0x1a8060e
8010991c:	49f10000 	.word	0xf149
80109920:	92b44b03 	.word	0x34bb492
80109924:	8b7c4603 	.word	0x3467c8b
80109928:	00000000 	nop
8010992c:	22f5a3af 	sw	v1,-2782(sp)
80109930:	4d0b0100 	break	0x1,0x2d
80109934:	4d001307 	.word	0x713004d
80109938:	00000000 	nop
8010993c:	f60e55ff 	.word	0xff550ef6
80109940:	a0050000 	.word	0x5a0
80109944:	e30fe401 	.word	0x1e40fe3
80109948:	aa05c401 	.word	0x1c405aa
8010994c:	25f10000 	.word	0xf125
80109950:	ec3b3203 	.word	0x3323bec
80109954:	7b9b2c03 	.word	0x32c9b7b
80109958:	00000000 	nop
8010995c:	36f603b0 	.word	0xb003f636
80109960:	51080100 	.word	0x10851
80109964:	52002807 	.word	0x7280052
80109968:	00000000 	nop
8010996c:	220f58ff 	.word	0xff580f22
80109970:	25050000 	.word	0x525
80109974:	df0f0602 	.word	0x2060fdf
80109978:	3005ea01 	.word	0x1ea0530
8010997c:	fdf00000 	.word	0xf0fd
80109980:	9da41103 	.word	0x311a49d
80109984:	717a0b03 	.word	0x30b7a71
80109988:	00000000 	nop
8010998c:	26f765b0 	.word	0xb065f726
80109990:	6b050100 	.word	0x1056b
80109994:	59004207 	.word	0x7420059
80109998:	00000000 	nop
8010999c:	530f5fff 	.word	0xff5f0f53
801099a0:	8d040000 	break	0x0,0x12
801099a4:	d90f3302 	.word	0x2330fd9
801099a8:	98041b02 	.word	0x21b0498
801099ac:	d2f00000 	.word	0xf0d2
801099b0:	1473ea02 	.word	0x2ea7314
801099b4:	6e95e302 	.word	0x2e3956e
801099b8:	00000000 	nop
801099bc:	eaf7cab0 	.word	0xb0caf7ea
801099c0:	a2020100 	.word	0x102a2
801099c4:	63006107 	bgez	k1,0x80109b54
801099c8:	00000000 	nop
801099cc:	870f6bff 	.word	0xff6b0f87
801099d0:	ce030000 	.word	0x3ce
801099d4:	d00f6d02 	.word	0x26d0fd0
801099d8:	d9035b02 	.word	0x25b03d9
801099dc:	a7f00000 	.word	0xf0a7
801099e0:	ea6abd02 	.word	0x2bd6aea
801099e4:	e6a4b502 	.word	0x2b5a4e6
801099e8:	00000000 	nop
801099ec:	7df832b1 	.word	0xb132f87d
801099f0:	fdff0100 	.word	0x1fffd
801099f4:	6c008907 	.word	0x789006c
801099f8:	00000000 	nop
801099fc:	bc0f86ff 	.word	0xff860fbc
80109a00:	da020000 	.word	0x2da
80109a04:	c70fa402 	.word	0x2a40fc7
80109a08:	e5029902 	.word	0x29902e5
80109a0c:	7bf00000 	.word	0xf07b
80109a10:	21939b02 	.word	0x29b9321
80109a14:	6bdb9202 	.word	0x292db6b
80109a18:	00000000 	nop
80109a1c:	dff89eb1 	.word	0xb19ef8df
80109a20:	72fd0100 	.word	0x1fd72
80109a24:	7200b407 	.word	0x7b40072
80109a28:	00000000 	nop
80109a2c:	e40fadff 	.word	0xffad0fe4
80109a30:	d3010000 	.word	0x1d3
80109a34:	c00fcd02 	.word	0x2cd0fc0
80109a38:	db01c802 	.word	0x2c801db
80109a3c:	5bf00000 	.word	0xf05b
80109a40:	34538b02 	.word	0x28b5334
80109a44:	ecd08102 	.word	0x281d0ec
80109a48:	00000000 	nop
80109a4c:	13f90cb2 	.word	0xb20cf913
80109a50:	f2fa0100 	.word	0x1faf2
80109a54:	7800e207 	.word	0x7e20078
80109a58:	00000000 	nop
80109a5c:	fb0fdeff 	.word	0xffde0ffb
80109a60:	b7000000 	.word	0xb7
80109a64:	ba0ff002 	.word	0x2f00fba
80109a68:	ba00f002 	.word	0x2f000ba
80109a6c:	4af00000 	.word	0xf04a
80109a70:	cfff7f02 	.word	0x27fffcf
80109a74:	adbd7502 	.word	0x275bdad
80109a78:	00000000 	nop
80109a7c:	19f97fb2 	.word	0xb27ff919
80109a80:	7cf80100 	.word	0x1f87c
80109a84:	7d001408 	j	0x805001f4
80109a88:	00000000 	nop
80109a8c:	fe0f1600 	.word	0x160ffe
80109a90:	8bff0000 	.word	0xff8b
80109a94:	b40f0d03 	.word	0x30d0fb4
80109a98:	89ff0d03 	.word	0x30dff89
80109a9c:	4ef00000 	.word	0xf04e
80109aa0:	a0f37902 	.word	0x279f3a0
80109aa4:	d3036f02 	.word	0x26f03d3
80109aa8:	00000000 	nop
80109aac:	eff8f4b2 	.word	0xb2f4f8ef
80109ab0:	0ff60100 	.word	0x1f60f
80109ab4:	80004608 	j	0x81180200
80109ab8:	00000000 	nop
80109abc:	e80f5500 	.word	0x550fe8
80109ac0:	54fe0000 	.word	0xfe54
80109ac4:	b00f2303 	.word	0x3230fb0
80109ac8:	4bfe1e03 	.word	0x31efe4b
80109acc:	67f00000 	.word	0xf067
80109ad0:	86717902 	.word	0x2797186
80109ad4:	79ec6d02 	.word	0x26dec79
80109ad8:	00000000 	nop
80109adc:	94f86cb3 	.word	0xb36cf894
80109ae0:	a7f30100 	.word	0x1f3a7
80109ae4:	82007a08 	j	0x81e80208
80109ae8:	00000000 	nop
80109aec:	b90f9600 	.word	0x960fb9
80109af0:	1bfd0000 	.word	0xfd1b
80109af4:	ae0f2f03 	.word	0x32f0fae
80109af8:	0cfd2103 	syscall	0xc87f4
80109afc:	98f00000 	.word	0xf098
80109b00:	c19b7e02 	.word	0x27e9bc1
80109b04:	909f7202 	.word	0x2729f90
80109b08:	00000000 	nop
80109b0c:	08f8e7b3 	.word	0xb3e7f808
80109b10:	44f10100 	.word	0x1f144
80109b14:	8300ad08 	j	0x82b4020c
80109b18:	00000000 	nop
80109b1c:	710fd500 	.word	0xd50f71
80109b20:	e8fb0000 	.word	0xfbe8
80109b24:	ad0f3203 	.word	0x3320fad
80109b28:	d3fb1603 	.word	0x316fbd3
80109b2c:	def00000 	.word	0xf0de
80109b30:	1d748902 	.word	0x289741d
80109b34:	5f217d02 	.word	0x27d215f
80109b38:	00000000 	nop
80109b3c:	4af765b4 	.word	0xb465f74a
80109b40:	e4ee0100 	.word	0x1eee4
80109b44:	8200df08 	j	0x837c0208
80109b48:	00000000 	nop
80109b4c:	140f0f01 	.word	0x10f0f14
80109b50:	c4fa0000 	.word	0xfac4
80109b54:	ae0f2d03 	.word	0x32d0fae
80109b58:	a8fafe02 	.word	0x2fefaa8
80109b5c:	39f10000 	.word	0xf139
80109b60:	81db9902 	.word	0x299db81
80109b64:	b5538d02 	.word	0x28d53b5
80109b68:	00000000 	nop
80109b6c:	59f6e6b4 	.word	0xb4e6f659
80109b70:	85ec0100 	.word	0x1ec85
80109b74:	80000e09 	j	0x84380200
80109b78:	00000000 	nop
80109b7c:	a70e4101 	.word	0x1410ea7
80109b80:	b3f90000 	.word	0xf9b3
80109b84:	b00f2103 	.word	0x3210fb0
80109b88:	93f9dd02 	.word	0x2ddf993
80109b8c:	a2f10000 	.word	0xf1a2
80109b90:	9497af02 	.word	0x2af9794
80109b94:	18faa202 	.word	0x2a2fa18
80109b98:	00000000 	nop
80109b9c:	35f569b5 	.word	0xb569f535
80109ba0:	25ea0100 	.word	0x1ea25
80109ba4:	7d003a09 	j	0x84e801f4
80109ba8:	00000000 	nop
80109bac:	2e0e6a01 	.word	0x16a0e2e
80109bb0:	baf80000 	.word	0xf8ba
80109bb4:	b40f0f03 	.word	0x30f0fb4
80109bb8:	97f8b602 	.word	0x2b6f897
80109bbc:	15f20000 	.word	0xf215
80109bc0:	8458ca02 	.word	0x2ca5884
80109bc4:	57c1bd02 	.word	0x2bdc157
80109bc8:	00000000 	nop
80109bcc:	dcf3eeb5 	.word	0xb5eef3dc
80109bd0:	c1e70100 	.word	0x1e7c1
80109bd4:	79006309 	j	0x858c01e4
80109bd8:	00000000 	nop
80109bdc:	af0d8a01 	.word	0x18a0daf
80109be0:	dcf70000 	.word	0xf7dc
80109be4:	b80ff802 	.word	0x2f80fb8
80109be8:	b7f78a02 	.word	0x28af7b7
80109bec:	8ef20000 	.word	0xf28e
80109bf0:	adc4e902 	.word	0x2e9c4ad
80109bf4:	324bdd02 	.word	0x2dd4b32
80109bf8:	00000000 	nop
80109bfc:	4ef276b6 	.word	0xb676f24e
80109c00:	5ae50100 	.word	0x1e55a
80109c04:	7c008909 	j	0x862401f0
80109c08:	00000000 	nop
80109c0c:	300db901 	.word	0x1b90d30
80109c10:	1cf70000 	.word	0xf71c
80109c14:	b50f0b03 	.word	0x30b0fb5
80109c18:	f2f68202 	.word	0x282f6f2
80109c1c:	0ef30000 	.word	0xf30e
80109c20:	36f61903 	.word	0x319f636
80109c24:	acee0d03 	.word	0x30deeac
80109c28:	00000000 	nop
80109c2c:	40f000b7 	.word	0xb700f040
80109c30:	17e30100 	.word	0x1e317
80109c34:	6c002f0a 	j	0x88bc01b0
80109c38:	00000000 	nop
80109c3c:	780a0202 	.word	0x2020a78
80109c40:	12f40000 	.word	0xf412
80109c44:	c70fa702 	.word	0x2a70fc7
80109c48:	e7f3bc01 	.word	0x1bcf3e7
80109c4c:	adf50000 	.word	0xf5ad
80109c50:	734f7003 	.word	0x3704f73
80109c54:	fd766503 	.word	0x36576fd
80109c58:	00000000 	nop
80109c5c:	79ed8ab7 	.word	0xb78aed79
80109c60:	22e10100 	.word	0x1e122
80109c64:	5e00a90a 	j	0x8aa40178
80109c68:	00000000 	nop
80109c6c:	0e08fd01 	.word	0x1fd080e
80109c70:	53f20000 	.word	0xf253
80109c74:	d50f4e02 	.word	0x24e0fd5
80109c78:	2ef22901 	.word	0x129f22e
80109c7c:	08f80000 	.word	0xf808
80109c80:	b813d203 	.word	0x3d213b8
80109c84:	5e9dc803 	.word	0x3c89d5e
80109c88:	00000000 	nop
80109c8c:	13ea11b8 	swr	s1,-5613(zero)
80109c90:	78df0100 	.word	0x1df78
80109c94:	5200000b 	j	0x8c000148
80109c98:	00000000 	nop
80109c9c:	2506db01 	.word	0x1db0625
80109ca0:	59f10000 	.word	0xf159
80109ca4:	df0f0302 	.word	0x2030fdf
80109ca8:	3bf1c500 	.word	0xc5f13b
80109cac:	e8f90000 	.word	0xf9e8
80109cb0:	73d72f04 	.word	0x42fd773
80109cb4:	6abc2704 	.word	0x427bc6a
80109cb8:	00000000 	nop
80109cbc:	29e695b8 	swr	s5,-6615(a0)
80109cc0:	13de0100 	.word	0x1de13
80109cc4:	4800400b 	j	0x8d000120
80109cc8:	00000000 	nop
80109ccc:	aa04b101 	.word	0x1b104aa
80109cd0:	cbf00000 	.word	0xf0cb
80109cd4:	e60fc401 	.word	0x1c40fe6
80109cd8:	b3f08400 	.word	0x84f0b3
80109cdc:	5dfb0000 	.word	0xfb5d
80109ce0:	8de78004 	bltz	a0,0x80103b18
80109ce4:	34137a04 	.word	0x47a1334
80109ce8:	00000000 	nop
80109cec:	d5e112b9 	swr	s2,-7723(t0)
80109cf0:	f0dc0100 	.word	0x1dcf0
80109cf4:	3f00700b 	j	0x8dc000fc
80109cf8:	00000000 	nop
80109cfc:	82038501 	.word	0x1850382
80109d00:	77f00000 	.word	0xf077
80109d04:	ec0f8e01 	.word	0x18e0fec
80109d08:	64f05700 	.word	0x57f064
80109d0c:	83fc0000 	sra	ra,zero,0x12
80109d10:	a957c004 	bltz	a2,0x8011fbb8
80109d14:	adb5ba04 	.word	0x4bab5ad
80109d18:	00000000 	nop
80109d1c:	30dd87b9 	swr	a3,-8912(t4)
80109d20:	0bdc0100 	.word	0x1dc0b
80109d24:	3700970b 	j	0x8e5c00dc
80109d28:	00000000 	nop
80109d2c:	93025901 	.word	0x1590293
80109d30:	45f00000 	.word	0xf045
80109d34:	f10f5d01 	.word	0x15d0ff1
80109d38:	36f03800 	.word	0x38f036
80109d3c:	6ffd0000 	.word	0xfd6f
80109d40:	d548eb04 	.word	0x4eb48d5
80109d44:	5bc7e604 	.word	0x4e6c75b
80109d48:	00000000 	nop
80109d4c:	55d8f2b9 	swr	s2,-10155(t7)
80109d50:	61db0100 	.word	0x1db61
80109d54:	3000b70b 	j	0x8edc00c0
80109d58:	00000000 	nop
80109d5c:	cd012c01 	break	0x12c,0x7
80109d60:	26f00000 	xor	s8,zero,zero
80109d64:	f40f2e01 	.word	0x12e0ff4
80109d68:	1bf02200 	.word	0x22f01b
80109d6c:	35fe0000 	.word	0xfe35
80109d70:	9afbff04 	.word	0x4fffb9a
80109d74:	098afc04 	.word	0x4fc8a09
80109d78:	00000000 	nop
80109d7c:	5dd34fba 	swr	t7,-11427(s2)
80109d80:	ecda0100 	.word	0x1daec
80109d84:	2800d20b 	j	0x8f4800a0
80109d88:	00000000 	nop
80109d8c:	2201fe00 	.word	0xfe0122
80109d90:	13f00000 	.word	0xf013
80109d94:	f80fff00 	.word	0xff0ff8
80109d98:	0bf01200 	.word	0x12f00b
80109d9c:	defe0000 	.word	0xfede
80109da0:	815cfd04 	.word	0x4fd5c81
80109da4:	c5e8fa04 	.word	0x4fae8c5
80109da8:	00000000 	nop
80109dac:	64ce9fba 	swr	ra,-12700(s4)
80109db0:	aada0100 	.word	0x1daaa
80109db4:	2000eb0b 	j	0x8fac0080
80109db8:	00000000 	nop
80109dbc:	8a00cd00 	.word	0xcd008a
80109dc0:	08f00000 	.word	0xf008
80109dc4:	fa0fcd00 	.word	0xcd0ffa
80109dc8:	03f00600 	sra	s8,a2,0x0
80109dcc:	77ff0000 	.word	0xff77
80109dd0:	29bee204 	.word	0x4e2be29
80109dd4:	f330e104 	bgez	a3,0x801161a4
80109dd8:	00000000 	nop
80109ddc:	83c9ddba 	swr	sp,-13949(s6)
80109de0:	95da0100 	.word	0x1da95
80109de4:	1700010c 	jal	0x8004005c
80109de8:	00000000 	nop
80109dec:	fbff9500 	.word	0x95fffb
80109df0:	03f00000 	sra	s8,zero,0x0
80109df4:	fd0f9500 	.word	0x950ffd
80109df8:	01f00000 	.word	0xf001
80109dfc:	05000000 	.word	0x5
80109e00:	2abeaf04 	.word	0x4afbe2a
80109e04:	c1f5ae04 	.word	0x4aef5c1
80109e08:	00000000 	nop
80109e0c:	d5c408bb 	swr	t0,-15147(t8)
80109e10:	abda0100 	.word	0x1daab
80109e14:	0d00180c 	jal	0x80600034
80109e18:	00000000 	nop
80109e1c:	6eff5300 	.word	0x53ff6e
80109e20:	04f00000 	sllv	s8,zero,zero
80109e24:	ff0f5300 	.word	0x530fff
80109e28:	03f0feff 	.word	0xfffef003
80109e2c:	92000000 	.word	0x92
80109e30:	d9ff6c04 	.word	0x46cffd9
80109e34:	c5c46c04 	.word	0x46cc4c5
80109e38:	00000000 	nop
80109e3c:	69c01fbb 	swr	ra,-16279(t8)
80109e40:	eada0100 	.word	0x1daea
80109e44:	0100310c 	jal	0x80c40004
80109e48:	00000000 	nop
80109e4c:	cdfe0c00 	break	0xc,0x3fb
80109e50:	0cf00000 	syscall	0x3c0
80109e54:	ff0f0c00 	.word	0xc0fff
80109e58:	0cf00000 	syscall	0x3c0
80109e5c:	33010000 	.word	0x133
80109e60:	b73b2e04 	.word	0x42e3bb7
80109e64:	7a3a2e04 	.word	0x42e3a7a
80109e68:	00000000 	nop
80109e6c:	40bc22bb 	swr	v0,-17344(t9)
80109e70:	50db0100 	.word	0x1db50
80109e74:	f7ff4d0c 	jal	0x8137ffdc
80109e78:	00000000 	nop
80109e7c:	20fec3ff 	.word	0xffc3fe20
80109e80:	1df00000 	.word	0xf01d
80109e84:	ff0fc3ff 	.word	0xffc30fff
80109e88:	1df00700 	.word	0x7f01d
80109e8c:	e0010000 	.word	0x1e0
80109e90:	a393f403 	.word	0x3f493a3
80109e94:	1c77f403 	.word	0x3f4771c
80109e98:	00000000 	nop
80109e9c:	56b813bb 	swr	s3,-18346(t8)
80109ea0:	dedb0100 	.word	0x1dbde
80109ea4:	ebff6b0c 	jal	0x81afffac
80109ea8:	00000000 	nop
80109eac:	65fd79ff 	.word	0xff79fd65
80109eb0:	3af00000 	.word	0xf03a
80109eb4:	fd0f77ff 	.word	0xff770ffd
80109eb8:	37f01600 	.word	0x16f037
80109ebc:	9b020000 	.word	0x29b
80109ec0:	c226c003 	.word	0x3c026c2
80109ec4:	7f9fbf03 	.word	0x3bf9f7f
80109ec8:	00000000 	nop
80109ecc:	a7b4f3ba 	swr	s3,-19289(s7)
80109ed0:	91dc0100 	.word	0x1dc91
80109ed4:	deff8c0c 	jal	0x8233ff78
80109ed8:	00000000 	nop
80109edc:	9dfc2eff 	.word	0xff2efc9d
80109ee0:	63f00000 	.word	0xf063
80109ee4:	fa0f29ff 	.word	0xff290ffa
80109ee8:	5df02d00 	.word	0x2df05d
80109eec:	61030000 	.word	0x361
80109ef0:	540c9103 	.word	0x3910c54
80109ef4:	dfd28f03 	.word	0x38fd2df
80109ef8:	00000000 	nop
80109efc:	31b1c4ba 	swr	a0,-20175(s6)
80109f00:	69dd0100 	.word	0x1dd69
80109f04:	d2ffae0c 	jal	0x82bbff48
80109f08:	00000000 	nop
80109f0c:	cbfbe6fe 	.word	0xfee6fbcb
80109f10:	9bf00000 	.word	0xf09b
80109f14:	f50fdcfe 	.word	0xfedc0ff5
80109f18:	91f04d00 	.word	0x4df091
80109f1c:	32040000 	.word	0x432
80109f20:	45566703 	.word	0x3675645
80109f24:	e32d6503 	.word	0x3652de3
80109f28:	00000000 	nop
80109f2c:	f1ad87ba 	swr	a3,-21007(s4)
80109f30:	65de0100 	.word	0x1de65
80109f34:	c6ffd30c 	jal	0x834fff18
80109f38:	00000000 	nop
80109f3c:	f0faa2fe 	.word	0xfea2faf0
80109f40:	e3f00000 	.word	0xf0e3
80109f44:	ef0f8ffe 	.word	0xfe8f0fef
80109f48:	d3f07400 	.word	0x74f0d3
80109f4c:	0b050000 	.word	0x50b
80109f50:	bb074303 	.word	0x34307bb
80109f54:	55c13f03 	.word	0x33fc155
80109f58:	00000000 	nop
80109f5c:	e4aa3dba 	swr	sp,-21788(s1)
80109f60:	83df0100 	sra	k1,at,0x1e
80109f64:	bafff90c 	jal	0x83e7fee8
80109f68:	00000000 	nop
80109f6c:	0efa66fe 	.word	0xfe66fa0e
80109f70:	3cf10000 	.word	0xf13c
80109f74:	e80f47fe 	.word	0xfe470fe8
80109f78:	26f1a400 	.word	0xa4f126
80109f7c:	e9050000 	.word	0x5e9
80109f80:	38142403 	.word	0x3241438
80109f84:	c8901f03 	.word	0x31f90c8
80109f88:	00000000 	nop
80109f8c:	07a8e8b9 	swr	t0,-22521(t7)
80109f90:	c2e00100 	srl	gp,at,0x3
80109f94:	afff200d 	jal	0x8483febc
80109f98:	00000000 	nop
80109f9c:	2bf934fe 	.word	0xfe34f92b
80109fa0:	a6f10000 	.word	0xf1a6
80109fa4:	e00f03fe 	.word	0xfe030fe0
80109fa8:	89f1d900 	.word	0xd9f189
80109fac:	c8060000 	.word	0x6c8
80109fb0:	cd5d0a03 	break	0x30a,0x177
80109fb4:	89900403 	.word	0x3049089
80109fb8:	00000000 	nop
80109fbc:	57a589b9 	swr	t1,-23209(t4)
80109fc0:	21e20100 	.word	0x1e221
80109fc4:	a5ff490d 	jal	0x8527fe94
80109fc8:	00000000 	nop
80109fcc:	49f80dfe 	.word	0xfe0df849
80109fd0:	1ff20000 	.word	0xf21f
80109fd4:	d80fc6fd 	.word	0xfdc60fd8
80109fd8:	fcf11201 	.word	0x112f1fc
80109fdc:	a4070000 	.word	0x7a4
80109fe0:	41b3f502 	.word	0x2f5b341
80109fe4:	5ca2ee02 	.word	0x2eea25c
80109fe8:	00000000 	nop
80109fec:	d1a222b9 	swr	v0,-23855(t1)
80109ff0:	a0e30100 	.word	0x1e3a0
80109ff4:	9dff710d 	jal	0x85c7fe74
80109ff8:	00000000 	nop
80109ffc:	6df7f4fd 	.word	0xfdf4f76d
8010a000:	a7f20000 	.word	0xf2a7
8010a004:	d00f93fd 	.word	0xfd930fd0
8010a008:	7ef24d01 	.word	0x14df27e
8010a00c:	79080000 	.word	0x879
8010a010:	dacde502 	.word	0x2e5cdda
8010a014:	a492dd02 	.word	0x2dd92a4
8010a018:	00000000 	nop
8010a01c:	72a0b4b8 	swr	s4,-24462(a1)
8010a020:	3ce50100 	.word	0x1e53c
8010a024:	92ff990d 	jal	0x8667fe48
8010a028:	00000000 	nop
8010a02c:	9cf6d2fd 	.word	0xfdd2f69c
8010a030:	3cf30000 	.word	0xf33c
8010a034:	c50f4efd 	.word	0xfd4e0fc5
8010a038:	0cf39501 	syscall	0x657cc
8010a03c:	41090000 	.word	0x941
8010a040:	1bbce002 	.word	0x2e0bc1b
8010a044:	7bebd602 	.word	0x2d6eb7b
8010a048:	00000000 	nop
8010a04c:	3b9e3cb8 	swr	gp,-25029(at)
8010a050:	03e70100 	sra	gp,at,0x1c
8010a054:	87ffda0d 	jal	0x876bfe1c
8010a058:	00000000 	nop
8010a05c:	60f5cafd 	.word	0xfdcaf560
8010a060:	3ff40000 	.word	0xf43f
8010a064:	b90f0bfd 	.word	0xfd0b0fb9
8010a068:	0af4f701 	.word	0x1f7f40a
8010a06c:	710a0000 	.word	0xa71
8010a070:	015be302 	.word	0x2e35b01
8010a074:	718ad702 	.word	0x2d78a71
8010a078:	00000000 	nop
8010a07c:	369cb8b7 	.word	0xb7b89c36
8010a080:	02e90100 	srl	sp,at,0x4
8010a084:	7eff200e 	jal	0x8883fdf8
8010a088:	00000000 	nop
8010a08c:	28f4dffd 	.word	0xfddff428
8010a090:	76f50000 	.word	0xf576
8010a094:	ae0fd5fc 	.word	0xfcd50fae
8010a098:	3ff55802 	.word	0x258f53f
8010a09c:	9c0b0000 	.word	0xb9c
8010a0a0:	b6a1e602 	.word	0x2e6a1b6
8010a0a4:	4f16d902 	.word	0x2d9164f
8010a0a8:	00000000 	nop
8010a0ac:	6b9a2bb7 	.word	0xb72b9a6b
8010a0b0:	39eb0100 	.word	0x1eb39
8010a0b4:	78ff6c0e 	jal	0x89b3fde0
8010a0b8:	00000000 	nop
8010a0bc:	fdf213fe 	.word	0xfe13f2fd
8010a0c0:	e5f60000 	.word	0xf6e5
8010a0c4:	a70faffc 	.word	0xfcaf0fa7
8010a0c8:	b2f6b202 	.word	0x2b2f6b2
8010a0cc:	bb0c0000 	.word	0xcbb
8010a0d0:	fdadec02 	.word	0x2ecadfd
8010a0d4:	b7cedd02 	.word	0x2ddceb7
8010a0d8:	00000000 	nop
8010a0dc:	e69896b6 	.word	0xb69698e6
8010a0e0:	a7ed0100 	.word	0x1eda7
8010a0e4:	75ffbd0e 	jal	0x8af7fdd4
8010a0e8:	00000000 	nop
8010a0ec:	eef164fe 	.word	0xfe64f1ee
8010a0f0:	90f80000 	.word	0xf890
8010a0f4:	a30f9efc 	.word	0xfc9e0fa3
8010a0f8:	64f8fa02 	.word	0x2faf864
8010a0fc:	c10d0000 	.word	0xdc1
8010a100:	bdedf702 	.word	0x2f7edbd
8010a104:	ea41e802 	.word	0x2e841ea
8010a108:	00000000 	nop
8010a10c:	b097fdb5 	.word	0xb5fd97b0
8010a110:	4cf00100 	syscall	0x7c1
8010a114:	76ff140f 	jal	0x8c53fdd8
8010a118:	00000000 	nop
8010a11c:	0cf1cefe 	.word	0xfecef10c
8010a120:	72fa0000 	.word	0xfa72
8010a124:	a40fa3fc 	.word	0xfca30fa4
8010a128:	52fa2503 	.word	0x325fa52
8010a12c:	9f0e0000 	.word	0xe9f
8010a130:	cffd0a03 	.word	0x30afdcf
8010a134:	bb24fb02 	.word	0x2fb24bb
8010a138:	00000000 	nop
8010a13c:	d39660b5 	.word	0xb56096d3
8010a140:	26f30100 	.word	0x1f326
8010a144:	7bff6e0f 	jal	0x8dbbfdec
8010a148:	00000000 	nop
8010a14c:	68f047ff 	.word	0xff47f068
8010a150:	81fc0000 	.word	0xfc81
8010a154:	aa0fc0fc 	.word	0xfcc00faa
8010a158:	6efc2b03 	.word	0x32bfc6e
8010a15c:	450f0000 	.word	0xf45
8010a160:	636e2803 	.word	0x3286e63
8010a164:	e50f1903 	.word	0x3190fe5
8010a168:	00000000 	nop
8010a16c:	5896c4b4 	.word	0xb4c49658
8010a170:	36f60100 	.word	0x1f636
8010a174:	84ffc90f 	jal	0x8f27fe10
8010a178:	00000000 	nop
8010a17c:	10f0beff 	.word	0xffbef010
8010a180:	a8fe0000 	.word	0xfea8
8010a184:	b40ff4fc 	.word	0xfcf40fb4
8010a188:	a1fe0903 	.word	0x309fea1
8010a18c:	a60f0000 	.word	0xfa6
8010a190:	9e7c5203 	.word	0x3527c9e
8010a194:	03354403 	.word	0x3443503
8010a198:	00000000 	nop
8010a19c:	4b9628b4 	.word	0xb428964b
8010a1a0:	7af90100 	.word	0x1f97a
8010a1a4:	8fff2100 	.word	0x21ff8f
8010a1a8:	00000000 	nop
8010a1ac:	06f02400 	srlv	s8,a0,at
8010a1b0:	cd000000 	break	0x0,0x3
8010a1b4:	c10f3afd 	.word	0xfd3a0fc1
8010a1b8:	d000c502 	.word	0x2c500d0
8010a1bc:	bc0f0000 	.word	0xfbc
8010a1c0:	e0dd8a03 	.word	0x38adde0
8010a1c4:	ec297e03 	.word	0x37e29ec
8010a1c8:	00000000 	nop
8010a1cc:	b49691b3 	.word	0xb39196b4
8010a1d0:	f2fc0100 	.word	0x1fcf2
8010a1d4:	9cff7600 	.word	0x76ff9c
8010a1d8:	00000000 	nop
8010a1dc:	44f07100 	.word	0x71f044
8010a1e0:	d9020000 	.word	0x2d9
8010a1e4:	cf0f8dfd 	.word	0xfd8d0fcf
8010a1e8:	e2026902 	.word	0x26902e2
8010a1ec:	8d0f0000 	break	0x0,0x3e
8010a1f0:	239cd203 	.word	0x3d29c23
8010a1f4:	3eccc703 	.word	0x3c7cc3e
8010a1f8:	00000000 	nop
8010a1fc:	9d9700b3 	.word	0xb300979d
8010a200:	9c000100 	.word	0x1009c
8010a204:	aaffc500 	.word	0xc5ffaa
8010a208:	00000000 	nop
8010a20c:	baf0a000 	.word	0xa0f0ba
8010a210:	b8040000 	.word	0x4b8
8010a214:	dc0fe5fd 	.word	0xfde50fdc
8010a218:	c3040302 	.word	0x20304c3
8010a21c:	240f0000 	.word	0xf24
8010a220:	76212a04 	.word	0x42a2176
8010a224:	c2562104 	bgez	at,0x8011fd30
8010a228:	00000000 	nop
8010a22c:	109977b2 	.word	0xb2779910
8010a230:	7a040100 	.word	0x1047a
8010a234:	b7ff0c01 	.word	0x10cffb7
8010a238:	00000000 	nop
8010a23c:	58f1b900 	.word	0xb9f158
8010a240:	5f060000 	.word	0x65f
8010a244:	e50f31fe 	.word	0xfe310fe5
8010a248:	6906a901 	.word	0x1a90669
8010a24c:	900e0000 	.word	0xe90
8010a250:	6a004404 	.word	0x444006a
8010a254:	48083d04 	.word	0x43d0848
8010a258:	00000000 	nop
8010a25c:	cd9afcb1 	.word	0xb1fc9acd
8010a260:	58080100 	.word	0x10858
8010a264:	bdff1801 	.word	0x118ffbd
8010a268:	00000000 	nop
8010a26c:	75f1af00 	.word	0xaff175
8010a270:	a1060000 	.word	0x6a1
8010a274:	ea0f5cfe 	.word	0xfe5c0fea
8010a278:	aa067e01 	.word	0x17e06aa
8010a27c:	770e0000 	.word	0xe77
8010a280:	d3101704 	.word	0x41710d3
8010a284:	9a8d1104 	bal	0x800ed8f0
8010a288:	00000000 	nop
8010a28c:	839c91b1 	.word	0xb1919c83
8010a290:	090c0100 	.word	0x10c09
8010a294:	c4ff1c01 	.word	0x11cffc4
8010a298:	00000000 	nop
8010a29c:	81f1a000 	.word	0xa0f181
8010a2a0:	bd060000 	.word	0x6bd
8010a2a4:	ee0f86fe 	.word	0xfe860fee
8010a2a8:	c4065701 	.word	0x15706c4
8010a2ac:	6f0e0000 	.word	0xe6f
8010a2b0:	dc62ed03 	.word	0x3ed62dc
8010a2b4:	a410e903 	.word	0x3e910a4
8010a2b8:	00000000 	nop
8010a2bc:	299e34b1 	.word	0xb1349e29
8010a2c0:	940f0100 	.word	0x10f94
8010a2c4:	caff1901 	.word	0x119ffca
8010a2c8:	00000000 	nop
8010a2cc:	79f18e00 	.word	0x8ef179
8010a2d0:	ad060000 	.word	0x6ad
8010a2d4:	f10fadfe 	.word	0xfead0ff1
8010a2d8:	b3063401 	.word	0x13406b3
8010a2dc:	7a0e0000 	.word	0xe7a
8010a2e0:	f4e4c603 	.word	0x3c6e4f4
8010a2e4:	6387c303 	.word	0x3c38763
8010a2e8:	00000000 	nop
8010a2ec:	b69fe3b0 	.word	0xb0e39fb6
8010a2f0:	02130100 	srl	v0,at,0xc
8010a2f4:	d0ff0e01 	.word	0x10effd0
8010a2f8:	00000000 	nop
8010a2fc:	5bf17a00 	.word	0x7af15b
8010a300:	6c060000 	.word	0x66c
8010a304:	f40fd0fe 	.word	0xfed00ff4
8010a308:	71061601 	.word	0x1160671
8010a30c:	9a0e0000 	.word	0xe9a
8010a310:	24fba303 	.word	0x3a3fb24
8010a314:	905da103 	.word	0x3a15d90
8010a318:	00000000 	nop
8010a31c:	20a19db0 	.word	0xb09da120
8010a320:	5b160100 	.word	0x1165b
8010a324:	d5fff900 	.word	0xf9ffd5
8010a328:	00000000 	nop
8010a32c:	28f16500 	.word	0x65f128
8010a330:	f4050000 	.word	0x5f4
8010a334:	f60ff1fe 	.word	0xfef10ff6
8010a338:	f705fc00 	.word	0xfc05f7
8010a33c:	d00e0000 	.word	0xed0
8010a340:	b6938503 	.word	0x38593b6
8010a344:	50898303 	.word	0x3838950
8010a348:	00000000 	nop
8010a34c:	5ca261b0 	.word	0xb061a25c
8010a350:	a4190100 	.word	0x119a4
8010a354:	daffd900 	.word	0xd9ffda
8010a358:	00000000 	nop
8010a35c:	e3f05000 	.word	0x50f0e3
8010a360:	3d050000 	.word	0x53d
8010a364:	f80f0dff 	.word	0xff0d0ff8
8010a368:	4005e600 	.word	0xe60540
8010a36c:	160f0000 	.word	0xf16
8010a370:	73396d03 	.word	0x36d3973
8010a374:	c09c6b03 	.word	0x36b9cc0
8010a378:	00000000 	nop
8010a37c:	62a32cb0 	.word	0xb02ca362
8010a380:	e81c0100 	.word	0x11ce8
8010a384:	ddffb000 	.word	0xb0ffdd
8010a388:	00000000 	nop
8010a38c:	95f03a00 	.word	0x3af095
8010a390:	44040000 	.word	0x444
8010a394:	fa0f24ff 	.word	0xff240ffa
8010a398:	4604d400 	.word	0xd40446
8010a39c:	650f0000 	.word	0xf65
8010a3a0:	3e115d03 	.word	0x35d113e
8010a3a4:	78c35b03 	.word	0x35bc378
8010a3a8:	00000000 	nop
8010a3ac:	28a4fcaf 	sw	gp,-23512(ra)
8010a3b0:	2d200100 	.word	0x1202d
8010a3b4:	e0ff7c00 	.word	0x7cffe0
8010a3b8:	00000000 	nop
8010a3bc:	4bf02600 	.word	0x26f04b
8010a3c0:	07030000 	.word	0x307
8010a3c4:	fb0f37ff 	.word	0xff370ffb
8010a3c8:	0803c600 	.word	0xc60308
8010a3cc:	b00f0000 	.word	0xfb0
8010a3d0:	d9c45703 	.word	0x357c4d9
8010a3d4:	b3ac5603 	.word	0x356acb3
8010a3d8:	00000000 	nop
8010a3dc:	a4a4d1af 	sw	s1,-23388(s8)
8010a3e0:	7a230100 	.word	0x1237a
8010a3e4:	e3ff3f00 	.word	0x3fffe3
8010a3e8:	00000000 	nop
8010a3ec:	14f01200 	.word	0x12f014
8010a3f0:	8d010000 	break	0x0,0x6
8010a3f4:	fb0f44ff 	.word	0xff440ffb
8010a3f8:	8e01bb00 	.word	0xbb018e
8010a3fc:	e80f0000 	.word	0xfe8
8010a400:	473f6003 	.word	0x3603f47
8010a404:	36485f03 	.word	0x35f4836
8010a408:	00000000 	nop
8010a40c:	cba4a8af 	sw	t0,-23349(sp)
8010a410:	d9260100 	.word	0x126d9
8010a414:	e4fffc0f 	jal	0x8ff3ff90
8010a418:	00000000 	nop
8010a41c:	01f0ffff 	.word	0xfffff001
8010a420:	e7ff0000 	.word	0xffe7
8010a424:	fc0f4dff 	.word	0xff4d0ffc
8010a428:	e7ffb300 	.word	0xb3ffe7
8010a42c:	fb0f0000 	.word	0xffb
8010a430:	74477903 	.word	0x3794774
8010a434:	05607803 	.word	0x3786005
8010a438:	00000000 	nop
8010a43c:	96a480af 	sw	zero,-23402(gp)
8010a440:	4f2a0100 	.word	0x12a4f
8010a444:	e1ffb60f 	jal	0x8edbff84
8010a448:	00000000 	nop
8010a44c:	1bf0eaff 	.word	0xffeaf01b
8010a450:	2dfe0000 	.word	0xfe2d
8010a454:	fb0f3dff 	.word	0xff3d0ffb
8010a458:	2cfec200 	.word	0xc2fe2c
8010a45c:	e00f0000 	.word	0xfe0
8010a460:	c7325703 	.word	0x35732c7
8010a464:	c3245603 	.word	0x35624c3
8010a468:	00000000 	nop
8010a46c:	f8a356af 	sw	s6,-23560(k0)
8010a470:	972d0100 	.word	0x12d97
8010a474:	dcff560f 	jal	0x8d5bff70
8010a478:	00000000 	nop
8010a47c:	8bf0c5ff 	.word	0xffc5f08b
8010a480:	e1fb0000 	.word	0xfbe1
8010a484:	f90f1aff 	.word	0xff1a0ff9
8010a488:	dffbde00 	.word	0xdefbdf
8010a48c:	6e0f0000 	.word	0xf6e
8010a490:	a2890403 	.word	0x30489a2
8010a494:	01320303 	.word	0x3033201
8010a498:	00000000 	nop
8010a49c:	faa228af 	sw	t0,-23814(t9)
8010a4a0:	6f300100 	.word	0x1306f
8010a4a4:	d8fff30e 	jal	0x8bcfff60
8010a4a8:	00000000 	nop
8010a4ac:	5af19bff 	.word	0xff9bf15a
8010a4b0:	95f90000 	.word	0xf995
8010a4b4:	f80f04ff 	.word	0xff040ff8
8010a4b8:	92f9e700 	.word	0xe7f992
8010a4bc:	9f0e0000 	.word	0xe9f
8010a4c0:	7723d002 	.word	0x2d02377
8010a4c4:	f2a0ce02 	.word	0x2cea0f2
8010a4c8:	00000000 	nop
8010a4cc:	a9a1faae 	sw	k0,-24151(s7)
8010a4d0:	ea320100 	.word	0x132ea
8010a4d4:	d7ff940e 	jal	0x8a53ff5c
8010a4d8:	00000000 	nop
8010a4dc:	6ff277ff 	.word	0xff77f26f
8010a4e0:	8af70000 	.word	0xf78a
8010a4e4:	f70ffdfe 	.word	0xfefd0ff7
8010a4e8:	86f7dc00 	.word	0xdcf786
8010a4ec:	8a0d0000 	.word	0xd8a
8010a4f0:	dbe1b302 	.word	0x2b3e1db
8010a4f4:	af5eb202 	.word	0x2b25eaf
8010a4f8:	00000000 	nop
8010a4fc:	17a0ccae 	sw	t4,-24553(s6)
8010a500:	1b350100 	.word	0x1351b
8010a504:	d9ff440e 	jal	0x8913ff64
8010a508:	00000000 	nop
8010a50c:	94f363ff 	.word	0xff63f394
8010a510:	f1f50000 	.word	0xf5f1
8010a514:	f80f07ff 	.word	0xff070ff8
8010a518:	ecf5c200 	.word	0xc2f5ec
8010a51c:	660c0000 	.word	0xc66
8010a520:	e133a802 	.word	0x2a833e1
8010a524:	c6d9a602 	.word	0x2a6d9c6
8010a528:	00000000 	nop
8010a52c:	529ea1ae 	sw	at,-25006(s5)
8010a530:	15370100 	.word	0x13715
8010a534:	ddff080e 	jal	0x8823ff74
8010a538:	00000000 	nop
8010a53c:	8ff463ff 	.word	0xff63f48f
8010a540:	d6f40000 	.word	0xf4d6
8010a544:	f90f1fff 	.word	0xff1f0ff9
8010a548:	d2f4a100 	.word	0xa1f4d2
8010a54c:	6d0b0000 	.word	0xb6d
8010a550:	dff3a502 	.word	0x2a5f3df
8010a554:	7de2a402 	.word	0x2a4e27d
8010a558:	00000000 	nop
8010a55c:	6a9c7bae 	sw	k1,-25494(s3)
8010a560:	ea380100 	.word	0x138ea
8010a564:	e3ffe30d 	jal	0x878fff8c
8010a568:	00000000 	nop
8010a56c:	37f577ff 	.word	0xff77f537
8010a570:	33f40000 	.word	0xf433
8010a574:	fb0f46ff 	.word	0xff460ffb
8010a578:	30f47d00 	.word	0x7df430
8010a57c:	c60a0000 	.word	0xac6
8010a580:	f9dda702 	.word	0x2a7ddf9
8010a584:	3726a702 	.word	0x2a72637
8010a588:	00000000 	nop
8010a58c:	6e9a5cae 	sw	gp,-26002(s2)
8010a590:	ad3a0100 	.word	0x13aad
8010a594:	ebffd50d 	jal	0x8757ffac
8010a598:	00000000 	nop
8010a59c:	77f59bff 	.word	0xff9bf577
8010a5a0:	f8f30000 	.word	0xf3f8
8010a5a4:	fd0f79ff 	.word	0xff790ffd
8010a5a8:	f6f35900 	.word	0x59f3f6
8010a5ac:	870a0000 	.word	0xa87
8010a5b0:	2a29ab02 	.word	0x2ab292a
8010a5b4:	9dcaaa02 	.word	0x2aaca9d
8010a5b8:	00000000 	nop
8010a5bc:	6e9845ae 	sw	a1,-26514(s2)
8010a5c0:	713c0100 	.word	0x13c71
8010a5c4:	f5ffdf0d 	jal	0x877fffd4
8010a5c8:	00000000 	nop
8010a5cc:	4bf5ccff 	.word	0xffccf54b
8010a5d0:	1ef40000 	.word	0xf41e
8010a5d4:	ff0fb9ff 	.word	0xffb90fff
8010a5d8:	1df42f00 	.word	0x2ff41d
8010a5dc:	b50a0000 	.word	0xab5
8010a5e0:	1aabaf02 	.word	0x2afab1a
8010a5e4:	9291af02 	.word	0x2af9192
8010a5e8:	00000000 	nop
8010a5ec:	7a963aae 	sw	k0,-27014(s1)
8010a5f0:	483e0100 	.word	0x13e48
8010a5f4:	0000ff0d 	jal	0x87fc0000
8010a5f8:	00000000 	nop
8010a5fc:	b8f40400 	.word	0x4f4b8
8010a600:	a9f40000 	.word	0xf4a9
8010a604:	ff0f0600 	.word	0x60fff
8010a608:	a9f4fcff 	.word	0xfffcf4a9
8010a60c:	480b0000 	.word	0xb48
8010a610:	7fc9b702 	.word	0x2b7c97f
8010a614:	50c9b702 	.word	0x2b7c950
8010a618:	00000000 	nop
8010a61c:	a0943bae 	sw	k1,-27488(s1)
8010a620:	46400100 	.word	0x14046
8010a624:	0e00350e 	jal	0x88d40038
8010a628:	00000000 	nop
8010a62c:	d1f33d00 	.word	0x3df3d1
8010a630:	a2f50000 	.word	0xf5a2
8010a634:	fe0f5e00 	.word	0x5e0ffe
8010a638:	a2f5b9ff 	.word	0xffb9f5a2
8010a63c:	2e0c0000 	.word	0xc2e
8010a640:	4247c802 	.word	0x2c84742
8010a644:	fa1ac802 	.word	0x2c81afa
8010a648:	00000000 	nop
8010a64c:	f0924aae 	sw	t2,-27920(s2)
8010a650:	7c420100 	.word	0x1427c
8010a654:	19007e0e 	jal	0x89f80064
8010a658:	00000000 	nop
8010a65c:	bcf25b00 	.word	0x5bf2bc
8010a660:	11f70000 	.word	0xf711
8010a664:	fc0fa200 	.word	0xa20ffc
8010a668:	0ff779ff 	.word	0xff79f70f
8010a66c:	410d0000 	.word	0xd41
8010a670:	bfade302 	.word	0x2e3adbf
8010a674:	0b24e302 	.word	0x2e3240b
8010a678:	00000000 	nop
8010a67c:	799166ae 	sw	a2,-28295(s3)
8010a680:	f9440100 	.word	0x144f9
8010a684:	2000ca0e 	jal	0x8b280080
8010a688:	00000000 	nop
8010a68c:	c9f15e00 	.word	0x5ef1c9
8010a690:	acf80000 	.word	0xf8ac
8010a694:	fa0fcf00 	.word	0xcf0ffa
8010a698:	aaf849ff 	.word	0xff49f8aa
8010a69c:	330e0000 	.word	0xe33
8010a6a0:	81e1fd02 	.word	0x2fde181
8010a6a4:	abf8fc02 	.word	0x2fcf8ab
8010a6a8:	00000000 	nop
8010a6ac:	3f908cae 	sw	t4,-28609(s4)
8010a6b0:	b2470100 	.word	0x147b2
8010a6b4:	27000e0f 	jal	0x8c38009c
8010a6b8:	00000000 	nop
8010a6bc:	18f15b00 	.word	0x5bf118
8010a6c0:	33fa0000 	.word	0xfa33
8010a6c4:	f80ffb00 	.word	0xfb0ff8
8010a6c8:	31fa17ff 	.word	0xff17fa31
8010a6cc:	e10e0000 	.word	0xee1
8010a6d0:	c5b01103 	.word	0x311b0c5
8010a6d4:	f44e1003 	.word	0x3104ef4
8010a6d8:	00000000 	nop
8010a6dc:	468fbaae 	sw	k0,-28858(s5)
8010a6e0:	9a4a0100 	.word	0x14a9a
8010a6e4:	2f004e0f 	jal	0x8d3800bc
8010a6e8:	00000000 	nop
8010a6ec:	9af05000 	.word	0x50f09a
8010a6f0:	aefb0000 	.word	0xfbae
8010a6f4:	f50f2801 	.word	0x1280ff5
8010a6f8:	abfbe3fe 	.word	0xfee3fbab
8010a6fc:	5c0f0000 	.word	0xf5c
8010a700:	8e021e03 	.word	0x31e028e
8010a704:	ec0a1c03 	.word	0x31c0aec
8010a708:	00000000 	nop
8010a70c:	938ef2ae 	sw	s2,-29037(s7)
8010a710:	a24d0100 	.word	0x14da2
8010a714:	37008b0f 	jal	0x8e2c00dc
8010a718:	00000000 	nop
8010a71c:	42f03d00 	.word	0x3df042
8010a720:	27fd0000 	.word	0xfd27
8010a724:	f10f5901 	.word	0x1590ff1
8010a728:	24fdadfe 	.word	0xfeadfd24
8010a72c:	af0f0000 	.word	0xfaf
8010a730:	4c772203 	syscall	0xc89dd
8010a734:	5bc81f03 	.word	0x31fc85b
8010a738:	00000000 	nop
8010a73c:	2a8e34af 	sw	s4,-29142(t9)
8010a740:	ba500100 	.word	0x150ba
8010a744:	3f00c90f 	jal	0x8f2400fc
8010a748:	00000000 	nop
8010a74c:	0ff02100 	.word	0x21f00f
8010a750:	a8fe0000 	.word	0xfea8
8010a754:	ec0f8e01 	.word	0x18e0fec
8010a758:	a6fe73fe 	.word	0xfe73fea6
8010a75c:	dd0f0000 	.word	0xfdd
8010a760:	70561f03 	.word	0x31f5670
8010a764:	60c81b03 	.word	0x31bc860
8010a768:	00000000 	nop
8010a76c:	0d8e7faf 	sw	ra,-29171(k1)
8010a770:	d6530100 	.word	0x153d6
8010a774:	49000900 	.word	0x90049
8010a778:	00000000 	nop
8010a77c:	01f0faff 	.word	0xfffaf001
8010a780:	3c000000 	.word	0x3c
8010a784:	e60fca01 	.word	0x1ca0fe6
8010a788:	3c0036fe 	.word	0xfe36003c
8010a78c:	e50f0000 	.word	0xfe5
8010a790:	438c1503 	.word	0x3158c43
8010a794:	70f01003 	.word	0x310f070
8010a798:	00000000 	nop
8010a79c:	428ed4af 	sw	s4,-29118(s8)
8010a7a0:	e5560100 	.word	0x156e5
8010a7a4:	53004f00 	.word	0x4f0053
8010a7a8:	00000000 	nop
8010a7ac:	1ff0c1ff 	.word	0xffc1f01f
8010a7b0:	ef010000 	.word	0x1ef
8010a7b4:	de0f0c02 	.word	0x20c0fde
8010a7b8:	f301f8fd 	.word	0xfdf801f3
8010a7bc:	bf0f0000 	.word	0xfbf
8010a7c0:	f9c50603 	.word	0x306c5f9
8010a7c4:	78e60003 	.word	0x300e678
8010a7c8:	00000000 	nop
8010a7cc:	cc8e34b0 	.word	0xb0348ecc
8010a7d0:	d9590100 	.word	0x159d9
8010a7d4:	5f009d00 	.word	0x9d005f
8010a7d8:	00000000 	nop
8010a7dc:	78f071ff 	.word	0xff71f078
8010a7e0:	ca030000 	.word	0x3ca
8010a7e4:	d40f5502 	.word	0x2550fd4
8010a7e8:	d403bcfd 	.word	0xfdbc03d4
8010a7ec:	5e0f0000 	.word	0xf5e
8010a7f0:	fb9af502 	.word	0x2f59afb
8010a7f4:	a13cee02 	.word	0x2ee3ca1
8010a7f8:	00000000 	nop
8010a7fc:	b08f9db0 	.word	0xb09d8fb0
8010a800:	a45c0100 	.word	0x15ca4
8010a804:	6c00f500 	.word	0xf5006c
8010a808:	00000000 	nop
8010a80c:	20f108ff 	.word	0xff08f120
8010a810:	cf050000 	.word	0x5cf
8010a814:	c70fa402 	.word	0x2a40fc7
8010a818:	e4058cfd 	.word	0xfd8c05e4
8010a81c:	ac0e0000 	.word	0xeac
8010a820:	8fbee502 	.word	0x2e5be8f
8010a824:	2da8dc02 	.word	0x2dca82d
8010a828:	00000000 	nop
8010a82c:	f09011b1 	.word	0xb11190f0
8010a830:	375f0100 	.word	0x15f37
8010a834:	78005a01 	.word	0x15a0078
8010a838:	00000000 	nop
8010a83c:	35f283fe 	.word	0xfe83f235
8010a840:	f7070000 	.word	0x7f7
8010a844:	ba0ff102 	.word	0x2f10fba
8010a848:	1b0877fd 	.word	0xfd77081b
8010a84c:	8f0d0000 	.word	0xd8f
8010a850:	4f27dc02 	.word	0x2dc274f
8010a854:	b52fd102 	.word	0x2d12fb5
8010a858:	00000000 	nop
8010a85c:	91928fb1 	.word	0xb18f9291
8010a860:	84610100 	.word	0x16184
8010a864:	7600cb01 	.word	0x1cb0076
8010a868:	00000000 	nop
8010a86c:	d2f31ffe 	.word	0xfe1ff3d2
8010a870:	330a0000 	.word	0xa33
8010a874:	bc0fe602 	.word	0x2e60fbc
8010a878:	5f0acbfd 	.word	0xfdcb0a5f
8010a87c:	fa0b0000 	.word	0xbfa
8010a880:	53e6db02 	.word	0x2dbe653
8010a884:	a042d002 	.word	0x2d042a0
8010a888:	00000000 	nop
8010a88c:	749411b2 	.word	0xb2119474
8010a890:	9a630100 	.word	0x1639a
8010a894:	7500f201 	.word	0x1f20075
8010a898:	00000000 	nop
8010a89c:	74f406fe 	.word	0xfe06f474
8010a8a0:	e50a0000 	.word	0xae5
8010a8a4:	be0fdb02 	.word	0x2db0fbe
8010a8a8:	130bf1fd 	.word	0xfdf10b13
8010a8ac:	5c0b0000 	.word	0xb5c
8010a8b0:	fb9bdb02 	.word	0x2db9bfb
8010a8b4:	935ad002 	.word	0x2d05a93
8010a8b8:	00000000 	nop
8010a8bc:	769691b2 	.word	0xb2919676
8010a8c0:	92650100 	.word	0x16592
8010a8c4:	74001a02 	.word	0x21a0074
8010a8c8:	00000000 	nop
8010a8cc:	29f5e9fd 	.word	0xfde9f529
8010a8d0:	940b0000 	.word	0xb94
8010a8d4:	be0fd802 	.word	0x2d80fbe
8010a8d8:	c40b13fe 	.word	0xfe130bc4
8010a8dc:	aa0a0000 	.word	0xaaa
8010a8e0:	9eedda02 	.word	0x2daed9e
8010a8e4:	a7cecf02 	.word	0x2cfcea7
8010a8e8:	00000000 	nop
8010a8ec:	979810b3 	.word	0xb3109897
8010a8f0:	69670100 	.word	0x16769
8010a8f4:	75004502 	.word	0x2450075
8010a8f8:	00000000 	nop
8010a8fc:	f4f5c6fd 	.word	0xfdc6f5f4
8010a900:	3f0c0000 	.word	0xc3f
8010a904:	bd0fdd02 	.word	0x2dd0fbd
8010a908:	730c34fe 	.word	0xfe340c73
8010a90c:	e3090000 	.word	0x9e3
8010a910:	934bda02 	.word	0x2da4b93
8010a914:	dc11cf02 	.word	0x2cf11dc
8010a918:	00000000 	nop
8010a91c:	d59a8fb3 	.word	0xb38f9ad5
8010a920:	19690100 	.word	0x16919
8010a924:	77007202 	.word	0x2720077
8010a928:	00000000 	nop
8010a92c:	d4f69efd 	.word	0xfd9ef6d4
8010a930:	e40c0000 	.word	0xce4
8010a934:	bb0fe902 	.word	0x2e90fbb
8010a938:	1c0d55fe 	.word	0xfe550d1c
8010a93c:	04090000 	.word	0x904
8010a940:	9032da02 	.word	0x2da3290
8010a944:	dfa1ce02 	.word	0x2cea1df
8010a948:	00000000 	nop
8010a94c:	319d11b4 	.word	0xb4119d31
8010a950:	a06a0100 	.word	0x16aa0
8010a954:	7a00a102 	.word	0x2a1007a
8010a958:	00000000 	nop
8010a95c:	cef771fd 	.word	0xfd71f7ce
8010a960:	7f0d0000 	.word	0xd7f
8010a964:	b80ffb02 	.word	0x2fb0fb8
8010a968:	bd0d79fe 	.word	0xfe790dbd
8010a96c:	0d080000 	break	0x0,0x20
8010a970:	0239db02 	.word	0x2db3902
8010a974:	3a15cf02 	.word	0x2cf153a
8010a978:	00000000 	nop
8010a97c:	a89f96b4 	.word	0xb4969fa8
8010a980:	f86b0100 	.word	0x16bf8
8010a984:	7e00d302 	.word	0x2d3007e
8010a988:	00000000 	nop
8010a98c:	e1f83ffd 	.word	0xfd3ff8e1
8010a990:	0f0e0000 	.word	0xe0f
8010a994:	b30f1403 	.word	0x3140fb3
8010a998:	530ea2fe 	.word	0xfea20e53
8010a99c:	fd060000 	.word	0x6fd
8010a9a0:	d102de02 	.word	0x2de02d1
8010a9a4:	b60ed102 	.word	0x2d10eb6
8010a9a8:	00000000 	nop
8010a9ac:	3aa21fb5 	.word	0xb51fa23a
8010a9b0:	1f6d0100 	.word	0x16d1f
8010a9b4:	82000703 	.word	0x3070082
8010a9b8:	00000000 	nop
8010a9bc:	0dfa0afd 	.word	0xfd0afa0d
8010a9c0:	8d0e0000 	break	0x0,0x3a
8010a9c4:	ad0f3103 	.word	0x3310fad
8010a9c8:	da0ed1fe 	.word	0xfed10eda
8010a9cc:	d4050000 	.word	0x5d4
8010a9d0:	5143e302 	.word	0x2e34351
8010a9d4:	6f40d502 	.word	0x2d5406f
8010a9d8:	00000000 	nop
8010a9dc:	e6a4aeb5 	.word	0xb5aea4e6
8010a9e0:	116e0100 	.word	0x16e11
8010a9e4:	88003e03 	.word	0x33e0088
8010a9e8:	00000000 	nop
8010a9ec:	52fbd4fc 	.word	0xfcd4fb52
8010a9f0:	f70e0000 	.word	0xef7
8010a9f4:	a60f5203 	.word	0x3520fa6
8010a9f8:	4c0f08ff 	.word	0xff080f4c
8010a9fc:	94040000 	.word	0x494
8010aa00:	e9b4eb02 	.word	0x2ebb4e9
8010aa04:	7b64dc02 	.word	0x2dc647b
8010aa08:	00000000 	nop
8010aa0c:	aba745b6 	.word	0xb645a7ab
8010aa10:	c86e0100 	.word	0x16ec8
8010aa14:	8d007703 	break	0x377,0x2
8010aa18:	00000000 	nop
8010aa1c:	abfc9ffc 	.word	0xfc9ffcab
8010aa20:	470f0000 	.word	0xf47
8010aa24:	9f0f7403 	.word	0x3740f9f
8010aa28:	a60f48ff 	.word	0xff480fa6
8010aa2c:	41030000 	.word	0x341
8010aa30:	7213f802 	.word	0x2f81372
8010aa34:	6536e702 	.word	0x2e73665
8010aa38:	00000000 	nop
8010aa3c:	88aae4b6 	.word	0xb6e4aa88
8010aa40:	436f0100 	sra	t5,at,0x1d
8010aa44:	9300b103 	.word	0x3b10093
8010aa48:	00000000 	nop
8010aa4c:	14fe70fc 	.word	0xfc70fe14
8010aa50:	7a0f0000 	.word	0xf7a
8010aa54:	970f9703 	.word	0x3970f97
8010aa58:	e20f92ff 	.word	0xff920fe2
8010aa5c:	e0010000 	.word	0x1e0
8010aa60:	69130903 	.word	0x3091369
8010aa64:	456cf602 	.word	0x2f66c45
8010aa68:	00000000 	nop
8010aa6c:	7cad8db7 	.word	0xb78dad7c
8010aa70:	7c6f0100 	.word	0x16f7c
8010aa74:	8800ec03 	.word	0x3ec0088
8010aa78:	00000000 	nop
8010aa7c:	87ffabfc 	.word	0xfcabff87
8010aa80:	a40f0000 	.word	0xfa4
8010aa84:	a60f5503 	.word	0x3550fa6
8010aa88:	fe0fe7ff 	.word	0xffe70ffe
8010aa8c:	77000000 	.word	0x77
8010aa90:	2ead1a03 	.word	0x31aad2e
8010aa94:	92250a03 	.word	0x30a2592
8010aa98:	00000000 	nop
8010aa9c:	86b02eb8 	swr	t6,-20346(at)
8010aaa0:	726f0100 	.word	0x16f72
8010aaa4:	70002104 	bgez	at,0x8010ac68
8010aaa8:	00000000 	nop
8010aaac:	d20045fd 	.word	0xfd4500d2
8010aab0:	be0f0000 	.word	0xfbe
8010aab4:	c30fbc02 	.word	0x2bc0fc3
8010aab8:	fa0f2400 	.word	0x240ffa
8010aabc:	31ff0000 	.word	0xff31
8010aac0:	9dd52a03 	.word	0x32ad59d
8010aac4:	19591f03 	.word	0x31f5919
8010aac8:	00000000 	nop
8010aacc:	a3b3b6b8 	swr	s6,-19549(a1)
8010aad0:	2e6f0100 	.word	0x16f2e
8010aad4:	5a004a04 	.word	0x44a005a
8010aad8:	00000000 	nop
8010aadc:	d101cbfd 	.word	0xfdcb01d1
8010aae0:	bd0f0000 	.word	0xfbd
8010aae4:	d80f3902 	.word	0x2390fd8
8010aae8:	e50f4000 	.word	0x400fe5
8010aaec:	34fe0000 	.word	0xfe34
8010aaf0:	cbae3a03 	.word	0x33aaecb
8010aaf4:	89e33203 	.word	0x332e389
8010aaf8:	00000000 	nop
8010aafc:	ceb628b9 	swr	t0,-18738(t1)
8010ab00:	be6e0100 	.word	0x16ebe
8010ab04:	49006804 	.word	0x4680049
8010ab08:	00000000 	nop
8010ab0c:	8b023cfe 	.word	0xfe3c028b
8010ab10:	b20f0000 	.word	0xfb2
8010ab14:	e60fc901 	.word	0x1c90fe6
8010ab18:	cb0f4800 	.word	0x480fcb
8010ab1c:	79fd0000 	.word	0xfd79
8010ab20:	06e54703 	.word	0x347e506
8010ab24:	a7ba4203 	.word	0x342baa7
8010ab28:	00000000 	nop
8010ab2c:	03ba85b9 	swr	a1,-17917(t4)
8010ab30:	2b6e0100 	.word	0x16e2b
8010ab34:	3a007c04 	.word	0x47c003a
8010ab38:	00000000 	nop
8010ab3c:	07039afe 	.word	0xfe9a0307
8010ab40:	a50f0000 	.word	0xfa5
8010ab44:	ef0f6d01 	.word	0x16d0fef
8010ab48:	b50f4500 	.word	0x450fb5
8010ab4c:	fcfc0000 	.word	0xfcfc
8010ab50:	61dc5003 	.word	0x350dc61
8010ab54:	56844d03 	.word	0x34d8456
8010ab58:	00000000 	nop
8010ab5c:	40bdd0b9 	swr	s0,-17088(t6)
8010ab60:	836d0100 	sra	t5,at,0x16
8010ab64:	2d008704 	.word	0x487002d
8010ab68:	00000000 	nop
8010ab6c:	4b03e6fe 	.word	0xfee6034b
8010ab70:	9e0f0000 	.word	0xf9e
8010ab74:	f50f2001 	.word	0x1200ff5
8010ab78:	a80f3b00 	.word	0x3b0fa8
8010ab7c:	b7fc0000 	.word	0xfcb7
8010ab80:	de8d5403 	.word	0x3548dde
8010ab84:	12705203 	.word	0x3527012
8010ab88:	00000000 	nop
8010ab8c:	80c00cba 	swr	t4,-16256(s0)
8010ab90:	d26c0100 	.word	0x16cd2
8010ab94:	24008904 	.word	0x4890024
8010ab98:	00000000 	nop
8010ab9c:	5c0322ff 	.word	0xff22035c
8010aba0:	9e0f0000 	.word	0xf9e
8010aba4:	f90fe300 	.word	0xe30ff9
8010aba8:	a40f2f00 	.word	0x2f0fa4
8010abac:	a6fc0000 	.word	0xfca6
8010abb0:	60755203 	.word	0x3527560
8010abb4:	5f245103 	.word	0x351245f
8010abb8:	00000000 	nop
8010abbc:	bfc33bba 	swr	k1,-15425(s1)
8010abc0:	226c0100 	.word	0x16c22
8010abc4:	1c008404 	.word	0x484001c
8010abc8:	00000000 	nop
8010abcc:	390351ff 	.word	0xff510339
8010abd0:	a80f0000 	.word	0xfa8
8010abd4:	fc0fb300 	.word	0xb30ffc
8010abd8:	ac0f2400 	.word	0x240fac
8010abdc:	c8fc0000 	.word	0xfcc8
8010abe0:	d8854a03 	.word	0x34a85d8
8010abe4:	edb44903 	.word	0x349b4ed
8010abe8:	00000000 	nop
8010abec:	f9c660ba 	swr	zero,-14599(s3)
8010abf0:	806b0100 	sll	t5,at,0xe
8010abf4:	16007504 	.word	0x4750016
8010abf8:	00000000 	nop
8010abfc:	e10273ff 	.word	0xff7302e1
8010ac00:	ba0f0000 	.word	0xfba
8010ac04:	fd0f8f00 	.word	0x8f0ffd
8010ac08:	bd0f1900 	.word	0x190fbd
8010ac0c:	20fd0000 	.word	0xfd20
8010ac10:	f1283d03 	.word	0x33d28f1
8010ac14:	faa33c03 	.word	0x33ca3fa
8010ac18:	00000000 	nop
8010ac1c:	2aca7eba 	swr	s8,-13782(s3)
8010ac20:	f96a0100 	.word	0x16af9
8010ac24:	13005e04 	.word	0x45e0013
8010ac28:	00000000 	nop
8010ac2c:	4f028aff 	.word	0xff8a024f
8010ac30:	d30f0000 	.word	0xfd3
8010ac34:	fe0f7700 	.word	0x770ffe
8010ac38:	d50f1100 	.word	0x110fd5
8010ac3c:	b1fd0000 	.word	0xfdb1
8010ac40:	3f4d2b03 	.word	0x32b4d3f
8010ac44:	6ef12a03 	.word	0x32af16e
8010ac48:	00000000 	nop
8010ac4c:	4fcd96ba 	swr	s6,-12977(s4)
8010ac50:	976a0100 	.word	0x16a97
8010ac54:	11003c04 	.word	0x43c0011
8010ac58:	00000000 	nop
8010ac5c:	7d0194ff 	.word	0xff94017d
8010ac60:	ec0f0000 	.word	0xfec
8010ac64:	fe0f6c00 	.word	0x6c0ffe
8010ac68:	ee0f0a00 	.word	0xa0fee
8010ac6c:	83fe0000 	sra	ra,zero,0x1a
8010ac70:	d57d1603 	.word	0x3167dd5
8010ac74:	aa331603 	.word	0x31633aa
8010ac78:	00000000 	nop
8010ac7c:	64d0abba 	swr	t3,-12188(s5)
8010ac80:	686a0100 	.word	0x16a68
8010ac84:	feff0f04 	.word	0x40ffffe
8010ac88:	00000000 	nop
8010ac8c:	62000d00 	.word	0xd0062
8010ac90:	fe0f0000 	.word	0xffe
8010ac94:	ff0ff3ff 	.word	0xfff30fff
8010ac98:	fe0f0000 	.word	0xffe
8010ac9c:	9eff0000 	.word	0xff9e
8010aca0:	5a670203 	.word	0x302675a
8010aca4:	4f660203 	.word	0x302664f
8010aca8:	00000000 	nop
8010acac:	66d3a9ba 	swr	t1,-11418(s5)
8010acb0:	726a0100 	.word	0x16a72
8010acb4:	dcffdf03 	.word	0x3dfffdc
8010acb8:	00000000 	nop
8010acbc:	37ffe200 	.word	0xe2ff37
8010acc0:	f40f0000 	.word	0xff4
8010acc4:	f90f1dff 	.word	0xff1d0ff9
8010acc8:	fb0f0b00 	.word	0xb0ffb
8010accc:	c9000000 	.word	0xc9
8010acd0:	0058f802 	.word	0x2f85800
8010acd4:	b720f702 	.word	0x2f720b7
8010acd8:	00000000 	nop
8010acdc:	5bd67eba 	swr	s8,-10661(s3)
8010ace0:	af6a0100 	.word	0x16aaf
8010ace4:	c2ffb803 	.word	0x3b8ffc2
8010ace8:	00000000 	nop
8010acec:	3efe8601 	.word	0x186fe3e
8010acf0:	d40f0000 	.word	0xfd4
8010acf4:	ed0f77fe 	.word	0xfe770fed
8010acf8:	e70f2b00 	.word	0x2b0fe7
8010acfc:	c0010000 	sll	zero,zero,0x7
8010ad00:	b4e4f702 	.word	0x2f7e4b4
8010ad04:	7a47f402 	.word	0x2f4477a
8010ad08:	00000000 	nop
8010ad0c:	48d934ba 	swr	s4,-9912(s1)
8010ad10:	156b0100 	.word	0x16b15
8010ad14:	b0ff9903 	.word	0x399ffb0
8010ad18:	00000000 	nop
8010ad1c:	82fdf401 	.word	0x1f4fd82
8010ad20:	ae0f0000 	.word	0xfae
8010ad24:	e00f06fe 	.word	0xfe060fe0
8010ad28:	cd0f4e00 	break	0x4e,0x3f
8010ad2c:	79020000 	.word	0x279
8010ad30:	a90bfe02 	.word	0x2fe0ba9
8010ad34:	6e0df802 	.word	0x2f80d6e
8010ad38:	00000000 	nop
8010ad3c:	35dcd4b9 	swr	s4,-9163(t6)
8010ad40:	986b0100 	.word	0x16b98
8010ad44:	a6ff8603 	.word	0x386ffa6
8010ad48:	00000000 	nop
8010ad4c:	06fd2c02 	.word	0x22cfd06
8010ad50:	910f0000 	.word	0xf91
8010ad54:	d80fcbfd 	.word	0xfdcb0fd8
8010ad58:	b80f6900 	.word	0x690fb8
8010ad5c:	f2020000 	.word	0x2f2
8010ad60:	a09d0803 	.word	0x3089da0
8010ad64:	85180103 	.word	0x3011885
8010ad68:	00000000 	nop
8010ad6c:	27df68b9 	swr	t0,-8409(t3)
8010ad70:	2e6c0100 	.word	0x16c2e
8010ad74:	a5ff7c03 	.word	0x37cffa5
8010ad78:	00000000 	nop
8010ad7c:	ccfc3102 	syscall	0x8c7f3
8010ad80:	850f0000 	.word	0xf85
8010ad84:	d70fc3fd 	.word	0xfdc30fd7
8010ad88:	ac0f7200 	.word	0x720fac
8010ad8c:	2c030000 	.word	0x32c
8010ad90:	985e1603 	.word	0x3165e98
8010ad94:	5d990e03 	.word	0x30e995d
8010ad98:	00000000 	nop
8010ad9c:	26e2fab8 	swr	k0,-7642(a3)
8010ada0:	cb6c0100 	.word	0x16ccb
8010ada4:	acff7c03 	.word	0x37cffac
8010ada8:	00000000 	nop
8010adac:	cffc0702 	.word	0x207fccf
8010adb0:	8b0f0000 	.word	0xf8b
8010adb4:	dd0feffd 	.word	0xfdef0fdd
8010adb8:	ad0f6900 	.word	0x690fad
8010adbc:	2a030000 	.word	0x32a
8010adc0:	d3052703 	.word	0x32705d3
8010adc4:	904f2003 	.word	0x3204f90
8010adc8:	00000000 	nop
8010adcc:	37e592b8 	swr	s2,-6857(a0)
8010add0:	666d0100 	.word	0x16d66
8010add4:	bbff8703 	.word	0x387ffbb
8010add8:	00000000 	nop
8010addc:	0dfdae01 	break	0x1ae,0x3f4
8010ade0:	a20f0000 	.word	0xfa2
8010ade4:	e80f4afe 	.word	0xfe4a0fe8
8010ade8:	b90f5000 	.word	0x500fb9
8010adec:	ef020000 	.word	0x2ef
8010adf0:	322f3b03 	.word	0x33b2f32
8010adf4:	5c843603 	.word	0x336845c
8010adf8:	00000000 	nop
8010adfc:	62e83ab8 	swr	k0,-6046(at)
8010ae00:	f36d0100 	.word	0x16df3
8010ae04:	d0ff9903 	.word	0x399ffd0
8010ae08:	00000000 	nop
8010ae0c:	81fd2a01 	.word	0x12afd81
8010ae10:	c20f0000 	srl	at,zero,0x1f
8010ae14:	f40fd2fe 	.word	0xfed20ff4
8010ae18:	cd0f2f00 	break	0x2f,0x3f
8010ae1c:	7d020000 	.word	0x27d
8010ae20:	c63a5403 	.word	0x3543ac6
8010ae24:	12f55103 	.word	0x351f512
8010ae28:	00000000 	nop
8010ae2c:	acebfcb7 	.word	0xb7fcebac
8010ae30:	676e0100 	.word	0x16e67
8010ae34:	ecffb403 	.word	0x3b4ffec
8010ae38:	00000000 	nop
8010ae3c:	25fe7f00 	.word	0x7ffe25
8010ae40:	e20f0000 	.word	0xfe2
8010ae44:	fe0f81ff 	.word	0xff810ffe
8010ae48:	e40f0e00 	.word	0xe0fe4
8010ae4c:	db010000 	.word	0x1db
8010ae50:	89277403 	.word	0x3742789
8010ae54:	5dbc7303 	.word	0x373bc5d
8010ae58:	00000000 	nop
8010ae5c:	1cefe1b7 	.word	0xb7e1ef1c
8010ae60:	b86e0100 	.word	0x16eb8
8010ae64:	0c00d403 	syscall	0xf5000
8010ae68:	00000000 	nop
8010ae6c:	f1feb3ff 	.word	0xffb3fef1
8010ae70:	f60f0000 	.word	0xff6
8010ae74:	ff0f4d00 	.word	0x4d0fff
8010ae78:	f60ffbff 	.word	0xfffb0ff6
8010ae7c:	0f010000 	.word	0x10f
8010ae80:	7a599d03 	.word	0x39d597a
8010ae84:	7b309d03 	.word	0x39d307b
8010ae88:	00000000 	nop
8010ae8c:	b8f2f2b7 	.word	0xb7f2f2b8
8010ae90:	db6e0100 	.word	0x16edb
8010ae94:	1300fa03 	.word	0x3fa0013
8010ae98:	00000000 	nop
8010ae9c:	dcff84ff 	.word	0xff84ffdc
8010aea0:	fd0f0000 	.word	0xffd
8010aea4:	fe0f7c00 	.word	0x7c0ffe
8010aea8:	ff0fffff 	.word	0xffff0fff
8010aeac:	24000000 	and	zero,zero,zero
8010aeb0:	0574cc03 	.word	0x3cc7405
8010aeb4:	1f04cc03 	.word	0x3cc041f
8010aeb8:	00000000 	nop
8010aebc:	84f60fb8 	swr	t7,-2428(zero)
8010aec0:	c66e0100 	.word	0x16ec6
8010aec4:	06002104 	bgez	at,0x8010aee0
8010aec8:	00000000 	nop
8010aecc:	d500d7ff 	.word	0xffd700d5
8010aed0:	fa0f0000 	.word	0xffa
8010aed4:	ff0f2900 	.word	0x290fff
8010aed8:	fa0f0200 	.word	0x20ffa
8010aedc:	2bff0000 	.word	0xff2b
8010aee0:	5c81f203 	.word	0x3f2815c
8010aee4:	5774f203 	.word	0x3f27457
8010aee8:	00000000 	nop
8010aeec:	73fa19b8 	swr	t9,-1421(zero)
8010aef0:	726e0100 	.word	0x16e72
8010aef4:	01004b04 	.word	0x44b0001
8010aef8:	00000000 	nop
8010aefc:	d901f5ff 	.word	0xfff501d9
8010af00:	e40f0000 	.word	0xfe4
8010af04:	ff0f0b00 	.word	0xb0fff
8010af08:	e40f0100 	.word	0x10fe4
8010af0c:	27fe0000 	.word	0xfe27
8010af10:	43c80d04 	.word	0x40dc843
8010af14:	44c70d04 	.word	0x40dc744
8010af18:	00000000 	nop
8010af1c:	75fe1cb8 	swr	gp,-395(zero)
8010af20:	d76d0100 	.word	0x16dd7
8010af24:	04007804 	.word	0x4780004
8010af28:	00000000 	nop
8010af2c:	ef02e4ff 	.word	0xffe402ef
8010af30:	ba0f0000 	.word	0xfba
8010af34:	ff0f1c00 	.word	0x1c0fff
8010af38:	ba0f0500 	.word	0x50fba
8010af3c:	11fd0000 	.word	0xfd11
8010af40:	ec5a1f04 	.word	0x41f5aec
8010af44:	85541f04 	.word	0x41f5485
8010af48:	00000000 	nop
8010af4c:	790223b8 	swr	v1,633(at)
8010af50:	ef6c0100 	.word	0x16cef
8010af54:	0e00a904 	.word	0x4a9000e
8010af58:	00000000 	nop
8010af5c:	1b04a8ff 	.word	0xffa8041b
8010af60:	750f0000 	.word	0xf75
8010af64:	fe0f5b00 	.word	0x5b0ffe
8010af68:	760f1700 	.word	0x170f76
8010af6c:	e5fb0000 	.word	0xfbe5
8010af70:	a1282904 	.word	0x42928a1
8010af74:	c4e62804 	.word	0x428e6c4
8010af78:	00000000 	nop
8010af7c:	73063bb8 	swr	k1,1651(at)
8010af80:	b36b0100 	.word	0x16bb3
8010af84:	1f00df04 	.word	0x4df001f
8010af88:	00000000 	nop
8010af8c:	630543ff 	.word	0xff430563
8010af90:	0b0f0000 	.word	0xf0b
8010af94:	fb0fc800 	.word	0xc80ffb
8010af98:	100f4300 	.word	0x430f10
8010af9c:	9efa0000 	.word	0xfa9e
8010afa0:	70142e04 	.word	0x42e1470
8010afa4:	bbd92c04 	.word	0x42cd9bb
8010afa8:	00000000 	nop
8010afac:	4f0a6eb8 	swr	t6,2639(v1)
8010afb0:	1d6a0100 	.word	0x16a1d
8010afb4:	38001d05 	.word	0x51d0038
8010afb8:	00000000 	nop
8010afbc:	c806befe 	.word	0xfebe06c8
8010afc0:	6f0e0000 	.word	0xe6f
8010afc4:	f00f6301 	.word	0x1630ff0
8010afc8:	7d0e9600 	.word	0x960e7d
8010afcc:	3ff90000 	.word	0xf93f
8010afd0:	df0e3204 	.word	0x4320edf
8010afd4:	26352e04 	.word	0x42e3526
8010afd8:	00000000 	nop
8010afdc:	000ec9b8 	swr	t1,3584(a2)
8010afe0:	26680100 	xor	t5,zero,at
8010afe4:	58006205 	.word	0x5620058
8010afe8:	00000000 	nop
8010afec:	460826fe 	.word	0xfe260846
8010aff0:	910d0000 	.word	0xd91
8010aff4:	da0f2a02 	.word	0x22a0fda
8010aff8:	b10d1e01 	.word	0x11e0db1
8010affc:	cef70000 	.word	0xf7ce
8010b000:	b82a3a04 	.word	0x43a2ab8
8010b004:	93c93004 	bltzal	at,0x800fd654
8010b008:	00000000 	nop
8010b00c:	741157b9 	swr	s7,4468(t2)
8010b010:	c7650100 	.word	0x165c7
8010b014:	7e00af05 	.word	0x5af007e
8010b018:	00000000 	nop
8010b01c:	d50992fd 	.word	0xfd9209d5
8010b020:	620c0000 	.word	0xc62
8010b024:	b30f1403 	.word	0x3140fb3
8010b028:	9f0ce401 	.word	0x1e40c9f
8010b02c:	5af60000 	.word	0xf65a
8010b030:	5e7a4c04 	.word	0x44c7a5e
8010b034:	7d2d3904 	.word	0x4392d7d
8010b038:	00000000 	nop
8010b03c:	9d1424ba 	swr	a0,5277(s1)
8010b040:	f9620100 	.word	0x162f9
8010b044:	a7000406 	.word	0x60400a7
8010b048:	00000000 	nop
8010b04c:	630b24fd 	.word	0xfd240b63
8010b050:	dd0a0000 	.word	0xadd
8010b054:	780f1304 	.word	0x4130f78
8010b058:	3c0be602 	.word	0x2e60b3c
8010b05c:	fdf40000 	.word	0xf4fd
8010b060:	019d6f04 	.word	0x46f9d01
8010b064:	19914c04 	.word	0x44c9119
8010b068:	00000000 	nop
8010b06c:	69173cbb 	swr	gp,5993(t9)
8010b070:	b65f0100 	.word	0x15fb6
8010b074:	d2005f06 	.word	0x65f00d2
8010b078:	00000000 	nop
8010b07c:	d80cfbfc 	.word	0xfcfb0cd8
8010b080:	0b090000 	.word	0x90b
8010b084:	2c0f1205 	.word	0x5120f2c
8010b088:	89091204 	.word	0x4120989
8010b08c:	d1f30000 	.word	0xf3d1
8010b090:	4df6a904 	.word	0x4a9f64d
8010b094:	df587004 	bltzal	v1,0x80121414
8010b098:	00000000 	nop
8010b09c:	ca19abbc 	.word	0xbcab19ca
8010b0a0:	f65b0100 	.word	0x15bf6
8010b0a4:	e100be06 	.word	0x6be00e1
8010b0a8:	00000000 	nop
8010b0ac:	180e6ffd 	.word	0xfd6f0e18
8010b0b0:	1e070000 	.word	0x71e
8010b0b4:	0c0f6e05 	.word	0x56e0f0c
8010b0b8:	9107c904 	.word	0x4c90791
8010b0bc:	bef20000 	.word	0xf2be
8010b0c0:	f857ca04 	.word	0x4ca57f8
8010b0c4:	147f8304 	.word	0x4837f14
8010b0c8:	00000000 	nop
8010b0cc:	cb1b45be 	.word	0xbe451bcb
8010b0d0:	eb570100 	.word	0x157eb
8010b0d4:	e300e906 	.word	0x6e900e3
8010b0d8:	00000000 	nop
8010b0dc:	900ebdfd 	.word	0xfdbd0e90
8010b0e0:	39060000 	.word	0x639
8010b0e4:	090f7705 	.word	0x5770f09
8010b0e8:	9f06f904 	.word	0x4f9069f
8010b0ec:	50f20000 	.word	0xf250
8010b0f0:	f42bc604 	.word	0x4c62bf4
8010b0f4:	daaa7e04 	.word	0x47eaada
8010b0f8:	00000000 	nop
8010b0fc:	841de1bf 	.word	0xbfe11d84
8010b100:	c4530100 	.word	0x153c4
8010b104:	e7001407 	.word	0x71400e7
8010b108:	00000000 	nop
8010b10c:	f80e0afe 	.word	0xfe0a0ef8
8010b110:	4a050000 	.word	0x54a
8010b114:	000f9005 	bltzal	t4,0x8010ed18
8010b118:	a5053405 	.word	0x53405a5
8010b11c:	f7f10000 	.word	0xf1f7
8010b120:	156fd004 	bltzal	a2,0x80126d78
8010b124:	858f8504 	.word	0x4858f85
8010b128:	00000000 	nop
8010b12c:	f91e88c1 	lwc0	c0_badvaddr,7929(t4)
8010b130:	7c4f0100 	.word	0x14f7c
8010b134:	ee003f07 	.word	0x73f00ee
8010b138:	00000000 	nop
8010b13c:	4e0f56fe 	.word	0xfe560f4e
8010b140:	59040000 	.word	0x459
8010b144:	f10eb805 	.word	0x5b80ef1
8010b148:	a8047905 	.word	0x57904a8
8010b14c:	b5f10000 	.word	0xf1b5
8010b150:	e80de904 	.word	0x4e90de8
8010b154:	40fb9704 	.word	0x497fb40
8010b158:	00000000 	nop
8010b15c:	2c2044c3 	lwc0	c0_context,8236(k0)
8010b160:	0d4b0100 	break	0x1,0x12c
8010b164:	f7006707 	.word	0x76700f7
8010b168:	00000000 	nop
8010b16c:	910fa2fe 	.word	0xfea20f91
8010b170:	6f030000 	.word	0x36f
8010b174:	db0eee05 	.word	0x5ee0edb
8010b178:	b203c505 	.word	0x5c503b2
8010b17c:	8bf10000 	.word	0xf18b
8010b180:	bed00f05 	.word	0x50fd0be
8010b184:	1086b504 	.word	0x4b58610
8010b188:	00000000 	nop
8010b18c:	202120c5 	lwc1	$f0,8480(t1)
8010b190:	70460100 	.word	0x14670
8010b194:	02018d07 	.word	0x78d0102
8010b198:	00000000 	nop
8010b19c:	c10fedfe 	.word	0xfeed0fc1
8010b1a0:	92020000 	.word	0x292
8010b1a4:	c10e2f06 	.word	0x62f0ec1
8010b1a8:	c9021706 	.word	0x61702c9
8010b1ac:	79f10000 	.word	0xf179
8010b1b0:	79644405 	.word	0x5446479
8010b1b4:	d29ddd04 	.word	0x4dd9dd2
8010b1b8:	00000000 	nop
8010b1bc:	d72124c7 	lwc1	$f4,8663(t9)
8010b1c0:	a0410100 	.word	0x141a0
8010b1c4:	0f01b007 	bltzal	sp,0x8010b604
8010b1c8:	00000000 	nop
8010b1cc:	e10f37ff 	.word	0xff370fe1
8010b1d0:	c8010000 	.word	0x1c8
8010b1d4:	a20e7806 	.word	0x6780ea2
8010b1d8:	f2016c06 	.word	0x66c01f2
8010b1dc:	7af10000 	.word	0xf17a
8010b1e0:	99688605 	.word	0x5866899
8010b1e4:	61990f05 	.word	0x50f9961
8010b1e8:	00000000 	nop
8010b1ec:	56225bc9 	lwc2	$27,8790(t2)
8010b1f0:	973c0100 	.word	0x13c97
8010b1f4:	1d01cf07 	.word	0x7cf011d
8010b1f8:	00000000 	nop
8010b1fc:	f40f7fff 	.word	0xff7f0ff4
8010b200:	14010000 	.word	0x114
8010b204:	7e0ec706 	.word	0x6c70e7e
8010b208:	3101c206 	.word	0x6c20131
8010b20c:	8df10000 	break	0x0,0x3c6
8010b210:	1179d505 	.word	0x5d57911
8010b214:	d0c74a05 	.word	0x54ac7d0
8010b218:	00000000 	nop
8010b21c:	9e22d0cb 	lwc2	$16,8862(s8)
8010b220:	4e370100 	.word	0x1374e
8010b224:	2b01ea07 	.word	0x7ea012b
8010b228:	00000000 	nop
8010b22c:	fd0fc5ff 	.word	0xffc50ffd
8010b230:	78000000 	.word	0x78
8010b234:	560e1907 	.word	0x7190e56
8010b238:	86001807 	.word	0x7180086
8010b23c:	acf10000 	.word	0xf1ac
8010b240:	27373106 	bgezal	s1,0x80118ee0
8010b244:	4c7d8e05 	.word	0x58e7d4c
8010b248:	00000000 	nop
8010b24c:	b2228bce 	lwc3	$11,8882(s4)
8010b250:	c0310100 	sll	a2,at,0x7
8010b254:	3a010208 	j	0x800804e8
8010b258:	00000000 	nop
8010b25c:	ff0f0500 	.word	0x50fff
8010b260:	f6ff0000 	.word	0xfff6
8010b264:	2c0e6c07 	.word	0x76c0e2c
8010b268:	f4ff6c07 	.word	0x76cfff4
8010b26c:	d4f10000 	.word	0xf1d4
8010b270:	26529906 	.word	0x6995226
8010b274:	f81dda05 	.word	0x5da1df8
8010b278:	00000000 	nop
8010b27c:	962298d1 	.word	0xd1982296
8010b280:	e62b0100 	.word	0x12be6
8010b284:	49011608 	j	0x80580524
8010b288:	00000000 	nop
8010b28c:	fd0f4200 	.word	0x420ffd
8010b290:	88ff0000 	.word	0xff88
8010b294:	ff0dc007 	bltz	s8,0x8010ea94
8010b298:	77ffbe07 	.word	0x7beff77
8010b29c:	03f20000 	sra	s8,zero,0x8
8010b2a0:	5d830d07 	.word	0x70d835d
8010b2a4:	d51e2d06 	.word	0x62d1ed5
8010b2a8:	00000000 	nop
8010b2ac:	4c2200d5 	.word	0xd500224c
8010b2b0:	ba250100 	.word	0x125ba
8010b2b4:	58012708 	j	0x809c0560
8010b2b8:	00000000 	nop
8010b2bc:	f80f7a00 	.word	0x7a0ff8
8010b2c0:	30ff0000 	.word	0xff30
8010b2c4:	cf0d1308 	j	0x804c373c
8010b2c8:	0fff1008 	j	0x8043fc3c
8010b2cc:	37f20000 	.word	0xf237
8010b2d0:	47cc7b07 	.word	0x77bcc47
8010b2d4:	35727706 	.word	0x6777235
8010b2d8:	00000000 	nop
8010b2dc:	d521c4d8 	.word	0xd8c421d5
8010b2e0:	471f0100 	.word	0x11f47
8010b2e4:	65013808 	j	0x80e00594
8010b2e8:	00000000 	nop
8010b2ec:	f10fb400 	.word	0xb40ff1
8010b2f0:	dafe0000 	.word	0xfeda
8010b2f4:	a50d5908 	j	0x81643694
8010b2f8:	a7fe5208 	j	0x814bfa9c
8010b2fc:	67f20000 	.word	0xf267
8010b300:	6140c407 	.word	0x7c44061
8010b304:	2bfba106 	bgez	s5,0x80109fb4
8010b308:	00000000 	nop
8010b30c:	2e21cfdc 	.word	0xdccf212e
8010b310:	ad180100 	.word	0x118ad
8010b314:	6f014a08 	j	0x812805bc
8010b318:	00000000 	nop
8010b31c:	e50ff800 	.word	0xf80fe5
8010b320:	79fe0000 	.word	0xfe79
8010b324:	840d8e08 	j	0x82383610
8010b328:	31fe8008 	j	0x8203f8c4
8010b32c:	92f20000 	.word	0xf292
8010b330:	9fbbe807 	.word	0x7e8bb9f
8010b334:	1d58b106 	bgezal	s5,0x801213ac
8010b338:	00000000 	nop
8010b33c:	502005e1 	swc0	$5,8272(t0)
8010b340:	0b120100 	.word	0x1120b
8010b344:	77016108 	j	0x818405dc
8010b348:	00000000 	nop
8010b34c:	d30f4701 	.word	0x1470fd3
8010b350:	08fe0000 	.word	0xfe08
8010b354:	6c0db508 	j	0x82d435b0
8010b358:	a7fd9d08 	j	0x8277f69c
8010b35c:	baf20000 	.word	0xf2ba
8010b360:	6e91e907 	.word	0x7e9916e
8010b364:	f35ca606 	.word	0x6a65cf3
8010b368:	00000000 	nop
8010b36c:	351f4fe5 	swc1	$f15,7989(t2)
8010b370:	7c0b0100 	.word	0x10b7c
8010b374:	7c017b08 	j	0x81ec05f0
8010b378:	00000000 	nop
8010b37c:	b80fa401 	.word	0x1a40fb8
8010b380:	83fd0000 	sra	ra,zero,0x16
8010b384:	5a0dcf08 	j	0x833c3568
8010b388:	04fda808 	j	0x82a3f410
8010b38c:	e2f20000 	.word	0xf2e2
8010b390:	e582c707 	.word	0x7c782e5
8010b394:	6a3b8206 	.word	0x6823b6a
8010b398:	00000000 	nop
8010b39c:	d81d92e9 	swc2	$18,7640(t4)
8010b3a0:	1f050100 	.word	0x1051f
8010b3a4:	7e019b08 	j	0x826c05f8
8010b3a8:	00000000 	nop
8010b3ac:	8d0f1302 	break	0x213,0x3e
8010b3b0:	e1fc0000 	.word	0xfce1
8010b3b4:	520ddc08 	j	0x83703548
8010b3b8:	41fc9d08 	j	0x8277f104
8010b3bc:	0df30000 	break	0x0,0x3cc
8010b3c0:	d5db8307 	.word	0x783dbd5
8010b3c4:	b8b14606 	.word	0x646b1b8
8010b3c8:	00000000 	nop
8010b3cc:	321cb4ed 	swc3	$20,7218(t5)
8010b3d0:	11ff0100 	.word	0x1ff11
8010b3d4:	7e01c208 	j	0x830805f8
8010b3d8:	00000000 	nop
8010b3dc:	4c0f9702 	syscall	0xa5c3d
8010b3e0:	19fc0000 	.word	0xfc19
8010b3e4:	540dd908 	j	0x83643550
8010b3e8:	51fb7608 	j	0x81dbed44
8010b3ec:	42f30000 	srl	s8,zero,0xd
8010b3f0:	29c22007 	bltz	t9,0x800fbc98
8010b3f4:	7067f605 	.word	0x5f66770
8010b3f8:	00000000 	nop
8010b3fc:	3e1a9cf1 	.word	0xf19c1a3e
8010b400:	6ff90100 	.word	0x1f96f
8010b404:	7901f408 	j	0x83d005e4
8010b408:	00000000 	nop
8010b40c:	e40e3203 	.word	0x3320ee4
8010b410:	1bfb0000 	.word	0xfb1b
8010b414:	650dbf08 	j	0x82fc3594
8010b418:	28fa2408 	j	0x8093e8a0
8010b41c:	88f30000 	.word	0xf388
8010b420:	9fc7a106 	bgez	s5,0x800fd2a0
8010b424:	1e809505 	.word	0x595801e
8010b428:	00000000 	nop
8010b42c:	f61730f5 	.word	0xf53017f6
8010b430:	56f40100 	.word	0x1f456
8010b434:	6c013509 	j	0x84d405b0
8010b438:	00000000 	nop
8010b43c:	3d0edf03 	.word	0x3df0e3d
8010b440:	d2f90000 	.word	0xf9d2
8010b444:	8f0d7e08 	j	0x81f8363c
8010b448:	b5f88f07 	.word	0x78ff8b5
8010b44c:	eff30000 	.word	0xf3ef
8010b450:	a8070d06 	.word	0x60d07a8
8010b454:	67a12a05 	.word	0x52aa167
8010b458:	00000000 	nop
8010b45c:	541556f8 	.word	0xf8561554
8010b460:	e5ef0100 	.word	0x1efe5
8010b464:	53018b09 	j	0x862c054c
8010b468:	00000000 	nop
8010b46c:	2a0d8604 	.word	0x4860d2a
8010b470:	1ef80000 	.word	0xf81e
8010b474:	e00df707 	.word	0x7f70de0
8010b478:	e9f68d06 	.word	0x68df6e9
8010b47c:	95f40000 	.word	0xf495
8010b480:	0b5d6d05 	.word	0x56d5d0b
8010b484:	0299c004 	bltz	a2,0x800f1890
8010b488:	00000000 	nop
8010b48c:	5112f5fa 	.word	0xfaf51251
8010b490:	37ec0100 	.word	0x1ec37
8010b494:	2201fb09 	j	0x87ec0488
8010b498:	00000000 	nop
8010b49c:	670bd704 	.word	0x4d70b67
8010b4a0:	e1f50000 	.word	0xf5e1
8010b4a4:	6f0ee706 	.word	0x6e70e6f
8010b4a8:	c8f4eb04 	.word	0x4ebf4c8
8010b4ac:	b7f50000 	.word	0xf5b7
8010b4b0:	6d73d604 	.word	0x4d6736d
8010b4b4:	a4946804 	.word	0x46894a4
8010b4b8:	00000000 	nop
8010b4bc:	e90ef3fc 	.word	0xfcf30ee9
8010b4c0:	6be90100 	.word	0x1e96b
8010b4c4:	fd008d0a 	j	0x8a3403f4
8010b4c8:	00000000 	nop
8010b4cc:	a3081805 	.word	0x51808a3
8010b4d0:	89f30000 	.word	0xf389
8010b4d4:	cf0e0e06 	.word	0x60e0ecf
8010b4d8:	89f24403 	.word	0x344f289
8010b4dc:	02f80000 	srl	ra,zero,0x0
8010b4e0:	9be9c204 	.word	0x4c2e99b
8010b4e4:	30fd7104 	bgezal	v1,0x8010a9a8
8010b4e8:	00000000 	nop
8010b4ec:	e40aa8fe 	.word	0xfea80ae4
8010b4f0:	84e70100 	.word	0x1e784
8010b4f4:	ee002a0b 	j	0x8ca803b8
8010b4f8:	00000000 	nop
8010b4fc:	2e056b05 	.word	0x56b052e
8010b500:	def10000 	.word	0xf1de
8010b504:	f00eba05 	.word	0x5ba0ef0
8010b508:	ddf0da01 	.word	0x1daf0dd
8010b50c:	2afb0000 	.word	0xfb2a
8010b510:	35a62f05 	.word	0x52fa635
8010b514:	19b5dd04 	.word	0x4ddb519
8010b518:	00000000 	nop
8010b51c:	2a067200 	.word	0x72062a
8010b520:	5ee60100 	.word	0x1e65e
8010b524:	dc00980b 	j	0x8e600370
8010b528:	00000000 	nop
8010b52c:	90023e05 	.word	0x53e0290
8010b530:	1bf10000 	.word	0xf11b
8010b534:	170f4f05 	.word	0x54f0f17
8010b538:	35f0d900 	.word	0xd9f035
8010b53c:	95fd0000 	.word	0xfd95
8010b540:	d64a9f05 	.word	0x59f4ad6
8010b544:	0a1e5105 	bgezal	t2,0x80112d70
8010b548:	00000000 	nop
8010b54c:	e0004602 	.word	0x24600e0
8010b550:	d7e50100 	.word	0x1e5d7
8010b554:	ca00e20b 	j	0x8f880328
8010b558:	00000000 	nop
8010b55c:	be00e304 	.word	0x4e300be
8010b560:	c9f00000 	.word	0xf0c9
8010b564:	3b0fe504 	.word	0x4e50f3b
8010b568:	05f03a00 	.word	0x3af005
8010b56c:	4cff0000 	syscall	0x3fd
8010b570:	c763fc05 	.word	0x5fc63c7
8010b574:	1cd6b405 	.word	0x5b4d61c
8010b578:	00000000 	nop
8010b57c:	2cfb1504 	.word	0x415fb2c
8010b580:	d0e50100 	.word	0x1e5d0
8010b584:	b900140c 	jal	0x805002e4
8010b588:	00000000 	nop
8010b58c:	84ff7c04 	.word	0x47cff84
8010b590:	a7f00000 	.word	0xf0a7
8010b594:	5b0f7d04 	.word	0x47d0f5b
8010b598:	02f0deff 	.word	0xffdef002
8010b59c:	77000000 	.word	0x77
8010b5a0:	98173b06 	.word	0x63b1798
8010b5a4:	d013fc05 	.word	0x5fc13d0
8010b5a8:	00000000 	nop
8010b5ac:	32f5d105 	bgezal	t6,0x80108a78
8010b5b0:	27e60100 	.word	0x1e627
8010b5b4:	a700350c 	jal	0x80d4029c
8010b5b8:	00000000 	nop
8010b5bc:	b8fe1004 	bltzal	zero,0x8010b0a0
8010b5c0:	94f00000 	.word	0xf094
8010b5c4:	780f1304 	.word	0x4130f78
8010b5c8:	0ef0adff 	.word	0xffadf00e
8010b5cc:	3d010000 	.word	0x13d
8010b5d0:	30f05406 	.word	0x654f030
8010b5d4:	d8e61f06 	.word	0x61fe6d8
8010b5d8:	00000000 	nop
8010b5dc:	1aef6c07 	.word	0x76cef1a
8010b5e0:	bee60100 	.word	0x1e6be
8010b5e4:	9500480c 	jal	0x81200254
8010b5e8:	00000000 	nop
8010b5ec:	42fe9e03 	.word	0x39efe42
8010b5f0:	84f00000 	.word	0xf084
8010b5f4:	940fa303 	.word	0x3a30f94
8010b5f8:	19f09bff 	.word	0xff9bf019
8010b5fc:	b2010000 	.word	0x1b2
8010b600:	9e914606 	.word	0x646919e
8010b604:	0d9b1c06 	.word	0x61c9b0d
8010b608:	00000000 	nop
8010b60c:	07e9d908 	j	0x8367a41c
8010b610:	73e70100 	.word	0x1e773
8010b614:	80004f0c 	jal	0x813c0200
8010b618:	00000000 	nop
8010b61c:	16fe1d03 	.word	0x31dfe16
8010b620:	6df00000 	.word	0xf06d
8010b624:	b00f2303 	.word	0x3230fb0
8010b628:	1ef0a0ff 	.word	0xffa0f01e
8010b62c:	e1010000 	.word	0x1e1
8010b630:	c7ae0e06 	.word	0x60eaec7
8010b634:	fd7af005 	bltzal	t7,0x8012a22c
8010b638:	00000000 	nop
8010b63c:	22e3090a 	j	0x88278c88
8010b640:	27e80100 	nor	sp,zero,at
8010b644:	67004a0c 	jal	0x8128019c
8010b648:	00000000 	nop
8010b64c:	32fe8202 	.word	0x282fe32
8010b650:	4ef00000 	.word	0xf04e
8010b654:	cc0f8602 	syscall	0xa183f
8010b658:	1bf0b7ff 	.word	0xffb7f01b
8010b65c:	c8010000 	.word	0x1c8
8010b660:	8dc0ad05 	.word	0x5adc08d
8010b664:	685b9b05 	.word	0x59b5b68
8010b668:	00000000 	nop
8010b66c:	8eddf00a 	j	0x8bc37638
8010b670:	b8e80100 	.word	0x1e8b8
8010b674:	4500380c 	jal	0x80e00114
8010b678:	00000000 	nop
8010b67c:	a4feb501 	.word	0x1b5fea4
8010b680:	27f00000 	nor	s8,zero,zero
8010b684:	e80fb601 	.word	0x1b60fe8
8010b688:	0ff0dbff 	.word	0xffdbf00f
8010b68c:	5a010000 	.word	0x15a
8010b690:	13952605 	.word	0x5269513
8010b694:	b3d51e05 	.word	0x51ed5b3
8010b698:	00000000 	nop
8010b69c:	71d87f0b 	j	0x8dff61c4
8010b6a0:	07e90100 	.word	0x1e907
8010b6a4:	1600130c 	jal	0x804c0058
8010b6a8:	00000000 	nop
8010b6ac:	8dff8f00 	break	0x8f,0x3fe
8010b6b0:	05f00000 	.word	0xf005
8010b6b4:	fd0f8f00 	.word	0x8f0ffd
8010b6b8:	02f0fcff 	.word	0xfffcf002
8010b6bc:	73000000 	.word	0x73
8010b6c0:	e12f8004 	bltz	a0,0x80117648
8010b6c4:	d9737f04 	.word	0x47f73d9
8010b6c8:	00000000 	nop
8010b6cc:	f2d3a80b 	j	0x8ea34fc8
8010b6d0:	f3e80100 	.word	0x1e8f3
8010b6d4:	ecffcf0b 	j	0x8f3fffb0
8010b6d8:	00000000 	nop
8010b6dc:	340180ff 	.word	0xff800134
8010b6e0:	0ef00000 	.word	0xf00e
8010b6e4:	fd0f80ff 	.word	0xff800ffd
8010b6e8:	0cf0f7ff 	.word	0xfff7f00c
8010b6ec:	ccfe0000 	syscall	0x3fb
8010b6f0:	c00cea03 	.word	0x3ea0cc0
8010b6f4:	458fe903 	.word	0x3e98f45
8010b6f8:	00000000 	nop
8010b6fc:	0ad0880b 	j	0x8e234028
8010b700:	b3e80100 	.word	0x1e8b3
8010b704:	d1ffdf0b 	j	0x8f7fff44
8010b708:	00000000 	nop
8010b70c:	d400d5fe 	.word	0xfed500d4
8010b710:	11f00000 	.word	0xf011
8010b714:	f50fd5fe 	.word	0xfed50ff5
8010b718:	06f0f1ff 	.word	0xfff1f006
8010b71c:	2dff0000 	.word	0xff2d
8010b720:	13567b03 	.word	0x37b5613
8010b724:	09fd7803 	.word	0x378fd09
8010b728:	00000000 	nop
8010b72c:	92cc480b 	j	0x8d233248
8010b730:	90e80100 	.word	0x1e890
8010b734:	b1fff00b 	j	0x8fc3fec4
8010b738:	00000000 	nop
8010b73c:	64000bfe 	.word	0xfe0b0064
8010b740:	21f00000 	move	s8,zero
8010b744:	e10f0bfe 	.word	0xfe0b0fe1
8010b748:	02f0f4ff 	.word	0xfff4f002
8010b74c:	9cff0000 	.word	0xff9c
8010b750:	d5311e03 	.word	0x31e31d5
8010b754:	9b501803 	.word	0x318509b
8010b758:	00000000 	nop
8010b75c:	7ac9e70a 	j	0x8b9f25e8
8010b760:	88e80100 	.word	0x1e888
8010b764:	8cff050c 	jal	0x8017fe30
8010b768:	00000000 	nop
8010b76c:	e6ff25fd 	.word	0xfd25ffe6
8010b770:	42f00000 	srl	s8,zero,0x1
8010b774:	be0f25fd 	.word	0xfd250fbe
8010b778:	01f00400 	.word	0x4f001
8010b77c:	19000000 	multu	zero,zero
8010b780:	a6e7d202 	.word	0x2d2e7a6
8010b784:	fb92c702 	.word	0x2c792fb
8010b788:	00000000 	nop
8010b78c:	b2c6680a 	j	0x89a31ac8
8010b790:	99e80100 	.word	0x1e899
8010b794:	63ff1b0c 	jal	0x806ffd8c
8010b798:	00000000 	nop
8010b79c:	5bff2efc 	.word	0xfc2eff5b
8010b7a0:	7bf00000 	.word	0xf07b
8010b7a4:	890f2dfc 	.word	0xfc2d0f89
8010b7a8:	04f02700 	sllv	s8,a3,at
8010b7ac:	a0000000 	.word	0xa0
8010b7b0:	bb839902 	.word	0x29983bb
8010b7b4:	f2ba8602 	.word	0x286baf2
8010b7b8:	00000000 	nop
8010b7bc:	2dc4cb09 	j	0x872f10b4
8010b7c0:	bee80100 	.word	0x1e8be
8010b7c4:	3aff320c 	jal	0x80cbfce8
8010b7c8:	00000000 	nop
8010b7cc:	c9fe37fb 	.word	0xfb37fec9
8010b7d0:	c9f00000 	.word	0xf0c9
8010b7d4:	430f33fb 	.word	0xfb330f43
8010b7d8:	0cf05d00 	syscall	0x177c0
8010b7dc:	29010000 	.word	0x129
8010b7e0:	00b57102 	.word	0x271b500
8010b7e4:	baa75502 	.word	0x255a7ba
8010b7e8:	00000000 	nop
8010b7ec:	dac11109 	j	0x84470768
8010b7f0:	f6e80100 	.word	0x1e8f6
8010b7f4:	13ff490c 	jal	0x8127fc4c
8010b7f8:	00000000 	nop
8010b7fc:	3bfe55fa 	.word	0xfa55fe3b
8010b800:	25f10000 	.word	0xf125
8010b804:	f20e4cfa 	.word	0xfa4c0ef2
8010b808:	1af0a100 	.word	0xa1f01a
8010b80c:	a7010000 	.word	0x1a7
8010b810:	eab75a02 	.word	0x25ab7ea
8010b814:	081e3402 	.word	0x2341e08
8010b818:	00000000 	nop
8010b81c:	aabf3d08 	j	0x80f6fea8
8010b820:	3de90100 	.word	0x1e93d
8010b824:	f2fe5d0c 	jal	0x8177fbc8
8010b828:	00000000 	nop
8010b82c:	bdfd9df9 	.word	0xf99dfdbd
8010b830:	82f10000 	srl	s8,zero,0x6
8010b834:	a30e8cf9 	.word	0xf98c0ea3
8010b838:	2af0e900 	slt	s8,a3,t1
8010b83c:	12020000 	.word	0x212
8010b840:	85645302 	.word	0x2536485
8010b844:	83c82102 	.word	0x221c883
8010b848:	00000000 	nop
8010b84c:	8fbd4f07 	.word	0x74fbd8f
8010b850:	91e90100 	.word	0x1e991
8010b854:	d9fe6d0c 	jal	0x81b7fb64
8010b858:	00000000 	nop
8010b85c:	5cfd17f9 	.word	0xf917fd5c
8010b860:	d1f10000 	.word	0xf1d1
8010b864:	620efff8 	.word	0xf8ff0e62
8010b868:	39f02801 	.word	0x128f039
8010b86c:	5f020000 	.word	0x25f
8010b870:	696f5a02 	.word	0x25a6f69
8010b874:	624c1e02 	.word	0x21e4c62
8010b878:	00000000 	nop
8010b87c:	79bb4906 	.word	0x649bb79
8010b880:	efe90100 	.word	0x1e9ef
8010b884:	c9fe760c 	jal	0x81dbfb24
8010b888:	00000000 	nop
8010b88c:	22fdc6f8 	.word	0xf8c6fd22
8010b890:	05f20000 	.word	0xf205
8010b894:	360ea7f8 	.word	0xf8a70e36
8010b898:	43f05101 	.word	0x151f043
8010b89c:	8c020000 	syscall	0xa
8010b8a0:	6fb36e02 	.word	0x26eb36f
8010b8a4:	6b5e2902 	.word	0x2295e6b
8010b8a8:	00000000 	nop
8010b8ac:	59b92b05 	.word	0x52bb959
8010b8b0:	54ea0100 	.word	0x1ea54
8010b8b4:	c3fe790c 	jal	0x81e7fb0c
8010b8b8:	00000000 	nop
8010b8bc:	11fda3f8 	.word	0xf8a3fd11
8010b8c0:	1bf20000 	.word	0xf21b
8010b8c4:	230e83f8 	.word	0xf8830e23
8010b8c8:	46f05f01 	.word	0x15ff046
8010b8cc:	97020000 	.word	0x297
8010b8d0:	b56c8f02 	.word	0x28f6cb5
8010b8d4:	23d64202 	.word	0x242d623
8010b8d8:	00000000 	nop
8010b8dc:	1fb7f803 	.word	0x3f8b71f
8010b8e0:	bdea0100 	.word	0x1eabd
8010b8e4:	b6fe750c 	jal	0x81d7fad8
8010b8e8:	00000000 	nop
8010b8ec:	27fd5bf8 	.word	0xf85bfd27
8010b8f0:	3df20000 	.word	0xf23d
8010b8f4:	fc0d3bf8 	.word	0xf83b0dfc
8010b8f8:	42f06201 	.word	0x162f042
8010b8fc:	7d020000 	.word	0x27d
8010b900:	7e2ba902 	.word	0x2a92b7e
8010b904:	6b1c5502 	.word	0x2551c6b
8010b908:	00000000 	nop
8010b90c:	d5b4b002 	.word	0x2b0b4d5
8010b910:	2feb0100 	.word	0x1eb2f
8010b914:	a6fe870c 	jal	0x821ffa98
8010b918:	00000000 	nop
8010b91c:	b8fc0ff8 	.word	0xf80ffcb8
8010b920:	82f20000 	srl	s8,zero,0xa
8010b924:	c90de2f7 	.word	0xf7e20dc9
8010b928:	58f0aa01 	.word	0x1aaf058
8010b92c:	d4020000 	.word	0x2d4
8010b930:	a260b102 	.word	0x2b160a2
8010b934:	11995402 	.word	0x2549911
8010b938:	00000000 	nop
8010b93c:	90b25701 	.word	0x157b290
8010b940:	b4eb0100 	.word	0x1ebb4
8010b944:	97fea00c 	jal	0x8283fa5c
8010b948:	00000000 	nop
8010b94c:	1efcd3f7 	.word	0xf7d3fc1e
8010b950:	cff20000 	.word	0xf2cf
8010b954:	990d92f7 	.word	0xf7920d99
8010b958:	7bf00c02 	.word	0x20cf07b
8010b95c:	4d030000 	break	0x0,0xd
8010b960:	fa2eb602 	.word	0x2b62efa
8010b964:	ec8a5102 	.word	0x2518aec
8010b968:	00000000 	nop
8010b96c:	54b0f0ff 	.word	0xfff0b054
8010b970:	52ec0100 	.word	0x1ec52
8010b974:	89fec10c 	jal	0x8307fa24
8010b978:	00000000 	nop
8010b97c:	58fbacf7 	.word	0xf7acfb58
8010b980:	29f30000 	.word	0xf329
8010b984:	6c0d4bf7 	.word	0xf74b0d6c
8010b988:	b2f08802 	.word	0x288f0b2
8010b98c:	e8030000 	.word	0x3e8
8010b990:	0d44b802 	break	0x2b8,0x110
8010b994:	d8d54c02 	.word	0x24cd5d8
8010b998:	00000000 	nop
8010b99c:	26ae7cfe 	.word	0xfe7cae26
8010b9a0:	0eed0100 	.word	0x1ed0e
8010b9a4:	7efeea0c 	jal	0x83abf9f8
8010b9a8:	00000000 	nop
8010b9ac:	67faa1f7 	.word	0xf7a1fa67
8010b9b0:	92f30000 	.word	0xf392
8010b9b4:	450d10f7 	.word	0xf7100d45
8010b9b8:	04f12003 	.word	0x320f104
8010b9bc:	a4040000 	.word	0x4a4
8010b9c0:	6383b802 	.word	0x2b88363
8010b9c4:	58a74702 	.word	0x247a758
8010b9c8:	00000000 	nop
8010b9cc:	0bac00fd 	.word	0xfd00ac0b
8010b9d0:	eeed0100 	.word	0x1edee
8010b9d4:	75fe1b0d 	jal	0x846ff9d4
8010b9d8:	00000000 	nop
8010b9dc:	4bf9bbf7 	.word	0xf7bbf94b
8010b9e0:	10f40000 	.word	0xf410
8010b9e4:	260de4f6 	.word	0xf6e40d26
8010b9e8:	7af1d203 	.word	0x3d2f17a
8010b9ec:	83050000 	sra	zero,zero,0x16
8010b9f0:	f610b802 	.word	0x2b810f6
8010b9f4:	957d4302 	.word	0x2437d95
8010b9f8:	00000000 	nop
8010b9fc:	07aa7efb 	.word	0xfb7eaa07
8010ba00:	f8ee0100 	.word	0x1eef8
8010ba04:	71fe540d 	jal	0x8553f9c4
8010ba08:	00000000 	nop
8010ba0c:	09f805f8 	.word	0xf805f809
8010ba10:	a7f40000 	.word	0xf4a7
8010ba14:	160dccf6 	.word	0xf6cc0d16
8010ba18:	20f29504 	.word	0x495f220
8010ba1c:	83060000 	sra	zero,zero,0x1a
8010ba20:	ed55b802 	.word	0x2b855ed
8010ba24:	ce254202 	.word	0x24225ce
8010ba28:	00000000 	nop
8010ba2c:	21a8faf9 	.word	0xf9faa821
8010ba30:	30f00100 	.word	0x1f030
8010ba34:	72fe960d 	jal	0x865bf9c8
8010ba38:	00000000 	nop
8010ba3c:	adf689f8 	.word	0xf889f6ad
8010ba40:	5cf50000 	.word	0xf55c
8010ba44:	180dd0f6 	.word	0xf6d00d18
8010ba48:	00f35b05 	.word	0x55bf300
8010ba4c:	a2070000 	.word	0x7a2
8010ba50:	74fdba02 	.word	0x2bafd74
8010ba54:	93b34502 	.word	0x245b393
8010ba58:	00000000 	nop
8010ba5c:	5ca677f8 	.word	0xf877a65c
8010ba60:	9df10100 	.word	0x1f19d
8010ba64:	79fee00d 	jal	0x8783f9e4
8010ba68:	00000000 	nop
8010ba6c:	46f54bf9 	.word	0xf94bf546
8010ba70:	35f60000 	.word	0xf635
8010ba74:	330df6f6 	.word	0xf6f60d33
8010ba78:	21f40f06 	.word	0x60ff421
8010ba7c:	d9080000 	.word	0x8d9
8010ba80:	72f0c102 	.word	0x2c1f072
8010ba84:	d55a5002 	.word	0x2505ad5
8010ba88:	00000000 	nop
8010ba8c:	bda4f7f6 	.word	0xf6f7a4bd
8010ba90:	44f30100 	.word	0x1f344
8010ba94:	88fe2e0e 	jal	0x88bbfa20
8010ba98:	00000000 	nop
8010ba9c:	ecf346fa 	.word	0xfa46f3ec
8010baa0:	35f70000 	.word	0xf735
8010baa4:	680d45f7 	.word	0xf7450d68
8010baa8:	82f59706 	.word	0x697f582
8010baac:	1e0a0000 	.word	0xa1e
8010bab0:	c834cf02 	.word	0x2cf34c8
8010bab4:	66366402 	.word	0x2643666
8010bab8:	00000000 	nop
8010babc:	49a37df5 	.word	0xf57da349
8010bac0:	2af50100 	.word	0x1f52a
8010bac4:	9ffe7f0e 	jal	0x89fffa7c
8010bac8:	00000000 	nop
8010bacc:	b7f267fb 	.word	0xfb67f2b7
8010bad0:	5ef80000 	.word	0xf85e
8010bad4:	b40dbff7 	.word	0xf7bf0db4
8010bad8:	17f7db06 	.word	0x6dbf717
8010badc:	610b0000 	.word	0xb61
8010bae0:	c9cce402 	.word	0x2e4ccc9
8010bae4:	77088302 	.word	0x2830877
8010bae8:	00000000 	nop
8010baec:	05a20df4 	.word	0xf40da205
8010baf0:	56f70100 	.word	0x1f756
8010baf4:	9ffed00e 	jal	0x8b43fa7c
8010baf8:	00000000 	nop
8010bafc:	b7f14afc 	.word	0xfc4af1b7
8010bb00:	d4f90000 	.word	0xf9d4
8010bb04:	b50dc1f7 	.word	0xf7c10db5
8010bb08:	ccf85d07 	.word	0x75df8cc
8010bb0c:	3d0c0000 	.word	0xc3d
8010bb10:	9aa9e702 	.word	0x2e7a99a
8010bb14:	6fa08a02 	.word	0x28aa06f
8010bb18:	00000000 	nop
8010bb1c:	1aa1a5f2 	.word	0xf2a5a11a
8010bb20:	b4f90100 	.word	0x1f9b4
8010bb24:	a3fe4f0f 	jal	0x8d3ffa8c
8010bb28:	00000000 	nop
8010bb2c:	98f0ccfd 	.word	0xfdccf098
8010bb30:	4cfc0000 	syscall	0x3f1
8010bb34:	c00dd2f7 	.word	0xf7d20dc0
8010bb38:	b1fbe007 	bltz	ra,0x8010aa00
8010bb3c:	3e0d0000 	.word	0xd3e
8010bb40:	2202db02 	.word	0x2db0222
8010bb44:	ad2d8002 	.word	0x2802dad
8010bb48:	00000000 	nop
8010bb4c:	a6a044f1 	.word	0xf144a0a6
8010bb50:	2afc0100 	.word	0x1fc2a
8010bb54:	b1fec10f 	jal	0x8f07fac4
8010bb58:	00000000 	nop
8010bb5c:	14f03dff 	.word	0xff3df014
8010bb60:	a7fe0000 	.word	0xfea7
8010bb64:	ec0d1ef8 	.word	0xf81e0dec
8010bb68:	73fed807 	.word	0x7d8fe73
8010bb6c:	db0d0000 	.word	0xddb
8010bb70:	7e2ad602 	.word	0x2d62a7e
8010bb74:	ec7c8102 	.word	0x2817cec
8010bb78:	00000000 	nop
8010bb7c:	9aa0f0ef 	swc3	$16,-24422(ra)
8010bb80:	abfe0100 	.word	0x1feab
8010bb84:	c5fe2300 	.word	0x23fec5
8010bb88:	00000000 	nop
8010bb8c:	07f06900 	srav	s8,t1,v1
8010bb90:	c7000000 	.word	0xc7
8010bb94:	290e8ef8 	.word	0xf88e0e29
8010bb98:	e1006f07 	.word	0x76f00e1
8010bb9c:	230e0000 	.word	0xe23
8010bba0:	e021d302 	.word	0x2d321e0
8010bba4:	704d8702 	.word	0x2874d70
8010bba8:	00000000 	nop
8010bbac:	e8a0aeee 	swc3	$14,-24344(s5)
8010bbb0:	2d010100 	.word	0x1012d
8010bbb4:	ddfe7800 	.word	0x78fedd
8010bbb8:	00000000 	nop
8010bbbc:	46f04501 	.word	0x145f046
8010bbc0:	a6020000 	.word	0x2a6
8010bbc4:	6c0e13f9 	.word	0xf9130e6c
8010bbc8:	f002ce06 	.word	0x6ce02f0
8010bbcc:	2d0e0000 	.word	0xe2d
8010bbd0:	3918cd02 	.word	0x2cd1839
8010bbd4:	63c08b02 	.word	0x28bc063
8010bbd8:	00000000 	nop
8010bbdc:	84a182ed 	swc3	$2,-24188(t4)
8010bbe0:	a6030100 	.word	0x103a6
8010bbe4:	f6fec000 	.word	0xc0fef6
8010bbe8:	00000000 	nop
8010bbec:	b2f0d801 	.word	0x1d8f0b2
8010bbf0:	45040000 	.word	0x445
8010bbf4:	af0ea7f9 	.word	0xf9a70eaf
8010bbf8:	a7041306 	.word	0x61304a7
8010bbfc:	0d0e0000 	break	0x0,0x38
8010bc00:	3c78c002 	.word	0x2c0783c
8010bc04:	247e8a02 	.word	0x28a7e24
8010bc08:	00000000 	nop
8010bc0c:	5fa274ec 	swc3	$20,-23969(v1)
8010bc10:	0a060100 	.word	0x1060a
8010bc14:	12fffe00 	.word	0xfeff12
8010bc18:	00000000 	nop
8010bc1c:	35f12c02 	.word	0x22cf135
8010bc20:	b0050000 	.word	0x5b0
8010bc24:	f10e4afa 	.word	0xfa4a0ef1
8010bc28:	17064805 	.word	0x5480617
8010bc2c:	d10d0000 	.word	0xdd1
8010bc30:	5db7aa02 	.word	0x2aab75d
8010bc34:	41768002 	.word	0x2807641
8010bc38:	00000000 	nop
8010bc3c:	6ca388eb 	swc2	$8,-23700(gp)
8010bc40:	4f080100 	.word	0x1084f
8010bc44:	31ff3501 	.word	0x135ff31
8010bc48:	00000000 	nop
8010bc4c:	c7f14902 	.word	0x249f1c7
8010bc50:	f4060000 	.word	0x6f4
8010bc54:	320f00fb 	.word	0xfb000f32
8010bc58:	52077204 	.word	0x4720752
8010bc5c:	830d0000 	sra	at,zero,0x16
8010bc60:	ca2b8a02 	.word	0x28a2bca
8010bc64:	16916b02 	.word	0x26b9116
8010bc68:	00000000 	nop
8010bc6c:	9da4c2ea 	swc2	$2,-23395(s6)
8010bc70:	6a0a0100 	.word	0x10a6a
8010bc74:	55ff6901 	.word	0x169ff55
8010bc78:	00000000 	nop
8010bc7c:	66f23002 	.word	0x230f266
8010bc80:	21080000 	move	at,zero
8010bc84:	730fd8fb 	.word	0xfbd80f73
8010bc88:	6b088903 	.word	0x389086b
8010bc8c:	230d0000 	.word	0xd23
8010bc90:	b4ee5d02 	.word	0x25deeb4
8010bc94:	a4704a02 	.word	0x24a70a4
8010bc98:	00000000 	nop
8010bc9c:	e5a52aea 	swc2	$10,-23067(s1)
8010bca0:	510c0100 	.word	0x10c51
8010bca4:	81ff9b01 	.word	0x19bff81
8010bca8:	00000000 	nop
8010bcac:	17f3d401 	.word	0x1d4f317
8010bcb0:	45090000 	.word	0x945
8010bcb4:	b20fe7fc 	.word	0xfce70fb2
8010bcb8:	73098002 	.word	0x2800973
8010bcbc:	aa0c0000 	.word	0xcaa
8010bcc0:	a5e92502 	.word	0x225e9a5
8010bcc4:	c1491c02 	.word	0x21c49c1
8010bcc8:	00000000 	nop
8010bccc:	35a7c4e9 	swc2	$4,-22731(t6)
8010bcd0:	f80d0100 	.word	0x10df8
8010bcd4:	bdffd101 	.word	0x1d1ffbd
8010bcd8:	00000000 	nop
8010bcdc:	eaf31301 	.word	0x113f3ea
8010bce0:	6c0a0000 	.word	0xa6c
8010bce4:	ea0f5cfe 	.word	0xfe5c0fea
8010bce8:	7b0a3d01 	.word	0x13d0a7b
8010bcec:	060c0000 	.word	0xc06
8010bcf0:	632fe301 	.word	0x1e32f63
8010bcf4:	15e3e001 	.word	0x1e0e315
8010bcf8:	00000000 	nop
8010bcfc:	80a895e9 	swc2	$21,-22400(t4)
8010bd00:	540f0100 	.word	0x10f54
8010bd04:	11001002 	.word	0x2100011
8010bd08:	00000000 	nop
8010bd0c:	fcf4b1ff 	.word	0xffb1f4fc
8010bd10:	990b0000 	.word	0xb99
8010bd14:	fe0f6d00 	.word	0x6d0ffe
8010bd18:	9a0bb5ff 	.word	0xffb50b9a
8010bd1c:	030b0000 	sra	at,zero,0xc
8010bd20:	e236be01 	.word	0x1be36e2
8010bd24:	7610be01 	.word	0x1be1076
8010bd28:	00000000 	nop
8010bd2c:	cca9a0e9 	swc2	$0,-22068(t5)
8010bd30:	7e100100 	.word	0x1107e
8010bd34:	61003402 	.word	0x2340061
8010bd38:	00000000 	nop
8010bd3c:	a3f52ffe 	.word	0xfe2ff5a3
8010bd40:	0d0c0000 	break	0x0,0x30
8010bd44:	d20f6302 	.word	0x2630fd2
8010bd48:	2f0c74fe 	.word	0xfe740c2f
8010bd4c:	400a0000 	sll	at,zero,0x9
8010bd50:	cbb6c101 	.word	0x1c1b6cb
8010bd54:	84f5bc01 	.word	0x1bcf584
8010bd58:	00000000 	nop
8010bd5c:	26abe1e9 	swc2	$1,-21722(t7)
8010bd60:	96110100 	.word	0x11196
8010bd64:	a4005402 	.word	0x25400a4
8010bd68:	00000000 	nop
8010bd6c:	41f6d5fc 	.word	0xfcd5f641
8010bd70:	490c0000 	.word	0xc49
8010bd74:	7e0fff03 	.word	0x3ff0f7e
8010bd78:	b00c91fd 	.word	0xfd910cb0
8010bd7c:	70090000 	.word	0x970
8010bd80:	f4a3ca01 	.word	0x1caa3f4
8010bd84:	a1ccbc01 	.word	0x1bccca1
8010bd88:	00000000 	nop
8010bd8c:	8dac51ea 	swc2	$17,-21363(s2)
8010bd90:	9d120100 	.word	0x1129d
8010bd94:	da007202 	.word	0x27200da
8010bd98:	00000000 	nop
8010bd9c:	d5f6b2fb 	.word	0xfbb2f6d5
8010bda0:	620c0000 	.word	0xc62
8010bda4:	1c0f4105 	bgez	t2,0x8010fa18
8010bda8:	1c0dfdfc 	.word	0xfcfd0d1c
8010bdac:	a9080000 	.word	0x8a9
8010bdb0:	454bd601 	.word	0x1d64b45
8010bdb4:	a745bd01 	.word	0x1bd45a7
8010bdb8:	00000000 	nop
8010bdbc:	ffade8ea 	swc2	$8,-20993(s7)
8010bdc0:	95130100 	.word	0x11395
8010bdc4:	03018b02 	.word	0x28b0103
8010bdc8:	00000000 	nop
8010bdcc:	5bf7c9fa 	.word	0xfac9f75b
8010bdd0:	690c0000 	.word	0xc69
8010bdd4:	bf0e3306 	.word	0x6330ebf
8010bdd8:	760da7fc 	.word	0xfca70d76
8010bddc:	f8070000 	.word	0x7f8
8010bde0:	237ae201 	.word	0x1e27a23
8010bde4:	4514be01 	.word	0x1be1445
8010bde8:	00000000 	nop
8010bdec:	7bafa0eb 	swc2	$0,-20613(sp)
8010bdf0:	7f140100 	.word	0x1147f
8010bdf4:	2101a202 	.word	0x2a20121
8010bdf8:	00000000 	nop
8010bdfc:	d2f717fa 	.word	0xfa17f7d2
8010be00:	6a0c0000 	.word	0xc6a
8010be04:	720ee006 	bltz	s7,0x8010f7d0
8010be08:	c00d7cfc 	.word	0xfc7c0dc0
8010be0c:	62070000 	.word	0x762
8010be10:	f587ed01 	.word	0x1ed87f5
8010be14:	40f8be01 	.word	0x1bef840
8010be18:	00000000 	nop
8010be1c:	feb072ec 	swc3	$18,-20226(v1)
8010be20:	5e150100 	.word	0x1155e
8010be24:	3601b502 	.word	0x2b50136
8010be28:	00000000 	nop
8010be2c:	3af898f9 	.word	0xf998f83a
8010be30:	6d0c0000 	.word	0xc6d
8010be34:	380e5407 	.word	0x7540e38
8010be38:	fb0d70fc 	.word	0xfc700dfb
8010be3c:	e9060000 	.word	0x6e9
8010be40:	b745f601 	.word	0x1f645b7
8010be44:	bababf01 	.word	0x1bfbaba
8010be48:	00000000 	nop
8010be4c:	88b255ed 	swc3	$21,-19832(t2)
8010be50:	33160100 	.word	0x11633
8010be54:	4201c402 	.word	0x2c40142
8010be58:	00000000 	nop
8010be5c:	90f848f9 	.word	0xf948f890
8010be60:	780c0000 	.word	0xc78
8010be64:	150e9707 	.word	0x7970e15
8010be68:	2a0e79fc 	.word	0xfc790e2a
8010be6c:	8c060000 	syscall	0x1a
8010be70:	48e3fb01 	.word	0x1fbe348
8010be74:	0c2cc001 	syscall	0x700b0
8010be78:	00000000 	nop
8010be7c:	17b444ee 	swc3	$4,-19433(s2)
8010be80:	ff160100 	.word	0x116ff
8010be84:	4601d102 	.word	0x2d10146
8010be88:	00000000 	nop
8010be8c:	d5f823f9 	.word	0xf923f8d5
8010be90:	8c0c0000 	syscall	0x32
8010be94:	090ead07 	.word	0x7ad0e09
8010be98:	4d0e90fc 	.word	0xfc900e4d
8010be9c:	4a060000 	.word	0x64a
8010bea0:	49e4fd01 	.word	0x1fde449
8010bea4:	3229c001 	.word	0x1c02932
8010bea8:	00000000 	nop
8010beac:	a9b537ef 	swc3	$23,-19031(t9)
8010beb0:	c5170100 	.word	0x117c5
8010beb4:	4201da02 	.word	0x2da0142
8010beb8:	00000000 	nop
8010bebc:	09f929f9 	.word	0xf929f909
8010bec0:	ac0c0000 	.word	0xcac
8010bec4:	140e9907 	.word	0x7990e14
8010bec8:	670eb1fc 	.word	0xfcb10e67
8010becc:	21060000 	.word	0x621
8010bed0:	150cfc01 	.word	0x1fc0c15
8010bed4:	3d94bf01 	.word	0x1bf943d
8010bed8:	00000000 	nop
8010bedc:	3db728f0 	.word	0xf028b73d
8010bee0:	86180100 	.word	0x11886
8010bee4:	3701e002 	.word	0x2e00137
8010bee8:	00000000 	nop
8010beec:	2af95af9 	.word	0xf95af92a
8010bef0:	d80c0000 	.word	0xcd8
8010bef4:	350e5b07 	.word	0x75b0e35
8010bef8:	770edcfc 	.word	0xfcdc0e77
8010befc:	12060000 	.word	0x612
8010bf00:	e05ef601 	.word	0x1f65ee0
8010bf04:	e35bbe01 	.word	0x1be5be3
8010bf08:	00000000 	nop
8010bf0c:	d1b80ef1 	.word	0xf10eb8d1
8010bf10:	44190100 	.word	0x11944
8010bf14:	2301e302 	.word	0x2e30123
8010bf18:	00000000 	nop
8010bf1c:	3af9bdf9 	.word	0xf9bdf93a
8010bf20:	120d0000 	.word	0xd12
8010bf24:	6d0eea06 	.word	0x6ea0e6d
8010bf28:	7e0e13fd 	.word	0xfd130e7e
8010bf2c:	1b060000 	.word	0x61b
8010bf30:	623b6102 	.word	0x2613b62
8010bf34:	fb012802 	.word	0x22801fb
8010bf38:	00000000 	nop
8010bf3c:	cdba10f2 	.word	0xf210bacd
8010bf40:	1c1a0100 	.word	0x11a1c
8010bf44:	0a010603 	.word	0x306010a
8010bf48:	00000000 	nop
8010bf4c:	08fa1cfa 	.word	0xfa1cfa08
8010bf50:	9f0d0000 	.word	0xd9f
8010bf54:	af0e5a06 	.word	0x65a0eaf
8010bf58:	d80ea2fd 	.word	0xfda20ed8
8010bf5c:	7a050000 	.word	0x57a
8010bf60:	98c61f03 	.word	0x31fc698
8010bf64:	b908df02 	.word	0x2df08b9
8010bf68:	00000000 	nop
8010bf6c:	7abd4bf3 	.word	0xf34bbd7a
8010bf70:	251b0100 	.word	0x11b25
8010bf74:	fd001603 	.word	0x31600fd
8010bf78:	00000000 	nop
8010bf7c:	67fa54fa 	.word	0xfa54fa67
8010bf80:	df0d0000 	.word	0xddf
8010bf84:	cf0e0e06 	.word	0x60e0ecf
8010bf88:	fd0ee2fd 	.word	0xfde20efd
8010bf8c:	2e050000 	.word	0x52e
8010bf90:	579bad03 	.word	0x3ad9b57
8010bf94:	0d096803 	break	0x368,0x24
8010bf98:	00000000 	nop
8010bf9c:	aec0aef4 	.word	0xf4aec0ae
8010bfa0:	501c0100 	.word	0x11c50
8010bfa4:	f4002003 	.word	0x32000f4
8010bfa8:	00000000 	nop
8010bfac:	9efa7dfa 	.word	0xfa7dfa9e
8010bfb0:	050e0000 	.word	0xe05
8010bfb4:	e30edb05 	.word	0x5db0ee3
8010bfb8:	110f08fe 	.word	0xfe080f11
8010bfbc:	02050000 	srl	zero,zero,0x14
8010bfc0:	521a0a04 	.word	0x40a1a52
8010bfc4:	27a4c203 	.word	0x3c2a427
8010bfc8:	00000000 	nop
8010bfcc:	3ac428f6 	.word	0xf628c43a
8010bfd0:	8f1d0100 	.word	0x11d8f
8010bfd4:	ed002603 	.word	0x32600ed
8010bfd8:	00000000 	nop
8010bfdc:	c2fa9ffa 	.word	0xfa9ffac2
8010bfe0:	200e0000 	.word	0xe20
8010bfe4:	f30eb105 	bgezal	t5,0x8010fbb4
8010bfe8:	1d0f23fe 	.word	0xfe230f1d
8010bfec:	e6040000 	.word	0x4e6
8010bff0:	320d3504 	.word	0x4350d32
8010bff4:	99b8ee03 	.word	0x3eeb899
8010bff8:	00000000 	nop
8010bffc:	f2c7a7f7 	.word	0xf7a7c7f2
8010c000:	d61e0100 	.word	0x11ed6
8010c004:	e6002a03 	.word	0x32a00e6
8010c008:	00000000 	nop
8010c00c:	dcfac1fa 	.word	0xfac1fadc
8010c010:	360e0000 	.word	0xe36
8010c014:	020f8b05 	.word	0x58b0f02
8010c018:	260f38fe 	.word	0xfe380f26
8010c01c:	d3040000 	.word	0x4d3
8010c020:	9c5d2e04 	.word	0x42e5d9c
8010c024:	3338ec03 	.word	0x3ec3833
8010c028:	00000000 	nop
8010c02c:	aacb19f9 	.word	0xf919cbaa
8010c030:	16200100 	.word	0x12016
8010c034:	df002d03 	.word	0x32d00df
8010c038:	00000000 	nop
8010c03c:	effae6fa 	.word	0xfae6faef
8010c040:	4a0e0000 	.word	0xe4a
8010c044:	110f6105 	bgez	t3,0x8010fc8c
8010c048:	2c0f4cfe 	.word	0xfe4c0f2c
8010c04c:	c6040000 	.word	0x4c6
8010c050:	4005f603 	.word	0x3f60540
8010c054:	771bbb03 	.word	0x3bb1b77
8010c058:	00000000 	nop
8010c05c:	34cf6efa 	.word	0xfa6ecf34
8010c060:	43210100 	sra	a0,at,0x5
8010c064:	d6003003 	.word	0x33000d6
8010c068:	00000000 	nop
8010c06c:	fefa17fb 	.word	0xfb17fafe
8010c070:	610e0000 	.word	0xe61
8010c074:	240f2c05 	.word	0x52c0f24
8010c078:	320f62fe 	.word	0xfe620f32
8010c07c:	bd040000 	.word	0x4bd
8010c080:	8f0a8c03 	.word	0x38c0a8f
8010c084:	0b5e5b03 	.word	0x35b5e0b
8010c088:	00000000 	nop
8010c08c:	65d293fb 	.word	0xfb93d265
8010c090:	4f220100 	.word	0x1224f
8010c094:	c9003203 	.word	0x33200c9
8010c098:	00000000 	nop
8010c09c:	0cfb60fb 	.word	0xfb60fb0c
8010c0a0:	7e0e0000 	.word	0xe7e
8010c0a4:	3e0fdd04 	.word	0x4dd0f3e
8010c0a8:	360f7ffe 	.word	0xfe7f0f36
8010c0ac:	b8040000 	.word	0x4b8
8010c0b0:	6489f002 	.word	0x2f08964
8010c0b4:	e8fdcc02 	.word	0x2ccfde8
8010c0b8:	00000000 	nop
8010c0bc:	0fd578fc 	.word	0xfc78d50f
8010c0c0:	2c230100 	.word	0x1232c
8010c0c4:	b0003403 	.word	0x33400b0
8010c0c8:	00000000 	nop
8010c0cc:	19fbedfb 	.word	0xfbedfb19
8010c0d0:	ac0e0000 	.word	0xeac
8010c0d4:	6a0f4804 	.word	0x4480f6a
8010c0d8:	3a0fb0fe 	.word	0xfeb00f3a
8010c0dc:	ba040000 	.word	0x4ba
8010c0e0:	9be02302 	.word	0x223e09b
8010c0e4:	daf80f02 	.word	0x20ff8da
8010c0e8:	00000000 	nop
8010c0ec:	06d70afd 	.word	0xfd0ad706
8010c0f0:	cd230100 	break	0x1,0x8f
8010c0f4:	68003703 	.word	0x3370068
8010c0f8:	00000000 	nop
8010c0fc:	29fb92fd 	.word	0xfd92fb29
8010c100:	0e0f0000 	.word	0xf0e
8010c104:	cb0f8c02 	.word	0x28c0fcb
8010c108:	3f0f3bff 	.word	0xff3b0f3f
8010c10c:	c7040000 	.word	0x4c7
8010c110:	6d032801 	.word	0x128036d
8010c114:	8b4f2401 	.word	0x1244f8b
8010c118:	00000000 	nop
8010c11c:	1dd839fd 	.word	0xfd39d81d
8010c120:	24240100 	.word	0x12424
8010c124:	daff3f03 	.word	0x33fffda
8010c128:	00000000 	nop
8010c12c:	59fbe700 	.word	0xe7fb59
8010c130:	480f0000 	.word	0xf48
8010c134:	f80f0fff 	.word	0xff0f0ff8
8010c138:	4e0f4600 	.word	0x460f4e
8010c13c:	a5040000 	.word	0x4a5
8010c140:	507d9600 	.word	0x967d50
8010c144:	e9389600 	.word	0x9638e9
8010c148:	00000000 	nop
8010c14c:	acd830fd 	.word	0xfd30d8ac
8010c150:	50240100 	.word	0x12450
8010c154:	d5ff3c03 	.word	0x33cffd5
8010c158:	00000000 	nop
8010c15c:	45fb0501 	.word	0x105fb45
8010c160:	3f0f0000 	.word	0xf3f
8010c164:	f60feffe 	.word	0xfeef0ff6
8010c168:	480f5000 	.word	0x500f48
8010c16c:	b8040000 	.word	0x4b8
8010c170:	f7c18600 	.word	0x86c1f7
8010c174:	45738600 	.word	0x867345
8010c178:	00000000 	nop
8010c17c:	2dd927fd 	.word	0xfd27d92d
8010c180:	78240100 	.word	0x12478
8010c184:	ceff3803 	.word	0x338ffce
8010c188:	00000000 	nop
8010c18c:	30fb2d01 	.word	0x12dfb30
8010c190:	360f0000 	.word	0xf36
8010c194:	f30fc4fe 	.word	0xfec40ff3
8010c198:	420f5f00 	.word	0x5f0f42
8010c19c:	cc040000 	syscall	0x13
8010c1a0:	cc887900 	syscall	0x1e623
8010c1a4:	052a7900 	.word	0x792a05
8010c1a8:	00000000 	nop
8010c1ac:	a0d91dfd 	.word	0xfd1dd9a0
8010c1b0:	9d240100 	.word	0x1249d
8010c1b4:	c6ff3503 	.word	0x335ffc6
8010c1b8:	00000000 	nop
8010c1bc:	1cfb5f01 	.word	0x15ffb1c
8010c1c0:	2b0f0000 	.word	0xf2b
8010c1c4:	ef0f8ffe 	.word	0xfe8f0fef
8010c1c8:	3b0f7100 	.word	0x710f3b
8010c1cc:	df040000 	.word	0x4df
8010c1d0:	cdd36e00 	break	0x6e,0x34f
8010c1d4:	815d6e00 	.word	0x6e5d81
8010c1d8:	00000000 	nop
8010c1dc:	09da13fd 	.word	0xfd13da09
8010c1e0:	bf240100 	.word	0x124bf
8010c1e4:	bbff3203 	.word	0x332ffbb
8010c1e8:	00000000 	nop
8010c1ec:	09fb9d01 	.word	0x19dfb09
8010c1f0:	1f0f0000 	.word	0xf1f
8010c1f4:	e80f4efe 	.word	0xfe4e0fe8
8010c1f8:	350f8600 	.word	0x860f35
8010c1fc:	f0040000 	.word	0x4f0
8010c200:	61a36600 	.word	0x66a361
8010c204:	2e0c6600 	.word	0x660c2e
8010c208:	00000000 	nop
8010c20c:	6ada08fd 	.word	0xfd08da6a
8010c210:	df240100 	.word	0x124df
8010c214:	afff2f03 	.word	0x32fffaf
8010c218:	00000000 	nop
8010c21c:	fafae301 	.word	0x1e3fafa
8010c220:	120f0000 	.word	0xf12
8010c224:	e00f03fe 	.word	0xfe030fe0
8010c228:	300f9f00 	.word	0x9f0f30
8010c22c:	fc040000 	.word	0x4fc
8010c230:	08fa6000 	.word	0x60fa08
8010c234:	17376000 	.word	0x603717
8010c238:	00000000 	nop
8010c23c:	c5dafcfc 	.word	0xfcfcdac5
8010c240:	fd240100 	.word	0x124fd
8010c244:	a2ff2e03 	.word	0x32effa2
8010c248:	00000000 	nop
8010c24c:	f2fa2f02 	.word	0x22ffaf2
8010c250:	050f0000 	.word	0xf05
8010c254:	d50fb3fd 	.word	0xfdb30fd5
8010c258:	2d0fba00 	.word	0xba0f2d
8010c25c:	01050000 	.word	0x501
8010c260:	d8d65d00 	.word	0x5dd6d8
8010c264:	5adc5c00 	.word	0x5cdc5a
8010c268:	00000000 	nop
8010c26c:	1ddbeffc 	.word	0xfcefdb1d
8010c270:	1b250100 	.word	0x1251b
8010c274:	35ff2e03 	.word	0x32eff35
8010c278:	00000000 	nop
8010c27c:	f0faab04 	.word	0x4abfaf0
8010c280:	700e0000 	.word	0xe70
8010c284:	390f14fb 	.word	0xfb140f39
8010c288:	2d0f8e01 	.word	0x18e0f2d
8010c28c:	d1040000 	.word	0x4d1
8010c290:	f8a26000 	.word	0x60a2f8
8010c294:	a3fc5b00 	.word	0x5bfca3
8010c298:	00000000 	nop
8010c29c:	75dbd1fc 	.word	0xfcd1db75
8010c2a0:	38250100 	.word	0x12538
8010c2a4:	d5fe2f03 	.word	0x32ffed5
8010c2a8:	00000000 	nop
8010c2ac:	f7fabd06 	.word	0x6bdfaf7
8010c2b0:	9b0d0000 	.word	0xd9b
8010c2b4:	560ee7f8 	.word	0xf8e70e56
8010c2b8:	2f0f3c02 	.word	0x23c0f2f
8010c2bc:	83040000 	sra	zero,zero,0x12
8010c2c0:	9a3d6800 	.word	0x683d9a
8010c2c4:	f5975d00 	.word	0x5d97f5
8010c2c8:	00000000 	nop
8010c2cc:	cedba3fc 	.word	0xfca3dbce
8010c2d0:	55250100 	.word	0x12555
8010c2d4:	68fe3103 	.word	0x331fe68
8010c2d8:	00000000 	nop
8010c2dc:	05fbe808 	j	0x83a3ec14
8010c2e0:	520c0000 	.word	0xc52
8010c2e4:	f70ca1f6 	.word	0xf6a10cf7
8010c2e8:	340feb02 	.word	0x2eb0f34
8010c2ec:	09040000 	.word	0x409
8010c2f0:	86fc7700 	.word	0x77fc86
8010c2f4:	85ae6100 	.word	0x61ae85
8010c2f8:	00000000 	nop
8010c2fc:	2adc5dfc 	.word	0xfc5ddc2a
8010c300:	73250100 	.word	0x12573
8010c304:	fbfd3403 	.word	0x334fdfb
8010c308:	00000000 	nop
8010c30c:	19fbdc0a 	j	0x8b73ec64
8010c310:	ac0a0000 	.word	0xaac
8010c314:	370b97f4 	.word	0xf4970b37
8010c318:	3a0f7f03 	.word	0x37f0f3a
8010c31c:	70030000 	.word	0x370
8010c320:	9ca19300 	.word	0x93a19c
8010c324:	c4406800 	.word	0x6840c4
8010c328:	00000000 	nop
8010c32c:	8edcf5fb 	.word	0xfbf5dc8e
8010c330:	93250180 	lb	at,9619(zero)
8010c334:	d5033803 	.word	0x33803d5
8010c338:	00000000 	nop
8010c33c:	30fbc7f0 	.word	0xf0c7fb30
8010c340:	00010000 	sll	zero,zero,0x4
8010c344:	0c01f70f 	jal	0x8fdc0430
8010c348:	420f33fb 	.word	0xfb330f42
8010c34c:	50000000 	.word	0x50
8010c350:	6a9e7906 	.word	0x6799e6a
8010c354:	17846c00 	.word	0x6c8417
8010c358:	00000000 	nop
8010c35c:	f5dc6a02 	.word	0x26adcf5
8010c360:	b4250180 	lb	at,9652(zero)
8010c364:	b0033703 	.word	0x33703b0
8010c368:	00000000 	nop
8010c36c:	2bfbddf0 	.word	0xf0ddfb2b
8010c370:	dd010000 	.word	0x1dd
8010c374:	f501e10f 	jal	0x8f8407d4
8010c378:	400f34fb 	.word	0xfb340f40
8010c37c:	97000000 	.word	0x97
8010c380:	fabe7803 	.word	0x378befa
8010c384:	fa756c00 	.word	0x6c75fa
8010c388:	00000000 	nop
8010c38c:	5ddddc05 	.word	0x5dcdd5d
8010c390:	d4250180 	lb	at,9684(zero)
8010c394:	b7033703 	.word	0x33703b7
8010c398:	00000000 	nop
8010c39c:	27fbdaf0 	.word	0xf0dafb27
8010c3a0:	b2010000 	.word	0x1b2
8010c3a4:	c801e60f 	jal	0x8f980720
8010c3a8:	3f0f2efb 	.word	0xfb2e0f3f
8010c3ac:	8a000000 	.word	0x8a
8010c3b0:	b112cb03 	.word	0x3cb12b1
8010c3b4:	54e16b00 	.word	0x6be154
8010c3b8:	00000000 	nop
8010c3bc:	c3dda109 	j	0x8687770c
8010c3c0:	f5250180 	lb	at,9717(zero)
8010c3c4:	a4033603 	.word	0x33603a4
8010c3c8:	00000000 	nop
8010c3cc:	23fbe9f0 	.word	0xf0e9fb23
8010c3d0:	23020000 	.word	0x223
8010c3d4:	3e02d70f 	jal	0x8f5c08f8
8010c3d8:	3d0f2ffb 	.word	0xfb2f0f3d
8010c3dc:	ae000000 	.word	0xae
8010c3e0:	4a0bfb02 	.word	0x2fb0b4a
8010c3e4:	81c56a00 	.word	0x6ac581
8010c3e8:	00000000 	nop
8010c3ec:	29de950c 	jal	0x825778a4
8010c3f0:	16260180 	lb	at,9750(zero)
8010c3f4:	b3033503 	.word	0x33503b3
8010c3f8:	00000000 	nop
8010c3fc:	1ffbdef0 	.word	0xf0defb1f
8010c400:	c6010000 	.word	0x1c6
8010c404:	dd01e40f 	jal	0x8f900774
8010c408:	3c0f28fb 	.word	0xfb280f3c
8010c40c:	91000000 	.word	0x91
8010c410:	c8508703 	.word	0x38750c8
8010c414:	9a236900 	.word	0x69239a
8010c418:	00000000 	nop
8010c41c:	8dde1610 	beq	zero,s6,0x80103e54
8010c420:	36260180 	lb	at,9782(zero)
8010c424:	b2033503 	.word	0x33503b2
8010c428:	00000000 	nop
8010c42c:	1cfbe0f0 	.word	0xf0e0fb1c
8010c430:	ce010000 	.word	0x1ce
8010c434:	e601e30f 	jal	0x8f8c0798
8010c438:	3b0f25fb 	.word	0xfb250f3b
8010c43c:	94000000 	.word	0x94
8010c440:	65446503 	.word	0x3654465
8010c444:	46fa6600 	.word	0x66fa46
8010c448:	00000000 	nop
8010c44c:	efde7513 	beq	k1,s5,0x8010400c
8010c450:	55260180 	lb	at,9813(zero)
8010c454:	b8033403 	.word	0x33403b8
8010c458:	00000000 	nop
8010c45c:	19fbddf0 	.word	0xf0ddfb19
8010c460:	ac010000 	.word	0x1ac
8010c464:	c201e70f 	jal	0x8f9c0708
8010c468:	3a0f21fb 	.word	0xfb210f3a
8010c46c:	8a000000 	.word	0x8a
8010c470:	397e9103 	.word	0x3917e39
8010c474:	6f4a6400 	.word	0x644a6f
8010c478:	00000000 	nop
8010c47c:	4fdf0117 	bne	t8,at,0x801041bc
8010c480:	74260180 	lb	at,9844(zero)
8010c484:	af033403 	.word	0x33403af
8010c488:	00000000 	nop
8010c48c:	17fbe4f0 	.word	0xf0e4fb17
8010c490:	df010000 	.word	0x1df
8010c494:	f701e00f 	jal	0x8f8007dc
8010c498:	3a0f20fb 	.word	0xfb200f3a
8010c49c:	9a000000 	.word	0x9a
8010c4a0:	b4d41603 	.word	0x316d4b4
8010c4a4:	bb136100 	.word	0x6113bb
8010c4a8:	00000000 	nop
8010c4ac:	abdf121a 	.word	0x1a12dfab
8010c4b0:	92260180 	lb	at,9874(zero)
8010c4b4:	ad033403 	.word	0x33403ad
8010c4b8:	00000000 	nop
8010c4bc:	15fbe6f0 	.word	0xf0e6fb15
8010c4c0:	ea010000 	.word	0x1ea
8010c4c4:	0302df0f 	jal	0x8f7c080c
8010c4c8:	390f1ffb 	.word	0xfb1f0f39
8010c4cc:	9e000000 	.word	0x9e
8010c4d0:	9a19e602 	.word	0x2e6199a
8010c4d4:	1a565d00 	.word	0x5d561a
8010c4d8:	00000000 	nop
8010c4dc:	04e0f21c 	.word	0x1cf2e004
8010c4e0:	af260180 	lb	at,9903(zero)
8010c4e4:	9c033303 	.word	0x333039c
8010c4e8:	00000000 	nop
8010c4ec:	14fbf5f0 	.word	0xf0f5fb14
8010c4f0:	4f020000 	.word	0x24f
8010c4f4:	6d02d00f 	jal	0x8f4009b4
8010c4f8:	390f22fb 	.word	0xfb220f39
8010c4fc:	bf000000 	.word	0xbf
8010c500:	0b064b02 	.word	0x24b060b
8010c504:	c2115900 	.word	0x5911c2
8010c508:	00000000 	nop
8010c50c:	59e0361f 	.word	0x1f36e059
8010c510:	ca260180 	lb	at,9930(zero)
8010c514:	04033303 	.word	0x3330304
8010c518:	00000000 	nop
8010c51c:	12fbe6f1 	.word	0xf1e6fb12
8010c520:	b8050000 	.word	0x5b8
8010c524:	0306d30e 	jal	0x8b4c180c
8010c528:	380f6ffb 	.word	0xfb6f0f38
8010c52c:	da010000 	.word	0x1da
8010c530:	bf45e000 	.word	0xe045bf
8010c534:	7b465400 	.word	0x54467b
8010c538:	00000000 	nop
8010c53c:	a9e00620 	addi	a2,zero,-8023
8010c540:	e4260180 	lb	at,9956(zero)
8010c544:	00003303 	.word	0x3330000
8010c548:	00000000 	nop
8010c54c:	12fbfcff 	.word	0xfffcfb12
8010c550:	380f0000 	.word	0xf38
8010c554:	ff0f0400 	.word	0x40fff
8010c558:	380fffff 	.word	0xffff0f38
8010c55c:	ee040000 	.word	0x4ee
8010c560:	d959c800 	.word	0xc859d9
8010c564:	d059c800 	.word	0xc859d0
8010c568:	00000000 	nop
8010c56c:	68e10620 	addi	a2,zero,-7832
8010c570:	21270180 	lb	at,10017(zero)
8010c574:	11003903 	.word	0x3390011
8010c578:	00000000 	nop
8010c57c:	32fb99ff 	.word	0xff99fb32
8010c580:	410f0000 	.word	0xf41
8010c584:	fe0f6c00 	.word	0x6c0ffe
8010c588:	420fe0ff 	.word	0xffe00f42
8010c58c:	ce040000 	.word	0x4ce
8010c590:	dcd09601 	.word	0x196d0dc
8010c594:	74ac9601 	.word	0x196ac74
8010c598:	00000000 	nop
8010c59c:	ece21120 	addi	s1,zero,-7444
8010c5a0:	9b270180 	lb	at,10139(zero)
8010c5a4:	14003903 	.word	0x3390014
8010c5a8:	00000000 	nop
8010c5ac:	36fb83ff 	.word	0xff83fb36
8010c5b0:	420f0000 	srl	at,zero,0x1d
8010c5b4:	fd0f8300 	.word	0x830ffd
8010c5b8:	440fd9ff 	.word	0xffd90f44
8010c5bc:	c9040000 	.word	0x4c9
8010c5c0:	e3d23602 	.word	0x236d2e3
8010c5c4:	5d883602 	.word	0x236885d
8010c5c8:	00000000 	nop
8010c5cc:	08e52320 	addi	v1,at,-6904
8010c5d0:	44280180 	lb	at,10308(zero)
8010c5d4:	15003a03 	.word	0x33a0015
8010c5d8:	00000000 	nop
8010c5dc:	38fb7fff 	.word	0xff7ffb38
8010c5e0:	420f0000 	srl	at,zero,0x1d
8010c5e4:	fd0f8700 	.word	0x870ffd
8010c5e8:	440fd8ff 	.word	0xffd80f44
8010c5ec:	c8040000 	.word	0x4c8
8010c5f0:	454da802 	.word	0x2a84d45
8010c5f4:	0feea702 	.word	0x2a7ee0f
8010c5f8:	00000000 	nop
8010c5fc:	91e73a20 	addi	k0,at,-6255
8010c600:	0f290180 	lb	at,10511(zero)
8010c604:	14003a03 	.word	0x33a0014
8010c608:	00000000 	nop
8010c60c:	38fb84ff 	.word	0xff84fb38
8010c610:	420f0000 	srl	at,zero,0x1d
8010c614:	fd0f8100 	.word	0x810ffd
8010c618:	440fdaff 	.word	0xffda0f44
8010c61c:	c7040000 	.word	0x4c7
8010c620:	533ceb02 	.word	0x2eb3c53
8010c624:	06dcea02 	.word	0x2eadc06
8010c628:	00000000 	nop
8010c62c:	5aea5120 	addi	s1,v0,-5542
8010c630:	ee290180 	lb	at,10734(zero)
8010c634:	12003a03 	.word	0x33a0012
8010c638:	00000000 	nop
8010c63c:	39fb91ff 	.word	0xff91fb39
8010c640:	430f0000 	sra	at,zero,0x1d
8010c644:	fe0f7400 	.word	0x740ffe
8010c648:	440fdeff 	.word	0xffde0f44
8010c64c:	c7040000 	.word	0x4c7
8010c650:	b1a3ff02 	.word	0x2ffa3b1
8010c654:	2f54ff02 	.word	0x2ff542f
8010c658:	00000000 	nop
8010c65c:	36ed6720 	addi	a3,v1,-4810
8010c660:	d42a0180 	lb	at,10964(zero)
8010c664:	0e003a03 	.word	0x33a000e
8010c668:	00000000 	nop
8010c66c:	39fba8ff 	.word	0xffa8fb39
8010c670:	430f0000 	sra	at,zero,0x1d
8010c674:	fe0f5d00 	.word	0x5d0ffe
8010c678:	440fe5ff 	.word	0xffe50f44
8010c67c:	c7040000 	.word	0x4c7
8010c680:	3586e502 	.word	0x2e58635
8010c684:	3155e502 	.word	0x2e55531
8010c688:	00000000 	nop
8010c68c:	faef7820 	addi	t8,v1,-4102
8010c690:	b12b0180 	lb	at,11185(zero)
8010c694:	08003a03 	.word	0x33a0008
8010c698:	00000000 	nop
8010c69c:	39fbcdff 	.word	0xffcdfb39
8010c6a0:	440f0000 	.word	0xf44
8010c6a4:	ff0f3500 	.word	0x350fff
8010c6a8:	440ff0ff 	.word	0xfff00f44
8010c6ac:	c7040000 	.word	0x4c7
8010c6b0:	21ee9c02 	.word	0x29cee21
8010c6b4:	5cdf9c02 	.word	0x29cdf5c
8010c6b8:	00000000 	nop
8010c6bc:	78f28120 	addi	at,a0,-3464
8010c6c0:	792c0180 	lb	at,11385(zero)
8010c6c4:	feff3a03 	.word	0x33afffe
8010c6c8:	00000000 	nop
8010c6cc:	38fb1000 	.word	0x10fb38
8010c6d0:	440f0000 	.word	0xf44
8010c6d4:	ff0fefff 	.word	0xffef0fff
8010c6d8:	440f0500 	.word	0x50f44
8010c6dc:	c8040000 	.word	0x4c8
8010c6e0:	5ef42502 	.word	0x225f45e
8010c6e4:	09f32502 	.word	0x225f309
8010c6e8:	00000000 	nop
8010c6ec:	85f47f20 	addi	ra,v1,-2939
8010c6f0:	1d2d0180 	lb	at,11549(zero)
8010c6f4:	e4ff3903 	.word	0x339ffe4
8010c6f8:	00000000 	nop
8010c6fc:	37fba900 	.word	0xa9fb37
8010c700:	400f0000 	sll	at,zero,0x1d
8010c704:	fc0f4fff 	.word	0xff4f0ffc
8010c708:	440f3500 	.word	0x350f44
8010c70c:	c8040000 	.word	0x4c8
8010c710:	eaeb8001 	.word	0x180ebea
8010c714:	878f8001 	.word	0x1808f87
8010c718:	00000000 	nop
8010c71c:	f4f56e20 	addi	t6,v1,-2572
8010c720:	912d0180 	lb	at,11665(zero)
8010c724:	84ff3903 	.word	0x339ff84
8010c728:	00000000 	nop
8010c72c:	33fbe802 	.word	0x2e8fb33
8010c730:	fb0e0000 	.word	0xefb
8010c734:	b50ff5fc 	.word	0xfcf50fb5
8010c738:	430fea00 	.word	0xea0f43
8010c73c:	b6040000 	.word	0x4b6
8010c740:	4208b000 	.word	0xb00842
8010c744:	c7b5ac00 	.word	0xacb5c7
8010c748:	00000000 	nop
8010c74c:	98f64c20 	addi	t4,v0,-2408
8010c750:	c52d0180 	lb	at,11717(zero)
8010c754:	08fd3203 	.word	0x332fd08
8010c758:	00000000 	nop
8010c75c:	09fbfc0d 	jal	0x87f3ec24
8010c760:	f8050000 	.word	0x5f8
8010c764:	480649f1 	.word	0xf1490648
8010c768:	350f9104 	bgezal	a0,0x80110440
8010c76c:	f3010000 	.word	0x1f3
8010c770:	c8829b00 	.word	0x9b82c8
8010c774:	c5f03900 	.word	0x39f0c5
8010c778:	00000000 	nop
8010c77c:	cff6bc1f 	.word	0x1fbcf6cf
8010c780:	d72d0180 	lb	at,11735(zero)
8010c784:	91fc2803 	.word	0x328fc91
8010c788:	00000000 	nop
8010c78c:	d1fac30e 	jal	0x8b0feb44
8010c790:	54030000 	.word	0x354
8010c794:	850365f0 	.word	0xf0650385
8010c798:	220f0f05 	.word	0x50f0f22
8010c79c:	24010000 	.word	0x124
8010c7a0:	165b4601 	.word	0x1465b16
8010c7a4:	a7094600 	.word	0x4609a7
8010c7a8:	00000000 	nop
8010c7ac:	11f77d1e 	.word	0x1e7df711
8010c7b0:	ee2d0180 	lb	at,11758(zero)
8010c7b4:	74fc2303 	.word	0x323fc74
8010c7b8:	00000000 	nop
8010c7bc:	b4fadc0e 	jal	0x8b73ead0
8010c7c0:	aa020000 	.word	0x2aa
8010c7c4:	d30241f0 	.word	0xf04102d3
8010c7c8:	180f3705 	.word	0x5370f18
8010c7cc:	ef000000 	.word	0xef
8010c7d0:	302fcc01 	.word	0x1cc2f30
8010c7d4:	145a5000 	.word	0x505a14
8010c7d8:	00000000 	nop
8010c7dc:	5df7b81c 	.word	0x1cb8f75d
8010c7e0:	092e0180 	lb	at,11785(zero)
8010c7e4:	6afc2103 	.word	0x321fc6a
8010c7e8:	00000000 	nop
8010c7ec:	a6fae10e 	jal	0x8b87ea98
8010c7f0:	6c020000 	.word	0x26c
8010c7f4:	920236f0 	.word	0xf0360292
8010c7f8:	130f4805 	.word	0x5480f13
8010c7fc:	dc000000 	.word	0xdc
8010c800:	1b992a02 	.word	0x22a991b
8010c804:	efe05800 	.word	0x58e0ef
8010c808:	00000000 	nop
8010c80c:	b1f7941a 	.word	0x1a94f7b1
8010c810:	272e0180 	lb	at,11815(zero)
8010c814:	67fc2003 	.word	0x320fc67
8010c818:	00000000 	nop
8010c81c:	a1fae20e 	jal	0x8b8bea84
8010c820:	5c020000 	.word	0x25c
8010c824:	810233f0 	.word	0xf0330281
8010c828:	120f4e05 	.word	0x54e0f12
8010c82c:	d7000000 	.word	0xd7
8010c830:	51396102 	.word	0x2613951
8010c834:	5b9d5f00 	.word	0x5f9d5b
8010c838:	00000000 	nop
8010c83c:	0bf83b18 	.word	0x183bf80b
8010c840:	472e0180 	lb	at,11847(zero)
8010c844:	69fc2103 	.word	0x321fc69
8010c848:	00000000 	nop
8010c84c:	a3fae00e 	jal	0x8b83ea8c
8010c850:	6a020000 	.word	0x26a
8010c854:	900235f0 	.word	0xf0350290
8010c858:	120f4b05 	.word	0x54b0f12
8010c85c:	dc000000 	.word	0xdc
8010c860:	f3067002 	.word	0x27006f3
8010c864:	f88f6400 	.word	0x648ff8
8010c868:	00000000 	nop
8010c86c:	6af8d315 	bne	t6,s3,0x8010aa18
8010c870:	682e0180 	lb	at,11880(zero)
8010c874:	71fc2203 	.word	0x322fc71
8010c878:	00000000 	nop
8010c87c:	abfadc0e 	jal	0x8b73eaac
8010c880:	97020000 	.word	0x297
8010c884:	bf023df0 	.word	0xf03d02bf
8010c888:	150f4105 	bgez	t2,0x801104e0
8010c88c:	ea000000 	.word	0xea
8010c890:	ab0c5702 	.word	0x2570cab
8010c894:	6fb86700 	.word	0x67b86f
8010c898:	00000000 	nop
8010c89c:	ccf88513 	beq	gp,a1,0x8010abd0
8010c8a0:	8b2e0180 	lb	at,11915(zero)
8010c8a4:	80fc2403 	.word	0x324fc80
8010c8a8:	00000000 	nop
8010c8ac:	b8fad00e 	jal	0x8b43eae0
8010c8b0:	ef020000 	.word	0x2ef
8010c8b4:	1b034ff0 	.word	0xf04f031b
8010c8b8:	1a0f2e05 	.word	0x52e0f1a
8010c8bc:	06010000 	.word	0x106
8010c8c0:	d2811602 	.word	0x21681d2
8010c8c4:	84176900 	.word	0x691784
8010c8c8:	00000000 	nop
8010c8cc:	2ff97911 	beq	t3,t9,0x8010ad8c
8010c8d0:	ad2e0180 	lb	at,11949(zero)
8010c8d4:	9efc2703 	.word	0x327fc9e
8010c8d8:	00000000 	nop
8010c8dc:	ccfab00e 	jal	0x8ac3eb30
8010c8e0:	9e030000 	.word	0x39e
8010c8e4:	d30377f0 	.word	0xf07703d3
8010c8e8:	210f0e05 	.word	0x50e0f21
8010c8ec:	3e010000 	.word	0x13e
8010c8f0:	9afeae01 	.word	0x1aefe9a
8010c8f4:	0aad6800 	.word	0x68ad0a
8010c8f8:	00000000 	nop
8010c8fc:	92f9d70f 	jal	0x8f5fe648
8010c900:	cf2e0180 	lb	at,11983(zero)
8010c904:	e7fc2c03 	.word	0x32cfce7
8010c908:	00000000 	nop
8010c90c:	e6fa3a0e 	jal	0x88ebeb98
8010c910:	3d050000 	.word	0x53d
8010c914:	8705fdf0 	.word	0xf0fd0587
8010c918:	2a0fca04 	.word	0x4ca0f2a
8010c91c:	c3010000 	sra	zero,zero,0x7
8010c920:	11b42201 	.word	0x122b411
8010c924:	e27a6600 	.word	0x667ae2
8010c928:	00000000 	nop
8010c92c:	f3f9c60e 	jal	0x8b1be7cc
8010c930:	ef2e0100 	.word	0x12eef
8010c934:	23fe3203 	.word	0x332fe23
8010c938:	00000000 	nop
8010c93c:	09fb2c0a 	j	0x88b3ec24
8010c940:	4e0b0000 	.word	0xb4e
8010c944:	e40b4df5 	.word	0xf54d0be4
8010c948:	350f5203 	.word	0x3520f35
8010c94c:	b1030000 	.word	0x3b1
8010c950:	c7b98200 	.word	0x82b9c7
8010c954:	6e816200 	.word	0x62816e
8010c958:	00000000 	nop
8010c95c:	51fa710e 	jal	0x89c7e944
8010c960:	0d2f0100 	break	0x1,0xbc
8010c964:	89003903 	.word	0x3390089
8010c968:	00000000 	nop
8010c96c:	37fbd0fc 	.word	0xfcd0fb37
8010c970:	ee0e0000 	.word	0xeee
8010c974:	a50f5703 	.word	0x3570fa5
8010c978:	440f01ff 	.word	0xff010f44
8010c97c:	ae040000 	.word	0x4ae
8010c980:	8742b400 	.word	0xb44287
8010c984:	1402b000 	.word	0xb00214
8010c988:	00000000 	nop
8010c98c:	f8fa970e 	jal	0x8a5febe0
8010c990:	452f0100 	.word	0x12f45
8010c994:	8f002903 	.word	0x329008f
8010c998:	00000000 	nop
8010c99c:	d7fab3fc 	.word	0xfcb3fad7
8010c9a0:	c70e0000 	.word	0xec7
8010c9a4:	9d0f7d03 	.word	0x37d0f9d
8010c9a8:	240fe0fe 	.word	0xfee00f24
8010c9ac:	0a050000 	.word	0x50a
8010c9b0:	fffd4401 	.word	0x144fdff
8010c9b4:	7f1c3d01 	.word	0x13d1c7f
8010c9b8:	00000000 	nop
8010c9bc:	24fcdf0e 	jal	0x8b7ff090
8010c9c0:	ac2f0100 	.word	0x12fac
8010c9c4:	8f002603 	.word	0x326008f
8010c9c8:	00000000 	nop
8010c9cc:	c4fab3fc 	.word	0xfcb3fac4
8010c9d0:	c00e0000 	sll	at,zero,0x1b
8010c9d4:	9c0f7f03 	.word	0x37f0f9c
8010c9d8:	1e0fdbfe 	.word	0xfedb0f1e
8010c9dc:	1c050000 	.word	0x51c
8010c9e0:	5e3ab801 	.word	0x1b83a5e
8010c9e4:	8290ad01 	.word	0x1ad9082
8010c9e8:	00000000 	nop
8010c9ec:	bafd3f0f 	jal	0x8cfff6e8
8010c9f0:	39300100 	.word	0x13039
8010c9f4:	8e002503 	.word	0x325008e
8010c9f8:	00000000 	nop
8010c9fc:	bdfab7fc 	.word	0xfcb7fabd
8010ca00:	bf0e0000 	.word	0xebf
8010ca04:	9d0f7a03 	.word	0x37a0f9d
8010ca08:	1b0fdbfe 	.word	0xfedb0f1b
8010ca0c:	23050000 	.word	0x523
8010ca10:	fef40d02 	.word	0x20df4fe
8010ca14:	295b0102 	.word	0x2015b29
8010ca18:	00000000 	nop
8010ca1c:	9effb10f 	jal	0x8ec7fe78
8010ca20:	e3300100 	.word	0x130e3
8010ca24:	8d002403 	break	0x324,0x2
8010ca28:	00000000 	nop
8010ca2c:	bafabffc 	.word	0xfcbffaba
8010ca30:	c00e0000 	sll	at,zero,0x1b
8010ca34:	9f0f7303 	.word	0x3730f9f
8010ca38:	1a0fddfe 	.word	0xfedd0f1a
8010ca3c:	26050000 	.word	0x526
8010ca40:	282e4602 	.word	0x2462e28
8010ca44:	417c3802 	.word	0x2387c41
8010ca48:	00000000 	nop
8010ca4c:	b6012f10 	beq	at,t7,0x8010d128
8010ca50:	9e310100 	.word	0x1319e
8010ca54:	8b002403 	.word	0x324008b
8010ca58:	00000000 	nop
8010ca5c:	bafac9fc 	.word	0xfcc9faba
8010ca60:	c20e0000 	srl	at,zero,0x1b
8010ca64:	a20f6703 	.word	0x3670fa2
8010ca68:	1a0fe1fe 	.word	0xfee10f1a
8010ca6c:	27050000 	.word	0x527
8010ca70:	aee76002 	.word	0x260e7ae
8010ca74:	a7f45202 	.word	0x252f4a7
8010ca78:	00000000 	nop
8010ca7c:	e803b010 	beq	a1,s0,0x8010da20
8010ca80:	62320100 	.word	0x13262
8010ca84:	89002503 	.word	0x3250089
8010ca88:	00000000 	nop
8010ca8c:	bcfad8fc 	.word	0xfcd8fabc
8010ca90:	c60e0000 	.word	0xec6
8010ca94:	a50f5703 	.word	0x3570fa5
8010ca98:	1b0fe7fe 	.word	0xfee70f1b
8010ca9c:	26050000 	.word	0x526
8010caa0:	f5205e02 	.word	0x25e20f5
8010caa4:	bdc25002 	.word	0x250c2bd
8010caa8:	00000000 	nop
8010caac:	18062f11 	beq	t1,t7,0x8010e310
8010cab0:	25330100 	.word	0x13325
8010cab4:	85002603 	.word	0x3260085
8010cab8:	00000000 	nop
8010cabc:	c0faeefc 	.word	0xfceefac0
8010cac0:	cc0e0000 	syscall	0x3b
8010cac4:	aa0f4003 	.word	0x3400faa
8010cac8:	1d0feffe 	.word	0xfeef0f1d
8010cacc:	24050000 	.word	0x524
8010cad0:	59df3d02 	.word	0x23ddf59
8010cad4:	7de83102 	.word	0x231e87d
8010cad8:	00000000 	nop
8010cadc:	2a08a411 	beq	t5,a0,0x8010eb88
8010cae0:	dd330100 	.word	0x133dd
8010cae4:	7f002703 	.word	0x327007f
8010cae8:	00000000 	nop
8010caec:	c7fa0ffd 	.word	0xfd0ffac7
8010caf0:	d50e0000 	.word	0xed5
8010caf4:	b10f1d03 	.word	0x31d0fb1
8010caf8:	1f0ffcfe 	.word	0xfefc0f1f
8010cafc:	1f050000 	.word	0x51f
8010cb00:	98260002 	.word	0x2002698
8010cb04:	5c64f601 	.word	0x1f6645c
8010cb08:	00000000 	nop
8010cb0c:	060a0712 	beq	s0,a3,0x8010f328
8010cb10:	80340100 	sll	a2,at,0x12
8010cb14:	61002903 	.word	0x3290061
8010cb18:	00000000 	nop
8010cb1c:	d4fabefd 	.word	0xfdbefad4
8010cb20:	f80e0000 	.word	0xef8
8010cb24:	d20f6302 	.word	0x2630fd2
8010cb28:	230f3bff 	.word	0xff3b0f23
8010cb2c:	1d050000 	.word	0x51d
8010cb30:	17a8fa01 	.word	0x1faa817
8010cb34:	1404f501 	.word	0x1f50414
8010cb38:	00000000 	nop
8010cb3c:	e00b5312 	beq	s2,s3,0x8010fac0
8010cb40:	22350100 	.word	0x13522
8010cb44:	38002d03 	.word	0x32d0038
8010cb48:	00000000 	nop
8010cb4c:	ecfab2fe 	.word	0xfeb2faec
8010cb50:	1d0f0000 	.word	0xf1d
8010cb54:	f00f6001 	.word	0x1600ff0
8010cb58:	2c0f91ff 	.word	0xff910f2c
8010cb5c:	0f050000 	.word	0x50f
8010cb60:	ba110602 	.word	0x20611ba
8010cb64:	322d0402 	.word	0x2042d32
8010cb68:	00000000 	nop
8010cb6c:	c80d7f12 	beq	s3,ra,0x80110290
8010cb70:	c8350100 	.word	0x135c8
8010cb74:	23003703 	subu	zero,t9,s7
8010cb78:	00000000 	nop
8010cb7c:	28fb2fff 	.word	0xff2ffb28
8010cb80:	390f0000 	.word	0xf39
8010cb84:	fa0fdc00 	.word	0xdc0ffa
8010cb88:	3f0fbeff 	.word	0xffbe0f3f
8010cb8c:	d6040000 	.word	0x4d6
8010cb90:	b78f0202 	.word	0x2028fb7
8010cb94:	77ce0102 	.word	0x201ce77
8010cb98:	00000000 	nop
8010cb9c:	ae0f9b12 	beq	s4,k1,0x80110a58
8010cba0:	6f360100 	.word	0x1366f
8010cba4:	28002c03 	.word	0x32c0028
8010cba8:	00000000 	nop
8010cbac:	e9fa0dff 	.word	0xff0dfae9
8010cbb0:	230f0000 	.word	0xf23
8010cbb4:	f70f0001 	.word	0x1000ff7
8010cbb8:	2a0fafff 	.word	0xffaf0f2a
8010cbbc:	15050000 	.word	0x515
8010cbc0:	7eb9e801 	.word	0x1e8b97e
8010cbc4:	94bfe701 	.word	0x1e7bf94
8010cbc8:	00000000 	nop
8010cbcc:	7b11ba12 	beq	s5,k0,0x801111bc
8010cbd0:	10370100 	.word	0x13710
8010cbd4:	29002203 	.word	0x3220029
8010cbd8:	00000000 	nop
8010cbdc:	a9fa0aff 	.word	0xff0afaa9
8010cbe0:	0d0f0000 	break	0x0,0x3c
8010cbe4:	f70f0501 	.word	0x1050ff7
8010cbe8:	140fa9ff 	.word	0xffa90f14
8010cbec:	54050000 	.word	0x554
8010cbf0:	204a0d02 	.word	0x20d4a20
8010cbf4:	7c330c02 	.word	0x20c337c
8010cbf8:	00000000 	nop
8010cbfc:	6813db12 	beq	s6,k1,0x801119a0
8010cc00:	c2370100 	srl	a2,at,0x1f
8010cc04:	2a001703 	slt	zero,t8,s7
8010cc08:	00000000 	nop
8010cc0c:	6bfa06ff 	.word	0xff06fa6b
8010cc10:	f60e0000 	.word	0xef6
8010cc14:	f70f0b01 	.word	0x10b0ff7
8010cc18:	fe0ea3ff 	.word	0xffa30efe
8010cc1c:	92050000 	.word	0x592
8010cc20:	4f602c02 	.word	0x22c604f
8010cc24:	462b2b02 	.word	0x22b2b46
8010cc28:	00000000 	nop
8010cc2c:	71150013 	beqz	t8,0x801121f4
8010cc30:	81380100 	.word	0x13881
8010cc34:	2c000d03 	.word	0x30d002c
8010cc38:	00000000 	nop
8010cc3c:	30fafbfe 	.word	0xfefbfa30
8010cc40:	df0e0000 	.word	0xedf
8010cc44:	f60f1801 	.word	0x1180ff6
8010cc48:	e80e9aff 	.word	0xff9a0ee8
8010cc4c:	cc050000 	syscall	0x17
8010cc50:	7f683a02 	.word	0x23a687f
8010cc54:	5e0c3902 	.word	0x2390c5e
8010cc58:	00000000 	nop
8010cc5c:	86172713 	beq	t9,a3,0x80112a78
8010cc60:	4a390100 	.word	0x1394a
8010cc64:	2e000403 	.word	0x304002e
8010cc68:	00000000 	nop
8010cc6c:	fbf9f2fe 	.word	0xfef2f9fb
8010cc70:	c90e0000 	.word	0xec9
8010cc74:	f50f2301 	.word	0x1230ff5
8010cc78:	d20e93ff 	.word	0xff930ed2
8010cc7c:	01060000 	.word	0x601
8010cc80:	28594b02 	.word	0x24b5928
8010cc84:	e4d74902 	.word	0x249d7e4
8010cc88:	00000000 	nop
8010cc8c:	a9195113 	beq	k0,s1,0x80113334
8010cc90:	1c3a0100 	.word	0x13a1c
8010cc94:	3200fc02 	.word	0x2fc0032
8010cc98:	00000000 	nop
8010cc9c:	cbf9defe 	.word	0xfedef9cb
8010cca0:	b30e0000 	.word	0xeb3
8010cca4:	f30f3a01 	.word	0x13a0ff3
8010cca8:	bf0e86ff 	.word	0xff860ebf
8010ccac:	30060000 	.word	0x630
8010ccb0:	ed4b4102 	.word	0x2414bed
8010ccb4:	db923f02 	.word	0x23f92db
8010ccb8:	00000000 	nop
8010ccbc:	c01b7e13 	beq	k1,s8,0x80113bc0
8010ccc0:	ee3a0100 	.word	0x13aee
8010ccc4:	2b00f402 	sltu	zero,s7,s4
8010ccc8:	00000000 	nop
8010cccc:	a1f905ff 	.word	0xff05f9a1
8010ccd0:	a40e0000 	.word	0xea4
8010ccd4:	f60f1201 	.word	0x1120ff6
8010ccd8:	ad0e93ff 	.word	0xff930ead
8010ccdc:	5b060000 	.word	0x65b
8010cce0:	92b8bb02 	.word	0x2bbb892
8010cce4:	6623ba02 	.word	0x2ba2366
8010cce8:	00000000 	nop
8010ccec:	4a1ead13 	beq	sp,t5,0x80114618
8010ccf0:	ef3b0100 	.word	0x13bef
8010ccf4:	2600ee02 	xor	zero,s7,t6
8010ccf8:	00000000 	nop
8010ccfc:	7ef923ff 	.word	0xff23f97e
8010cd00:	960e0000 	.word	0xe96
8010cd04:	f80ff100 	.word	0xf10ff8
8010cd08:	9d0e9eff 	.word	0xff9e0e9d
8010cd0c:	7f060000 	.word	0x67f
8010cd10:	ba0c4303 	.word	0x3430cba
8010cd14:	35964103 	.word	0x3419635
8010cd18:	00000000 	nop
8010cd1c:	5121de13 	beq	s8,s8,0x80115264
8010cd20:	213d0100 	.word	0x13d21
8010cd24:	3200e902 	.word	0x2e90032
8010cd28:	00000000 	nop
8010cd2c:	60f9dffe 	.word	0xfedff960
8010cd30:	840e0000 	.word	0xe84
8010cd34:	f30f3e01 	.word	0x13e0ff3
8010cd38:	8f0e7dff 	.word	0xff7d0e8f
8010cd3c:	9b060000 	.word	0x69b
8010cd40:	ec369802 	.word	0x29836ec
8010cd44:	30339602 	.word	0x2963330
8010cd48:	00000000 	nop
8010cd4c:	b4231214 	bne	zero,s2,0x80115c20
8010cd50:	1f3e0100 	.word	0x13e1f
8010cd54:	3200e502 	.word	0x2e50032
8010cd58:	00000000 	nop
8010cd5c:	46f9e1fe 	.word	0xfee1f946
8010cd60:	790e0000 	.word	0xe79
8010cd64:	f30f3c01 	.word	0x13c0ff3
8010cd68:	840e7bff 	.word	0xff7b0e84
8010cd6c:	b4060000 	.word	0x6b4
8010cd70:	86a7b702 	.word	0x2b7a786
8010cd74:	9490b502 	.word	0x2b59094
8010cd78:	00000000 	nop
8010cd7c:	34264814 	bne	v0,t0,0x80116650
8010cd80:	2c3f0100 	.word	0x13f2c
8010cd84:	0500e102 	.word	0x2e10005
8010cd88:	00000000 	nop
8010cd8c:	32f9dfff 	.word	0xffdff932
8010cd90:	7a0e0000 	.word	0xe7a
8010cd94:	ff0f2500 	.word	0x250fff
8010cd98:	7a0ef1ff 	.word	0xfff10e7a
8010cd9c:	ce060000 	.word	0x6ce
8010cda0:	b97af202 	.word	0x2f27ab9
8010cda4:	dc72f202 	.word	0x2f272dc
8010cda8:	00000000 	nop
8010cdac:	f8284f14 	bne	v0,t7,0x80117190
8010cdb0:	30400100 	.word	0x14030
8010cdb4:	0500dc02 	.word	0x2dc0005
8010cdb8:	00000000 	nop
8010cdbc:	15f9dfff 	.word	0xffdff915
8010cdc0:	6c0e0000 	.word	0xe6c
8010cdc4:	ff0f2500 	.word	0x250fff
8010cdc8:	6d0ef0ff 	.word	0xfff00e6d
8010cdcc:	eb060000 	.word	0x6eb
8010cdd0:	837af202 	.word	0x2f27a83
8010cdd4:	a772f202 	.word	0x2f272a7
8010cdd8:	00000000 	nop
8010cddc:	bc2b5614 	bne	v0,s6,0x80117cd0
8010cde0:	34410100 	.word	0x14134
8010cde4:	0500d702 	.word	0x2d70005
8010cde8:	00000000 	nop
8010cdec:	f8f8dfff 	.word	0xffdff8f8
8010cdf0:	5f0e0000 	.word	0xe5f
8010cdf4:	ff0f2500 	.word	0x250fff
8010cdf8:	5f0ef0ff 	.word	0xfff00e5f
8010cdfc:	08070000 	.word	0x708
8010ce00:	ae7af202 	.word	0x2f27aae
8010ce04:	d172f202 	.word	0x2f272d1
8010ce08:	00000000 	nop
8010ce0c:	802e5c14 	bne	v0,gp,0x80118810
8010ce10:	38420100 	.word	0x14238
8010ce14:	0500d202 	.word	0x2d20005
8010ce18:	00000000 	nop
8010ce1c:	dcf8dfff 	.word	0xffdff8dc
8010ce20:	500e0000 	.word	0xe50
8010ce24:	ff0f2500 	.word	0x250fff
8010ce28:	500ef0ff 	.word	0xfff00e50
8010ce2c:	24070000 	.word	0x724
8010ce30:	c47af202 	.word	0x2f27ac4
8010ce34:	e872f202 	.word	0x2f272e8
8010ce38:	00000000 	nop
8010ce3c:	45316314 	bne	v1,v1,0x80119354
8010ce40:	3b430100 	.word	0x1433b
8010ce44:	0500cd02 	.word	0x2cd0005
8010ce48:	00000000 	nop
8010ce4c:	bff8dfff 	.word	0xffdff8bf
8010ce50:	420e0000 	srl	at,zero,0x19
8010ce54:	ff0f2500 	.word	0x250fff
8010ce58:	420ef0ff 	.word	0xfff00e42
8010ce5c:	41070000 	.word	0x741
8010ce60:	b07af202 	.word	0x2f27ab0
8010ce64:	d472f202 	.word	0x2f272d4
8010ce68:	00000000 	nop
8010ce6c:	09346a14 	bne	v1,t2,0x80119e94
8010ce70:	3f440100 	.word	0x1443f
8010ce74:	0500c802 	.word	0x2c80005
8010ce78:	00000000 	nop
8010ce7c:	a2f8e0ff 	.word	0xffe0f8a2
8010ce80:	330e0000 	.word	0xe33
8010ce84:	ff0f2500 	.word	0x250fff
8010ce88:	330eefff 	.word	0xffef0e33
8010ce8c:	5d070000 	.word	0x75d
8010ce90:	707af202 	.word	0x2f27a70
8010ce94:	9472f202 	.word	0x2f27294
8010ce98:	00000000 	nop
8010ce9c:	cd367114 	bne	v1,s1,0x8011a9d4
8010cea0:	43450100 	sra	t0,at,0x15
8010cea4:	0500c202 	.word	0x2c20005
8010cea8:	00000000 	nop
8010ceac:	86f8e0ff 	.word	0xffe0f886
8010ceb0:	240e0000 	.word	0xe24
8010ceb4:	ff0f2500 	.word	0x250fff
8010ceb8:	250eefff 	.word	0xffef0e25
8010cebc:	7a070000 	.word	0x77a
8010cec0:	787af202 	.word	0x2f27a78
8010cec4:	9c72f202 	.word	0x2f2729c
8010cec8:	00000000 	nop
8010cecc:	92397814 	bne	v1,t8,0x8011b518
8010ced0:	47460100 	.word	0x14647
8010ced4:	0500bd02 	.word	0x2bd0005
8010ced8:	00000000 	nop
8010cedc:	6af8e0ff 	.word	0xffe0f86a
8010cee0:	150e0000 	.word	0xe15
8010cee4:	ff0f2500 	.word	0x250fff
8010cee8:	150eefff 	.word	0xffef0e15
8010ceec:	96070000 	.word	0x796
8010cef0:	b07af202 	.word	0x2f27ab0
8010cef4:	d472f202 	.word	0x2f272d4
8010cef8:	00000000 	nop
8010cefc:	563c7e14 	bne	v1,s8,0x8011c058
8010cf00:	4b470100 	.word	0x1474b
8010cf04:	2f00b802 	.word	0x2b8002f
8010cf08:	00000000 	nop
8010cf0c:	4ef8fafe 	.word	0xfefaf84e
8010cf10:	fd0d0000 	.word	0xdfd
8010cf14:	f50f2b01 	.word	0x12b0ff5
8010cf18:	060e70ff 	.word	0xff700e06
8010cf1c:	ad070000 	.word	0x7ad
8010cf20:	e2a4cc02 	.word	0x2cca4e2
8010cf24:	9ca5ca02 	.word	0x2caa59c
8010cf28:	00000000 	nop
8010cf2c:	d43eb414 	bne	a1,s4,0x8011ca80
8010cf30:	8e480100 	.word	0x1488e
8010cf34:	41009102 	.word	0x2910041
8010cf38:	00000000 	nop
8010cf3c:	7af7a3fe 	.word	0xfea3f77a
8010cf40:	780d0000 	.word	0xd78
8010cf44:	eb0f9c01 	.word	0x19c0feb
8010cf48:	890d25ff 	.word	0xff250d89
8010cf4c:	7b080000 	.word	0x87b
8010cf50:	ec21fa01 	.word	0x1fa21ec
8010cf54:	1568f701 	.word	0x1f76815
8010cf58:	00000000 	nop
8010cf5c:	7540e814 	bne	a3,t0,0x8011d134
8010cf60:	a6490100 	.word	0x149a6
8010cf64:	3d006a02 	.word	0x26a003d
8010cf68:	00000000 	nop
8010cf6c:	aff6c5fe 	.word	0xfec5f6af
8010cf70:	f20c0000 	.word	0xcf2
8010cf74:	ed0f8401 	.word	0x1840fed
8010cf78:	010d1eff 	.word	0xff1e0d01
8010cf7c:	46090000 	.word	0x946
8010cf80:	4cce0f02 	syscall	0x83f39
8010cf84:	e14a0d02 	.word	0x20d4ae1
8010cf88:	00000000 	nop
8010cf8c:	17421c15 	bne	t0,gp,0x8011d7ec
8010cf90:	e54a0100 	.word	0x14ae5
8010cf94:	3a004302 	.word	0x243003a
8010cf98:	00000000 	nop
8010cf9c:	e9f5e3fe 	.word	0xfee3f5e9
8010cfa0:	5d0c0000 	.word	0xc5d
8010cfa4:	ef0f6f01 	.word	0x16f0fef
8010cfa8:	6a0c19ff 	.word	0xff190c6a
8010cfac:	0c0a0000 	syscall	0x28
8010cfb0:	6ede2102 	.word	0x221de6e
8010cfb4:	23891f02 	.word	0x21f8923
8010cfb8:	00000000 	nop
8010cfbc:	b2434e15 	bne	t2,t6,0x8011de88
8010cfc0:	494c0100 	.word	0x14c49
8010cfc4:	37001902 	.word	0x2190037
8010cfc8:	00000000 	nop
8010cfcc:	25f5fffe 	.word	0xfefff525
8010cfd0:	b50b0000 	.word	0xbb5
8010cfd4:	f00f5e01 	.word	0x15e0ff0
8010cfd8:	c00b13ff 	.word	0xff130bc0
8010cfdc:	d10a0000 	.word	0xad1
8010cfe0:	fdc73002 	.word	0x230c7fd
8010cfe4:	739a2e02 	.word	0x22e9a73
8010cfe8:	00000000 	nop
8010cfec:	3f458015 	bnez	t4,0x8011e4ec
8010cff0:	d24d0100 	.word	0x14dd2
8010cff4:	3500ee01 	.word	0x1ee0035
8010cff8:	00000000 	nop
8010cffc:	63f41aff 	.word	0xff1af463
8010d000:	f70a0000 	.word	0xaf7
8010d004:	f20f4e01 	.word	0x14e0ff2
8010d008:	000b0dff 	.word	0xff0d0b00
8010d00c:	930b0000 	.word	0xb93
8010d010:	071c3d02 	.word	0x23d1c07
8010d014:	b2113b02 	.word	0x23b11b2
8010d018:	00000000 	nop
8010d01c:	b946b015 	bne	t5,s0,0x8011eb04
8010d020:	7e4f0100 	.word	0x14f7e
8010d024:	3300bf01 	.word	0x1bf0033
8010d028:	00000000 	nop
8010d02c:	a1f335ff 	.word	0xff35f3a1
8010d030:	1d0a0000 	.word	0xa1d
8010d034:	f30f4101 	.word	0x1410ff3
8010d038:	250a08ff 	.word	0xff080a25
8010d03c:	550c0000 	.word	0xc55
8010d040:	9b8c4702 	.word	0x2478c9b
8010d044:	23a24502 	.word	0x245a223
8010d048:	00000000 	nop
8010d04c:	1848df15 	bne	t6,ra,0x8011f0b0
8010d050:	4d510100 	break	0x1,0x145
8010d054:	31008d01 	.word	0x18d0031
8010d058:	00000000 	nop
8010d05c:	e4f250ff 	.word	0xff50f2e4
8010d060:	24090000 	.word	0x924
8010d064:	f40f3401 	.word	0x1340ff4
8010d068:	2b0904ff 	.word	0xff04092b
8010d06c:	130d0000 	.word	0xd13
8010d070:	36f35002 	.word	0x250f336
8010d074:	97264f02 	.word	0x24f2697
8010d078:	00000000 	nop
8010d07c:	57490d16 	bne	s0,t5,0x8011f5dc
8010d080:	3f530100 	.word	0x1533f
8010d084:	2f005801 	.word	0x158002f
8010d088:	00000000 	nop
8010d08c:	2ef26cff 	.word	0xff6cf22e
8010d090:	09080000 	jalr	at,zero
8010d094:	f50f2701 	.word	0x1270ff5
8010d098:	0e0801ff 	.word	0xff01080e
8010d09c:	c90d0000 	.word	0xdc9
8010d0a0:	0f4f5a02 	.word	0x25a4f0f
8010d0a4:	d89e5802 	.word	0x2589ed8
8010d0a8:	00000000 	nop
8010d0ac:	6e4a3a16 	bne	s1,k0,0x8011fa68
8010d0b0:	53550100 	.word	0x15553
8010d0b4:	2d001e01 	.word	0x11e002d
8010d0b8:	00000000 	nop
8010d0bc:	85f188ff 	.word	0xff88f185
8010d0c0:	c9060000 	.word	0x6c9
8010d0c4:	f60f1b01 	.word	0x11b0ff6
8010d0c8:	cd0600ff 	.word	0xff0006cd
8010d0cc:	720e0000 	.word	0xe72
8010d0d0:	35c56402 	.word	0x264c535
8010d0d4:	21316302 	.word	0x2633121
8010d0d8:	00000000 	nop
8010d0dc:	584b6616 	bne	s3,a2,0x8011fe40
8010d0e0:	88570100 	.word	0x15788
8010d0e4:	2500e000 	move	zero,a3
8010d0e8:	00000000 	nop
8010d0ec:	f1f0b0ff 	.word	0xffb0f0f1
8010d0f0:	65050000 	.word	0x565
8010d0f4:	f90fed00 	.word	0xed0ff9
8010d0f8:	670521ff 	.word	0xff210567
8010d0fc:	080f0000 	.word	0xf08
8010d100:	611f8d02 	.word	0x28d1f61
8010d104:	c5dd8b02 	.word	0x28bddc5
8010d108:	00000000 	nop
8010d10c:	f44b8f16 	bne	s4,t7,0x801200e0
8010d110:	005a0100 	sll	t3,at,0x8
8010d114:	1e006300 	.word	0x63001e
8010d118:	00000000 	nop
8010d11c:	30f0e4ff 	.word	0xffe4f030
8010d120:	6c020000 	.word	0x26c
8010d124:	fb0fbe00 	.word	0xbe0ffb
8010d128:	6d0244ff 	.word	0xff44026d
8010d12c:	cc0f0000 	syscall	0x3f
8010d130:	d9e8d102 	.word	0x2d1e8d9
8010d134:	160dd102 	.word	0x2d10d16
8010d138:	00000000 	nop
8010d13c:	294cb216 	bne	s5,s2,0x801201e4
8010d140:	d05c0100 	.word	0x15cd0
8010d144:	18000100 	mult	zero,at
8010d148:	00000000 	nop
8010d14c:	01f00000 	.word	0xf001
8010d150:	09000000 	jalr	zero,zero
8010d154:	fd0f9a00 	.word	0x9a0ffd
8010d158:	090066ff 	.word	0xff660009
8010d15c:	fd0f0000 	.word	0xffd
8010d160:	46bd0d03 	.word	0x30dbd46
8010d164:	5b230d03 	.word	0x30d235b
8010d168:	00000000 	nop
8010d16c:	f94bd116 	bne	s6,s1,0x80120154
8010d170:	db5f0100 	.word	0x15fdb
8010d174:	1400b00f 	jal	0x8ec00050
8010d178:	00000000 	nop
8010d17c:	20f00f00 	add	s8,zero,t7
8010d180:	09fe0000 	.word	0xfe09
8010d184:	fd0f8000 	.word	0x800ffd
8010d188:	09fe81ff 	.word	0xff81fe09
8010d18c:	de0f0000 	.word	0xfde
8010d190:	ee5d3c03 	.word	0x33c5dee
8010d194:	5fee3b03 	.word	0x33bee5f
8010d198:	00000000 	nop
8010d19c:	634beb16 	bne	s7,t3,0x8011ff2c
8010d1a0:	0a630100 	.word	0x1630a
8010d1a4:	1100660f 	jal	0x8d980044
8010d1a8:	00000000 	nop
8010d1ac:	73f01900 	.word	0x19f073
8010d1b0:	3efc0000 	.word	0xfc3e
8010d1b4:	fe0f6e00 	.word	0x6e0ffe
8010d1b8:	3efc95ff 	.word	0xff95fc3e
8010d1bc:	8b0f0000 	.word	0xf8b
8010d1c0:	764c5c03 	.word	0x35c4c76
8010d1c4:	dcf75b03 	.word	0x35bf7dc
8010d1c8:	00000000 	nop
8010d1cc:	6b4a0317 	bne	t8,v1,0x8011fb7c
8010d1d0:	41660100 	.word	0x16641
8010d1d4:	0f001e0f 	jal	0x8c78003c
8010d1d8:	00000000 	nop
8010d1dc:	f6f02100 	.word	0x21f0f6
8010d1e0:	8cfa0000 	syscall	0x3ea
8010d1e4:	fe0f6100 	.word	0x610ffe
8010d1e8:	8cfaa5ff 	.word	0xffa5fa8c
8010d1ec:	090f0000 	.word	0xf09
8010d1f0:	a2d56d03 	.word	0x36dd5a2
8010d1f4:	c0916d03 	.word	0x36d91c0
8010d1f8:	00000000 	nop
8010d1fc:	11491917 	bne	t8,t9,0x8011f644
8010d200:	68690100 	.word	0x16968
8010d204:	0e00d30e 	jal	0x8b4c0038
8010d208:	00000000 	nop
8010d20c:	aff12800 	.word	0x28f1af
8010d210:	dcf80000 	.word	0xf8dc
8010d214:	ff0f5a00 	.word	0x5a0fff
8010d218:	dcf8b0ff 	.word	0xffb0f8dc
8010d21c:	500e0000 	.word	0xe50
8010d220:	61d07203 	.word	0x372d061
8010d224:	0a967203 	.word	0x372960a
8010d228:	00000000 	nop
8010d22c:	58472d17 	bne	t9,t5,0x8011ef90
8010d230:	646c0100 	.word	0x16c64
8010d234:	0d00810e 	jal	0x8a040034
8010d238:	00000000 	nop
8010d23c:	b0f23000 	.word	0x30f2b0
8010d240:	22f70000 	.word	0xf722
8010d244:	ff0f5600 	.word	0x560fff
8010d248:	21f7b8ff 	.word	0xffb8f721
8010d24c:	4f0d0000 	.word	0xd4f
8010d250:	0db66e03 	break	0x36e,0x2d8
8010d254:	c87f6e03 	.word	0x36e7fc8
8010d258:	00000000 	nop
8010d25c:	3f454017 	bnez	k0,0x8011e75c
8010d260:	1b6f0100 	.word	0x16f1b
8010d264:	0d00250e 	jal	0x88940034
8010d268:	00000000 	nop
8010d26c:	11f43900 	.word	0x39f411
8010d270:	59f50000 	.word	0xf559
8010d274:	ff0f5600 	.word	0x560fff
8010d278:	59f5c0ff 	.word	0xffc0f559
8010d27c:	ee0b0000 	.word	0xbee
8010d280:	c2fb6603 	.word	0x366fbc2
8010d284:	f8c46603 	.word	0x366c4f8
8010d288:	00000000 	nop
8010d28c:	ca425417 	bne	k0,s4,0x8011ddb8
8010d290:	75710100 	.word	0x17175
8010d294:	0e00bc0d 	jal	0x86f00038
8010d298:	00000000 	nop
8010d29c:	f1f54600 	.word	0x46f5f1
8010d2a0:	90f30000 	.word	0xf390
8010d2a4:	ff0f5a00 	.word	0x5a0fff
8010d2a8:	90f3c8ff 	.word	0xffc8f390
8010d2ac:	0f0a0000 	.word	0xa0f
8010d2b0:	fc786303 	.word	0x36378fc
8010d2b4:	973d6303 	.word	0x3633d97
8010d2b8:	00000000 	nop
8010d2bc:	f93f6817 	bne	k1,t0,0x8011d2a4
8010d2c0:	57730100 	.word	0x17357
8010d2c4:	0f00430d 	jal	0x850c003c
8010d2c8:	00000000 	nop
8010d2cc:	67f85400 	.word	0x54f867
8010d2d0:	edf10000 	.word	0xf1ed
8010d2d4:	fe0f5f00 	.word	0x5f0ffe
8010d2d8:	ecf1d3ff 	.word	0xffd3f1ec
8010d2dc:	98070000 	.word	0x798
8010d2e0:	e4616e03 	.word	0x36e61e4
8010d2e4:	0f1e6e03 	.word	0x36e1e0f
8010d2e8:	00000000 	nop
8010d2ec:	ce3c7d17 	bne	k1,sp,0x8011c628
8010d2f0:	a8740100 	.word	0x174a8
8010d2f4:	0a00bd0c 	jal	0x82f40028
8010d2f8:	00000000 	nop
8010d2fc:	6efb3e00 	.word	0x3efb6e
8010d300:	acf00000 	.word	0xf0ac
8010d304:	ff0f4100 	.word	0x410fff
8010d308:	abf0eeff 	.word	0xffeef0ab
8010d30c:	92040000 	.word	0x492
8010d310:	2fd59803 	.word	0x398d52f
8010d314:	0bb49803 	.word	0x398b40b
8010d318:	00000000 	nop
8010d31c:	46398d17 	bne	gp,t5,0x8011b838
8010d320:	58750100 	.word	0x17558
8010d324:	0100460c 	jal	0x81180004
8010d328:	00000000 	nop
8010d32c:	50fe0700 	.word	0x7fe50
8010d330:	17f00000 	.word	0xf017
8010d334:	ff0f0700 	.word	0x70fff
8010d338:	17f00000 	.word	0xf017
8010d33c:	b0010000 	.word	0x1b0
8010d340:	5a4bdb03 	.word	0x3db4b5a
8010d344:	e84adb03 	.word	0x3db4ae8
8010d348:	00000000 	nop
8010d34c:	6c358e17 	bne	gp,t6,0x8011a900
8010d350:	79750100 	.word	0x17579
8010d354:	faffed0b 	j	0x8fb7ffe8
8010d358:	00000000 	nop
8010d35c:	7b00d8ff 	.word	0xffd8007b
8010d360:	03f00000 	sra	s8,zero,0x0
8010d364:	ff0fd8ff 	.word	0xffd80fff
8010d368:	02f0ffff 	.word	0xfffff002
8010d36c:	85ff0000 	.word	0xff85
8010d370:	e6d91d04 	.word	0x41dd9e6
8010d374:	0ecc1d04 	.word	0x41dcc0e
8010d378:	00000000 	nop
8010d37c:	51318417 	bne	gp,a0,0x801198c4
8010d380:	22750100 	.word	0x17522
8010d384:	f4ffac0b 	j	0x8eb3ffd0
8010d388:	00000000 	nop
8010d38c:	1002b1ff 	.word	0xffb10210
8010d390:	24f00000 	and	s8,zero,zero
8010d394:	ff0fb0ff 	.word	0xffb00fff
8010d398:	23f0f6ff 	.word	0xfff6f023
8010d39c:	f0fd0000 	.word	0xfdf0
8010d3a0:	fcc15504 	.word	0x455c1fc
8010d3a4:	61895504 	.word	0x4558961
8010d3a8:	00000000 	nop
8010d3ac:	0b2d6e17 	bne	k1,t6,0x801187dc
8010d3b0:	69740100 	.word	0x17469
8010d3b4:	eeff7d0b 	j	0x8df7ffb8
8010d3b8:	00000000 	nop
8010d3bc:	320390ff 	.word	0xff900332
8010d3c0:	55f00000 	.word	0xf055
8010d3c4:	fe0f8eff 	.word	0xff8e0ffe
8010d3c8:	53f0eaff 	.word	0xffeaf053
8010d3cc:	cffc0000 	.word	0xfccf
8010d3d0:	06857c04 	.word	0x47c8506
8010d3d4:	d50e7c04 	.word	0x47c0ed5
8010d3d8:	00000000 	nop
8010d3dc:	ad284d17 	bne	k0,t5,0x80117694
8010d3e0:	65730100 	.word	0x17365
8010d3e4:	feff5c0b 	j	0x8d73fff8
8010d3e8:	00000000 	nop
8010d3ec:	fe03f1ff 	.word	0xfff103fe
8010d3f0:	82f00000 	srl	s8,zero,0x2
8010d3f4:	ff0ff0ff 	.word	0xfff00fff
8010d3f8:	82f0fcff 	.word	0xfffcf082
8010d3fc:	02fc0000 	srl	ra,zero,0x10
8010d400:	14d23805 	.word	0x538d214
8010d404:	73cf3805 	.word	0x538cf73
8010d408:	00000000 	nop
8010d40c:	be234817 	bne	k0,t0,0x80116308
8010d410:	ae710100 	.word	0x171ae
8010d414:	feff590b 	j	0x8d67fff8
8010d418:	00000000 	nop
8010d41c:	1004f1ff 	.word	0xfff10410
8010d420:	87f00000 	.word	0xf087
8010d424:	ff0ff0ff 	.word	0xfff00fff
8010d428:	87f0fcff 	.word	0xfffcf087
8010d42c:	f0fb0000 	.word	0xfbf0
8010d430:	d4d13805 	.word	0x538d1d4
8010d434:	33cf3805 	.word	0x538cf33
8010d438:	00000000 	nop
8010d43c:	d01e4317 	bne	k0,v1,0x80114f80
8010d440:	f86f0100 	.word	0x16ff8
8010d444:	feff560b 	j	0x8d5bfff8
8010d448:	00000000 	nop
8010d44c:	2104f1ff 	.word	0xfff10421
8010d450:	8bf00000 	.word	0xf08b
8010d454:	ff0ff0ff 	.word	0xfff00fff
8010d458:	8bf0fcff 	.word	0xfffcf08b
8010d45c:	dffb0000 	.word	0xfbdf
8010d460:	e9d13805 	.word	0x538d1e9
8010d464:	48cf3805 	.word	0x538cf48
8010d468:	00000000 	nop
8010d46c:	e1193d17 	bne	t9,sp,0x80113bf4
8010d470:	416e0100 	.word	0x16e41
8010d474:	feff530b 	j	0x8d4ffff8
8010d478:	00000000 	nop
8010d47c:	3204f1ff 	.word	0xfff10432
8010d480:	90f00000 	.word	0xf090
8010d484:	ff0ff0ff 	.word	0xfff00fff
8010d488:	90f0fcff 	.word	0xfffcf090
8010d48c:	cefb0000 	.word	0xfbce
8010d490:	13d23805 	.word	0x538d213
8010d494:	73cf3805 	.word	0x538cf73
8010d498:	00000000 	nop
8010d49c:	f2143817 	bne	t9,t8,0x80112868
8010d4a0:	8a6c0100 	.word	0x16c8a
8010d4a4:	feff510b 	j	0x8d47fff8
8010d4a8:	00000000 	nop
8010d4ac:	4404f1ff 	.word	0xfff10444
8010d4b0:	95f00000 	.word	0xf095
8010d4b4:	ff0ff0ff 	.word	0xfff00fff
8010d4b8:	95f0fcff 	.word	0xfffcf095
8010d4bc:	bcfb0000 	.word	0xfbbc
8010d4c0:	09d23805 	.word	0x538d209
8010d4c4:	68cf3805 	.word	0x538cf68
8010d4c8:	00000000 	nop
8010d4cc:	03103317 	bne	t9,s3,0x801114dc
8010d4d0:	d46a0100 	.word	0x16ad4
8010d4d4:	feff4e0b 	j	0x8d3bfff8
8010d4d8:	00000000 	nop
8010d4dc:	5504f1ff 	.word	0xfff10455
8010d4e0:	9af00000 	.word	0xf09a
8010d4e4:	ff0ff0ff 	.word	0xfff00fff
8010d4e8:	9af0fcff 	.word	0xfffcf09a
8010d4ec:	abfb0000 	.word	0xfbab
8010d4f0:	fed13805 	.word	0x538d1fe
8010d4f4:	5dcf3805 	.word	0x538cf5d
8010d4f8:	00000000 	nop
8010d4fc:	140b2e17 	bne	t9,t6,0x80110150
8010d500:	1d690100 	.word	0x1691d
8010d504:	feff4b0b 	j	0x8d2ffff8
8010d508:	00000000 	nop
8010d50c:	6604f1ff 	.word	0xfff10466
8010d510:	9ff00000 	.word	0xf09f
8010d514:	ff0ff0ff 	.word	0xfff00fff
8010d518:	9ff0fcff 	.word	0xfffcf09f
8010d51c:	9afb0000 	.word	0xfb9a
8010d520:	ffd13805 	.word	0x538d1ff
8010d524:	5ecf3805 	.word	0x538cf5e
8010d528:	00000000 	nop
8010d52c:	26062817 	bne	t9,t0,0x8010edc8
8010d530:	67670100 	.word	0x16767
8010d534:	feff480b 	j	0x8d23fff8
8010d538:	00000000 	nop
8010d53c:	7804f1ff 	.word	0xfff10478
8010d540:	a4f00000 	.word	0xf0a4
8010d544:	ff0ff0ff 	.word	0xfff00fff
8010d548:	a4f0fcff 	.word	0xfffcf0a4
8010d54c:	88fb0000 	.word	0xfb88
8010d550:	ded13805 	.word	0x538d1de
8010d554:	3dcf3805 	.word	0x538cf3d
8010d558:	00000000 	nop
8010d55c:	37012317 	bne	t9,v1,0x8010da3c
8010d560:	b0650100 	.word	0x165b0
8010d564:	e4ff450b 	j	0x8d17ff90
8010d568:	00000000 	nop
8010d56c:	890457ff 	.word	0xff570489
8010d570:	acf00000 	.word	0xf0ac
8010d574:	fc0f50ff 	.word	0xff500ffc
8010d578:	a9f0ceff 	.word	0xffcef0a9
8010d57c:	78fb0000 	.word	0xfb78
8010d580:	788c8804 	.word	0x4888c78
8010d584:	3b768704 	.word	0x487763b
8010d588:	00000000 	nop
8010d58c:	e4fcf116 	bne	s7,s1,0x8010c920
8010d590:	5a640100 	.word	0x1645a
8010d594:	dfff370b 	j	0x8cdfff7c
8010d598:	00000000 	nop
8010d59c:	dc043aff 	.word	0xff3a04dc
8010d5a0:	c7f00000 	.word	0xf0c7
8010d5a4:	fa0f31ff 	.word	0xff310ffa
8010d5a8:	c2f0c1ff 	.word	0xffc1f0c2
8010d5ac:	25fb0000 	.word	0xfb25
8010d5b0:	cb0f6a04 	.word	0x46a0fcb
8010d5b4:	b2996804 	.word	0x46899b2
8010d5b8:	00000000 	nop
8010d5bc:	b2f8b816 	bne	s5,t8,0x8010b888
8010d5c0:	fe620100 	.word	0x162fe
8010d5c4:	daff320b 	j	0x8ccbff68
8010d5c8:	00000000 	nop
8010d5cc:	fd041aff 	.word	0xff1a04fd
8010d5d0:	d4f00000 	.word	0xf0d4
8010d5d4:	f80f0eff 	.word	0xff0e0ff8
8010d5d8:	cdf0b5ff 	.word	0xffb5f0cd
8010d5dc:	05fb0000 	.word	0xfb05
8010d5e0:	981d3204 	.word	0x4321d98
8010d5e4:	953a3004 	bltzal	at,0x8011c03c
8010d5e8:	00000000 	nop
8010d5ec:	b7f47816 	bne	s3,t8,0x8010a8cc
8010d5f0:	b1610100 	.word	0x161b1
8010d5f4:	d3ff350b 	j	0x8cd7ff4c
8010d5f8:	00000000 	nop
8010d5fc:	e704f1fe 	.word	0xfef104e7
8010d600:	cff00000 	.word	0xf0cf
8010d604:	f60fe3fe 	.word	0xfee30ff6
8010d608:	c6f0a9ff 	.word	0xffa9f0c6
8010d60c:	1cfb0000 	.word	0xfb1c
8010d610:	36a9e003 	.word	0x3e0a936
8010d614:	e646de03 	.word	0x3de46e6
8010d618:	00000000 	nop
8010d61c:	06f13316 	bne	s1,s3,0x80109a38
8010d620:	8b600100 	.word	0x1608b
8010d624:	caff450b 	j	0x8d17ff28
8010d628:	00000000 	nop
8010d62c:	8c04b9fe 	.word	0xfeb9048c
8010d630:	b7f00000 	.word	0xf0b7
8010d634:	f10fabfe 	.word	0xfeab0ff1
8010d638:	aaf09fff 	.word	0xff9ff0aa
8010d63c:	78fb0000 	.word	0xfb78
8010d640:	05817603 	.word	0x3768105
8010d644:	1d827303 	.word	0x373821d
8010d648:	00000000 	nop
8010d64c:	b1edea15 	bne	t7,t2,0x80108d14
8010d650:	a15f0100 	.word	0x15fa1
8010d654:	c4ff640b 	j	0x8d93ff10
8010d658:	00000000 	nop
8010d65c:	cb038ffe 	.word	0xfe8f03cb
8010d660:	86f00000 	.word	0xf086
8010d664:	ee0f84fe 	.word	0xfe840fee
8010d668:	75f0a6ff 	.word	0xffa6f075
8010d66c:	3afc0000 	.word	0xfc3a
8010d670:	9cd83f03 	.word	0x33fd89c
8010d674:	945c3c03 	.word	0x33c5c94
8010d678:	00000000 	nop
8010d67c:	88ea9e15 	bne	t4,s8,0x801080a0
8010d680:	f25e0100 	.word	0x15ef2
8010d684:	c2ff850b 	j	0x8e17ff08
8010d688:	00000000 	nop
8010d68c:	02037ffe 	.word	0xfe7f0302
8010d690:	5cf00000 	.word	0xf05c
8010d694:	ed0f78fe 	.word	0xfe780fed
8010d698:	4af0b7ff 	.word	0xffb7f04a
8010d69c:	01fd0000 	.word	0xfd01
8010d6a0:	9a204903 	.word	0x349209a
8010d6a4:	e25e4503 	.word	0x3455ee2
8010d6a8:	00000000 	nop
8010d6ac:	4ee74f15 	bne	t2,t7,0x801073e8
8010d6b0:	675e0100 	.word	0x15e67
8010d6b4:	c0ffa20b 	j	0x8e8bff00
8010d6b8:	00000000 	nop
8010d6bc:	4f026dfe 	.word	0xfe6d024f
8010d6c0:	3ff00000 	.word	0xf03f
8010d6c4:	eb0f69fe 	.word	0xfe690feb
8010d6c8:	2bf0c6ff 	.word	0xffc6f02b
8010d6cc:	b4fd0000 	.word	0xfdb4
8010d6d0:	0e814d03 	.word	0x34d810e
8010d6d4:	56694903 	.word	0x3496956
8010d6d8:	00000000 	nop
8010d6dc:	0be4fc14 	bne	a3,gp,0x8010670c
8010d6e0:	fe5d0100 	.word	0x15dfe
8010d6e4:	bcffbc0b 	j	0x8ef3fef0
8010d6e8:	00000000 	nop
8010d6ec:	ad0158fe 	.word	0xfe5801ad
8010d6f0:	2df00000 	.word	0xf02d
8010d6f4:	e90f55fe 	.word	0xfe550fe9
8010d6f8:	17f0d4ff 	.word	0xffd4f017
8010d6fc:	55fe0000 	.word	0xfe55
8010d700:	85824c03 	.word	0x34c8285
8010d704:	fc004803 	.word	0x34800fc
8010d708:	00000000 	nop
8010d70c:	c6e0a514 	bne	a1,a1,0x80105a28
8010d710:	b55d0100 	.word	0x15db5
8010d714:	b8ffd30b 	j	0x8f4ffee0
8010d718:	00000000 	nop
8010d71c:	1b013efe 	.word	0xfe3e011b
8010d720:	23f00000 	negu	s8,zero
8010d724:	e70f3dfe 	.word	0xfe3d0fe7
8010d728:	0af0e1ff 	.word	0xffe1f00a
8010d72c:	e7fe0000 	.word	0xfee7
8010d730:	7ac94503 	.word	0x345c97a
8010d734:	b9c64003 	.word	0x340c6b9
8010d738:	00000000 	nop
8010d73c:	87dd4914 	bne	v0,t1,0x80104d5c
8010d740:	8a5d0100 	.word	0x15d8a
8010d744:	b4ffe90b 	j	0x8fa7fed0
8010d748:	00000000 	nop
8010d74c:	95001ffe 	.word	0xfe1f0095
8010d750:	20f00000 	add	s8,zero,zero
8010d754:	e30f1efe 	.word	0xfe1e0fe3
8010d758:	03f0efff 	.word	0xffeff003
8010d75c:	6cff0000 	.word	0xff6c
8010d760:	fe0f3903 	.word	0x3390ffe
8010d764:	516f3303 	.word	0x3336f51
8010d768:	00000000 	nop
8010d76c:	53dae913 	beq	ra,t1,0x801040bc
8010d770:	785d0100 	.word	0x15d78
8010d774:	aefffd0b 	j	0x8ff7feb8
8010d778:	00000000 	nop
8010d77c:	1800f9fd 	.word	0xfdf90018
8010d780:	22f00000 	neg	s8,zero
8010d784:	de0ff9fd 	.word	0xfdf90fde
8010d788:	01f0fdff 	.word	0xfffdf001
8010d78c:	e8ff0000 	.word	0xffe8
8010d790:	55222603 	.word	0x3262255
8010d794:	07c01f03 	srav	t8,ra,t8
8010d798:	00000000 	nop
8010d79c:	34d78413 	beq	gp,a0,0x80103470
8010d7a0:	7f5d0100 	.word	0x15d7f
8010d7a4:	a6ff0f0c 	jal	0x803ffe98
8010d7a8:	00000000 	nop
8010d7ac:	a4ffccfd 	.word	0xfdccffa4
8010d7b0:	29f00000 	.word	0xf029
8010d7b4:	d80fccfd 	.word	0xfdcc0fd8
8010d7b8:	02f00c00 	srl	s8,t4,0x0
8010d7bc:	5b000000 	.word	0x5b
8010d7c0:	5cdb0c03 	.word	0x30cdb5c
8010d7c4:	328a0503 	.word	0x3058a32
8010d7c8:	00000000 	nop
8010d7cc:	2fd41913 	beq	t8,t9,0x8010288c
8010d7d0:	9b5d0100 	.word	0x15d9b
8010d7d4:	9dff210c 	jal	0x8087fe74
8010d7d8:	00000000 	nop
8010d7dc:	34ff95fd 	.word	0xfd95ff34
8010d7e0:	35f00000 	.word	0xf035
8010d7e4:	d00f94fd 	.word	0xfd940fd0
8010d7e8:	06f01e00 	srlv	s8,s8,zero
8010d7ec:	c9000000 	.word	0xc9
8010d7f0:	8223ed02 	.word	0x2ed2382
8010d7f4:	79a9e402 	.word	0x2e4a979
8010d7f8:	00000000 	nop
8010d7fc:	4cd1a912 	beq	s5,t1,0x80101d30
8010d800:	ca5d0100 	.word	0x15dca
8010d804:	92ff320c 	jal	0x80cbfe48
8010d808:	00000000 	nop
8010d80c:	c7fe52fd 	.word	0xfd52fec7
8010d810:	47f00000 	.word	0xf047
8010d814:	c50f4ffd 	.word	0xfd4f0fc5
8010d818:	0df03400 	break	0x34,0x3c0
8010d81c:	35010000 	.word	0x135
8010d820:	bef1c602 	.word	0x2c6f1be
8010d824:	db01bd02 	.word	0x2bd01db
8010d828:	00000000 	nop
8010d82c:	91ce3212 	beq	s1,s2,0x80101274
8010d830:	095e0100 	.word	0x15e09
8010d834:	84ff440c 	jal	0x8113fe10
8010d838:	00000000 	nop
8010d83c:	59fefdfc 	.word	0xfcfdfe59
8010d840:	60f00000 	.word	0xf060
8010d844:	b50ff9fc 	.word	0xfcf90fb5
8010d848:	16f05000 	.word	0x50f016
8010d84c:	9f010000 	.word	0x19f
8010d850:	d34d9a02 	.word	0x29a4dd3
8010d854:	9d7f8e02 	.word	0x28e7f9d
8010d858:	00000000 	nop
8010d85c:	07ccb511 	beq	t5,s5,0x8010087c
8010d860:	555e0100 	.word	0x15e55
8010d864:	72ff560c 	jal	0x815bfdc8
8010d868:	00000000 	nop
8010d86c:	e7fd8efc 	.word	0xfc8efde7
8010d870:	85f00000 	.word	0xf085
8010d874:	9e0f87fc 	.word	0xfc870f9e
8010d878:	24f07400 	and	s8,v1,s4
8010d87c:	0c020000 	syscall	0x8
8010d880:	0f648702 	.word	0x287640f
8010d884:	40ed7902 	.word	0x279ed40
8010d888:	00000000 	nop
8010d88c:	9cc93211 	beq	t1,s2,0x800fff00
8010d890:	de5e0100 	.word	0x15ede
8010d894:	74ffc10c 	jal	0x8307fdd0
8010d898:	00000000 	nop
8010d89c:	57fbbbfc 	.word	0xfcbbfb57
8010d8a0:	0df10000 	break	0x0,0x3c4
8010d8a4:	a10f95fc 	.word	0xfc950fa1
8010d8a8:	b2f0ff00 	.word	0xfff0b2
8010d8ac:	8d040000 	break	0x0,0x12
8010d8b0:	941e9e02 	.word	0x29e1e94
8010d8b4:	9d029002 	.word	0x290029d
8010d8b8:	00000000 	nop
8010d8bc:	36c7a910 	beq	a1,t1,0x800ff598
8010d8c0:	c45f0100 	.word	0x15fc4
8010d8c4:	79ff0d0d 	jal	0x8437fde4
8010d8c8:	00000000 	nop
8010d8cc:	97f9f8fc 	.word	0xfcf8f997
8010d8d0:	a9f10000 	.word	0xf1a9
8010d8d4:	a70fb1fc 	.word	0xfcb10fa7
8010d8d8:	58f15301 	.word	0x153f158
8010d8dc:	45060000 	.word	0x645
8010d8e0:	a0c1bb02 	.word	0x2bbc1a0
8010d8e4:	746cad02 	.word	0x2ad6c74
8010d8e8:	00000000 	nop
8010d8ec:	cdc41c10 	beq	zero,gp,0x800fec24
8010d8f0:	f0600100 	.word	0x160f0
8010d8f4:	7eff3c0d 	jal	0x84f3fdf8
8010d8f8:	00000000 	nop
8010d8fc:	8ef82dfd 	.word	0xfd2df88e
8010d900:	20f20000 	.word	0xf220
8010d904:	ad0fcffc 	.word	0xfccf0fad
8010d908:	d7f17c01 	.word	0x17cf1d7
8010d90c:	4c070000 	syscall	0x1d
8010d910:	30c2d802 	.word	0x2d8c230
8010d914:	0973ca02 	.word	0x2ca7309
8010d918:	00000000 	nop
8010d91c:	5cc28d0f 	jal	0x8e370970
8010d920:	48620100 	.word	0x16248
8010d924:	82ff520d 	jal	0x854bfe08
8010d928:	00000000 	nop
8010d92c:	17f852fd 	.word	0xfd52f817
8010d930:	5bf20000 	.word	0xf25b
8010d934:	b30febfc 	.word	0xfceb0fb3
8010d938:	18f28601 	.word	0x186f218
8010d93c:	c3070000 	sra	zero,zero,0x1f
8010d940:	0120f102 	.word	0x2f12001
8010d944:	55ffe202 	.word	0x2e2ff55
8010d948:	00000000 	nop
8010d94c:	dabffb0e 	jal	0x8beeff68
8010d950:	b7630100 	.word	0x163b7
8010d954:	86ff510d 	jal	0x8547fe18
8010d958:	00000000 	nop
8010d95c:	1cf868fd 	.word	0xfd68f81c
8010d960:	54f20000 	.word	0xf254
8010d964:	b80f05fd 	.word	0xfd050fb8
8010d968:	16f27801 	.word	0x178f216
8010d96c:	c1070000 	.word	0x7c1
8010d970:	83b40303 	.word	0x303b483
8010d974:	b9e4f502 	.word	0x2f5e4b9
8010d978:	00000000 	nop
8010d97c:	42bd6a0e 	jal	0x89aaf508
8010d980:	24650100 	.word	0x16524
8010d984:	8aff3c0d 	jal	0x84f3fe28
8010d988:	00000000 	nop
8010d98c:	91f874fd 	.word	0xfd74f891
8010d990:	11f20000 	.word	0xf211
8010d994:	bd0f1ffd 	.word	0xfd1f0fbd
8010d998:	d6f15601 	.word	0x156f1d6
8010d99c:	50070000 	.word	0x750
8010d9a0:	b4ad1103 	.word	0x311adb4
8010d9a4:	0e550403 	.word	0x304550e
8010d9a8:	00000000 	nop
8010d9ac:	8cbada0d 	jal	0x876aea30
8010d9b0:	77660100 	.word	0x16677
8010d9b4:	8fff130d 	jal	0x844ffe3c
8010d9b8:	00000000 	nop
8010d9bc:	78f97bfd 	.word	0xfd7bf978
8010d9c0:	9ef10000 	.word	0xf19e
8010d9c4:	c20f3dfd 	.word	0xfd3d0fc2
8010d9c8:	66f12001 	.word	0x120f166
8010d9cc:	6f060000 	.word	0x66f
8010d9d0:	225d1e03 	.word	0x31e5d22
8010d9d4:	26af1103 	.word	0x311af26
8010d9d8:	00000000 	nop
8010d9dc:	b1b74c0d 	jal	0x8532dec4
8010d9e0:	98670100 	.word	0x16798
8010d9e4:	95ffd70c 	jal	0x835ffe54
8010d9e8:	00000000 	nop
8010d9ec:	d3fa86fd 	.word	0xfd86fad3
8010d9f0:	11f10000 	.word	0xf111
8010d9f4:	c80f62fd 	.word	0xfd620fc8
8010d9f8:	ddf0d800 	.word	0xd8f0dd
8010d9fc:	1b050000 	.word	0x51b
8010da00:	321a2f03 	.word	0x32f1a32
8010da04:	c5582303 	.word	0x32358c5
8010da08:	00000000 	nop
8010da0c:	acb4c20c 	jal	0x830ad2b0
8010da10:	70680100 	.word	0x16870
8010da14:	9dff8b0c 	jal	0x822ffe74
8010da18:	00000000 	nop
8010da1c:	a3fca1fd 	.word	0xfda1fca3
8010da20:	8af00000 	.word	0xf08a
8010da24:	d00f93fd 	.word	0xfd930fd0
8010da28:	5cf08200 	.word	0x82f05c
8010da2c:	53030000 	.word	0x353
8010da30:	70f44a03 	.word	0x34af470
8010da34:	c56c4003 	.word	0x3406cc5
8010da38:	00000000 	nop
8010da3c:	74b13d0c 	jal	0x80f6c5d0
8010da40:	e7680100 	.word	0x168e7
8010da44:	a7ff300c 	jal	0x80c3fe9c
8010da48:	00000000 	nop
8010da4c:	d4fed2fd 	.word	0xfdd2fed4
8010da50:	32f00000 	.word	0xf032
8010da54:	d90fd1fd 	.word	0xfdd10fd9
8010da58:	0cf02900 	syscall	0xa7c0
8010da5c:	29010000 	.word	0x129
8010da60:	dedd7903 	.word	0x379ddde
8010da64:	43d87003 	.word	0x370d843
8010da68:	00000000 	nop
8010da6c:	03aebf0b 	j	0x8efeb80c
8010da70:	e6680100 	.word	0x168e6
8010da74:	a6ffce0b 	j	0x8f3bfe98
8010da78:	00000000 	nop
8010da7c:	3a01ccfd 	.word	0xfdcc013a
8010da80:	34f00000 	.word	0xf034
8010da84:	d80fcbfd 	.word	0xfdcb0fd8
8010da88:	0df0d5ff 	.word	0xffd5f00d
8010da8c:	c9fe0000 	.word	0xfec9
8010da90:	7898a703 	.word	0x3a79878
8010da94:	61f39d03 	.word	0x39df361
8010da98:	00000000 	nop
8010da9c:	70aa390b 	j	0x8ce6a9c0
8010daa0:	59680100 	.word	0x16859
8010daa4:	9cff6e0b 	j	0x8dbbfe70
8010daa8:	00000000 	nop
8010daac:	93039bfd 	.word	0xfd9b0393
8010dab0:	98f00000 	.word	0xf098
8010dab4:	cf0f8bfd 	.word	0xfd8b0fcf
8010dab8:	68f074ff 	.word	0xff74f068
8010dabc:	78fc0000 	.word	0xfc78
8010dac0:	6e8ec203 	.word	0x3c28e6e
8010dac4:	0954b603 	.word	0x3b65409
8010dac8:	00000000 	nop
8010dacc:	e3a6a00a 	j	0x8a829b8c
8010dad0:	44670100 	.word	0x16744
8010dad4:	95ff140b 	j	0x8c53fe54
8010dad8:	00000000 	nop
8010dadc:	ae058dfd 	.word	0xfd8d05ae
8010dae0:	3ff10000 	.word	0xf13f
8010dae4:	c80f61fd 	.word	0xfd610fc8
8010dae8:	0cf112ff 	.word	0xff12f10c
8010daec:	65fa0000 	.word	0xfa65
8010daf0:	edbfd903 	.word	0x3d9bfed
8010daf4:	1294cb03 	.word	0x3cb9412
8010daf8:	00000000 	nop
8010dafc:	6fa3fa09 	j	0x87ea8dbc
8010db00:	b0650100 	.word	0x165b0
8010db04:	92ffbe0a 	j	0x8afbfe48
8010db08:	00000000 	nop
8010db0c:	96079ffd 	.word	0xfd9f0796
8010db10:	1ff20000 	.word	0xf21f
8010db14:	c50f4cfd 	.word	0xfd4c0fc5
8010db18:	ebf1b8fe 	.word	0xfeb8f1eb
8010db1c:	86f80000 	.word	0xf886
8010db20:	36aaeb03 	.word	0x3ebaa36
8010db24:	f152dc03 	.word	0x3dc52f1
8010db28:	00000000 	nop
8010db2c:	29a04b09 	j	0x852e80a4
8010db30:	a4630100 	.word	0x163a4
8010db34:	91ff6a0a 	j	0x89abfe44
8010db38:	00000000 	nop
8010db3c:	5609ccfd 	.word	0xfdcc0956
8010db40:	33f30000 	.word	0xf333
8010db44:	c40f49fd 	.word	0xfd490fc4
8010db48:	03f36bfe 	.word	0xfe6bf303
8010db4c:	ccf60000 	syscall	0x3db
8010db50:	0342f803 	.word	0x3f84203
8010db54:	4498e803 	.word	0x3e89844
8010db58:	00000000 	nop
8010db5c:	249d9908 	j	0x82667490
8010db60:	28610100 	.word	0x16128
8010db64:	94ff150a 	j	0x8857fe50
8010db68:	00000000 	nop
8010db6c:	f40a11fe 	.word	0xfe110af4
8010db70:	80f40000 	sll	s8,zero,0x12
8010db74:	c70f59fd 	.word	0xfd590fc7
8010db78:	57f42ffe 	.word	0xfe2ff457
8010db7c:	33f50000 	.word	0xf533
8010db80:	3bd10004 	bltz	zero,0x80102070
8010db84:	90b5f103 	.word	0x3f1b590
8010db88:	00000000 	nop
8010db8c:	759aea07 	.word	0x7ea9a75
8010db90:	455e0100 	.word	0x15e45
8010db94:	9affbc09 	j	0x86f3fe68
8010db98:	00000000 	nop
8010db9c:	6f0c6bfe 	.word	0xfe6b0c6f
8010dba0:	0ff60000 	.word	0xf60f
8010dba4:	cd0f7cfd 	.word	0xfd7c0fcd
8010dba8:	eff50cfe 	.word	0xfe0cf5ef
8010dbac:	b9f30000 	.word	0xf3b9
8010dbb0:	6af10704 	.word	0x407f16a
8010dbb4:	693ffa03 	.word	0x3fa3f69
8010dbb8:	00000000 	nop
8010dbbc:	2e984207 	.word	0x742982e
8010dbc0:	025b0100 	srl	t3,at,0xc
8010dbc4:	a3ff5f09 	j	0x857ffe8c
8010dbc8:	00000000 	nop
8010dbcc:	bf0dd4fe 	.word	0xfed40dbf
8010dbd0:	e7f70000 	.word	0xf7e7
8010dbd4:	d50fb5fd 	.word	0xfdb50fd5
8010dbd8:	d1f708fe 	.word	0xfe08f7d1
8010dbdc:	65f20000 	.word	0xf265
8010dbe0:	808a1104 	bal	0x800f05e4
8010dbe4:	ba050604 	.word	0x40605ba
8010dbe8:	00000000 	nop
8010dbec:	6496a806 	.word	0x6a89664
8010dbf0:	68570100 	.word	0x15768
8010dbf4:	affffb08 	j	0x83effebc
8010dbf8:	00000000 	nop
8010dbfc:	d50e42ff 	.word	0xff420ed5
8010dc00:	0dfa0000 	break	0x0,0x3e8
8010dc04:	e00f04fe 	.word	0xfe040fe0
8010dc08:	01fa29fe 	.word	0xfe29fa01
8010dc0c:	48f10000 	.word	0xf148
8010dc10:	56b62204 	.word	0x422b656
8010dc14:	aeef1904 	.word	0x419efae
8010dc18:	00000000 	nop
8010dc1c:	29952006 	bltz	s1,0x800f30c4
8010dc20:	7e530100 	.word	0x1537e
8010dc24:	c0ff9208 	j	0x824bff00
8010dc28:	00000000 	nop
8010dc2c:	9a0fa6ff 	.word	0xffa60f9a
8010dc30:	7cfc0000 	.word	0xfc7c
8010dc34:	eb0f69fe 	.word	0xfe690feb
8010dc38:	78fc73fe 	.word	0xfe73fc78
8010dc3c:	7af00000 	.word	0xf07a
8010dc40:	5a7d4104 	bgez	v0,0x8012d1ac
8010dc44:	dbb03b04 	.word	0x43bb0db
8010dc48:	00000000 	nop
8010dc4c:	9394af05 	.word	0x5af9493
8010dc50:	4c4f0100 	syscall	0x53d
8010dc54:	d2ff2508 	j	0x8097ff48
8010dc58:	00000000 	nop
8010dc5c:	f90ff0ff 	.word	0xfff00ff9
8010dc60:	1eff0000 	.word	0xff1e
8010dc64:	f50fe0fe 	.word	0xfee00ff5
8010dc68:	1dffe0fe 	.word	0xfee0ff1d
8010dc6c:	11f00000 	.word	0xf011
8010dc70:	1b207404 	.word	0x474201b
8010dc74:	06177104 	bgezal	v1,0x80113890
8010dc78:	00000000 	nop
8010dc7c:	b5945c05 	.word	0x55c94b5
8010dc80:	dc4a0100 	.word	0x14adc
8010dc84:	daffb607 	.word	0x7b6ffda
8010dc88:	00000000 	nop
8010dc8c:	e50f1b00 	.word	0x1b0fe5
8010dc90:	cc010000 	syscall	0x7
8010dc94:	f80f0eff 	.word	0xff0e0ff8
8010dc98:	cd0110ff 	.word	0xff1001cd
8010dc9c:	22f00000 	neg	s8,zero
8010dca0:	2eedc004 	bltz	a2,0x8010915c
8010dca4:	78afbe04 	.word	0x4beaf78
8010dca8:	00000000 	nop
8010dcac:	93951205 	.word	0x5129593
8010dcb0:	32460100 	.word	0x14632
8010dcb4:	d6ff5f07 	.word	0x75fffd6
8010dcb8:	00000000 	nop
8010dcbc:	840f4000 	.word	0x400f84
8010dcc0:	e3030000 	.word	0x3e3
8010dcc4:	f70ff8fe 	.word	0xfef80ff7
8010dcc8:	e50300ff 	.word	0xff0003e5
8010dccc:	84f00000 	.word	0xf084
8010dcd0:	3f7f1105 	bgezal	t0,0x8012d9d0
8010dcd4:	6cb30e05 	.word	0x50eb36c
8010dcd8:	00000000 	nop
8010dcdc:	0e97bd04 	.word	0x4bd970e
8010dce0:	5c410100 	.word	0x1415c
8010dce4:	d5ff2107 	bgez	t9,0x8010dc3c
8010dce8:	00000000 	nop
8010dcec:	130f5c00 	.word	0x5c0f13
8010dcf0:	59050000 	.word	0x559
8010dcf4:	f60feefe 	.word	0xfeee0ff6
8010dcf8:	5c05fdfe 	.word	0xfefd055c
8010dcfc:	f6f00000 	.word	0xf0f6
8010dd00:	23ac5005 	bltzal	t2,0x800f8d90
8010dd04:	ab874d05 	.word	0x54d87ab
8010dd08:	00000000 	nop
8010dd0c:	03996104 	bgez	v1,0x800f411c
8010dd10:	6e3c0100 	.word	0x13c6e
8010dd14:	d4fff406 	.word	0x6f4ffd4
8010dd18:	00000000 	nop
8010dd1c:	ac0e6e00 	.word	0x6e0eac
8010dd20:	5d060000 	.word	0x65d
8010dd24:	f60febfe 	.word	0xfeeb0ff6
8010dd28:	610602ff 	.word	0xff020661
8010dd2c:	5df10000 	.word	0xf15d
8010dd30:	55ad7605 	.word	0x576ad55
8010dd34:	0d677305 	.word	0x573670d
8010dd38:	00000000 	nop
8010dd3c:	509b0104 	b	0x800f4a80
8010dd40:	7d370100 	.word	0x1377d
8010dd44:	d5ffd506 	.word	0x6d5ffd5
8010dd48:	00000000 	nop
8010dd4c:	590e7900 	.word	0x790e59
8010dd50:	0e070000 	.word	0x70e
8010dd54:	f60feefe 	.word	0xfeee0ff6
8010dd58:	12070aff 	.word	0xff0a0712
8010dd5c:	aff10000 	.word	0xf1af
8010dd60:	3fed7e05 	.word	0x57eed3f
8010dd64:	23ba7b05 	.word	0x57bba23
8010dd68:	00000000 	nop
8010dd6c:	d29da203 	.word	0x3a29dd2
8010dd70:	9d320100 	.word	0x1329d
8010dd74:	d6ffc006 	bltz	s6,0x8010dcd0
8010dd78:	00000000 	nop
8010dd7c:	1f0e7c00 	.word	0x7c0e1f
8010dd80:	81070000 	.word	0x781
8010dd84:	f70ff7fe 	.word	0xfef70ff7
8010dd88:	850716ff 	.word	0xff160785
8010dd8c:	e9f10000 	.word	0xf1e9
8010dd90:	70b66605 	.word	0x566b670
8010dd94:	44c86305 	.word	0x563c844
8010dd98:	00000000 	nop
8010dd9c:	67a04803 	.word	0x348a067
8010dda0:	e12d0100 	.word	0x12de1
8010dda4:	d9ffb506 	.word	0x6b5ffd9
8010dda8:	00000000 	nop
8010ddac:	fd0d7900 	.word	0x790dfd
8010ddb0:	bf070000 	.word	0x7bf
8010ddb4:	f80f06ff 	.word	0xff060ff8
8010ddb8:	c30725ff 	.word	0xff2507c3
8010ddbc:	0af20000 	.word	0xf20a
8010ddc0:	8e892c05 	.word	0x52c898e
8010ddc4:	030e2a05 	.word	0x52a0e03
8010ddc8:	00000000 	nop
8010ddcc:	eba2f702 	.word	0x2f7a2eb
8010ddd0:	5f290100 	.word	0x1295f
8010ddd4:	dcffb406 	.word	0x6b4ffdc
8010ddd8:	00000000 	nop
8010dddc:	f80d6e00 	.word	0x6e0df8
8010dde0:	c9070000 	.word	0x7c9
8010dde4:	f90f1dff 	.word	0xff1d0ff9
8010dde8:	cc073aff 	.word	0xff3a07cc
8010ddec:	0ef20000 	.word	0xf20e
8010ddf0:	ced4cf04 	.word	0x4cfd4ce
8010ddf4:	98f2cd04 	.word	0x4cdf298
8010ddf8:	00000000 	nop
8010ddfc:	3da5b302 	.word	0x2b3a53d
8010de00:	2a250100 	.word	0x1252a
8010de04:	e2ffbd06 	.word	0x6bdffe2
8010de08:	00000000 	nop
8010de0c:	140e5a00 	.word	0x5a0e14
8010de10:	97070000 	.word	0x797
8010de14:	fb0f41ff 	.word	0xff410ffb
8010de18:	990758ff 	.word	0xff580799
8010de1c:	f0f10000 	.word	0xf1f0
8010de20:	1b075104 	bgezal	v0,0x8010fa90
8010de24:	87d84f04 	.word	0x44fd887
8010de28:	00000000 	nop
8010de2c:	39a78002 	.word	0x280a739
8010de30:	56210100 	.word	0x12156
8010de34:	ebffd606 	.word	0x6d6ffeb
8010de38:	00000000 	nop
8010de3c:	5b0e3a00 	.word	0x3a0e5b
8010de40:	0e070000 	.word	0x70e
8010de44:	fd0f7cff 	.word	0xff7c0ffd
8010de48:	0f0789ff 	.word	0xff89070f
8010de4c:	a7f10000 	.word	0xf1a7
8010de50:	0b34b203 	.word	0x3b2340b
8010de54:	ffb9b103 	.word	0x3b1b9ff
8010de58:	00000000 	nop
8010de5c:	bea86202 	.word	0x262a8be
8010de60:	f81d0100 	.word	0x11df8
8010de64:	fcff0807 	.word	0x708fffc
8010de68:	00000000 	nop
8010de6c:	dc0e0a00 	.word	0xa0edc
8010de70:	ec050000 	.word	0x5ec
8010de74:	ff0fe4ff 	.word	0xffe40fff
8010de78:	ec05e6ff 	.word	0xffe605ec
8010de7c:	24f10000 	.word	0xf124
8010de80:	da56f902 	.word	0x2f956da
8010de84:	c352f902 	.word	0x2f952c3
8010de88:	00000000 	nop
8010de8c:	a9a95d02 	.word	0x25da9a9
8010de90:	241b0100 	.word	0x11b24
8010de94:	0e006f07 	.word	0x76f000e
8010de98:	00000000 	nop
8010de9c:	9c0fedff 	.word	0xffed0f9c
8010dea0:	82030000 	srl	zero,zero,0xe
8010dea4:	ff0f5900 	.word	0x590fff
8010dea8:	82035700 	.word	0x570382
8010deac:	65f00000 	.word	0xf065
8010deb0:	81c66402 	.word	0x264c681
8010deb4:	50a96402 	.word	0x264a950
8010deb8:	00000000 	nop
8010debc:	e1a96902 	.word	0x269a9e1
8010dec0:	c1180100 	.word	0x118c1
8010dec4:	18002108 	j	0x80840060
8010dec8:	00000000 	nop
8010decc:	fb0f0700 	.word	0x70ffb
8010ded0:	36ff0000 	.word	0xff36
8010ded4:	fd0f9900 	.word	0x990ffd
8010ded8:	36ff9900 	.word	0x99ff36
8010dedc:	08f00000 	.word	0xf008
8010dee0:	fe362c02 	.word	0x22c36fe
8010dee4:	8aeb2b02 	.word	0x22beb8a
8010dee8:	00000000 	nop
8010deec:	7aa97b02 	.word	0x27ba97a
8010def0:	9f160100 	.word	0x1169f
8010def4:	2100d208 	j	0x83480084
8010def8:	00000000 	nop
8010defc:	2d0f4100 	.word	0x410f2d
8010df00:	f3fa0000 	.word	0xfaf3
8010df04:	fa0fd000 	.word	0xd00ffa
8010df08:	f1fac500 	.word	0xc5faf1
8010df0c:	d8f00000 	.word	0xf0d8
8010df10:	1fd42a02 	.word	0x22ad41f
8010df14:	c6402a02 	.word	0x22a40c6
8010df18:	00000000 	nop
8010df1c:	8fa89402 	.word	0x294a88f
8010df20:	a9140100 	.word	0x114a9
8010df24:	27005e09 	j	0x8578009c
8010df28:	00000000 	nop
8010df2c:	bf0d7e00 	.word	0x7e0dbf
8010df30:	d5f70000 	.word	0xf7d5
8010df34:	f80ff800 	.word	0xf80ff8
8010df38:	d2f7d500 	.word	0xd5f7d2
8010df3c:	47f20000 	.word	0xf247
8010df40:	b7884902 	.word	0x24988b7
8010df44:	18964802 	.word	0x2489618
8010df48:	00000000 	nop
8010df4c:	3fa7b602 	.word	0x2b6a73f
8010df50:	ca120100 	.word	0x112ca
8010df54:	2d00b709 	j	0x86dc00b4
8010df58:	00000000 	nop
8010df5c:	830cb000 	.word	0xb00c83
8010df60:	0ef60000 	.word	0xf60e
8010df64:	f60f1a01 	.word	0x11a0ff6
8010df68:	08f6dd00 	.word	0xddf608
8010df6c:	85f30000 	.word	0xf385
8010df70:	a9977302 	.word	0x27397a9
8010df74:	f42b7202 	.word	0x2722bf4
8010df78:	00000000 	nop
8010df7c:	a7a5e002 	.word	0x2e0a5a7
8010df80:	f0100100 	.word	0x110f0
8010df84:	3200e109 	j	0x878400c8
8010df88:	00000000 	nop
8010df8c:	d80bd600 	.word	0xd60bd8
8010df90:	48f50000 	.word	0xf548
8010df94:	f30f3e01 	.word	0x13e0ff3
8010df98:	3ff5ec00 	.word	0xecf53f
8010df9c:	31f40000 	.word	0xf431
8010dfa0:	ab319d02 	.word	0x29d31ab
8010dfa4:	092c9b02 	.word	0x29b2c09
8010dfa8:	00000000 	nop
8010dfac:	e3a31403 	.word	0x314a3e3
8010dfb0:	050f0100 	.word	0x10f05
8010dfb4:	3800e509 	j	0x879400e0
8010dfb8:	00000000 	nop
8010dfbc:	c80bf100 	.word	0xf10bc8
8010dfc0:	39f50000 	.word	0xf539
8010dfc4:	f00f6501 	.word	0x1650ff0
8010dfc8:	2ef50701 	.word	0x107f52e
8010dfcc:	43f40000 	sra	s8,zero,0x11
8010dfd0:	9074c202 	.word	0x2c27490
8010dfd4:	57acbf02 	.word	0x2bfac57
8010dfd8:	00000000 	nop
8010dfdc:	10a25203 	.word	0x352a210
8010dfe0:	f60c0100 	.word	0x10cf6
8010dfe4:	3f00c909 	j	0x872400fc
8010dfe8:	00000000 	nop
8010dfec:	3e0c0001 	.word	0x1000c3e
8010dff0:	c0f50000 	sll	s8,zero,0x17
8010dff4:	ec0f8e01 	.word	0x18e0fec
8010dff8:	b3f53001 	.word	0x130f5b3
8010dffc:	d1f30000 	.word	0xf3d1
8010e000:	af4be502 	.word	0x2e54baf
8010e004:	b693e102 	.word	0x2e193b6
8010e008:	00000000 	nop
8010e00c:	4da09d03 	break	0x39d,0x281
8010e010:	af0a0100 	.word	0x10aaf
8010e014:	45009109 	j	0x86440114
8010e018:	00000000 	nop
8010e01c:	140dfc00 	.word	0xfc0d14
8010e020:	d8f60000 	.word	0xf6d8
8010e024:	e80fb601 	.word	0x1b60fe8
8010e028:	caf66601 	.word	0x166f6ca
8010e02c:	fff20000 	.word	0xf2ff
8010e030:	ca0a0c03 	.word	0x30c0aca
8010e034:	75390703 	.word	0x3073975
8010e038:	00000000 	nop
8010e03c:	b49ef303 	.word	0x3f39eb4
8010e040:	1c080100 	.word	0x1081c
8010e044:	4b004109 	j	0x8504012c
8010e048:	00000000 	nop
8010e04c:	1a0ede00 	.word	0xde0e1a
8010e050:	80f80000 	sll	ra,zero,0x2
8010e054:	e40fd701 	.word	0x1d70fe4
8010e058:	73f89f01 	.word	0x19ff873
8010e05c:	fef10000 	.word	0xf1fe
8010e060:	124c4003 	.word	0x3404c12
8010e064:	d4493a03 	.word	0x33a49d4
8010e068:	00000000 	nop
8010e06c:	659d5704 	.word	0x4579d65
8010e070:	29050100 	.word	0x10529
8010e074:	4e00e008 	j	0x83800138
8010e078:	00000000 	nop
8010e07c:	100fa600 	.word	0xa60f10
8010e080:	a7fa0000 	.word	0xfaa7
8010e084:	e20fed01 	.word	0x1ed0fe2
8010e088:	9dfad001 	.word	0x1d0fa9d
8010e08c:	0cf10000 	syscall	0x3c4
8010e090:	c2268d03 	.word	0x38d26c2
8010e094:	a3fa8503 	.word	0x385faa3
8010e098:	00000000 	nop
8010e09c:	7b9cc904 	.word	0x4c99c7b
8010e0a0:	c2010100 	srl	zero,at,0x7
8010e0a4:	58007808 	j	0x81e00160
8010e0a8:	00000000 	nop
8010e0ac:	bb0f6400 	.word	0x640fbb
8010e0b0:	1efd0000 	.word	0xfd1e
8010e0b4:	da0f2902 	.word	0x2290fda
8010e0b8:	17fd1f02 	.word	0x21ffd17
8010e0bc:	6af00000 	.word	0xf06a
8010e0c0:	7eb3a103 	.word	0x3a1b37e
8010e0c4:	305f9803 	.word	0x3985f30
8010e0c8:	00000000 	nop
8010e0cc:	289c4c05 	.word	0x54c9c28
8010e0d0:	2ffe0100 	.word	0x1fe2f
8010e0d4:	6800fb07 	.word	0x7fb0068
8010e0d8:	00000000 	nop
8010e0dc:	ff0ffcff 	.word	0xfffc0fff
8010e0e0:	19000000 	multu	zero,zero
8010e0e4:	cb0f8e02 	.word	0x28e0fcb
8010e0e8:	19008e02 	multu	s4,t6
8010e0ec:	35f00000 	.word	0xf035
8010e0f0:	0d9d7b03 	break	0x37b,0x274
8010e0f4:	52076f03 	.word	0x36f0752
8010e0f8:	00000000 	nop
8010e0fc:	809ce205 	.word	0x5e29c80
8010e100:	c4fa0100 	.word	0x1fac4
8010e104:	74008007 	bltz	gp,0x8010e2d8
8010e108:	00000000 	nop
8010e10c:	b20f73ff 	.word	0xff730fb2
8010e110:	0c030000 	syscall	0xc
8010e114:	be0fdb02 	.word	0x2db0fbe
8010e118:	1903cd02 	.word	0x2cd0319
8010e11c:	8ff00000 	.word	0xf08f
8010e120:	4f3d6d03 	.word	0x36d3d4f
8010e124:	a0ca5d03 	.word	0x35dcaa0
8010e128:	00000000 	nop
8010e12c:	739d8606 	.word	0x6869d73
8010e130:	89f70100 	.word	0x1f789
8010e134:	7d000c07 	.word	0x70c007d
8010e138:	00000000 	nop
8010e13c:	e40ee3fe 	.word	0xfee30ee4
8010e140:	bc050000 	.word	0x5bc
8010e144:	b40f0e03 	.word	0x30e0fb4
8010e148:	d805d802 	.word	0x2d805d8
8010e14c:	62f10000 	.word	0xf162
8010e150:	eaee6f03 	.word	0x36feeea
8010e154:	004d5e03 	.word	0x35e4d00
8010e158:	00000000 	nop
8010e15c:	f09e3507 	.word	0x7359ef0
8010e160:	83f40100 	sra	s8,at,0x12
8010e164:	8100a106 	bgez	s5,0x8010e36c
8010e168:	00000000 	nop
8010e16c:	be0d61fe 	.word	0xfe610dbe
8010e170:	08080000 	.word	0x808
8010e174:	af0f2a03 	.word	0x32a0faf
8010e178:	3108b702 	.word	0x2b70831
8010e17c:	88f20000 	.word	0xf288
8010e180:	0ae27c03 	.word	0x37ce20a
8010e184:	f1d96903 	.word	0x369d9f1
8010e188:	00000000 	nop
8010e18c:	e6a0ec07 	.word	0x7eca0e6
8010e190:	b9f10100 	.word	0x1f1b9
8010e194:	83004106 	bgez	s2,0x8010e3a4
8010e198:	00000000 	nop
8010e19c:	640cfafd 	.word	0xfdfa0c64
8010e1a0:	e9090000 	.word	0x9e9
8010e1a4:	ad0f3303 	.word	0x3330fad
8010e1a8:	1e0a7a02 	.word	0x27a0a1e
8010e1ac:	dcf30000 	.word	0xf3dc
8010e1b0:	b91f8e03 	.word	0x38e1fb9
8010e1b4:	e1737a03 	.word	0x37a73e1
8010e1b8:	00000000 	nop
8010e1bc:	47a3a808 	j	0x82a28d1c
8010e1c0:	2eef0100 	.word	0x1ef2e
8010e1c4:	8200eb05 	.word	0x5eb0082
8010e1c8:	00000000 	nop
8010e1cc:	f60aaffd 	.word	0xfdaf0af6
8010e1d0:	6c0b0000 	.word	0xb6c
8010e1d4:	ae0f2e03 	.word	0x32e0fae
8010e1d8:	a70b2d02 	.word	0x22d0ba7
8010e1dc:	42f50000 	srl	s8,zero,0x15
8010e1e0:	2dfa9e03 	.word	0x39efa2d
8010e1e4:	cd588b03 	break	0x38b,0x163
8010e1e8:	00000000 	nop
8010e1ec:	00a66609 	j	0x859a9800
8010e1f0:	eaec0100 	.word	0x1ecea
8010e1f4:	7f009e05 	.word	0x59e007f
8010e1f8:	00000000 	nop
8010e1fc:	80097ffd 	.word	0xfd7f0980
8010e200:	a00c0000 	.word	0xca0
8010e204:	b10f1d03 	.word	0x31d0fb1
8010e208:	df0cd901 	.word	0x1d90cdf
8010e20c:	aff60000 	.word	0xf6af
8010e210:	1e11ac03 	.word	0x3ac111e
8010e214:	5d109903 	.word	0x399105d
8010e218:	00000000 	nop
8010e21c:	02a9220a 	j	0x888aa408
8010e220:	f1ea0100 	.word	0x1eaf1
8010e224:	7b005605 	.word	0x556007b
8010e228:	00000000 	nop
8010e22c:	080865fd 	.word	0xfd650808
8010e230:	960d0000 	.word	0xd96
8010e234:	b60f0303 	.word	0x3030fb6
8010e238:	d60d8301 	.word	0x1830dd6
8010e23c:	1df80000 	.word	0xf81d
8010e240:	9221b303 	.word	0x3b32192
8010e244:	1e44a103 	.word	0x3a1441e
8010e248:	00000000 	nop
8010e24c:	3dacd90a 	j	0x8b66b0f4
8010e250:	49e90100 	.word	0x1e949
8010e254:	76001205 	.word	0x5120076
8010e258:	00000000 	nop
8010e25c:	8c0660fd 	.word	0xfd60068c
8010e260:	5c0e0000 	.word	0xe5c
8010e264:	bd0fe102 	.word	0x2e10fbd
8010e268:	990e2d01 	.word	0x12d0e99
8010e26c:	8ff90000 	.word	0xf98f
8010e270:	97e0b203 	.word	0x3b2e097
8010e274:	de97a203 	.word	0x3a297de
8010e278:	00000000 	nop
8010e27c:	a1af880b 	j	0x8e22be84
8010e280:	f8e70100 	.word	0x1e7f8
8010e284:	6f00d004 	bltzal	a2,0x8010e444
8010e288:	00000000 	nop
8010e28c:	06056dfd 	.word	0xfd6d0506
8010e290:	f80e0000 	.word	0xef8
8010e294:	c40fb602 	.word	0x2b60fc4
8010e298:	300fda00 	.word	0xda0f30
8010e29c:	0dfb0000 	break	0x0,0x3ec
8010e2a0:	06d3aa03 	.word	0x3aad306
8010e2a4:	25819c03 	.word	0x39c8125
8010e2a8:	00000000 	nop
8010e2ac:	1cb32b0c 	jal	0x80aecc70
8010e2b0:	03e70100 	sra	gp,at,0x1c
8010e2b4:	71008c04 	.word	0x48c0071
8010e2b8:	00000000 	nop
8010e2bc:	6b034cfd 	.word	0xfd4c036b
8010e2c0:	640f0000 	.word	0xf64
8010e2c4:	c20fc402 	.word	0x2c40fc2
8010e2c8:	a10f9700 	.word	0x970fa1
8010e2cc:	a2fc0000 	.word	0xfca2
8010e2d0:	d3f6a503 	.word	0x3a5f6d3
8010e2d4:	efae9703 	.word	0x397aeef
8010e2d8:	00000000 	nop
8010e2dc:	a1b6ce0c 	jal	0x833ada84
8010e2e0:	4ae60100 	.word	0x1e64a
8010e2e4:	78007b04 	.word	0x47b0078
8010e2e8:	00000000 	nop
8010e2ec:	05031cfd 	.word	0xfd1c0305
8010e2f0:	710f0000 	.word	0xf71
8010e2f4:	b90ff202 	.word	0x2f20fb9
8010e2f8:	b60f8e00 	.word	0x8e0fb6
8010e2fc:	09fd0000 	.word	0xfd09
8010e300:	8ac5a303 	.word	0x3a3c58a
8010e304:	ff9a9303 	.word	0x3939aff
8010e308:	00000000 	nop
8010e30c:	26ba7b0d 	jal	0x85eee898
8010e310:	a9e50100 	.word	0x1e5a9
8010e314:	7e006b04 	.word	0x46b007e
8010e318:	00000000 	nop
8010e31c:	9d02f4fc 	.word	0xfcf4029d
8010e320:	7c0f0000 	.word	0xf7c
8010e324:	b20f1703 	.word	0x3170fb2
8010e328:	c80f8100 	.word	0x810fc8
8010e32c:	70fd0000 	.word	0xfd70
8010e330:	f9439a03 	.word	0x39a43f9
8010e334:	97a08803 	.word	0x388a097
8010e338:	00000000 	nop
8010e33c:	a5bd2e0e 	jal	0x88baf694
8010e340:	21e50100 	.word	0x1e521
8010e344:	83005904 	.word	0x4590083
8010e348:	00000000 	nop
8010e34c:	3202d4fc 	.word	0xfcd40232
8010e350:	860f0000 	.word	0xf86
8010e354:	ac0f3403 	.word	0x3340fac
8010e358:	d90f7000 	.word	0x700fd9
8010e35c:	dafd0000 	.word	0xfdda
8010e360:	7a6a8903 	.word	0x3896a7a
8010e364:	2ec67603 	.word	0x376c62e
8010e368:	00000000 	nop
8010e36c:	15c1e50e 	jal	0x8b970454
8010e370:	b3e40100 	.word	0x1e4b3
8010e374:	86004704 	.word	0x4470086
8010e378:	00000000 	nop
8010e37c:	c001bcfc 	.word	0xfcbc01c0
8010e380:	900f0000 	.word	0xf90
8010e384:	a80f4903 	.word	0x3490fa8
8010e388:	e70f5c00 	.word	0x5c0fe7
8010e38c:	4afe0000 	.word	0xfe4a
8010e390:	94417103 	.word	0x3714194
8010e394:	3b1f5e03 	.word	0x35e1f3b
8010e398:	00000000 	nop
8010e39c:	6fc49c0f 	jal	0x8e7311bc
8010e3a0:	62e40100 	.word	0x1e462
8010e3a4:	89003304 	.word	0x4330089
8010e3a8:	00000000 	nop
8010e3ac:	4501acfc 	.word	0xfcac0145
8010e3b0:	990f0000 	.word	0xf99
8010e3b4:	a50f5603 	.word	0x3560fa5
8010e3b8:	f30f4300 	.word	0x430ff3
8010e3bc:	c2fe0000 	srl	ra,zero,0x1b
8010e3c0:	2fda5103 	.word	0x351da2f
8010e3c4:	a3c43e03 	.word	0x33ec4a3
8010e3c8:	00000000 	nop
8010e3cc:	acc74f10 	beq	v0,t7,0x80100280
8010e3d0:	2de40100 	.word	0x1e42d
8010e3d4:	89001e04 	.word	0x41e0089
8010e3d8:	00000000 	nop
8010e3dc:	bc00a6fc 	.word	0xfca600bc
8010e3e0:	a00f0000 	.word	0xfa0
8010e3e4:	a40f5b03 	.word	0x35b0fa4
8010e3e8:	fb0f2700 	.word	0x270ffb
8010e3ec:	48ff0000 	.word	0xff48
8010e3f0:	195b2b03 	.word	0x32b5b19
8010e3f4:	fbe31803 	.word	0x318e3fb
8010e3f8:	00000000 	nop
8010e3fc:	c5cafb10 	beq	a3,k1,0x80100f14
8010e400:	17e40100 	.word	0x1e417
8010e404:	88000504 	.word	0x4050088
8010e408:	00000000 	nop
8010e40c:	2100acfc 	.word	0xfcac0021
8010e410:	a60f0000 	.word	0xfa6
8010e414:	a60f5403 	.word	0x3540fa6
8010e418:	ff0f0600 	.word	0x60fff
8010e41c:	e0ff0000 	.word	0xffe0
8010e420:	4601fe02 	.word	0x2fe0146
8010e424:	0cbdec02 	syscall	0xbb2f4
8010e428:	00000000 	nop
8010e42c:	b1cd9d11 	beq	t4,sp,0x80101af4
8010e430:	21e40100 	.word	0x1e421
8010e434:	8500e803 	.word	0x3e80085
8010e438:	00000000 	nop
8010e43c:	6cffc0fc 	.word	0xfcc0ff6c
8010e440:	a70f0000 	.word	0xfa7
8010e444:	aa0f4103 	.word	0x3410faa
8010e448:	fd0fe2ff 	.word	0xffe20ffd
8010e44c:	91000000 	.word	0x91
8010e450:	0530ca02 	.word	0x2ca3005
8010e454:	a7b3ba02 	.word	0x2bab3a7
8010e458:	00000000 	nop
8010e45c:	6bd03112 	beq	s1,s1,0x8010260c
8010e460:	4ce40100 	syscall	0x791
8010e464:	7f00c503 	.word	0x3c5007f
8010e468:	00000000 	nop
8010e46c:	92fee8fc 	.word	0xfce8fe92
8010e470:	a10f0000 	.word	0xfa1
8010e474:	b10f1b03 	.word	0x31b0fb1
8010e478:	ef0fb9ff 	.word	0xffb90fef
8010e47c:	67010000 	.word	0x167
8010e480:	81859002 	.word	0x2908581
8010e484:	c8618302 	.word	0x28361c8
8010e488:	00000000 	nop
8010e48c:	e9d2b312 	beq	s5,s3,0x80103034
8010e490:	9ae40100 	.word	0x1e49a
8010e494:	75009a03 	.word	0x39a0075
8010e498:	00000000 	nop
8010e49c:	84fd2cfd 	.word	0xfd2cfd84
8010e4a0:	8c0f0000 	syscall	0x3e
8010e4a4:	bd0fdd02 	.word	0x2dd0fbd
8010e4a8:	ce0f8fff 	.word	0xff8f0fce
8010e4ac:	71020000 	.word	0x271
8010e4b0:	10075202 	.word	0x2520710
8010e4b4:	93be4702 	.word	0x247be93
8010e4b8:	00000000 	nop
8010e4bc:	26d52113 	beq	t9,at,0x80103958
8010e4c0:	0be50100 	.word	0x1e50b
8010e4c4:	63006203 	.word	0x3620063
8010e4c8:	00000000 	nop
8010e4cc:	2ffca5fd 	.word	0xfda5fc2f
8010e4d0:	5b0f0000 	.word	0xf5b
8010e4d4:	d00f6d02 	.word	0x26d0fd0
8010e4d8:	890f6cff 	.word	0xff6c0f89
8010e4dc:	c5030000 	.word	0x3c5
8010e4e0:	fc3e1f02 	.word	0x21f3efc
8010e4e4:	dcb21802 	.word	0x218b2dc
8010e4e8:	00000000 	nop
8010e4ec:	2cd77613 	beq	k1,s6,0x801041a0
8010e4f0:	96e50100 	.word	0x1e596
8010e4f4:	49004603 	.word	0x3460049
8010e4f8:	00000000 	nop
8010e4fc:	86fb48fe 	.word	0xfe48fb86
8010e500:	430f0000 	sra	at,zero,0x1d
8010e504:	e60fca01 	.word	0x1ca0fe6
8010e508:	5c0f80ff 	.word	0xff800f5c
8010e50c:	73040000 	.word	0x473
8010e510:	692efb01 	.word	0x1fb2e69
8010e514:	20dbf701 	.word	0x1f7db20
8010e518:	00000000 	nop
8010e51c:	0dd9b013 	beq	sp,s0,0x80104954
8010e520:	2de60100 	.word	0x1e62d
8010e524:	31002c03 	.word	0x32c0031
8010e528:	00000000 	nop
8010e52c:	e4fadcfe 	.word	0xfedcfae4
8010e530:	1e0f0000 	.word	0xf1e
8010e534:	f40f3401 	.word	0x1340ff4
8010e538:	290f9eff 	.word	0xff9e0f29
8010e53c:	18050000 	.word	0x518
8010e540:	cae0d701 	.word	0x1d7e0ca
8010e544:	b87bd601 	.word	0x1d67bb8
8010e548:	00000000 	nop
8010e54c:	c8dad413 	beq	s8,s4,0x80105070
8010e550:	cce60100 	syscall	0x79b
8010e554:	1b001203 	divu	zero,t8,s2
8010e558:	00000000 	nop
8010e55c:	4cfa5fff 	.word	0xff5ffa4c
8010e560:	ef0e0000 	.word	0xeef
8010e564:	fc0fad00 	.word	0xad0ffc
8010e568:	f20ec3ff 	.word	0xffc30ef2
8010e56c:	b3050000 	.word	0x5b3
8010e570:	ddb9b401 	.word	0x1b4b9dd
8010e574:	6b51b401 	.word	0x1b4516b
8010e578:	00000000 	nop
8010e57c:	5cdce713 	beq	ra,a3,0x801056f0
8010e580:	70e70100 	.word	0x1e770
8010e584:	0900f902 	.word	0x2f90009
8010e588:	00000000 	nop
8010e58c:	bcf9cbff 	.word	0xffcbf9bc
8010e590:	b80e0000 	.word	0xeb8
8010e594:	ff0f3a00 	.word	0x3a0fff
8010e598:	b80eeaff 	.word	0xffea0eb8
8010e59c:	44060000 	.word	0x644
8010e5a0:	c1279101 	.word	0x19127c1
8010e5a4:	cc1c9101 	syscall	0x64473
8010e5a8:	00000000 	nop
8010e5ac:	cbdded13 	beq	ra,t5,0x80105cdc
8010e5b0:	13e80100 	.word	0x1e813
8010e5b4:	fcffe202 	.word	0x2e2fffc
8010e5b8:	00000000 	nop
8010e5bc:	36f91b00 	.word	0x1bf936
8010e5c0:	7c0e0000 	.word	0xe7c
8010e5c4:	ff0fe2ff 	.word	0xffe20fff
8010e5c8:	7c0e0d00 	.word	0xd0e7c
8010e5cc:	ca060000 	.word	0x6ca
8010e5d0:	2da46c01 	.word	0x16ca42d
8010e5d4:	70a16c01 	.word	0x16ca170
8010e5d8:	00000000 	nop
8010e5dc:	12dfea13 	beq	ra,t2,0x80106228
8010e5e0:	b4e80100 	.word	0x1e8b4
8010e5e4:	f3ffcc02 	.word	0x2ccfff3
8010e5e8:	00000000 	nop
8010e5ec:	baf84d00 	.word	0x4df8ba
8010e5f0:	3f0e0000 	.word	0xe3f
8010e5f4:	ff0faaff 	.word	0xffaa0fff
8010e5f8:	3f0e2700 	.word	0x270e3f
8010e5fc:	46070000 	.word	0x746
8010e600:	c3bc4601 	.word	0x146bcc3
8010e604:	20a94601 	.word	0x146a920
8010e608:	00000000 	nop
8010e60c:	33e0e313 	beq	ra,v1,0x801066dc
8010e610:	4de90100 	break	0x1,0x3a5
8010e614:	f1ffb702 	.word	0x2b7fff1
8010e618:	00000000 	nop
8010e61c:	48f85500 	.word	0x55f848
8010e620:	020e0000 	srl	at,zero,0x18
8010e624:	fe0f9fff 	.word	0xff9f0ffe
8010e628:	030e2f00 	.word	0x2f0e03
8010e62c:	b8070000 	.word	0x7b8
8010e630:	53161f01 	.word	0x11f1653
8010e634:	67001f01 	.word	0x11f0067
8010e638:	00000000 	nop
8010e63c:	2ce1dc13 	beq	s8,gp,0x80106af0
8010e640:	dbe90100 	.word	0x1e9db
8010e644:	faffa402 	.word	0x2a4fffa
8010e648:	00000000 	nop
8010e64c:	e1f72400 	.word	0x24f7e1
8010e650:	c80d0000 	.word	0xdc8
8010e654:	ff0fd7ff 	.word	0xffd70fff
8010e658:	c80d1500 	.word	0x150dc8
8010e65c:	1f080000 	.word	0x81f
8010e660:	6c7bf500 	.word	0xf57b6c
8010e664:	f977f500 	.word	0xf577f9
8010e668:	00000000 	nop
8010e66c:	fee1d913 	beq	s8,t9,0x80106e68
8010e670:	5aea0100 	.word	0x1ea5a
8010e674:	13009402 	.word	0x2940013
8010e678:	00000000 	nop
8010e67c:	88f798ff 	.word	0xff98f788
8010e680:	910d0000 	.word	0xd91
8010e684:	fe0f7a00 	.word	0x7a0ffe
8010e688:	920dbfff 	.word	0xffbf0d92
8010e68c:	77080000 	.word	0x877
8010e690:	d1ffc900 	.word	0xc9ffd1
8010e694:	51e7c900 	.word	0xc9e751
8010e698:	00000000 	nop
8010e69c:	a8e2df13 	beq	s8,ra,0x80107140
8010e6a0:	c7ea0100 	.word	0x1eac7
8010e6a4:	4e008602 	.word	0x286004e
8010e6a8:	00000000 	nop
8010e6ac:	41f762fe 	.word	0xfe62f741
8010e6b0:	4c0d0000 	syscall	0x35
8010e6b4:	e10fef01 	.word	0x1ef0fe1
8010e6b8:	650df2fe 	.word	0xfef20d65
8010e6bc:	ae080000 	.word	0x8ae
8010e6c0:	185a9d00 	.word	0x9d5a18
8010e6c4:	6f279c00 	.word	0x9c276f
8010e6c8:	00000000 	nop
8010e6cc:	2ae3f313 	beq	ra,s3,0x80107378
8010e6d0:	1deb0100 	.word	0x1eb1d
8010e6d4:	66007f02 	.word	0x27f0066
8010e6d8:	00000000 	nop
8010e6dc:	19f7eafd 	.word	0xfdeaf719
8010e6e0:	200d0000 	.word	0xd20
8010e6e4:	cd0f8202 	break	0x282,0x3f
8010e6e8:	4b0d9bfe 	.word	0xfe9b0d4b
8010e6ec:	cb080000 	.word	0x8cb
8010e6f0:	36e48600 	.word	0x86e436
8010e6f4:	261f8500 	.word	0x851f26
8010e6f8:	00000000 	nop
8010e6fc:	98e30814 	bne	zero,t0,0x80107560
8010e700:	68eb0100 	.word	0x1eb68
8010e704:	37007502 	.word	0x2750037
8010e708:	00000000 	nop
8010e70c:	e5f6e2fe 	.word	0xfee2f6e5
8010e710:	1b0d0000 	.word	0xd1b
8010e714:	f10f5c01 	.word	0x15c0ff1
8010e718:	270d3aff 	.word	0xff3a0d27
8010e71c:	13090000 	.word	0x913
8010e720:	ef0f8600 	.word	0x860fef
8010e724:	bd8c8500 	.word	0x858cbd
8010e728:	00000000 	nop
8010e72c:	06e41414 	bne	zero,s4,0x80107748
8010e730:	b5eb0100 	.word	0x1ebb5
8010e734:	10006c02 	.word	0x26c0010
8010e738:	00000000 	nop
8010e73c:	b8f6adff 	.word	0xffadf6b8
8010e740:	060d0000 	.word	0xd06
8010e744:	fe0f6600 	.word	0x660ffe
8010e748:	070dc5ff 	.word	0xffc50d07
8010e74c:	48090000 	.word	0x948
8010e750:	4ad98400 	.word	0x84d94a
8010e754:	26ce8400 	.word	0x84ce26
8010e758:	00000000 	nop
8010e75c:	71e41814 	bne	zero,t8,0x80107924
8010e760:	03ec0100 	sra	sp,at,0x10
8010e764:	f1ff6402 	.word	0x264fff1
8010e768:	00000000 	nop
8010e76c:	90f64d00 	.word	0x4df690
8010e770:	ea0c0000 	.word	0xcea
8010e774:	fe0fa0ff 	.word	0xffa00ffe
8010e778:	eb0c3800 	.word	0x380ceb
8010e77c:	6f090000 	.word	0x96f
8010e780:	6feb8200 	.word	0x82eb6f
8010e784:	bfe18200 	.word	0x82e1bf
8010e788:	00000000 	nop
8010e78c:	dbe41414 	bne	zero,s4,0x80107afc
8010e790:	50ec0100 	.word	0x1ec50
8010e794:	d9ff5d02 	.word	0x25dffd9
8010e798:	00000000 	nop
8010e79c:	6ef6c700 	.word	0xc7f66e
8010e7a0:	cb0c0000 	.word	0xccb
8010e7a4:	f80f08ff 	.word	0xff080ff8
8010e7a8:	d10c9400 	.word	0x940cd1
8010e7ac:	8e090000 	.word	0x98e
8010e7b0:	03058000 	.word	0x800503
8010e7b4:	3cc67f00 	.word	0x7fc63c
8010e7b8:	00000000 	nop
8010e7bc:	41e50d14 	bne	zero,t5,0x80107cc4
8010e7c0:	9dec0100 	.word	0x1ec9d
8010e7c4:	c8ff5702 	.word	0x257ffc8
8010e7c8:	00000000 	nop
8010e7cc:	4ff61a01 	.word	0x11af64f
8010e7d0:	ae0c0000 	.word	0xcae
8010e7d4:	f00f9dfe 	.word	0xfe9d0ff0
8010e7d8:	ba0cd700 	.word	0xd70cba
8010e7dc:	a8090000 	.word	0x9a8
8010e7e0:	1bf57b00 	.word	0x7bf51b
8010e7e4:	47797b00 	.word	0x7b7947
8010e7e8:	00000000 	nop
8010e7ec:	a2e50214 	bne	zero,v0,0x80107e78
8010e7f0:	e8ec0100 	.word	0x1ece8
8010e7f4:	beff5202 	.word	0x252ffbe
8010e7f8:	00000000 	nop
8010e7fc:	34f64701 	.word	0x147f634
8010e800:	950c0000 	.word	0xc95
8010e804:	ea0f62fe 	.word	0xfe620fea
8010e808:	a50cfd00 	.word	0xfd0ca5
8010e80c:	bf090000 	.word	0x9bf
8010e810:	d49a7600 	.word	0x769ad4
8010e814:	10fa7500 	.word	0x75fa10
8010e818:	00000000 	nop
8010e81c:	ffe5f513 	beq	ra,s5,0x8010801c
8010e820:	31ed0100 	.word	0x1ed31
8010e824:	6aff4d02 	.word	0x24dff6a
8010e828:	00000000 	nop
8010e82c:	1bf6df02 	.word	0x2dff61b
8010e830:	3d0c0000 	.word	0xc3d
8010e834:	930f59fc 	.word	0xfc590f93
8010e838:	920c4202 	.word	0x2420c92
8010e83c:	a2090000 	.word	0x9a2
8010e840:	58667200 	.word	0x726658
8010e844:	60486f00 	.word	0x6f4860
8010e848:	00000000 	nop
8010e84c:	57e6db13 	beq	s8,k1,0x801081ac
8010e850:	76ed0100 	.word	0x1ed76
8010e854:	13ff4802 	.word	0x248ff13
8010e858:	00000000 	nop
8010e85c:	05f67504 	.word	0x475f605
8010e860:	ae0b0000 	.word	0xbae
8010e864:	f20e4cfa 	.word	0xfa4c0ef2
8010e868:	810c8f03 	.word	0x38f0c81
8010e86c:	53090000 	.word	0x953
8010e870:	33e16e00 	.word	0x6ee133
8010e874:	42636700 	.word	0x676342
8010e878:	00000000 	nop
8010e87c:	a7e6b313 	beq	sp,s3,0x8010831c
8010e880:	b7ed0100 	.word	0x1edb7
8010e884:	cbfe4402 	.word	0x244fecb
8010e888:	00000000 	nop
8010e88c:	f1f5ae05 	.word	0x5aef5f1
8010e890:	110b0000 	.word	0xb11
8010e894:	3b0eb2f8 	.word	0xf8b20e3b
8010e898:	700c9804 	.word	0x4980c70
8010e89c:	f3080000 	.word	0x8f3
8010e8a0:	f0546a00 	.word	0x6a54f0
8010e8a4:	f0485e00 	.word	0x5e48f0
8010e8a8:	00000000 	nop
8010e8ac:	f0e68213 	beq	gp,v0,0x80108470
8010e8b0:	f2ed0100 	.word	0x1edf2
8010e8b4:	57fe4002 	.word	0x240fe57
8010e8b8:	00000000 	nop
8010e8bc:	dff58507 	.word	0x785f5df
8010e8c0:	d6090000 	.word	0x9d6
8010e8c4:	b50c49f6 	.word	0xf6490cb5
8010e8c8:	610c2706 	.word	0x6270c61
8010e8cc:	0c080000 	syscall	0x20
8010e8d0:	9e596a00 	.word	0x6a599e
8010e8d4:	15fb5300 	.word	0x53fb15
8010e8d8:	00000000 	nop
8010e8dc:	31e74013 	beqz	k0,0x801085a4
8010e8e0:	28ee0180 	lb	at,-4568(zero)
8010e8e4:	dc033d02 	.word	0x23d03dc
8010e8e8:	00000000 	nop
8010e8ec:	cef5b1f3 	.word	0xf3b1f5ce
8010e8f0:	ad000000 	.word	0xad
8010e8f4:	e100f90f 	jal	0x8fe40384
8010e8f8:	540cd2f5 	.word	0xf5d20c54
8010e8fc:	8f000000 	.word	0x8f
8010e900:	999a3a06 	.word	0x63a9a99
8010e904:	da085500 	.word	0x5508da
8010e908:	00000000 	nop
8010e90c:	72e77919 	.word	0x1979e772
8010e910:	5eee0180 	lb	at,-4514(zero)
8010e914:	ba033602 	.word	0x23603ba
8010e918:	00000000 	nop
8010e91c:	adf5d9f3 	.word	0xf3d9f5ad
8010e920:	4c010000 	syscall	0x5
8010e924:	b301e80f 	jal	0x8fa006cc
8010e928:	390cbcf5 	.word	0xf5bc0c39
8010e92c:	18010000 	.word	0x118
8010e930:	27979f03 	.word	0x39f9727
8010e934:	cec96000 	.word	0x60c9ce
8010e938:	00000000 	nop
8010e93c:	bce7131d 	.word	0x1d13e7bc
8010e940:	9dee0180 	lb	at,-4451(zero)
8010e944:	a8033202 	.word	0x23203a8
8010e948:	00000000 	nop
8010e94c:	97f5f7f3 	.word	0xf3f7f597
8010e950:	a2010000 	.word	0x1a2
8010e954:	2602da0f 	jal	0x8f680898
8010e958:	250caff5 	.word	0xf5af0c25
8010e95c:	66010000 	.word	0x166
8010e960:	abf32003 	.word	0x320f3ab
8010e964:	7c576a00 	.word	0x6a577c
8010e968:	00000000 	nop
8010e96c:	0de82d20 	addi	t5,at,-6131
8010e970:	e3ee0180 	lb	at,-4381(zero)
8010e974:	a3032e02 	.word	0x22e03a3
8010e978:	00000000 	nop
8010e97c:	86f508f4 	.word	0xf408f586
8010e980:	b3010000 	.word	0x1b3
8010e984:	4002d70f 	jal	0x8f5c0900
8010e988:	170ca1f5 	.word	0xf5a10c17
8010e98c:	79010000 	.word	0x179
8010e990:	38f32e03 	.word	0x32ef338
8010e994:	83b07100 	.word	0x71b083
8010e998:	00000000 	nop
8010e99c:	62e85423 	addi	s4,k0,-6046
8010e9a0:	2def0180 	lb	at,-4307(zero)
8010e9a4:	9e032b02 	.word	0x22b039e
8010e9a8:	00000000 	nop
8010e9ac:	79f517f4 	.word	0xf417f579
8010e9b0:	cb010000 	.word	0x1cb
8010e9b4:	6202d20f 	jal	0x8f480988
8010e9b8:	0b0c97f5 	.word	0xf5970c0b
8010e9bc:	91010000 	.word	0x191
8010e9c0:	55982303 	.word	0x3239855
8010e9c4:	89d57600 	.word	0x76d589
8010e9c8:	00000000 	nop
8010e9cc:	bce86f26 	addiu	t7,s3,-5956
8010e9d0:	7cef0180 	lb	at,-4228(zero)
8010e9d4:	a0032902 	.word	0x22903a0
8010e9d8:	00000000 	nop
8010e9dc:	6ef51ff4 	.word	0xf41ff56e
8010e9e0:	be010000 	.word	0x1be
8010e9e4:	5302d40f 	jal	0x8f50094c
8010e9e8:	020c8af5 	.word	0xf58a0c02
8010e9ec:	89010000 	.word	0x189
8010e9f0:	692a4b03 	.word	0x34b2a69
8010e9f4:	b1c57900 	.word	0x79c5b1
8010e9f8:	00000000 	nop
8010e9fc:	17e9b129 	slti	s1,t5,-5865
8010ea00:	ccef0180 	lb	at,-4148(zero)
8010ea04:	a0032702 	.word	0x22703a0
8010ea08:	00000000 	nop
8010ea0c:	64f528f4 	.word	0xf428f564
8010ea10:	bf010000 	.word	0x1bf
8010ea14:	5502d40f 	jal	0x8f500954
8010ea18:	f90b81f5 	.word	0xf5810bf9
8010ea1c:	8c010000 	syscall	0x6
8010ea20:	76974c03 	.word	0x34c9776
8010ea24:	37817a00 	.word	0x7a8137
8010ea28:	00000000 	nop
8010ea2c:	73e9f52c 	sltiu	s5,a3,-5773
8010ea30:	1ef00180 	lb	at,-4066(zero)
8010ea34:	94032502 	.word	0x2250394
8010ea38:	00000000 	nop
8010ea3c:	5bf538f4 	.word	0xf438f55b
8010ea40:	f4010000 	.word	0x1f4
8010ea44:	9d02c80f 	jal	0x8f200a74
8010ea48:	f10b7ff5 	.word	0xf57f0bf1
8010ea4c:	bd010000 	.word	0x1bd
8010ea50:	3a62e802 	.word	0x2e8623a
8010ea54:	16077900 	.word	0x790716
8010ea58:	00000000 	nop
8010ea5c:	cde9d32f 	sltiu	s3,s8,-5683
8010ea60:	6ef00180 	lb	at,-3986(zero)
8010ea64:	92032302 	.word	0x2230392
8010ea68:	00000000 	nop
8010ea6c:	52f542f4 	.word	0xf442f552
8010ea70:	fc010000 	.word	0x1fc
8010ea74:	ab02c60f 	jal	0x8f180aac
8010ea78:	e90b78f5 	.word	0xf5780be9
8010ea7c:	c8010000 	.word	0x1c8
8010ea80:	17c1c302 	.word	0x2c3c117
8010ea84:	48597500 	.word	0x755948
8010ea88:	00000000 	nop
8010ea8c:	24ea8d32 	andi	t5,s4,0xea24
8010ea90:	bdf00180 	lb	at,-3907(zero)
8010ea94:	7e032102 	.word	0x221037e
8010ea98:	00000000 	nop
8010ea9c:	49f55bf4 	.word	0xf45bf549
8010eaa0:	57020000 	.word	0x257
8010eaa4:	2603af0f 	jal	0x8ebc0c98
8010eaa8:	e10b7ef5 	.word	0xf57e0be1
8010eaac:	1c020000 	.word	0x21c
8010eab0:	65eb3902 	.word	0x239eb65
8010eab4:	d5756f00 	.word	0x6f75d5
8010eab8:	00000000 	nop
8010eabc:	77eabc34 	ori	gp,a1,0xea77
8010eac0:	08f10180 	lb	at,-3832(zero)
8010eac4:	d8021f02 	.word	0x21f02d8
8010eac8:	00000000 	nop
8010eacc:	3ef55af5 	.word	0xf55af53e
8010ead0:	2e050000 	.word	0x52e
8010ead4:	ff06630e 	jal	0x898c1bfc
8010ead8:	d70b54f6 	.word	0xf6540bd7
8010eadc:	b4040000 	.word	0x4b4
8010eae0:	241cee00 	.word	0xee1c24
8010eae4:	7f5d6700 	.word	0x675d7f
8010eae8:	00000000 	nop
8010eaec:	c3ea9335 	ori	s3,t4,0xeac3
8010eaf0:	4df10180 	lb	at,-3763(zero)
8010eaf4:	56001c02 	.word	0x21c0056
8010eaf8:	00000000 	nop
8010eafc:	33f571fe 	.word	0xfe71f533
8010eb00:	b20b0000 	.word	0xbb2
8010eb04:	db0f1e02 	.word	0x21e0fdb
8010eb08:	cd0b92fe 	.word	0xfe920bcd
8010eb0c:	b50a0000 	.word	0xab5
8010eb10:	8bcfc000 	.word	0xc0cf8b
8010eb14:	0804bf00 	.word	0xbf0408
8010eb18:	00000000 	nop
8010eb1c:	4eebad35 	ori	t5,t5,0xeb4e
8010eb20:	d0f10180 	lb	at,-3632(zero)
8010eb24:	4d000e02 	break	0x20e,0x1
8010eb28:	00000000 	nop
8010eb2c:	f1f4a0fe 	.word	0xfea0f4f1
8010eb30:	7a0b0000 	.word	0xb7a
8010eb34:	e20fe701 	.word	0x1e70fe2
8010eb38:	8f0bb0fe 	.word	0xfeb00b8f
8010eb3c:	fb0a0000 	.word	0xafb
8010eb40:	7c2e6201 	.word	0x1622e7c
8010eb44:	5aa65f01 	.word	0x15fa65a
8010eb48:	00000000 	nop
8010eb4c:	4becd735 	ori	s7,t6,0xec4b
8010eb50:	c4f20180 	lb	at,-3388(zero)
8010eb54:	49000b02 	.word	0x20b0049
8010eb58:	00000000 	nop
8010eb5c:	e5f4b6fe 	.word	0xfeb6f4e5
8010eb60:	710b0000 	.word	0xb71
8010eb64:	e60fca01 	.word	0x1ca0fe6
8010eb68:	830bc2fe 	.word	0xfec20b83
8010eb6c:	090b0000 	.word	0xb09
8010eb70:	6ce7de01 	.word	0x1dee76c
8010eb74:	72e2db01 	.word	0x1dbe272
8010eb78:	00000000 	nop
8010eb7c:	a1ed0d36 	ori	t5,s0,0xeda1
8010eb80:	0ff40180 	lb	at,-3057(zero)
8010eb84:	45000a02 	.word	0x20a0045
8010eb88:	00000000 	nop
8010eb8c:	dff4c7fe 	.word	0xfec7f4df
8010eb90:	6d0b0000 	.word	0xb6d
8010eb94:	e80fb401 	.word	0x1b40fe8
8010eb98:	7e0bd1fe 	.word	0xfed10b7e
8010eb9c:	100b0000 	.word	0xb10
8010eba0:	07f43602 	.word	0x236f407
8010eba4:	05b73302 	.word	0x233b705
8010eba8:	00000000 	nop
8010ebac:	36ef4936 	ori	t1,s2,0xef36
8010ebb0:	97f50180 	lb	at,-2665(zero)
8010ebb4:	42000902 	.word	0x2090042
8010ebb8:	00000000 	nop
8010ebbc:	dcf4d6fe 	.word	0xfed6f4dc
8010ebc0:	6c0b0000 	.word	0xb6c
8010ebc4:	ea0f9f01 	.word	0x19f0fea
8010ebc8:	7b0bdffe 	.word	0xfedf0b7b
8010ebcc:	150b0000 	.word	0xb15
8010ebd0:	3d556a02 	.word	0x26a553d
8010ebd4:	9f246702 	.word	0x267249f
8010ebd8:	00000000 	nop
8010ebdc:	f0f08836 	ori	t0,s4,0xf0f0
8010ebe0:	44f70180 	lb	at,-2236(zero)
8010ebe4:	3e000902 	.word	0x209003e
8010ebe8:	00000000 	nop
8010ebec:	daf4e9fe 	.word	0xfee9f4da
8010ebf0:	6c0b0000 	.word	0xb6c
8010ebf4:	ed0f8601 	.word	0x1860fed
8010ebf8:	790bf0fe 	.word	0xfef00b79
8010ebfc:	190b0000 	.word	0xb19
8010ec00:	6d0b7902 	.word	0x2790b6d
8010ec04:	70297602 	.word	0x2762970
8010ec08:	00000000 	nop
8010ec0c:	b3f2c436 	ori	a0,s6,0xf2b3
8010ec10:	fbf80180 	lb	at,-1797(zero)
8010ec14:	38000902 	.word	0x2090038
8010ec18:	00000000 	nop
8010ec1c:	d9f400ff 	.word	0xff00f4d9
8010ec20:	6d0b0000 	.word	0xb6d
8010ec24:	f00f6501 	.word	0x1650ff0
8010ec28:	780b07ff 	.word	0xff070b78
8010ec2c:	1c0b0000 	.word	0xb1c
8010ec30:	b71b6302 	.word	0x2631bb7
8010ec34:	54c66002 	.word	0x260c654
8010ec38:	00000000 	nop
8010ec3c:	68f4fa36 	ori	k0,s7,0xf468
8010ec40:	a4fa0180 	lb	at,-1372(zero)
8010ec44:	31000802 	.word	0x2080031
8010ec48:	00000000 	nop
8010ec4c:	d8f423ff 	.word	0xff23f4d8
8010ec50:	6e0b0000 	.word	0xb6e
8010ec54:	f40f3501 	.word	0x1350ff4
8010ec58:	770b29ff 	.word	0xff290b77
8010ec5c:	200b0000 	.word	0xb20
8010ec60:	9e8f2802 	.word	0x2288f9e
8010ec64:	fdfa2602 	.word	0x226fafd
8010ec68:	00000000 	nop
8010ec6c:	f3f52437 	ori	a0,t9,0xf5f3
8010ec70:	24fc0180 	lb	at,-988(zero)
8010ec74:	24000802 	and	zero,s0,t0
8010ec78:	00000000 	nop
8010ec7c:	d6f45dff 	.word	0xff5df4d6
8010ec80:	710b0000 	.word	0xb71
8010ec84:	f90fe400 	.word	0xe40ff9
8010ec88:	750b61ff 	.word	0xff610b75
8010ec8c:	250b0000 	.word	0xb25
8010ec90:	1e7fc901 	.word	0x1c97f1e
8010ec94:	0cc8c801 	syscall	0x72320
8010ec98:	00000000 	nop
8010ec9c:	3af73d37 	ori	sp,t9,0xf73a
8010eca0:	63fd0180 	lb	at,-669(zero)
8010eca4:	09000802 	.word	0x2080009
8010eca8:	00000000 	nop
8010ecac:	d5f4d6ff 	.word	0xffd6f4d5
8010ecb0:	740b0000 	.word	0xb74
8010ecb4:	ff0f3b00 	.word	0x3b0fff
8010ecb8:	740bd7ff 	.word	0xffd70b74
8010ecbc:	2b0b0000 	.word	0xb2b
8010ecc0:	a8354601 	.word	0x14635a8
8010ecc4:	b12c4601 	.word	0x1462cb1
8010ecc8:	00000000 	nop
8010eccc:	23f84237 	ori	v0,k0,0xf823
8010ecd0:	47fe0180 	lb	at,-441(zero)
8010ecd4:	adff0702 	.word	0x207ffad
8010ecd8:	00000000 	nop
8010ecdc:	d2f47401 	.word	0x174f4d2
8010ece0:	5a0b0000 	.word	0xb5a
8010ece4:	de0ff7fd 	.word	0xfdf70fde
8010ece8:	710b6c01 	.word	0x16c0b71
8010ecec:	170b0000 	.word	0xb17
8010ecf0:	3d7ea000 	.word	0xa07e3d
8010ecf4:	b1299f00 	.word	0x9f29b1
8010ecf8:	00000000 	nop
8010ecfc:	95f82d37 	ori	t5,t9,0xf895
8010ed00:	b6fe0180 	lb	at,-330(zero)
8010ed04:	95fd0302 	.word	0x203fd95
8010ed08:	00000000 	nop
8010ed0c:	c0f44109 	j	0x8507d300
8010ed10:	9d060000 	.word	0x69d
8010ed14:	4e09fcf2 	.word	0xf2fc094e
8010ed18:	600b2609 	j	0x84982d80
8010ed1c:	8a060000 	.word	0x68a
8010ed20:	4c2ea700 	syscall	0x29cb9
8010ed24:	87056000 	.word	0x600587
8010ed28:	00000000 	nop
8010ed2c:	d9f8a436 	ori	a0,s5,0xf8d9
8010ed30:	fafe0180 	lb	at,-262(zero)
8010ed34:	29fdfe01 	.word	0x1fefd29
8010ed38:	00000000 	nop
8010ed3c:	acf4260a 	j	0x889bd2b0
8010ed40:	f4040000 	.word	0x4f4
8010ed44:	0407a0f1 	.word	0xf1a00704
8010ed48:	4b0b2e0a 	j	0x88b82d2c
8010ed4c:	f8040000 	.word	0x4f8
8010ed50:	801b5d01 	.word	0x15d1b80
8010ed54:	4eaf9800 	.word	0x98af4e
8010ed58:	00000000 	nop
8010ed5c:	44f96b35 	ori	t3,t3,0xf944
8010ed60:	66ff0180 	lb	at,-154(zero)
8010ed64:	0dfdfd01 	break	0x1fd,0x3f4
8010ed68:	00000000 	nop
8010ed6c:	a5f4530a 	j	0x894fd294
8010ed70:	84040000 	.word	0x484
8010ed74:	690658f1 	.word	0xf1580669
8010ed78:	450b670a 	j	0x899c2d14
8010ed7c:	8d040000 	break	0x0,0x12
8010ed80:	f2cceb01 	.word	0x1ebccf2
8010ed84:	add6c400 	.word	0xc4d6ad
8010ed88:	00000000 	nop
8010ed8c:	cff9a833 	andi	t0,sp,0xf9cf
8010ed90:	f2ff0180 	lb	at,-14(zero)
8010ed94:	03fdfc01 	.word	0x1fcfd03
8010ed98:	00000000 	nop
8010ed9c:	a2f4620a 	j	0x898bd288
8010eda0:	57040000 	.word	0x457
8010eda4:	2b063df1 	.word	0xf13d062b
8010eda8:	410b7d0a 	j	0x89f42d04
8010edac:	62040000 	.word	0x462
8010edb0:	38de5002 	.word	0x250de38
8010edb4:	927ae400 	.word	0xe47a92
8010edb8:	00000000 	nop
8010edbc:	70fa8531 	andi	a1,t4,0xfa70
8010edc0:	93000180 	lb	at,147(zero)
8010edc4:	fffcfc01 	.word	0x1fcfcff
8010edc8:	00000000 	nop
8010edcc:	9ff4670a 	j	0x899fd27c
8010edd0:	46040000 	.word	0x446
8010edd4:	140634f1 	.word	0xf1340614
8010edd8:	3f0b860a 	j	0x8a182cfc
8010eddc:	53040000 	.word	0x453
8010ede0:	9bf48b02 	.word	0x28bf49b
8010ede4:	959cf700 	.word	0xf79c95
8010ede8:	00000000 	nop
8010edec:	1efb2a2f 	sltiu	t2,t9,-1250
8010edf0:	44010180 	lb	at,324(zero)
8010edf4:	fffcfb01 	.word	0x1fbfcff
8010edf8:	00000000 	nop
8010edfc:	9df4650a 	j	0x8997d274
8010ee00:	46040000 	.word	0x446
8010ee04:	150634f1 	.word	0xf1340615
8010ee08:	3d0b880a 	j	0x8a202cf4
8010ee0c:	54040000 	.word	0x454
8010ee10:	d0f49c02 	.word	0x29cf4d0
8010ee14:	e23bfe00 	.word	0xfe3be2
8010ee18:	00000000 	nop
8010ee1c:	d0fbbf2c 	sltiu	ra,a1,-1072
8010ee20:	f9010180 	lb	at,505(zero)
8010ee24:	03fdfb01 	.word	0x1fbfd03
8010ee28:	00000000 	nop
8010ee2c:	9bf45c0a 	j	0x8973d26c
8010ee30:	55040000 	.word	0x455
8010ee34:	2c063ef1 	.word	0xf13e062c
8010ee38:	3b0b830a 	j	0x8a0c2cec
8010ee3c:	65040000 	.word	0x465
8010ee40:	67e68302 	.word	0x283e667
8010ee44:	9357f800 	.word	0xf85793
8010ee48:	00000000 	nop
8010ee4c:	7efc6d2a 	slti	t5,s3,-898
8010ee50:	a9020180 	lb	at,681(zero)
8010ee54:	0cfdfa01 	syscall	0x7ebf4
8010ee58:	00000000 	nop
8010ee5c:	99f44a0a 	j	0x892bd264
8010ee60:	7a040000 	.word	0x47a
8010ee64:	620655f1 	.word	0xf1550662
8010ee68:	380b750a 	j	0x89d42ce0
8010ee6c:	8c040000 	syscall	0x12
8010ee70:	6ed74002 	.word	0x240d76e
8010ee74:	34f1e500 	.word	0xe5f134
8010ee78:	00000000 	nop
8010ee7c:	20fd5c28 	slti	gp,v0,-736
8010ee80:	4d030180 	lb	at,845(zero)
8010ee84:	1ffdfa01 	.word	0x1fafd1f
8010ee88:	00000000 	nop
8010ee8c:	96f4240a 	j	0x8893d258
8010ee90:	c6040000 	.word	0x4c6
8010ee94:	d00687f1 	.word	0xf18706d0
8010ee98:	350b540a 	j	0x89502cd4
8010ee9c:	dc040000 	.word	0x4dc
8010eea0:	8e0fd401 	.word	0x1d40f8e
8010eea4:	fe07c700 	.word	0xc707fe
8010eea8:	00000000 	nop
8010eeac:	abfdb426 	addiu	s4,s5,-597
8010eeb0:	dc030180 	lb	at,988(zero)
8010eeb4:	4ffdf801 	.word	0x1f8fd4f
8010eeb8:	00000000 	nop
8010eebc:	91f4c009 	j	0x8703d244
8010eec0:	7d050000 	.word	0x57d
8010eec4:	d9070ff2 	.word	0xf20f07d9
8010eec8:	300bf609 	j	0x87d82cc0
8010eecc:	9c050000 	.word	0x59c
8010eed0:	8c783e01 	syscall	0x4f9e2
8010eed4:	ef9b9b00 	.word	0x9b9bef
8010eed8:	00000000 	nop
8010eedc:	18fe9e25 	addiu	s8,t4,-488
8010eee0:	4b040180 	lb	at,1099(zero)
8010eee4:	24fef601 	.word	0x1f6fe24
8010eee8:	00000000 	nop
8010eeec:	88f47307 	.word	0x773f488
8010eef0:	4d080000 	break	0x0,0x21
8010eef4:	e80b51f5 	.word	0xf5510be8
8010eef8:	270ba907 	.word	0x7a90b27
8010eefc:	89080000 	.word	0x889
8010ef00:	8a798700 	.word	0x87798a
8010ef04:	96ad6300 	.word	0x63ad96
8010ef08:	00000000 	nop
8010ef0c:	5dfe4325 	addiu	v1,t2,-419
8010ef10:	93040100 	.word	0x10493
8010ef14:	7f00f001 	.word	0x1f0007f
8010ef18:	00000000 	nop
8010ef1c:	6cf4ddfd 	.word	0xfdddf46c
8010ef20:	d40a0000 	.word	0xad4
8010ef24:	b20f1903 	.word	0x3190fb2
8010ef28:	090bc2fd 	.word	0xfdc20b09
8010ef2c:	5c0b0000 	.word	0xb5c
8010ef30:	a3a48d00 	.word	0x8da4a3
8010ef34:	922b8b00 	.word	0x8b2b92
8010ef38:	00000000 	nop
8010ef3c:	bffe5d25 	addiu	sp,t2,-321
8010ef40:	f6040100 	.word	0x104f6
8010ef44:	7100ff01 	.word	0x1ff0071
8010ef48:	00000000 	nop
8010ef4c:	acf40bfe 	.word	0xfe0bf4ac
8010ef50:	200b0000 	.word	0xb20
8010ef54:	c20fc502 	.word	0x2c50fc2
8010ef58:	4c0b0afe 	.word	0xfe0a0b4c
8010ef5c:	280b0000 	.word	0xb28
8010ef60:	51f50e01 	.word	0x10ef551
8010ef64:	98e20a01 	.word	0x10ae298
8010ef68:	00000000 	nop
8010ef6c:	7cff8c25 	addiu	t4,t4,-132
8010ef70:	b2050100 	.word	0x105b2
8010ef74:	6d000102 	.word	0x201006d
8010ef78:	00000000 	nop
8010ef7c:	b6f41afe 	.word	0xfe1af4b6
8010ef80:	2c0b0000 	.word	0xb2c
8010ef84:	c50faf02 	.word	0x2af0fc5
8010ef88:	550b1cfe 	.word	0xfe1c0b55
8010ef8c:	210b0000 	.word	0xb21
8010ef90:	e7967801 	.word	0x17896e7
8010ef94:	4b427301 	.word	0x173424b
8010ef98:	00000000 	nop
8010ef9c:	8200cb25 	addiu	t3,t6,130
8010efa0:	b8060100 	.word	0x106b8
8010efa4:	6b000102 	.word	0x201006b
8010efa8:	00000000 	nop
8010efac:	b8f423fe 	.word	0xfe23f4b8
8010efb0:	300b0000 	.word	0xb30
8010efb4:	c80fa102 	.word	0x2a10fc8
8010efb8:	570b26fe 	.word	0xfe260b57
8010efbc:	210b0000 	.word	0xb21
8010efc0:	c285ca01 	.word	0x1ca85c2
8010efc4:	3c49c401 	.word	0x1c4493c
8010efc8:	00000000 	nop
8010efcc:	c2011626 	addiu	s6,s0,450
8010efd0:	f7070100 	.word	0x107f7
8010efd4:	69000102 	.word	0x2010069
8010efd8:	00000000 	nop
8010efdc:	b7f42cfe 	.word	0xfe2cf4b7
8010efe0:	310b0000 	.word	0xb31
8010efe4:	ca0f9502 	.word	0x2950fca
8010efe8:	570b2efe 	.word	0xfe2e0b57
8010efec:	230b0000 	.word	0xb23
8010eff0:	77c00402 	.word	0x204c077
8010eff4:	24f7fd01 	.word	0x1fdf724
8010eff8:	00000000 	nop
8010effc:	2c036a26 	addiu	t2,s3,812
8010f000:	5f090100 	.word	0x1095f
8010f004:	67000102 	.word	0x2010067
8010f008:	00000000 	nop
8010f00c:	b5f434fe 	.word	0xfe34f4b5
8010f010:	300b0000 	.word	0xb30
8010f014:	cc0f8902 	syscall	0xa243f
8010f018:	540b36fe 	.word	0xfe360b54
8010f01c:	270b0000 	.word	0xb27
8010f020:	63482702 	.word	0x2274863
8010f024:	534c2002 	.word	0x2204c53
8010f028:	00000000 	nop
8010f02c:	ad04c126 	addiu	at,s6,1197
8010f030:	e00a0100 	.word	0x10ae0
8010f034:	65000002 	.word	0x2000065
8010f038:	00000000 	nop
8010f03c:	b1f43ffe 	.word	0xfe3ff4b1
8010f040:	2d0b0000 	.word	0xb2d
8010f044:	ce0f7b02 	.word	0x27b0fce
8010f048:	500b3ffe 	.word	0xfe3f0b50
8010f04c:	2c0b0000 	.word	0xb2c
8010f050:	c11d3202 	.word	0x2321dc1
8010f054:	2d492b02 	.word	0x22b492d
8010f058:	00000000 	nop
8010f05c:	35061927 	addiu	t9,t8,1589
8010f060:	690c0100 	.word	0x10c69
8010f064:	6200fe01 	.word	0x1fe0062
8010f068:	00000000 	nop
8010f06c:	abf44cfe 	.word	0xfe4cf4ab
8010f070:	290b0000 	.word	0xb29
8010f074:	d00f6b02 	.word	0x26b0fd0
8010f078:	4a0b4afe 	.word	0xfe4a0b4a
8010f07c:	340b0000 	.word	0xb34
8010f080:	bb422502 	.word	0x22542bb
8010f084:	9aee1e02 	.word	0x21eee9a
8010f088:	00000000 	nop
8010f08c:	b4076c27 	addiu	t4,k1,1972
8010f090:	ea0d0100 	.word	0x10dea
8010f094:	5f00fc01 	.word	0x1fc005f
8010f098:	00000000 	nop
8010f09c:	a2f45dfe 	.word	0xfe5df4a2
8010f0a0:	230b0000 	.word	0xb23
8010f0a4:	d40f5402 	.word	0x2540fd4
8010f0a8:	410b59fe 	.word	0xfe590b41
8010f0ac:	3f0b0000 	.word	0xb3f
8010f0b0:	eeb80002 	.word	0x200b8ee
8010f0b4:	b53cfb01 	.word	0x1fb3cb5
8010f0b8:	00000000 	nop
8010f0bc:	1809b627 	addiu	s6,sp,2328
8010f0c0:	530f0100 	.word	0x10f53
8010f0c4:	5900f901 	.word	0x1f90059
8010f0c8:	00000000 	nop
8010f0cc:	94f477fe 	.word	0xfe77f494
8010f0d0:	190b0000 	.word	0xb19
8010f0d4:	d90f3202 	.word	0x2320fd9
8010f0d8:	340b6ffe 	.word	0xfe6f0b34
8010f0dc:	500b0000 	.word	0xb50
8010f0e0:	ed87c401 	.word	0x1c487ed
8010f0e4:	ea36c001 	.word	0x1c036ea
8010f0e8:	00000000 	nop
8010f0ec:	510af527 	addiu	s5,ra,2641
8010f0f0:	94100100 	.word	0x11094
8010f0f4:	5000f401 	.word	0x1f40050
8010f0f8:	00000000 	nop
8010f0fc:	7ff4a2fe 	.word	0xfea2f47f
8010f100:	080b0000 	.word	0xb08
8010f104:	e00ff701 	.word	0x1f70fe0
8010f108:	1e0b96fe 	.word	0xfe960b1e
8010f10c:	6b0b0000 	.word	0xb6b
8010f110:	99ba7001 	.word	0x170ba99
8010f114:	03e06d01 	.word	0x16de003
8010f118:	00000000 	nop
8010f11c:	4d0b2328 	slti	v1,at,2893
8010f120:	9d110100 	.word	0x1119d
8010f124:	4a00eb01 	.word	0x1eb004a
8010f128:	00000000 	nop
8010f12c:	58f4c0fe 	.word	0xfec0f458
8010f130:	e20a0000 	.word	0xae2
8010f134:	e50fd301 	.word	0x1d30fe5
8010f138:	f40aacfe 	.word	0xfeac0af4
8010f13c:	950b0000 	.word	0xb95
8010f140:	09e12d01 	.word	0x12de109
8010f144:	2cef2b01 	.word	0x12bef2c
8010f148:	00000000 	nop
8010f14c:	1c0c4528 	slti	a1,v0,3100
8010f150:	76120100 	.word	0x11276
8010f154:	4a00f101 	.word	0x1f1004a
8010f158:	00000000 	nop
8010f15c:	71f4bcfe 	.word	0xfebcf471
8010f160:	fd0a0000 	.word	0xafd
8010f164:	e50fd501 	.word	0x1d50fe5
8010f168:	100baefe 	.word	0xfeae0b10
8010f16c:	7b0b0000 	.word	0xb7b
8010f170:	f2921201 	.word	0x11292f2
8010f174:	ccca1001 	syscall	0x4432b
8010f178:	00000000 	nop
8010f17c:	d90c6428 	slti	a0,v1,3289
8010f180:	3a130100 	.word	0x1133a
8010f184:	4b00f601 	.word	0x1f6004b
8010f188:	00000000 	nop
8010f18c:	88f4b8fe 	.word	0xfeb8f488
8010f190:	140b0000 	.word	0xb14
8010f194:	e40fd701 	.word	0x1d70fe4
8010f198:	270baefe 	.word	0xfeae0b27
8010f19c:	650b0000 	.word	0xb65
8010f1a0:	7eac0101 	.word	0x101ac7e
8010f1a4:	8ff9ff00 	.word	0xfff98f
8010f1a8:	00000000 	nop
8010f1ac:	8c0d8228 	slti	v0,a0,3468
8010f1b0:	f2130100 	.word	0x113f2
8010f1b4:	4b00fa01 	.word	0x1fa004b
8010f1b8:	00000000 	nop
8010f1bc:	96f4b3fe 	.word	0xfeb3f496
8010f1c0:	220b0000 	.word	0xb22
8010f1c4:	e40fdc01 	.word	0x1dc0fe4
8010f1c8:	360badfe 	.word	0xfead0b36
8010f1cc:	560b0000 	.word	0xb56
8010f1d0:	3f2afb00 	.word	0xfb2a3f
8010f1d4:	b577f900 	.word	0xf977b5
8010f1d8:	00000000 	nop
8010f1dc:	3b0e9f28 	slti	ra,a0,3643
8010f1e0:	a3140100 	.word	0x114a3
8010f1e4:	4c00fb01 	syscall	0x7ec01
8010f1e8:	00000000 	nop
8010f1ec:	9bf4affe 	.word	0xfeaff49b
8010f1f0:	260b0000 	.word	0xb26
8010f1f4:	e30fe101 	.word	0x1e10fe3
8010f1f8:	3a0ba9fe 	.word	0xfea90b3a
8010f1fc:	510b0000 	.word	0xb51
8010f200:	8609ff00 	.word	0xff0986
8010f204:	b442fd00 	.word	0xfd42b4
8010f208:	00000000 	nop
8010f20c:	ed0ebd28 	slti	sp,a1,3821
8010f210:	58150100 	.word	0x11558
8010f214:	4d00f901 	break	0x1f9,0x1
8010f218:	00000000 	nop
8010f21c:	94f4abfe 	.word	0xfeabf494
8010f220:	1f0b0000 	.word	0xb1f
8010f224:	e20fe801 	.word	0x1e80fe2
8010f228:	330ba4fe 	.word	0xfea40b33
8010f22c:	570b0000 	.word	0xb57
8010f230:	7f4b0d01 	.word	0x10d4b7f
8010f234:	235b0b01 	.word	0x10b5b23
8010f238:	00000000 	nop
8010f23c:	a70fdd28 	slti	sp,a2,4007
8010f240:	17160100 	.word	0x11617
8010f244:	4e00f501 	.word	0x1f5004e
8010f248:	00000000 	nop
8010f24c:	84f4a8fe 	.word	0xfea8f484
8010f250:	0e0b0000 	.word	0xb0e
8010f254:	e10fee01 	.word	0x1ee0fe1
8010f258:	230b9dfe 	.word	0xfe9d0b23
8010f25c:	670b0000 	.word	0xb67
8010f260:	cef12501 	.word	0x125f1ce
8010f264:	01c32301 	.word	0x123c301
8010f268:	00000000 	nop
8010f26c:	72100129 	slti	at,t0,4210
8010f270:	ea160100 	.word	0x116ea
8010f274:	5000f001 	.word	0x1f00050
8010f278:	00000000 	nop
8010f27c:	6ef4a6fe 	.word	0xfea6f46e
8010f280:	f70a0000 	.word	0xaf7
8010f284:	e10ff501 	.word	0x1f50fe1
8010f288:	0c0b96fe 	.word	0xfe960b0c
8010f28c:	7c0b0000 	.word	0xb7c
8010f290:	9b014901 	.word	0x149019b
8010f294:	797f4601 	.word	0x1467f79
8010f298:	00000000 	nop
8010f29c:	52112929 	slti	t1,t1,4434
8010f2a0:	d7170100 	.word	0x117d7
8010f2a4:	5000eb01 	.word	0x1eb0050
8010f2a8:	00000000 	nop
8010f2ac:	56f4a5fe 	.word	0xfea5f456
8010f2b0:	dd0a0000 	.word	0xadd
8010f2b4:	e00ffb01 	.word	0x1fb0fe0
8010f2b8:	f20a8ffe 	.word	0xfe8f0af2
8010f2bc:	930b0000 	.word	0xb93
8010f2c0:	9a7c7601 	.word	0x1767c9a
8010f2c4:	26927301 	.word	0x1739226
8010f2c8:	00000000 	nop
8010f2cc:	4f125829 	slti	t8,t2,4687
8010f2d0:	e7180100 	.word	0x118e7
8010f2d4:	5100e501 	.word	0x1e50051
8010f2d8:	00000000 	nop
8010f2dc:	3ef4a5fe 	.word	0xfea5f43e
8010f2e0:	c30a0000 	sra	at,zero,0xb
8010f2e4:	df0fff01 	.word	0x1ff0fdf
8010f2e8:	d90a88fe 	.word	0xfe880ad9
8010f2ec:	aa0b0000 	.word	0xbaa
8010f2f0:	ea66ae01 	.word	0x1ae66ea
8010f2f4:	22ffaa01 	.word	0x1aaff22
8010f2f8:	00000000 	nop
8010f2fc:	6f138e29 	slti	t6,t4,4975
8010f300:	221a0100 	.word	0x11a22
8010f304:	5200e001 	.word	0x1e00052
8010f308:	00000000 	nop
8010f30c:	28f4a6fe 	.word	0xfea6f428
8010f310:	ab0a0000 	.word	0xaab
8010f314:	df0f0302 	.word	0x2030fdf
8010f318:	c10a83fe 	.word	0xfe830ac1
8010f31c:	c00b0000 	sll	at,zero,0xf
8010f320:	22c0f001 	sub	t8,t7,s0
8010f324:	85c6ec01 	.word	0x1ecc685
8010f328:	00000000 	nop
8010f32c:	b914cd29 	slti	t5,t6,5305
8010f330:	901b0100 	.word	0x11b90
8010f334:	4600dc01 	.word	0x1dc0046
8010f338:	00000000 	nop
8010f33c:	15f4dbfe 	.word	0xfedbf415
8010f340:	9c0a0000 	.word	0xa9c
8010f344:	e80fb701 	.word	0x1b70fe8
8010f348:	ac0ab9fe 	.word	0xfeb90aac
8010f34c:	d90b0000 	.word	0xbd9
8010f350:	ea9a3402 	.word	0x2349aea
8010f354:	37113102 	.word	0x2311137
8010f358:	00000000 	nop
8010f35c:	1a160c2a 	slti	t4,s0,5658
8010f360:	441d0100 	.word	0x11d44
8010f364:	36009c01 	.word	0x19c0036
8010f368:	00000000 	nop
8010f36c:	19f335ff 	.word	0xff35f319
8010f370:	6d090000 	.word	0x96d
8010f374:	f10f5801 	.word	0x1580ff1
8010f378:	7509eafe 	.word	0xfeea0975
8010f37c:	db0c0000 	.word	0xcdb
8010f380:	ba386d02 	.word	0x26d38ba
8010f384:	e3dd6a02 	.word	0x26adde3
8010f388:	00000000 	nop
8010f38c:	7217422a 	slti	v0,s2,6002
8010f390:	471f0100 	.word	0x11f47
8010f394:	2a006601 	slt	zero,t3,a2
8010f398:	00000000 	nop
8010f39c:	5bf276ff 	.word	0xff76f25b
8010f3a0:	56080000 	.word	0x856
8010f3a4:	f70f0901 	.word	0x1090ff7
8010f3a8:	5a081eff 	.word	0xff1e085a
8010f3ac:	9d0d0000 	.word	0xd9d
8010f3b0:	37b99b02 	.word	0x29bb937
8010f3b4:	7c3c9a02 	.word	0x29a3c7c
8010f3b8:	00000000 	nop
8010f3bc:	b7186e2a 	slti	t6,s3,6327
8010f3c0:	8c210100 	syscall	0x486
8010f3c4:	1f003401 	.word	0x134001f
8010f3c8:	00000000 	nop
8010f3cc:	c2f1a7ff 	.word	0xffa7f1c2
8010f3d0:	46070000 	.word	0x746
8010f3d4:	fb0fc400 	.word	0xc40ffb
8010f3d8:	480752ff 	.word	0xff520748
8010f3dc:	3a0e0000 	.word	0xe3a
8010f3e0:	d0e4bf02 	.word	0x2bfe4d0
8010f3e4:	e20abf02 	.word	0x2bf0ae2
8010f3e8:	00000000 	nop
8010f3ec:	df19912a 	slti	s1,s4,6623
8010f3f0:	0a240100 	.word	0x1240a
8010f3f4:	15000301 	.word	0x1030015
8010f3f8:	00000000 	nop
8010f3fc:	40f1cdff 	.word	0xffcdf140
8010f400:	31060000 	.word	0x631
8010f404:	fd0f8400 	.word	0x840ffd
8010f408:	320686ff 	.word	0xff860632
8010f40c:	be0e0000 	.word	0xebe
8010f410:	7c0eda02 	.word	0x2da0e7c
8010f414:	70a7d902 	.word	0x2d9a770
8010f418:	00000000 	nop
8010f41c:	e01aa92a 	slti	t1,s5,6880
8010f420:	b5260100 	.word	0x126b5
8010f424:	0b00d100 	.word	0xd1000b
8010f428:	00000000 	nop
8010f42c:	d2f0eaff 	.word	0xffeaf0d2
8010f430:	0b050000 	.word	0x50b
8010f434:	ff0f4700 	.word	0x470fff
8010f438:	0b05bcff 	.word	0xffbc050b
8010f43c:	2e0f0000 	.word	0xf2e
8010f440:	18f9ea02 	.word	0x2eaf918
8010f444:	22daea02 	.word	0x2eada22
8010f448:	00000000 	nop
8010f44c:	af1bb72a 	slti	s7,s5,7087
8010f450:	82290100 	srl	a1,at,0x6
8010f454:	01009b00 	.word	0x9b0001
8010f458:	00000000 	nop
8010f45c:	75f0feff 	.word	0xfffef075
8010f460:	c8030000 	.word	0x3c8
8010f464:	ff0f0b00 	.word	0xb0fff
8010f468:	c803f5ff 	.word	0xfff503c8
8010f46c:	8b0f0000 	.word	0xf8b
8010f470:	dbe3f302 	.word	0x2f3e3db
8010f474:	09e3f302 	.word	0x2f3e309
8010f478:	00000000 	nop
8010f47c:	411cb92a 	slti	t9,s5,7233
8010f480:	682c0100 	.word	0x12c68
8010f484:	f9ff6000 	.word	0x60fff9
8010f488:	00000000 	nop
8010f48c:	2ef00700 	.word	0x7f02e
8010f490:	5e020000 	.word	0x25e
8010f494:	ff0fcfff 	.word	0xffcf0fff
8010f498:	5e023000 	.word	0x30025e
8010f49c:	d20f0000 	.word	0xfd2
8010f4a0:	f596f602 	.word	0x2f696f5
8010f4a4:	d787f602 	.word	0x2f687d7
8010f4a8:	00000000 	nop
8010f4ac:	8c1caf2a 	slti	t7,s5,7308
8010f4b0:	5b2f0100 	.word	0x12f5b
8010f4b4:	efff1f00 	.word	0x1fffef
8010f4b8:	00000000 	nop
8010f4bc:	05f00500 	.word	0x5f005
8010f4c0:	c2000000 	srl	zero,zero,0x3
8010f4c4:	fe0f90ff 	.word	0xff900ffe
8010f4c8:	c3007000 	.word	0x7000c3
8010f4cc:	f90f0000 	.word	0xff9
8010f4d0:	d28bf502 	.word	0x2f58bd2
8010f4d4:	353df502 	.word	0x2f53d35
8010f4d8:	00000000 	nop
8010f4dc:	861c9a2a 	slti	k0,s4,7302
8010f4e0:	50320100 	.word	0x13250
8010f4e4:	e4ffd50f 	jal	0x8f57ff90
8010f4e8:	00000000 	nop
8010f4ec:	0af0f5ff 	.word	0xfff5f00a
8010f4f0:	effe0000 	.word	0xfeef
8010f4f4:	fc0f4fff 	.word	0xff4f0ffc
8010f4f8:	effeb100 	.word	0xb1feef
8010f4fc:	f30f0000 	.word	0xff3
8010f500:	f60bf402 	.word	0x2f40bf6
8010f504:	f046f302 	.word	0x2f346f0
8010f508:	00000000 	nop
8010f50c:	231c782a 	slti	t8,s3,7203
8010f510:	3d350100 	.word	0x1353d
8010f514:	daff800f 	jal	0x8e03ff68
8010f518:	00000000 	nop
8010f51c:	4ff0d1ff 	.word	0xffd1f04f
8010f520:	e1fc0000 	.word	0xfce1
8010f524:	f80f0dff 	.word	0xff0d0ff8
8010f528:	e0fcee00 	.word	0xeefce0
8010f52c:	a90f0000 	.word	0xfa9
8010f530:	8748f602 	.word	0x2f64887
8010f534:	17d2f402 	.word	0x2f4d217
8010f538:	00000000 	nop
8010f53c:	5b1b492a 	slti	t1,s2,7003
8010f540:	17380100 	.word	0x13817
8010f544:	d1ff210f 	jal	0x8c87ff44
8010f548:	00000000 	nop
8010f54c:	eef09cff 	.word	0xff9cf0ee
8010f550:	a6fa0000 	.word	0xfaa6
8010f554:	f50fd5fe 	.word	0xfed50ff5
8010f558:	a2fa1901 	.word	0x119faa2
8010f55c:	080f0000 	.word	0xf08
8010f560:	ba27f602 	.word	0x2f627ba
8010f564:	d610f402 	.word	0x2f410d6
8010f568:	00000000 	nop
8010f56c:	4c1a102a 	slti	s0,s0,6732
8010f570:	d93a0100 	.word	0x13ad9
8010f574:	ccff010f 	jal	0x8c07ff30
8010f578:	00000000 	nop
8010f57c:	37f183ff 	.word	0xff83f137
8010f580:	e9f90000 	.word	0xf9e9
8010f584:	f20fb9fe 	.word	0xfeb90ff2
8010f588:	e4f92e01 	.word	0x12ef9e4
8010f58c:	bd0e0000 	.word	0xebd
8010f590:	eb2ceb02 	.word	0x2eb2ceb
8010f594:	eface802 	.word	0x2e8acef
8010f598:	00000000 	nop
8010f59c:	1a19d329 	slti	s3,t6,6426
8010f5a0:	803d0100 	sll	a3,at,0x16
8010f5a4:	c8ffd60e 	jal	0x8b5bff20
8010f5a8:	00000000 	nop
8010f5ac:	a6f163ff 	.word	0xff63f1a6
8010f5b0:	f5f80000 	.word	0xf8f5
8010f5b4:	f00f9dfe 	.word	0xfe9d0ff0
8010f5b8:	eef83e01 	.word	0x13ef8ee
8010f5bc:	4c0e0000 	syscall	0x39
8010f5c0:	2887de02 	.word	0x2de8728
8010f5c4:	a099db02 	.word	0x2db99a0
8010f5c8:	00000000 	nop
8010f5cc:	bd179229 	slti	s2,t4,6077
8010f5d0:	02400100 	srl	t0,at,0x0
8010f5d4:	c4ff9f0e 	jal	0x8a7fff10
8010f5d8:	00000000 	nop
8010f5dc:	4bf23cff 	.word	0xff3cf24b
8010f5e0:	c9f70000 	.word	0xf7c9
8010f5e4:	ee0f83fe 	.word	0xfe830fee
8010f5e8:	c0f74601 	.word	0x146f7c0
8010f5ec:	a60d0000 	.word	0xda6
8010f5f0:	45f7d202 	.word	0x2d2f745
8010f5f4:	fe9bcf02 	.word	0x2cf9bfe
8010f5f8:	00000000 	nop
8010f5fc:	2c164c29 	slti	t4,t2,5676
8010f600:	58420100 	.word	0x14258
8010f604:	c0ff5c0e 	jal	0x8973ff00
8010f608:	00000000 	nop
8010f60c:	37f30fff 	.word	0xff0ff337
8010f610:	6ff60000 	.word	0xf66f
8010f614:	ec0f6efe 	.word	0xfe6e0fec
8010f618:	63f64101 	.word	0x141f663
8010f61c:	b90c0000 	.word	0xcb9
8010f620:	8404cc02 	.word	0x2cc0484
8010f624:	7142c802 	.word	0x2c84271
8010f628:	00000000 	nop
8010f62c:	5e140329 	slti	v1,t0,5214
8010f630:	77440100 	.word	0x14477
8010f634:	beff0d0e 	jal	0x8837fef8
8010f638:	00000000 	nop
8010f63c:	7af4dffe 	.word	0xfedff47a
8010f640:	f6f40000 	.word	0xf4f6
8010f644:	ea0f5ffe 	.word	0xfe5f0fea
8010f648:	e7f42c01 	.word	0x12cf4e7
8010f64c:	760b0000 	.word	0xb76
8010f650:	53eecd02 	.word	0x2cdee53
8010f654:	07d6c902 	.word	0x2c9d607
8010f658:	00000000 	nop
8010f65c:	4d12b628 	slti	s6,a1,4685
8010f660:	56460100 	.word	0x14656
8010f664:	bdffb30d 	jal	0x86cffef4
8010f668:	00000000 	nop
8010f66c:	1ef6b3fe 	.word	0xfeb3f61e
8010f670:	7df30000 	.word	0xf37d
8010f674:	ea0f59fe 	.word	0xfe590fea
8010f678:	6cf30501 	.word	0x105f36c
8010f67c:	d4090000 	.word	0x9d4
8010f680:	4842dd02 	.word	0x2dd4248
8010f684:	0cf0d802 	syscall	0xb63c0
8010f688:	00000000 	nop
8010f68c:	f00f6728 	slti	a3,v1,4080
8010f690:	ec470100 	.word	0x147ec
8010f694:	beff520d 	jal	0x854bfef8
8010f698:	00000000 	nop
8010f69c:	18f894fe 	.word	0xfe94f818
8010f6a0:	2bf20000 	.word	0xf22b
8010f6a4:	ea0f5efe 	.word	0xfe5e0fea
8010f6a8:	18f2cf00 	.word	0xcff218
8010f6ac:	de070000 	.word	0x7de
8010f6b0:	7634fe02 	.word	0x2fe3476
8010f6b4:	30cdf902 	.word	0x2f9cd30
8010f6b8:	00000000 	nop
8010f6bc:	3f0d1528 	slti	s5,zero,3391
8010f6c0:	31490100 	.word	0x14931
8010f6c4:	c0ffef0c 	jal	0x83bfff00
8010f6c8:	00000000 	nop
8010f6cc:	49fa87fe 	.word	0xfe87fa49
8010f6d0:	22f10000 	.word	0xf122
8010f6d4:	ec0f6dfe 	.word	0xfe6d0fec
8010f6d8:	0ff19000 	.word	0x90f10f
8010f6dc:	b0050000 	.word	0x5b0
8010f6e0:	5cde3303 	.word	0x333de5c
8010f6e4:	cf882f03 	.word	0x32f88cf
8010f6e8:	00000000 	nop
8010f6ec:	320ac127 	addiu	at,s8,2610
8010f6f0:	1b4a0100 	.word	0x14a1b
8010f6f4:	c4ff900c 	jal	0x8243ff10
8010f6f8:	00000000 	nop
8010f6fc:	84fc8efe 	.word	0xfe8efc84
8010f700:	74f00000 	.word	0xf074
8010f704:	ee0f85fe 	.word	0xfe850fee
8010f708:	63f05200 	.word	0x52f063
8010f70c:	78030000 	.word	0x378
8010f710:	77ca7f03 	.word	0x37fca77
8010f714:	1da87b03 	.word	0x37ba81d
8010f718:	00000000 	nop
8010f71c:	c0066b27 	addiu	t3,k1,1728
8010f720:	a14a0100 	.word	0x14aa1
8010f724:	c9ff390c 	jal	0x80e7ff24
8010f728:	00000000 	nop
8010f72c:	a0fea4fe 	.word	0xfea4fea0
8010f730:	1ff00000 	.word	0xf01f
8010f734:	f10fa2fe 	.word	0xfea20ff1
8010f738:	10f01e00 	.word	0x1ef010
8010f73c:	5f010000 	.word	0x15f
8010f740:	7612e203 	.word	0x3e21276
8010f744:	dd39de03 	.word	0x3de39dd
8010f748:	00000000 	nop
8010f74c:	e2021327 	addiu	s3,t8,738
8010f750:	b94a0100 	.word	0x14ab9
8010f754:	c6ffec0b 	j	0x8fb3ff18
8010f758:	00000000 	nop
8010f75c:	800093fe 	.word	0xfe930080
8010f760:	13f00000 	.word	0xf013
8010f764:	ef0f93fe 	.word	0xfe930fef
8010f768:	03f0f5ff 	.word	0xfff5f003
8010f76c:	80ff0000 	sll	ra,zero,0x1e
8010f770:	f19ecb03 	.word	0x3cb9ef1
8010f774:	90a5c703 	.word	0x3c7a590
8010f778:	00000000 	nop
8010f77c:	1dffbc26 	addiu	gp,s5,-227
8010f780:	874a0100 	.word	0x14a87
8010f784:	bdffcf0b 	j	0x8f3ffef4
8010f788:	00000000 	nop
8010f78c:	360159fe 	.word	0xfe590136
8010f790:	22f00000 	neg	s8,zero
8010f794:	e90f58fe 	.word	0xfe580fe9
8010f798:	0cf0e0ff 	.word	0xffe0f00c
8010f79c:	ccfe0000 	syscall	0x3fb
8010f7a0:	abf73c03 	.word	0x33cf7ab
8010f7a4:	825a3803 	.word	0x3385a82
8010f7a8:	00000000 	nop
8010f7ac:	e9fb6426 	addiu	a0,s3,-1047
8010f7b0:	344a0100 	.word	0x14a34
8010f7b4:	b2ffad0b 	j	0x8eb7fec8
8010f7b8:	00000000 	nop
8010f7bc:	0a021bfe 	.word	0xfe1b020a
8010f7c0:	3ff00000 	.word	0xf03f
8010f7c4:	e20f17fe 	.word	0xfe170fe2
8010f7c8:	22f0c2ff 	.word	0xffc2f022
8010f7cc:	fafd0000 	.word	0xfdfa
8010f7d0:	632fc602 	.word	0x2c62f63
8010f7d4:	bbe1c002 	.word	0x2c0e1bb
8010f7d8:	00000000 	nop
8010f7dc:	31f90e26 	addiu	t6,s0,-1743
8010f7e0:	c6490100 	.word	0x149c6
8010f7e4:	a8ff870b 	j	0x8e1ffea0
8010f7e8:	00000000 	nop
8010f7ec:	f802defd 	.word	0xfdde02f8
8010f7f0:	6df00000 	.word	0xf06d
8010f7f4:	da0fd4fd 	.word	0xfdd40fda
8010f7f8:	48f099ff 	.word	0xff99f048
8010f7fc:	0ffd0000 	.word	0xfd0f
8010f800:	97fc6602 	.word	0x266fc97
8010f804:	adfd6002 	.word	0x260fdad
8010f808:	00000000 	nop
8010f80c:	def6b825 	addiu	t8,t5,-2338
8010f810:	43490100 	sra	t1,at,0x5
8010f814:	9dff5e0b 	j	0x8d7bfe74
8010f818:	00000000 	nop
8010f81c:	f303a7fd 	.word	0xfda703f3
8010f820:	adf00000 	.word	0xf0ad
8010f824:	d00f94fd 	.word	0xfd940fd0
8010f828:	7ff067ff 	.word	0xff67f07f
8010f82c:	19fc0000 	.word	0xfc19
8010f830:	9dac1e02 	.word	0x21eac9d
8010f834:	ee0f1802 	.word	0x2180fee
8010f838:	00000000 	nop
8010f83c:	dbf46425 	addiu	a0,t3,-2853
8010f840:	af480100 	.word	0x148af
8010f844:	95ff370b 	j	0x8cdffe54
8010f848:	00000000 	nop
8010f84c:	df047efd 	.word	0xfd7e04df
8010f850:	f8f00000 	.word	0xf0f8
8010f854:	c80f5efd 	.word	0xfd5e0fc8
8010f858:	c3f033ff 	.word	0xff33f0c3
8010f85c:	32fb0000 	.word	0xfb32
8010f860:	fa0aec01 	.word	0x1ec0afa
8010f864:	d1fee401 	.word	0x1e4fed1
8010f868:	00000000 	nop
8010f86c:	11f31125 	addiu	s1,t0,-3311
8010f870:	10480100 	.word	0x14810
8010f874:	8fff170b 	j	0x8c5ffe3c
8010f878:	00000000 	nop
8010f87c:	990566fd 	.word	0xfd660599
8010f880:	3ef10000 	.word	0xf13e
8010f884:	c10f3afd 	.word	0xfd3a0fc1
8010f888:	03f108ff 	.word	0xff08f103
8010f88c:	7dfa0000 	.word	0xfa7d
8010f890:	9a98cd01 	.word	0x1cd989a
8010f894:	8163c601 	.word	0x1c66381
8010f898:	00000000 	nop
8010f89c:	69f1bf24 	addiu	ra,a1,-3735
8010f8a0:	6b470100 	.word	0x1476b
8010f8a4:	8dff060b 	j	0x8c1bfe34
8010f8a8:	00000000 	nop
8010f8ac:	fd0563fd 	.word	0xfd6305fd
8010f8b0:	66f10000 	.word	0xf166
8010f8b4:	bf0f2efd 	.word	0xfd2e0fbf
8010f8b8:	2af1f2fe 	.word	0xfef2f12a
8010f8bc:	1bfa0000 	.word	0xfa1b
8010f8c0:	d30ac201 	.word	0x1c20ad3
8010f8c4:	6701bb01 	.word	0x1bb0167
8010f8c8:	00000000 	nop
8010f8cc:	cfef7024 	addiu	s0,v1,-4145
8010f8d0:	c4460100 	.word	0x146c4
8010f8d4:	90ff080b 	j	0x8c23fe40
8010f8d8:	00000000 	nop
8010f8dc:	f60575fd 	.word	0xfd7505f6
8010f8e0:	60f10000 	.word	0xf160
8010f8e4:	c30f42fd 	.word	0xfd420fc3
8010f8e8:	27f1fbfe 	.word	0xfefbf127
8010f8ec:	21fa0000 	.word	0xfa21
8010f8f0:	3feec801 	.word	0x1c8ee3f
8010f8f4:	d163c201 	.word	0x1c263d1
8010f8f8:	00000000 	nop
8010f8fc:	2bee2324 	addiu	v1,at,-4565
8010f900:	22460100 	.word	0x14622
8010f904:	99ff1b0b 	j	0x8c6ffe64
8010f908:	00000000 	nop
8010f90c:	82059efd 	.word	0xfd9e0582
8010f910:	2cf10000 	.word	0xf12c
8010f914:	cc0f76fd 	.word	0xfd760fcc
8010f918:	fbf021ff 	.word	0xff21f0fb
8010f91c:	90fa0000 	.word	0xfa90
8010f920:	07efe201 	.word	0x1e2ef07
8010f924:	4b25dd01 	.word	0x1dd254b
8010f928:	00000000 	nop
8010f92c:	67ecd823 	addi	t8,s8,-5017
8010f930:	89450100 	.word	0x14589
8010f934:	a5ff3d0b 	j	0x8cf7fe94
8010f938:	00000000 	nop
8010f93c:	b704ddfd 	.word	0xfddd04b7
8010f940:	ddf00000 	.word	0xf0dd
8010f944:	d70fc3fd 	.word	0xfdc30fd7
8010f948:	b7f058ff 	.word	0xff58f0b7
8010f94c:	54fb0000 	.word	0xfb54
8010f950:	02871102 	.word	0x2118702
8010f954:	14a30c02 	.word	0x20ca314
8010f958:	00000000 	nop
8010f95c:	6dea9123 	addi	s1,gp,-5523
8010f960:	fe440100 	.word	0x144fe
8010f964:	a9ff670b 	j	0x8d9ffea4
8010f968:	00000000 	nop
8010f96c:	bb03eefd 	.word	0xfdee03bb
8010f970:	95f00000 	.word	0xf095
8010f974:	db0fdffd 	.word	0xfddf0fdb
8010f978:	71f081ff 	.word	0xff81f071
8010f97c:	4efc0000 	.word	0xfc4e
8010f980:	9f0a1902 	.word	0x2190a9f
8010f984:	89991402 	.word	0x2149989
8010f988:	00000000 	nop
8010f98c:	63e84c23 	addi	t4,k0,-6045
8010f990:	96440100 	.word	0x14496
8010f994:	a6ff990b 	j	0x8e67fe98
8010f998:	00000000 	nop
8010f99c:	8502cffd 	.word	0xfdcf0285
8010f9a0:	5bf00000 	.word	0xf05b
8010f9a4:	d80fc8fd 	.word	0xfdc80fd8
8010f9a8:	34f0a7ff 	.word	0xffa7f034
8010f9ac:	81fd0000 	.word	0xfd81
8010f9b0:	9c20f101 	.word	0x1f1209c
8010f9b4:	2eabec01 	.word	0x1ecab2e
8010f9b8:	00000000 	nop
8010f9bc:	7ae60923 	addi	t1,t8,-6534
8010f9c0:	5a440100 	.word	0x1445a
8010f9c4:	a3ffc80b 	j	0x8f23fe8c
8010f9c8:	00000000 	nop
8010f9cc:	6201b8fd 	.word	0xfdb80162
8010f9d0:	3af00000 	.word	0xf03a
8010f9d4:	d50fb6fd 	.word	0xfdb60fd5
8010f9d8:	10f0ceff 	.word	0xffcef010
8010f9dc:	a2fe0000 	.word	0xfea2
8010f9e0:	b76fd101 	.word	0x1d16fb7
8010f9e4:	f3f3cc01 	.word	0x1ccf3f3
8010f9e8:	00000000 	nop
8010f9ec:	ade4c922 	addi	t1,s6,-6995
8010f9f0:	40440100 	sll	t0,at,0x11
8010f9f4:	a0fff00b 	j	0x8fc3fe80
8010f9f8:	00000000 	nop
8010f9fc:	6700a7fd 	.word	0xfda70067
8010fa00:	2ef00000 	.word	0xf02e
8010fa04:	d30fa7fd 	.word	0xfda70fd3
8010fa08:	02f0f1ff 	.word	0xfff1f002
8010fa0c:	9aff0000 	.word	0xff9a
8010fa10:	5098b801 	.word	0x1b89850
8010fa14:	1412b401 	.word	0x1b41214
8010fa18:	00000000 	nop
8010fa1c:	f9e28a22 	addi	t2,s4,-7431
8010fa20:	40440100 	sll	t0,at,0x11
8010fa24:	9fff0e0c 	jal	0x803bfe7c
8010fa28:	00000000 	nop
8010fa2c:	a9ff9cfd 	.word	0xfd9cffa9
8010fa30:	30f00000 	.word	0xf030
8010fa34:	d10f9cfd 	.word	0xfd9c0fd1
8010fa38:	01f00d00 	.word	0xdf001
8010fa3c:	56000000 	.word	0x56
8010fa40:	8d50a501 	break	0x1a5,0x142
8010fa44:	f7b9a001 	.word	0x1a0b9f7
8010fa48:	00000000 	nop
8010fa4c:	59e14c22 	addi	t4,s2,-7847
8010fa50:	4f440100 	.word	0x1444f
8010fa54:	9dff200c 	jal	0x8083fe74
8010fa58:	00000000 	nop
8010fa5c:	3aff93fd 	.word	0xfd93ff3a
8010fa60:	35f00000 	.word	0xf035
8010fa64:	d00f93fd 	.word	0xfd930fd0
8010fa68:	05f01e00 	.word	0x1ef005
8010fa6c:	c4000000 	.word	0xc4
8010fa70:	8ba09601 	.word	0x196a08b
8010fa74:	fcf09101 	.word	0x191f0fc
8010fa78:	00000000 	nop
8010fa7c:	c7df0e22 	addi	t6,s0,-8249
8010fa80:	64440100 	.word	0x14464
8010fa84:	9cff230c 	jal	0x808ffe70
8010fa88:	00000000 	nop
8010fa8c:	27ff8cfd 	.word	0xfd8cff27
8010fa90:	37f00000 	.word	0xf037
8010fa94:	cf0f8cfd 	.word	0xfd8c0fcf
8010fa98:	06f02100 	srlv	s8,at,at
8010fa9c:	d7000000 	.word	0xd7
8010faa0:	d5168c01 	.word	0x18c16d5
8010faa4:	e1448701 	.word	0x18744e1
8010faa8:	00000000 	nop
8010faac:	41ded121 	addi	s1,t6,-8639
8010fab0:	76440100 	.word	0x14476
8010fab4:	9bff160c 	jal	0x805bfe6c
8010fab8:	00000000 	nop
8010fabc:	7aff87fd 	.word	0xfd87ff7a
8010fac0:	34f00000 	.word	0xf034
8010fac4:	ce0f86fd 	.word	0xfd860fce
8010fac8:	03f01400 	sra	s8,s4,0x0
8010facc:	84000000 	.word	0x84
8010fad0:	a6ee8501 	.word	0x185eea6
8010fad4:	e1f18001 	.word	0x180f1e1
8010fad8:	00000000 	nop
8010fadc:	c0dc9321 	addi	s3,t4,-9024
8010fae0:	7b440100 	.word	0x1447b
8010fae4:	9bfff80b 	j	0x8fe3fe6c
8010fae8:	00000000 	nop
8010faec:	370084fd 	.word	0xfd840037
8010faf0:	33f00000 	.word	0xf033
8010faf4:	ce0f84fd 	.word	0xfd840fce
8010faf8:	01f0f8ff 	.word	0xfff8f001
8010fafc:	caff0000 	.word	0xffca
8010fb00:	e71e8501 	.word	0x1851ee7
8010fb04:	c1f27f01 	.word	0x17ff2c1
8010fb08:	00000000 	nop
8010fb0c:	40db5321 	addi	s3,t2,-9408
8010fb10:	68440100 	.word	0x14468
8010fb14:	9bffc90b 	j	0x8f27fe6c
8010fb18:	00000000 	nop
8010fb1c:	5a0188fd 	.word	0xfd88015a
8010fb20:	41f00000 	.word	0xf041
8010fb24:	ce0f85fd 	.word	0xfd850fce
8010fb28:	0ff0cbff 	.word	0xffcbf00f
8010fb2c:	aafe0000 	.word	0xfeaa
8010fb30:	454c8b01 	.word	0x18b4c45
8010fb34:	bdf28501 	.word	0x185f2bd
8010fb38:	00000000 	nop
8010fb3c:	bdd91221 	addi	s2,t0,-9795
8010fb40:	36440100 	.word	0x14436
8010fb44:	9cff8d0b 	j	0x8e37fe70
8010fb48:	00000000 	nop
8010fb4c:	d00297fd 	.word	0xfd9702d0
8010fb50:	70f00000 	.word	0xf070
8010fb54:	cf0f8dfd 	.word	0xfd8d0fcf
8010fb58:	40f092ff 	.word	0xff92f040
8010fb5c:	38fd0000 	.word	0xfd38
8010fb60:	50829a01 	.word	0x19a8250
8010fb64:	84059501 	.word	0x1950584
8010fb68:	00000000 	nop
8010fb6c:	33d8d020 	addi	s0,a2,-10189
8010fb70:	da430100 	.word	0x143da
8010fb74:	9eff480b 	j	0x8d23fe78
8010fb78:	00000000 	nop
8010fb7c:	7704b3fd 	.word	0xfdb30477
8010fb80:	d0f00000 	.word	0xf0d0
8010fb84:	d10f9bfd 	.word	0xfd9b0fd1
8010fb88:	a3f055ff 	.word	0xff55f0a3
8010fb8c:	96fb0000 	.word	0xfb96
8010fb90:	1d4ba301 	.word	0x1a34b1d
8010fb94:	dd849d01 	.word	0x19d84dd
8010fb98:	00000000 	nop
8010fb9c:	b2d68a20 	addi	t2,a0,-10574
8010fba0:	42430100 	srl	t0,at,0xd
8010fba4:	9affd10a 	j	0x8b47fe68
8010fba8:	00000000 	nop
8010fbac:	2c07c5fd 	.word	0xfdc5072c
8010fbb0:	e0f10000 	.word	0xf1e0
8010fbb4:	cd0f81fd 	.word	0xfd810fcd
8010fbb8:	b3f1e2fe 	.word	0xfee2f1b3
8010fbbc:	ebf80000 	.word	0xf8eb
8010fbc0:	112ca701 	.word	0x1a72c11
8010fbc4:	1e14a101 	.word	0x1a1141e
8010fbc8:	00000000 	nop
8010fbcc:	4dd54320 	addi	v1,v0,-10931
8010fbd0:	6b420100 	.word	0x1426b
8010fbd4:	98ff720a 	j	0x89cbfe60
8010fbd8:	00000000 	nop
8010fbdc:	2f09eafd 	.word	0xfdea092f
8010fbe0:	12f30000 	.word	0xf312
8010fbe4:	cb0f73fd 	.word	0xfd730fcb
8010fbe8:	e7f289fe 	.word	0xfe89f2e7
8010fbec:	eff60000 	.word	0xf6ef
8010fbf0:	3691b101 	.word	0x1b19136
8010fbf4:	964fab01 	.word	0x1ab4f96
8010fbf8:	00000000 	nop
8010fbfc:	fed3f91f 	.word	0x1ff9d3fe
8010fc00:	62410100 	.word	0x14162
8010fc04:	97ff2b0a 	j	0x88affe5c
8010fc08:	00000000 	nop
8010fc0c:	8f0a10fe 	.word	0xfe100a8f
8010fc10:	24f40000 	.word	0xf424
8010fc14:	ca0f6bfd 	.word	0xfd6b0fca
8010fc18:	fbf34cfe 	.word	0xfe4cf3fb
8010fc1c:	95f50000 	.word	0xf595
8010fc20:	70fbbc01 	.word	0x1bcfb70
8010fc24:	15a5b601 	.word	0x1b6a515
8010fc28:	00000000 	nop
8010fc2c:	c0d2ae1f 	.word	0x1faed2c0
8010fc30:	33400100 	.word	0x14033
8010fc34:	96fffa09 	j	0x87ebfe58
8010fc38:	00000000 	nop
8010fc3c:	6d0b2cfe 	.word	0xfe2c0b6d
8010fc40:	f5f40000 	.word	0xf4f5
8010fc44:	c80f63fd 	.word	0xfd630fc8
8010fc48:	cef422fe 	.word	0xfe22f4ce
8010fc4c:	baf40000 	.word	0xf4ba
8010fc50:	4ea1c501 	.word	0x1c5a14e
8010fc54:	2a3cbf01 	.word	0x1bf3c2a
8010fc58:	00000000 	nop
8010fc5c:	8fd1631f 	.word	0x1f63d18f
8010fc60:	ec3e0100 	.word	0x13eec
8010fc64:	94ffdd09 	j	0x8777fe50
8010fc68:	00000000 	nop
8010fc6c:	ea0b3bfe 	.word	0xfe3b0bea
8010fc70:	79f50000 	.word	0xf579
8010fc74:	c70f59fd 	.word	0xfd590fc7
8010fc78:	53f506fe 	.word	0xfe06f553
8010fc7c:	41f40000 	.word	0xf441
8010fc80:	5432c901 	.word	0x1c93254
8010fc84:	f5bcc201 	.word	0x1c2bcf5
8010fc88:	00000000 	nop
8010fc8c:	66d0161f 	.word	0x1f16d066
8010fc90:	993d0100 	.word	0x13d99
8010fc94:	91ffd209 	j	0x874bfe44
8010fc98:	00000000 	nop
8010fc9c:	170c38fe 	.word	0xfe380c17
8010fca0:	adf50000 	.word	0xf5ad
8010fca4:	c40f48fd 	.word	0xfd480fc4
8010fca8:	86f5f2fd 	.word	0xfdf2f586
8010fcac:	16f40000 	.word	0xf416
8010fcb0:	7391c601 	.word	0x1c69173
8010fcb4:	4605c001 	.word	0x1c00546
8010fcb8:	00000000 	nop
8010fcbc:	40cfc91e 	.word	0x1ec9cf40
8010fcc0:	483c0100 	.word	0x13c48
8010fcc4:	8dffd909 	j	0x8767fe34
8010fcc8:	00000000 	nop
8010fccc:	fb0b22fe 	.word	0xfe220bfb
8010fcd0:	91f50000 	.word	0xf591
8010fcd4:	bf0f2ffd 	.word	0xfd2f0fbf
8010fcd8:	66f5e4fd 	.word	0xfde4f566
8010fcdc:	35f40000 	.word	0xf435
8010fce0:	aba1bd01 	.word	0x1bda1ab
8010fce4:	38f7b601 	.word	0x1b6f738
8010fce8:	00000000 	nop
8010fcec:	17ce7c1e 	.word	0x1e7cce17
8010fcf0:	043b0100 	.word	0x13b04
8010fcf4:	87fff209 	j	0x87cbfe1c
8010fcf8:	00000000 	nop
8010fcfc:	900bf6fd 	.word	0xfdf60b90
8010fd00:	22f50000 	.word	0xf522
8010fd04:	b90f0cfd 	.word	0xfd0c0fb9
8010fd08:	f1f4defd 	.word	0xfddef4f1
8010fd0c:	a3f40000 	.word	0xf4a3
8010fd10:	e44daf01 	.word	0x1af4de4
8010fd14:	8e7fa801 	.word	0x1a87f8e
8010fd18:	00000000 	nop
8010fd1c:	e8cc301e 	.word	0x1e30cce8
8010fd20:	db390100 	.word	0x139db
8010fd24:	80ff200a 	j	0x8883fe00
8010fd28:	00000000 	nop
8010fd2c:	bf0aaffd 	.word	0xfdaf0abf
8010fd30:	60f40000 	.word	0xf460
8010fd34:	b00fe0fc 	.word	0xfce00fb0
8010fd38:	26f4e7fd 	.word	0xfde7f426
8010fd3c:	77f50000 	.word	0xf577
8010fd40:	64c19d01 	.word	0x19dc164
8010fd44:	7fd09601 	.word	0x196d07f
8010fd48:	00000000 	nop
8010fd4c:	adcbe51d 	.word	0x1de5cbad
8010fd50:	d9380100 	.word	0x138d9
8010fd54:	78ff680a 	j	0x89a3fde0
8010fd58:	00000000 	nop
8010fd5c:	620950fd 	.word	0xfd500962
8010fd60:	53f30000 	.word	0xf353
8010fd64:	a60faffc 	.word	0xfcaf0fa6
8010fd68:	0bf30efe 	.word	0xfe0ef30b
8010fd6c:	d2f60000 	.word	0xf6d2
8010fd70:	1bd78c01 	.word	0x18cd71b
8010fd74:	d1d58501 	.word	0x185d5d1
8010fd78:	00000000 	nop
8010fd7c:	62ca9a1d 	.word	0x1d9aca62
8010fd80:	0c380100 	syscall	0x4e0
8010fd84:	80ffcc0a 	j	0x8b33fe00
8010fd88:	00000000 	nop
8010fd8c:	4a0737fd 	.word	0xfd37074a
8010fd90:	09f20000 	.word	0xf209
8010fd94:	b00fdffc 	.word	0xfcdf0fb0
8010fd98:	c2f193fe 	.word	0xfe93f1c2
8010fd9c:	daf80000 	.word	0xf8da
8010fda0:	d9c59201 	.word	0x192c5d9
8010fda4:	3f288c01 	.word	0x18c283f
8010fda8:	00000000 	nop
8010fdac:	f6c8521d 	.word	0x1d52c8f6
8010fdb0:	6f370100 	.word	0x1376f
8010fdb4:	8eff1c0b 	j	0x8c73fe38
8010fdb8:	00000000 	nop
8010fdbc:	7c0560fd 	.word	0xfd60057c
8010fdc0:	34f10000 	.word	0xf134
8010fdc4:	c00f35fd 	.word	0xfd350fc0
8010fdc8:	f9f00bff 	.word	0xff0bf0f9
8010fdcc:	99fa0000 	.word	0xfa99
8010fdd0:	6f34ac01 	.word	0x1ac346f
8010fdd4:	a93ea601 	.word	0x1a63ea9
8010fdd8:	00000000 	nop
8010fddc:	63c70a1d 	.word	0x1d0ac763
8010fde0:	f0360100 	.word	0x136f0
8010fde4:	98ff520b 	j	0x8d4bfe60
8010fde8:	00000000 	nop
8010fdec:	3e048cfd 	.word	0xfd8c043e
8010fdf0:	c6f00000 	.word	0xf0c6
8010fdf4:	cb0f74fd 	.word	0xfd740fcb
8010fdf8:	93f054ff 	.word	0xff54f093
8010fdfc:	d0fb0000 	.word	0xfbd0
8010fe00:	adebc201 	.word	0x1c2ebad
8010fe04:	da7bbd01 	.word	0x1bd7bda
8010fe08:	00000000 	nop
8010fe0c:	b3c5c51c 	.word	0x1cc5c5b3
8010fe10:	86360100 	.word	0x13686
8010fe14:	a0ff710b 	j	0x8dc7fe80
8010fe18:	00000000 	nop
8010fe1c:	7b03b0fd 	.word	0xfdb0037b
8010fe20:	8ff00000 	.word	0xf08f
8010fe24:	d20fa2fd 	.word	0xfda20fd2
8010fe28:	63f07cff 	.word	0xff7cf063
8010fe2c:	8efc0000 	.word	0xfc8e
8010fe30:	d765d401 	.word	0x1d465d7
8010fe34:	3f5bcf01 	.word	0x1cf5b3f
8010fe38:	00000000 	nop
8010fe3c:	edc3801c 	bgtz	a0,0x80100df4
8010fe40:	27360100 	.word	0x13627
8010fe44:	a5ff800b 	j	0x8e03fe94
8010fe48:	00000000 	nop
8010fe4c:	2303ccfd 	.word	0xfdcc0323
8010fe50:	78f00000 	.word	0xf078
8010fe54:	d70fc1fd 	.word	0xfdc10fd7
8010fe58:	50f090ff 	.word	0xff90f050
8010fe5c:	e5fc0000 	.word	0xfce5
8010fe60:	c760df01 	.word	0x1df60c7
8010fe64:	839eda01 	.word	0x1da9e83
8010fe68:	00000000 	nop
8010fe6c:	1cc23d1c 	.word	0x1c3dc21c
8010fe70:	ca350100 	.word	0x135ca
8010fe74:	a8ff7f0b 	j	0x8dfffea0
8010fe78:	00000000 	nop
8010fe7c:	2803e0fd 	.word	0xfde00328
8010fe80:	76f00000 	.word	0xf076
8010fe84:	da0fd5fd 	.word	0xfdd50fda
8010fe88:	51f093ff 	.word	0xff93f051
8010fe8c:	e0fc0000 	.word	0xfce0
8010fe90:	dd80e301 	.word	0x1e380dd
8010fe94:	60eede01 	.word	0x1deee60
8010fe98:	00000000 	nop
8010fe9c:	47c0fa1b 	.word	0x1bfac047
8010fea0:	67350100 	.word	0x13567
8010fea4:	aaff700b 	j	0x8dc3fea8
8010fea8:	00000000 	nop
8010feac:	8603eefd 	.word	0xfdee0386
8010feb0:	88f00000 	.word	0xf088
8010feb4:	db0fe1fd 	.word	0xfde10fdb
8010feb8:	65f089ff 	.word	0xff89f065
8010febc:	82fc0000 	srl	ra,zero,0x12
8010fec0:	b026e101 	.word	0x1e126b0
8010fec4:	0bafdc01 	.word	0x1dcaf0b
8010fec8:	00000000 	nop
8010fecc:	78beb91b 	.word	0x1bb9be78
8010fed0:	f4340100 	.word	0x134f4
8010fed4:	abff510b 	j	0x8d47feac
8010fed8:	00000000 	nop
8010fedc:	3f04f9fd 	.word	0xfdf9043f
8010fee0:	b6f00000 	.word	0xf0b6
8010fee4:	dc0fe6fd 	.word	0xfde60fdc
8010fee8:	94f072ff 	.word	0xff72f094
8010feec:	cafb0000 	.word	0xfbca
8010fef0:	e878d901 	.word	0x1d978e8
8010fef4:	7e0bd501 	.word	0x1d50b7e
8010fef8:	00000000 	nop
8010fefc:	b9bc781b 	.word	0x1b78bcb9
8010ff00:	68340100 	.word	0x13468
8010ff04:	abff220b 	j	0x8c8bfeac
8010ff08:	00000000 	nop
8010ff0c:	590506fe 	.word	0xfe060559
8010ff10:	0ef10000 	.word	0xf10e
8010ff14:	dc0fe7fd 	.word	0xfde70fdc
8010ff18:	ecf04dff 	.word	0xff4df0ec
8010ff1c:	b3fa0000 	.word	0xfab3
8010ff20:	dd88ce01 	.word	0x1ce88dd
8010ff24:	3c19ca01 	.word	0x1ca193c
8010ff28:	00000000 	nop
8010ff2c:	11bb381b 	.word	0x1b38bb11
8010ff30:	bb330100 	.word	0x133bb
8010ff34:	abffe00a 	j	0x8b83feac
8010ff38:	00000000 	nop
8010ff3c:	d8061cfe 	.word	0xfe1c06d8
8010ff40:	aaf10000 	.word	0xf1aa
8010ff44:	dc0fe9fd 	.word	0xfde90fdc
8010ff48:	8af11bff 	.word	0xff1bf18a
8010ff4c:	37f90000 	.word	0xf937
8010ff50:	db94c301 	.word	0x1c394db
8010ff54:	c01ebf01 	.word	0x1bf1ec0
8010ff58:	00000000 	nop
8010ff5c:	8ab9f91a 	.word	0x1af9b98a
8010ff60:	e2320100 	.word	0x132e2
8010ff64:	acff890a 	j	0x8a27feb0
8010ff68:	00000000 	nop
8010ff6c:	b50843fe 	.word	0xfe4308b5
8010ff70:	b1f20000 	.word	0xf2b1
8010ff74:	dd0feefd 	.word	0xfdee0fdd
8010ff78:	94f2e0fe 	.word	0xfee0f294
8010ff7c:	5ef70000 	.word	0xf75e
8010ff80:	8b40bd01 	.word	0x1bd408b
8010ff84:	f7cab801 	.word	0x1b8caf7
8010ff88:	00000000 	nop
8010ff8c:	2cb8ba1a 	.word	0x1abab82c
8010ff90:	d5310100 	.word	0x131d5
8010ff94:	afff1d0a 	j	0x8877febc
8010ff98:	00000000 	nop
8010ff9c:	cd0a88fe 	.word	0xfe880acd
8010ffa0:	4af40000 	.word	0xf44a
8010ffa4:	e00f02fe 	.word	0xfe020fe0
8010ffa8:	33f4a8fe 	.word	0xfea8f433
8010ffac:	49f50000 	.word	0xf549
8010ffb0:	ef37b601 	.word	0x1b637ef
8010ffb4:	fdc1b101 	.word	0x1b1c1fd
8010ffb8:	00000000 	nop
8010ffbc:	17b77c1a 	.word	0x1a7cb717
8010ffc0:	88300100 	.word	0x13088
8010ffc4:	b0ff7109 	j	0x85c7fec0
8010ffc8:	00000000 	nop
8010ffcc:	830df2fe 	.word	0xfef20d83
8010ffd0:	80f70000 	sll	s8,zero,0x1e
8010ffd4:	e00f07fe 	.word	0xfe070fe0
8010ffd8:	6ff755fe 	.word	0xfe55f76f
8010ffdc:	98f20000 	.word	0xf298
8010ffe0:	4794bd01 	.word	0x1bd9447
8010ffe4:	c358b901 	.word	0x1b958c3
8010ffe8:	00000000 	nop
8010ffec:	56b63f1a 	.word	0x1a3fb656
8010fff0:	fb2e0100 	.word	0x12efb
8010fff4:	b4ffe608 	j	0x839bfed0
8010fff8:	00000000 	nop
8010fffc:	040f5bff 	.word	0xff5b0f04
80110000:	86fa0000 	.word	0xfa86
80110004:	e30f20fe 	.word	0xfe200fe3
80110008:	7cfa3efe 	.word	0xfe3efa7c
8011000c:	16f10000 	.word	0xf116
80110010:	febad601 	.word	0x1d6bafe
80110014:	6af6d201 	.word	0x1d2f66a
80110018:	00000000 	nop
8011001c:	d9b5031a 	.word	0x1a03b5d9
80110020:	392d0100 	.word	0x12d39
80110024:	baff8408 	j	0x8213fee8
80110028:	00000000 	nop
8011002c:	ad0fa8ff 	.word	0xffa80fad
80110030:	d3fc0000 	.word	0xfcd3
80110034:	e70f45fe 	.word	0xfe450fe7
80110038:	cefc4efe 	.word	0xfe4efcce
8011003c:	6bf00000 	.word	0xf06b
80110040:	8309f501 	.word	0x1f50983
80110044:	ccccf101 	syscall	0x7c733
80110048:	00000000 	nop
8011004c:	8fb5ca19 	.word	0x19cab58f
80110050:	4d2b0100 	break	0x1,0xad
80110054:	c0ff4408 	j	0x8113ff00
80110058:	00000000 	nop
8011005c:	e90fd7ff 	.word	0xffd70fe9
80110060:	5afe0000 	.word	0xfe5a
80110064:	eb0f6cfe 	.word	0xfe6c0feb
80110068:	58fe6efe 	.word	0xfe6efe58
8011006c:	2bf00000 	sltu	s8,zero,zero
80110070:	0a491002 	.word	0x210490a
80110074:	78900d02 	.word	0x20d9078
80110078:	00000000 	nop
8011007c:	69b59519 	.word	0x1995b569
80110080:	41290100 	.word	0x12941
80110084:	c6ff2108 	j	0x8087ff18
80110088:	00000000 	nop
8011008c:	fb0feeff 	.word	0xffee0ffb
80110090:	37ff0000 	.word	0xff37
80110094:	ef0f92fe 	.word	0xfe920fef
80110098:	37ff92fe 	.word	0xfe92ff37
8011009c:	16f00000 	.word	0xf016
801100a0:	3bf22302 	.word	0x223f23b
801100a4:	eab42102 	.word	0x221b4ea
801100a8:	00000000 	nop
801100ac:	55b56319 	.word	0x1963b555
801100b0:	1f270100 	.word	0x1271f
801100b4:	ccff1408 	j	0x8053ff30
801100b8:	00000000 	nop
801100bc:	fe0ff7ff 	.word	0xfff70ffe
801100c0:	88ff0000 	.word	0xff88
801100c4:	f20fb7fe 	.word	0xfeb70ff2
801100c8:	87ffb7fe 	.word	0xfeb7ff87
801100cc:	10f00000 	mfhi	s8
801100d0:	edfd2d02 	.word	0x22dfded
801100d4:	01332c02 	.word	0x22c3301
801100d8:	00000000 	nop
801100dc:	43b53719 	.word	0x1937b543
801100e0:	f4240100 	.word	0x124f4
801100e4:	d2ff1b08 	j	0x806fff48
801100e8:	00000000 	nop
801100ec:	fc0ff5ff 	.word	0xfff50ffc
801100f0:	5aff0000 	.word	0xff5a
801100f4:	f50fdcfe 	.word	0xfedc0ff5
801100f8:	59ffdcfe 	.word	0xfedcff59
801100fc:	0ef00000 	.word	0xf00e
80110100:	6f312e02 	.word	0x22e316f
80110104:	88d12c02 	.word	0x22cd188
80110108:	00000000 	nop
8011010c:	22b50f19 	.word	0x190fb522
80110110:	c8220100 	.word	0x122c8
80110114:	d8ff3608 	j	0x80dbff60
80110118:	00000000 	nop
8011011c:	f20fecff 	.word	0xffec0ff2
80110120:	affe0000 	.word	0xfeaf
80110124:	f80f03ff 	.word	0xff030ff8
80110128:	aefe04ff 	.word	0xff04feae
8011012c:	16f00000 	.word	0xf016
80110130:	65eb2502 	.word	0x225eb65
80110134:	acef2402 	.word	0x224efac
80110138:	00000000 	nop
8011013c:	e2b4ef18 	.word	0x18efb4e2
80110140:	a6200100 	.word	0x120a6
80110144:	dfff6708 	j	0x819fff7c
80110148:	00000000 	nop
8011014c:	cd0fe0ff 	.word	0xffe00fcd
80110150:	7efd0000 	.word	0xfd7e
80110154:	fa0f30ff 	.word	0xff300ffa
80110158:	7dfd32ff 	.word	0xff32fd7d
8011015c:	39f00000 	.word	0xf039
80110160:	f2561802 	.word	0x21856f2
80110164:	67b71702 	.word	0x217b767
80110168:	00000000 	nop
8011016c:	72b4d518 	.word	0x18d5b472
80110170:	9b1e0100 	.word	0x11e9b
80110174:	e8ffb108 	j	0x82c7ffa0
80110178:	00000000 	nop
8011017c:	6a0fd7ff 	.word	0xffd70f6a
80110180:	bafb0000 	.word	0xfbba
80110184:	fd0f67ff 	.word	0xff670ffd
80110188:	b9fb6dff 	.word	0xff6dfbb9
8011018c:	98f00000 	.word	0xf098
80110190:	79f10a02 	.word	0x20af179
80110194:	6ba10a02 	.word	0x20aa16b
80110198:	00000000 	nop
8011019c:	c1b3c318 	.word	0x18c3b3c1
801101a0:	af1c0100 	.word	0x11caf
801101a4:	f3ff1609 	j	0x845bffcc
801101a8:	00000000 	nop
801101ac:	920edeff 	.word	0xffde0e92
801101b0:	66f90000 	.word	0xf966
801101b4:	ff0facff 	.word	0xffac0fff
801101b8:	66f9b4ff 	.word	0xffb4f966
801101bc:	6ef10000 	.word	0xf16e
801101c0:	a8c6ff01 	.word	0x1ffc6a8
801101c4:	08b0ff01 	.word	0x1ffb008
801101c8:	00000000 	nop
801101cc:	c1b2b918 	.word	0x18b9b2c1
801101d0:	f41a0100 	.word	0x11af4
801101d4:	00009309 	j	0x864c0000
801101d8:	00000000 	nop
801101dc:	0b0d0000 	.word	0xd0b
801101e0:	bdf60000 	.word	0xf6bd
801101e4:	ff0f0100 	.word	0x10fff
801101e8:	bdf60000 	.word	0xf6bd
801101ec:	f5f20000 	.word	0xf2f5
801101f0:	03e60002 	.word	0x200e603
801101f4:	02e60002 	.word	0x200e602
801101f8:	00000000 	nop
801101fc:	79b1b918 	.word	0x18b9b179
80110200:	69190100 	.word	0x11969
80110204:	0e00f009 	j	0x87c00038
80110208:	00000000 	nop
8011020c:	970b3d00 	.word	0x3d0b97
80110210:	faf40000 	.word	0xf4fa
80110214:	ff0f5800 	.word	0x580fff
80110218:	f9f44000 	.word	0x40f4f9
8011021c:	6af40000 	.word	0xf46a
80110220:	ea290d02 	.word	0x20d29ea
80110224:	fc0c0d02 	.word	0x20d0cfc
80110228:	00000000 	nop
8011022c:	fdafc418 	.word	0x18c4affd
80110230:	ff170100 	.word	0x117ff
80110234:	1c002b0a 	j	0x88ac0070
80110238:	00000000 	nop
8011023c:	8d0a8400 	break	0x84,0x2a
80110240:	fdf30000 	.word	0xf3fd
80110244:	fc0fb000 	.word	0xb00ffc
80110248:	faf37400 	.word	0x74f3fa
8011024c:	75f50000 	.word	0xf575
80110250:	3a761b02 	.word	0x21b763a
80110254:	edfa1a02 	.word	0x21afaed
80110258:	00000000 	nop
8011025c:	5faedb18 	.word	0x18dbae5f
80110260:	a6160100 	.word	0x116a6
80110264:	2a00450a 	j	0x891400a8
80110268:	00000000 	nop
8011026c:	100ace00 	.word	0xce0a10
80110270:	97f30000 	.word	0xf397
80110274:	f70f0901 	.word	0x1090ff7
80110278:	90f3a700 	.word	0xa7f390
8011027c:	f5f50000 	.word	0xf5f5
80110280:	e6d32602 	.word	0x226d3e6
80110284:	5ba92502 	.word	0x225a95b
80110288:	00000000 	nop
8011028c:	b4acff18 	.word	0x18ffacb4
80110290:	4c150100 	syscall	0x455
80110294:	3900410a 	j	0x890400e4
80110298:	00000000 	nop
8011029c:	230a1501 	.word	0x1150a23
801102a0:	acf30000 	.word	0xf3ac
801102a4:	f00f6601 	.word	0x1660ff0
801102a8:	a0f3e300 	.word	0xe3f3a0
801102ac:	e7f50000 	.word	0xf5e7
801102b0:	350d2e02 	.word	0x22e0d35
801102b4:	edce2b02 	.word	0x22bceed
801102b8:	00000000 	nop
801102bc:	0dab3119 	.word	0x1931ab0d
801102c0:	e3130100 	.word	0x113e3
801102c4:	4800210a 	j	0x88840120
801102c8:	00000000 	nop
801102cc:	be0a5201 	.word	0x1520abe
801102d0:	38f40000 	.word	0xf438
801102d4:	e60fc801 	.word	0x1c80fe6
801102d8:	25f43201 	.word	0x132f425
801102dc:	54f50000 	.word	0xf554
801102e0:	d2453302 	.word	0x23345d2
801102e4:	017a2f02 	.word	0x22f7a01
801102e8:	00000000 	nop
801102ec:	7fa97219 	.word	0x1972a97f
801102f0:	5a120100 	.word	0x1125a
801102f4:	5800e409 	j	0x87900160
801102f8:	00000000 	nop
801102fc:	cd0b7501 	break	0x175,0x2f
80110300:	4cf50000 	syscall	0x3d5
80110304:	da0f2902 	.word	0x2290fda
80110308:	33f59801 	.word	0x198f533
8011030c:	4ff40000 	.word	0xf44f
80110310:	44cc3b02 	.word	0x23bcc44
80110314:	05ee3502 	.word	0x235ee05
80110318:	00000000 	nop
8011031c:	1da8c419 	.word	0x19c4a81d
80110320:	a1100100 	.word	0x110a1
80110324:	66008c09 	j	0x86300198
80110328:	00000000 	nop
8011032c:	250d6e01 	.word	0x16e0d25
80110330:	fff60000 	.word	0xf6ff
80110334:	cd0f8302 	break	0x283,0x3f
80110338:	e2f61002 	.word	0x210f6e2
8011033c:	04f30000 	.word	0xf304
80110340:	43ca4f02 	.word	0x24fca43
80110344:	06684702 	srlv	t5,a3,s2
80110348:	00000000 	nop
8011034c:	f9a6271a 	.word	0x1a27a6f9
80110350:	a70e0100 	.word	0x10ea7
80110354:	72001e09 	j	0x847801c8
80110358:	00000000 	nop
8011035c:	7d0e2e01 	.word	0x12e0e7d
80110360:	53f90000 	.word	0xf953
80110364:	c10fca02 	.word	0x2ca0fc1
80110368:	38f98702 	.word	0x287f938
8011036c:	bcf10000 	.word	0xf1bc
80110370:	34ec7802 	.word	0x278ec34
80110374:	8bd56d02 	.word	0x26dd58b
80110378:	00000000 	nop
8011037c:	27a69d1a 	.word	0x1a9da627
80110380:	5e0c0100 	.word	0x10c5e
80110384:	7900a508 	j	0x829401e4
80110388:	00000000 	nop
8011038c:	7e0fbc00 	.word	0xbc0f7e
80110390:	15fc0000 	.word	0xfc15
80110394:	b90ff402 	.word	0x2f40fb9
80110398:	03fcdc02 	.word	0x2dcfc03
8011039c:	c6f00000 	.word	0xf0c6
801103a0:	93d3bf02 	.word	0x2bfd393
801103a4:	bd35b202 	.word	0x2b235bd
801103a8:	00000000 	nop
801103ac:	bba5271b 	.word	0x1b27a5bb
801103b0:	b4090100 	.word	0x109b4
801103b4:	82002e08 	j	0x80b80208
801103b8:	00000000 	nop
801103bc:	f50f3900 	.word	0x390ff5
801103c0:	e7fe0000 	.word	0xfee7
801103c4:	ae0f2f03 	.word	0x32f0fae
801103c8:	e1fe2d03 	.word	0x32dfee1
801103cc:	5cf00000 	.word	0xf05c
801103d0:	83181203 	.word	0x3121883
801103d4:	5560ff02 	.word	0x2ff6055
801103d8:	00000000 	nop
801103dc:	11a6d11b 	.word	0x1bd1a611
801103e0:	ba060100 	.word	0x106ba
801103e4:	93004f07 	.word	0x74f0093
801103e8:	00000000 	nop
801103ec:	6a0f0aff 	.word	0xff0a0f6a
801103f0:	2e040000 	.word	0x42e
801103f4:	970f9503 	.word	0x3950f97
801103f8:	49047403 	.word	0x3740449
801103fc:	fbf00000 	.word	0xf0fb
80110400:	76f77e03 	.word	0x37ef776
80110404:	5c856503 	.word	0x365855c
80110408:	00000000 	nop
8011040c:	63a7a51c 	.word	0x1ca5a763
80110410:	99030100 	.word	0x10399
80110414:	9b00b506 	.word	0x6b5009b
80110418:	00000000 	nop
8011041c:	fc0d2cfe 	.word	0xfe2c0dfc
80110420:	8c070000 	syscall	0x1e
80110424:	8c0fc503 	syscall	0xf143e
80110428:	c4074b03 	.word	0x34b07c4
8011042c:	69f20000 	.word	0xf269
80110430:	6155f703 	.word	0x3f75561
80110434:	5c9dd803 	.word	0x3d89d5c
80110438:	00000000 	nop
8011043c:	8ba99d1d 	.word	0x1d9da98b
80110440:	69000100 	.word	0x10069
80110444:	9f004a06 	.word	0x64a009f
80110448:	00000000 	nop
8011044c:	890c97fd 	.word	0xfd970c89
80110450:	a4090000 	.word	0x9a4
80110454:	850fe103 	.word	0x3e10f85
80110458:	f0090a03 	.word	0x30a09f0
8011045c:	d7f30000 	.word	0xf3d7
80110460:	1abf6004 	bltz	v1,0x801000cc
80110464:	169b3d04 	.word	0x43d9b16
80110468:	00000000 	nop
8011046c:	63acb31e 	.word	0x1eb3ac63
80110470:	45fd0100 	.word	0x1fd45
80110474:	a300fb05 	.word	0x5fb00a3
80110478:	00000000 	nop
8011047c:	3d0b2cfd 	.word	0xfd2c0b3d
80110480:	070b0000 	.word	0xb07
80110484:	7f0ffa03 	.word	0x3fa0f7f
80110488:	620bcb02 	.word	0x2cb0b62
8011048c:	1df50000 	.word	0xf51d
80110490:	a0c4ae04 	.word	0x4aec4a0
80110494:	f6ab8704 	.word	0x487abf6
80110498:	00000000 	nop
8011049c:	c4afe31f 	.word	0x1fe3afc4
801104a0:	41fa0100 	.word	0x1fa41
801104a4:	a800bb05 	.word	0x5bb00a8
801104a8:	00000000 	nop
801104ac:	110ad2fc 	.word	0xfcd20a11
801104b0:	050c0000 	.word	0xc05
801104b4:	770f1804 	.word	0x4180f77
801104b8:	6f0c9302 	.word	0x2930c6f
801104bc:	45f60000 	.word	0xf645
801104c0:	4ea4db04 	.word	0x4dba44e
801104c4:	09d7b004 	bltzal	a1,0x801060ec
801104c8:	00000000 	nop
801104cc:	8ab32721 	addi	a3,t1,-19574
801104d0:	78f70100 	.word	0x1f778
801104d4:	af008205 	.word	0x58200af
801104d8:	00000000 	nop
801104dc:	f0087bfc 	.word	0xfc7b08f0
801104e0:	cb0c0000 	.word	0xccb
801104e4:	6d0f3f04 	.word	0x43f0f6d
801104e8:	440d5f02 	.word	0x25f0d44
801104ec:	62f70000 	.word	0xf762
801104f0:	09fce404 	.word	0x4e4fc09
801104f4:	cb90b604 	.word	0x4b690cb
801104f8:	00000000 	nop
801104fc:	8fb77822 	addi	t8,s3,-18545
80110500:	01f50100 	.word	0x1f501
80110504:	b7004a05 	.word	0x54a00b7
80110508:	00000000 	nop
8011050c:	c4071dfc 	.word	0xfc1d07c4
80110510:	6f0d0000 	.word	0xd6f
80110514:	5e0f7204 	.word	0x4720f5e
80110518:	fc0d2802 	.word	0x2280dfc
8011051c:	8af80000 	.word	0xf88a
80110520:	4b88ca04 	.word	0x4ca884b
80110524:	26719804 	.word	0x4987126
80110528:	00000000 	nop
8011052c:	acbbd323 	addi	s3,s8,-17492
80110530:	f5f20100 	.word	0x1f2f5
80110534:	c2000d05 	.word	0x50d00c2
80110538:	00000000 	nop
8011053c:	6f06b1fb 	.word	0xfbb1066f
80110540:	ff0d0000 	.word	0xdff
80110544:	4a0fb504 	.word	0x4b50f4a
80110548:	a50ee401 	.word	0x1e40ea5
8011054c:	daf90000 	.word	0xf9da
80110550:	e7f88d04 	.word	0x48df8e7
80110554:	5a035804 	.word	0x458035a
80110558:	00000000 	nop
8011055c:	bcbf3225 	addiu	s2,t1,-16452
80110560:	6cf10100 	.word	0x1f16c
80110564:	d000c504 	.word	0x4c500d0
80110568:	00000000 	nop
8011056c:	c70432fb 	.word	0xfb3204c7
80110570:	7e0e0000 	.word	0xe7e
80110574:	2f0f0905 	.word	0x5090f2f
80110578:	440f8101 	.word	0x1810f44
8011057c:	77fb0000 	.word	0xfb77
80110580:	7ab73304 	.word	0x433b77a
80110584:	6293f903 	.word	0x3f99362
80110588:	00000000 	nop
8011058c:	9ac38f26 	addiu	t7,s4,-15462
80110590:	7ef00100 	.word	0x1f07e
80110594:	e1006704 	.word	0x46700e1
80110598:	00000000 	nop
8011059c:	8702a8fa 	.word	0xfaa80287
801105a0:	dd0e0000 	.word	0xedd
801105a4:	0e0f6a05 	.word	0x56a0f0e
801105a8:	cc0fdb00 	syscall	0x36c3f
801105ac:	9ffd0000 	.word	0xfd9f
801105b0:	1b2dc503 	.word	0x3c52d1b
801105b4:	1ca58603 	.word	0x386a51c
801105b8:	00000000 	nop
801105bc:	1ec7e527 	addiu	a1,ra,-14562
801105c0:	43f00100 	sra	s8,at,0x1
801105c4:	fc00e103 	.word	0x3e100fc
801105c8:	00000000 	nop
801105cc:	42fff5f9 	.word	0xf9f5ff42
801105d0:	cb0e0000 	.word	0xecb
801105d4:	cf0e0c06 	.word	0x60c0ecf
801105d8:	fb0fb9ff 	.word	0xffb90ffb
801105dc:	b0000000 	.word	0xb0
801105e0:	a3aba403 	.word	0x3a4aba3
801105e4:	a39f5803 	.word	0x3589fa3
801105e8:	00000000 	nop
801105ec:	6dca5529 	slti	s5,t2,-13715
801105f0:	c5f00100 	.word	0x1f0c5
801105f4:	16015c03 	.word	0x35c0116
801105f8:	00000000 	nop
801105fc:	0bfc94f9 	.word	0xf994fc0b
80110600:	1b0e0000 	.word	0xe1b
80110604:	8f0ea106 	bgez	s5,0x80114044
80110608:	800f5cfe 	.word	0xfe5c0f80
8011060c:	9a030000 	.word	0x39a
80110610:	cf97e003 	.word	0x3e097cf
80110614:	d2a48003 	.word	0x380a4d2
80110618:	00000000 	nop
8011061c:	bbcdff2a 	slti	ra,s7,-12869
80110620:	edf10100 	.word	0x1f1ed
80110624:	2401f102 	.word	0x2f10124
80110628:	00000000 	nop
8011062c:	8cf9a6f9 	.word	0xf9a6f98c
80110630:	300d0000 	.word	0xd30
80110634:	690ef206 	.word	0x6f20e69
80110638:	a30e33fd 	.word	0xfd330ea3
8011063c:	d1050000 	.word	0x5d1
80110640:	ca0a2004 	bltz	at,0x8011316c
80110644:	de69b103 	.word	0x3b169de
80110648:	00000000 	nop
8011064c:	00d1d62c 	sltiu	s6,a2,-12032
80110650:	a5f30100 	.word	0x1f3a5
80110654:	2b019b02 	.word	0x29b012b
80110658:	00000000 	nop
8011065c:	aef7f2f9 	.word	0xf9f2f7ae
80110660:	3f0c0000 	.word	0xc3f
80110664:	570e1707 	.word	0x7170e57
80110668:	aa0d50fc 	.word	0xfc500daa
8011066c:	75070000 	.word	0x775
80110670:	dd9a5804 	.word	0x4589add
80110674:	6548e003 	.word	0x3e04865
80110678:	00000000 	nop
8011067c:	32d4cd2e 	sltiu	t5,s6,-11214
80110680:	d7f50100 	.word	0x1f5d7
80110684:	2d015602 	.word	0x256012d
80110688:	00000000 	nop
8011068c:	49f655fa 	.word	0xfa55f649
80110690:	600b0000 	.word	0xb60
80110694:	510e2307 	.word	0x7230e51
80110698:	b60cabfb 	.word	0xfbab0cb6
8011069c:	b2080000 	.word	0x8b2
801106a0:	42b48304 	.word	0x483b442
801106a4:	f9270604 	.word	0x40627f9
801106a8:	00000000 	nop
801106ac:	48d7d930 	andi	t9,a2,0xd748
801106b0:	6df80100 	.word	0x1f86d
801106b4:	2c011e02 	.word	0x21e012c
801106b8:	00000000 	nop
801106bc:	3af5befa 	.word	0xfabef53a
801106c0:	970a0000 	.word	0xa97
801106c4:	540e1d07 	.word	0x71d0e54
801106c8:	d30b36fb 	.word	0xfb360bd3
801106cc:	a7090000 	.word	0x9a7
801106d0:	c93a9d04 	.word	0x49d3ac9
801106d4:	0c741e04 	.word	0x41e740c
801106d8:	00000000 	nop
801106dc:	38daed32 	andi	t5,s7,0xda38
801106e0:	50fb0100 	.word	0x1fb50
801106e4:	2901ee01 	.word	0x1ee0129
801106e8:	00000000 	nop
801106ec:	65f427fb 	.word	0xfb27f465
801106f0:	e2090000 	.word	0x9e2
801106f4:	5d0e0c07 	.word	0x70c0e5d
801106f8:	020be3fa 	.word	0xfae30b02
801106fc:	6c0a0000 	.word	0xa6c
80110700:	6993a204 	.word	0x4a29369
80110704:	443a2604 	.word	0x4263a44
80110708:	00000000 	nop
8011070c:	f9dcfe34 	ori	s8,a3,0xdcf9
80110710:	6afe0100 	.word	0x1fe6a
80110714:	2401c501 	.word	0x1c50124
80110718:	00000000 	nop
8011071c:	b7f38efb 	.word	0xfb8ef3b7
80110720:	3c090000 	.word	0x93c
80110724:	6a0ef006 	bltzal	s7,0x801140d0
80110728:	3f0aacfa 	.word	0xfaac0a3f
8011072c:	110b0000 	.word	0xb11
80110730:	891a9204 	.word	0x4921a89
80110734:	60951b04 	.word	0x41b9560
80110738:	00000000 	nop
8011073c:	83dfff36 	ori	ra,s7,0xdf83
80110740:	a3010100 	.word	0x101a3
80110744:	1d019f01 	.word	0x19f011d
80110748:	00000000 	nop
8011074c:	24f3f6fb 	.word	0xfbf6f324
80110750:	9e080000 	.word	0x89e
80110754:	7c0ecb06 	.word	0x6cb0e7c
80110758:	84098bfa 	.word	0xfa8b0984
8011075c:	a40b0000 	.word	0xba4
80110760:	1ccb6a04 	.word	0x46acb1c
80110764:	fd51fd03 	.word	0x3fd51fd
80110768:	00000000 	nop
8011076c:	cce1e538 	xori	a1,a3,0xe1cc
80110770:	e9040100 	.word	0x104e9
80110774:	14017a01 	.word	0x17a0114
80110778:	00000000 	nop
8011077c:	a1f261fc 	.word	0xfc61f2a1
80110780:	01080000 	.word	0x801
80110784:	930e9806 	.word	0x6980e93
80110788:	c9087efa 	.word	0xfa7e08c9
8011078c:	2e0c0000 	.word	0xc2e
80110790:	ae172c04 	.word	0x42c17ae
80110794:	91bbca03 	.word	0x3cabb91
80110798:	00000000 	nop
8011079c:	cae3a23a 	xori	v0,s5,0xe3ca
801107a0:	23080100 	negu	at,at
801107a4:	08015501 	.word	0x1550108
801107a8:	00000000 	nop
801107ac:	26f2d6fc 	.word	0xfcd6f226
801107b0:	5b070000 	.word	0x75b
801107b4:	b20e5206 	.word	0x6520eb2
801107b8:	020887fa 	.word	0xfa870802
801107bc:	b90c0000 	.word	0xcb9
801107c0:	fce3d503 	.word	0x3d5e3fc
801107c4:	f48c8303 	.word	0x3838cf4
801107c8:	00000000 	nop
801107cc:	74e52c3c 	.word	0x3c2ce574
801107d0:	3b0b0100 	.word	0x10b3b
801107d4:	06012c01 	.word	0x12c0106
801107d8:	00000000 	nop
801107dc:	adf135fd 	.word	0xfd35f1ad
801107e0:	8c060000 	syscall	0x1a
801107e4:	b70e4706 	.word	0x6470eb7
801107e8:	1f0761fa 	.word	0xfa61071f
801107ec:	2d0d0000 	.word	0xd2d
801107f0:	b8bcf703 	.word	0x3f7bcb8
801107f4:	bce0a403 	.word	0x3a4e0bc
801107f8:	00000000 	nop
801107fc:	02e7be3d 	.word	0x3dbee702
80110800:	870e0100 	.word	0x10e87
80110804:	0b011401 	.word	0x114010b
80110808:	00000000 	nop
8011080c:	6cf160fd 	.word	0xfd60f16c
80110810:	0a060000 	.word	0x60a
80110814:	ac0e6106 	bgez	s3,0x801142c8
80110818:	960630fa 	.word	0xfa300696
8011081c:	5f0d0000 	.word	0xd5f
80110820:	a5748804 	.word	0x48874a5
80110824:	075a2704 	.word	0x4275a07
80110828:	00000000 	nop
8011082c:	ace88e3f 	.word	0x3f8ee8ac
80110830:	55120100 	.word	0x11255
80110834:	0b010601 	.word	0x106010b
80110838:	00000000 	nop
8011083c:	47f181fd 	.word	0xfd81f147
80110840:	bd050000 	.word	0x5bd
80110844:	ab0e6206 	.word	0x6620eab
80110848:	420620fa 	.word	0xfa200642
8011084c:	800d0000 	sll	at,zero,0x16
80110850:	50c9f304 	.word	0x4f3c950
80110854:	f7ef8904 	.word	0x489eff7
80110858:	00000000 	nop
8011085c:	6bea8941 	.word	0x4189ea6b
80110860:	86160100 	.word	0x11686
80110864:	0801fd00 	.word	0xfd0108
80110868:	00000000 	nop
8011086c:	32f19cfd 	.word	0xfd9cf132
80110870:	91050000 	.word	0x591
80110874:	b20e5206 	.word	0x6520eb2
80110878:	0f0627fa 	.word	0xfa27060f
8011087c:	9a0d0000 	.word	0xd9a
80110880:	69593905 	.word	0x5395969
80110884:	d132cc04 	.word	0x4cc32d1
80110888:	00000000 	nop
8011088c:	37ec9b43 	c0	0x19bec37
80110890:	f81a0100 	.word	0x11af8
80110894:	0301f800 	.word	0xf80103
80110898:	00000000 	nop
8011089c:	26f1b3fd 	.word	0xfdb3f126
801108a0:	7a050000 	.word	0x57a
801108a4:	bf0e3306 	.word	0x6330ebf
801108a8:	f1053ffa 	.word	0xfa3f05f1
801108ac:	b10d0000 	.word	0xdb1
801108b0:	5c045905 	.word	0x559045c
801108b4:	6beeed04 	.word	0x4edee6b
801108b8:	00000000 	nop
801108bc:	09eead45 	.word	0x45adee09
801108c0:	8d1f0100 	break	0x1,0x7e
801108c4:	fb00f500 	.word	0xf500fb
801108c8:	00000000 	nop
801108cc:	21f1c9fd 	.word	0xfdc9f121
801108d0:	76050000 	.word	0x576
801108d4:	d30e0306 	.word	0x6030ed3
801108d8:	e5056afa 	.word	0xfa6a05e5
801108dc:	c80d0000 	.word	0xdc8
801108e0:	54df5205 	.word	0x552df54
801108e4:	8b0aef04 	.word	0x4ef0a8b
801108e8:	00000000 	nop
801108ec:	dbefad47 	c1	0x1adefdb
801108f0:	23240100 	.word	0x12423
801108f4:	ef00f600 	.word	0xf600ef
801108f8:	00000000 	nop
801108fc:	22f1e2fd 	.word	0xfde2f122
80110900:	83050000 	sra	zero,zero,0x16
80110904:	ef0ebd05 	.word	0x5bd0eef
80110908:	e805abfa 	.word	0xfaab05e8
8011090c:	e10d0000 	.word	0xde1
80110910:	bc252705 	.word	0x52725bc
80110914:	5c81cf04 	.word	0x4cf815c
80110918:	00000000 	nop
8011091c:	a4f18649 	.word	0x4986f1a4
80110920:	9a280100 	.word	0x1289a
80110924:	de00f900 	.word	0xf900de
80110928:	00000000 	nop
8011092c:	2af100fe 	.word	0xfe00f12a
80110930:	a3050000 	.word	0x5a3
80110934:	140f5905 	.word	0x5590f14
80110938:	fc050afb 	.word	0xfb0a05fc
8011093c:	fc0d0000 	.word	0xdfc
80110940:	0458d604 	.word	0x4d65804
80110944:	75618f04 	.word	0x48f6175
80110948:	00000000 	nop
8011094c:	5ef3234b 	c2	0x123f35e
80110950:	d32c0100 	.word	0x12cd3
80110954:	c5000001 	.word	0x10000c5
80110958:	00000000 	nop
8011095c:	3af12cfe 	.word	0xfe2cf13a
80110960:	dc050000 	.word	0x5dc
80110964:	450fc504 	.word	0x4c50f45
80110968:	240698fb 	.word	0xfb980624
8011096c:	1a0e0000 	.word	0xe1a
80110970:	cd6e6104 	bgez	v1,0x8012c4a8
80110974:	84cd2e04 	.word	0x42ecd84
80110978:	00000000 	nop
8011097c:	01f5714c 	.word	0x4c71f501
80110980:	ac300100 	.word	0x130ac
80110984:	9f000c01 	.word	0x10c009f
80110988:	00000000 	nop
8011098c:	57f174fe 	.word	0xfe74f157
80110990:	37060000 	.word	0x637
80110994:	860fde03 	.word	0x3de0f86
80110998:	680675fc 	.word	0xfc750668
8011099c:	390e0000 	.word	0xe39
801109a0:	f067ca03 	.word	0x3ca67f0
801109a4:	8617ae03 	.word	0x3ae1786
801109a8:	00000000 	nop
801109ac:	86f6594d 	.word	0x4d59f686
801109b0:	06340100 	.word	0x13406
801109b4:	5e002001 	.word	0x120005e
801109b8:	00000000 	nop
801109bc:	8cf103ff 	.word	0xff03f18c
801109c0:	c8060000 	.word	0x6c8
801109c4:	d50f4e02 	.word	0x24e0fd5
801109c8:	db06ebfd 	.word	0xfdeb06db
801109cc:	4e0e0000 	.word	0xe4e
801109d0:	3dee1503 	.word	0x315ee3d
801109d4:	76f80d03 	.word	0x30df876
801109d8:	00000000 	nop
801109dc:	e6f7c94d 	.word	0x4dc9f7e6
801109e0:	c1360100 	.word	0x136c1
801109e4:	2f004401 	.word	0x144002f
801109e8:	00000000 	nop
801109ec:	f3f171ff 	.word	0xff71f1f3
801109f0:	a0070000 	.word	0x7a0
801109f4:	f40f2c01 	.word	0x12c0ff4
801109f8:	a507f9fe 	.word	0xfef907a5
801109fc:	040e0000 	.word	0xe04
80110a00:	46a0e602 	.word	0x2e6a046
80110a04:	3f91e402 	.word	0x2e4913f
80110a08:	00000000 	nop
80110a0c:	35f9004e 	c3	0xf935
80110a10:	55390100 	.word	0x13955
80110a14:	39002701 	.word	0x1270039
80110a18:	00000000 	nop
80110a1c:	9ff162ff 	.word	0xff62f19f
80110a20:	fc060000 	.word	0x6fc
80110a24:	ef0f6a01 	.word	0x16a0fef
80110a28:	0307bbfe 	.word	0xfebb0703
80110a2c:	520e0000 	.word	0xe52
80110a30:	af093f03 	.word	0x33f09af
80110a34:	72ca3b03 	.word	0x33bca72
80110a38:	00000000 	nop
80110a3c:	a0fa4a4e 	c3	0x4afaa0
80110a40:	3d3c0100 	.word	0x13c3d
80110a44:	3f002c01 	.word	0x12c003f
80110a48:	00000000 	nop
80110a4c:	abf14fff 	.word	0xff4ff1ab
80110a50:	12070000 	.word	0x712
80110a54:	ec0f8e01 	.word	0x18e0fec
80110a58:	1b079bfe 	.word	0xfe9b071b
80110a5c:	440e0000 	.word	0xe44
80110a60:	a30f8703 	.word	0x3870fa3
80110a64:	37e28203 	.word	0x382e237
80110a68:	00000000 	nop
80110a6c:	3ffca04e 	c3	0xa0fc3f
80110a70:	5a3f0100 	.word	0x13f5a
80110a74:	42004901 	.word	0x1490042
80110a78:	00000000 	nop
80110a7c:	fff138ff 	.word	0xff38f1ff
80110a80:	b2070000 	.word	0x7b2
80110a84:	ea0f9f01 	.word	0x19f0fea
80110a88:	bc0795fe 	.word	0xfe9507bc
80110a8c:	ee0d0000 	.word	0xdee
80110a90:	5e36c103 	.word	0x3c1365e
80110a94:	6f77bc03 	.word	0x3bc776f
80110a98:	00000000 	nop
80110a9c:	2cfe004f 	c3	0x100fe2c
80110aa0:	8e420100 	.word	0x1428e
80110aa4:	41007b01 	.word	0x17b0041
80110aa8:	00000000 	nop
80110aac:	a3f21dff 	.word	0xff1df2a3
80110ab0:	bf080000 	.word	0x8bf
80110ab4:	eb0f9d01 	.word	0x19d0feb
80110ab8:	cb08a7fe 	.word	0xfea708cb
80110abc:	4c0d0000 	syscall	0x35
80110ac0:	1791f303 	.word	0x3f39117
80110ac4:	0aafee03 	.word	0x3eeaf0a
80110ac8:	00000000 	nop
80110acc:	7f00634f 	c3	0x163007f
80110ad0:	ba450100 	.word	0x145ba
80110ad4:	3e00c001 	.word	0x1c0003e
80110ad8:	00000000 	nop
80110adc:	a5f307ff 	.word	0xff07f3a5
80110ae0:	1e0a0000 	.word	0xa1e
80110ae4:	ed0f8801 	.word	0x1880fed
80110ae8:	2a0ad2fe 	.word	0xfed20a2a
80110aec:	4c0c0000 	syscall	0x31
80110af0:	00522704 	.word	0x4275200
80110af4:	c3c12204 	.word	0x422c1c3
80110af8:	00000000 	nop
80110afc:	5303c64f 	c3	0x1c60353
80110b00:	be480100 	.word	0x148be
80110b04:	37001602 	.word	0x2160037
80110b08:	00000000 	nop
80110b0c:	18f501ff 	.word	0xff01f518
80110b10:	a90b0000 	.word	0xba9
80110b14:	f10f5d01 	.word	0x15d0ff1
80110b18:	b40b12ff 	.word	0xff120bb4
80110b1c:	de0a0000 	.word	0xade
80110b20:	11366804 	.word	0x4683611
80110b24:	82636404 	.word	0x4646382
80110b28:	00000000 	nop
80110b2c:	c1062250 	.word	0x502206c1
80110b30:	7d4b0100 	.word	0x14b7d
80110b34:	2d007902 	.word	0x279002d
80110b38:	00000000 	nop
80110b3c:	fcf613ff 	.word	0xff13f6fc
80110b40:	2e0d0000 	.word	0xd2e
80110b44:	f50f1f01 	.word	0x11f0ff5
80110b48:	370d5eff 	.word	0xff5e0d37
80110b4c:	ff080000 	.word	0x8ff
80110b50:	622ac304 	.word	0x4c32a62
80110b54:	5860c004 	bltz	a2,0x80128cb8
80110b58:	00000000 	nop
80110b5c:	e20a7550 	.word	0x50750ae2
80110b60:	d74d0100 	.word	0x14dd7
80110b64:	2100e202 	addu	zero,s7,v0
80110b68:	00000000 	nop
80110b6c:	36f941ff 	.word	0xff41f936
80110b70:	770e0000 	.word	0xe77
80110b74:	fa0fd300 	.word	0xd30ffa
80110b78:	7c0ea7ff 	.word	0xffa70e7c
80110b7c:	c7060000 	.word	0x6c7
80110b80:	de134405 	.word	0x54413de
80110b84:	94654205 	.word	0x5426594
80110b88:	00000000 	nop
80110b8c:	cf0fb850 	.word	0x50b80fcf
80110b90:	ad4f0100 	.word	0x14fad
80110b94:	14004903 	.word	0x3490014
80110b98:	00000000 	nop
80110b9c:	95fb82ff 	.word	0xff82fb95
80110ba0:	5e0f0000 	.word	0xf5e
80110ba4:	fd0f8300 	.word	0x830ffd
80110ba8:	600fdcff 	.word	0xffdc0f60
80110bac:	6b040000 	.word	0x46b
80110bb0:	97a7f305 	.word	0x5f3a797
80110bb4:	5feaf205 	.word	0x5f2ea5f
80110bb8:	00000000 	nop
80110bbc:	a315e850 	.word	0x50e815a3
80110bc0:	e1500100 	.word	0x150e1
80110bc4:	0800a803 	.word	0x3a80008
80110bc8:	00000000 	nop
80110bcc:	dffdcaff 	.word	0xffcafddf
80110bd0:	db0f0000 	.word	0xfdb
80110bd4:	ff0f3600 	.word	0x360fff
80110bd8:	db0ff9ff 	.word	0xfff90fdb
80110bdc:	21020000 	.word	0x221
80110be0:	ec92d606 	.word	0x6d692ec
80110be4:	d16cd606 	.word	0x6d66cd1
80110be8:	00000000 	nop
80110bec:	751cfe50 	.word	0x50fe1c75
80110bf0:	55510100 	.word	0x15155
80110bf4:	0500fd03 	.word	0x3fd0005
80110bf8:	00000000 	nop
80110bfc:	eeffe0ff 	.word	0xffe0ffee
80110c00:	ff0f0000 	.word	0xfff
80110c04:	ff0f2000 	.word	0x200fff
80110c08:	ff0f0000 	.word	0xfff
80110c0c:	12000000 	mflo	zero
80110c10:	1aba2507 	.word	0x725ba1a
80110c14:	8bac2507 	.word	0x725ac8b
80110c18:	00000000 	nop
80110c1c:	93230c51 	.word	0x510c2393
80110c20:	ac500100 	.word	0x150ac
80110c24:	09007b04 	.word	0x47b0009
80110c28:	00000000 	nop
80110c2c:	0403c8ff 	.word	0xffc80304
80110c30:	b60f0000 	.word	0xfb6
80110c34:	ff0f3900 	.word	0x390fff
80110c38:	b60f0a00 	.word	0xa0fb6
80110c3c:	fcfc0000 	.word	0xfcfc
80110c40:	e2dbe106 	bgez	s7,0x80107bcc
80110c44:	47b2e106 	bgez	s7,0x800fd564
80110c48:	00000000 	nop
80110c4c:	2e2a2451 	.word	0x51242a2e
80110c50:	bf4e0100 	.word	0x14ebf
80110c54:	0d00f504 	.word	0x4f5000d
80110c58:	00000000 	nop
80110c5c:	e305b3ff 	.word	0xffb305e3
80110c60:	df0e0000 	.word	0xedf
80110c64:	ff0f5300 	.word	0x530fff
80110c68:	e00e1e00 	.word	0x1e0ee0
80110c6c:	1efa0000 	.word	0xfa1e
80110c70:	0ac4c206 	.word	0x6c2c40a
80110c74:	386ec206 	.word	0x6c26e38
80110c78:	00000000 	nop
80110c7c:	39304651 	.word	0x51463039
80110c80:	b74b0100 	.word	0x14bb7
80110c84:	11006705 	.word	0x5670011
80110c88:	00000000 	nop
80110c8c:	5f08a4ff 	.word	0xffa4085f
80110c90:	a10d0000 	.word	0xda1
80110c94:	fe0f6c00 	.word	0x6c0ffe
80110c98:	a20d3800 	.word	0x380da2
80110c9c:	a2f70000 	.word	0xf7a2
80110ca0:	1700b906 	.word	0x6b90017
80110ca4:	496eb806 	.word	0x6b86e49
80110ca8:	00000000 	nop
80110cac:	a6357351 	.word	0x517335a6
80110cb0:	c0470100 	sll	t0,at,0x1f
80110cb4:	1500ce05 	.word	0x5ce0015
80110cb8:	00000000 	nop
80110cbc:	6d0a9bff 	.word	0xff9b0a6d
80110cc0:	210c0000 	.word	0xc21
80110cc4:	fd0f8500 	.word	0x850ffd
80110cc8:	220c5600 	.word	0x560c22
80110ccc:	94f50000 	.word	0xf594
80110cd0:	c7eab606 	.word	0x6b6eac7
80110cd4:	cf0cb606 	.word	0x6b60ccf
80110cd8:	00000000 	nop
80110cdc:	673aa951 	.word	0x51a93a67
80110ce0:	03430100 	sra	t0,at,0xc
80110ce4:	19002d06 	.word	0x62d0019
80110ce8:	00000000 	nop
80110cec:	140c98ff 	.word	0xff980c14
80110cf0:	7b0a0000 	.word	0xa7b
80110cf4:	fc0f9e00 	.word	0x9e0ffc
80110cf8:	7d0a7800 	.word	0x780a7d
80110cfc:	eef30000 	.word	0xf3ee
80110d00:	7503b206 	.word	0x6b20375
80110d04:	c0c7b006 	bltzal	s5,0x80102c08
80110d08:	00000000 	nop
80110d0c:	6e3eea51 	.word	0x51ea3e6e
80110d10:	ab3d0100 	.word	0x13dab
80110d14:	1d008706 	.word	0x687001d
80110d18:	00000000 	nop
80110d1c:	650d9bff 	.word	0xff9b0d65
80110d20:	bc080000 	.word	0x8bc
80110d24:	fb0fba00 	.word	0xba0ffb
80110d28:	be089b00 	.word	0x9b08be
80110d2c:	9ef20000 	.word	0xf29e
80110d30:	5d21a306 	.word	0x6a3215d
80110d34:	7973a106 	bgez	s5,0x8012db1c
80110d38:	00000000 	nop
80110d3c:	ae413652 	.word	0x523641ae
80110d40:	e4370100 	.word	0x137e4
80110d44:	2200dd06 	.word	0x6dd0022
80110d48:	00000000 	nop
80110d4c:	6f0ea3ff 	.word	0xffa30e6f
80110d50:	e4060000 	.word	0x6e4
80110d54:	fa0fd800 	.word	0xd80ffa
80110d58:	e706c200 	.word	0xc206e7
80110d5c:	97f10000 	.word	0xf197
80110d60:	be598606 	.word	0x68659be
80110d64:	bf208406 	.word	0x68420bf
80110d68:	00000000 	nop
80110d6c:	19448c52 	.word	0x528c4419
80110d70:	d7310100 	.word	0x131d7
80110d74:	27003407 	.word	0x7340027
80110d78:	00000000 	nop
80110d7c:	390fb4ff 	.word	0xffb40f39
80110d80:	ea040000 	.word	0x4ea
80110d84:	f80ff900 	.word	0xf90ff8
80110d88:	ec04ed00 	.word	0xed04ec
80110d8c:	cff00000 	.word	0xf0cf
80110d90:	9fdf5a06 	.word	0x65adf9f
80110d94:	e4fc5706 	.word	0x657fce4
80110d98:	00000000 	nop
80110d9c:	a145ed52 	.word	0x52ed45a1
80110da0:	af2b0100 	.word	0x12baf
80110da4:	2d008f07 	.word	0x78f002d
80110da8:	00000000 	nop
80110dac:	c30fcfff 	.word	0xffcf0fc3
80110db0:	bc020000 	.word	0x2bc
80110db4:	f50f2001 	.word	0x1200ff5
80110db8:	be021c01 	.word	0x11c02be
80110dbc:	47f00000 	.word	0xf047
80110dc0:	143c2306 	.word	0x6233c14
80110dc4:	988a1f06 	.word	0x61f8a98
80110dc8:	00000000 	nop
80110dcc:	39465853 	.word	0x53584639
80110dd0:	96250100 	.word	0x12596
80110dd4:	3500f407 	.word	0x7f40035
80110dd8:	00000000 	nop
80110ddc:	ff0ffbff 	.word	0xfffb0fff
80110de0:	47000000 	.word	0x47
80110de4:	f20f4c01 	.word	0x14c0ff2
80110de8:	47004c01 	.word	0x14c0047
80110dec:	0ff00000 	.word	0xf00f
80110df0:	6fffe505 	.word	0x5e5ff6f
80110df4:	5d55e105 	bgez	t7,0x8012636c
80110df8:	00000000 	nop
80110dfc:	d245cf53 	.word	0x53cf45d2
80110e00:	b91f0100 	.word	0x11fb9
80110e04:	3d006808 	j	0x81a000f4
80110e08:	00000000 	nop
80110e0c:	cc0f3d00 	syscall	0xf43f
80110e10:	7afd0000 	.word	0xfd7a
80110e14:	ed0f8101 	.word	0x1810fed
80110e18:	77fd7c01 	.word	0x17cfd77
80110e1c:	46f00000 	.word	0xf046
80110e20:	c4858705 	.word	0x58785c4
80110e24:	c3a28105 	bgez	t4,0x800f9934
80110e28:	00000000 	nop
80110e2c:	88445054 	.word	0x54504488
80110e30:	5e1a0100 	.word	0x11a5e
80110e34:	4600ce08 	j	0x83380118
80110e38:	00000000 	nop
80110e3c:	350f8900 	.word	0x890f35
80110e40:	0ffb0000 	.word	0xfb0f
80110e44:	e80fb901 	.word	0x1b90fe8
80110e48:	08fba301 	.word	0x1a3fb08
80110e4c:	e2f00000 	.word	0xf0e2
80110e50:	44eb1a05 	.word	0x51aeb44
80110e54:	5bca1305 	.word	0x513ca5b
80110e58:	00000000 	nop
80110e5c:	9642d854 	.word	0x54d84296
80110e60:	ae150100 	.word	0x115ae
80110e64:	4d003409 	j	0x84d00134
80110e68:	00000000 	nop
80110e6c:	3f0edc00 	.word	0xdc0e3f
80110e70:	c6f80000 	.word	0xf8c6
80110e74:	e30fe401 	.word	0x1e40fe3
80110e78:	b9f8af01 	.word	0x1aff8b9
80110e7c:	daf10000 	.word	0xf1da
80110e80:	fcc4c804 	.word	0x4c8c4fc
80110e84:	6dbec004 	bltz	a2,0x8010083c
80110e88:	00000000 	nop
80110e8c:	1d406455 	.word	0x5564401d
80110e90:	9e110100 	.word	0x1119e
80110e94:	51009609 	j	0x86580144
80110e98:	00000000 	nop
80110e9c:	010d2901 	.word	0x1290d01
80110ea0:	c2f60000 	srl	s8,zero,0x1b
80110ea4:	df0fff01 	.word	0x1ff0fdf
80110ea8:	aff69f01 	.word	0x19ff6af
80110eac:	19f30000 	.word	0xf319
80110eb0:	9d388704 	.word	0x487389d
80110eb4:	33bd7e04 	.word	0x47ebd33
80110eb8:	00000000 	nop
80110ebc:	403df055 	.word	0x55f03d40
80110ec0:	280e0100 	.word	0x10e28
80110ec4:	5300f009 	j	0x87c0014c
80110ec8:	00000000 	nop
80110ecc:	990b6801 	.word	0x1680b99
80110ed0:	13f50000 	.word	0xf513
80110ed4:	de0f0b02 	.word	0x20b0fde
80110ed8:	fcf47b01 	.word	0x17bf4fc
80110edc:	7ff40000 	.word	0xf47f
80110ee0:	a64f4c04 	.word	0x44c4fa6
80110ee4:	7dd64304 	.word	0x443d67d
80110ee8:	00000000 	nop
80110eec:	1f3a7856 	.word	0x56783a1f
80110ef0:	410b0100 	.word	0x10b41
80110ef4:	5300410a 	j	0x8904014c
80110ef8:	00000000 	nop
80110efc:	240a9401 	.word	0x1940a24
80110f00:	bbf30000 	.word	0xf3bb
80110f04:	de0f0b02 	.word	0x20b0fde
80110f08:	a1f34b01 	.word	0x14bf3a1
80110f0c:	f1f50000 	.word	0xf5f1
80110f10:	84160f04 	.word	0x40f1684
80110f14:	3d0e0704 	.word	0x4070e3d
80110f18:	00000000 	nop
80110f1c:	df36f956 	.word	0x56f936df
80110f20:	e1080100 	.word	0x108e1
80110f24:	5100890a 	j	0x8a240144
80110f28:	00000000 	nop
80110f2c:	b408ae01 	.word	0x1ae08b4
80110f30:	aff20000 	.word	0xf2af
80110f34:	df0f0002 	.word	0x2000fdf
80110f38:	94f21701 	.word	0x117f294
80110f3c:	5df70000 	.word	0xf75d
80110f40:	271cc803 	.word	0x3c81c27
80110f44:	a3e6c003 	.word	0x3c0e6a3
80110f48:	00000000 	nop
80110f4c:	9f336f57 	.word	0x576f339f
80110f50:	ff060100 	.word	0x106ff
80110f54:	4e00cb0a 	j	0x8b2c0138
80110f58:	00000000 	nop
80110f5c:	5107b601 	.word	0x1b60751
80110f60:	e1f10000 	.word	0xf1e1
80110f64:	e20fed01 	.word	0x1ed0fe2
80110f68:	c6f1e100 	.word	0xe1f1c6
80110f6c:	bdf80000 	.word	0xf8bd
80110f70:	70917103 	.word	0x3719170
80110f74:	cc806b03 	syscall	0xdae03
80110f78:	00000000 	nop
80110f7c:	8330d757 	.word	0x57d73083
80110f80:	93050100 	.word	0x10593
80110f84:	4900070b 	j	0x8c1c0124
80110f88:	00000000 	nop
80110f8c:	f705ad01 	.word	0x1ad05f7
80110f90:	40f10000 	sll	s8,zero,0x5
80110f94:	e50fce01 	.word	0x1ce0fe5
80110f98:	28f1ac00 	.word	0xacf128
80110f9c:	12fa0000 	.word	0xfa12
80110fa0:	ed210703 	.word	0x30721ed
80110fa4:	fc780203 	.word	0x30278fc
80110fa8:	00000000 	nop
80110fac:	ac2d2b58 	.word	0x582b2dac
80110fb0:	93040100 	.word	0x10493
80110fb4:	4200430b 	j	0x8d0c0108
80110fb8:	00000000 	nop
80110fbc:	98048d01 	.word	0x18d0498
80110fc0:	c1f00000 	.word	0xf0c1
80110fc4:	ea0f9f01 	.word	0x19f0fea
80110fc8:	adf07700 	.word	0x77f0ad
80110fcc:	6efb0000 	.word	0xfb6e
80110fd0:	a1ca8502 	.word	0x285caa1
80110fd4:	7aba8202 	.word	0x282ba7a
80110fd8:	00000000 	nop
80110fdc:	3d2b6a58 	.word	0x586a2b3d
80110fe0:	f8030100 	.word	0x103f8
80110fe4:	3500840b 	j	0x8e1000d4
80110fe8:	00000000 	nop
80110fec:	0a034601 	.word	0x146030a
80110ff0:	59f00000 	.word	0xf059
80110ff4:	f20f4c01 	.word	0x14c0ff2
80110ff8:	4bf03f00 	.word	0x3ff04b
80110ffc:	f8fc0000 	.word	0xfcf8
80111000:	d805ec01 	.word	0x1ec05d8
80111004:	259fea01 	.word	0x1ea9f25
80111008:	00000000 	nop
8011100c:	56298f58 	.word	0x588f2956
80111010:	b7030100 	.word	0x103b7
80111014:	0f00de0b 	j	0x8f78003c
80111018:	00000000 	nop
8011101c:	db006000 	.word	0x6000db
80111020:	08f00000 	.word	0xf008
80111024:	fe0f6000 	.word	0x600ffe
80111028:	06f00500 	srlv	s8,a1,zero
8011102c:	25ff0000 	.word	0xff25
80111030:	ae2e8e01 	.word	0x18e2eae
80111034:	15138e01 	.word	0x18e1315
80111038:	00000000 	nop
8011103c:	c9279958 	.word	0x589927c9
80111040:	a5030100 	.word	0x103a5
80111044:	e7ffea0b 	j	0x8fabff9c
80111048:	00000000 	nop
8011104c:	900062ff 	.word	0xff620090
80111050:	06f00000 	srlv	s8,zero,zero
80111054:	fc0f62ff 	.word	0xff620ffc
80111058:	03f0fbff 	.word	0xfffbf003
8011105c:	70ff0000 	.word	0xff70
80111060:	89d67d01 	.word	0x17dd689
80111064:	a68f7d01 	.word	0x17d8fa6
80111068:	00000000 	nop
8011106c:	4b268a58 	.word	0x588a264b
80111070:	9d030100 	.word	0x1039d
80111074:	c5fffb0b 	j	0x8fefff14
80111078:	00000000 	nop
8011107c:	23008cfe 	.word	0xfe8c0023
80111080:	12f00000 	mflo	s8
80111084:	ee0f8cfe 	.word	0xfe8c0fee
80111088:	01f0fdff 	.word	0xfffdf001
8011108c:	ddff0000 	.word	0xffdd
80111090:	daae7001 	.word	0x170aeda
80111094:	7d396f01 	.word	0x16f397d
80111098:	00000000 	nop
8011109c:	dc246958 	.word	0x586924dc
801110a0:	a0030100 	.word	0x103a0
801110a4:	abff120c 	jal	0x804bfeac
801110a8:	00000000 	nop
801110ac:	95ffe9fd 	.word	0xfde9ff95
801110b0:	25f00000 	move	s8,zero
801110b4:	dc0fe9fd 	.word	0xfde90fdc
801110b8:	02f00e00 	srl	s8,t6,0x0
801110bc:	6a000000 	.word	0x6a
801110c0:	d1346601 	.word	0x16634d1
801110c4:	d1506301 	.word	0x16350d1
801110c8:	00000000 	nop
801110cc:	79233c58 	.word	0x583c2379
801110d0:	b0030100 	.word	0x103b0
801110d4:	9bff2e0c 	jal	0x80bbfe6c
801110d8:	00000000 	nop
801110dc:	e2fe84fd 	.word	0xfd84fee2
801110e0:	3cf00000 	.word	0xf03c
801110e4:	cd0f82fd 	.word	0xfd820fcd
801110e8:	0bf02c00 	.word	0x2cf00b
801110ec:	1b010000 	.word	0x11b
801110f0:	291e5e01 	.word	0x15e1e29
801110f4:	b3295a01 	.word	0x15a29b3
801110f8:	00000000 	nop
801110fc:	20220758 	.word	0x58072220
80111100:	d1030100 	.word	0x103d1
80111104:	95ff500c 	jal	0x8143fe54
80111108:	00000000 	nop
8011110c:	0bfe66fd 	.word	0xfd66fe0b
80111110:	56f00000 	.word	0xf056
80111114:	c80f61fd 	.word	0xfd610fc8
80111118:	1ff05200 	.word	0x52f01f
8011111c:	ee010000 	.word	0x1ee
80111120:	22645801 	.word	0x1586422
80111124:	2e235401 	.word	0x154232e
80111128:	00000000 	nop
8011112c:	d020d157 	.word	0x57d120d0
80111130:	05040100 	.word	0x10405
80111134:	9cff780c 	jal	0x81e3fe70
80111138:	00000000 	nop
8011113c:	17fd95fd 	.word	0xfd95fd17
80111140:	75f00000 	.word	0xf075
80111144:	cf0f8bfd 	.word	0xfd8b0fcf
80111148:	45f07200 	.word	0x72f045
8011114c:	e0020000 	.word	0x2e0
80111150:	b54e5501 	.word	0x1554eb5
80111154:	efa45101 	.word	0x151a4ef
80111158:	00000000 	nop
8011115c:	861fa057 	.word	0x57a01f86
80111160:	4d040100 	break	0x1,0x11
80111164:	afffa40c 	jal	0x8293febc
80111168:	00000000 	nop
8011116c:	0bfc13fe 	.word	0xfe13fc0b
80111170:	9ff00000 	.word	0xf09f
80111174:	e00f03fe 	.word	0xfe030fe0
80111178:	80f07e00 	.word	0x7ef080
8011117c:	ee030000 	.word	0x3ee
80111180:	a3725501 	.word	0x15572a3
80111184:	f4125301 	.word	0x15312f4
80111188:	00000000 	nop
8011118c:	411e7757 	.word	0x57771e41
80111190:	ad040100 	.word	0x104ad
80111194:	cfffd20c 	jal	0x834bff3c
80111198:	00000000 	nop
8011119c:	f1fad8fe 	.word	0xfed8faf1
801111a0:	def00000 	.word	0xf0de
801111a4:	f40fc8fe 	.word	0xfec80ff4
801111a8:	d3f06200 	.word	0x62f0d3
801111ac:	0b050000 	.word	0x50b
801111b0:	c2ab5901 	.word	0x159abc2
801111b4:	1dc55801 	.word	0x158c51d
801111b8:	00000000 	nop
801111bc:	fe1c5e57 	.word	0x575e1cfe
801111c0:	26050100 	.word	0x10526
801111c4:	f9ff020d 	jal	0x840bffe4
801111c8:	00000000 	nop
801111cc:	d6f9d2ff 	.word	0xffd2f9d6
801111d0:	3df10000 	.word	0xf13d
801111d4:	ff0fcfff 	.word	0xffcf0fff
801111d8:	3df11300 	.word	0x13f13d
801111dc:	2a060000 	.word	0x62a
801111e0:	ca006301 	.word	0x16300ca
801111e4:	bcfa6201 	.word	0x162fabc
801111e8:	00000000 	nop
801111ec:	bc1b5a57 	.word	0x575a1bbc
801111f0:	bb050100 	.word	0x105bb
801111f4:	2900320d 	jal	0x84c800a4
801111f8:	00000000 	nop
801111fc:	c5f8e700 	.word	0xe7f8c5
80111200:	c2f10000 	srl	s8,zero,0x7
80111204:	f70f0301 	.word	0x1030ff7
80111208:	bbf18bff 	.word	0xff8bf1bb
8011120c:	37070000 	.word	0x737
80111210:	67857201 	.word	0x1728567
80111214:	31d97101 	.word	0x171d931
80111218:	00000000 	nop
8011121c:	781a7157 	.word	0x57711a78
80111220:	6e060100 	.word	0x1066e
80111224:	7e00600d 	jal	0x858001f8
80111228:	00000000 	nop
8011122c:	c7f7a302 	.word	0x2a3f7c7
80111230:	88f20000 	.word	0xf288
80111234:	b30f1303 	.word	0x3130fb3
80111238:	47f26cfe 	.word	0xfe6cf247
8011123c:	11080000 	.word	0x811
80111240:	62217a01 	.word	0x17a2162
80111244:	22777301 	.word	0x1737722
80111248:	00000000 	nop
8011124c:	3e19b757 	.word	0x57b7193e
80111250:	33070100 	.word	0x10733
80111254:	e6007c0d 	jal	0x85f00398
80111258:	00000000 	nop
8011125c:	36f7a104 	bgez	a1,0x8010ef38
80111260:	76f30000 	.word	0xf376
80111264:	020f8a05 	.word	0x58a0f02
80111268:	a2f2f5fc 	.word	0xfcf5f2a2
8011126c:	3f080000 	.word	0x83f
80111270:	76bc7d01 	.word	0x17dbc76
80111274:	42796701 	.word	0x1677942
80111278:	00000000 	nop
8011127c:	16183858 	.word	0x58381816
80111280:	ff070100 	.word	0x107ff
80111284:	3201990d 	jal	0x866404c8
80111288:	00000000 	nop
8011128c:	9df6e005 	bltz	t7,0x8010ed04
80111290:	74f40000 	.word	0xf474
80111294:	420e4107 	bgez	k0,0x80114ba0
80111298:	0bf3bffb 	.word	0xfbbff30b
8011129c:	5d080000 	.word	0x85d
801112a0:	ce0a8801 	.word	0x1880ace
801112a4:	5ad45f01 	.word	0x15fd45a
801112a8:	00000000 	nop
801112ac:	fe16e558 	.word	0x58e516fe
801112b0:	d4080100 	.word	0x108d4
801112b4:	6301b80d 	jal	0x86e0058c
801112b8:	00000000 	nop
801112bc:	05f67c06 	.word	0x67cf605
801112c0:	50f50000 	.word	0xf550
801112c4:	ad0d4c08 	j	0x813036b4
801112c8:	80f3d3fa 	.word	0xfad3f380
801112cc:	89080000 	.word	0x889
801112d0:	65fd9301 	.word	0x193fd65
801112d4:	35945c01 	.word	0x15c9435
801112d8:	00000000 	nop
801112dc:	f315b159 	.word	0x59b115f3
801112e0:	b4090100 	.word	0x109b4
801112e4:	7b01d60d 	jal	0x875805ec
801112e8:	00000000 	nop
801112ec:	71f59a06 	.word	0x69af571
801112f0:	f5f50000 	.word	0xf5f5
801112f4:	5e0dc908 	j	0x83243578
801112f8:	fbf334fa 	.word	0xfa34f3fb
801112fc:	d3080000 	.word	0x8d3
80111300:	35509e01 	.word	0x19e5035
80111304:	41b35d01 	.word	0x15db341
80111308:	00000000 	nop
8011130c:	f1148f5a 	.word	0x5a8f14f1
80111310:	a10a0100 	.word	0x10aa1
80111314:	7b01f40d 	jal	0x87d005ec
80111318:	00000000 	nop
8011131c:	e8f45706 	.word	0x657f4e8
80111320:	61f60000 	.word	0xf661
80111324:	5b0dce08 	j	0x8338356c
80111328:	7af4e5f9 	.word	0xf9e5f47a
8011132c:	43090000 	sra	at,zero,0x5
80111330:	986fa501 	.word	0x1a56f98
80111334:	ef226301 	.word	0x16322ef
80111338:	00000000 	nop
8011133c:	f713725b 	.word	0x5b7213f7
80111340:	9d0b0100 	.word	0x10b9d
80111344:	6701100e 	jal	0x8840059c
80111348:	00000000 	nop
8011134c:	6df4c905 	.word	0x5c9f46d
80111350:	98f60000 	.word	0xf698
80111354:	a00d6208 	j	0x81883680
80111358:	f5f4f0f9 	.word	0xf9f0f4f5
8011135c:	dc090000 	.word	0x9dc
80111360:	4022a901 	.word	0x1a92240
80111364:	4bc56c01 	.word	0x16cc54b
80111368:	00000000 	nop
8011136c:	00134c5c 	.word	0x5c4c1300
80111370:	aa0c0100 	.word	0x10caa
80111374:	3e01290e 	jal	0x88a404f8
80111378:	00000000 	nop
8011137c:	02f4f804 	.word	0x4f8f402
80111380:	a6f60000 	.word	0xf6a6
80111384:	210e8107 	bgez	gp,0x80114c0c
80111388:	69f560fa 	.word	0xfa60f569
8011138c:	970a0000 	.word	0xa97
80111390:	2179aa01 	.word	0x1aa7921
80111394:	ee797a01 	.word	0x17a79ee
80111398:	00000000 	nop
8011139c:	0b12115d 	.word	0x5d11120b
801113a0:	ca0d0100 	.word	0x10dca
801113a4:	00013f0e 	jal	0x88fc0400
801113a8:	00000000 	nop
801113ac:	aaf3e703 	.word	0x3e7f3aa
801113b0:	98f60000 	.word	0xf698
801113b4:	c60e2206 	.word	0x6220ec6
801113b8:	d1f545fb 	.word	0xfb45f5d1
801113bc:	650b0000 	.word	0xb65
801113c0:	b5c2ab01 	.word	0x1abc2b5
801113c4:	dd1a8c01 	.word	0x18c1add
801113c8:	00000000 	nop
801113cc:	1311b25d 	.word	0x5db21113
801113d0:	ff0e0100 	.word	0x10eff
801113d4:	ae00510e 	jal	0x894402b8
801113d8:	00000000 	nop
801113dc:	62f39b02 	.word	0x29bf362
801113e0:	85f60000 	.word	0xf685
801113e4:	6d0f3d04 	.word	0x43d0f6d
801113e8:	2bf6a8fc 	.word	0xfca8f62b
801113ec:	2b0c0000 	.word	0xc2b
801113f0:	1094b001 	.word	0x1b09410
801113f4:	de83a101 	.word	0x1a183de
801113f8:	00000000 	nop
801113fc:	1610245e 	.word	0x5e241016
80111400:	4b100100 	.word	0x1104b
80111404:	4c00600e 	jal	0x89800130
80111408:	00000000 	nop
8011140c:	29f31d01 	.word	0x11df329
80111410:	86f60000 	.word	0xf686
80111414:	e30fde01 	.word	0x1de0fe3
80111418:	75f680fe 	.word	0xfe80f675
8011141c:	c00c0000 	sll	at,zero,0x13
80111420:	7395bd01 	.word	0x1bd9573
80111424:	c996ba01 	.word	0x1ba96c9
80111428:	00000000 	nop
8011142c:	120f575e 	.word	0x5e570f12
80111430:	b1110100 	.word	0x111b1
80111434:	e5ff6b0e 	jal	0x89afff94
80111438:	00000000 	nop
8011143c:	fff29cff 	.word	0xff9cf2ff
80111440:	b1f60000 	.word	0xf6b1
80111444:	fc0f54ff 	.word	0xff540ffc
80111448:	aff68b00 	.word	0x8bf6af
8011144c:	fe0c0000 	.word	0xcfe
80111450:	e71cbf01 	.word	0x1bf1ce7
80111454:	4cb8be01 	syscall	0x6fae1
80111458:	00000000 	nop
8011145c:	0e0e445e 	.word	0x5e440e0e
80111460:	1c130100 	.word	0x1131c
80111464:	89ff6e0e 	jal	0x89bbfe24
80111468:	00000000 	nop
8011146c:	f7f250fe 	.word	0xfe50f2f7
80111470:	e2f60000 	.word	0xf6e2
80111474:	bb0f17fd 	.word	0xfd170fbb
80111478:	bbf65f02 	.word	0x25ff6bb
8011147c:	d20c0000 	.word	0xcd2
80111480:	60f8b601 	.word	0x1b6f860
80111484:	b8aeaf01 	.word	0x1afaeb8
80111488:	00000000 	nop
8011148c:	150df55d 	.word	0x5df50d15
80111490:	7d140100 	.word	0x1147d
80111494:	42ff710e 	jal	0x89c7fd08
80111498:	00000000 	nop
8011149c:	e9f25afd 	.word	0xfd5af2e9
801114a0:	31f70000 	.word	0xf731
801114a4:	520f65fb 	.word	0xfb650f52
801114a8:	cdf6c503 	break	0x3c5,0x3db
801114ac:	890c0000 	.word	0xc89
801114b0:	2b71b901 	.word	0x1b9712b
801114b4:	ade5a601 	.word	0x1a6e5ad
801114b8:	00000000 	nop
801114bc:	230c765d 	.word	0x5d760c23
801114c0:	d7150100 	.word	0x115d7
801114c4:	13ff760e 	jal	0x89dbfc4c
801114c8:	00000000 	nop
801114cc:	d8f2c1fc 	.word	0xfcc1f2d8
801114d0:	80f70000 	sll	s8,zero,0x1e
801114d4:	f20e4bfa 	.word	0xfa4b0ef2
801114d8:	e7f6b104 	bgezal	a1,0x8010f078
801114dc:	4b0c0000 	.word	0xc4b
801114e0:	e0abc101 	.word	0x1c1abe0
801114e4:	fc61a401 	.word	0x1a461fc
801114e8:	00000000 	nop
801114ec:	350bd75c 	.word	0x5cd70b35
801114f0:	32170100 	.word	0x11732
801114f4:	fbfe7c0e 	jal	0x89f3fbec
801114f8:	00000000 	nop
801114fc:	c2f27ffc 	.word	0xfc7ff2c2
80111500:	bdf70000 	.word	0xf7bd
80111504:	ba0ec1f9 	.word	0xf9c10eba
80111508:	06f72b05 	.word	0x52bf706
8011150c:	310c0000 	.word	0xc31
80111510:	7743cc01 	.word	0x1cc4377
80111514:	c527a801 	.word	0x1a827c5
80111518:	00000000 	nop
8011151c:	490a245c 	.word	0x5c240a49
80111520:	93180100 	.word	0x11893
80111524:	fafe830e 	jal	0x8a0ffbe8
80111528:	00000000 	nop
8011152c:	a9f28afc 	.word	0xfc8af2a9
80111530:	e0f70000 	.word	0xf7e0
80111534:	b70ebaf9 	.word	0xf9ba0eb7
80111538:	2bf73b05 	.word	0x53bf72b
8011153c:	450c0000 	.word	0xc45
80111540:	3c8cd701 	.word	0x1d78c3c
80111544:	333cb201 	.word	0x1b23c33
80111548:	00000000 	nop
8011154c:	5b096c5b 	.word	0x5b6c095b
80111550:	fe190100 	.word	0x119fe
80111554:	0eff8b0e 	jal	0x8a2ffc38
80111558:	00000000 	nop
8011155c:	90f2d7fc 	.word	0xfcd7f290
80111560:	ebf70000 	.word	0xf7eb
80111564:	e60e2dfa 	.word	0xfa2d0ee6
80111568:	53f7e504 	.word	0x4e5f753
8011156c:	840c0000 	.word	0xc84
80111570:	636de301 	.word	0x1e36d63
80111574:	33a3c201 	.word	0x1c2a333
80111578:	00000000 	nop
8011157c:	6908bd5a 	.word	0x5abd0869
80111580:	7a1b0100 	.word	0x11b7a
80111584:	34ff920e 	jal	0x8a4bfcd0
80111588:	00000000 	nop
8011158c:	75f261fd 	.word	0xfd61f275
80111590:	e6f70000 	.word	0xf7e6
80111594:	380f13fb 	.word	0xfb130f38
80111598:	7cf72b04 	.word	0x42bf77c
8011159c:	e20c0000 	.word	0xce2
801115a0:	be41f101 	.word	0x1f141be
801115a4:	1a60d901 	.word	0x1d9601a
801115a8:	00000000 	nop
801115ac:	7007255a 	.word	0x5a250770
801115b0:	0c1d0100 	syscall	0x474
801115b4:	6cff9a0e 	jal	0x8a6bfdb0
801115b8:	00000000 	nop
801115bc:	5cf21efe 	.word	0xfe1ef25c
801115c0:	dbf70000 	.word	0xf7db
801115c4:	960f66fc 	.word	0xfc660f96
801115c8:	a4f71203 	.word	0x312f7a4
801115cc:	4a0d0000 	.word	0xd4a
801115d0:	4d910302 	break	0x203,0x245
801115d4:	be73f601 	.word	0x1f673be
801115d8:	00000000 	nop
801115dc:	6c06b159 	.word	0x59b1066c
801115e0:	ba1e0100 	.word	0x11eba
801115e4:	b2ffa10e 	jal	0x8a87fec8
801115e8:	00000000 	nop
801115ec:	45f204ff 	.word	0xff04f245
801115f0:	dbf70000 	.word	0xf7db
801115f4:	e20f14fe 	.word	0xfe140fe2
801115f8:	cbf7a701 	.word	0x1a7f7cb
801115fc:	a20d0000 	.word	0xda2
80111600:	c7c51d02 	.word	0x21dc5c7
80111604:	73df1902 	.word	0x219df73
80111608:	00000000 	nop
8011160c:	5a057059 	.word	0x5970055a
80111610:	89200100 	.word	0x12089
80111614:	0000a80e 	jal	0x8aa00000
80111618:	00000000 	nop
8011161c:	2ff2ffff 	.word	0xfffff22f
80111620:	eff70000 	.word	0xf7ef
80111624:	ff0ffeff 	.word	0xfffe0fff
80111628:	eff70100 	.word	0x1f7ef
8011162c:	d10d0000 	.word	0xdd1
80111630:	aca14302 	.word	0x243a1ac
80111634:	a7a14302 	.word	0x243a1a7
80111638:	00000000 	nop
8011163c:	38047059 	.word	0x59700438
80111640:	7f220100 	.word	0x1227f
80111644:	5300ae0e 	jal	0x8ab8014c
80111648:	00000000 	nop
8011164c:	1cf20401 	.word	0x104f21c
80111650:	21f80000 	move	ra,zero
80111654:	de0f0d02 	.word	0x20d0fde
80111658:	10f838fe 	.word	0xfe38f810
8011165c:	c60d0000 	.word	0xdc6
80111660:	55593b02 	.word	0x23b5955
80111664:	d29e3602 	.word	0x2369ed2
80111668:	00000000 	nop
8011166c:	1e03b959 	.word	0x59b9031e
80111670:	6b240100 	.word	0x1246b
80111674:	ac00ad0e 	jal	0x8ab402b0
80111678:	00000000 	nop
8011167c:	21f21402 	.word	0x214f221
80111680:	4ff80000 	.word	0xf84f
80111684:	720f2c04 	.word	0x42c0f72
80111688:	08f862fc 	.word	0xfc62f808
8011168c:	640d0000 	.word	0xd64
80111690:	72c30a02 	.word	0x20ac372
80111694:	189ff801 	.word	0x1f89f18
80111698:	00000000 	nop
8011169c:	2302425a 	.word	0x5a420223
801116a0:	20260100 	.word	0x12620
801116a4:	f900ac0e 	jal	0x8ab003e4
801116a8:	00000000 	nop
801116ac:	24f2fc02 	.word	0x2fcf224
801116b0:	97f80000 	.word	0xf897
801116b4:	d70ef905 	.word	0x5f90ed7
801116b8:	03f8d3fa 	.word	0xfad3f803
801116bc:	db0c0000 	.word	0xcdb
801116c0:	0858ed01 	.word	0x1ed5808
801116c4:	9ba0c901 	.word	0x1c9a09b
801116c8:	00000000 	nop
801116cc:	3e01fa5a 	.word	0x5afa013e
801116d0:	ad270100 	.word	0x127ad
801116d4:	3301ab0e 	jal	0x8aac04cc
801116d8:	00000000 	nop
801116dc:	25f2a103 	.word	0x3a1f225
801116e0:	e0f80000 	.word	0xf8e0
801116e4:	410e4307 	.word	0x7430e41
801116e8:	01f8b6f9 	.word	0xf9b6f801
801116ec:	590c0000 	.word	0xc59
801116f0:	9ca2dd01 	.word	0x1dda29c
801116f4:	04a4a901 	.word	0x1a9a404
801116f8:	00000000 	nop
801116fc:	6900d35b 	.word	0x5bd30069
80111700:	1d290100 	.word	0x1291d
80111704:	5301ac0e 	jal	0x8ab0054c
80111708:	00000000 	nop
8011170c:	23f2f703 	.word	0x3f7f223
80111710:	13f90000 	.word	0xf913
80111714:	e20df407 	.word	0x7f40de2
80111718:	05f81cf9 	.word	0xf91cf805
8011171c:	080c0000 	.word	0xc08
80111720:	ccc7d601 	syscall	0x75b1f
80111724:	dba89801 	.word	0x198a8db
80111728:	00000000 	nop
8011172c:	9fffbd5c 	.word	0x5cbdff9f
80111730:	802a0100 	sll	a1,at,0xa
80111734:	5601ae0e 	jal	0x8ab80558
80111738:	00000000 	nop
8011173c:	1ef2fd03 	.word	0x3fdf21e
80111740:	21f90000 	.word	0xf921
80111744:	d60d0708 	j	0x801c3758
80111748:	0ef808f9 	.word	0xf908f80e
8011174c:	020c0000 	srl	at,zero,0x10
80111750:	5fe4d501 	.word	0x1d5e45f
80111754:	2eb09601 	.word	0x196b02e
80111758:	00000000 	nop
8011175c:	d6fea85d 	.word	0x5da8fed6
80111760:	e12b0100 	.word	0x12be1
80111764:	3d01b00e 	jal	0x8ac004f4
80111768:	00000000 	nop
8011176c:	16f2b103 	.word	0x3b1f216
80111770:	07f90000 	.word	0xf907
80111774:	230e7d07 	.word	0x77d0e23
80111778:	1cf87df9 	.word	0xf97df81c
8011177c:	4c0c0000 	syscall	0x31
80111780:	49a8da01 	.word	0x1daa849
80111784:	5ebba301 	.word	0x1a3bb5e
80111788:	00000000 	nop
8011178c:	07fe865e 	.word	0x5e86fe07
80111790:	4f2d0100 	.word	0x12d4f
80111794:	0901b30e 	jal	0x8acc0424
80111798:	00000000 	nop
8011179c:	0cf21903 	syscall	0xc67c8
801117a0:	d1f80000 	.word	0xf8d1
801117a4:	b10e5506 	.word	0x6550eb1
801117a8:	2df87afa 	.word	0xfa7af82d
801117ac:	d00c0000 	.word	0xcd0
801117b0:	db6de701 	.word	0x1e76ddb
801117b4:	1fcbbf01 	.word	0x1bfcb1f
801117b8:	00000000 	nop
801117bc:	2dfd465f 	.word	0x5f46fd2d
801117c0:	d62e0100 	.word	0x12ed6
801117c4:	bf00b70e 	jal	0x8adc02fc
801117c8:	00000000 	nop
801117cc:	01f23e02 	.word	0x23ef201
801117d0:	95f80000 	.word	0xf895
801117d4:	500fa104 	bgez	a1,0x80115518
801117d8:	40f8f3fb 	.word	0xfbf3f840
801117dc:	650d0000 	.word	0xd65
801117e0:	deb80002 	.word	0x200b8de
801117e4:	a8e2ea01 	.word	0x1eae2a8
801117e8:	00000000 	nop
801117ec:	41fcda5f 	.word	0x5fdafc41
801117f0:	84300100 	.word	0x13084
801117f4:	6800ba0e 	jal	0x8ae801a0
801117f8:	00000000 	nop
801117fc:	f7f13801 	.word	0x138f1f7
80111800:	6bf80000 	.word	0xf86b
80111804:	cb0f8a02 	.word	0x28a0fcb
80111808:	52f8c6fd 	.word	0xfdc6f852
8011180c:	db0d0000 	.word	0xddb
80111810:	42082c02 	.word	0x22c0842
80111814:	87ff2402 	.word	0x224ff87
80111818:	00000000 	nop
8011181c:	3afb3260 	.word	0x6032fb3a
80111820:	66320100 	.word	0x13266
80111824:	0d00bd0e 	jal	0x8af40034
80111828:	00000000 	nop
8011182c:	eef12800 	.word	0x28f1ee
80111830:	63f80000 	.word	0xf863
80111834:	ff0f5500 	.word	0x550fff
80111838:	62f8b6ff 	.word	0xffb6f862
8011183c:	110e0000 	.word	0xe11
80111840:	7b476e02 	.word	0x26e477b
80111844:	32256e02 	.word	0x26e2532
80111848:	00000000 	nop
8011184c:	13fa3f60 	.word	0x603ffa13
80111850:	8a340100 	.word	0x1348a
80111854:	b8ffc00e 	jal	0x8b03fee0
80111858:	00000000 	nop
8011185c:	e7f129ff 	.word	0xff29f1e7
80111860:	7cf80000 	.word	0xf87c
80111864:	e60f38fe 	.word	0xfe380fe6
80111868:	70f89201 	.word	0x192f870
8011186c:	030e0000 	sra	at,zero,0x18
80111870:	03088602 	.word	0x2860803
80111874:	91018202 	.word	0x2820191
80111878:	00000000 	nop
8011187c:	e4f8f75f 	.word	0x5ff7f8e4
80111880:	c0360100 	sll	a2,at,0x1b
80111884:	68ffc00e 	jal	0x8b03fda0
80111888:	00000000 	nop
8011188c:	e6f140fe 	.word	0xfe40f1e6
80111890:	a6f80000 	.word	0xf8a6
80111894:	900f4afc 	.word	0xfc4a0f90
80111898:	72f84503 	.word	0x345f872
8011189c:	b70d0000 	.word	0xdb7
801118a0:	9d9e6b02 	.word	0x26b9e9d
801118a4:	72b45a02 	.word	0x25ab472
801118a8:	00000000 	nop
801118ac:	c7f7685f 	.word	0x5f68f7c7
801118b0:	d3380100 	.word	0x138d3
801118b4:	28ffc00e 	jal	0x8b03fca0
801118b8:	00000000 	nop
801118bc:	e7f189fd 	.word	0xfd89f1e7
801118c0:	dbf80000 	.word	0xf8db
801118c4:	1f0fc8fa 	.word	0xfac80f1f
801118c8:	71f89904 	.word	0x499f871
801118cc:	540d0000 	.word	0xd54
801118d0:	199a5a02 	.word	0x25a9a19
801118d4:	629a3902 	.word	0x2399a62
801118d8:	00000000 	nop
801118dc:	baf6a35e 	.word	0x5ea3f6ba
801118e0:	c93a0100 	.word	0x13ac9
801118e4:	fbfebf0e 	jal	0x8afffbec
801118e8:	00000000 	nop
801118ec:	e8f10afd 	.word	0xfd0af1e8
801118f0:	08f90000 	.word	0xf908
801118f4:	b90ebff9 	.word	0xf9bf0eb9
801118f8:	6ef88205 	.word	0x582f86e
801118fc:	f80c0000 	.word	0xcf8
80111900:	eeb74d02 	.word	0x24db7ee
80111904:	b6b41e02 	.word	0x21eb4b6
80111908:	00000000 	nop
8011190c:	b9f5bc5d 	.word	0x5dbcf5b9
80111910:	a73c0100 	.word	0x13ca7
80111914:	e2febe0e 	jal	0x8afbfb88
80111918:	00000000 	nop
8011191c:	ebf1c5fc 	.word	0xfcc5f1eb
80111920:	21f90000 	.word	0xf921
80111924:	7a0e31f9 	.word	0xf9310e7a
80111928:	68f8fe05 	.word	0x5fef868
8011192c:	be0c0000 	.word	0xcbe
80111930:	fd074102 	.word	0x24107fd
80111934:	3e030a02 	.word	0x20a033e
80111938:	00000000 	nop
8011193c:	c0f4c65c 	.word	0x5cc6f4c0
80111940:	723e0100 	.word	0x13e72
80111944:	dffebd0e 	jal	0x8af7fb7c
80111948:	00000000 	nop
8011194c:	f0f1b9fc 	.word	0xfcb9f1f0
80111950:	1ef90000 	.word	0xf91e
80111954:	710e1ef9 	.word	0xf91e0e71
80111958:	60f80d06 	.word	0x60df860
8011195c:	b20c0000 	.word	0xcb2
80111960:	7c5d3202 	.word	0x2325d7c
80111964:	ab85fb01 	.word	0x1fb85ab
80111968:	00000000 	nop
8011196c:	cef3d45b 	.word	0x5bd4f3ce
80111970:	30400100 	.word	0x14030
80111974:	f3febb0e 	jal	0x8aeffbcc
80111978:	00000000 	nop
8011197c:	f6f1ebfc 	.word	0xfcebf1f6
80111980:	fbf80000 	.word	0xf8fb
80111984:	a60e91f9 	.word	0xf9910ea6
80111988:	55f8a505 	.word	0x5a5f855
8011198c:	db0c0000 	.word	0xcdb
80111990:	4e702102 	.word	0x221704e
80111994:	553ef301 	.word	0x1f33e55
80111998:	00000000 	nop
8011199c:	def2f85a 	.word	0x5af8f2de
801119a0:	e5410100 	.word	0x141e5
801119a4:	20ffb80e 	jal	0x8ae3fc80
801119a8:	00000000 	nop
801119ac:	fdf167fd 	.word	0xfd67f1fd
801119b0:	bcf80000 	.word	0xf8bc
801119b4:	100f9dfa 	.word	0xfa9d0f10
801119b8:	48f8b804 	.word	0x4b8f848
801119bc:	310d0000 	.word	0xd31
801119c0:	d32b1002 	.word	0x2102bd3
801119c4:	362cf101 	.word	0x1f12c36
801119c8:	00000000 	nop
801119cc:	edf1465a 	.word	0x5a46f1ed
801119d0:	98430100 	.word	0x14398
801119d4:	6affb50e 	jal	0x8ad7fda8
801119d8:	00000000 	nop
801119dc:	05f239fe 	.word	0xfe39f205
801119e0:	6ef80000 	.word	0xf86e
801119e4:	930f58fc 	.word	0xfc580f93
801119e8:	39f83203 	.word	0x332f839
801119ec:	9c0d0000 	.word	0xd9c
801119f0:	09060302 	.word	0x2030609
801119f4:	1a52f501 	.word	0x1f5521a
801119f8:	00000000 	nop
801119fc:	f8f0d059 	.word	0x59d0f0f8
80111a00:	4e450100 	.word	0x1454e
80111a04:	cfffb20e 	jal	0x8acbff3c
80111a08:	00000000 	nop
80111a0c:	0ff269ff 	.word	0xff69f20f
80111a10:	2ef80000 	.word	0xf82e
80111a14:	f40fcbfe 	.word	0xfecb0ff4
80111a18:	28f80d01 	.word	0x10df828
80111a1c:	e70d0000 	.word	0xde7
80111a20:	05280102 	.word	0x2012805
80111a24:	83aeff01 	.word	0x1ffae83
80111a28:	00000000 	nop
80111a2c:	fcefa959 	.word	0x59a9effc
80111a30:	0b470100 	.word	0x1470b
80111a34:	4800af0e 	jal	0x8abc0120
80111a38:	00000000 	nop
80111a3c:	18f2e000 	.word	0xe0f218
80111a40:	23f80000 	negu	ra,zero
80111a44:	e60fc601 	.word	0x1c60fe6
80111a48:	17f876fe 	.word	0xfe76f817
80111a4c:	d20d0000 	.word	0xdd2
80111a50:	6a901302 	.word	0x213906a
80111a54:	72441002 	.word	0x2104472
80111a58:	00000000 	nop
80111a5c:	f6eee459 	.word	0x59e4eef6
80111a60:	d6480100 	.word	0x148d6
80111a64:	d200ac0e 	jal	0x8ab00348
80111a68:	00000000 	nop
80111a6c:	22f28802 	.word	0x288f222
80111a70:	6ff80000 	.word	0xf86f
80111a74:	2c0f1305 	.word	0x5130f2c
80111a78:	06f89afb 	.word	0xfb9af806
80111a7c:	260d0000 	.word	0xd26
80111a80:	ed001802 	.word	0x21800ed
80111a84:	af7ffc01 	.word	0x1fc7faf
80111a88:	00000000 	nop
80111a8c:	faed8e5a 	.word	0x5a8eedfa
80111a90:	904a0100 	.word	0x14a90
80111a94:	5701b10e 	jal	0x8ac4055c
80111a98:	00000000 	nop
80111a9c:	14f2f603 	.word	0x3f6f214
80111aa0:	30f90000 	.word	0xf930
80111aa4:	d40d0b08 	j	0x802c3750
80111aa8:	1ef801f9 	.word	0xf901f81e
80111aac:	080c0000 	.word	0xc08
80111ab0:	25861102 	.word	0x2118625
80111ab4:	3ca4c901 	.word	0x1c9a43c
80111ab8:	00000000 	nop
80111abc:	18ed985b 	.word	0x5b98ed18
80111ac0:	1e4c0100 	.word	0x14c1e
80111ac4:	bb01b00e 	jal	0x8ac006ec
80111ac8:	00000000 	nop
80111acc:	17f2f904 	.word	0x4f9f217
80111ad0:	dcf90000 	.word	0xf9dc
80111ad4:	6f0c110a 	j	0x884431bc
80111ad8:	19f83ff7 	.word	0xf73ff819
80111adc:	cf0a0000 	.word	0xacf
80111ae0:	b0211f02 	.word	0x21f21b0
80111ae4:	85e3a401 	.word	0x1a4e385
80111ae8:	00000000 	nop
80111aec:	47ecef5c 	.word	0x5cefec47
80111af0:	8b4d0100 	.word	0x14d8b
80111af4:	fc01a80e 	jal	0x8aa007f0
80111af8:	00000000 	nop
80111afc:	30f2ad05 	.word	0x5adf230
80111b00:	44fa0000 	.word	0xfa44
80111b04:	5f0b410b 	j	0x8d042d7c
80111b08:	eef749f6 	.word	0xf649f7ee
80111b0c:	d1090000 	.word	0x9d1
80111b10:	afa73402 	.word	0x234a7af
80111b14:	57538e01 	.word	0x18e5357
80111b18:	00000000 	nop
80111b1c:	7aeb805e 	.word	0x5e80eb7a
80111b20:	e04e0100 	.word	0x14ee0
80111b24:	1d02980e 	jal	0x8a600874
80111b28:	00000000 	nop
80111b2c:	62f23406 	.word	0x634f262
80111b30:	57fa0000 	.word	0xfa57
80111b34:	c80ad10b 	j	0x8f442b20
80111b38:	9af7f1f5 	.word	0xf5f1f79a
80111b3c:	2d090000 	.word	0x92d
80111b40:	e4fc4902 	.word	0x249fce4
80111b44:	fc308601 	.word	0x18630fc
80111b48:	00000000 	nop
80111b4c:	a8ea3560 	.word	0x6035eaa8
80111b50:	29500100 	.word	0x15029
80111b54:	2302820e 	jal	0x8a08088c
80111b58:	00000000 	nop
80111b5c:	aff29906 	.word	0x699f2af
80111b60:	15fa0000 	.word	0xfa15
80111b64:	ae0ae90b 	j	0x8fa42ab8
80111b68:	23f716f6 	.word	0xf616f723
80111b6c:	e4080000 	.word	0x8e4
80111b70:	1a195b02 	.word	0x25b191a
80111b74:	c1d28c01 	.word	0x18cd2c1
80111b78:	00000000 	nop
80111b7c:	c5e9fb61 	.word	0x61fbe9c5
80111b80:	6f510100 	.word	0x1516f
80111b84:	1002670e 	jal	0x899c0840
80111b88:	00000000 	nop
80111b8c:	10f3d006 	bltzal	s6,0x8010e7d0
80111b90:	84f90000 	.word	0xf984
80111b94:	080b960b 	j	0x8e582c20
80111b98:	98f6a1f6 	.word	0xf6a1f698
80111b9c:	ec080000 	.word	0x8ec
80111ba0:	0d6e6702 	break	0x267,0x1b8
80111ba4:	f38da201 	.word	0x1a28df3
80111ba8:	00000000 	nop
80111bac:	c8e8be63 	.word	0x63bee8c8
80111bb0:	bc520100 	.word	0x152bc
80111bb4:	e4014a0e 	jal	0x89280790
80111bb8:	00000000 	nop
80111bbc:	7bf3bd06 	.word	0x6bdf37b
80111bc0:	abf80000 	.word	0xf8ab
80111bc4:	c70bd30a 	j	0x8b4c2f1c
80111bc8:	0af687f7 	.word	0xf787f60a
80111bcc:	37090000 	.word	0x937
80111bd0:	6b417102 	.word	0x271416b
80111bd4:	fb9bc701 	.word	0x1c79bfb
80111bd8:	00000000 	nop
80111bdc:	a5e76a65 	.word	0x656ae7a5
80111be0:	1a540100 	.word	0x1541a
80111be4:	a101300e 	jal	0x88c00684
80111be8:	00000000 	nop
80111bec:	e6f34006 	bltz	s2,0x8010eb88
80111bf0:	9cf70000 	.word	0xf79c
80111bf4:	d40c8f09 	j	0x863c3350
80111bf8:	89f5c5f8 	.word	0xf8c5f589
80111bfc:	b4090000 	.word	0x9b4
80111c00:	c19a7d02 	.word	0x27d9ac1
80111c04:	5c09fc01 	.word	0x1fc095c
80111c08:	00000000 	nop
80111c0c:	51e6ec66 	.word	0x66ece651
80111c10:	94550100 	.word	0x15594
80111c14:	4901190e 	jal	0x88640524
80111c18:	00000000 	nop
80111c1c:	47f44405 	.word	0x544f447
80111c20:	79f60000 	.word	0xf679
80111c24:	000ebd07 	.word	0x7bd0e00
80111c28:	1df555fa 	.word	0xfa55f51d
80111c2c:	420a0000 	srl	at,zero,0x9
80111c30:	96e29302 	.word	0x293e296
80111c34:	dac93f02 	.word	0x23fc9da
80111c38:	00000000 	nop
80111c3c:	c3e42e68 	.word	0x682ee4c3
80111c40:	34570100 	.word	0x15734
80111c44:	e100050e 	jal	0x88140384
80111c48:	00000000 	nop
80111c4c:	9af4ce03 	.word	0x3cef49a
80111c50:	71f50000 	.word	0xf571
80111c54:	0d0f6c05 	.word	0x56c0f0d
80111c58:	c6f423fc 	.word	0xfc23f4c6
80111c5c:	b90a0000 	.word	0xab9
80111c60:	3debbc02 	.word	0x2bceb3d
80111c64:	1abd9202 	.word	0x292bd1a
80111c68:	00000000 	nop
80111c6c:	efe21d69 	.word	0x691de2ef
80111c70:	04590100 	.word	0x15904
80111c74:	8500f60d 	jal	0x87d80214
80111c78:	00000000 	nop
80111c7c:	ddf45702 	.word	0x257f4dd
80111c80:	c2f40000 	srl	s8,zero,0x13
80111c84:	a90f4303 	.word	0x3430fa9
80111c88:	84f4bbfd 	.word	0xfdbbf484
80111c8c:	e70a0000 	.word	0xae7
80111c90:	9ab53c03 	.word	0x33cb59a
80111c94:	b3a82903 	.word	0x329a8b3
80111c98:	00000000 	nop
80111c9c:	77e0ce69 	.word	0x69cee077
80111ca0:	fe5a0100 	.word	0x15afe
80111ca4:	5d008a0d 	jal	0x86280174
80111ca8:	00000000 	nop
80111cac:	e9f6e301 	.word	0x1e3f6e9
80111cb0:	f9f20000 	.word	0xf2f9
80111cb4:	d50f4b02 	.word	0x24b0fd5
80111cb8:	d6f2b2fe 	.word	0xfeb2f2d6
80111cbc:	ff080000 	.word	0x8ff
80111cc0:	c18ef703 	.word	0x3f78ec1
80111cc4:	4a85ec03 	.word	0x3ec854a
80111cc8:	00000000 	nop
80111ccc:	1ddd636a 	.word	0x6a63dd1d
80111cd0:	095d0100 	.word	0x15d09
80111cd4:	4400450d 	jal	0x85140110
80111cd8:	00000000 	nop
80111cdc:	5bf87801 	.word	0x178f85b
80111ce0:	06f20000 	.word	0xf206
80111ce4:	e90fac01 	.word	0x1ac0fe9
80111ce8:	f3f133ff 	.word	0xff33f1f3
80111cec:	9b070000 	.word	0x79b
80111cf0:	fabf9604 	.word	0x496bffa
80111cf4:	b9129004 	bltzal	a0,0x801167dc
80111cf8:	00000000 	nop
80111cfc:	04d9e16a 	.word	0x6ae1d904
80111d00:	0b5f0100 	.word	0x15f0b
80111d04:	3300100d 	jal	0x844000cc
80111d08:	00000000 	nop
80111d0c:	85f92701 	.word	0x127f985
80111d10:	6bf10000 	.word	0xf16b
80111d14:	f30f4301 	.word	0x1430ff3
80111d18:	60f17eff 	.word	0xff7ef160
80111d1c:	76060000 	.word	0x676
80111d20:	41001505 	.word	0x5150041
80111d24:	5fd71005 	bltzal	t0,0x80107aa4
80111d28:	00000000 	nop
80111d2c:	50d4486b 	.word	0x6b48d450
80111d30:	ed600100 	.word	0x160ed
80111d34:	2700e20c 	jal	0x8388009c
80111d38:	00000000 	nop
80111d3c:	93faea00 	.word	0xeafa93
80111d40:	fbf00000 	.word	0xf0fb
80111d44:	f80ff900 	.word	0xf90ff8
80111d48:	f3f0acff 	.word	0xffacf0f3
80111d4c:	6a050000 	.word	0x56a
80111d50:	acd67005 	bltzal	t3,0x80107804
80111d54:	f52e6e05 	.word	0x56e2ef5
80111d58:	00000000 	nop
80111d5c:	25cf9e6b 	.word	0x6b9ecf25
80111d60:	96620100 	.word	0x16296
80111d64:	1f00b50c 	jal	0x82d4007c
80111d68:	00000000 	nop
80111d6c:	a0fbbe00 	.word	0xbefba0
80111d70:	a1f00000 	.word	0xf0a1
80111d74:	fb0fc600 	.word	0xc60ffb
80111d78:	9df0caff 	.word	0xffcaf09d
80111d7c:	5f040000 	.word	0x45f
80111d80:	789faa05 	.word	0x5aa9f78
80111d84:	c1e1a805 	.word	0x5a8e1c1
80111d88:	00000000 	nop
80111d8c:	a6c9e66b 	.word	0x6be6c9a6
80111d90:	f1630100 	.word	0x163f1
80111d94:	1900860c 	jal	0x82180064
80111d98:	00000000 	nop
80111d9c:	c0fc9f00 	.word	0x9ffcc0
80111da0:	59f00000 	.word	0xf059
80111da4:	fc0fa200 	.word	0xa20ffc
80111da8:	56f0dfff 	.word	0xffdff056
80111dac:	3f030000 	.word	0x33f
80111db0:	760dc405 	.word	0x5c40d76
80111db4:	82dcc205 	.word	0x5c2dc82
80111db8:	00000000 	nop
80111dbc:	f7c3216c 	.word	0x6c21c3f7
80111dc0:	e3640100 	.word	0x164e3
80111dc4:	1600510c 	jal	0x81440058
80111dc8:	00000000 	nop
80111dcc:	06fe8900 	.word	0x89fe06
80111dd0:	22f00000 	neg	s8,zero
80111dd4:	fd0f8a00 	.word	0x8a0ffd
80111dd8:	20f0efff 	.word	0xffeff020
80111ddc:	fa010000 	.word	0x1fa
80111de0:	ec46c005 	bltz	t6,0x80123994
80111de4:	0a68bf05 	.word	0x5bf680a
80111de8:	00000000 	nop
80111dec:	3cbe536c 	.word	0x6c53be3c
80111df0:	56650100 	.word	0x16556
80111df4:	1300140c 	jal	0x8050004c
80111df8:	00000000 	nop
80111dfc:	87ff7d00 	.word	0x7dff87
80111e00:	04f00000 	sllv	s8,zero,zero
80111e04:	fe0f7d00 	.word	0x7d0ffe
80111e08:	02f0fdff 	.word	0xfffdf002
80111e0c:	79000000 	.word	0x79
80111e10:	0972a405 	.word	0x5a47209
80111e14:	ecbda305 	.word	0x5a3bdec
80111e18:	00000000 	nop
80111e1c:	99b8816c 	.word	0x6c81b899
80111e20:	32650100 	.word	0x16532
80111e24:	1300ca0b 	j	0x8f28004c
80111e28:	00000000 	nop
80111e2c:	58017900 	.word	0x790158
80111e30:	11f00000 	.word	0xf011
80111e34:	fe0f7900 	.word	0x790ffe
80111e38:	0ff00a00 	.word	0xaf00f
80111e3c:	a8fe0000 	.word	0xfea8
80111e40:	90a27805 	.word	0x578a290
80111e44:	4efc7705 	.word	0x577fc4e
80111e48:	00000000 	nop
80111e4c:	31b3ab6c 	.word	0x6cabb331
80111e50:	5e640100 	.word	0x1645e
80111e54:	14006e0b 	j	0x8db80050
80111e58:	00000000 	nop
80111e5c:	91037c00 	.word	0x7c0391
80111e60:	6af00000 	.word	0xf06a
80111e64:	fe0f7f00 	.word	0x7f0ffe
80111e68:	68f01c00 	.word	0x1cf068
80111e6c:	70fc0000 	.word	0xfc70
80111e70:	a74b4905 	.word	0x5494ba7
80111e74:	f2994805 	.word	0x54899f2
80111e78:	00000000 	nop
80111e7c:	28aed66c 	.word	0x6cd6ae28
80111e80:	c4620100 	.word	0x162c4
80111e84:	1600fd0a 	j	0x8bf40058
80111e88:	00000000 	nop
80111e8c:	36068300 	.word	0x830636
80111e90:	44f10000 	.word	0xf144
80111e94:	fd0f8e00 	.word	0x8e0ffd
80111e98:	42f13700 	.word	0x37f142
80111e9c:	cbf90000 	.word	0xf9cb
80111ea0:	5bf71b05 	.word	0x51bf75b
80111ea4:	fa221b05 	.word	0x51b22fa
80111ea8:	00000000 	nop
80111eac:	9ca9056d 	.word	0x6d05a99c
80111eb0:	72600100 	.word	0x16072
80111eb4:	19009d0a 	j	0x8a740064
80111eb8:	00000000 	nop
80111ebc:	4c088600 	syscall	0x21821
80111ec0:	55f20000 	.word	0xf255
80111ec4:	fc0f9d00 	.word	0x9d0ffc
80111ec8:	52f25100 	.word	0x51f252
80111ecc:	b6f70000 	.word	0xf7b6
80111ed0:	6dbbf704 	.word	0x4f7bb6d
80111ed4:	71bef604 	.word	0x4f6be71
80111ed8:	00000000 	nop
80111edc:	8fa5376d 	.word	0x6d37a58f
80111ee0:	935d0100 	.word	0x15d93
80111ee4:	1b00410a 	j	0x8904006c
80111ee8:	00000000 	nop
80111eec:	240a8300 	.word	0x830a24
80111ef0:	a4f30000 	.word	0xf3a4
80111ef4:	fc0faa00 	.word	0xaa0ffc
80111ef8:	a1f36b00 	.word	0x6bf3a1
80111efc:	def50000 	.word	0xf5de
80111f00:	f9fbe504 	.word	0x4e5fbf9
80111f04:	71d8e404 	.word	0x4e4d871
80111f08:	00000000 	nop
80111f0c:	fea16d6d 	.word	0x6d6da1fe
80111f10:	3a5a0100 	.word	0x15a3a
80111f14:	1c00ea09 	j	0x87a80070
80111f18:	00000000 	nop
80111f1c:	b10b7b00 	.word	0x7b0bb1
80111f20:	18f50000 	.word	0xf518
80111f24:	fb0fb500 	.word	0xb50ffb
80111f28:	15f58400 	.word	0x84f515
80111f2c:	52f40000 	.word	0xf452
80111f30:	af38e104 	bgez	a3,0x801201f0
80111f34:	b1f1df04 	.word	0x4dff1b1
80111f38:	00000000 	nop
80111f3c:	e49ea56d 	.word	0x6da59ee4
80111f40:	77560100 	.word	0x15677
80111f44:	1e009b09 	j	0x866c0078
80111f48:	00000000 	nop
80111f4c:	f00c6f00 	.word	0x6f0cf0
80111f50:	99f60000 	.word	0xf699
80111f54:	fb0fbd00 	.word	0xbd0ffb
80111f58:	97f69900 	.word	0x99f697
80111f5c:	14f30000 	.word	0xf314
80111f60:	c317e404 	.word	0x4e417c3
80111f64:	74b0e204 	.word	0x4e2b074
80111f68:	00000000 	nop
80111f6c:	3e9ce06d 	.word	0x6de09c3e
80111f70:	5b520100 	.word	0x1525b
80111f74:	1f005209 	j	0x8548007c
80111f78:	00000000 	nop
80111f7c:	e60d6100 	.word	0x610de6
80111f80:	17f80000 	.word	0xf817
80111f84:	fb0fc500 	.word	0xc50ffb
80111f88:	14f8ab00 	.word	0xabf814
80111f8c:	1ef20000 	.word	0xf21e
80111f90:	b2d3e904 	.word	0x4e9d3b2
80111f94:	674ee804 	.word	0x4e84e67
80111f98:	00000000 	nop
80111f9c:	099a1e6e 	.word	0x6e1e9a09
80111fa0:	fa4d0100 	.word	0x14dfa
80111fa4:	20001109 	j	0x84440080
80111fa8:	00000000 	nop
80111fac:	a00e5200 	.word	0x520ea0
80111fb0:	86f90000 	.word	0xf986
80111fb4:	fa0fcc00 	.word	0xcc0ffa
80111fb8:	84f9ba00 	.word	0xbaf984
80111fbc:	65f10000 	.word	0xf165
80111fc0:	ab71ee04 	.word	0x4ee71ab
80111fc4:	95d0ec04 	.word	0x4ecd095
80111fc8:	00000000 	nop
80111fcc:	40985e6e 	.word	0x6e5e9840
80111fd0:	63490100 	.word	0x14963
80111fd4:	2100d508 	j	0x83540084
80111fd8:	00000000 	nop
80111fdc:	280f4300 	.word	0x430f28
80111fe0:	e3fa0000 	.word	0xfae3
80111fe4:	fa0fd300 	.word	0xd30ffa
80111fe8:	e1fac800 	.word	0xc8fae1
80111fec:	ddf00000 	.word	0xf0dd
80111ff0:	62c5ee04 	.word	0x4eec562
80111ff4:	1109ed04 	.word	0x4ed0911
80111ff8:	00000000 	nop
80111ffc:	e096a16e 	.word	0x6ea196e0
80112000:	a8440100 	.word	0x144a8
80112004:	22009e08 	j	0x82780088
80112008:	00000000 	nop
8011200c:	880f3400 	.word	0x340f88
80112010:	2dfc0000 	.word	0xfc2d
80112014:	fa0fda00 	.word	0xda0ffa
80112018:	2cfcd300 	.word	0xd3fc2c
8011201c:	7df00000 	.word	0xf07d
80112020:	455de804 	.word	0x4e85d45
80112024:	3386e604 	.word	0x4e68633
80112028:	00000000 	nop
8011202c:	e495e46e 	.word	0x6ee495e4
80112030:	db3f0100 	.word	0x13fdb
80112034:	23006b08 	j	0x81ac008c
80112038:	00000000 	nop
8011203c:	c90f2400 	.word	0x240fc9
80112040:	69fd0000 	.word	0xfd69
80112044:	f90fe200 	.word	0xe20ff9
80112048:	68fddf00 	.word	0xdffd68
8011204c:	3df00000 	.word	0xf03d
80112050:	986ed904 	.word	0x4d96e98
80112054:	e77bd704 	.word	0x4d77be7
80112058:	00000000 	nop
8011205c:	49952a6f 	.word	0x6f2a9549
80112060:	0d3b0100 	break	0x1,0xec
80112064:	25003a08 	j	0x80e80094
80112068:	00000000 	nop
8011206c:	f00f1400 	.word	0x140ff0
80112070:	9afe0000 	.word	0xfe9a
80112074:	f90fea00 	.word	0xea0ff9
80112078:	9afeea00 	.word	0xeafe9a
8011207c:	17f00000 	.word	0xf017
80112080:	6eb5c004 	bltz	a2,0x800ff63c
80112084:	63a5be04 	.word	0x4bea563
80112088:	00000000 	nop
8011208c:	0b95716f 	.word	0x6f71950b
80112090:	50360100 	.word	0x13650
80112094:	23000908 	j	0x8024008c
80112098:	00000000 	nop
8011209c:	ff0f0300 	.word	0x30fff
801120a0:	c8ff0000 	.word	0xffc8
801120a4:	f90fe100 	.word	0xe10ff9
801120a8:	c8ffe100 	.word	0xe1ffc8
801120ac:	07f00000 	srav	s8,zero,zero
801120b0:	aa521505 	.word	0x51552aa
801120b4:	a4571305 	.word	0x51357a4
801120b8:	00000000 	nop
801120bc:	fe94b96f 	.word	0x6fb994fe
801120c0:	3d310100 	.word	0x1313d
801120c4:	1f000608 	j	0x8018007c
801120c8:	00000000 	nop
801120cc:	ff0f0100 	.word	0x10fff
801120d0:	e1ff0000 	.word	0xffe1
801120d4:	fb0fc700 	.word	0xc70ffb
801120d8:	e1ffc700 	.word	0xc7ffe1
801120dc:	05f00000 	.word	0xf005
801120e0:	9efac405 	.word	0x5c4fa9e
801120e4:	293ac305 	.word	0x5c33a29
801120e8:	00000000 	nop
801120ec:	f5940070 	.word	0x700094f5
801120f0:	792b0100 	.word	0x12b79
801120f4:	1c000308 	j	0x800c0070
801120f8:	00000000 	nop
801120fc:	ff0f0000 	.word	0xfff
80112100:	f0ff0000 	.word	0xfff0
80112104:	fc0fb400 	.word	0xb40ffc
80112108:	f0ffb400 	.word	0xb4fff0
8011210c:	05f00000 	.word	0xf005
80112110:	7c824f06 	.word	0x64f827c
80112114:	cff04d06 	.word	0x64df0cf
80112118:	00000000 	nop
8011211c:	f1944870 	.word	0x704894f1
80112120:	2b250100 	.word	0x1252b
80112124:	1a000208 	j	0x80080068
80112128:	00000000 	nop
8011212c:	ff0f0000 	.word	0xfff
80112130:	f9ff0000 	.word	0xfff9
80112134:	fc0fa500 	.word	0xa50ffc
80112138:	f9ffa500 	.word	0xa5fff9
8011213c:	04f00000 	sllv	s8,zero,zero
80112140:	bce0b406 	.word	0x6b4e0bc
80112144:	e977b306 	.word	0x6b377e9
80112148:	00000000 	nop
8011214c:	ef948d70 	.word	0x708d94ef
80112150:	781e0100 	.word	0x11e78
80112154:	18000108 	j	0x80040060
80112158:	00000000 	nop
8011215c:	ff0f0000 	.word	0xfff
80112160:	ffff0000 	.word	0xffff
80112164:	fd0f9a00 	.word	0x9a0ffd
80112168:	ffff9a00 	.word	0x9affff
8011216c:	03f00000 	sra	s8,zero,0x0
80112170:	f70ff506 	.word	0x6f50ff7
80112174:	efccf306 	.word	0x6f3ccef
80112178:	00000000 	nop
8011217c:	ef94d070 	.word	0x70d094ef
80112180:	84170100 	.word	0x11784
80112184:	1600ff07 	.word	0x7ff0016
80112188:	00000000 	nop
8011218c:	ff0f0000 	.word	0xfff
80112190:	00000000 	nop
80112194:	fd0f9000 	.word	0x900ffd
80112198:	00009000 	.word	0x900000
8011219c:	03f00000 	sra	s8,zero,0x0
801121a0:	e00d1007 	bltzal	t8,0x80115924
801121a4:	1aef0e07 	.word	0x70eef1a
801121a8:	00000000 	nop
801121ac:	ef941071 	.word	0x711094ef
801121b0:	75100100 	.word	0x11075
801121b4:	15000108 	j	0x80040054
801121b8:	00000000 	nop
801121bc:	ff0f0000 	.word	0xfff
801121c0:	00000000 	nop
801121c4:	fd0f8700 	.word	0x870ffd
801121c8:	00008700 	.word	0x870000
801121cc:	03f00000 	sra	s8,zero,0x0
801121d0:	bfd80507 	.word	0x705d8bf
801121d4:	24de0407 	.word	0x704de24
801121d8:	00000000 	nop
801121dc:	ee944b71 	.word	0x714b94ee
801121e0:	70090100 	.word	0x10970
801121e4:	14000108 	j	0x80040050
801121e8:	00000000 	nop
801121ec:	ff0f0000 	.word	0xfff
801121f0:	fcff0000 	.word	0xfffc
801121f4:	fe0f7e00 	.word	0x7e0ffe
801121f8:	fcff7e00 	.word	0x7efffc
801121fc:	02f00000 	srl	s8,zero,0x0
80112200:	8671d606 	.word	0x6d67186
80112204:	309bd506 	.word	0x6d59b30
80112208:	00000000 	nop
8011220c:	eb948171 	.word	0x718194eb
80112210:	9b020100 	.word	0x1029b
80112214:	12000208 	j	0x80080048
80112218:	00000000 	nop
8011221c:	ff0f0000 	.word	0xfff
80112220:	f6ff0000 	.word	0xfff6
80112224:	fe0f7600 	.word	0x760ffe
80112228:	f6ff7600 	.word	0x76fff6
8011222c:	02f00000 	srl	s8,zero,0x0
80112230:	b4d78106 	bgez	s4,0x80108104
80112234:	60268106 	bgez	s4,0x8011bbb8
80112238:	00000000 	nop
8011223c:	e494b171 	.word	0x71b194e4
80112240:	1bfc0100 	.word	0x1fc1b
80112244:	11000408 	j	0x80100044
80112248:	00000000 	nop
8011224c:	ff0f0000 	.word	0xfff
80112250:	ebff0000 	.word	0xffeb
80112254:	fe0f6d00 	.word	0x6d0ffe
80112258:	ebff6d00 	.word	0x6dffeb
8011225c:	02f00000 	srl	s8,zero,0x0
80112260:	ec0e0806 	.word	0x6080eec
80112264:	19830706 	.word	0x6078319
80112268:	00000000 	nop
8011226c:	d994da71 	.word	0x71da94d9
80112270:	13f60100 	.word	0x1f613
80112274:	0f000708 	j	0x801c003c
80112278:	00000000 	nop
8011227c:	ff0f0000 	.word	0xfff
80112280:	daff0000 	.word	0xffda
80112284:	fe0f6200 	.word	0x620ffe
80112288:	daff6200 	.word	0x62ffda
8011228c:	02f00000 	srl	s8,zero,0x0
80112290:	711c6905 	.word	0x5691c71
80112294:	9fb66805 	.word	0x568b69f
80112298:	00000000 	nop
8011229c:	c994fc71 	.word	0x71fc94c9
801122a0:	abf00100 	.word	0x1f0ab
801122a4:	0d000b08 	j	0x802c0034
801122a8:	00000000 	nop
801122ac:	ff0f0100 	.word	0x10fff
801122b0:	c1ff0000 	.word	0xffc1
801122b4:	ff0f5600 	.word	0x560fff
801122b8:	c1ff5600 	.word	0x56ffc1
801122bc:	02f00000 	srl	s8,zero,0x0
801122c0:	54348704 	.word	0x4873454
801122c4:	11f88604 	.word	0x486f811
801122c8:	00000000 	nop
801122cc:	52941372 	.word	0x72139452
801122d0:	2aec0100 	.word	0x1ec2a
801122d4:	0a008508 	j	0x82140028
801122d8:	00000000 	nop
801122dc:	ab0f0c00 	.word	0xc0fab
801122e0:	c6fc0000 	.word	0xfcc6
801122e4:	ff0f3f00 	.word	0x3f0fff
801122e8:	c6fc3e00 	.word	0x3efcc6
801122ec:	55f00000 	.word	0xf055
801122f0:	2bebb903 	.word	0x3b9eb2b
801122f4:	4ad1b903 	.word	0x3b9d14a
801122f8:	00000000 	nop
801122fc:	31932172 	.word	0x72219331
80112300:	9de80100 	.word	0x1e89d
80112304:	05001309 	j	0x844c0014
80112308:	00000000 	nop
8011230c:	9a0e0f00 	.word	0xf0e9a
80112310:	76f90000 	.word	0xf976
80112314:	ff0f2500 	.word	0x250fff
80112318:	76f92100 	.word	0x21f976
8011231c:	67f10000 	.word	0xf167
80112320:	790a4003 	.word	0x3400a79
80112324:	f1024003 	.word	0x34002f1
80112328:	00000000 	nop
8011232c:	8e912872 	.word	0x7228918e
80112330:	cee50100 	.word	0x1e5ce
80112334:	02009d09 	j	0x86740008
80112338:	00000000 	nop
8011233c:	e80c0800 	.word	0x80ce8
80112340:	8cf60000 	syscall	0x3da
80112344:	ff0f0f00 	.word	0xf0fff
80112348:	8cf60c00 	syscall	0x33da
8011234c:	18f30000 	.word	0xf318
80112350:	5a170503 	.word	0x305175a
80112354:	27160503 	.word	0x3051627
80112358:	00000000 	nop
8011235c:	928f2b72 	.word	0x722b8f92
80112360:	87e30100 	.word	0x1e387
80112364:	0000040a 	j	0x88100000
80112368:	00000000 	nop
8011236c:	3f0b0300 	.word	0x30b3f
80112370:	9ff40000 	.word	0xf49f
80112374:	ff0f0500 	.word	0x50fff
80112378:	9ff40300 	.word	0x3f49f
8011237c:	c1f40000 	.word	0xf4c1
80112380:	f288ec02 	.word	0x2ec88f2
80112384:	c888ec02 	.word	0x2ec88c8
80112388:	00000000 	nop
8011238c:	668d2c72 	.word	0x722c8d66
80112390:	92e10100 	.word	0x1e192
80112394:	0100390a 	j	0x88e40004
80112398:	00000000 	nop
8011239c:	4d0a0700 	break	0x7,0x29
801123a0:	c2f30000 	srl	s8,zero,0xf
801123a4:	ff0f0a00 	.word	0xa0fff
801123a8:	c2f30600 	srl	s8,a2,0xf
801123ac:	b3f50000 	.word	0xf5b3
801123b0:	d509e002 	.word	0x2e009d5
801123b4:	3c09e002 	.word	0x2e0093c
801123b8:	00000000 	nop
801123bc:	318b2d72 	.word	0x722d8b31
801123c0:	badf0100 	.word	0x1dfba
801123c4:	0400330a 	j	0x88cc0010
801123c8:	00000000 	nop
801123cc:	690a1500 	.word	0x150a69
801123d0:	dbf30000 	.word	0xf3db
801123d4:	ff0f1c00 	.word	0x1c0fff
801123d8:	dbf31200 	.word	0x12f3db
801123dc:	97f50000 	.word	0xf597
801123e0:	d59cd802 	.word	0x2d89cd5
801123e4:	dc97d802 	.word	0x2d897dc
801123e8:	00000000 	nop
801123ec:	1d893372 	.word	0x7233891d
801123f0:	c9dd0100 	.word	0x1ddc9
801123f4:	0900f009 	j	0x87c00024
801123f8:	00000000 	nop
801123fc:	980b2900 	.word	0x290b98
80112400:	faf40000 	.word	0xf4fa
80112404:	ff0f3b00 	.word	0x3b0fff
80112408:	faf42b00 	.word	0x2bf4fa
8011240c:	69f40000 	.word	0xf469
80112410:	4377e102 	.word	0x2e17743
80112414:	dd60e102 	.word	0x2e160dd
80112418:	00000000 	nop
8011241c:	52873e72 	.word	0x723e8752
80112420:	88db0100 	.word	0x1db88
80112424:	0f007609 	j	0x85d8003c
80112428:	00000000 	nop
8011242c:	720d3400 	.word	0x340d72
80112430:	56f70000 	.word	0xf756
80112434:	fe0f6000 	.word	0x600ffe
80112438:	55f75100 	.word	0x51f755
8011243c:	8ff20000 	.word	0xf28f
80112440:	18121603 	.word	0x3161218
80112444:	55d11503 	.word	0x315d155
80112448:	00000000 	nop
8011244c:	f8855272 	.word	0x725285f8
80112450:	c1d80100 	.word	0x1d8c1
80112454:	1400da08 	j	0x83680050
80112458:	00000000 	nop
8011245c:	1e0f2b00 	.word	0x2b0f1e
80112460:	c4fa0000 	.word	0xfac4
80112464:	fd0f8300 	.word	0x830ffd
80112468:	c4fa7c00 	.word	0x7cfac4
8011246c:	e4f00000 	.word	0xf0e4
80112470:	bc059603 	.word	0x39605bc
80112474:	b57d9503 	.word	0x3957db5
80112478:	00000000 	nop
8011247c:	39857172 	.word	0x72718539
80112480:	40d50100 	sll	k0,at,0x15
80112484:	18004108 	j	0x81040060
80112488:	00000000 	nop
8011248c:	eb0f0f00 	.word	0xf0feb
80112490:	69fe0000 	.word	0xfe69
80112494:	fd0f9c00 	.word	0x9c0ffd
80112498:	69fe9b00 	.word	0x9bfe69
8011249c:	18f00000 	.word	0xf018
801124a0:	70277304 	.word	0x4732770
801124a4:	72437204 	.word	0x4724372
801124a8:	00000000 	nop
801124ac:	3c859e72 	.word	0x729e853c
801124b0:	ced00100 	.word	0x1d0ce
801124b4:	1a00c507 	.word	0x7c5001a
801124b8:	00000000 	nop
801124bc:	ef0ff2ff 	.word	0xfff20fef
801124c0:	6c010000 	.word	0x16c
801124c4:	fc0fa600 	.word	0xa60ffc
801124c8:	6c01a600 	.word	0xa6016c
801124cc:	14f00000 	.word	0xf014
801124d0:	781a0205 	.word	0x5021a78
801124d4:	edfe0005 	bltz	t0,0x8011208c
801124d8:	00000000 	nop
801124dc:	f485d472 	.word	0x72d485f4
801124e0:	dacb0100 	.word	0x1cbda
801124e4:	1b007d07 	.word	0x77d001b
801124e8:	00000000 	nop
801124ec:	ad0fdfff 	.word	0xffdf0fad
801124f0:	2e030000 	.word	0x32e
801124f4:	fc0faa00 	.word	0xaa0ffc
801124f8:	2f03a700 	.word	0xa7032f
801124fc:	56f00000 	.word	0xf056
80112500:	bcc10705 	.word	0x507c1bc
80112504:	b2970605 	.word	0x50697b2
80112508:	00000000 	nop
8011250c:	3c870a73 	.word	0x730a873c
80112510:	fec60100 	.word	0x1c6fe
80112514:	1b003207 	.word	0x732001b
80112518:	00000000 	nop
8011251c:	350fcaff 	.word	0xffca0f35
80112520:	f5040000 	.word	0x4f5
80112524:	fc0faf00 	.word	0xaf0ffc
80112528:	f704a600 	.word	0xa604f7
8011252c:	cef00000 	.word	0xf0ce
80112530:	24a51705 	.word	0x517a524
80112534:	5f661605 	.word	0x516665f
80112538:	00000000 	nop
8011253c:	18894373 	.word	0x73438918
80112540:	42c20100 	srl	t8,at,0x9
80112544:	1c00e506 	.word	0x6e5001c
80112548:	00000000 	nop
8011254c:	850eb5ff 	.word	0xffb50e85
80112550:	b5060000 	.word	0x6b5
80112554:	fc0fb400 	.word	0xb40ffc
80112558:	b606a300 	.word	0xa306b6
8011255c:	7ef10000 	.word	0xf17e
80112560:	8b823305 	.word	0x533828b
80112564:	28293205 	.word	0x5322928
80112568:	00000000 	nop
8011256c:	8d8b7f73 	.word	0x737f8b8d
80112570:	aebd0100 	.word	0x1bdae
80112574:	1d009806 	.word	0x698001d
80112578:	00000000 	nop
8011257c:	a10d9fff 	.word	0xff9f0da1
80112580:	5f080000 	.word	0x85f
80112584:	fb0fba00 	.word	0xba0ffb
80112588:	61089e00 	.word	0x9e0861
8011258c:	63f20000 	.word	0xf263
80112590:	83d55c05 	.word	0x55cd583
80112594:	d25b5b05 	.word	0x55b5bd2
80112598:	00000000 	nop
8011259c:	9f8ebf73 	.word	0x73bf8e9f
801125a0:	4ab90100 	.word	0x1b94a
801125a4:	1e004c06 	.word	0x64c001e
801125a8:	00000000 	nop
801125ac:	8e0c8aff 	.word	0xff8a0c8e
801125b0:	e7090000 	.word	0x9e7
801125b4:	fb0fbf00 	.word	0xbf0ffb
801125b8:	ea099600 	.word	0x9609ea
801125bc:	75f30000 	.word	0xf375
801125c0:	abcb9405 	.word	0x594cbab
801125c4:	fe2b9305 	.word	0x5932bfe
801125c8:	00000000 	nop
801125cc:	53920374 	jalx	0x800e494d
801125d0:	1fb50100 	.word	0x1b51f
801125d4:	1f000106 	bgez	s0,0x80112654
801125d8:	00000000 	nop
801125dc:	580b76ff 	.word	0xff760b58
801125e0:	440b0000 	.word	0xb44
801125e4:	fb0fc400 	.word	0xc40ffb
801125e8:	470b8b00 	.word	0x8b0b47
801125ec:	abf40000 	.word	0xf4ab
801125f0:	2e23dc05 	.word	0x5dc232e
801125f4:	6658da05 	.word	0x5da5866
801125f8:	00000000 	nop
801125fc:	ad964c74 	jalx	0x81325ab5
80112600:	35b10100 	.word	0x1b135
80112604:	2000ba05 	.word	0x5ba0020
80112608:	00000000 	nop
8011260c:	0c0a64ff 	.word	0xff640a0c
80112610:	6f0c0000 	.word	0xc6f
80112614:	fb0fc900 	.word	0xc90ffb
80112618:	730c7e00 	.word	0x7e0c73
8011261c:	f7f50000 	.word	0xf5f7
80112620:	693a3306 	.word	0x6333a69
80112624:	503f3106 	bgezal	s1,0x80122368
80112628:	00000000 	nop
8011262c:	b19b9c74 	jalx	0x82726ec5
80112630:	94ad0100 	.word	0x1ad94
80112634:	20007705 	.word	0x5770020
80112638:	00000000 	nop
8011263c:	b50854ff 	.word	0xff5408b5
80112640:	670d0000 	.word	0xd67
80112644:	fa0fcd00 	.word	0xcd0ffa
80112648:	6c0d6f00 	.word	0x6f0d6c
8011264c:	4ef70000 	.word	0xf74e
80112650:	7c129a06 	.word	0x69a127c
80112654:	47e29706 	.word	0x697e247
80112658:	00000000 	nop
8011265c:	65a1f274 	jalx	0x83ca8595
80112660:	44aa0100 	.word	0x1aa44
80112664:	21003805 	.word	0x5380021
80112668:	00000000 	nop
8011266c:	5f0747ff 	.word	0xff47075f
80112670:	2e0e0000 	.word	0xe2e
80112674:	fa0fd100 	.word	0xd10ffa
80112678:	330e6000 	.word	0x600e33
8011267c:	a3f80000 	.word	0xf8a3
80112680:	9d671007 	bltzal	t8,0x8012c4f8
80112684:	33fd0d07 	.word	0x70dfd33
80112688:	00000000 	nop
8011268c:	cca74f75 	jalx	0x853e9f31
80112690:	4ea70100 	.word	0x1a74e
80112694:	2100fd04 	.word	0x4fd0021
80112698:	00000000 	nop
8011269c:	13063cff 	.word	0xff3c0613
801126a0:	c80e0000 	.word	0xec8
801126a4:	fa0fd400 	.word	0xd40ffa
801126a8:	cd0e5000 	break	0x50,0x3b
801126ac:	eff90000 	.word	0xf9ef
801126b0:	bfcd9507 	.word	0x795cdbf
801126b4:	15249307 	.word	0x7932415
801126b8:	00000000 	nop
801126bc:	ebaeb575 	jalx	0x86d6bbad
801126c0:	baa40100 	.word	0x1a4ba
801126c4:	1b00c804 	.word	0x4c8001b
801126c8:	00000000 	nop
801126cc:	d7045eff 	.word	0xff5e04d7
801126d0:	3c0f0000 	.word	0xf3c
801126d4:	fc0faa00 	.word	0xaa0ffc
801126d8:	400f3300 	.word	0x330f40
801126dc:	2afb0000 	.word	0xfb2a
801126e0:	2ae3370a 	j	0x88df8ca8
801126e4:	0094350a 	j	0x88d65000
801126e8:	00000000 	nop
801126ec:	dfb82376 	jalx	0x888ee37d
801126f0:	74a20100 	.word	0x1a274
801126f4:	14007204 	.word	0x4720014
801126f8:	00000000 	nop
801126fc:	ca0283ff 	.word	0xff8302ca
80112700:	bf0f0000 	.word	0xfbf
80112704:	fe0f7f00 	.word	0x7f0ffe
80112708:	c10f1600 	.word	0x160fc1
8011270c:	36fd0000 	.word	0xfd36
80112710:	f190760e 	jal	0x89da43c4
80112714:	65c5740e 	jal	0x89d31594
80112718:	00000000 	nop
8011271c:	2ec79676 	jalx	0x8a5b1cb9
80112720:	5fa00100 	.word	0x1a05f
80112724:	10004f04 	.word	0x44f0010
80112728:	00000000 	nop
8011272c:	f40199ff 	.word	0xff9901f4
80112730:	df0f0000 	.word	0xfdf
80112734:	fe0f6800 	.word	0x680ffe
80112738:	e10f0c00 	.word	0xc0fe1
8011273c:	0cfe0000 	syscall	0x3f8
80112740:	aa2cf308 	j	0x83ccb2a8
80112744:	346df208 	j	0x83c9b4d0
80112748:	00000000 	nop
8011274c:	13d0d076 	jalx	0x8b43404d
80112750:	6a9f0100 	.word	0x19f6a
80112754:	10004604 	.word	0x4460010
80112758:	00000000 	nop
8011275c:	bd0199ff 	.word	0xff9901bd
80112760:	e60f0000 	.word	0xfe6
80112764:	fe0f6800 	.word	0x680ffe
80112768:	e70f0b00 	.word	0xb0fe7
8011276c:	44fe0000 	.word	0xfe44
80112770:	aa2cf308 	j	0x83ccb2a8
80112774:	346df208 	j	0x83c9b4d0
80112778:	00000000 	nop
8011277c:	f8d80b77 	jalx	0x8c2f63e1
80112780:	759e0100 	.word	0x19e75
80112784:	0e003e04 	.word	0x43e000e
80112788:	00000000 	nop
8011278c:	8501a7ff 	.word	0xffa70185
80112790:	ec0f0000 	.word	0xfec
80112794:	ff0f5900 	.word	0x590fff
80112798:	ed0f0800 	.word	0x80fed
8011279c:	7bfe0000 	.word	0xfe7b
801127a0:	5aff3e0a 	j	0x88fbfd68
801127a4:	255d3e0a 	j	0x88f97494
801127a8:	00000000 	nop
801127ac:	2de34577 	jalx	0x8d178cb5
801127b0:	929d0100 	.word	0x19d92
801127b4:	0e003804 	.word	0x438000e
801127b8:	00000000 	nop
801127bc:	6401a7ff 	.word	0xffa70164
801127c0:	ef0f0000 	.word	0xfef
801127c4:	ff0f5900 	.word	0x590fff
801127c8:	f00f0700 	.word	0x70ff0
801127cc:	9cfe0000 	.word	0xfe9c
801127d0:	53ff3e0a 	j	0x88fbfd4c
801127d4:	1f5d3e0a 	j	0x88f9747c
801127d8:	00000000 	nop
801127dc:	61ed7e77 	jalx	0x8dfbb585
801127e0:	b09c0100 	.word	0x19cb0
801127e4:	0c003304 	.word	0x433000c
801127e8:	00000000 	nop
801127ec:	4401b2ff 	.word	0xffb20144
801127f0:	f20f0000 	.word	0xff2
801127f4:	ff0f4f00 	.word	0x4f0fff
801127f8:	f30f0600 	.word	0x60ff3
801127fc:	bcfe0000 	.word	0xfebc
80112800:	494d1d0b 	j	0x8c753524
80112804:	52c51c0b 	j	0x8c731548
80112808:	00000000 	nop
8011280c:	76f8b577 	jalx	0x8ed7e1d9
80112810:	de9b0100 	.word	0x19bde
80112814:	0c003004 	bltzal	at,0x80112848
80112818:	00000000 	nop
8011281c:	3001b2ff 	.word	0xffb20130
80112820:	f30f0000 	.word	0xff3
80112824:	ff0f4f00 	.word	0x4f0fff
80112828:	f40f0500 	.word	0x50ff4
8011282c:	d0fe0000 	.word	0xfed0
80112830:	304d1d0b 	j	0x8c7534c0
80112834:	39c51c0b 	j	0x8c7314e4
80112838:	00000000 	nop
8011283c:	8a03ec77 	jalx	0x8fb00e29
80112840:	0c9b0100 	syscall	0x66c
80112844:	0b002d04 	.word	0x42d000b
80112848:	00000000 	nop
8011284c:	1d01bbff 	.word	0xffbb011d
80112850:	f50f0000 	.word	0xff5
80112854:	ff0f4500 	.word	0x450fff
80112858:	f60f0400 	.word	0x40ff6
8011285c:	e3fe0000 	.word	0xfee3
80112860:	2d7f8d0b 	j	0x8e35fcb4
80112864:	c5108d0b 	j	0x8e344314
80112868:	00000000 	nop
8011286c:	110f1f78 	.word	0x781f0f11
80112870:	479a0100 	.word	0x19a47
80112874:	0b002b04 	.word	0x42b000b
80112878:	00000000 	nop
8011287c:	1201bbff 	.word	0xffbb0112
80112880:	f60f0000 	.word	0xff6
80112884:	ff0f4500 	.word	0x450fff
80112888:	f60f0400 	.word	0x40ff6
8011288c:	eefe0000 	.word	0xfeee
80112890:	4e7f8d0b 	j	0x8e35fd38
80112894:	e6108d0b 	j	0x8e344398
80112898:	00000000 	nop
8011289c:	971a5178 	.word	0x78511a97
801128a0:	82990100 	srl	s3,at,0x6
801128a4:	09002904 	.word	0x4290009
801128a8:	00000000 	nop
801128ac:	0701c3ff 	.word	0xffc30107
801128b0:	f70f0000 	.word	0xff7
801128b4:	ff0f3d00 	.word	0x3d0fff
801128b8:	f70f0300 	.word	0x30ff7
801128bc:	f9fe0000 	.word	0xfef9
801128c0:	5d518f0b 	j	0x8e3d4574
801128c4:	adfc8e0b 	j	0x8e3bf2b4
801128c8:	00000000 	nop
801128cc:	20267d78 	.word	0x787d2620
801128d0:	c7980100 	.word	0x198c7
801128d4:	09002904 	.word	0x4290009
801128d8:	00000000 	nop
801128dc:	0301c3ff 	.word	0xffc30103
801128e0:	f70f0000 	.word	0xff7
801128e4:	ff0f3d00 	.word	0x3d0fff
801128e8:	f70f0300 	.word	0x30ff7
801128ec:	fdfe0000 	.word	0xfefd
801128f0:	7e518f0b 	j	0x8e3d45f8
801128f4:	cdfc8e0b 	j	0x8e3bf334
801128f8:	00000000 	nop
801128fc:	a931aa78 	.word	0x78aa31a9
80112900:	0c980100 	syscall	0x660
80112904:	08002804 	.word	0x4280008
80112908:	00000000 	nop
8011290c:	ff00cdff 	.word	0xffcd00ff
80112910:	f70f0000 	.word	0xff7
80112914:	ff0f3400 	.word	0x340fff
80112918:	f80f0300 	.word	0x30ff8
8011291c:	01ff0000 	.word	0xff01
80112920:	c7a7220b 	j	0x8c8a9f1c
80112924:	ed6c220b 	j	0x8c89b3b4
80112928:	00000000 	nop
8011292c:	c63cce78 	.word	0x78ce3cc6
80112930:	59970100 	.word	0x19759
80112934:	08002904 	.word	0x4290008
80112938:	00000000 	nop
8011293c:	0201cdff 	.word	0xffcd0102
80112940:	f70f0000 	.word	0xff7
80112944:	ff0f3400 	.word	0x340fff
80112948:	f70f0300 	.word	0x30ff7
8011294c:	fefe0000 	.word	0xfefe
80112950:	a7a7220b 	j	0x8c8a9e9c
80112954:	cf6c220b 	j	0x8c89b33c
80112958:	00000000 	nop
8011295c:	e347f278 	.word	0x78f247e3
80112960:	a6960100 	.word	0x196a6
80112964:	06002904 	.word	0x4290006
80112968:	00000000 	nop
8011296c:	0501d8ff 	.word	0xffd80105
80112970:	f70f0000 	.word	0xff7
80112974:	ff0f2900 	.word	0x290fff
80112978:	f70f0200 	.word	0x20ff7
8011297c:	fbfe0000 	.word	0xfefb
80112980:	8a80470a 	j	0x891e0228
80112984:	ba5e470a 	j	0x891d7ae8
80112988:	00000000 	nop
8011298c:	25520c79 	.word	0x790c5225
80112990:	f8950100 	.word	0x195f8
80112994:	06002b04 	.word	0x42b0006
80112998:	00000000 	nop
8011299c:	1101d8ff 	.word	0xffd80111
801129a0:	f60f0000 	.word	0xff6
801129a4:	ff0f2900 	.word	0x290fff
801129a8:	f60f0200 	.word	0x20ff6
801129ac:	effe0000 	.word	0xfeef
801129b0:	4b80470a 	j	0x891e012c
801129b4:	7b5e470a 	j	0x891d79ec
801129b8:	00000000 	nop
801129bc:	665c2779 	.word	0x79275c66
801129c0:	49950100 	.word	0x19549
801129c4:	04002d04 	.word	0x42d0004
801129c8:	00000000 	nop
801129cc:	1d01e6ff 	.word	0xffe6011d
801129d0:	f50f0000 	.word	0xff5
801129d4:	ff0f1a00 	.word	0x1a0fff
801129d8:	f60f0100 	.word	0x10ff6
801129dc:	e3fe0000 	.word	0xfee3
801129e0:	aafffd08 	j	0x83f7fea8
801129e4:	97f3fd08 	j	0x83f7ce5c
801129e8:	00000000 	nop
801129ec:	5e653679 	.word	0x7936655e
801129f0:	9d940100 	.word	0x1949d
801129f4:	04003104 	bgezal	at,0x80112a08
801129f8:	00000000 	nop
801129fc:	3601e6ff 	.word	0xffe60136
80112a00:	f40f0000 	.word	0xff4
80112a04:	ff0f1a00 	.word	0x1a0fff
80112a08:	f40f0100 	.word	0x10ff4
80112a0c:	cafe0000 	.word	0xfeca
80112a10:	6afffd08 	j	0x83f7fda8
80112a14:	55f3fd08 	j	0x83f7cd54
80112a18:	00000000 	nop
80112a1c:	556e4479 	.word	0x79446e55
80112a20:	f0930100 	.word	0x193f0
80112a24:	00003504 	.word	0x4350000
80112a28:	00000000 	nop
80112a2c:	5001feff 	.word	0xfffe0150
80112a30:	f20f0000 	.word	0xff2
80112a34:	ff0f0200 	.word	0x20fff
80112a38:	f20f0000 	.word	0xff2
80112a3c:	b0fe0000 	.word	0xfeb0
80112a40:	228e4607 	.word	0x7468e22
80112a44:	038e4607 	.word	0x7468e03
80112a48:	00000000 	nop
80112a4c:	94754679 	.word	0x79467594
80112a50:	43930100 	sra	s2,at,0xd
80112a54:	00003e04 	.word	0x43e0000
80112a58:	00000000 	nop
80112a5c:	8601feff 	.word	0xfffe0186
80112a60:	ed0f0000 	.word	0xfed
80112a64:	ff0f0200 	.word	0x20fff
80112a68:	ed0f0000 	.word	0xfed
80112a6c:	7afe0000 	.word	0xfe7a
80112a70:	048e4607 	.word	0x7468e04
80112a74:	e68d4607 	.word	0x7468de6
	...
80112ab0:	2a000000 	slt	zero,zero,zero
	...
80112abc:	d4feffff 	.word	0xfffffed4
80112ac0:	fcfeffff 	.word	0xfffffefc
	...
80112ad0:	c8000000 	.word	0xc8
	...
80112adc:	2c010000 	.word	0x12c
80112ae0:	fcfeffff 	.word	0xfffffefc
	...
80112af0:	36010000 	.word	0x136
	...
80112b00:	70dbffff 	.word	0xffffdb70
	...
80112b10:	03020000 	sra	zero,zero,0x8
	...
80112b20:	b8deffff 	.word	0xffffdeb8
	...
80112b30:	bf020000 	.word	0x2bf
	...
80112b3c:	70feffff 	.word	0xfffffe70
80112b40:	9cffffff 	.word	0xffffff9c
	...
80112b4c:	70feffff 	.word	0xfffffe70
80112b50:	ffff0000 	.word	0xffff
	...
80112b60:	80008000 	.word	0x800080
80112b64:	a0000000 	.word	0xa0
80112b68:	00000000 	nop
80112b6c:	00008000 	.word	0x800000
80112b70:	800060ff 	.word	0xff600080
	...
80112b7c:	80ff8000 	.word	0x80ff80
80112b80:	a0000000 	.word	0xa0
80112b84:	00000000 	nop
80112b88:	000080ff 	.word	0xff800000
80112b8c:	800060ff 	.word	0xff600080
	...
80112b9c:	65c4ffff 	.word	0xffffc465
80112ba0:	c7d3ffff 	.word	0xffffd3c7
80112ba4:	08e4ffff 	.word	0xffffe408
80112ba8:	40f5ffff 	.word	0xfffff540
80112bac:	f0050000 	.word	0x5f0
80112bb0:	86878889 	lwl	t0,-30842(t4)
	...
80112bc8:	ff3f0f00 	.word	0xf3fff
80112bcc:	f40cf40c 	jal	0x83d033d0
80112bd0:	02128080 	lb	zero,4610(a0)
80112bd4:	f40cf40c 	jal	0x83d033d0
80112bd8:	02128080 	lb	zero,4610(a0)
80112bdc:	f40cf40c 	jal	0x83d033d0
80112be0:	1a128080 	lb	zero,4634(a0)
80112be4:	f40cf40c 	jal	0x83d033d0
80112be8:	1a128080 	lb	zero,4634(a0)
80112bec:	f40cf40c 	jal	0x83d033d0
80112bf0:	32128080 	lb	zero,4658(a0)
80112bf4:	f40cf40c 	jal	0x83d033d0
80112bf8:	32128080 	lb	zero,4658(a0)
80112bfc:	f40cf40c 	jal	0x83d033d0
80112c00:	4a128080 	lb	zero,4682(a0)
80112c04:	f40cf40c 	jal	0x83d033d0
80112c08:	4a128080 	lb	zero,4682(a0)
80112c0c:	f40cf40c 	jal	0x83d033d0
80112c10:	62128080 	lb	zero,4706(a0)
80112c14:	f40cf40c 	jal	0x83d033d0
80112c18:	62128080 	lb	zero,4706(a0)
80112c1c:	f40cf40c 	jal	0x83d033d0
80112c20:	7a128080 	lb	zero,4730(a0)
80112c24:	f40cf40c 	jal	0x83d033d0
80112c28:	7a128080 	lb	zero,4730(a0)
80112c2c:	f40cf40c 	jal	0x83d033d0
80112c30:	022a8080 	lb	zero,10754(a0)
80112c34:	f40cf40c 	jal	0x83d033d0
80112c38:	022a8080 	lb	zero,10754(a0)
80112c3c:	f40cf40c 	jal	0x83d033d0
80112c40:	1a2a8080 	lb	zero,10778(a0)
80112c44:	f40cf40c 	jal	0x83d033d0
80112c48:	1a2a8080 	lb	zero,10778(a0)
80112c4c:	f40cf40c 	jal	0x83d033d0
80112c50:	322a8080 	lb	zero,10802(a0)
80112c54:	f40cf40c 	jal	0x83d033d0
80112c58:	322a8080 	lb	zero,10802(a0)
80112c5c:	f40cf40c 	jal	0x83d033d0
80112c60:	4a2a8080 	lb	zero,10826(a0)
80112c64:	f40cf40c 	jal	0x83d033d0
80112c68:	4a2a8080 	lb	zero,10826(a0)
80112c6c:	f40cf40c 	jal	0x83d033d0
80112c70:	622a8080 	lb	zero,10850(a0)
80112c74:	f40cf40c 	jal	0x83d033d0
80112c78:	622a8080 	lb	zero,10850(a0)
80112c7c:	f40cf40c 	jal	0x83d033d0
80112c80:	7a2a8080 	lb	zero,10874(a0)
80112c84:	f40cf40c 	jal	0x83d033d0
80112c88:	7a2a80c0 	lwc0	c0_index,10874(a0)
80112c8c:	f3390c00 	.word	0xc39f3
80112c90:	f111e808 	j	0x83a047c4
80112c94:	03e38380 	lb	v1,-7421(a0)
80112c98:	f50ded05 	.word	0x5ed0df5
80112c9c:	22ea8380 	lb	v1,-5598(a0)
80112ca0:	f313ea0a 	j	0x8ba84fcc
80112ca4:	3be38380 	lb	v1,-7365(a0)
80112ca8:	ed15e808 	j	0x83a057b4
80112cac:	5ce383c0 	lwc0	$3,-7332(a0)
80112cb0:	600f1180 	lb	s1,3936(zero)
80112cb4:	b4131180 	lb	s1,5044(zero)
80112cb8:	00000000 	nop
80112cbc:	dc131180 	lb	s1,5084(zero)
80112cc0:	b47c0280 	lb	v0,31924(zero)
80112cc4:	00000000 	nop
80112cc8:	58111180 	lb	s1,4440(zero)
80112ccc:	b47c0280 	lb	v0,31924(zero)
80112cd0:	00000000 	nop
80112cd4:	00010000 	sll	zero,zero,0x4
80112cd8:	3c006400 	.word	0x64003c
80112cdc:	00010001 	.word	0x1000100
80112ce0:	3d005a00 	.word	0x5a003d
80112ce4:	00010002 	.word	0x2000100
80112ce8:	3e005f00 	.word	0x5f003e
80112cec:	00010003 	.word	0x3000100
80112cf0:	3f006900 	.word	0x69003f
80112cf4:	00010004 	bltz	zero,0x801130f8
80112cf8:	40006e00 	.word	0x6e0040
80112cfc:	00010005 	bltz	t0,0x80113100
80112d00:	41006e00 	.word	0x6e0041
80112d04:	00010006 	bltz	s0,0x80113108
80112d08:	42006e00 	.word	0x6e0042
80112d0c:	00010007 	bltz	t8,0x80113110
80112d10:	43005a00 	.word	0x5a0043
80112d14:	00010008 	j	0x80000400
80112d18:	44007300 	.word	0x730044
80112d1c:	00010009 	j	0x84000400
80112d20:	45007800 	.word	0x780045
80112d24:	0001000a 	j	0x88000400
80112d28:	46006900 	.word	0x690046
80112d2c:	0001000b 	j	0x8c000400
80112d30:	47007300 	.word	0x730047
80112d34:	0001000c 	jal	0x80000400
80112d38:	48007300 	.word	0x730048
	...
8011314c:	34c11180 	lb	s1,-16076(zero)
80113150:	60c11180 	lb	s1,-16032(zero)
80113154:	80c11180 	lb	s1,-16000(zero)
80113158:	88c11180 	lb	s1,-15992(zero)
8011315c:	90c11180 	lb	s1,-15984(zero)
80113160:	98c11180 	lb	s1,-15976(zero)
80113164:	a0c11180 	lb	s1,-15968(zero)
80113168:	a8c11180 	lb	s1,-15960(zero)
8011316c:	b0c11180 	lb	s1,-15952(zero)
80113170:	b8c11180 	lb	s1,-15944(zero)
80113174:	c0c11180 	lb	s1,-15936(zero)
80113178:	c8c11180 	lb	s1,-15928(zero)
8011317c:	d0c11180 	lb	s1,-15920(zero)
80113180:	d8c11180 	lb	s1,-15912(zero)
80113184:	e0c11180 	lb	s1,-15904(zero)
80113188:	e8c11180 	lb	s1,-15896(zero)
8011318c:	f0c11180 	lb	s1,-15888(zero)
80113190:	f8c11180 	lb	s1,-15880(zero)
80113194:	00c21180 	lb	s1,-15872(zero)
80113198:	00000000 	nop
8011319c:	00000400 	sll	zero,a0,0x0
801131a0:	01000000 	.word	0x1
801131a4:	00000400 	sll	zero,a0,0x0
801131a8:	02000000 	srl	zero,zero,0x0
801131ac:	00000400 	sll	zero,a0,0x0
801131b0:	03000000 	sra	zero,zero,0x0
801131b4:	00000400 	sll	zero,a0,0x0
801131b8:	04000000 	sllv	zero,zero,zero
801131bc:	000004c0 	lwc0	c0_context,0(zero)
801131c0:	34c11180 	lb	s1,-16076(zero)
801131c4:	05000000 	.word	0x5
801131c8:	00000220 	addi	v0,zero,0
801131cc:	06000000 	srlv	zero,zero,zero
801131d0:	00000220 	addi	v0,zero,0
801131d4:	07000000 	srav	zero,zero,zero
801131d8:	00000220 	addi	v0,zero,0
801131dc:	08000000 	jr	zero
801131e0:	00003c80 	lb	gp,0(at)
801131e4:	09000000 	jalr	zero,zero
801131e8:	00003c80 	lb	gp,0(at)
801131ec:	0a000000 	.word	0xa
801131f0:	00003c80 	lb	gp,0(at)
801131f4:	0b000000 	.word	0xb
801131f8:	00000480 	lb	a0,0(zero)
801131fc:	0c000000 	syscall
80113200:	00000480 	lb	a0,0(zero)
80113204:	0d000000 	break
80113208:	00000480 	lb	a0,0(zero)
8011320c:	0e000000 	.word	0xe
80113210:	00000480 	lb	a0,0(zero)
80113214:	0f000000 	.word	0xf
80113218:	00000480 	lb	a0,0(zero)
8011321c:	10000000 	mfhi	zero
80113220:	00000480 	lb	a0,0(zero)
80113224:	11000000 	mthi	zero
80113228:	00000480 	lb	a0,0(zero)
8011322c:	12000000 	mflo	zero
80113230:	00000480 	lb	a0,0(zero)
80113234:	13000000 	mtlo	zero
80113238:	00000480 	lb	a0,0(zero)
8011323c:	14000000 	.word	0x14
80113240:	00000480 	lb	a0,0(zero)
80113244:	15000000 	.word	0x15
80113248:	00000480 	lb	a0,0(zero)
8011324c:	16000000 	.word	0x16
80113250:	00000480 	lb	a0,0(zero)
80113254:	17000000 	.word	0x17
80113258:	00000480 	lb	a0,0(zero)
8011325c:	18000000 	mult	zero,zero
80113260:	00000480 	lb	a0,0(zero)
80113264:	19000000 	multu	zero,zero
80113268:	00000480 	lb	a0,0(zero)
