
rom/extracted/BIN/A09.BIN:     file format binary


Disassembly of section .data:

80100000 <.data>:
80100000:	13000000 	mtlo	zero
80100004:	74971080 	lb	s0,-26764(zero)
80100008:	58971080 	lb	s0,-26792(zero)
8010000c:	58971080 	lb	s0,-26792(zero)
80100010:	58971080 	lb	s0,-26792(zero)
80100014:	58971080 	lb	s0,-26792(zero)
80100018:	58971080 	lb	s0,-26792(zero)
8010001c:	74971080 	lb	s0,-26764(zero)
80100020:	58971080 	lb	s0,-26792(zero)
80100024:	24981080 	lb	s0,-26588(zero)
80100028:	58981080 	lb	s0,-26536(zero)
8010002c:	bc981080 	lb	s0,-26436(zero)
80100030:	8c991080 	lb	s0,-26228(zero)
80100034:	d8991080 	lb	s0,-26152(zero)
80100038:	189a1080 	lb	s0,-26088(zero)
8010003c:	609a1080 	lb	s0,-26016(zero)
80100040:	149c1080 	lb	s0,-25580(zero)
80100044:	309c1080 	lb	s0,-25552(zero)
80100048:	6c9c1080 	lb	s0,-25492(zero)
8010004c:	909a1080 	lb	s0,-25968(zero)
80100050:	1c9b1080 	lb	s0,-25828(zero)
80100054:	409b1080 	lb	s0,-25792(zero)
80100058:	649b1080 	lb	s0,-25756(zero)
8010005c:	c09b1080 	lb	s0,-25664(zero)
80100060:	30a41080 	lb	s0,-23504(zero)
80100064:	44a41080 	lb	s0,-23484(zero)
80100068:	70a41080 	lb	s0,-23440(zero)
8010006c:	90a41080 	lb	s0,-23408(zero)
80100070:	04a51080 	lb	s0,-23292(zero)
80100074:	44a51080 	lb	s0,-23228(zero)
80100078:	c8a51080 	lb	s0,-23096(zero)
8010007c:	94ab1080 	lb	s0,-21612(zero)
80100080:	d4ab1080 	lb	s0,-21548(zero)
80100084:	5cac1080 	lb	s0,-21412(zero)
80100088:	1cad1080 	lb	s0,-21220(zero)
8010008c:	34ad1080 	lb	s0,-21196(zero)
80100090:	00000000 	nop
80100094:	fcaf1080 	lb	s0,-20484(zero)
80100098:	10b01080 	lb	s0,-20464(zero)
8010009c:	c0b01080 	lb	s0,-20288(zero)
801000a0:	e8b01080 	lb	s0,-20248(zero)
801000a4:	60b31080 	lb	s0,-19616(zero)
801000a8:	00000000 	nop
801000ac:	a8b61080 	lb	s0,-18776(zero)
801000b0:	e8b71080 	lb	s0,-18456(zero)
801000b4:	a0b81080 	lb	s0,-18272(zero)
801000b8:	54b81080 	lb	s0,-18348(zero)
801000bc:	64b81080 	lb	s0,-18332(zero)
801000c0:	00c71080 	lb	s0,-14592(zero)
801000c4:	9cc71080 	lb	s0,-14436(zero)
801000c8:	acc81080 	lb	s0,-14164(zero)
801000cc:	6cca1080 	lb	s0,-13716(zero)
801000d0:	7cca1080 	lb	s0,-13700(zero)
801000d4:	16001400 	.word	0x140016
801000d8:	12001000 	.word	0x100012
801000dc:	d8ffbd27 	addiu	sp,sp,-40
801000e0:	1c00b3af 	sw	s3,28(sp)
801000e4:	801f133c 	lui	s3,0x1f80
801000e8:	37016292 	lbu	v0,311(s3)
801000ec:	1400b1af 	sw	s1,20(sp)
801000f0:	21888000 	move	s1,a0
801000f4:	1800b2af 	sw	s2,24(sp)
801000f8:	2190a000 	move	s2,a1
801000fc:	2000bfaf 	sw	ra,32(sp)
80100100:	44004014 	bnez	v0,0x80100214
80100104:	1000b0af 	sw	s0,16(sp)
80100108:	0c80023c 	lui	v0,0x800c
8010010c:	08f85024 	addiu	s0,v0,-2040
80100110:	05000282 	lb	v0,5(s0)
80100114:	00000000 	nop
80100118:	3e004014 	bnez	v0,0x80100214
8010011c:	00000000 	nop
80100120:	7e012286 	lh	v0,382(s1)
80100124:	00000000 	nop
80100128:	00824230 	andi	v0,v0,0x8200
8010012c:	30004010 	beqz	v0,0x801001f0
80100130:	00000000 	nop
80100134:	038c000c 	jal	0x8002300c
80100138:	20000624 	li	a2,32
8010013c:	35004010 	beqz	v0,0x80100214
80100140:	00000000 	nop
80100144:	00002292 	lbu	v0,0(s1)
80100148:	00000000 	nop
8010014c:	04004230 	andi	v0,v0,0x4
80100150:	1d004014 	bnez	v0,0x801001c8
80100154:	01000624 	li	a2,1
80100158:	801f103c 	lui	s0,0x1f80
8010015c:	9c00048e 	lw	a0,156(s0)
80100160:	d40f020c 	jal	0x80083f50
80100164:	00088424 	addiu	a0,a0,2048
80100168:	80002386 	lh	v1,128(s1)
8010016c:	00000000 	nop
80100170:	20006324 	addiu	v1,v1,32
80100174:	18004300 	mult	v0,v1
80100178:	9c00048e 	lw	a0,156(s0)
8010017c:	00000000 	nop
80100180:	00088424 	addiu	a0,a0,2048
80100184:	12380000 	mflo	a3
80100188:	a00f020c 	jal	0x80083e80
8010018c:	03830700 	sra	s0,a3,0xc
80100190:	80002386 	lh	v1,128(s1)
80100194:	00000000 	nop
80100198:	20006324 	addiu	v1,v1,32
8010019c:	18004300 	mult	v0,v1
801001a0:	2e004296 	lhu	v0,46(s2)
801001a4:	00000000 	nop
801001a8:	21105000 	addu	v0,v0,s0
801001ac:	2e0022a6 	sh	v0,46(s1)
801001b0:	36004296 	lhu	v0,54(s2)
801001b4:	12380000 	mflo	a3
801001b8:	031b0700 	sra	v1,a3,0xc
801001bc:	23104300 	subu	v0,v0,v1
801001c0:	360022a6 	sh	v0,54(s1)
801001c4:	01000624 	li	a2,1
801001c8:	801f023c 	lui	v0,0x1f80
801001cc:	9c004494 	lhu	a0,156(v0)
801001d0:	40012586 	lh	a1,320(s1)
801001d4:	00088424 	addiu	a0,a0,2048
801001d8:	00240400 	sll	a0,a0,0x10
801001dc:	dadd010c 	jal	0x80077768
801001e0:	03240400 	sra	a0,a0,0x10
801001e4:	02004224 	addiu	v0,v0,2
801001e8:	6c240408 	j	0x801091b0
801001ec:	5f0022a2 	sb	v0,95(s1)
801001f0:	21202002 	move	a0,s1
801001f4:	c18b000c 	jal	0x80022f04
801001f8:	21284002 	move	a1,s2
801001fc:	05004010 	beqz	v0,0x80100214
80100200:	01000324 	li	v1,1
80100204:	02000224 	li	v0,2
80100208:	290043a2 	sb	v1,41(s2)
8010020c:	370162a2 	sb	v0,311(s3)
80100210:	390003a2 	sb	v1,57(s0)
80100214:	2000bf8f 	lw	ra,32(sp)
80100218:	1c00b38f 	lw	s3,28(sp)
8010021c:	1800b28f 	lw	s2,24(sp)
80100220:	1400b18f 	lw	s1,20(sp)
80100224:	1000b08f 	lw	s0,16(sp)
80100228:	0800e003 	jr	ra
8010022c:	2800bd27 	addiu	sp,sp,40
80100230:	801f023c 	lui	v0,0x1f80
80100234:	37014290 	lbu	v0,311(v0)
80100238:	e0ffbd27 	addiu	sp,sp,-32
8010023c:	1400b1af 	sw	s1,20(sp)
80100240:	21888000 	move	s1,a0
80100244:	1800b2af 	sw	s2,24(sp)
80100248:	2190a000 	move	s2,a1
8010024c:	1000b0af 	sw	s0,16(sp)
80100250:	60003026 	addiu	s0,s1,96
80100254:	63004014 	bnez	v0,0x801003e4
80100258:	1c00bfaf 	sw	ra,28(sp)
8010025c:	0c80023c 	lui	v0,0x800c
80100260:	0df84280 	lb	v0,-2035(v0)
80100264:	00000000 	nop
80100268:	5e004014 	bnez	v0,0x801003e4
8010026c:	00000000 	nop
80100270:	038c000c 	jal	0x8002300c
80100274:	50000624 	li	a2,80
80100278:	5a004010 	beqz	v0,0x801003e4
8010027c:	10000224 	li	v0,16
80100280:	5f002392 	lbu	v1,95(s1)
80100284:	00000000 	nop
80100288:	4e006214 	bne	v1,v0,0x801003c4
8010028c:	21202002 	move	a0,s1
80100290:	86004396 	lhu	v1,134(s2)
80100294:	84004296 	lhu	v0,132(s2)
80100298:	32004496 	lhu	a0,50(s2)
8010029c:	23186200 	subu	v1,v1,v0
801002a0:	21208300 	addu	a0,a0,v1
801002a4:	32002296 	lhu	v0,50(s1)
801002a8:	84002396 	lhu	v1,132(s1)
801002ac:	23104400 	subu	v0,v0,a0
801002b0:	14004224 	addiu	v0,v0,20
801002b4:	21186200 	addu	v1,v1,v0
801002b8:	86002286 	lh	v0,134(s1)
801002bc:	ffff6330 	andi	v1,v1,0xffff
801002c0:	28004224 	addiu	v0,v0,40
801002c4:	2a104300 	slt	v0,v0,v1
801002c8:	37004014 	bnez	v0,0x801003a8
801002cc:	21284002 	move	a1,s2
801002d0:	46002292 	lbu	v0,70(s1)
801002d4:	00000000 	nop
801002d8:	42180200 	srl	v1,v0,0x1
801002dc:	2d006004 	bltz	v1,0x80100394
801002e0:	02006228 	slti	v0,v1,2
801002e4:	22004010 	beqz	v0,0x80100370
801002e8:	04006228 	slti	v0,v1,4
801002ec:	08000486 	lh	a0,8(s0)
801002f0:	d40f020c 	jal	0x80083f50
801002f4:	00088424 	addiu	a0,a0,2048
801002f8:	80002386 	lh	v1,128(s1)
801002fc:	00000000 	nop
80100300:	20006324 	addiu	v1,v1,32
80100304:	18004300 	mult	v0,v1
80100308:	08000486 	lh	a0,8(s0)
8010030c:	00000000 	nop
80100310:	00088424 	addiu	a0,a0,2048
80100314:	12400000 	mflo	t0
80100318:	a00f020c 	jal	0x80083e80
8010031c:	03830800 	sra	s0,t0,0xc
80100320:	80002386 	lh	v1,128(s1)
80100324:	00000000 	nop
80100328:	20006324 	addiu	v1,v1,32
8010032c:	18004300 	mult	v0,v1
80100330:	2e004296 	lhu	v0,46(s2)
80100334:	00000000 	nop
80100338:	21105000 	addu	v0,v0,s0
8010033c:	2e0022a6 	sh	v0,46(s1)
80100340:	36004296 	lhu	v0,54(s2)
80100344:	12400000 	mflo	t0
80100348:	031b0800 	sra	v1,t0,0xc
8010034c:	23104300 	subu	v0,v0,v1
80100350:	360022a6 	sh	v0,54(s1)
80100354:	86004396 	lhu	v1,134(s2)
80100358:	84004496 	lhu	a0,132(s2)
8010035c:	32004296 	lhu	v0,50(s2)
80100360:	23186400 	subu	v1,v1,a0
80100364:	21104300 	addu	v0,v0,v1
80100368:	cc240408 	j	0x80109330
8010036c:	320022a6 	sh	v0,50(s1)
80100370:	08004010 	beqz	v0,0x80100394
80100374:	00000000 	nop
80100378:	320024a6 	sh	a0,50(s1)
8010037c:	2e004296 	lhu	v0,46(s2)
80100380:	00000000 	nop
80100384:	2e0022a6 	sh	v0,46(s1)
80100388:	36004296 	lhu	v0,54(s2)
8010038c:	00000000 	nop
80100390:	360022a6 	sh	v0,54(s1)
80100394:	21202002 	move	a0,s1
80100398:	21284002 	move	a1,s2
8010039c:	21300000 	move	a2,zero
801003a0:	d4240408 	j	0x80109350
801003a4:	00010724 	li	a3,256
801003a8:	21202002 	move	a0,s1
801003ac:	21300000 	move	a2,zero
801003b0:	2138c000 	move	a3,a2
801003b4:	187a000c 	jal	0x8001e860
801003b8:	00000000 	nop
801003bc:	df240408 	j	0x8010937c
801003c0:	801f023c 	lui	v0,0x1f80
801003c4:	21284002 	move	a1,s2
801003c8:	21300000 	move	a2,zero
801003cc:	187a000c 	jal	0x8001e860
801003d0:	2138c000 	move	a3,a2
801003d4:	80004230 	andi	v0,v0,0x80
801003d8:	02004014 	bnez	v0,0x801003e4
801003dc:	801f023c 	lui	v0,0x1f80
801003e0:	820140a0 	sb	zero,386(v0)
801003e4:	1c00bf8f 	lw	ra,28(sp)
801003e8:	1800b28f 	lw	s2,24(sp)
801003ec:	1400b18f 	lw	s1,20(sp)
801003f0:	1000b08f 	lw	s0,16(sp)
801003f4:	0800e003 	jr	ra
801003f8:	2000bd27 	addiu	sp,sp,32
801003fc:	e0ffbd27 	addiu	sp,sp,-32
80100400:	1400b1af 	sw	s1,20(sp)
80100404:	801f023c 	lui	v0,0x1f80
80100408:	1800b2af 	sw	s2,24(sp)
8010040c:	4801528c 	lw	s2,328(v0)
80100410:	801f023c 	lui	v0,0x1f80
80100414:	50014290 	lbu	v0,336(v0)
80100418:	801f033c 	lui	v1,0x1f80
8010041c:	1c00bfaf 	sw	ra,28(sp)
80100420:	1000b0af 	sw	s0,16(sp)
80100424:	820162a0 	sb	v0,386(v1)
80100428:	ff004230 	andi	v0,v0,0xff
8010042c:	75004010 	beqz	v0,0x80100604
80100430:	21888000 	move	s1,a0
80100434:	82016290 	lbu	v0,386(v1)
80100438:	0000508e 	lw	s0,0(s2)
8010043c:	ffff4224 	addiu	v0,v0,-1
80100440:	820162a0 	sb	v0,386(v1)
80100444:	00000292 	lbu	v0,0(s0)
80100448:	00000000 	nop
8010044c:	01004230 	andi	v0,v0,0x1
80100450:	67004010 	beqz	v0,0x801005f0
80100454:	04005226 	addiu	s2,s2,4
80100458:	02000392 	lbu	v1,2(s0)
8010045c:	12000224 	li	v0,18
80100460:	26006210 	beq	v1,v0,0x801004fc
80100464:	13006228 	slti	v0,v1,19
80100468:	0b004010 	beqz	v0,0x80100498
8010046c:	0c000224 	li	v0,12
80100470:	1d006210 	beq	v1,v0,0x801004e8
80100474:	2a106200 	slt	v0,v1,v0
80100478:	5d004014 	bnez	v0,0x801005f0
8010047c:	10006228 	slti	v0,v1,16
80100480:	5b004010 	beqz	v0,0x801005f0
80100484:	0e006228 	slti	v0,v1,14
80100488:	5a004014 	bnez	v0,0x801005f4
8010048c:	801f033c 	lui	v1,0x1f80
80100490:	1d250408 	j	0x80109474
80100494:	21202002 	move	a0,s1
80100498:	65000224 	li	v0,101
8010049c:	21006210 	beq	v1,v0,0x80100524
801004a0:	66006228 	slti	v0,v1,102
801004a4:	05004010 	beqz	v0,0x801004bc
801004a8:	1f000224 	li	v0,31
801004ac:	18006210 	beq	v1,v0,0x80100510
801004b0:	801f033c 	lui	v1,0x1f80
801004b4:	64250408 	j	0x80109590
801004b8:	00000000 	nop
801004bc:	66000224 	li	v0,102
801004c0:	1d006210 	beq	v1,v0,0x80100538
801004c4:	67000224 	li	v0,103
801004c8:	20006210 	beq	v1,v0,0x8010054c
801004cc:	801f033c 	lui	v1,0x1f80
801004d0:	64250408 	j	0x80109590
801004d4:	00000000 	nop
801004d8:	b87e000c 	jal	0x8001fae0
801004dc:	21280002 	move	a1,s0
801004e0:	64250408 	j	0x80109590
801004e4:	801f033c 	lui	v1,0x1f80
801004e8:	21202002 	move	a0,s1
801004ec:	1a82000c 	jal	0x80020868
801004f0:	21280002 	move	a1,s0
801004f4:	64250408 	j	0x80109590
801004f8:	801f033c 	lui	v1,0x1f80
801004fc:	21202002 	move	a0,s1
80100500:	478c000c 	jal	0x8002311c
80100504:	21280002 	move	a1,s0
80100508:	64250408 	j	0x80109590
8010050c:	801f033c 	lui	v1,0x1f80
80100510:	21202002 	move	a0,s1
80100514:	d98d000c 	jal	0x80023764
80100518:	21280002 	move	a1,s0
8010051c:	64250408 	j	0x80109590
80100520:	801f033c 	lui	v1,0x1f80
80100524:	21202002 	move	a0,s1
80100528:	1e24040c 	jal	0x80109078
8010052c:	21280002 	move	a1,s0
80100530:	64250408 	j	0x80109590
80100534:	801f033c 	lui	v1,0x1f80
80100538:	21202002 	move	a0,s1
8010053c:	147f000c 	jal	0x8001fc50
80100540:	21280002 	move	a1,s0
80100544:	64250408 	j	0x80109590
80100548:	801f033c 	lui	v1,0x1f80
8010054c:	2e002296 	lhu	v0,46(s1)
80100550:	2e000396 	lhu	v1,46(s0)
80100554:	00000000 	nop
80100558:	23104300 	subu	v0,v0,v1
8010055c:	00140200 	sll	v0,v0,0x10
80100560:	03140200 	sra	v0,v0,0x10
80100564:	18004200 	mult	v0,v0
80100568:	36002296 	lhu	v0,54(s1)
8010056c:	36000396 	lhu	v1,54(s0)
80100570:	00000000 	nop
80100574:	23104300 	subu	v0,v0,v1
80100578:	12200000 	mflo	a0
8010057c:	00140200 	sll	v0,v0,0x10
80100580:	03140200 	sra	v0,v0,0x10
80100584:	18004200 	mult	v0,v0
80100588:	12180000 	mflo	v1
8010058c:	2010020c 	jal	0x80084080
80100590:	21208300 	addu	a0,a0,v1
80100594:	80002386 	lh	v1,128(s1)
80100598:	ffff4230 	andi	v0,v0,0xffff
8010059c:	c8006324 	addiu	v1,v1,200
801005a0:	2a186200 	slt	v1,v1,v0
801005a4:	13006014 	bnez	v1,0x801005f4
801005a8:	801f033c 	lui	v1,0x1f80
801005ac:	32002396 	lhu	v1,50(s1)
801005b0:	32000296 	lhu	v0,50(s0)
801005b4:	84002496 	lhu	a0,132(s1)
801005b8:	23186200 	subu	v1,v1,v0
801005bc:	40016324 	addiu	v1,v1,320
801005c0:	21208300 	addu	a0,a0,v1
801005c4:	86002286 	lh	v0,134(s1)
801005c8:	ffff8430 	andi	a0,a0,0xffff
801005cc:	40014224 	addiu	v0,v0,320
801005d0:	2a104400 	slt	v0,v0,a0
801005d4:	07004014 	bnez	v0,0x801005f4
801005d8:	801f033c 	lui	v1,0x1f80
801005dc:	01000224 	li	v0,1
801005e0:	290002a2 	sb	v0,41(s0)
801005e4:	21202002 	move	a0,s1
801005e8:	0c7e000c 	jal	0x8001f830
801005ec:	21280002 	move	a1,s0
801005f0:	801f033c 	lui	v1,0x1f80
801005f4:	82016290 	lbu	v0,386(v1)
801005f8:	00000000 	nop
801005fc:	8dff4014 	bnez	v0,0x80100434
80100600:	00000000 	nop
80100604:	1c00bf8f 	lw	ra,28(sp)
80100608:	1800b28f 	lw	s2,24(sp)
8010060c:	1400b18f 	lw	s1,20(sp)
80100610:	1000b08f 	lw	s0,16(sp)
80100614:	0800e003 	jr	ra
80100618:	2000bd27 	addiu	sp,sp,32
8010061c:	801f023c 	lui	v0,0x1f80
80100620:	50014284 	lh	v0,336(v0)
80100624:	e0ffbd27 	addiu	sp,sp,-32
80100628:	1c00bfaf 	sw	ra,28(sp)
8010062c:	1800b2af 	sw	s2,24(sp)
80100630:	1400b1af 	sw	s1,20(sp)
80100634:	47004010 	beqz	v0,0x80100754
80100638:	1000b0af 	sw	s0,16(sp)
8010063c:	0f80023c 	lui	v0,0x800f
80100640:	3827508c 	lw	s0,10040(v0)
80100644:	00000000 	nop
80100648:	42000012 	beqz	s0,0x80100754
8010064c:	801f123c 	lui	s2,0x1f80
80100650:	00000292 	lbu	v0,0(s0)
80100654:	00000000 	nop
80100658:	01004230 	andi	v0,v0,0x1
8010065c:	39004010 	beqz	v0,0x80100744
80100660:	00000000 	nop
80100664:	2b000292 	lbu	v0,43(s0)
80100668:	00000000 	nop
8010066c:	35004014 	bnez	v0,0x80100744
80100670:	801f023c 	lui	v0,0x1f80
80100674:	4801518c 	lw	s1,328(v0)
80100678:	801f023c 	lui	v0,0x1f80
8010067c:	50014290 	lbu	v0,336(v0)
80100680:	00000000 	nop
80100684:	820142a2 	sb	v0,386(s2)
80100688:	ff004230 	andi	v0,v0,0xff
8010068c:	2d004010 	beqz	v0,0x80100744
80100690:	00000000 	nop
80100694:	82014292 	lbu	v0,386(s2)
80100698:	0000258e 	lw	a1,0(s1)
8010069c:	ffff4224 	addiu	v0,v0,-1
801006a0:	820142a2 	sb	v0,386(s2)
801006a4:	0000a290 	lbu	v0,0(a1)
801006a8:	00000000 	nop
801006ac:	01004230 	andi	v0,v0,0x1
801006b0:	1f004010 	beqz	v0,0x80100730
801006b4:	04003126 	addiu	s1,s1,4
801006b8:	0200a390 	lbu	v1,2(a1)
801006bc:	1f000224 	li	v0,31
801006c0:	18006210 	beq	v1,v0,0x80100724
801006c4:	20006228 	slti	v0,v1,32
801006c8:	07004010 	beqz	v0,0x801006e8
801006cc:	0c000224 	li	v0,12
801006d0:	0c006210 	beq	v1,v0,0x80100704
801006d4:	12000224 	li	v0,18
801006d8:	12006210 	beq	v1,v0,0x80100724
801006dc:	801f023c 	lui	v0,0x1f80
801006e0:	b4250408 	j	0x801096d0
801006e4:	00000000 	nop
801006e8:	65000224 	li	v0,101
801006ec:	09006210 	beq	v1,v0,0x80100714
801006f0:	67000224 	li	v0,103
801006f4:	0b006210 	beq	v1,v0,0x80100724
801006f8:	801f023c 	lui	v0,0x1f80
801006fc:	b4250408 	j	0x801096d0
80100700:	00000000 	nop
80100704:	868d000c 	jal	0x80023618
80100708:	21200002 	move	a0,s0
8010070c:	b4250408 	j	0x801096d0
80100710:	801f023c 	lui	v0,0x1f80
80100714:	7324040c 	jal	0x801091cc
80100718:	21200002 	move	a0,s0
8010071c:	b4250408 	j	0x801096d0
80100720:	801f023c 	lui	v0,0x1f80
80100724:	21200002 	move	a0,s0
80100728:	ad85000c 	jal	0x800216b4
8010072c:	21300000 	move	a2,zero
80100730:	801f023c 	lui	v0,0x1f80
80100734:	82014290 	lbu	v0,386(v0)
80100738:	00000000 	nop
8010073c:	d5ff4014 	bnez	v0,0x80100694
80100740:	00000000 	nop
80100744:	2400108e 	lw	s0,36(s0)
80100748:	00000000 	nop
8010074c:	c0ff0016 	bnez	s0,0x80100650
80100750:	00000000 	nop
80100754:	1c00bf8f 	lw	ra,28(sp)
80100758:	1800b28f 	lw	s2,24(sp)
8010075c:	1400b18f 	lw	s1,20(sp)
80100760:	1000b08f 	lw	s0,16(sp)
80100764:	0800e003 	jr	ra
80100768:	2000bd27 	addiu	sp,sp,32
8010076c:	e0ffbd27 	addiu	sp,sp,-32
80100770:	1000b0af 	sw	s0,16(sp)
80100774:	0e80103c 	lui	s0,0x800e
80100778:	1400b1af 	sw	s1,20(sp)
8010077c:	807e1126 	addiu	s1,s0,32384
80100780:	1800bfaf 	sw	ra,24(sp)
80100784:	238a000c 	jal	0x8002288c
80100788:	21202002 	move	a0,s1
8010078c:	807e0392 	lbu	v1,32384(s0)
80100790:	00000000 	nop
80100794:	0800622c 	sltiu	v0,v1,8
80100798:	08004010 	beqz	v0,0x801007bc
8010079c:	1180023c 	lui	v0,0x8011
801007a0:	a08f4224 	addiu	v0,v0,-28768
801007a4:	80180300 	sll	v1,v1,0x2
801007a8:	21186200 	addu	v1,v1,v0
801007ac:	0000628c 	lw	v0,0(v1)
801007b0:	00000000 	nop
801007b4:	08004000 	jr	v0
801007b8:	00000000 	nop
801007bc:	5801228e 	lw	v0,344(s1)
801007c0:	00000000 	nop
801007c4:	0200422c 	sltiu	v0,v0,2
801007c8:	03004010 	beqz	v0,0x801007d8
801007cc:	00000000 	nop
801007d0:	e624040c 	jal	0x80109398
801007d4:	21202002 	move	a0,s1
801007d8:	6e25040c 	jal	0x801095b8
801007dc:	00000000 	nop
801007e0:	1800bf8f 	lw	ra,24(sp)
801007e4:	1400b18f 	lw	s1,20(sp)
801007e8:	1000b08f 	lw	s0,16(sp)
801007ec:	0800e003 	jr	ra
801007f0:	2000bd27 	addiu	sp,sp,32
801007f4:	801f023c 	lui	v0,0x1f80
801007f8:	52014290 	lbu	v0,338(v0)
801007fc:	eb250408 	j	0x801097ac
80100800:	801f033c 	lui	v1,0x1f80
80100804:	82016290 	lbu	v0,386(v1)
80100808:	00000000 	nop
8010080c:	ffff4224 	addiu	v0,v0,-1
80100810:	820162a0 	sb	v0,386(v1)
80100814:	ff004230 	andi	v0,v0,0xff
80100818:	faff4014 	bnez	v0,0x80100804
8010081c:	801f023c 	lui	v0,0x1f80
80100820:	8000428c 	lw	v0,128(v0)
80100824:	0800e003 	jr	ra
80100828:	00000000 	nop
8010082c:	e0ffbd27 	addiu	sp,sp,-32
80100830:	1400b1af 	sw	s1,20(sp)
80100834:	21888000 	move	s1,a0
80100838:	1800bfaf 	sw	ra,24(sp)
8010083c:	1000b0af 	sw	s0,16(sp)
80100840:	01002292 	lbu	v0,1(s1)
80100844:	00000000 	nop
80100848:	03004010 	beqz	v0,0x80100858
8010084c:	00000000 	nop
80100850:	5adb010c 	jal	0x80076d68
80100854:	00000000 	nop
80100858:	06002392 	lbu	v1,6(s1)
8010085c:	00000000 	nop
80100860:	0a00622c 	sltiu	v0,v1,10
80100864:	22014010 	beqz	v0,0x80100cf0
80100868:	1180023c 	lui	v0,0x8011
8010086c:	c08f4224 	addiu	v0,v0,-28736
80100870:	80180300 	sll	v1,v1,0x2
80100874:	21186200 	addu	v1,v1,v0
80100878:	0000628c 	lw	v0,0(v1)
8010087c:	00000000 	nop
80100880:	08004000 	jr	v0
80100884:	00000000 	nop
80100888:	0c80023c 	lui	v0,0x800c
8010088c:	0ef840a0 	sb	zero,-2034(v0)
80100890:	00040224 	li	v0,1024
80100894:	7c0022a6 	sh	v0,124(s1)
80100898:	06002292 	lbu	v0,6(s1)
8010089c:	6e002392 	lbu	v1,110(s1)
801008a0:	01004224 	addiu	v0,v0,1
801008a4:	12016010 	beqz	v1,0x80100cf0
801008a8:	060022a2 	sb	v0,6(s1)
801008ac:	b12f010c 	jal	0x8004bec4
801008b0:	00000000 	nop
801008b4:	23270408 	j	0x80109c8c
801008b8:	00000000 	nop
801008bc:	7c002486 	lh	a0,124(s1)
801008c0:	56002586 	lh	a1,86(s1)
801008c4:	bedd010c 	jal	0x800776f8
801008c8:	20000624 	li	a2,32
801008cc:	560022a6 	sh	v0,86(s1)
801008d0:	00140200 	sll	v0,v0,0x10
801008d4:	7c002386 	lh	v1,124(s1)
801008d8:	03140200 	sra	v0,v0,0x10
801008dc:	04014314 	bne	v0,v1,0x80100cf0
801008e0:	00000000 	nop
801008e4:	06002292 	lbu	v0,6(s1)
801008e8:	74012392 	lbu	v1,372(s1)
801008ec:	070020a2 	sb	zero,7(s1)
801008f0:	01004224 	addiu	v0,v0,1
801008f4:	08006330 	andi	v1,v1,0x8
801008f8:	fd006010 	beqz	v1,0x80100cf0
801008fc:	060022a2 	sb	v0,6(s1)
80100900:	0d002392 	lbu	v1,13(s1)
80100904:	20000224 	li	v0,32
80100908:	180022a2 	sb	v0,24(s1)
8010090c:	1a0022a2 	sb	v0,26(s1)
80100910:	190022a2 	sb	v0,25(s1)
80100914:	20006334 	ori	v1,v1,0x20
80100918:	23270408 	j	0x80109c8c
8010091c:	0d0023a2 	sb	v1,13(s1)
80100920:	0c80023c 	lui	v0,0x800c
80100924:	7df84390 	lbu	v1,-1923(v0)
80100928:	6e012286 	lh	v0,366(s1)
8010092c:	00000000 	nop
80100930:	03006214 	bne	v1,v0,0x80100940
80100934:	21800000 	move	s0,zero
80100938:	42260408 	j	0x80109908
8010093c:	01001024 	li	s0,1
80100940:	21202002 	move	a0,s1
80100944:	9527010c 	jal	0x80049e54
80100948:	10000524 	li	a1,16
8010094c:	40002296 	lhu	v0,64(s1)
80100950:	00000000 	nop
80100954:	0f004230 	andi	v0,v0,0xf
80100958:	04004014 	bnez	v0,0x8010096c
8010095c:	08000424 	li	a0,8
80100960:	05000524 	li	a1,5
80100964:	64d1010c 	jal	0x80074590
80100968:	21300000 	move	a2,zero
8010096c:	74012292 	lbu	v0,372(s1)
80100970:	00000000 	nop
80100974:	08004230 	andi	v0,v0,0x8
80100978:	15004010 	beqz	v0,0x801009d0
8010097c:	00000000 	nop
80100980:	18002292 	lbu	v0,24(s1)
80100984:	00000000 	nop
80100988:	08004224 	addiu	v0,v0,8
8010098c:	180022a2 	sb	v0,24(s1)
80100990:	00160200 	sll	v0,v0,0x18
80100994:	09004104 	bgez	v0,0x801009bc
80100998:	21202002 	move	a0,s1
8010099c:	02000524 	li	a1,2
801009a0:	0d002292 	lbu	v0,13(s1)
801009a4:	25800502 	or	s0,s0,a1
801009a8:	df004230 	andi	v0,v0,0xdf
801009ac:	c160010c 	jal	0x80058304
801009b0:	0d0022a2 	sb	v0,13(s1)
801009b4:	80000224 	li	v0,128
801009b8:	180022a2 	sb	v0,24(s1)
801009bc:	18002292 	lbu	v0,24(s1)
801009c0:	00000000 	nop
801009c4:	1a0022a2 	sb	v0,26(s1)
801009c8:	5c260408 	j	0x80109970
801009cc:	190022a2 	sb	v0,25(s1)
801009d0:	02001036 	ori	s0,s0,0x2
801009d4:	03000224 	li	v0,3
801009d8:	c5000216 	bne	s0,v0,0x80100cf0
801009dc:	14000324 	li	v1,20
801009e0:	06002292 	lbu	v0,6(s1)
801009e4:	070020a2 	sb	zero,7(s1)
801009e8:	17270408 	j	0x80109c5c
801009ec:	400023a6 	sh	v1,64(s1)
801009f0:	5adb010c 	jal	0x80076d68
801009f4:	21202002 	move	a0,s1
801009f8:	40002296 	lhu	v0,64(s1)
801009fc:	00000000 	nop
80100a00:	ffff4224 	addiu	v0,v0,-1
80100a04:	400022a6 	sh	v0,64(s1)
80100a08:	00140200 	sll	v0,v0,0x10
80100a0c:	b8004014 	bnez	v0,0x80100cf0
80100a10:	00000000 	nop
80100a14:	74012292 	lbu	v0,372(s1)
80100a18:	00000000 	nop
80100a1c:	03004230 	andi	v0,v0,0x3
80100a20:	a6004010 	beqz	v0,0x80100cbc
80100a24:	21202002 	move	a0,s1
80100a28:	c160010c 	jal	0x80058304
80100a2c:	0a000524 	li	a1,10
80100a30:	1e000224 	li	v0,30
80100a34:	16270408 	j	0x80109c58
80100a38:	400022a6 	sh	v0,64(s1)
80100a3c:	5adb010c 	jal	0x80076d68
80100a40:	21202002 	move	a0,s1
80100a44:	40002286 	lh	v0,64(s1)
80100a48:	40002396 	lhu	v1,64(s1)
80100a4c:	53004014 	bnez	v0,0x80100b9c
80100a50:	ffff6224 	addiu	v0,v1,-1
80100a54:	74012292 	lbu	v0,372(s1)
80100a58:	00000000 	nop
80100a5c:	04004230 	andi	v0,v0,0x4
80100a60:	96004010 	beqz	v0,0x80100cbc
80100a64:	21202002 	move	a0,s1
80100a68:	c160010c 	jal	0x80058304
80100a6c:	07000524 	li	a1,7
80100a70:	1e000224 	li	v0,30
80100a74:	16270408 	j	0x80109c58
80100a78:	400022a6 	sh	v0,64(s1)
80100a7c:	5adb010c 	jal	0x80076d68
80100a80:	21202002 	move	a0,s1
80100a84:	40002286 	lh	v0,64(s1)
80100a88:	40002396 	lhu	v1,64(s1)
80100a8c:	43004014 	bnez	v0,0x80100b9c
80100a90:	ffff6224 	addiu	v0,v1,-1
80100a94:	74012292 	lbu	v0,372(s1)
80100a98:	00000000 	nop
80100a9c:	30004230 	andi	v0,v0,0x30
80100aa0:	05004010 	beqz	v0,0x80100ab8
80100aa4:	21202002 	move	a0,s1
80100aa8:	c160010c 	jal	0x80058304
80100aac:	05000524 	li	a1,5
80100ab0:	1e000224 	li	v0,30
80100ab4:	400022a6 	sh	v0,64(s1)
80100ab8:	06002292 	lbu	v0,6(s1)
80100abc:	17270408 	j	0x80109c5c
80100ac0:	070020a2 	sb	zero,7(s1)
80100ac4:	07002392 	lbu	v1,7(s1)
80100ac8:	00000000 	nop
80100acc:	0500622c 	sltiu	v0,v1,5
80100ad0:	87004010 	beqz	v0,0x80100cf0
80100ad4:	1180023c 	lui	v0,0x8011
80100ad8:	e88f4224 	addiu	v0,v0,-28696
80100adc:	80180300 	sll	v1,v1,0x2
80100ae0:	21186200 	addu	v1,v1,v0
80100ae4:	0000628c 	lw	v0,0(v1)
80100ae8:	00000000 	nop
80100aec:	08004000 	jr	v0
80100af0:	00000000 	nop
80100af4:	40002286 	lh	v0,64(s1)
80100af8:	40002396 	lhu	v1,64(s1)
80100afc:	27004014 	bnez	v0,0x80100b9c
80100b00:	ffff6224 	addiu	v0,v1,-1
80100b04:	7e012296 	lhu	v0,382(s1)
80100b08:	00000000 	nop
80100b0c:	00024230 	andi	v0,v0,0x200
80100b10:	6a004010 	beqz	v0,0x80100cbc
80100b14:	21202002 	move	a0,s1
80100b18:	0c80023c 	lui	v0,0x800c
80100b1c:	6f0020a2 	sb	zero,111(s1)
80100b20:	bd9f010c 	jal	0x80067ef4
80100b24:	8ff840a0 	sb	zero,-1905(v0)
80100b28:	cb73000c 	jal	0x8001cf2c
80100b2c:	00000000 	nop
80100b30:	5adb010c 	jal	0x80076d68
80100b34:	21202002 	move	a0,s1
80100b38:	1e000424 	li	a0,30
80100b3c:	3dc4000c 	jal	0x800310f4
80100b40:	21280000 	move	a1,zero
80100b44:	21804000 	move	s0,v0
80100b48:	05000012 	beqz	s0,0x80100b60
80100b4c:	37000424 	li	a0,55
80100b50:	28000292 	lbu	v0,40(s0)
80100b54:	00000000 	nop
80100b58:	80004234 	ori	v0,v0,0x80
80100b5c:	280002a2 	sb	v0,40(s0)
80100b60:	16000524 	li	a1,22
80100b64:	64d1010c 	jal	0x80074590
80100b68:	1e000624 	li	a2,30
80100b6c:	07002292 	lbu	v0,7(s1)
80100b70:	05000324 	li	v1,5
80100b74:	100030ae 	sw	s0,16(s1)
80100b78:	ec260408 	j	0x80109bb0
80100b7c:	400023a6 	sh	v1,64(s1)
80100b80:	40002286 	lh	v0,64(s1)
80100b84:	40002396 	lhu	v1,64(s1)
80100b88:	04004014 	bnez	v0,0x80100b9c
80100b8c:	ffff6224 	addiu	v0,v1,-1
80100b90:	07002292 	lbu	v0,7(s1)
80100b94:	ec260408 	j	0x80109bb0
80100b98:	010020a2 	sb	zero,1(s1)
80100b9c:	23270408 	j	0x80109c8c
80100ba0:	400022a6 	sh	v0,64(s1)
80100ba4:	2080023c 	lui	v0,0x8020
80100ba8:	e0e04294 	lhu	v0,-7968(v0)
80100bac:	00000000 	nop
80100bb0:	17004010 	beqz	v0,0x80100c10
80100bb4:	00000000 	nop
80100bb8:	cb73000c 	jal	0x8001cf2c
80100bbc:	00000000 	nop
80100bc0:	23270408 	j	0x80109c8c
80100bc4:	00000000 	nop
80100bc8:	0f80033c 	lui	v1,0x800f
80100bcc:	14d0648c 	lw	a0,-12268(v1)
80100bd0:	1080033c 	lui	v1,0x8010
80100bd4:	7e012296 	lhu	v0,382(s1)
80100bd8:	70b16324 	addiu	v1,v1,-20112
80100bdc:	0f004230 	andi	v0,v0,0xf
80100be0:	c0280200 	sll	a1,v0,0x3
80100be4:	2128a300 	addu	a1,a1,v1
80100be8:	c0100200 	sll	v0,v0,0x3
80100bec:	04004234 	ori	v0,v0,0x4
80100bf0:	21104300 	addu	v0,v0,v1
80100bf4:	0000a38c 	lw	v1,0(a1)
80100bf8:	0000468c 	lw	a2,0(v0)
80100bfc:	c22a0300 	srl	a1,v1,0xb
80100c00:	3513010c 	jal	0x80044cd4
80100c04:	2330c300 	subu	a2,a2,v1
80100c08:	39004010 	beqz	v0,0x80100cf0
80100c0c:	00000000 	nop
80100c10:	07002292 	lbu	v0,7(s1)
80100c14:	00000000 	nop
80100c18:	01004224 	addiu	v0,v0,1
80100c1c:	23270408 	j	0x80109c8c
80100c20:	070022a2 	sb	v0,7(s1)
80100c24:	801f023c 	lui	v0,0x1f80
80100c28:	9b014290 	lbu	v0,411(v0)
80100c2c:	00000000 	nop
80100c30:	2f004010 	beqz	v0,0x80100cf0
80100c34:	00000000 	nop
80100c38:	1000308e 	lw	s0,16(s1)
80100c3c:	00000000 	nop
80100c40:	03000012 	beqz	s0,0x80100c50
80100c44:	02000224 	li	v0,2
80100c48:	040002a2 	sb	v0,4(s0)
80100c4c:	050000a2 	sb	zero,5(s0)
80100c50:	f55f010c 	jal	0x80057fd4
80100c54:	21202002 	move	a0,s1
80100c58:	44000424 	li	a0,68
80100c5c:	41000524 	li	a1,65
80100c60:	01000224 	li	v0,1
80100c64:	653b010c 	jal	0x8004ed94
80100c68:	010022a2 	sb	v0,1(s1)
80100c6c:	06002292 	lbu	v0,6(s1)
80100c70:	17270408 	j	0x80109c5c
80100c74:	070020a2 	sb	zero,7(s1)
80100c78:	40012296 	lhu	v0,320(s1)
80100c7c:	06002392 	lbu	v1,6(s1)
80100c80:	ff0f4230 	andi	v0,v0,0xfff
80100c84:	01006324 	addiu	v1,v1,1
80100c88:	7c0022a6 	sh	v0,124(s1)
80100c8c:	23270408 	j	0x80109c8c
80100c90:	060023a2 	sb	v1,6(s1)
80100c94:	7c002486 	lh	a0,124(s1)
80100c98:	56002586 	lh	a1,86(s1)
80100c9c:	bedd010c 	jal	0x800776f8
80100ca0:	80000624 	li	a2,128
80100ca4:	560022a6 	sh	v0,86(s1)
80100ca8:	00140200 	sll	v0,v0,0x10
80100cac:	7c002386 	lh	v1,124(s1)
80100cb0:	03140200 	sra	v0,v0,0x10
80100cb4:	0e004314 	bne	v0,v1,0x80100cf0
80100cb8:	00000000 	nop
80100cbc:	06002292 	lbu	v0,6(s1)
80100cc0:	00000000 	nop
80100cc4:	01004224 	addiu	v0,v0,1
80100cc8:	23270408 	j	0x80109c8c
80100ccc:	060022a2 	sb	v0,6(s1)
80100cd0:	21202002 	move	a0,s1
80100cd4:	0c80033c 	lui	v1,0x800c
80100cd8:	01000224 	li	v0,1
80100cdc:	0ef862a0 	sb	v0,-2034(v1)
80100ce0:	050080a0 	sb	zero,5(a0)
80100ce4:	060080a0 	sb	zero,6(a0)
80100ce8:	6650010c 	jal	0x80054198
80100cec:	070080a0 	sb	zero,7(a0)
80100cf0:	1800bf8f 	lw	ra,24(sp)
80100cf4:	1400b18f 	lw	s1,20(sp)
80100cf8:	1000b08f 	lw	s0,16(sp)
80100cfc:	0800e003 	jr	ra
80100d00:	2000bd27 	addiu	sp,sp,32
80100d04:	e8ffbd27 	addiu	sp,sp,-24
80100d08:	1000b0af 	sw	s0,16(sp)
80100d0c:	1400bfaf 	sw	ra,20(sp)
80100d10:	39bc010c 	jal	0x8006f0e4
80100d14:	21808000 	move	s0,a0
80100d18:	21200002 	move	a0,s0
80100d1c:	01000224 	li	v0,1
80100d20:	5757010c 	jal	0x80055d5c
80100d24:	010002a2 	sb	v0,1(s0)
80100d28:	21200002 	move	a0,s0
80100d2c:	420100a6 	sh	zero,322(s0)
80100d30:	6650010c 	jal	0x80054198
80100d34:	580000a6 	sh	zero,88(s0)
80100d38:	a154010c 	jal	0x80055284
80100d3c:	21200002 	move	a0,s0
80100d40:	21200002 	move	a0,s0
80100d44:	02000524 	li	a1,2
80100d48:	4553010c 	jal	0x80054d14
80100d4c:	21300000 	move	a2,zero
80100d50:	57cc000c 	jal	0x8003315c
80100d54:	21200002 	move	a0,s0
80100d58:	1400bf8f 	lw	ra,20(sp)
80100d5c:	1000b08f 	lw	s0,16(sp)
80100d60:	0800e003 	jr	ra
80100d64:	1800bd27 	addiu	sp,sp,24
80100d68:	d8ffbd27 	addiu	sp,sp,-40
80100d6c:	2000b0af 	sw	s0,32(sp)
80100d70:	21808000 	move	s0,a0
80100d74:	2400bfaf 	sw	ra,36(sp)
80100d78:	64000292 	lbu	v0,100(s0)
80100d7c:	720000a2 	sb	zero,114(s0)
80100d80:	7f004330 	andi	v1,v0,0x7f
80100d84:	0e80023c 	lui	v0,0x800e
80100d88:	807e4524 	addiu	a1,v0,32384
80100d8c:	640003a2 	sb	v1,100(s0)
80100d90:	2a00a290 	lbu	v0,42(a1)
80100d94:	02000424 	li	a0,2
80100d98:	0d004410 	beq	v0,a0,0x80100dd0
80100d9c:	80006234 	ori	v0,v1,0x80
80100da0:	2e00a384 	lh	v1,46(a1)
80100da4:	00000000 	nop
80100da8:	fc086228 	slti	v0,v1,2300
80100dac:	03004010 	beqz	v0,0x80100dbc
80100db0:	03000224 	li	v0,3
80100db4:	79270408 	j	0x80109de4
80100db8:	720002a2 	sb	v0,114(s0)
80100dbc:	cd106228 	slti	v0,v1,4301
80100dc0:	21004014 	bnez	v0,0x80100e48
80100dc4:	00000000 	nop
80100dc8:	79270408 	j	0x80109de4
80100dcc:	720004a2 	sb	a0,114(s0)
80100dd0:	640002a2 	sb	v0,100(s0)
80100dd4:	3200a284 	lh	v0,50(a1)
80100dd8:	3200a394 	lhu	v1,50(a1)
80100ddc:	68fc4228 	slti	v0,v0,-920
80100de0:	03004010 	beqz	v0,0x80100df0
80100de4:	68fc0224 	li	v0,-920
80100de8:	64270408 	j	0x80109d90
80100dec:	0e0003a6 	sh	v1,14(s0)
80100df0:	0e0002a6 	sh	v0,14(s0)
80100df4:	2e00a294 	lhu	v0,46(a1)
80100df8:	21200002 	move	a0,s0
80100dfc:	0a0002a6 	sh	v0,10(s0)
80100e00:	3600a294 	lhu	v0,54(a1)
80100e04:	08000526 	addiu	a1,s0,8
80100e08:	fdb8010c 	jal	0x8006e3f4
80100e0c:	120002a6 	sh	v0,18(s0)
80100e10:	801f043c 	lui	a0,0x1f80
80100e14:	d0008424 	addiu	a0,a0,208
80100e18:	1000a527 	addiu	a1,sp,16
80100e1c:	81070224 	li	v0,1921
80100e20:	1200a2a7 	sh	v0,18(sp)
80100e24:	00fb0224 	li	v0,-1280
80100e28:	1600a2a7 	sh	v0,22(sp)
80100e2c:	99060224 	li	v0,1689
80100e30:	e0000624 	li	a2,224
80100e34:	b1b3010c 	jal	0x8006cec4
80100e38:	1a00a2a7 	sh	v0,26(sp)
80100e3c:	02004010 	beqz	v0,0x80100e48
80100e40:	03000224 	li	v0,3
80100e44:	660002a2 	sb	v0,102(s0)
80100e48:	2400bf8f 	lw	ra,36(sp)
80100e4c:	2000b08f 	lw	s0,32(sp)
80100e50:	0800e003 	jr	ra
80100e54:	2800bd27 	addiu	sp,sp,40
80100e58:	e8ffbd27 	addiu	sp,sp,-24
80100e5c:	1000b0af 	sw	s0,16(sp)
80100e60:	0e80103c 	lui	s0,0x800e
80100e64:	807e1026 	addiu	s0,s0,32384
80100e68:	1400bfaf 	sw	ra,20(sp)
80100e6c:	6650010c 	jal	0x80054198
80100e70:	21200002 	move	a0,s0
80100e74:	0c80033c 	lui	v1,0x800c
80100e78:	01000224 	li	v0,1
80100e7c:	16f862a0 	sb	v0,-2026(v1)
80100e80:	40010396 	lhu	v1,320(s0)
80100e84:	801f023c 	lui	v0,0x1f80
80100e88:	840140ac 	sw	zero,388(v0)
80100e8c:	24000224 	li	v0,36
80100e90:	050002a2 	sb	v0,5(s0)
80100e94:	08000224 	li	v0,8
80100e98:	060000a2 	sb	zero,6(s0)
80100e9c:	6b0102a2 	sb	v0,363(s0)
80100ea0:	1400bf8f 	lw	ra,20(sp)
80100ea4:	1000b08f 	lw	s0,16(sp)
80100ea8:	801f023c 	lui	v0,0x1f80
80100eac:	100243a4 	sh	v1,528(v0)
80100eb0:	0800e003 	jr	ra
80100eb4:	1800bd27 	addiu	sp,sp,24
80100eb8:	e8ffbd27 	addiu	sp,sp,-24
80100ebc:	0c80023c 	lui	v0,0x800c
80100ec0:	16f840a0 	sb	zero,-2026(v0)
80100ec4:	0f80023c 	lui	v0,0x800f
80100ec8:	6c8040a0 	sb	zero,-32660(v0)
80100ecc:	801f023c 	lui	v0,0x1f80
80100ed0:	1000b0af 	sw	s0,16(sp)
80100ed4:	0e80103c 	lui	s0,0x800e
80100ed8:	807e1026 	addiu	s0,s0,32384
80100edc:	840140ac 	sw	zero,388(v0)
80100ee0:	24000224 	li	v0,36
80100ee4:	21200002 	move	a0,s0
80100ee8:	1400bfaf 	sw	ra,20(sp)
80100eec:	050002a2 	sb	v0,5(s0)
80100ef0:	070000a2 	sb	zero,7(s0)
80100ef4:	6650010c 	jal	0x80054198
80100ef8:	060000a2 	sb	zero,6(s0)
80100efc:	6b0100a2 	sb	zero,363(s0)
80100f00:	1400bf8f 	lw	ra,20(sp)
80100f04:	1000b08f 	lw	s0,16(sp)
80100f08:	0800e003 	jr	ra
80100f0c:	1800bd27 	addiu	sp,sp,24
80100f10:	d0ffbd27 	addiu	sp,sp,-48
80100f14:	1800b2af 	sw	s2,24(sp)
80100f18:	21908000 	move	s2,a0
80100f1c:	2000b4af 	sw	s4,32(sp)
80100f20:	21a0a000 	move	s4,a1
80100f24:	1180033c 	lui	v1,0x8011
80100f28:	44e06324 	addiu	v1,v1,-8124
80100f2c:	80101400 	sll	v0,s4,0x2
80100f30:	21104300 	addu	v0,v0,v1
80100f34:	2800bfaf 	sw	ra,40(sp)
80100f38:	2400b5af 	sw	s5,36(sp)
80100f3c:	1c00b3af 	sw	s3,28(sp)
80100f40:	1400b1af 	sw	s1,20(sp)
80100f44:	1000b0af 	sw	s0,16(sp)
80100f48:	080040a6 	sh	zero,8(s2)
80100f4c:	0000518c 	lw	s1,0(v0)
80100f50:	00000000 	nop
80100f54:	00002392 	lbu	v1,0(s1)
80100f58:	ff000224 	li	v0,255
80100f5c:	50006210 	beq	v1,v0,0x801010a0
80100f60:	0c80023c 	lui	v0,0x800c
80100f64:	08f85324 	addiu	s3,v0,-2040
80100f68:	0c80023c 	lui	v0,0x800c
80100f6c:	70f85524 	addiu	s5,v0,-1936
80100f70:	0c003026 	addiu	s0,s1,12
80100f74:	06008012 	beqz	s4,0x80100f90
80100f78:	00000000 	nop
80100f7c:	08004286 	lh	v0,8(s2)
80100f80:	00000000 	nop
80100f84:	0f004228 	slti	v0,v0,15
80100f88:	40004010 	beqz	v0,0x8010108c
80100f8c:	00000000 	nop
80100f90:	feff0392 	lbu	v1,-2(s0)
80100f94:	01000224 	li	v0,1
80100f98:	07006210 	beq	v1,v0,0x80100fb8
80100f9c:	02006228 	slti	v0,v1,2
80100fa0:	15004014 	bnez	v0,0x80100ff8
80100fa4:	02000224 	li	v0,2
80100fa8:	0c006210 	beq	v1,v0,0x80100fdc
80100fac:	00000000 	nop
80100fb0:	e5270408 	j	0x80109f94
80100fb4:	00000000 	nop
80100fb8:	f8ff0296 	lhu	v0,-8(s0)
80100fbc:	00000000 	nop
80100fc0:	080062a6 	sh	v0,8(s3)
80100fc4:	faff0296 	lhu	v0,-6(s0)
80100fc8:	00000000 	nop
80100fcc:	0a0062a6 	sh	v0,10(s3)
80100fd0:	fcff0296 	lhu	v0,-4(s0)
80100fd4:	e5270408 	j	0x80109f94
80100fd8:	0c0062a6 	sh	v0,12(s3)
80100fdc:	cd01a292 	lbu	v0,461(s5)
80100fe0:	f7ff0392 	lbu	v1,-9(s0)
80100fe4:	00000000 	nop
80100fe8:	07106200 	srav	v0,v0,v1
80100fec:	01004230 	andi	v0,v0,0x1
80100ff0:	26004014 	bnez	v0,0x8010108c
80100ff4:	00000000 	nop
80100ff8:	00002592 	lbu	a1,0(s1)
80100ffc:	f5ff0692 	lbu	a2,-11(s0)
80101000:	f6ff0792 	lbu	a3,-10(s0)
80101004:	77cb010c 	jal	0x80072ddc
80101008:	21204002 	move	a0,s2
8010100c:	21184000 	move	v1,v0
80101010:	1e006010 	beqz	v1,0x8010108c
80101014:	00000000 	nop
80101018:	f8ff0286 	lh	v0,-8(s0)
8010101c:	00000000 	nop
80101020:	00140200 	sll	v0,v0,0x10
80101024:	2c0062ac 	sw	v0,44(v1)
80101028:	faff0286 	lh	v0,-6(s0)
8010102c:	00000000 	nop
80101030:	00140200 	sll	v0,v0,0x10
80101034:	300062ac 	sw	v0,48(v1)
80101038:	fcff0286 	lh	v0,-4(s0)
8010103c:	00000000 	nop
80101040:	00140200 	sll	v0,v0,0x10
80101044:	340062ac 	sw	v0,52(v1)
80101048:	f7ff0292 	lbu	v0,-9(s0)
8010104c:	540060a4 	sh	zero,84(v1)
80101050:	560060a4 	sh	zero,86(v1)
80101054:	580060a4 	sh	zero,88(v1)
80101058:	030062a0 	sb	v0,3(v1)
8010105c:	0000028e 	lw	v0,0(s0)
80101060:	0a008012 	beqz	s4,0x8010108c
80101064:	1c0062ac 	sw	v0,28(v1)
80101068:	08004286 	lh	v0,8(s2)
8010106c:	00000000 	nop
80101070:	80100200 	sll	v0,v0,0x2
80101074:	21104202 	addu	v0,s2,v0
80101078:	0c0043ac 	sw	v1,12(v0)
8010107c:	08004296 	lhu	v0,8(s2)
80101080:	00000000 	nop
80101084:	01004224 	addiu	v0,v0,1
80101088:	080042a6 	sh	v0,8(s2)
8010108c:	10003126 	addiu	s1,s1,16
80101090:	00002392 	lbu	v1,0(s1)
80101094:	ff000224 	li	v0,255
80101098:	b6ff6214 	bne	v1,v0,0x80100f74
8010109c:	10001026 	addiu	s0,s0,16
801010a0:	2800bf8f 	lw	ra,40(sp)
801010a4:	2400b58f 	lw	s5,36(sp)
801010a8:	2000b48f 	lw	s4,32(sp)
801010ac:	1c00b38f 	lw	s3,28(sp)
801010b0:	1800b28f 	lw	s2,24(sp)
801010b4:	1400b18f 	lw	s1,20(sp)
801010b8:	1000b08f 	lw	s0,16(sp)
801010bc:	0800e003 	jr	ra
801010c0:	3000bd27 	addiu	sp,sp,48
801010c4:	d0ffbd27 	addiu	sp,sp,-48
801010c8:	2800bfaf 	sw	ra,40(sp)
801010cc:	2400b3af 	sw	s3,36(sp)
801010d0:	2000b2af 	sw	s2,32(sp)
801010d4:	1c00b1af 	sw	s1,28(sp)
801010d8:	0b008014 	bnez	a0,0x80101108
801010dc:	1800b0af 	sw	s0,24(sp)
801010e0:	08001124 	li	s1,8
801010e4:	1180023c 	lui	v0,0x8011
801010e8:	fce54224 	addiu	v0,v0,-6660
801010ec:	21105100 	addu	v0,v0,s1
801010f0:	000040a0 	sb	zero,0(v0)
801010f4:	ffff3126 	addiu	s1,s1,-1
801010f8:	fdff2106 	bgez	s1,0x801010f0
801010fc:	ffff4224 	addiu	v0,v0,-1
80101100:	5b280408 	j	0x8010a16c
80101104:	00000000 	nop
80101108:	1180023c 	lui	v0,0x8011
8010110c:	dce05024 	addiu	s0,v0,-7972
80101110:	21880000 	move	s1,zero
80101114:	1180023c 	lui	v0,0x8011
80101118:	fce55324 	addiu	s3,v0,-6660
8010111c:	0a001226 	addiu	s2,s0,10
80101120:	21383302 	addu	a3,s1,s3
80101124:	0000e290 	lbu	v0,0(a3)
80101128:	00000000 	nop
8010112c:	ffff4224 	addiu	v0,v0,-1
80101130:	0000e2a0 	sb	v0,0(a3)
80101134:	00160200 	sll	v0,v0,0x18
80101138:	2000401c 	bgtz	v0,0x801011bc
8010113c:	ff000224 	li	v0,255
80101140:	0000048e 	lw	a0,0(s0)
80101144:	00000000 	nop
80101148:	00008390 	lbu	v1,0(a0)
8010114c:	00000000 	nop
80101150:	05006214 	bne	v1,v0,0x80101168
80101154:	00000000 	nop
80101158:	01008290 	lbu	v0,1(a0)
8010115c:	00000000 	nop
80101160:	23108200 	subu	v0,a0,v0
80101164:	000002ae 	sw	v0,0(s0)
80101168:	1000a427 	addiu	a0,sp,16
8010116c:	0000028e 	lw	v0,0(s0)
80101170:	faff468e 	lw	a2,-6(s2)
80101174:	00004590 	lbu	a1,0(v0)
80101178:	01004390 	lbu	v1,1(v0)
8010117c:	40290500 	sll	a1,a1,0x5
80101180:	0000e3a0 	sb	v1,0(a3)
80101184:	feff4296 	lhu	v0,-2(s2)
80101188:	2128c500 	addu	a1,a2,a1
8010118c:	1000a2a7 	sh	v0,16(sp)
80101190:	00004396 	lhu	v1,0(s2)
80101194:	10000224 	li	v0,16
80101198:	1400a2a7 	sh	v0,20(sp)
8010119c:	01000224 	li	v0,1
801011a0:	1600a2a7 	sh	v0,22(sp)
801011a4:	8604020c 	jal	0x80081218
801011a8:	1200a3a7 	sh	v1,18(sp)
801011ac:	0000028e 	lw	v0,0(s0)
801011b0:	00000000 	nop
801011b4:	02004224 	addiu	v0,v0,2
801011b8:	000002ae 	sw	v0,0(s0)
801011bc:	01003126 	addiu	s1,s1,1
801011c0:	0c005226 	addiu	s2,s2,12
801011c4:	0900222a 	slti	v0,s1,9
801011c8:	d5ff4014 	bnez	v0,0x80101120
801011cc:	0c001026 	addiu	s0,s0,12
801011d0:	2800bf8f 	lw	ra,40(sp)
801011d4:	2400b38f 	lw	s3,36(sp)
801011d8:	2000b28f 	lw	s2,32(sp)
801011dc:	1c00b18f 	lw	s1,28(sp)
801011e0:	1800b08f 	lw	s0,24(sp)
801011e4:	0800e003 	jr	ra
801011e8:	3000bd27 	addiu	sp,sp,48
801011ec:	e8ffbd27 	addiu	sp,sp,-24
801011f0:	1000bfaf 	sw	ra,16(sp)
801011f4:	04008390 	lbu	v1,4(a0)
801011f8:	01000524 	li	a1,1
801011fc:	19006510 	beq	v1,a1,0x80101264
80101200:	02006228 	slti	v0,v1,2
80101204:	05004010 	beqz	v0,0x8010121c
80101208:	00000000 	nop
8010120c:	0a006010 	beqz	v1,0x80101238
80101210:	00000000 	nop
80101214:	86280408 	j	0x8010a218
80101218:	00000000 	nop
8010121c:	02000224 	li	v0,2
80101220:	16006210 	beq	v1,v0,0x8010127c
80101224:	03000224 	li	v0,3
80101228:	12006210 	beq	v1,v0,0x80101274
8010122c:	00000000 	nop
80101230:	86280408 	j	0x8010a218
80101234:	00000000 	nop
80101238:	040085a0 	sb	a1,4(a0)
8010123c:	ab27040c 	jal	0x80109eac
80101240:	21280000 	move	a1,zero
80101244:	1828040c 	jal	0x8010a060
80101248:	21200000 	move	a0,zero
8010124c:	add4010c 	jal	0x800752b4
80101250:	21200000 	move	a0,zero
80101254:	49d7010c 	jal	0x80075d24
80101258:	ff1f0424 	li	a0,8191
8010125c:	86280408 	j	0x8010a218
80101260:	00000000 	nop
80101264:	1828040c 	jal	0x8010a060
80101268:	01000424 	li	a0,1
8010126c:	86280408 	j	0x8010a218
80101270:	00000000 	nop
80101274:	74eb010c 	jal	0x8007add0
80101278:	00000000 	nop
8010127c:	1000bf8f 	lw	ra,16(sp)
80101280:	00000000 	nop
80101284:	0800e003 	jr	ra
80101288:	1800bd27 	addiu	sp,sp,24
8010128c:	d8ffbd27 	addiu	sp,sp,-40
80101290:	1800b2af 	sw	s2,24(sp)
80101294:	21908000 	move	s2,a0
80101298:	2000bfaf 	sw	ra,32(sp)
8010129c:	1c00b3af 	sw	s3,28(sp)
801012a0:	1400b1af 	sw	s1,20(sp)
801012a4:	1000b0af 	sw	s0,16(sp)
801012a8:	04004492 	lbu	a0,4(s2)
801012ac:	01000224 	li	v0,1
801012b0:	59008210 	beq	a0,v0,0x80101418
801012b4:	02008228 	slti	v0,a0,2
801012b8:	05004010 	beqz	v0,0x801012d0
801012bc:	00000000 	nop
801012c0:	0a008010 	beqz	a0,0x801012ec
801012c4:	1180033c 	lui	v1,0x8011
801012c8:	f4280408 	j	0x8010a3d0
801012cc:	00000000 	nop
801012d0:	02000224 	li	v0,2
801012d4:	57008210 	beq	a0,v0,0x80101434
801012d8:	03000224 	li	v0,3
801012dc:	53008210 	beq	a0,v0,0x8010142c
801012e0:	00000000 	nop
801012e4:	f4280408 	j	0x8010a3d0
801012e8:	00000000 	nop
801012ec:	03004292 	lbu	v0,3(s2)
801012f0:	5ce16324 	addiu	v1,v1,-7844
801012f4:	40100200 	sll	v0,v0,0x1
801012f8:	21104300 	addu	v0,v0,v1
801012fc:	00004290 	lbu	v0,0(v0)
80101300:	00000000 	nop
80101304:	080042a2 	sb	v0,8(s2)
80101308:	0f80023c 	lui	v0,0x800f
8010130c:	98d04284 	lh	v0,-12136(v0)
80101310:	08004392 	lbu	v1,8(s2)
80101314:	00000000 	nop
80101318:	2a104300 	slt	v0,v0,v1
8010131c:	03004010 	beqz	v0,0x8010132c
80101320:	03000224 	li	v0,3
80101324:	f4280408 	j	0x8010a3d0
80101328:	040042a2 	sb	v0,4(s2)
8010132c:	04004292 	lbu	v0,4(s2)
80101330:	090043a2 	sb	v1,9(s2)
80101334:	03004392 	lbu	v1,3(s2)
80101338:	0d0040a2 	sb	zero,13(s2)
8010133c:	0b0040a2 	sb	zero,11(s2)
80101340:	01004224 	addiu	v0,v0,1
80101344:	040042a2 	sb	v0,4(s2)
80101348:	1180023c 	lui	v0,0x8011
8010134c:	58e14224 	addiu	v0,v0,-7848
80101350:	80180300 	sll	v1,v1,0x2
80101354:	21186200 	addu	v1,v1,v0
80101358:	08004292 	lbu	v0,8(s2)
8010135c:	0000708c 	lw	s0,0(v1)
80101360:	2a108200 	slt	v0,a0,v0
80101364:	33004010 	beqz	v0,0x80101434
80101368:	21980000 	move	s3,zero
8010136c:	21884002 	move	s1,s2
80101370:	baea010c 	jal	0x8007aae8
80101374:	01007326 	addiu	s3,s3,1
80101378:	c00022ae 	sw	v0,192(s1)
8010137c:	00000396 	lhu	v1,0(s0)
80101380:	02001026 	addiu	s0,s0,2
80101384:	0c000524 	li	a1,12
80101388:	060043a4 	sh	v1,6(v0)
8010138c:	c000238e 	lw	v1,192(s1)
80101390:	00000296 	lhu	v0,0(s0)
80101394:	02001026 	addiu	s0,s0,2
80101398:	000062a4 	sh	v0,0(v1)
8010139c:	c000238e 	lw	v1,192(s1)
801013a0:	00000296 	lhu	v0,0(s0)
801013a4:	02001026 	addiu	s0,s0,2
801013a8:	020062a4 	sh	v0,2(v1)
801013ac:	c000238e 	lw	v1,192(s1)
801013b0:	00000296 	lhu	v0,0(s0)
801013b4:	02001026 	addiu	s0,s0,2
801013b8:	040062a4 	sh	v0,4(v1)
801013bc:	c000238e 	lw	v1,192(s1)
801013c0:	00000296 	lhu	v0,0(s0)
801013c4:	02001026 	addiu	s0,s0,2
801013c8:	080062a4 	sh	v0,8(v1)
801013cc:	c000238e 	lw	v1,192(s1)
801013d0:	00000296 	lhu	v0,0(s0)
801013d4:	02001026 	addiu	s0,s0,2
801013d8:	0a0062a4 	sh	v0,10(v1)
801013dc:	c000238e 	lw	v1,192(s1)
801013e0:	00000296 	lhu	v0,0(s0)
801013e4:	02001026 	addiu	s0,s0,2
801013e8:	0c0062a4 	sh	v0,12(v1)
801013ec:	00000686 	lh	a2,0(s0)
801013f0:	c000248e 	lw	a0,192(s1)
801013f4:	c146010c 	jal	0x80051b04
801013f8:	02001026 	addiu	s0,s0,2
801013fc:	08004292 	lbu	v0,8(s2)
80101400:	00000000 	nop
80101404:	2a106202 	slt	v0,s3,v0
80101408:	d9ff4014 	bnez	v0,0x80101370
8010140c:	04003126 	addiu	s1,s1,4
80101410:	f4280408 	j	0x8010a3d0
80101414:	00000000 	nop
80101418:	010044a2 	sb	a0,1(s2)
8010141c:	fe45010c 	jal	0x800517f8
80101420:	21204002 	move	a0,s2
80101424:	f4280408 	j	0x8010a3d0
80101428:	00000000 	nop
8010142c:	89e9010c 	jal	0x8007a624
80101430:	21204002 	move	a0,s2
80101434:	2000bf8f 	lw	ra,32(sp)
80101438:	1c00b38f 	lw	s3,28(sp)
8010143c:	1800b28f 	lw	s2,24(sp)
80101440:	1400b18f 	lw	s1,20(sp)
80101444:	1000b08f 	lw	s0,16(sp)
80101448:	0800e003 	jr	ra
8010144c:	2800bd27 	addiu	sp,sp,40
80101450:	e8ffbd27 	addiu	sp,sp,-24
80101454:	1000b0af 	sw	s0,16(sp)
80101458:	21808000 	move	s0,a0
8010145c:	0e80023c 	lui	v0,0x800e
80101460:	1400bfaf 	sw	ra,20(sp)
80101464:	05000392 	lbu	v1,5(s0)
80101468:	807e4424 	addiu	a0,v0,32384
8010146c:	0700622c 	sltiu	v0,v1,7
80101470:	6e004010 	beqz	v0,0x8010162c
80101474:	1180023c 	lui	v0,0x8011
80101478:	fc8f4224 	addiu	v0,v0,-28676
8010147c:	80180300 	sll	v1,v1,0x2
80101480:	21186200 	addu	v1,v1,v0
80101484:	0000628c 	lw	v0,0(v1)
80101488:	00000000 	nop
8010148c:	08004000 	jr	v0
80101490:	00000000 	nop
80101494:	05000292 	lbu	v0,5(s0)
80101498:	0f000324 	li	v1,15
8010149c:	400003a6 	sh	v1,64(s0)
801014a0:	71290408 	j	0x8010a5c4
801014a4:	01004224 	addiu	v0,v0,1
801014a8:	40000296 	lhu	v0,64(s0)
801014ac:	ffff0324 	li	v1,-1
801014b0:	ffff4224 	addiu	v0,v0,-1
801014b4:	400002a6 	sh	v0,64(s0)
801014b8:	00140200 	sll	v0,v0,0x10
801014bc:	03140200 	sra	v0,v0,0x10
801014c0:	5a004314 	bne	v0,v1,0x8010162c
801014c4:	00000000 	nop
801014c8:	05000292 	lbu	v0,5(s0)
801014cc:	71290408 	j	0x8010a5c4
801014d0:	01004224 	addiu	v0,v0,1
801014d4:	c5cb010c 	jal	0x80072f14
801014d8:	21200002 	move	a0,s0
801014dc:	53004010 	beqz	v0,0x8010162c
801014e0:	01000324 	li	v1,1
801014e4:	05000292 	lbu	v0,5(s0)
801014e8:	000003a2 	sb	v1,0(s0)
801014ec:	71290408 	j	0x8010a5c4
801014f0:	01004224 	addiu	v0,v0,1
801014f4:	29000292 	lbu	v0,41(s0)
801014f8:	00000000 	nop
801014fc:	4b004010 	beqz	v0,0x8010162c
80101500:	00000000 	nop
80101504:	29008290 	lbu	v0,41(a0)
80101508:	00000000 	nop
8010150c:	47004010 	beqz	v0,0x8010162c
80101510:	00000000 	nop
80101514:	7b018290 	lbu	v0,379(a0)
80101518:	00000000 	nop
8010151c:	43004014 	bnez	v0,0x8010162c
80101520:	0c80023c 	lui	v0,0x800c
80101524:	40fa4290 	lbu	v0,-1472(v0)
80101528:	00000000 	nop
8010152c:	0300422c 	sltiu	v0,v0,3
80101530:	3d004014 	bnez	v0,0x80101628
80101534:	05000224 	li	v0,5
80101538:	17000424 	li	a0,23
8010153c:	21280000 	move	a1,zero
80101540:	0f000624 	li	a2,15
80101544:	05000292 	lbu	v0,5(s0)
80101548:	801f033c 	lui	v1,0x1f80
8010154c:	01004224 	addiu	v0,v0,1
80101550:	050002a2 	sb	v0,5(s0)
80101554:	02000224 	li	v0,2
80101558:	64d1010c 	jal	0x80074590
8010155c:	370162a0 	sb	v0,311(v1)
80101560:	72290408 	j	0x8010a5c8
80101564:	00000000 	nop
80101568:	98cb010c 	jal	0x80072e60
8010156c:	21200002 	move	a0,s0
80101570:	2e004010 	beqz	v0,0x8010162c
80101574:	06000224 	li	v0,6
80101578:	050002a2 	sb	v0,5(s0)
8010157c:	801f023c 	lui	v0,0x1f80
80101580:	0c80033c 	lui	v1,0x800c
80101584:	08f86324 	addiu	v1,v1,-2040
80101588:	360240a0 	sb	zero,566(v0)
8010158c:	02000224 	li	v0,2
80101590:	070062a0 	sb	v0,7(v1)
80101594:	01000224 	li	v0,1
80101598:	310062a0 	sb	v0,49(v1)
8010159c:	20010224 	li	v0,288
801015a0:	72290408 	j	0x8010a5c8
801015a4:	320062a4 	sh	v0,50(v1)
801015a8:	06000392 	lbu	v1,6(s0)
801015ac:	00000000 	nop
801015b0:	05006010 	beqz	v1,0x801015c8
801015b4:	01000224 	li	v0,1
801015b8:	0d006210 	beq	v1,v0,0x801015f0
801015bc:	21100000 	move	v0,zero
801015c0:	6f290408 	j	0x8010a5bc
801015c4:	00000000 	nop
801015c8:	060002a2 	sb	v0,6(s0)
801015cc:	34000424 	li	a0,52
801015d0:	653b010c 	jal	0x8004ed94
801015d4:	41000524 	li	a1,65
801015d8:	19000424 	li	a0,25
801015dc:	21280000 	move	a1,zero
801015e0:	64d1010c 	jal	0x80074590
801015e4:	0f000624 	li	a2,15
801015e8:	6f290408 	j	0x8010a5bc
801015ec:	21100000 	move	v0,zero
801015f0:	29000292 	lbu	v0,41(s0)
801015f4:	00000000 	nop
801015f8:	09004014 	bnez	v0,0x80101620
801015fc:	21100000 	move	v0,zero
80101600:	0e80023c 	lui	v0,0x800e
80101604:	c77f4290 	lbu	v0,32711(v0)
80101608:	5f000392 	lbu	v1,95(s0)
8010160c:	01004230 	andi	v0,v0,0x1
80101610:	03004314 	bne	v0,v1,0x80101620
80101614:	21100000 	move	v0,zero
80101618:	060000a2 	sb	zero,6(s0)
8010161c:	01000224 	li	v0,1
80101620:	02004010 	beqz	v0,0x8010162c
80101624:	03000224 	li	v0,3
80101628:	050002a2 	sb	v0,5(s0)
8010162c:	1400bf8f 	lw	ra,20(sp)
80101630:	1000b08f 	lw	s0,16(sp)
80101634:	0800e003 	jr	ra
80101638:	1800bd27 	addiu	sp,sp,24
8010163c:	e0ffbd27 	addiu	sp,sp,-32
80101640:	1000b0af 	sw	s0,16(sp)
80101644:	21808000 	move	s0,a0
80101648:	1c00bfaf 	sw	ra,28(sp)
8010164c:	1800b2af 	sw	s2,24(sp)
80101650:	1400b1af 	sw	s1,20(sp)
80101654:	04000392 	lbu	v1,4(s0)
80101658:	01001224 	li	s2,1
8010165c:	73007210 	beq	v1,s2,0x8010182c
80101660:	02006228 	slti	v0,v1,2
80101664:	05004010 	beqz	v0,0x8010167c
80101668:	00000000 	nop
8010166c:	0a006010 	beqz	v1,0x80101698
80101670:	21200002 	move	a0,s0
80101674:	022a0408 	j	0x8010a808
80101678:	00000000 	nop
8010167c:	02000224 	li	v0,2
80101680:	7a006210 	beq	v1,v0,0x8010186c
80101684:	03000224 	li	v0,3
80101688:	76006210 	beq	v1,v0,0x80101864
8010168c:	00000000 	nop
80101690:	022a0408 	j	0x8010a808
80101694:	00000000 	nop
80101698:	1180033c 	lui	v1,0x8011
8010169c:	03000292 	lbu	v0,3(s0)
801016a0:	60e17124 	addiu	s1,v1,-7840
801016a4:	40100200 	sll	v0,v0,0x1
801016a8:	21105100 	addu	v0,v0,s1
801016ac:	00004690 	lbu	a2,0(v0)
801016b0:	dc46010c 	jal	0x80051b70
801016b4:	0c000524 	li	a1,12
801016b8:	6c004014 	bnez	v0,0x8010186c
801016bc:	00000000 	nop
801016c0:	04000292 	lbu	v0,4(s0)
801016c4:	56000496 	lhu	a0,86(s0)
801016c8:	03000392 	lbu	v1,3(s0)
801016cc:	bf0012a2 	sb	s2,191(s0)
801016d0:	500000a6 	sh	zero,80(s0)
801016d4:	01004224 	addiu	v0,v0,1
801016d8:	40180300 	sll	v1,v1,0x1
801016dc:	040002a2 	sb	v0,4(s0)
801016e0:	28000292 	lbu	v0,40(s0)
801016e4:	21187100 	addu	v1,v1,s1
801016e8:	5a0004a6 	sh	a0,90(s0)
801016ec:	80004234 	ori	v0,v0,0x80
801016f0:	280002a2 	sb	v0,40(s0)
801016f4:	01006290 	lbu	v0,1(v1)
801016f8:	00000000 	nop
801016fc:	3e004010 	beqz	v0,0x801017f8
80101700:	1180053c 	lui	a1,0x8011
80101704:	03000392 	lbu	v1,3(s0)
80101708:	64e1a524 	addiu	a1,a1,-7836
8010170c:	2a0002a2 	sb	v0,42(s0)
80101710:	40100300 	sll	v0,v1,0x1
80101714:	21104300 	addu	v0,v0,v1
80101718:	80100200 	sll	v0,v0,0x2
8010171c:	21104500 	addu	v0,v0,a1
80101720:	00004294 	lhu	v0,0(v0)
80101724:	2e000396 	lhu	v1,46(s0)
80101728:	03000492 	lbu	a0,3(s0)
8010172c:	23104300 	subu	v0,v0,v1
80101730:	600002a6 	sh	v0,96(s0)
80101734:	40100400 	sll	v0,a0,0x1
80101738:	21104400 	addu	v0,v0,a0
8010173c:	80100200 	sll	v0,v0,0x2
80101740:	21104500 	addu	v0,v0,a1
80101744:	02004294 	lhu	v0,2(v0)
80101748:	21188000 	move	v1,a0
8010174c:	620002a6 	sh	v0,98(s0)
80101750:	40100300 	sll	v0,v1,0x1
80101754:	21104300 	addu	v0,v0,v1
80101758:	80100200 	sll	v0,v0,0x2
8010175c:	21104500 	addu	v0,v0,a1
80101760:	04004294 	lhu	v0,4(v0)
80101764:	36000396 	lhu	v1,54(s0)
80101768:	00000000 	nop
8010176c:	23104300 	subu	v0,v0,v1
80101770:	640002a6 	sh	v0,100(s0)
80101774:	40100400 	sll	v0,a0,0x1
80101778:	21104400 	addu	v0,v0,a0
8010177c:	80100200 	sll	v0,v0,0x2
80101780:	21104500 	addu	v0,v0,a1
80101784:	06004290 	lbu	v0,6(v0)
80101788:	21188000 	move	v1,a0
8010178c:	5f0002a2 	sb	v0,95(s0)
80101790:	40100300 	sll	v0,v1,0x1
80101794:	21104300 	addu	v0,v0,v1
80101798:	80100200 	sll	v0,v0,0x2
8010179c:	21104500 	addu	v0,v0,a1
801017a0:	08004294 	lhu	v0,8(v0)
801017a4:	00000000 	nop
801017a8:	820002a6 	sh	v0,130(s0)
801017ac:	00140200 	sll	v0,v0,0x10
801017b0:	031c0200 	sra	v1,v0,0x10
801017b4:	c2170200 	srl	v0,v0,0x1f
801017b8:	21186200 	addu	v1,v1,v0
801017bc:	43180300 	sra	v1,v1,0x1
801017c0:	40100400 	sll	v0,a0,0x1
801017c4:	21104400 	addu	v0,v0,a0
801017c8:	80100200 	sll	v0,v0,0x2
801017cc:	21104500 	addu	v0,v0,a1
801017d0:	800003a6 	sh	v1,128(s0)
801017d4:	0a004294 	lhu	v0,10(v0)
801017d8:	000012a2 	sb	s2,0(s0)
801017dc:	860002a6 	sh	v0,134(s0)
801017e0:	00140200 	sll	v0,v0,0x10
801017e4:	031c0200 	sra	v1,v0,0x10
801017e8:	c2170200 	srl	v0,v0,0x1f
801017ec:	21186200 	addu	v1,v1,v0
801017f0:	43180300 	sra	v1,v1,0x1
801017f4:	840003a6 	sh	v1,132(s0)
801017f8:	03000292 	lbu	v0,3(s0)
801017fc:	00000000 	nop
80101800:	1a004014 	bnez	v0,0x8010186c
80101804:	290000a2 	sb	zero,41(s0)
80101808:	21200002 	move	a0,s0
8010180c:	00fc0224 	li	v0,-1024
80101810:	460000a2 	sb	zero,70(s0)
80101814:	bf0012a2 	sb	s2,191(s0)
80101818:	bfcb010c 	jal	0x80072efc
8010181c:	500002a6 	sh	v0,80(s0)
80101820:	02000224 	li	v0,2
80101824:	022a0408 	j	0x8010a808
80101828:	000002a2 	sb	v0,0(s0)
8010182c:	03000292 	lbu	v0,3(s0)
80101830:	00000000 	nop
80101834:	03004014 	bnez	v0,0x80101844
80101838:	00000000 	nop
8010183c:	fb28040c 	jal	0x8010a3ec
80101840:	21200002 	move	a0,s0
80101844:	e3dd010c 	jal	0x8007778c
80101848:	21200002 	move	a0,s0
8010184c:	03004010 	beqz	v0,0x8010185c
80101850:	00000000 	nop
80101854:	fe45010c 	jal	0x800517f8
80101858:	21200002 	move	a0,s0
8010185c:	022a0408 	j	0x8010a808
80101860:	290000a2 	sb	zero,41(s0)
80101864:	89e9010c 	jal	0x8007a624
80101868:	21200002 	move	a0,s0
8010186c:	1c00bf8f 	lw	ra,28(sp)
80101870:	1800b28f 	lw	s2,24(sp)
80101874:	1400b18f 	lw	s1,20(sp)
80101878:	1000b08f 	lw	s0,16(sp)
8010187c:	0800e003 	jr	ra
80101880:	2000bd27 	addiu	sp,sp,32
80101884:	d8ffbd27 	addiu	sp,sp,-40
80101888:	1800b2af 	sw	s2,24(sp)
8010188c:	21908000 	move	s2,a0
80101890:	03000224 	li	v0,3
80101894:	2400bfaf 	sw	ra,36(sp)
80101898:	2000b4af 	sw	s4,32(sp)
8010189c:	1c00b3af 	sw	s3,28(sp)
801018a0:	1400b1af 	sw	s1,20(sp)
801018a4:	1000b0af 	sw	s0,16(sp)
801018a8:	080042a2 	sb	v0,8(s2)
801018ac:	0f80023c 	lui	v0,0x800f
801018b0:	98d04284 	lh	v0,-12136(v0)
801018b4:	00000000 	nop
801018b8:	03004228 	slti	v0,v0,3
801018bc:	03004010 	beqz	v0,0x801018cc
801018c0:	2188a000 	move	s1,a1
801018c4:	762a0408 	j	0x8010a9d8
801018c8:	01000224 	li	v0,1
801018cc:	21980000 	move	s3,zero
801018d0:	08004392 	lbu	v1,8(s2)
801018d4:	03000224 	li	v0,3
801018d8:	090042a2 	sb	v0,9(s2)
801018dc:	04000224 	li	v0,4
801018e0:	0d0042a2 	sb	v0,13(s2)
801018e4:	80000224 	li	v0,128
801018e8:	800042a6 	sh	v0,128(s2)
801018ec:	00010224 	li	v0,256
801018f0:	820042a6 	sh	v0,130(s2)
801018f4:	dc000224 	li	v0,220
801018f8:	840042a6 	sh	v0,132(s2)
801018fc:	c2010224 	li	v0,450
80101900:	860042a6 	sh	v0,134(s2)
80101904:	00100224 	li	v0,4096
80101908:	0b0040a2 	sb	zero,11(s2)
8010190c:	b80042a6 	sh	v0,184(s2)
80101910:	ba0042a6 	sh	v0,186(s2)
80101914:	30006010 	beqz	v1,0x801019d8
80101918:	bc0042a6 	sh	v0,188(s2)
8010191c:	21a04000 	move	s4,v0
80101920:	21804002 	move	s0,s2
80101924:	baea010c 	jal	0x8007aae8
80101928:	01007326 	addiu	s3,s3,1
8010192c:	c00002ae 	sw	v0,192(s0)
80101930:	00002396 	lhu	v1,0(s1)
80101934:	02003126 	addiu	s1,s1,2
80101938:	060043a4 	sh	v1,6(v0)
8010193c:	c000038e 	lw	v1,192(s0)
80101940:	00002296 	lhu	v0,0(s1)
80101944:	02003126 	addiu	s1,s1,2
80101948:	000062a4 	sh	v0,0(v1)
8010194c:	c000038e 	lw	v1,192(s0)
80101950:	00002296 	lhu	v0,0(s1)
80101954:	02003126 	addiu	s1,s1,2
80101958:	020062a4 	sh	v0,2(v1)
8010195c:	c000038e 	lw	v1,192(s0)
80101960:	00002296 	lhu	v0,0(s1)
80101964:	00000000 	nop
80101968:	040062a4 	sh	v0,4(v1)
8010196c:	c000028e 	lw	v0,192(s0)
80101970:	00000000 	nop
80101974:	080040a4 	sh	zero,8(v0)
80101978:	c000028e 	lw	v0,192(s0)
8010197c:	00000000 	nop
80101980:	0a0040a4 	sh	zero,10(v0)
80101984:	c000028e 	lw	v0,192(s0)
80101988:	00000000 	nop
8010198c:	0c0040a4 	sh	zero,12(v0)
80101990:	c000028e 	lw	v0,192(s0)
80101994:	00000000 	nop
80101998:	380054a4 	sh	s4,56(v0)
8010199c:	c000028e 	lw	v0,192(s0)
801019a0:	0c000524 	li	a1,12
801019a4:	3a0054a4 	sh	s4,58(v0)
801019a8:	c000028e 	lw	v0,192(s0)
801019ac:	02003126 	addiu	s1,s1,2
801019b0:	3c0054a4 	sh	s4,60(v0)
801019b4:	00002686 	lh	a2,0(s1)
801019b8:	c000048e 	lw	a0,192(s0)
801019bc:	c146010c 	jal	0x80051b04
801019c0:	02003126 	addiu	s1,s1,2
801019c4:	08004292 	lbu	v0,8(s2)
801019c8:	00000000 	nop
801019cc:	2a106202 	slt	v0,s3,v0
801019d0:	d4ff4014 	bnez	v0,0x80101924
801019d4:	04001026 	addiu	s0,s0,4
801019d8:	c000438e 	lw	v1,192(s2)
801019dc:	20000224 	li	v0,32
801019e0:	3f0062a0 	sb	v0,63(v1)
801019e4:	c400428e 	lw	v0,196(s2)
801019e8:	f0000324 	li	v1,240
801019ec:	3f0043a0 	sb	v1,63(v0)
801019f0:	c800428e 	lw	v0,200(s2)
801019f4:	21204002 	move	a0,s2
801019f8:	3f0043a0 	sb	v1,63(v0)
801019fc:	290040a2 	sb	zero,41(s2)
80101a00:	9b1d010c 	jal	0x8004766c
80101a04:	2b0040a2 	sb	zero,43(s2)
80101a08:	d421010c 	jal	0x80048750
80101a0c:	21204002 	move	a0,s2
80101a10:	801f023c 	lui	v0,0x1f80
80101a14:	801f033c 	lui	v1,0x1f80
80101a18:	a0014494 	lhu	a0,416(v0)
80101a1c:	a2016394 	lhu	v1,418(v1)
80101a20:	c000468e 	lw	a2,192(s2)
80101a24:	7c004596 	lhu	a1,124(s2)
80101a28:	21100000 	move	v0,zero
80101a2c:	600044a6 	sh	a0,96(s2)
80101a30:	620043a6 	sh	v1,98(s2)
80101a34:	560044a6 	sh	a0,86(s2)
80101a38:	0a00c5a4 	sh	a1,10(a2)
80101a3c:	2400bf8f 	lw	ra,36(sp)
80101a40:	2000b48f 	lw	s4,32(sp)
80101a44:	1c00b38f 	lw	s3,28(sp)
80101a48:	1800b28f 	lw	s2,24(sp)
80101a4c:	1400b18f 	lw	s1,20(sp)
80101a50:	1000b08f 	lw	s0,16(sp)
80101a54:	0800e003 	jr	ra
80101a58:	2800bd27 	addiu	sp,sp,40
80101a5c:	e0ffbd27 	addiu	sp,sp,-32
80101a60:	1000b0af 	sw	s0,16(sp)
80101a64:	21808000 	move	s0,a0
80101a68:	0c80023c 	lui	v0,0x800c
80101a6c:	70f84224 	addiu	v0,v0,-1936
80101a70:	1800bfaf 	sw	ra,24(sp)
80101a74:	1400b1af 	sw	s1,20(sp)
80101a78:	13004490 	lbu	a0,19(v0)
80101a7c:	00000000 	nop
80101a80:	0c008010 	beqz	a0,0x80101ab4
80101a84:	21180000 	move	v1,zero
80101a88:	21384000 	move	a3,v0
80101a8c:	7e000686 	lh	a2,126(s0)
80101a90:	21106700 	addu	v0,v1,a3
80101a94:	14004290 	lbu	v0,20(v0)
80101a98:	00000000 	nop
80101a9c:	7f004230 	andi	v0,v0,0x7f
80101aa0:	11004610 	beq	v0,a2,0x80101ae8
80101aa4:	01006324 	addiu	v1,v1,1
80101aa8:	2a106400 	slt	v0,v1,a0
80101aac:	f9ff4014 	bnez	v0,0x80101a94
80101ab0:	21106700 	addu	v0,v1,a3
80101ab4:	21100000 	move	v0,zero
80101ab8:	11004010 	beqz	v0,0x80101b00
80101abc:	0c80023c 	lui	v0,0x800c
80101ac0:	70f85124 	addiu	s1,v0,-1936
80101ac4:	a9012292 	lbu	v0,425(s1)
80101ac8:	03000392 	lbu	v1,3(s0)
80101acc:	00000000 	nop
80101ad0:	07106200 	srav	v0,v0,v1
80101ad4:	01004230 	andi	v0,v0,0x1
80101ad8:	05004010 	beqz	v0,0x80101af0
80101adc:	03000224 	li	v0,3
80101ae0:	d02a0408 	j	0x8010ab40
80101ae4:	040002a2 	sb	v0,4(s0)
80101ae8:	952a0408 	j	0x8010aa54
80101aec:	01000224 	li	v0,1
80101af0:	082a040c 	jal	0x8010a820
80101af4:	21200002 	move	a0,s0
80101af8:	04004010 	beqz	v0,0x80101b0c
80101afc:	00000000 	nop
80101b00:	03000224 	li	v0,3
80101b04:	d02a0408 	j	0x8010ab40
80101b08:	040002a2 	sb	v0,4(s0)
80101b0c:	01002392 	lbu	v1,1(s1)
80101b10:	7a000286 	lh	v0,122(s0)
80101b14:	00000000 	nop
80101b18:	0b006214 	bne	v1,v0,0x80101b48
80101b1c:	00080324 	li	v1,2048
80101b20:	c400028e 	lw	v0,196(s0)
80101b24:	00000000 	nop
80101b28:	0a0043a4 	sh	v1,10(v0)
80101b2c:	c800028e 	lw	v0,200(s0)
80101b30:	00000000 	nop
80101b34:	0a0043a4 	sh	v1,10(v0)
80101b38:	01000224 	li	v0,1
80101b3c:	040002a2 	sb	v0,4(s0)
80101b40:	c92a0408 	j	0x8010ab24
80101b44:	02000224 	li	v0,2
80101b48:	a7012292 	lbu	v0,423(s1)
80101b4c:	03000392 	lbu	v1,3(s0)
80101b50:	00000000 	nop
80101b54:	07106200 	srav	v0,v0,v1
80101b58:	01004230 	andi	v0,v0,0x1
80101b5c:	0d004010 	beqz	v0,0x80101b94
80101b60:	00080324 	li	v1,2048
80101b64:	c400028e 	lw	v0,196(s0)
80101b68:	00000000 	nop
80101b6c:	0a0043a4 	sh	v1,10(v0)
80101b70:	c800028e 	lw	v0,200(s0)
80101b74:	00000000 	nop
80101b78:	0a0043a4 	sh	v1,10(v0)
80101b7c:	01000224 	li	v0,1
80101b80:	000002a2 	sb	v0,0(s0)
80101b84:	040002a2 	sb	v0,4(s0)
80101b88:	050000a2 	sb	zero,5(s0)
80101b8c:	d02a0408 	j	0x8010ab40
80101b90:	5e0002a2 	sb	v0,94(s0)
80101b94:	05000292 	lbu	v0,5(s0)
80101b98:	00000000 	nop
80101b9c:	01004224 	addiu	v0,v0,1
80101ba0:	050002a2 	sb	v0,5(s0)
80101ba4:	1800bf8f 	lw	ra,24(sp)
80101ba8:	1400b18f 	lw	s1,20(sp)
80101bac:	1000b08f 	lw	s0,16(sp)
80101bb0:	0800e003 	jr	ra
80101bb4:	2000bd27 	addiu	sp,sp,32
80101bb8:	e8ffbd27 	addiu	sp,sp,-24
80101bbc:	1000b0af 	sw	s0,16(sp)
80101bc0:	21808000 	move	s0,a0
80101bc4:	1400bfaf 	sw	ra,20(sp)
80101bc8:	05000392 	lbu	v1,5(s0)
80101bcc:	00000000 	nop
80101bd0:	0500622c 	sltiu	v0,v1,5
80101bd4:	86004010 	beqz	v0,0x80101df0
80101bd8:	1180023c 	lui	v0,0x8011
80101bdc:	18904224 	addiu	v0,v0,-28648
80101be0:	80180300 	sll	v1,v1,0x2
80101be4:	21186200 	addu	v1,v1,v0
80101be8:	0000628c 	lw	v0,0(v1)
80101bec:	00000000 	nop
80101bf0:	08004000 	jr	v0
80101bf4:	00000000 	nop
80101bf8:	08000424 	li	a0,8
80101bfc:	801f033c 	lui	v1,0x1f80
80101c00:	02000224 	li	v0,2
80101c04:	370162a0 	sb	v0,311(v1)
80101c08:	0c80033c 	lui	v1,0x800c
80101c0c:	01000224 	li	v0,1
80101c10:	70b8010c 	jal	0x8006e1c0
80101c14:	41f862a0 	sb	v0,-1983(v1)
80101c18:	eab2010c 	jal	0x8006cba8
80101c1c:	2c000426 	addiu	a0,s0,44
80101c20:	32000396 	lhu	v1,50(s0)
80101c24:	801f023c 	lui	v0,0x1f80
80101c28:	d60043a4 	sh	v1,214(v0)
80101c2c:	05000292 	lbu	v0,5(s0)
80101c30:	4b2b0408 	j	0x8010ad2c
80101c34:	01004224 	addiu	v0,v0,1
80101c38:	0f80023c 	lui	v0,0x800f
80101c3c:	6e804290 	lbu	v0,-32658(v0)
80101c40:	03000324 	li	v1,3
80101c44:	03004230 	andi	v0,v0,0x3
80101c48:	69004314 	bne	v0,v1,0x80101df0
80101c4c:	0e80033c 	lui	v1,0x800e
80101c50:	807e6324 	addiu	v1,v1,32384
80101c54:	05000292 	lbu	v0,5(s0)
80101c58:	36000496 	lhu	a0,54(s0)
80101c5c:	01004224 	addiu	v0,v0,1
80101c60:	050002a2 	sb	v0,5(s0)
80101c64:	36006294 	lhu	v0,54(v1)
80101c68:	2e000596 	lhu	a1,46(s0)
80101c6c:	23208200 	subu	a0,a0,v0
80101c70:	00240400 	sll	a0,a0,0x10
80101c74:	03240400 	sra	a0,a0,0x10
80101c78:	2e006294 	lhu	v0,46(v1)
80101c7c:	23200400 	negu	a0,a0
80101c80:	2328a200 	subu	a1,a1,v0
80101c84:	002c0500 	sll	a1,a1,0x10
80101c88:	a415020c 	jal	0x80085690
80101c8c:	032c0500 	sra	a1,a1,0x10
80101c90:	00140200 	sll	v0,v0,0x10
80101c94:	03240200 	sra	a0,v0,0x10
80101c98:	60000586 	lh	a1,96(s0)
80101c9c:	dadd010c 	jal	0x80077768
80101ca0:	21300000 	move	a2,zero
80101ca4:	17000424 	li	a0,23
80101ca8:	eeff0524 	li	a1,-18
80101cac:	1e000624 	li	a2,30
80101cb0:	64d1010c 	jal	0x80074590
80101cb4:	460002a2 	sb	v0,70(s0)
80101cb8:	632b0408 	j	0x8010ad8c
80101cbc:	00000000 	nop
80101cc0:	46000292 	lbu	v0,70(s0)
80101cc4:	00000000 	nop
80101cc8:	17004014 	bnez	v0,0x80101d28
80101ccc:	00000000 	nop
80101cd0:	c400038e 	lw	v1,196(s0)
80101cd4:	00000000 	nop
80101cd8:	0a006294 	lhu	v0,10(v1)
80101cdc:	00000000 	nop
80101ce0:	c0ff4224 	addiu	v0,v0,-64
80101ce4:	0a0062a4 	sh	v0,10(v1)
80101ce8:	c800038e 	lw	v1,200(s0)
80101cec:	00000000 	nop
80101cf0:	0a006294 	lhu	v0,10(v1)
80101cf4:	00000000 	nop
80101cf8:	40004224 	addiu	v0,v0,64
80101cfc:	0a0062a4 	sh	v0,10(v1)
80101d00:	c400028e 	lw	v0,196(s0)
80101d04:	00000000 	nop
80101d08:	0a004284 	lh	v0,10(v0)
80101d0c:	00000000 	nop
80101d10:	01f84228 	slti	v0,v0,-2047
80101d14:	36004010 	beqz	v0,0x80101df0
80101d18:	00000000 	nop
80101d1c:	05000292 	lbu	v0,5(s0)
80101d20:	4b2b0408 	j	0x8010ad2c
80101d24:	01004224 	addiu	v0,v0,1
80101d28:	c400038e 	lw	v1,196(s0)
80101d2c:	00000000 	nop
80101d30:	0a006294 	lhu	v0,10(v1)
80101d34:	00000000 	nop
80101d38:	40004224 	addiu	v0,v0,64
80101d3c:	0a0062a4 	sh	v0,10(v1)
80101d40:	c800038e 	lw	v1,200(s0)
80101d44:	00000000 	nop
80101d48:	0a006294 	lhu	v0,10(v1)
80101d4c:	00000000 	nop
80101d50:	c0ff4224 	addiu	v0,v0,-64
80101d54:	0a0062a4 	sh	v0,10(v1)
80101d58:	c400028e 	lw	v0,196(s0)
80101d5c:	00000000 	nop
80101d60:	0a004284 	lh	v0,10(v0)
80101d64:	00000000 	nop
80101d68:	00084228 	slti	v0,v0,2048
80101d6c:	20004014 	bnez	v0,0x80101df0
80101d70:	00000000 	nop
80101d74:	05000292 	lbu	v0,5(s0)
80101d78:	4b2b0408 	j	0x8010ad2c
80101d7c:	01004224 	addiu	v0,v0,1
80101d80:	05000292 	lbu	v0,5(s0)
80101d84:	1e000324 	li	v1,30
80101d88:	400003a6 	sh	v1,64(s0)
80101d8c:	01004224 	addiu	v0,v0,1
80101d90:	632b0408 	j	0x8010ad8c
80101d94:	050002a2 	sb	v0,5(s0)
80101d98:	40000296 	lhu	v0,64(s0)
80101d9c:	00000000 	nop
80101da0:	ffff4224 	addiu	v0,v0,-1
80101da4:	400002a6 	sh	v0,64(s0)
80101da8:	00140200 	sll	v0,v0,0x10
80101dac:	10004014 	bnez	v0,0x80101df0
80101db0:	801f023c 	lui	v0,0x1f80
80101db4:	370140a0 	sb	zero,311(v0)
80101db8:	0c80023c 	lui	v0,0x800c
80101dbc:	79b8010c 	jal	0x8006e1e4
80101dc0:	41f840a0 	sb	zero,-1983(v0)
80101dc4:	0c80043c 	lui	a0,0x800c
80101dc8:	70f88424 	addiu	a0,a0,-1936
80101dcc:	01000524 	li	a1,1
80101dd0:	03000292 	lbu	v0,3(s0)
80101dd4:	a7018390 	lbu	v1,423(a0)
80101dd8:	04104500 	sllv	v0,a1,v0
80101ddc:	25186200 	or	v1,v1,v0
80101de0:	a70183a0 	sb	v1,423(a0)
80101de4:	5e0005a2 	sb	a1,94(s0)
80101de8:	000005a2 	sb	a1,0(s0)
80101dec:	050000a2 	sb	zero,5(s0)
80101df0:	1400bf8f 	lw	ra,20(sp)
80101df4:	1000b08f 	lw	s0,16(sp)
80101df8:	0800e003 	jr	ra
80101dfc:	1800bd27 	addiu	sp,sp,24
80101e00:	e0ffbd27 	addiu	sp,sp,-32
80101e04:	1400b1af 	sw	s1,20(sp)
80101e08:	21888000 	move	s1,a0
80101e0c:	0e80023c 	lui	v0,0x800e
80101e10:	1000b0af 	sw	s0,16(sp)
80101e14:	1800bfaf 	sw	ra,24(sp)
80101e18:	05002392 	lbu	v1,5(s1)
80101e1c:	01000424 	li	a0,1
80101e20:	2c006410 	beq	v1,a0,0x80101ed4
80101e24:	807e5024 	addiu	s0,v0,32384
80101e28:	02006228 	slti	v0,v1,2
80101e2c:	05004010 	beqz	v0,0x80101e44
80101e30:	00000000 	nop
80101e34:	08006010 	beqz	v1,0x80101e58
80101e38:	00000000 	nop
80101e3c:	e82b0408 	j	0x8010afa0
80101e40:	00000000 	nop
80101e44:	02000224 	li	v0,2
80101e48:	63006210 	beq	v1,v0,0x80101fd8
80101e4c:	03000224 	li	v0,3
80101e50:	e82b0408 	j	0x8010afa0
80101e54:	00000000 	nop
80101e58:	29002292 	lbu	v0,41(s1)
80101e5c:	00000000 	nop
80101e60:	68004010 	beqz	v0,0x80102004
80101e64:	00000000 	nop
80101e68:	050024a2 	sb	a0,5(s1)
80101e6c:	36002496 	lhu	a0,54(s1)
80101e70:	36000296 	lhu	v0,54(s0)
80101e74:	2e002596 	lhu	a1,46(s1)
80101e78:	23208200 	subu	a0,a0,v0
80101e7c:	00240400 	sll	a0,a0,0x10
80101e80:	03240400 	sra	a0,a0,0x10
80101e84:	2e000296 	lhu	v0,46(s0)
80101e88:	23200400 	negu	a0,a0
80101e8c:	2328a200 	subu	a1,a1,v0
80101e90:	002c0500 	sll	a1,a1,0x10
80101e94:	a415020c 	jal	0x80085690
80101e98:	032c0500 	sra	a1,a1,0x10
80101e9c:	00140200 	sll	v0,v0,0x10
80101ea0:	03240200 	sra	a0,v0,0x10
80101ea4:	60002586 	lh	a1,96(s1)
80101ea8:	dadd010c 	jal	0x80077768
80101eac:	21300000 	move	a2,zero
80101eb0:	460022a2 	sb	v0,70(s1)
80101eb4:	ff004230 	andi	v0,v0,0xff
80101eb8:	04004014 	bnez	v0,0x80101ecc
80101ebc:	00f80224 	li	v0,-2048
80101ec0:	00080224 	li	v0,2048
80101ec4:	e82b0408 	j	0x8010afa0
80101ec8:	440022a6 	sh	v0,68(s1)
80101ecc:	e82b0408 	j	0x8010afa0
80101ed0:	440022a6 	sh	v0,68(s1)
80101ed4:	32000586 	lh	a1,50(s0)
80101ed8:	32002486 	lh	a0,50(s1)
80101edc:	32000396 	lhu	v1,50(s0)
80101ee0:	2a108500 	slt	v0,a0,a1
80101ee4:	0b004010 	beqz	v0,0x80101f14
80101ee8:	ecff6224 	addiu	v0,v1,-20
80101eec:	320002a6 	sh	v0,50(s0)
80101ef0:	00140200 	sll	v0,v0,0x10
80101ef4:	32002386 	lh	v1,50(s1)
80101ef8:	03140200 	sra	v0,v0,0x10
80101efc:	2a104300 	slt	v0,v0,v1
80101f00:	32002396 	lhu	v1,50(s1)
80101f04:	0f004010 	beqz	v0,0x80101f44
80101f08:	00000000 	nop
80101f0c:	b82b0408 	j	0x8010aee0
80101f10:	320003a6 	sh	v1,50(s0)
80101f14:	2a10a400 	slt	v0,a1,a0
80101f18:	0a004010 	beqz	v0,0x80101f44
80101f1c:	14006224 	addiu	v0,v1,20
80101f20:	320002a6 	sh	v0,50(s0)
80101f24:	00140200 	sll	v0,v0,0x10
80101f28:	32002386 	lh	v1,50(s1)
80101f2c:	03140200 	sra	v0,v0,0x10
80101f30:	2a186200 	slt	v1,v1,v0
80101f34:	32002296 	lhu	v0,50(s1)
80101f38:	02006010 	beqz	v1,0x80101f44
80101f3c:	00000000 	nop
80101f40:	320002a6 	sh	v0,50(s0)
80101f44:	44002386 	lh	v1,68(s1)
80101f48:	48000286 	lh	v0,72(s0)
80101f4c:	00000000 	nop
80101f50:	18006200 	mult	v1,v0
80101f54:	2c00028e 	lw	v0,44(s0)
80101f58:	12380000 	mflo	a3
80101f5c:	21104700 	addu	v0,v0,a3
80101f60:	2c0002ae 	sw	v0,44(s0)
80101f64:	44002386 	lh	v1,68(s1)
80101f68:	4c000286 	lh	v0,76(s0)
80101f6c:	00000000 	nop
80101f70:	18006200 	mult	v1,v0
80101f74:	21200002 	move	a0,s0
80101f78:	3400028e 	lw	v0,52(s0)
80101f7c:	12380000 	mflo	a3
80101f80:	21104700 	addu	v0,v0,a3
80101f84:	9b1d010c 	jal	0x8004766c
80101f88:	340002ae 	sw	v0,52(s0)
80101f8c:	d421010c 	jal	0x80048750
80101f90:	21200002 	move	a0,s0
80101f94:	b8000296 	lhu	v0,184(s0)
80101f98:	ba000396 	lhu	v1,186(s0)
80101f9c:	80ff4224 	addiu	v0,v0,-128
80101fa0:	b80002a6 	sh	v0,184(s0)
80101fa4:	bc000296 	lhu	v0,188(s0)
80101fa8:	80ff6324 	addiu	v1,v1,-128
80101fac:	ba0003a6 	sh	v1,186(s0)
80101fb0:	b8000396 	lhu	v1,184(s0)
80101fb4:	80ff4224 	addiu	v0,v0,-128
80101fb8:	0101632c 	sltiu	v1,v1,257
80101fbc:	11006010 	beqz	v1,0x80102004
80101fc0:	bc0002a6 	sh	v0,188(s0)
80101fc4:	05002292 	lbu	v0,5(s1)
80101fc8:	00000000 	nop
80101fcc:	01004224 	addiu	v0,v0,1
80101fd0:	e82b0408 	j	0x8010afa0
80101fd4:	050022a2 	sb	v0,5(s1)
80101fd8:	801f033c 	lui	v1,0x1f80
80101fdc:	050022a2 	sb	v0,5(s1)
80101fe0:	07000224 	li	v0,7
80101fe4:	360262a0 	sb	v0,566(v1)
80101fe8:	0c80033c 	lui	v1,0x800c
80101fec:	08f86324 	addiu	v1,v1,-2040
80101ff0:	310064a0 	sb	a0,49(v1)
80101ff4:	bf002292 	lbu	v0,191(s1)
80101ff8:	00000000 	nop
80101ffc:	00110200 	sll	v0,v0,0x4
80102000:	320062a4 	sh	v0,50(v1)
80102004:	1800bf8f 	lw	ra,24(sp)
80102008:	1400b18f 	lw	s1,20(sp)
8010200c:	1000b08f 	lw	s0,16(sp)
80102010:	0800e003 	jr	ra
80102014:	2000bd27 	addiu	sp,sp,32
80102018:	d0ffbd27 	addiu	sp,sp,-48
8010201c:	2400b1af 	sw	s1,36(sp)
80102020:	21888000 	move	s1,a0
80102024:	2800bfaf 	sw	ra,40(sp)
80102028:	2000b0af 	sw	s0,32(sp)
8010202c:	05002392 	lbu	v1,5(s1)
80102030:	00000000 	nop
80102034:	0500622c 	sltiu	v0,v1,5
80102038:	ef004010 	beqz	v0,0x801023f8
8010203c:	2180a000 	move	s0,a1
80102040:	1180023c 	lui	v0,0x8011
80102044:	30904224 	addiu	v0,v0,-28624
80102048:	80180300 	sll	v1,v1,0x2
8010204c:	21186200 	addu	v1,v1,v0
80102050:	0000628c 	lw	v0,0(v1)
80102054:	00000000 	nop
80102058:	08004000 	jr	v0
8010205c:	00000000 	nop
80102060:	05002292 	lbu	v0,5(s1)
80102064:	3c000324 	li	v1,60
80102068:	400023a6 	sh	v1,64(s1)
8010206c:	01004224 	addiu	v0,v0,1
80102070:	050022a2 	sb	v0,5(s1)
80102074:	0c80023c 	lui	v0,0x800c
80102078:	0ff84290 	lbu	v0,-2033(v0)
8010207c:	00000000 	nop
80102080:	dd004014 	bnez	v0,0x801023f8
80102084:	08000424 	li	a0,8
80102088:	801f033c 	lui	v1,0x1f80
8010208c:	0c80053c 	lui	a1,0x800c
80102090:	05002292 	lbu	v0,5(s1)
80102094:	70f8a524 	addiu	a1,a1,-1936
80102098:	01004224 	addiu	v0,v0,1
8010209c:	050022a2 	sb	v0,5(s1)
801020a0:	02000224 	li	v0,2
801020a4:	370162a0 	sb	v0,311(v1)
801020a8:	01000324 	li	v1,1
801020ac:	03002692 	lbu	a2,3(s1)
801020b0:	a901a290 	lbu	v0,425(a1)
801020b4:	0418c300 	sllv	v1,v1,a2
801020b8:	25104300 	or	v0,v0,v1
801020bc:	70b8010c 	jal	0x8006e1c0
801020c0:	a901a2a0 	sb	v0,425(a1)
801020c4:	801f033c 	lui	v1,0x1f80
801020c8:	00000296 	lhu	v0,0(s0)
801020cc:	d0006324 	addiu	v1,v1,208
801020d0:	020062a4 	sh	v0,2(v1)
801020d4:	02000296 	lhu	v0,2(s0)
801020d8:	0f80043c 	lui	a0,0x800f
801020dc:	060062a4 	sh	v0,6(v1)
801020e0:	04000296 	lhu	v0,4(s0)
801020e4:	08808424 	addiu	a0,a0,-32760
801020e8:	0a0062a4 	sh	v0,10(v1)
801020ec:	06000296 	lhu	v0,6(s0)
801020f0:	0e80033c 	lui	v1,0x800e
801020f4:	3a0082a4 	sh	v0,58(a0)
801020f8:	08000296 	lhu	v0,8(s0)
801020fc:	807e6324 	addiu	v1,v1,32384
80102100:	3e0082a4 	sh	v0,62(a0)
80102104:	0a000596 	lhu	a1,10(s0)
80102108:	04000224 	li	v0,4
8010210c:	040062a0 	sb	v0,4(v1)
80102110:	21000224 	li	v0,33
80102114:	050062a0 	sb	v0,5(v1)
80102118:	060060a0 	sb	zero,6(v1)
8010211c:	e52c0408 	j	0x8010b394
80102120:	420085a4 	sh	a1,66(a0)
80102124:	0f80023c 	lui	v0,0x800f
80102128:	6e804390 	lbu	v1,-32658(v0)
8010212c:	03000224 	li	v0,3
80102130:	b1006214 	bne	v1,v0,0x801023f8
80102134:	00000000 	nop
80102138:	05002292 	lbu	v0,5(s1)
8010213c:	00000000 	nop
80102140:	01004224 	addiu	v0,v0,1
80102144:	e52c0408 	j	0x8010b394
80102148:	050022a2 	sb	v0,5(s1)
8010214c:	40002296 	lhu	v0,64(s1)
80102150:	ffff0324 	li	v1,-1
80102154:	ffff4224 	addiu	v0,v0,-1
80102158:	400022a6 	sh	v0,64(s1)
8010215c:	00140200 	sll	v0,v0,0x10
80102160:	03140200 	sra	v0,v0,0x10
80102164:	86004314 	bne	v0,v1,0x80102380
80102168:	801f023c 	lui	v0,0x1f80
8010216c:	15000424 	li	a0,21
80102170:	3c000224 	li	v0,60
80102174:	400022a6 	sh	v0,64(s1)
80102178:	05002292 	lbu	v0,5(s1)
8010217c:	2e002396 	lhu	v1,46(s1)
80102180:	01004224 	addiu	v0,v0,1
80102184:	050022a2 	sb	v0,5(s1)
80102188:	1200a3a7 	sh	v1,18(sp)
8010218c:	32002296 	lhu	v0,50(s1)
80102190:	1000a527 	addiu	a1,sp,16
80102194:	80004224 	addiu	v0,v0,128
80102198:	1600a2a7 	sh	v0,22(sp)
8010219c:	36002296 	lhu	v0,54(s1)
801021a0:	ceff0624 	li	a2,-50
801021a4:	5bc4000c 	jal	0x8003116c
801021a8:	1a00a2a7 	sh	v0,26(sp)
801021ac:	21184000 	move	v1,v0
801021b0:	24000424 	li	a0,36
801021b4:	1000a527 	addiu	a1,sp,16
801021b8:	28006290 	lbu	v0,40(v1)
801021bc:	ceff0624 	li	a2,-50
801021c0:	80004234 	ori	v0,v0,0x80
801021c4:	5bc4000c 	jal	0x8003116c
801021c8:	280062a0 	sb	v0,40(v1)
801021cc:	21184000 	move	v1,v0
801021d0:	28006290 	lbu	v0,40(v1)
801021d4:	1000a527 	addiu	a1,sp,16
801021d8:	80004234 	ori	v0,v0,0x80
801021dc:	280062a0 	sb	v0,40(v1)
801021e0:	c000228e 	lw	v0,192(s1)
801021e4:	00080624 	li	a2,2048
801021e8:	4000448c 	lw	a0,64(v0)
801021ec:	519c000c 	jal	0x80027144
801021f0:	08000724 	li	a3,8
801021f4:	0c000424 	li	a0,12
801021f8:	21280000 	move	a1,zero
801021fc:	64d1010c 	jal	0x80074590
80102200:	2130a000 	move	a2,a1
80102204:	2c003026 	addiu	s0,s1,44
80102208:	21280002 	move	a1,s0
8010220c:	c000228e 	lw	v0,192(s1)
80102210:	00060624 	li	a2,1536
80102214:	4000448c 	lw	a0,64(v0)
80102218:	519c000c 	jal	0x80027144
8010221c:	18000724 	li	a3,24
80102220:	0c000424 	li	a0,12
80102224:	21280000 	move	a1,zero
80102228:	64d1010c 	jal	0x80074590
8010222c:	2130a000 	move	a2,a1
80102230:	c400228e 	lw	v0,196(s1)
80102234:	00000000 	nop
80102238:	2c004294 	lhu	v0,44(v0)
8010223c:	00000000 	nop
80102240:	1200a2a7 	sh	v0,18(sp)
80102244:	c400228e 	lw	v0,196(s1)
80102248:	00000000 	nop
8010224c:	30004294 	lhu	v0,48(v0)
80102250:	24000424 	li	a0,36
80102254:	80004224 	addiu	v0,v0,128
80102258:	1200a2a7 	sh	v0,18(sp)
8010225c:	c400228e 	lw	v0,196(s1)
80102260:	1000a527 	addiu	a1,sp,16
80102264:	34004294 	lhu	v0,52(v0)
80102268:	ceff0624 	li	a2,-50
8010226c:	5bc4000c 	jal	0x8003116c
80102270:	1200a2a7 	sh	v0,18(sp)
80102274:	21184000 	move	v1,v0
80102278:	28006290 	lbu	v0,40(v1)
8010227c:	21280002 	move	a1,s0
80102280:	80004234 	ori	v0,v0,0x80
80102284:	280062a0 	sb	v0,40(v1)
80102288:	c400228e 	lw	v0,196(s1)
8010228c:	00080624 	li	a2,2048
80102290:	4000448c 	lw	a0,64(v0)
80102294:	519c000c 	jal	0x80027144
80102298:	08000724 	li	a3,8
8010229c:	0c000424 	li	a0,12
801022a0:	21280000 	move	a1,zero
801022a4:	64d1010c 	jal	0x80074590
801022a8:	2130a000 	move	a2,a1
801022ac:	21280002 	move	a1,s0
801022b0:	c400228e 	lw	v0,196(s1)
801022b4:	00060624 	li	a2,1536
801022b8:	4000448c 	lw	a0,64(v0)
801022bc:	519c000c 	jal	0x80027144
801022c0:	18000724 	li	a3,24
801022c4:	0c000424 	li	a0,12
801022c8:	21280000 	move	a1,zero
801022cc:	64d1010c 	jal	0x80074590
801022d0:	2130a000 	move	a2,a1
801022d4:	c800228e 	lw	v0,200(s1)
801022d8:	00000000 	nop
801022dc:	2c004294 	lhu	v0,44(v0)
801022e0:	00000000 	nop
801022e4:	1200a2a7 	sh	v0,18(sp)
801022e8:	c800228e 	lw	v0,200(s1)
801022ec:	00000000 	nop
801022f0:	30004294 	lhu	v0,48(v0)
801022f4:	24000424 	li	a0,36
801022f8:	80004224 	addiu	v0,v0,128
801022fc:	1200a2a7 	sh	v0,18(sp)
80102300:	cc00228e 	lw	v0,204(s1)
80102304:	1000a527 	addiu	a1,sp,16
80102308:	34004294 	lhu	v0,52(v0)
8010230c:	ceff0624 	li	a2,-50
80102310:	5bc4000c 	jal	0x8003116c
80102314:	1200a2a7 	sh	v0,18(sp)
80102318:	21184000 	move	v1,v0
8010231c:	28006290 	lbu	v0,40(v1)
80102320:	21280002 	move	a1,s0
80102324:	80004234 	ori	v0,v0,0x80
80102328:	280062a0 	sb	v0,40(v1)
8010232c:	c800228e 	lw	v0,200(s1)
80102330:	00080624 	li	a2,2048
80102334:	4000448c 	lw	a0,64(v0)
80102338:	519c000c 	jal	0x80027144
8010233c:	08000724 	li	a3,8
80102340:	0c000424 	li	a0,12
80102344:	21280000 	move	a1,zero
80102348:	64d1010c 	jal	0x80074590
8010234c:	2130a000 	move	a2,a1
80102350:	21280002 	move	a1,s0
80102354:	c800228e 	lw	v0,200(s1)
80102358:	00060624 	li	a2,1536
8010235c:	4000448c 	lw	a0,64(v0)
80102360:	519c000c 	jal	0x80027144
80102364:	18000724 	li	a3,24
80102368:	0c000424 	li	a0,12
8010236c:	21280000 	move	a1,zero
80102370:	64d1010c 	jal	0x80074590
80102374:	2130a000 	move	a2,a1
80102378:	e52c0408 	j	0x8010b394
8010237c:	00000000 	nop
80102380:	7c014294 	lhu	v0,380(v0)
80102384:	00000000 	nop
80102388:	01004230 	andi	v0,v0,0x1
8010238c:	40180200 	sll	v1,v0,0x1
80102390:	21186200 	addu	v1,v1,v0
80102394:	c000228e 	lw	v0,192(s1)
80102398:	40180300 	sll	v1,v1,0x1
8010239c:	1469020c 	jal	0x8009a450
801023a0:	020043a4 	sh	v1,2(v0)
801023a4:	03004230 	andi	v0,v0,0x3
801023a8:	feff4224 	addiu	v0,v0,-2
801023ac:	40180200 	sll	v1,v0,0x1
801023b0:	21186200 	addu	v1,v1,v0
801023b4:	c000228e 	lw	v0,192(s1)
801023b8:	40180300 	sll	v1,v1,0x1
801023bc:	e52c0408 	j	0x8010b394
801023c0:	000043a4 	sh	v1,0(v0)
801023c4:	40002296 	lhu	v0,64(s1)
801023c8:	ffff0324 	li	v1,-1
801023cc:	ffff4224 	addiu	v0,v0,-1
801023d0:	400022a6 	sh	v0,64(s1)
801023d4:	00140200 	sll	v0,v0,0x10
801023d8:	03140200 	sra	v0,v0,0x10
801023dc:	05004314 	bne	v0,v1,0x801023f4
801023e0:	03000224 	li	v0,3
801023e4:	040022a2 	sb	v0,4(s1)
801023e8:	801f023c 	lui	v0,0x1f80
801023ec:	79b8010c 	jal	0x8006e1e4
801023f0:	370140a0 	sb	zero,311(v0)
801023f4:	010020a2 	sb	zero,1(s1)
801023f8:	2800bf8f 	lw	ra,40(sp)
801023fc:	2400b18f 	lw	s1,36(sp)
80102400:	2000b08f 	lw	s0,32(sp)
80102404:	0800e003 	jr	ra
80102408:	3000bd27 	addiu	sp,sp,48
8010240c:	d0ffbd27 	addiu	sp,sp,-48
80102410:	2800bfaf 	sw	ra,40(sp)
80102414:	2400b3af 	sw	s3,36(sp)
80102418:	2000b2af 	sw	s2,32(sp)
8010241c:	1c00b1af 	sw	s1,28(sp)
80102420:	0a008014 	bnez	a0,0x8010244c
80102424:	1800b0af 	sw	s0,24(sp)
80102428:	21880000 	move	s1,zero
8010242c:	1180023c 	lui	v0,0x8011
80102430:	08e64324 	addiu	v1,v0,-6648
80102434:	21102302 	addu	v0,s1,v1
80102438:	01003126 	addiu	s1,s1,1
8010243c:	fdff201a 	blez	s1,0x80102434
80102440:	000040a0 	sb	zero,0(v0)
80102444:	2b2d0408 	j	0x8010b4ac
80102448:	00000000 	nop
8010244c:	1180023c 	lui	v0,0x8011
80102450:	60e25024 	addiu	s0,v0,-7584
80102454:	21880000 	move	s1,zero
80102458:	1180023c 	lui	v0,0x8011
8010245c:	08e65324 	addiu	s3,v0,-6648
80102460:	0a001226 	addiu	s2,s0,10
80102464:	21383302 	addu	a3,s1,s3
80102468:	0000e290 	lbu	v0,0(a3)
8010246c:	00000000 	nop
80102470:	ffff4224 	addiu	v0,v0,-1
80102474:	0000e2a0 	sb	v0,0(a3)
80102478:	00160200 	sll	v0,v0,0x18
8010247c:	2000401c 	bgtz	v0,0x80102500
80102480:	ff000224 	li	v0,255
80102484:	0000048e 	lw	a0,0(s0)
80102488:	00000000 	nop
8010248c:	00008390 	lbu	v1,0(a0)
80102490:	00000000 	nop
80102494:	05006214 	bne	v1,v0,0x801024ac
80102498:	00000000 	nop
8010249c:	01008290 	lbu	v0,1(a0)
801024a0:	00000000 	nop
801024a4:	23108200 	subu	v0,a0,v0
801024a8:	000002ae 	sw	v0,0(s0)
801024ac:	1000a427 	addiu	a0,sp,16
801024b0:	0000028e 	lw	v0,0(s0)
801024b4:	faff468e 	lw	a2,-6(s2)
801024b8:	00004590 	lbu	a1,0(v0)
801024bc:	01004390 	lbu	v1,1(v0)
801024c0:	40290500 	sll	a1,a1,0x5
801024c4:	0000e3a0 	sb	v1,0(a3)
801024c8:	feff4296 	lhu	v0,-2(s2)
801024cc:	2128c500 	addu	a1,a2,a1
801024d0:	1000a2a7 	sh	v0,16(sp)
801024d4:	00004396 	lhu	v1,0(s2)
801024d8:	10000224 	li	v0,16
801024dc:	1400a2a7 	sh	v0,20(sp)
801024e0:	01000224 	li	v0,1
801024e4:	1600a2a7 	sh	v0,22(sp)
801024e8:	8604020c 	jal	0x80081218
801024ec:	1200a3a7 	sh	v1,18(sp)
801024f0:	0000028e 	lw	v0,0(s0)
801024f4:	00000000 	nop
801024f8:	02004224 	addiu	v0,v0,2
801024fc:	000002ae 	sw	v0,0(s0)
80102500:	01003126 	addiu	s1,s1,1
80102504:	0c005226 	addiu	s2,s2,12
80102508:	d6ff201a 	blez	s1,0x80102464
8010250c:	0c001026 	addiu	s0,s0,12
80102510:	2800bf8f 	lw	ra,40(sp)
80102514:	2400b38f 	lw	s3,36(sp)
80102518:	2000b28f 	lw	s2,32(sp)
8010251c:	1c00b18f 	lw	s1,28(sp)
80102520:	1800b08f 	lw	s0,24(sp)
80102524:	0800e003 	jr	ra
80102528:	3000bd27 	addiu	sp,sp,48
8010252c:	e0ffbd27 	addiu	sp,sp,-32
80102530:	1400b1af 	sw	s1,20(sp)
80102534:	21888000 	move	s1,a0
80102538:	0e80023c 	lui	v0,0x800e
8010253c:	1000b0af 	sw	s0,16(sp)
80102540:	1c00bfaf 	sw	ra,28(sp)
80102544:	1800b2af 	sw	s2,24(sp)
80102548:	06002392 	lbu	v1,6(s1)
8010254c:	01001224 	li	s2,1
80102550:	19007210 	beq	v1,s2,0x801025b8
80102554:	807e5024 	addiu	s0,v0,32384
80102558:	02006228 	slti	v0,v1,2
8010255c:	05004010 	beqz	v0,0x80102574
80102560:	02000224 	li	v0,2
80102564:	09006010 	beqz	v1,0x8010258c
80102568:	21100000 	move	v0,zero
8010256c:	932d0408 	j	0x8010b64c
80102570:	00000000 	nop
80102574:	32006210 	beq	v1,v0,0x80102640
80102578:	03000224 	li	v0,3
8010257c:	3b006210 	beq	v1,v0,0x8010266c
80102580:	21100000 	move	v0,zero
80102584:	932d0408 	j	0x8010b64c
80102588:	00000000 	nop
8010258c:	0c80023c 	lui	v0,0x800c
80102590:	0ff84290 	lbu	v0,-2033(v0)
80102594:	00000000 	nop
80102598:	45004014 	bnez	v0,0x801026b0
8010259c:	21100000 	move	v0,zero
801025a0:	801f033c 	lui	v1,0x1f80
801025a4:	02000224 	li	v0,2
801025a8:	060032a2 	sb	s2,6(s1)
801025ac:	070020a2 	sb	zero,7(s1)
801025b0:	922d0408 	j	0x8010b648
801025b4:	370162a0 	sb	v0,311(v1)
801025b8:	07002292 	lbu	v0,7(s1)
801025bc:	00000000 	nop
801025c0:	05004010 	beqz	v0,0x801025d8
801025c4:	21200002 	move	a0,s0
801025c8:	15005210 	beq	v0,s2,0x80102620
801025cc:	21100000 	move	v0,zero
801025d0:	932d0408 	j	0x8010b64c
801025d4:	00000000 	nop
801025d8:	0c80023c 	lui	v0,0x800c
801025dc:	0ef840a0 	sb	zero,-2034(v0)
801025e0:	04000224 	li	v0,4
801025e4:	040002a2 	sb	v0,4(s0)
801025e8:	3b000224 	li	v0,59
801025ec:	050002a2 	sb	v0,5(s0)
801025f0:	060000a2 	sb	zero,6(s0)
801025f4:	6650010c 	jal	0x80054198
801025f8:	070000a2 	sb	zero,7(s0)
801025fc:	21200002 	move	a0,s0
80102600:	02000524 	li	a1,2
80102604:	4553010c 	jal	0x80054d14
80102608:	05000624 	li	a2,5
8010260c:	07002292 	lbu	v0,7(s1)
80102610:	00000000 	nop
80102614:	01004224 	addiu	v0,v0,1
80102618:	922d0408 	j	0x8010b648
8010261c:	070022a2 	sb	v0,7(s1)
80102620:	0c80023c 	lui	v0,0x800c
80102624:	0ef84290 	lbu	v0,-2034(v0)
80102628:	00000000 	nop
8010262c:	1f004010 	beqz	v0,0x801026ac
80102630:	02000224 	li	v0,2
80102634:	060022a2 	sb	v0,6(s1)
80102638:	922d0408 	j	0x8010b648
8010263c:	070020a2 	sb	zero,7(s1)
80102640:	01000424 	li	a0,1
80102644:	04000524 	li	a1,4
80102648:	d508010c 	jal	0x80042354
8010264c:	060022a2 	sb	v0,6(s1)
80102650:	21202002 	move	a0,s1
80102654:	21280000 	move	a1,zero
80102658:	1180063c 	lui	a2,0x8011
8010265c:	3703010c 	jal	0x80040cdc
80102660:	8ce2c624 	addiu	a2,a2,-7540
80102664:	922d0408 	j	0x8010b648
80102668:	700032a2 	sb	s2,112(s1)
8010266c:	2604010c 	jal	0x80041098
80102670:	21202002 	move	a0,s1
80102674:	70002392 	lbu	v1,112(s1)
80102678:	ff000224 	li	v0,255
8010267c:	0c006214 	bne	v1,v0,0x801026b0
80102680:	21100000 	move	v0,zero
80102684:	0c80103c 	lui	s0,0x800c
80102688:	70f81026 	addiu	s0,s0,-1936
8010268c:	c408010c 	jal	0x80042310
80102690:	030012a2 	sb	s2,3(s0)
80102694:	060020a2 	sb	zero,6(s1)
80102698:	6b010392 	lbu	v1,363(s0)
8010269c:	01000224 	li	v0,1
801026a0:	1e006334 	ori	v1,v1,0x1e
801026a4:	932d0408 	j	0x8010b64c
801026a8:	6b0103a2 	sb	v1,363(s0)
801026ac:	21100000 	move	v0,zero
801026b0:	1c00bf8f 	lw	ra,28(sp)
801026b4:	1800b28f 	lw	s2,24(sp)
801026b8:	1400b18f 	lw	s1,20(sp)
801026bc:	1000b08f 	lw	s0,16(sp)
801026c0:	0800e003 	jr	ra
801026c4:	2000bd27 	addiu	sp,sp,32
801026c8:	d0ffbd27 	addiu	sp,sp,-48
801026cc:	2000b0af 	sw	s0,32(sp)
801026d0:	21808000 	move	s0,a0
801026d4:	2800bfaf 	sw	ra,40(sp)
801026d8:	2400b1af 	sw	s1,36(sp)
801026dc:	04000392 	lbu	v1,4(s0)
801026e0:	00000000 	nop
801026e4:	0500622c 	sltiu	v0,v1,5
801026e8:	86004010 	beqz	v0,0x80102904
801026ec:	1180023c 	lui	v0,0x8011
801026f0:	48904224 	addiu	v0,v0,-28600
801026f4:	80180300 	sll	v1,v1,0x2
801026f8:	21186200 	addu	v1,v1,v0
801026fc:	0000628c 	lw	v0,0(v1)
80102700:	00000000 	nop
80102704:	08004000 	jr	v0
80102708:	00000000 	nop
8010270c:	05000392 	lbu	v1,5(s0)
80102710:	01001124 	li	s1,1
80102714:	1a007110 	beq	v1,s1,0x80102780
80102718:	02006228 	slti	v0,v1,2
8010271c:	05004010 	beqz	v0,0x80102734
80102720:	00000000 	nop
80102724:	08006010 	beqz	v1,0x80102748
80102728:	00000000 	nop
8010272c:	282e0408 	j	0x8010b8a0
80102730:	00000000 	nop
80102734:	02000224 	li	v0,2
80102738:	17006210 	beq	v1,v0,0x80102798
8010273c:	0c80023c 	lui	v0,0x800c
80102740:	282e0408 	j	0x8010b8a0
80102744:	00000000 	nop
80102748:	ea2c040c 	jal	0x8010b3a8
8010274c:	21200000 	move	a0,zero
80102750:	f0000224 	li	v0,240
80102754:	bf0002a2 	sb	v0,191(s0)
80102758:	1c000224 	li	v0,28
8010275c:	7e0002a6 	sh	v0,126(s0)
80102760:	00040224 	li	v0,1024
80102764:	7c0002a6 	sh	v0,124(s0)
80102768:	05000292 	lbu	v0,5(s0)
8010276c:	63000324 	li	v1,99
80102770:	000011a2 	sb	s1,0(s0)
80102774:	7a0003a6 	sh	v1,122(s0)
80102778:	01004224 	addiu	v0,v0,1
8010277c:	050002a2 	sb	v0,5(s0)
80102780:	21200002 	move	a0,s0
80102784:	1180053c 	lui	a1,0x8011
80102788:	7e2a040c 	jal	0x8010a9f8
8010278c:	6ce2a524 	addiu	a1,a1,-7572
80102790:	282e0408 	j	0x8010b8a0
80102794:	00000000 	nop
80102798:	70f84324 	addiu	v1,v0,-1936
8010279c:	d1016290 	lbu	v0,465(v1)
801027a0:	00000000 	nop
801027a4:	17004014 	bnez	v0,0x80102804
801027a8:	04000224 	li	v0,4
801027ac:	040002a2 	sb	v0,4(s0)
801027b0:	c400028e 	lw	v0,196(s0)
801027b4:	00080324 	li	v1,2048
801027b8:	050000a2 	sb	zero,5(s0)
801027bc:	0a0043a4 	sh	v1,10(v0)
801027c0:	c800028e 	lw	v0,200(s0)
801027c4:	00000000 	nop
801027c8:	0a0043a4 	sh	v1,10(v0)
801027cc:	2e000296 	lhu	v0,46(s0)
801027d0:	030a0424 	li	a0,2563
801027d4:	1200a2a7 	sh	v0,18(sp)
801027d8:	32000296 	lhu	v0,50(s0)
801027dc:	1000a527 	addiu	a1,sp,16
801027e0:	1600a2a7 	sh	v0,22(sp)
801027e4:	36000296 	lhu	v0,54(s0)
801027e8:	c4ff0624 	li	a2,-60
801027ec:	e0fc4224 	addiu	v0,v0,-800
801027f0:	5bc4000c 	jal	0x8003116c
801027f4:	1a00a2a7 	sh	v0,26(sp)
801027f8:	0c80033c 	lui	v1,0x800c
801027fc:	f82d0408 	j	0x8010b7e0
80102800:	60f862ac 	sw	v0,-1952(v1)
80102804:	cd016290 	lbu	v0,461(v1)
80102808:	1f000324 	li	v1,31
8010280c:	1f004230 	andi	v0,v0,0x1f
80102810:	09004314 	bne	v0,v1,0x80102838
80102814:	00080324 	li	v1,2048
80102818:	c400028e 	lw	v0,196(s0)
8010281c:	040011a2 	sb	s1,4(s0)
80102820:	050000a2 	sb	zero,5(s0)
80102824:	5e0011a2 	sb	s1,94(s0)
80102828:	0a0043a4 	sh	v1,10(v0)
8010282c:	c800028e 	lw	v0,200(s0)
80102830:	f82d0408 	j	0x8010b7e0
80102834:	0a0043a4 	sh	v1,10(v0)
80102838:	040011a2 	sb	s1,4(s0)
8010283c:	050000a2 	sb	zero,5(s0)
80102840:	5e0000a2 	sb	zero,94(s0)
80102844:	282e0408 	j	0x8010b8a0
80102848:	060000a2 	sb	zero,6(s0)
8010284c:	5e000392 	lbu	v1,94(s0)
80102850:	01000424 	li	a0,1
80102854:	0c006410 	beq	v1,a0,0x80102888
80102858:	02006228 	slti	v0,v1,2
8010285c:	0c004010 	beqz	v0,0x80102890
80102860:	00000000 	nop
80102864:	0a006014 	bnez	v1,0x80102890
80102868:	00000000 	nop
8010286c:	05000292 	lbu	v0,5(s0)
80102870:	00000000 	nop
80102874:	06004014 	bnez	v0,0x80102890
80102878:	1f000224 	li	v0,31
8010287c:	050004a2 	sb	a0,5(s0)
80102880:	0b2e0408 	j	0x8010b82c
80102884:	020002a2 	sb	v0,2(s0)
80102888:	672b040c 	jal	0x8010ad9c
8010288c:	21200002 	move	a0,s0
80102890:	ea2c040c 	jal	0x8010b3a8
80102894:	01000424 	li	a0,1
80102898:	21200002 	move	a0,s0
8010289c:	01000224 	li	v0,1
801028a0:	afdf010c 	jal	0x80077ebc
801028a4:	010002a2 	sb	v0,1(s0)
801028a8:	1146010c 	jal	0x80051844
801028ac:	21200002 	move	a0,s0
801028b0:	282e0408 	j	0x8010b8a0
801028b4:	290000a2 	sb	zero,41(s0)
801028b8:	89e9010c 	jal	0x8007a624
801028bc:	21200002 	move	a0,s0
801028c0:	282e0408 	j	0x8010b8a0
801028c4:	00000000 	nop
801028c8:	322d040c 	jal	0x8010b4c8
801028cc:	21200002 	move	a0,s0
801028d0:	04004010 	beqz	v0,0x801028e4
801028d4:	01000224 	li	v0,1
801028d8:	040002a2 	sb	v0,4(s0)
801028dc:	050000a2 	sb	zero,5(s0)
801028e0:	060000a2 	sb	zero,6(s0)
801028e4:	ea2c040c 	jal	0x8010b3a8
801028e8:	01000424 	li	a0,1
801028ec:	01000224 	li	v0,1
801028f0:	010002a2 	sb	v0,1(s0)
801028f4:	afdf010c 	jal	0x80077ebc
801028f8:	21200002 	move	a0,s0
801028fc:	1146010c 	jal	0x80051844
80102900:	21200002 	move	a0,s0
80102904:	2800bf8f 	lw	ra,40(sp)
80102908:	2400b18f 	lw	s1,36(sp)
8010290c:	2000b08f 	lw	s0,32(sp)
80102910:	0800e003 	jr	ra
80102914:	3000bd27 	addiu	sp,sp,48
80102918:	e8ffbd27 	addiu	sp,sp,-24
8010291c:	1000b0af 	sw	s0,16(sp)
80102920:	21808000 	move	s0,a0
80102924:	1400bfaf 	sw	ra,20(sp)
80102928:	78000392 	lbu	v1,120(s0)
8010292c:	00000000 	nop
80102930:	05006010 	beqz	v1,0x80102948
80102934:	01000224 	li	v0,1
80102938:	1d006210 	beq	v1,v0,0x801029b0
8010293c:	21100000 	move	v0,zero
80102940:	592e0408 	j	0x8010b964
80102944:	00000000 	nop
80102948:	21204000 	move	a0,v0
8010294c:	70b8010c 	jal	0x8006e1c0
80102950:	780002a2 	sb	v0,120(s0)
80102954:	0f80033c 	lui	v1,0x800f
80102958:	08806324 	addiu	v1,v1,-32760
8010295c:	80000224 	li	v0,128
80102960:	6e0062a4 	sh	v0,110(v1)
80102964:	1080023c 	lui	v0,0x8010
80102968:	f8034484 	lh	a0,1016(v0)
8010296c:	00040224 	li	v0,1024
80102970:	700062a4 	sh	v0,112(v1)
80102974:	80100400 	sll	v0,a0,0x2
80102978:	21104400 	addu	v0,v0,a0
8010297c:	6c0062a4 	sh	v0,108(v1)
80102980:	2e000296 	lhu	v0,46(s0)
80102984:	00000000 	nop
80102988:	3a0062a4 	sh	v0,58(v1)
8010298c:	32000296 	lhu	v0,50(s0)
80102990:	00000000 	nop
80102994:	40014224 	addiu	v0,v0,320
80102998:	3e0062a4 	sh	v0,62(v1)
8010299c:	36000296 	lhu	v0,54(s0)
801029a0:	00000000 	nop
801029a4:	70fe4224 	addiu	v0,v0,-400
801029a8:	582e0408 	j	0x8010b960
801029ac:	420062a4 	sh	v0,66(v1)
801029b0:	0f80033c 	lui	v1,0x800f
801029b4:	6e806490 	lbu	a0,-32658(v1)
801029b8:	03000324 	li	v1,3
801029bc:	02008310 	beq	a0,v1,0x801029c8
801029c0:	01000224 	li	v0,1
801029c4:	21100000 	move	v0,zero
801029c8:	1400bf8f 	lw	ra,20(sp)
801029cc:	1000b08f 	lw	s0,16(sp)
801029d0:	0800e003 	jr	ra
801029d4:	1800bd27 	addiu	sp,sp,24
801029d8:	e8ffbd27 	addiu	sp,sp,-24
801029dc:	0f80033c 	lui	v1,0x800f
801029e0:	08806324 	addiu	v1,v1,-32760
801029e4:	02000224 	li	v0,2
801029e8:	1000bfaf 	sw	ra,16(sp)
801029ec:	640062a0 	sb	v0,100(v1)
801029f0:	80000224 	li	v0,128
801029f4:	6e0062a4 	sh	v0,110(v1)
801029f8:	1080023c 	lui	v0,0x8010
801029fc:	f8034484 	lh	a0,1016(v0)
80102a00:	00040224 	li	v0,1024
80102a04:	700062a4 	sh	v0,112(v1)
80102a08:	80100400 	sll	v0,a0,0x2
80102a0c:	21104400 	addu	v0,v0,a0
80102a10:	0e80043c 	lui	a0,0x800e
80102a14:	ac7e8424 	addiu	a0,a0,32428
80102a18:	eab2010c 	jal	0x8006cba8
80102a1c:	6c0062a4 	sh	v0,108(v1)
80102a20:	1000bf8f 	lw	ra,16(sp)
80102a24:	01000224 	li	v0,1
80102a28:	0800e003 	jr	ra
80102a2c:	1800bd27 	addiu	sp,sp,24
80102a30:	e8ffbd27 	addiu	sp,sp,-24
80102a34:	0f80033c 	lui	v1,0x800f
80102a38:	08806324 	addiu	v1,v1,-32760
80102a3c:	01000224 	li	v0,1
80102a40:	1000bfaf 	sw	ra,16(sp)
80102a44:	640062a0 	sb	v0,100(v1)
80102a48:	80000224 	li	v0,128
80102a4c:	6e0062a4 	sh	v0,110(v1)
80102a50:	1080023c 	lui	v0,0x8010
80102a54:	f8034484 	lh	a0,1016(v0)
80102a58:	00040224 	li	v0,1024
80102a5c:	700062a4 	sh	v0,112(v1)
80102a60:	c0100400 	sll	v0,a0,0x3
80102a64:	23104400 	subu	v0,v0,a0
80102a68:	0e80043c 	lui	a0,0x800e
80102a6c:	ac7e8424 	addiu	a0,a0,32428
80102a70:	eab2010c 	jal	0x8006cba8
80102a74:	6c0062a4 	sh	v0,108(v1)
80102a78:	1000bf8f 	lw	ra,16(sp)
80102a7c:	01000224 	li	v0,1
80102a80:	0800e003 	jr	ra
80102a84:	1800bd27 	addiu	sp,sp,24
80102a88:	e0ffbd27 	addiu	sp,sp,-32
80102a8c:	1000b0af 	sw	s0,16(sp)
80102a90:	21808000 	move	s0,a0
80102a94:	0c80023c 	lui	v0,0x800c
80102a98:	1400b1af 	sw	s1,20(sp)
80102a9c:	08f85124 	addiu	s1,v0,-2040
80102aa0:	01000524 	li	a1,1
80102aa4:	1800bfaf 	sw	ra,24(sp)
80102aa8:	78000392 	lbu	v1,120(s0)
80102aac:	5800248e 	lw	a0,88(s1)
80102ab0:	0f006510 	beq	v1,a1,0x80102af0
80102ab4:	02006228 	slti	v0,v1,2
80102ab8:	05004010 	beqz	v0,0x80102ad0
80102abc:	02000224 	li	v0,2
80102ac0:	07006010 	beqz	v1,0x80102ae0
80102ac4:	21100000 	move	v0,zero
80102ac8:	c32e0408 	j	0x8010bb0c
80102acc:	00000000 	nop
80102ad0:	1e006210 	beq	v1,v0,0x80102b4c
80102ad4:	21100000 	move	v0,zero
80102ad8:	c32e0408 	j	0x8010bb0c
80102adc:	00000000 	nop
80102ae0:	0a000224 	li	v0,10
80102ae4:	780005a2 	sb	a1,120(s0)
80102ae8:	c22e0408 	j	0x8010bb08
80102aec:	400002a6 	sh	v0,64(s0)
80102af0:	40000296 	lhu	v0,64(s0)
80102af4:	ffff0324 	li	v1,-1
80102af8:	ffff4224 	addiu	v0,v0,-1
80102afc:	400002a6 	sh	v0,64(s0)
80102b00:	00140200 	sll	v0,v0,0x10
80102b04:	03140200 	sra	v0,v0,0x10
80102b08:	0b004314 	bne	v0,v1,0x80102b38
80102b0c:	2c000526 	addiu	a1,s0,44
80102b10:	000a0424 	li	a0,2560
80102b14:	78000292 	lbu	v0,120(s0)
80102b18:	21300000 	move	a2,zero
80102b1c:	01004224 	addiu	v0,v0,1
80102b20:	5bc4000c 	jal	0x8003116c
80102b24:	780002a2 	sb	v0,120(s0)
80102b28:	5c0022ae 	sw	v0,92(s1)
80102b2c:	1e000224 	li	v0,30
80102b30:	c22e0408 	j	0x8010bb08
80102b34:	400002a6 	sh	v0,64(s0)
80102b38:	30008294 	lhu	v0,48(a0)
80102b3c:	00000000 	nop
80102b40:	10004224 	addiu	v0,v0,16
80102b44:	c22e0408 	j	0x8010bb08
80102b48:	300082a4 	sh	v0,48(a0)
80102b4c:	40000396 	lhu	v1,64(s0)
80102b50:	ffff0424 	li	a0,-1
80102b54:	ffff6324 	addiu	v1,v1,-1
80102b58:	400003a6 	sh	v1,64(s0)
80102b5c:	001c0300 	sll	v1,v1,0x10
80102b60:	031c0300 	sra	v1,v1,0x10
80102b64:	02006410 	beq	v1,a0,0x80102b70
80102b68:	01000224 	li	v0,1
80102b6c:	21100000 	move	v0,zero
80102b70:	1800bf8f 	lw	ra,24(sp)
80102b74:	1400b18f 	lw	s1,20(sp)
80102b78:	1000b08f 	lw	s0,16(sp)
80102b7c:	0800e003 	jr	ra
80102b80:	2000bd27 	addiu	sp,sp,32
80102b84:	e0ffbd27 	addiu	sp,sp,-32
80102b88:	1400b1af 	sw	s1,20(sp)
80102b8c:	21888000 	move	s1,a0
80102b90:	1800bfaf 	sw	ra,24(sp)
80102b94:	1000b0af 	sw	s0,16(sp)
80102b98:	78002392 	lbu	v1,120(s1)
80102b9c:	00000000 	nop
80102ba0:	05006010 	beqz	v1,0x80102bb8
80102ba4:	01000224 	li	v0,1
80102ba8:	17006210 	beq	v1,v0,0x80102c08
80102bac:	21100000 	move	v0,zero
80102bb0:	fa2e0408 	j	0x8010bbe8
80102bb4:	00000000 	nop
80102bb8:	010a0424 	li	a0,2561
80102bbc:	2c002526 	addiu	a1,s1,44
80102bc0:	21300000 	move	a2,zero
80102bc4:	0f80033c 	lui	v1,0x800f
80102bc8:	0c80103c 	lui	s0,0x800c
80102bcc:	08f81026 	addiu	s0,s0,-2040
80102bd0:	780022a2 	sb	v0,120(s1)
80102bd4:	7e8062a0 	sb	v0,-32642(v1)
80102bd8:	5c00038e 	lw	v1,92(s0)
80102bdc:	03000224 	li	v0,3
80102be0:	5bc4000c 	jal	0x8003116c
80102be4:	040062a0 	sb	v0,4(v1)
80102be8:	37000424 	li	a0,55
80102bec:	ecff0524 	li	a1,-20
80102bf0:	21300000 	move	a2,zero
80102bf4:	64d1010c 	jal	0x80074590
80102bf8:	5c0002ae 	sw	v0,92(s0)
80102bfc:	5a000224 	li	v0,90
80102c00:	f92e0408 	j	0x8010bbe4
80102c04:	400022a6 	sh	v0,64(s1)
80102c08:	40002296 	lhu	v0,64(s1)
80102c0c:	ffff0324 	li	v1,-1
80102c10:	ffff4224 	addiu	v0,v0,-1
80102c14:	400022a6 	sh	v0,64(s1)
80102c18:	00140200 	sll	v0,v0,0x10
80102c1c:	03140200 	sra	v0,v0,0x10
80102c20:	0a004314 	bne	v0,v1,0x80102c4c
80102c24:	21100000 	move	v0,zero
80102c28:	01000224 	li	v0,1
80102c2c:	0f80033c 	lui	v1,0x800f
80102c30:	7e8060a0 	sb	zero,-32642(v1)
80102c34:	0c80033c 	lui	v1,0x800c
80102c38:	64f8648c 	lw	a0,-1948(v1)
80102c3c:	03000324 	li	v1,3
80102c40:	fa2e0408 	j	0x8010bbe8
80102c44:	040083a0 	sb	v1,4(a0)
80102c48:	21100000 	move	v0,zero
80102c4c:	1800bf8f 	lw	ra,24(sp)
80102c50:	1400b18f 	lw	s1,20(sp)
80102c54:	1000b08f 	lw	s0,16(sp)
80102c58:	0800e003 	jr	ra
80102c5c:	2000bd27 	addiu	sp,sp,32
80102c60:	e8ffbd27 	addiu	sp,sp,-24
80102c64:	0c80023c 	lui	v0,0x800c
80102c68:	1400bfaf 	sw	ra,20(sp)
80102c6c:	1000b0af 	sw	s0,16(sp)
80102c70:	78008390 	lbu	v1,120(a0)
80102c74:	60f8508c 	lw	s0,-1952(v0)
80102c78:	05006010 	beqz	v1,0x80102c90
80102c7c:	01000224 	li	v0,1
80102c80:	12006210 	beq	v1,v0,0x80102ccc
80102c84:	21100000 	move	v0,zero
80102c88:	232f0408 	j	0x8010bc8c
80102c8c:	00000000 	nop
80102c90:	30000386 	lh	v1,48(s0)
80102c94:	36008284 	lh	v0,54(a0)
80102c98:	00000000 	nop
80102c9c:	2a104300 	slt	v0,v0,v1
80102ca0:	0e004010 	beqz	v0,0x80102cdc
80102ca4:	01000224 	li	v0,1
80102ca8:	780082a0 	sb	v0,120(a0)
80102cac:	02000224 	li	v0,2
80102cb0:	37000424 	li	a0,55
80102cb4:	16000524 	li	a1,22
80102cb8:	21300000 	move	a2,zero
80102cbc:	64d1010c 	jal	0x80074590
80102cc0:	040002a2 	sb	v0,4(s0)
80102cc4:	1e2f0408 	j	0x8010bc78
80102cc8:	00000000 	nop
80102ccc:	04000392 	lbu	v1,4(s0)
80102cd0:	03000224 	li	v0,3
80102cd4:	06006210 	beq	v1,v0,0x80102cf0
80102cd8:	01000224 	li	v0,1
80102cdc:	30000296 	lhu	v0,48(s0)
80102ce0:	00000000 	nop
80102ce4:	20004224 	addiu	v0,v0,32
80102ce8:	300002a6 	sh	v0,48(s0)
80102cec:	21100000 	move	v0,zero
80102cf0:	1400bf8f 	lw	ra,20(sp)
80102cf4:	1000b08f 	lw	s0,16(sp)
80102cf8:	0800e003 	jr	ra
80102cfc:	1800bd27 	addiu	sp,sp,24
80102d00:	e8ffbd27 	addiu	sp,sp,-24
80102d04:	1000bfaf 	sw	ra,16(sp)
80102d08:	c400858c 	lw	a1,196(a0)
80102d0c:	00000000 	nop
80102d10:	0a00a284 	lh	v0,10(a1)
80102d14:	0a00a394 	lhu	v1,10(a1)
80102d18:	09004010 	beqz	v0,0x80102d40
80102d1c:	c0ff6224 	addiu	v0,v1,-64
80102d20:	0a00a2a4 	sh	v0,10(a1)
80102d24:	c800848c 	lw	a0,200(a0)
80102d28:	00000000 	nop
80102d2c:	0a008394 	lhu	v1,10(a0)
80102d30:	21100000 	move	v0,zero
80102d34:	40006324 	addiu	v1,v1,64
80102d38:	3c2f0408 	j	0x8010bcf0
80102d3c:	0a0083a4 	sh	v1,10(a0)
80102d40:	18000424 	li	a0,24
80102d44:	f4ff0524 	li	a1,-12
80102d48:	64d1010c 	jal	0x80074590
80102d4c:	21300000 	move	a2,zero
80102d50:	01000224 	li	v0,1
80102d54:	1000bf8f 	lw	ra,16(sp)
80102d58:	00000000 	nop
80102d5c:	0800e003 	jr	ra
80102d60:	1800bd27 	addiu	sp,sp,24
80102d64:	e8ffbd27 	addiu	sp,sp,-24
80102d68:	21288000 	move	a1,a0
80102d6c:	1000bfaf 	sw	ra,16(sp)
80102d70:	0600a390 	lbu	v1,6(a1)
80102d74:	01000624 	li	a2,1
80102d78:	1a006610 	beq	v1,a2,0x80102de4
80102d7c:	02006228 	slti	v0,v1,2
80102d80:	05004010 	beqz	v0,0x80102d98
80102d84:	02000224 	li	v0,2
80102d88:	07006010 	beqz	v1,0x80102da8
80102d8c:	21100000 	move	v0,zero
80102d90:	842f0408 	j	0x8010be10
80102d94:	00000000 	nop
80102d98:	30006210 	beq	v1,v0,0x80102e5c
80102d9c:	00000000 	nop
80102da0:	842f0408 	j	0x8010be10
80102da4:	21100000 	move	v0,zero
80102da8:	0c80043c 	lui	a0,0x800c
80102dac:	1180033c 	lui	v1,0x8011
80102db0:	0300a290 	lbu	v0,3(a1)
80102db4:	98e36324 	addiu	v1,v1,-7272
80102db8:	40100200 	sll	v0,v0,0x1
80102dbc:	21104300 	addu	v0,v0,v1
80102dc0:	00004284 	lh	v0,0(v0)
80102dc4:	70f88424 	addiu	a0,a0,-1936
80102dc8:	21104400 	addu	v0,v0,a0
80102dcc:	44004290 	lbu	v0,68(v0)
80102dd0:	00000000 	nop
80102dd4:	27004014 	bnez	v0,0x80102e74
80102dd8:	01000224 	li	v0,1
80102ddc:	832f0408 	j	0x8010be0c
80102de0:	0600a6a0 	sb	a2,6(a1)
80102de4:	2b00a390 	lbu	v1,43(a1)
80102de8:	03000224 	li	v0,3
80102dec:	0d006214 	bne	v1,v0,0x80102e24
80102df0:	0c80043c 	lui	a0,0x800c
80102df4:	02000224 	li	v0,2
80102df8:	1180033c 	lui	v1,0x8011
80102dfc:	0600a2a0 	sb	v0,6(a1)
80102e00:	0300a290 	lbu	v0,3(a1)
80102e04:	98e36324 	addiu	v1,v1,-7272
80102e08:	40100200 	sll	v0,v0,0x1
80102e0c:	21104300 	addu	v0,v0,v1
80102e10:	00004484 	lh	a0,0(v0)
80102e14:	d202010c 	jal	0x80040b48
80102e18:	00000000 	nop
80102e1c:	842f0408 	j	0x8010be10
80102e20:	21100000 	move	v0,zero
80102e24:	1180033c 	lui	v1,0x8011
80102e28:	0300a290 	lbu	v0,3(a1)
80102e2c:	98e36324 	addiu	v1,v1,-7272
80102e30:	40100200 	sll	v0,v0,0x1
80102e34:	21104300 	addu	v0,v0,v1
80102e38:	00004284 	lh	v0,0(v0)
80102e3c:	70f88424 	addiu	a0,a0,-1936
80102e40:	21104400 	addu	v0,v0,a0
80102e44:	44004290 	lbu	v0,68(v0)
80102e48:	00000000 	nop
80102e4c:	08004010 	beqz	v0,0x80102e70
80102e50:	01000224 	li	v0,1
80102e54:	842f0408 	j	0x8010be10
80102e58:	00000000 	nop
80102e5c:	ca09010c 	jal	0x80042728
80102e60:	00000000 	nop
80102e64:	21184000 	move	v1,v0
80102e68:	02006014 	bnez	v1,0x80102e74
80102e6c:	01000224 	li	v0,1
80102e70:	21100000 	move	v0,zero
80102e74:	1000bf8f 	lw	ra,16(sp)
80102e78:	00000000 	nop
80102e7c:	0800e003 	jr	ra
80102e80:	1800bd27 	addiu	sp,sp,24
80102e84:	d8ffbd27 	addiu	sp,sp,-40
80102e88:	2000b0af 	sw	s0,32(sp)
80102e8c:	21808000 	move	s0,a0
80102e90:	2400bfaf 	sw	ra,36(sp)
80102e94:	07000392 	lbu	v1,7(s0)
80102e98:	01000524 	li	a1,1
80102e9c:	31006510 	beq	v1,a1,0x80102f64
80102ea0:	02006228 	slti	v0,v1,2
80102ea4:	05004010 	beqz	v0,0x80102ebc
80102ea8:	00000000 	nop
80102eac:	08006010 	beqz	v1,0x80102ed0
80102eb0:	0c80023c 	lui	v0,0x800c
80102eb4:	03300408 	j	0x8010c00c
80102eb8:	00000000 	nop
80102ebc:	02000224 	li	v0,2
80102ec0:	5f006210 	beq	v1,v0,0x80103040
80102ec4:	ffff0324 	li	v1,-1
80102ec8:	03300408 	j	0x8010c00c
80102ecc:	00000000 	nop
80102ed0:	40fa4390 	lbu	v1,-1472(v0)
80102ed4:	02000224 	li	v0,2
80102ed8:	65006214 	bne	v1,v0,0x80103070
80102edc:	21204000 	move	a0,v0
80102ee0:	08000224 	li	v0,8
80102ee4:	070005a2 	sb	a1,7(s0)
80102ee8:	70b8010c 	jal	0x8006e1c0
80102eec:	400002a6 	sh	v0,64(s0)
80102ef0:	0f80073c 	lui	a3,0x800f
80102ef4:	0880e724 	addiu	a3,a3,-32760
80102ef8:	c0000224 	li	v0,192
80102efc:	6e00e2a4 	sh	v0,110(a3)
80102f00:	1080023c 	lui	v0,0x8010
80102f04:	f8034284 	lh	v0,1016(v0)
80102f08:	00030324 	li	v1,768
80102f0c:	7000e3a4 	sh	v1,112(a3)
80102f10:	80100200 	sll	v0,v0,0x2
80102f14:	6c00e2a4 	sh	v0,108(a3)
80102f18:	2e000296 	lhu	v0,46(s0)
80102f1c:	2d000424 	li	a0,45
80102f20:	3a00e2a4 	sh	v0,58(a3)
80102f24:	84000296 	lhu	v0,132(s0)
80102f28:	efff0524 	li	a1,-17
80102f2c:	00140200 	sll	v0,v0,0x10
80102f30:	031c0200 	sra	v1,v0,0x10
80102f34:	c2170200 	srl	v0,v0,0x1f
80102f38:	21186200 	addu	v1,v1,v0
80102f3c:	32000296 	lhu	v0,50(s0)
80102f40:	43180300 	sra	v1,v1,0x1
80102f44:	23104300 	subu	v0,v0,v1
80102f48:	3e00e2a4 	sh	v0,62(a3)
80102f4c:	36000296 	lhu	v0,54(s0)
80102f50:	14000624 	li	a2,20
80102f54:	64d1010c 	jal	0x80074590
80102f58:	4200e2a4 	sh	v0,66(a3)
80102f5c:	03300408 	j	0x8010c00c
80102f60:	00000000 	nop
80102f64:	40000296 	lhu	v0,64(s0)
80102f68:	ffff0324 	li	v1,-1
80102f6c:	ffff4224 	addiu	v0,v0,-1
80102f70:	400002a6 	sh	v0,64(s0)
80102f74:	00140200 	sll	v0,v0,0x10
80102f78:	03140200 	sra	v0,v0,0x10
80102f7c:	3c004314 	bne	v0,v1,0x80103070
80102f80:	37000424 	li	a0,55
80102f84:	3c000224 	li	v0,60
80102f88:	400002a6 	sh	v0,64(s0)
80102f8c:	07000292 	lbu	v0,7(s0)
80102f90:	2e000396 	lhu	v1,46(s0)
80102f94:	01004224 	addiu	v0,v0,1
80102f98:	070002a2 	sb	v0,7(s0)
80102f9c:	1200a3a7 	sh	v1,18(sp)
80102fa0:	84000296 	lhu	v0,132(s0)
80102fa4:	1000a527 	addiu	a1,sp,16
80102fa8:	00140200 	sll	v0,v0,0x10
80102fac:	031c0200 	sra	v1,v0,0x10
80102fb0:	c2170200 	srl	v0,v0,0x1f
80102fb4:	21186200 	addu	v1,v1,v0
80102fb8:	32000296 	lhu	v0,50(s0)
80102fbc:	43180300 	sra	v1,v1,0x1
80102fc0:	23104300 	subu	v0,v0,v1
80102fc4:	1600a2a7 	sh	v0,22(sp)
80102fc8:	36000296 	lhu	v0,54(s0)
80102fcc:	e0ff0624 	li	a2,-32
80102fd0:	5bc4000c 	jal	0x8003116c
80102fd4:	1a00a2a7 	sh	v0,26(sp)
80102fd8:	1000a527 	addiu	a1,sp,16
80102fdc:	c000028e 	lw	v0,192(s0)
80102fe0:	00030624 	li	a2,768
80102fe4:	4000448c 	lw	a0,64(v0)
80102fe8:	519c000c 	jal	0x80027144
80102fec:	08000724 	li	a3,8
80102ff0:	0c000424 	li	a0,12
80102ff4:	21280000 	move	a1,zero
80102ff8:	64d1010c 	jal	0x80074590
80102ffc:	2130a000 	move	a2,a1
80103000:	2c000526 	addiu	a1,s0,44
80103004:	c000028e 	lw	v0,192(s0)
80103008:	00030624 	li	a2,768
8010300c:	4000448c 	lw	a0,64(v0)
80103010:	519c000c 	jal	0x80027144
80103014:	08000724 	li	a3,8
80103018:	0c000424 	li	a0,12
8010301c:	21280000 	move	a1,zero
80103020:	64d1010c 	jal	0x80074590
80103024:	2130a000 	move	a2,a1
80103028:	1000048e 	lw	a0,16(s0)
8010302c:	00000000 	nop
80103030:	0f008010 	beqz	a0,0x80103070
80103034:	03000224 	li	v0,3
80103038:	03300408 	j	0x8010c00c
8010303c:	040082a0 	sb	v0,4(a0)
80103040:	40000296 	lhu	v0,64(s0)
80103044:	00000000 	nop
80103048:	ffff4224 	addiu	v0,v0,-1
8010304c:	400002a6 	sh	v0,64(s0)
80103050:	00140200 	sll	v0,v0,0x10
80103054:	03140200 	sra	v0,v0,0x10
80103058:	04004314 	bne	v0,v1,0x8010306c
8010305c:	03000324 	li	v1,3
80103060:	0c80023c 	lui	v0,0x800c
80103064:	040003a2 	sb	v1,4(s0)
80103068:	40fa43a0 	sb	v1,-1472(v0)
8010306c:	010000a2 	sb	zero,1(s0)
80103070:	2400bf8f 	lw	ra,36(sp)
80103074:	2000b08f 	lw	s0,32(sp)
80103078:	0800e003 	jr	ra
8010307c:	2800bd27 	addiu	sp,sp,40
80103080:	d8ffbd27 	addiu	sp,sp,-40
80103084:	2000b0af 	sw	s0,32(sp)
80103088:	21808000 	move	s0,a0
8010308c:	2400bfaf 	sw	ra,36(sp)
80103090:	06000392 	lbu	v1,6(s0)
80103094:	01000224 	li	v0,1
80103098:	38006210 	beq	v1,v0,0x8010317c
8010309c:	02006228 	slti	v0,v1,2
801030a0:	05004010 	beqz	v0,0x801030b8
801030a4:	02000224 	li	v0,2
801030a8:	07006010 	beqz	v1,0x801030c8
801030ac:	21100000 	move	v0,zero
801030b0:	b4300408 	j	0x8010c2d0
801030b4:	00000000 	nop
801030b8:	92006210 	beq	v1,v0,0x80103304
801030bc:	21100000 	move	v0,zero
801030c0:	b4300408 	j	0x8010c2d0
801030c4:	00000000 	nop
801030c8:	0c80043c 	lui	a0,0x800c
801030cc:	1180033c 	lui	v1,0x8011
801030d0:	03000292 	lbu	v0,3(s0)
801030d4:	a4e36324 	addiu	v1,v1,-7260
801030d8:	010000a2 	sb	zero,1(s0)
801030dc:	40100200 	sll	v0,v0,0x1
801030e0:	21104300 	addu	v0,v0,v1
801030e4:	41fa8390 	lbu	v1,-1471(a0)
801030e8:	00004284 	lh	v0,0(v0)
801030ec:	00000000 	nop
801030f0:	90006214 	bne	v1,v0,0x80103334
801030f4:	21100000 	move	v0,zero
801030f8:	06000392 	lbu	v1,6(s0)
801030fc:	ff000224 	li	v0,255
80103100:	1a0002a2 	sb	v0,26(s0)
80103104:	190002a2 	sb	v0,25(s0)
80103108:	180002a2 	sb	v0,24(s0)
8010310c:	0d000292 	lbu	v0,13(s0)
80103110:	32000496 	lhu	a0,50(s0)
80103114:	4a0000a6 	sh	zero,74(s0)
80103118:	01006324 	addiu	v1,v1,1
8010311c:	060003a2 	sb	v1,6(s0)
80103120:	21188000 	move	v1,a0
80103124:	02004234 	ori	v0,v0,0x2
80103128:	a8fd6324 	addiu	v1,v1,-600
8010312c:	600004a6 	sh	a0,96(s0)
80103130:	0f80043c 	lui	a0,0x800f
80103134:	0d0002a2 	sb	v0,13(s0)
80103138:	2e000296 	lhu	v0,46(s0)
8010313c:	08808424 	addiu	a0,a0,-32760
80103140:	320003a6 	sh	v1,50(s0)
80103144:	3a0082a4 	sh	v0,58(a0)
80103148:	84000296 	lhu	v0,132(s0)
8010314c:	00000000 	nop
80103150:	00140200 	sll	v0,v0,0x10
80103154:	031c0200 	sra	v1,v0,0x10
80103158:	c2170200 	srl	v0,v0,0x1f
8010315c:	21186200 	addu	v1,v1,v0
80103160:	60000296 	lhu	v0,96(s0)
80103164:	43180300 	sra	v1,v1,0x1
80103168:	23104300 	subu	v0,v0,v1
8010316c:	3e0082a4 	sh	v0,62(a0)
80103170:	36000296 	lhu	v0,54(s0)
80103174:	b3300408 	j	0x8010c2cc
80103178:	420082a4 	sh	v0,66(a0)
8010317c:	4a000286 	lh	v0,74(s0)
80103180:	4a000396 	lhu	v1,74(s0)
80103184:	00304228 	slti	v0,v0,12288
80103188:	02004010 	beqz	v0,0x80103194
8010318c:	00026224 	addiu	v0,v1,512
80103190:	4a0002a6 	sh	v0,74(s0)
80103194:	4a000286 	lh	v0,74(s0)
80103198:	3000038e 	lw	v1,48(s0)
8010319c:	00120200 	sll	v0,v0,0x8
801031a0:	21186200 	addu	v1,v1,v0
801031a4:	300003ae 	sw	v1,48(s0)
801031a8:	32000286 	lh	v0,50(s0)
801031ac:	60000386 	lh	v1,96(s0)
801031b0:	00000000 	nop
801031b4:	2a104300 	slt	v0,v0,v1
801031b8:	60000396 	lhu	v1,96(s0)
801031bc:	5d004014 	bnez	v0,0x80103334
801031c0:	21100000 	move	v0,zero
801031c4:	320003a6 	sh	v1,50(s0)
801031c8:	020a0424 	li	a0,2562
801031cc:	21280000 	move	a1,zero
801031d0:	88c4000c 	jal	0x80031220
801031d4:	2130a000 	move	a2,a1
801031d8:	21184000 	move	v1,v0
801031dc:	21006010 	beqz	v1,0x80103264
801031e0:	21200000 	move	a0,zero
801031e4:	03000292 	lbu	v0,3(s0)
801031e8:	00000000 	nop
801031ec:	01004224 	addiu	v0,v0,1
801031f0:	030062a0 	sb	v0,3(v1)
801031f4:	2e000296 	lhu	v0,46(s0)
801031f8:	00000000 	nop
801031fc:	2c0062a4 	sh	v0,44(v1)
80103200:	32000296 	lhu	v0,50(s0)
80103204:	00000000 	nop
80103208:	6aff4224 	addiu	v0,v0,-150
8010320c:	2e0062a4 	sh	v0,46(v1)
80103210:	36000296 	lhu	v0,54(s0)
80103214:	00000000 	nop
80103218:	300062a4 	sh	v0,48(v1)
8010321c:	03000292 	lbu	v0,3(s0)
80103220:	00000000 	nop
80103224:	07004014 	bnez	v0,0x80103244
80103228:	50006424 	addiu	a0,v1,80
8010322c:	80070224 	li	v0,1920
80103230:	500062a4 	sh	v0,80(v1)
80103234:	c8fc0224 	li	v0,-824
80103238:	020082a4 	sh	v0,2(a0)
8010323c:	7d300408 	j	0x8010c1f4
80103240:	00090224 	li	v0,2304
80103244:	000d0224 	li	v0,3328
80103248:	500062a4 	sh	v0,80(v1)
8010324c:	17fb0224 	li	v0,-1257
80103250:	020082a4 	sh	v0,2(a0)
80103254:	ed0c0224 	li	v0,3309
80103258:	040082a4 	sh	v0,4(a0)
8010325c:	100003ae 	sw	v1,16(s0)
80103260:	21200000 	move	a0,zero
80103264:	06000292 	lbu	v0,6(s0)
80103268:	08000324 	li	v1,8
8010326c:	400003a6 	sh	v1,64(s0)
80103270:	0f80033c 	lui	v1,0x800f
80103274:	01004224 	addiu	v0,v0,1
80103278:	060002a2 	sb	v0,6(s0)
8010327c:	04000224 	li	v0,4
80103280:	7e8062a0 	sb	v0,-32642(v1)
80103284:	0d000292 	lbu	v0,13(s0)
80103288:	2e000396 	lhu	v1,46(s0)
8010328c:	fd004230 	andi	v0,v0,0xfd
80103290:	0d0002a2 	sb	v0,13(s0)
80103294:	1200a3a7 	sh	v1,18(sp)
80103298:	32000296 	lhu	v0,50(s0)
8010329c:	1000a527 	addiu	a1,sp,16
801032a0:	1600a2a7 	sh	v0,22(sp)
801032a4:	36000296 	lhu	v0,54(s0)
801032a8:	c0ff0624 	li	a2,-64
801032ac:	5bc4000c 	jal	0x8003116c
801032b0:	1a00a2a7 	sh	v0,26(sp)
801032b4:	21200000 	move	a0,zero
801032b8:	1000a527 	addiu	a1,sp,16
801032bc:	2e000296 	lhu	v0,46(s0)
801032c0:	c0ff0624 	li	a2,-64
801032c4:	40004224 	addiu	v0,v0,64
801032c8:	5bc4000c 	jal	0x8003116c
801032cc:	1200a2a7 	sh	v0,18(sp)
801032d0:	21200000 	move	a0,zero
801032d4:	1000a527 	addiu	a1,sp,16
801032d8:	2e000296 	lhu	v0,46(s0)
801032dc:	c0ff0624 	li	a2,-64
801032e0:	21104600 	addu	v0,v0,a2
801032e4:	5bc4000c 	jal	0x8003116c
801032e8:	1200a2a7 	sh	v0,18(sp)
801032ec:	32000424 	li	a0,50
801032f0:	f2ff0524 	li	a1,-14
801032f4:	64d1010c 	jal	0x80074590
801032f8:	21300000 	move	a2,zero
801032fc:	b4300408 	j	0x8010c2d0
80103300:	21100000 	move	v0,zero
80103304:	40000296 	lhu	v0,64(s0)
80103308:	ffff0324 	li	v1,-1
8010330c:	ffff4224 	addiu	v0,v0,-1
80103310:	400002a6 	sh	v0,64(s0)
80103314:	00140200 	sll	v0,v0,0x10
80103318:	03140200 	sra	v0,v0,0x10
8010331c:	04004314 	bne	v0,v1,0x80103330
80103320:	0f80023c 	lui	v0,0x800f
80103324:	7e8040a0 	sb	zero,-32642(v0)
80103328:	b4300408 	j	0x8010c2d0
8010332c:	01000224 	li	v0,1
80103330:	21100000 	move	v0,zero
80103334:	2400bf8f 	lw	ra,36(sp)
80103338:	2000b08f 	lw	s0,32(sp)
8010333c:	0800e003 	jr	ra
80103340:	2800bd27 	addiu	sp,sp,40
80103344:	e0ffbd27 	addiu	sp,sp,-32
80103348:	1400b1af 	sw	s1,20(sp)
8010334c:	21888000 	move	s1,a0
80103350:	1c00bfaf 	sw	ra,28(sp)
80103354:	1800b2af 	sw	s2,24(sp)
80103358:	1000b0af 	sw	s0,16(sp)
8010335c:	04003092 	lbu	s0,4(s1)
80103360:	01001224 	li	s2,1
80103364:	6b001212 	beq	s0,s2,0x80103514
80103368:	0200022a 	slti	v0,s0,2
8010336c:	05004010 	beqz	v0,0x80103384
80103370:	00000000 	nop
80103374:	0a000012 	beqz	s0,0x801033a0
80103378:	0c80023c 	lui	v0,0x800c
8010337c:	5c310408 	j	0x8010c570
80103380:	00000000 	nop
80103384:	02000224 	li	v0,2
80103388:	92000212 	beq	s0,v0,0x801035d4
8010338c:	03000224 	li	v0,3
80103390:	8e000212 	beq	s0,v0,0x801035cc
80103394:	00000000 	nop
80103398:	5c310408 	j	0x8010c570
8010339c:	00000000 	nop
801033a0:	70f85024 	addiu	s0,v0,-1936
801033a4:	cd010292 	lbu	v0,461(s0)
801033a8:	03002592 	lbu	a1,3(s1)
801033ac:	00000000 	nop
801033b0:	0710a200 	srav	v0,v0,a1
801033b4:	01004230 	andi	v0,v0,0x1
801033b8:	03004010 	beqz	v0,0x801033c8
801033bc:	03000224 	li	v0,3
801033c0:	5c310408 	j	0x8010c570
801033c4:	040022a2 	sb	v0,4(s1)
801033c8:	21202002 	move	a0,s1
801033cc:	1180033c 	lui	v1,0x8011
801033d0:	8ce36324 	addiu	v1,v1,-7284
801033d4:	40100500 	sll	v0,a1,0x1
801033d8:	21104300 	addu	v0,v0,v1
801033dc:	00004684 	lh	a2,0(v0)
801033e0:	dc46010c 	jal	0x80051b70
801033e4:	0c000524 	li	a1,12
801033e8:	7a004014 	bnez	v0,0x801035d4
801033ec:	18010224 	li	v0,280
801033f0:	04002392 	lbu	v1,4(s1)
801033f4:	800022a6 	sh	v0,128(s1)
801033f8:	30020224 	li	v0,560
801033fc:	820022a6 	sh	v0,130(s1)
80103400:	72010224 	li	v0,370
80103404:	000032a2 	sb	s2,0(s1)
80103408:	840022a6 	sh	v0,132(s1)
8010340c:	860022a6 	sh	v0,134(s1)
80103410:	2b0020a2 	sb	zero,43(s1)
80103414:	290020a2 	sb	zero,41(s1)
80103418:	600020a6 	sh	zero,96(s1)
8010341c:	01006324 	addiu	v1,v1,1
80103420:	040023a2 	sb	v1,4(s1)
80103424:	d1010292 	lbu	v0,465(s0)
80103428:	00000000 	nop
8010342c:	03004014 	bnez	v0,0x8010343c
80103430:	1180033c 	lui	v1,0x8011
80103434:	5c310408 	j	0x8010c570
80103438:	050020a2 	sb	zero,5(s1)
8010343c:	03002292 	lbu	v0,3(s1)
80103440:	98e36324 	addiu	v1,v1,-7272
80103444:	40100200 	sll	v0,v0,0x1
80103448:	21104300 	addu	v0,v0,v1
8010344c:	00004284 	lh	v0,0(v0)
80103450:	00000000 	nop
80103454:	21105000 	addu	v0,v0,s0
80103458:	44004290 	lbu	v0,68(v0)
8010345c:	00000000 	nop
80103460:	04004010 	beqz	v0,0x80103474
80103464:	02000224 	li	v0,2
80103468:	050022a2 	sb	v0,5(s1)
8010346c:	05310408 	j	0x8010c414
80103470:	000022a2 	sb	v0,0(s1)
80103474:	050032a2 	sb	s2,5(s1)
80103478:	020a0424 	li	a0,2562
8010347c:	21280000 	move	a1,zero
80103480:	88c4000c 	jal	0x80031220
80103484:	2130a000 	move	a2,a1
80103488:	21184000 	move	v1,v0
8010348c:	51006010 	beqz	v1,0x801035d4
80103490:	00000000 	nop
80103494:	03002292 	lbu	v0,3(s1)
80103498:	00000000 	nop
8010349c:	01004224 	addiu	v0,v0,1
801034a0:	030062a0 	sb	v0,3(v1)
801034a4:	2e002296 	lhu	v0,46(s1)
801034a8:	00000000 	nop
801034ac:	2c0062a4 	sh	v0,44(v1)
801034b0:	32002296 	lhu	v0,50(s1)
801034b4:	00000000 	nop
801034b8:	6aff4224 	addiu	v0,v0,-150
801034bc:	2e0062a4 	sh	v0,46(v1)
801034c0:	36002296 	lhu	v0,54(s1)
801034c4:	00000000 	nop
801034c8:	300062a4 	sh	v0,48(v1)
801034cc:	03002292 	lbu	v0,3(s1)
801034d0:	00000000 	nop
801034d4:	07004014 	bnez	v0,0x801034f4
801034d8:	50006424 	addiu	a0,v1,80
801034dc:	80070224 	li	v0,1920
801034e0:	500062a4 	sh	v0,80(v1)
801034e4:	c8fc0224 	li	v0,-824
801034e8:	020082a4 	sh	v0,2(a0)
801034ec:	29310408 	j	0x8010c4a4
801034f0:	00090224 	li	v0,2304
801034f4:	000d0224 	li	v0,3328
801034f8:	500062a4 	sh	v0,80(v1)
801034fc:	17fb0224 	li	v0,-1257
80103500:	020082a4 	sh	v0,2(a0)
80103504:	ed0c0224 	li	v0,3309
80103508:	040082a4 	sh	v0,4(a0)
8010350c:	5c310408 	j	0x8010c570
80103510:	100023ae 	sw	v1,16(s1)
80103514:	21202002 	move	a0,s1
80103518:	afdf010c 	jal	0x80077ebc
8010351c:	010030a2 	sb	s0,1(s1)
80103520:	05002392 	lbu	v1,5(s1)
80103524:	00000000 	nop
80103528:	14007010 	beq	v1,s0,0x8010357c
8010352c:	02006228 	slti	v0,v1,2
80103530:	05004010 	beqz	v0,0x80103548
80103534:	02000224 	li	v0,2
80103538:	07006010 	beqz	v1,0x80103558
8010353c:	00000000 	nop
80103540:	55310408 	j	0x8010c554
80103544:	00000000 	nop
80103548:	15006210 	beq	v1,v0,0x801035a0
8010354c:	00000000 	nop
80103550:	55310408 	j	0x8010c554
80103554:	00000000 	nop
80103558:	0730040c 	jal	0x8010c01c
8010355c:	21202002 	move	a0,s1
80103560:	15004010 	beqz	v0,0x801035b8
80103564:	00000000 	nop
80103568:	05002292 	lbu	v0,5(s1)
8010356c:	060020a2 	sb	zero,6(s1)
80103570:	01004224 	addiu	v0,v0,1
80103574:	55310408 	j	0x8010c554
80103578:	050022a2 	sb	v0,5(s1)
8010357c:	402f040c 	jal	0x8010bd00
80103580:	21202002 	move	a0,s1
80103584:	06004010 	beqz	v0,0x801035a0
80103588:	02000324 	li	v1,2
8010358c:	05002292 	lbu	v0,5(s1)
80103590:	060020a2 	sb	zero,6(s1)
80103594:	000023a2 	sb	v1,0(s1)
80103598:	01004224 	addiu	v0,v0,1
8010359c:	050022a2 	sb	v0,5(s1)
801035a0:	03002292 	lbu	v0,3(s1)
801035a4:	00000000 	nop
801035a8:	03004014 	bnez	v0,0x801035b8
801035ac:	00000000 	nop
801035b0:	882f040c 	jal	0x8010be20
801035b4:	21202002 	move	a0,s1
801035b8:	fe45010c 	jal	0x800517f8
801035bc:	21202002 	move	a0,s1
801035c0:	2b0020a2 	sb	zero,43(s1)
801035c4:	5c310408 	j	0x8010c570
801035c8:	290020a2 	sb	zero,41(s1)
801035cc:	89e9010c 	jal	0x8007a624
801035d0:	21202002 	move	a0,s1
801035d4:	1c00bf8f 	lw	ra,28(sp)
801035d8:	1800b28f 	lw	s2,24(sp)
801035dc:	1400b18f 	lw	s1,20(sp)
801035e0:	1000b08f 	lw	s0,16(sp)
801035e4:	0800e003 	jr	ra
801035e8:	2000bd27 	addiu	sp,sp,32
801035ec:	e8ffbd27 	addiu	sp,sp,-24
801035f0:	1000b0af 	sw	s0,16(sp)
801035f4:	21808000 	move	s0,a0
801035f8:	1400bfaf 	sw	ra,20(sp)
801035fc:	06000392 	lbu	v1,6(s0)
80103600:	00000000 	nop
80103604:	05006010 	beqz	v1,0x8010361c
80103608:	01000224 	li	v0,1
8010360c:	29006210 	beq	v1,v0,0x801036b4
80103610:	21100000 	move	v0,zero
80103614:	aa310408 	j	0x8010c6a8
80103618:	00000000 	nop
8010361c:	0c80023c 	lui	v0,0x800c
80103620:	41fa4390 	lbu	v1,-1471(v0)
80103624:	06000224 	li	v0,6
80103628:	38006214 	bne	v1,v0,0x8010370c
8010362c:	21100000 	move	v0,zero
80103630:	01000224 	li	v0,1
80103634:	060002a2 	sb	v0,6(s0)
80103638:	ff000224 	li	v0,255
8010363c:	0f80053c 	lui	a1,0x800f
80103640:	0d000392 	lbu	v1,13(s0)
80103644:	0880a524 	addiu	a1,a1,-32760
80103648:	180002a2 	sb	v0,24(s0)
8010364c:	190002a2 	sb	v0,25(s0)
80103650:	1a0002a2 	sb	v0,26(s0)
80103654:	00050224 	li	v0,1280
80103658:	02006334 	ori	v1,v1,0x2
8010365c:	0d0003a2 	sb	v1,13(s0)
80103660:	7000a2a4 	sh	v0,112(a1)
80103664:	2e000296 	lhu	v0,46(s0)
80103668:	00000000 	nop
8010366c:	3a00a2a4 	sh	v0,58(a1)
80103670:	84000296 	lhu	v0,132(s0)
80103674:	38000424 	li	a0,56
80103678:	00140200 	sll	v0,v0,0x10
8010367c:	031c0200 	sra	v1,v0,0x10
80103680:	c2170200 	srl	v0,v0,0x1f
80103684:	21186200 	addu	v1,v1,v0
80103688:	32000296 	lhu	v0,50(s0)
8010368c:	43180300 	sra	v1,v1,0x1
80103690:	23104300 	subu	v0,v0,v1
80103694:	3e00a2a4 	sh	v0,62(a1)
80103698:	36000296 	lhu	v0,54(s0)
8010369c:	21300000 	move	a2,zero
801036a0:	4200a2a4 	sh	v0,66(a1)
801036a4:	64d1010c 	jal	0x80074590
801036a8:	12000524 	li	a1,18
801036ac:	aa310408 	j	0x8010c6a8
801036b0:	21100000 	move	v0,zero
801036b4:	21200002 	move	a0,s0
801036b8:	afdf010c 	jal	0x80077ebc
801036bc:	010003a2 	sb	v1,1(s0)
801036c0:	fe45010c 	jal	0x800517f8
801036c4:	21200002 	move	a0,s0
801036c8:	18000292 	lbu	v0,24(s0)
801036cc:	19000392 	lbu	v1,25(s0)
801036d0:	f8ff4224 	addiu	v0,v0,-8
801036d4:	180002a2 	sb	v0,24(s0)
801036d8:	1a000292 	lbu	v0,26(s0)
801036dc:	f8ff6324 	addiu	v1,v1,-8
801036e0:	190003a2 	sb	v1,25(s0)
801036e4:	18000382 	lb	v1,24(s0)
801036e8:	f8ff4224 	addiu	v0,v0,-8
801036ec:	06006004 	bltz	v1,0x80103708
801036f0:	1a0002a2 	sb	v0,26(s0)
801036f4:	0d000392 	lbu	v1,13(s0)
801036f8:	01000224 	li	v0,1
801036fc:	fd006330 	andi	v1,v1,0xfd
80103700:	aa310408 	j	0x8010c6a8
80103704:	0d0003a2 	sb	v1,13(s0)
80103708:	21100000 	move	v0,zero
8010370c:	1400bf8f 	lw	ra,20(sp)
80103710:	1000b08f 	lw	s0,16(sp)
80103714:	0800e003 	jr	ra
80103718:	1800bd27 	addiu	sp,sp,24
8010371c:	d0ffbd27 	addiu	sp,sp,-48
80103720:	2000b0af 	sw	s0,32(sp)
80103724:	21808000 	move	s0,a0
80103728:	2c00bfaf 	sw	ra,44(sp)
8010372c:	2800b2af 	sw	s2,40(sp)
80103730:	2400b1af 	sw	s1,36(sp)
80103734:	04000392 	lbu	v1,4(s0)
80103738:	00000000 	nop
8010373c:	0500622c 	sltiu	v0,v1,5
80103740:	00014010 	beqz	v0,0x80103b44
80103744:	1180023c 	lui	v0,0x8011
80103748:	5c904224 	addiu	v0,v0,-28580
8010374c:	80180300 	sll	v1,v1,0x2
80103750:	21186200 	addu	v1,v1,v0
80103754:	0000628c 	lw	v0,0(v1)
80103758:	00000000 	nop
8010375c:	08004000 	jr	v0
80103760:	00000000 	nop
80103764:	05001192 	lbu	s1,5(s0)
80103768:	00000000 	nop
8010376c:	05002012 	beqz	s1,0x80103784
80103770:	01000224 	li	v0,1
80103774:	19002212 	beq	s1,v0,0x801037dc
80103778:	00000000 	nop
8010377c:	b8320408 	j	0x8010cae0
80103780:	00000000 	nop
80103784:	21200002 	move	a0,s0
80103788:	0c000524 	li	a1,12
8010378c:	dc46010c 	jal	0x80051b70
80103790:	06000624 	li	a2,6
80103794:	eb004014 	bnez	v0,0x80103b44
80103798:	50000224 	li	v0,80
8010379c:	05000392 	lbu	v1,5(s0)
801037a0:	800002a6 	sh	v0,128(s0)
801037a4:	a0000224 	li	v0,160
801037a8:	820002a6 	sh	v0,130(s0)
801037ac:	40010224 	li	v0,320
801037b0:	840002a6 	sh	v0,132(s0)
801037b4:	860002a6 	sh	v0,134(s0)
801037b8:	00040224 	li	v0,1024
801037bc:	540000a6 	sh	zero,84(s0)
801037c0:	560002a6 	sh	v0,86(s0)
801037c4:	580000a6 	sh	zero,88(s0)
801037c8:	2b0000a2 	sb	zero,43(s0)
801037cc:	290000a2 	sb	zero,41(s0)
801037d0:	01006324 	addiu	v1,v1,1
801037d4:	b8320408 	j	0x8010cae0
801037d8:	050003a2 	sb	v1,5(s0)
801037dc:	6231040c 	jal	0x8010c588
801037e0:	21200002 	move	a0,s0
801037e4:	d7004010 	beqz	v0,0x80103b44
801037e8:	00000000 	nop
801037ec:	040011a2 	sb	s1,4(s0)
801037f0:	050000a2 	sb	zero,5(s0)
801037f4:	060000a2 	sb	zero,6(s0)
801037f8:	b8320408 	j	0x8010cae0
801037fc:	000011a2 	sb	s1,0(s0)
80103800:	06001192 	lbu	s1,6(s0)
80103804:	01001224 	li	s2,1
80103808:	27003212 	beq	s1,s2,0x801038a8
8010380c:	0200222a 	slti	v0,s1,2
80103810:	05004010 	beqz	v0,0x80103828
80103814:	02000224 	li	v0,2
80103818:	07002012 	beqz	s1,0x80103838
8010381c:	21200002 	move	a0,s0
80103820:	24320408 	j	0x8010c890
80103824:	01000224 	li	v0,1
80103828:	28002212 	beq	s1,v0,0x801038cc
8010382c:	21200002 	move	a0,s0
80103830:	24320408 	j	0x8010c890
80103834:	01000224 	li	v0,1
80103838:	0c80023c 	lui	v0,0x800c
8010383c:	09f84290 	lbu	v0,-2039(v0)
80103840:	00000000 	nop
80103844:	2b004014 	bnez	v0,0x801038f4
80103848:	01000224 	li	v0,1
8010384c:	29000292 	lbu	v0,41(s0)
80103850:	00000000 	nop
80103854:	25004010 	beqz	v0,0x801038ec
80103858:	0c80023c 	lui	v0,0x800c
8010385c:	70f85124 	addiu	s1,v0,-1936
80103860:	76002292 	lbu	v0,118(s1)
80103864:	00000000 	nop
80103868:	03004014 	bnez	v0,0x80103878
8010386c:	00000000 	nop
80103870:	d202010c 	jal	0x80040b48
80103874:	32000424 	li	a0,50
80103878:	d0012292 	lbu	v0,464(s1)
8010387c:	00000000 	nop
80103880:	1b004014 	bnez	v0,0x801038f0
80103884:	21200002 	move	a0,s0
80103888:	01000424 	li	a0,1
8010388c:	06000292 	lbu	v0,6(s0)
80103890:	04000524 	li	a1,4
80103894:	21104400 	addu	v0,v0,a0
80103898:	d508010c 	jal	0x80042354
8010389c:	060002a2 	sb	v0,6(s0)
801038a0:	22320408 	j	0x8010c888
801038a4:	d00132a2 	sb	s2,464(s1)
801038a8:	21200002 	move	a0,s0
801038ac:	21280000 	move	a1,zero
801038b0:	1180063c 	lui	a2,0x8011
801038b4:	b0e3c624 	addiu	a2,a2,-7248
801038b8:	02000224 	li	v0,2
801038bc:	3703010c 	jal	0x80040cdc
801038c0:	060002a2 	sb	v0,6(s0)
801038c4:	22320408 	j	0x8010c888
801038c8:	700011a2 	sb	s1,112(s0)
801038cc:	2604010c 	jal	0x80041098
801038d0:	21200002 	move	a0,s0
801038d4:	70000392 	lbu	v1,112(s0)
801038d8:	ff000224 	li	v0,255
801038dc:	04006214 	bne	v1,v0,0x801038f0
801038e0:	21200002 	move	a0,s0
801038e4:	c408010c 	jal	0x80042310
801038e8:	060000a2 	sb	zero,6(s0)
801038ec:	21200002 	move	a0,s0
801038f0:	01000224 	li	v0,1
801038f4:	afdf010c 	jal	0x80077ebc
801038f8:	010002a2 	sb	v0,1(s0)
801038fc:	fe45010c 	jal	0x800517f8
80103900:	21200002 	move	a0,s0
80103904:	2b0000a2 	sb	zero,43(s0)
80103908:	b8320408 	j	0x8010cae0
8010390c:	290000a2 	sb	zero,41(s0)
80103910:	06000392 	lbu	v1,6(s0)
80103914:	01001124 	li	s1,1
80103918:	57007110 	beq	v1,s1,0x80103a78
8010391c:	02006228 	slti	v0,v1,2
80103920:	05004010 	beqz	v0,0x80103938
80103924:	00000000 	nop
80103928:	08006010 	beqz	v1,0x8010394c
8010392c:	0e80023c 	lui	v0,0x800e
80103930:	b8320408 	j	0x8010cae0
80103934:	00000000 	nop
80103938:	02000224 	li	v0,2
8010393c:	59006210 	beq	v1,v0,0x80103aa4
80103940:	00000000 	nop
80103944:	b8320408 	j	0x8010cae0
80103948:	00000000 	nop
8010394c:	ef7e4390 	lbu	v1,32495(v0)
80103950:	12000224 	li	v0,18
80103954:	0d006210 	beq	v1,v0,0x8010398c
80103958:	21200002 	move	a0,s0
8010395c:	000011a2 	sb	s1,0(s0)
80103960:	040011a2 	sb	s1,4(s0)
80103964:	050000a2 	sb	zero,5(s0)
80103968:	060000a2 	sb	zero,6(s0)
8010396c:	e3dd010c 	jal	0x8007778c
80103970:	290000a2 	sb	zero,41(s0)
80103974:	73004010 	beqz	v0,0x80103b44
80103978:	00000000 	nop
8010397c:	fe45010c 	jal	0x800517f8
80103980:	21200002 	move	a0,s0
80103984:	b8320408 	j	0x8010cae0
80103988:	00000000 	nop
8010398c:	32000424 	li	a0,50
80103990:	0003010c 	jal	0x80040c00
80103994:	060011a2 	sb	s1,6(s0)
80103998:	08000424 	li	a0,8
8010399c:	0c80053c 	lui	a1,0x800c
801039a0:	70f8a524 	addiu	a1,a1,-1936
801039a4:	03000292 	lbu	v0,3(s0)
801039a8:	cd01a390 	lbu	v1,461(a1)
801039ac:	04105100 	sllv	v0,s1,v0
801039b0:	25186200 	or	v1,v1,v0
801039b4:	70b8010c 	jal	0x8006e1c0
801039b8:	cd01a3a0 	sb	v1,461(a1)
801039bc:	2e000296 	lhu	v0,46(s0)
801039c0:	00000000 	nop
801039c4:	1200a2a7 	sh	v0,18(sp)
801039c8:	84000296 	lhu	v0,132(s0)
801039cc:	00000000 	nop
801039d0:	00140200 	sll	v0,v0,0x10
801039d4:	031c0200 	sra	v1,v0,0x10
801039d8:	c2170200 	srl	v0,v0,0x1f
801039dc:	21186200 	addu	v1,v1,v0
801039e0:	32000296 	lhu	v0,50(s0)
801039e4:	43180300 	sra	v1,v1,0x1
801039e8:	23104300 	subu	v0,v0,v1
801039ec:	1600a2a7 	sh	v0,22(sp)
801039f0:	36000296 	lhu	v0,54(s0)
801039f4:	1000a427 	addiu	a0,sp,16
801039f8:	eab2010c 	jal	0x8006cba8
801039fc:	1a00a2a7 	sh	v0,26(sp)
80103a00:	37000424 	li	a0,55
80103a04:	1000a527 	addiu	a1,sp,16
80103a08:	5bc4000c 	jal	0x8003116c
80103a0c:	e0ff0624 	li	a2,-32
80103a10:	1000a527 	addiu	a1,sp,16
80103a14:	c000028e 	lw	v0,192(s0)
80103a18:	00070624 	li	a2,1792
80103a1c:	4000448c 	lw	a0,64(v0)
80103a20:	519c000c 	jal	0x80027144
80103a24:	08000724 	li	a3,8
80103a28:	0c000424 	li	a0,12
80103a2c:	21280000 	move	a1,zero
80103a30:	64d1010c 	jal	0x80074590
80103a34:	2130a000 	move	a2,a1
80103a38:	2c000526 	addiu	a1,s0,44
80103a3c:	c000028e 	lw	v0,192(s0)
80103a40:	00070624 	li	a2,1792
80103a44:	4000448c 	lw	a0,64(v0)
80103a48:	519c000c 	jal	0x80027144
80103a4c:	08000724 	li	a3,8
80103a50:	0c000424 	li	a0,12
80103a54:	21280000 	move	a1,zero
80103a58:	64d1010c 	jal	0x80074590
80103a5c:	2130a000 	move	a2,a1
80103a60:	2d000424 	li	a0,45
80103a64:	f4ff0524 	li	a1,-12
80103a68:	64d1010c 	jal	0x80074590
80103a6c:	14000624 	li	a2,20
80103a70:	b8320408 	j	0x8010cae0
80103a74:	00000000 	nop
80103a78:	0c80023c 	lui	v0,0x800c
80103a7c:	09f84290 	lbu	v0,-2039(v0)
80103a80:	00000000 	nop
80103a84:	2f004014 	bnez	v0,0x80103b44
80103a88:	02000224 	li	v0,2
80103a8c:	060002a2 	sb	v0,6(s0)
80103a90:	01000424 	li	a0,1
80103a94:	d508010c 	jal	0x80042354
80103a98:	04000524 	li	a1,4
80103a9c:	b8320408 	j	0x8010cae0
80103aa0:	00000000 	nop
80103aa4:	ca09010c 	jal	0x80042728
80103aa8:	00000000 	nop
80103aac:	25004010 	beqz	v0,0x80103b44
80103ab0:	00000000 	nop
80103ab4:	79b8010c 	jal	0x8006e1e4
80103ab8:	00000000 	nop
80103abc:	04000224 	li	v0,4
80103ac0:	040002a2 	sb	v0,4(s0)
80103ac4:	050000a2 	sb	zero,5(s0)
80103ac8:	b8320408 	j	0x8010cae0
80103acc:	060000a2 	sb	zero,6(s0)
80103ad0:	89e9010c 	jal	0x8007a624
80103ad4:	21200002 	move	a0,s0
80103ad8:	b8320408 	j	0x8010cae0
80103adc:	00000000 	nop
80103ae0:	06000392 	lbu	v1,6(s0)
80103ae4:	00000000 	nop
80103ae8:	05006010 	beqz	v1,0x80103b00
80103aec:	01000224 	li	v0,1
80103af0:	0c006210 	beq	v1,v0,0x80103b24
80103af4:	00000000 	nop
80103af8:	b8320408 	j	0x8010cae0
80103afc:	00000000 	nop
80103b00:	21200002 	move	a0,s0
80103b04:	21280000 	move	a1,zero
80103b08:	1180063c 	lui	a2,0x8011
80103b0c:	fce3c624 	addiu	a2,a2,-7172
80103b10:	3703010c 	jal	0x80040cdc
80103b14:	060002a2 	sb	v0,6(s0)
80103b18:	01000224 	li	v0,1
80103b1c:	b8320408 	j	0x8010cae0
80103b20:	700002a2 	sb	v0,112(s0)
80103b24:	2604010c 	jal	0x80041098
80103b28:	21200002 	move	a0,s0
80103b2c:	70000392 	lbu	v1,112(s0)
80103b30:	ff000224 	li	v0,255
80103b34:	03006214 	bne	v1,v0,0x80103b44
80103b38:	03000224 	li	v0,3
80103b3c:	c408010c 	jal	0x80042310
80103b40:	040002a2 	sb	v0,4(s0)
80103b44:	2c00bf8f 	lw	ra,44(sp)
80103b48:	2800b28f 	lw	s2,40(sp)
80103b4c:	2400b18f 	lw	s1,36(sp)
80103b50:	2000b08f 	lw	s0,32(sp)
80103b54:	0800e003 	jr	ra
80103b58:	3000bd27 	addiu	sp,sp,48
80103b5c:	21288000 	move	a1,a0
80103b60:	7800a390 	lbu	v1,120(a1)
80103b64:	00000000 	nop
80103b68:	05006010 	beqz	v1,0x80103b80
80103b6c:	01000224 	li	v0,1
80103b70:	20006210 	beq	v1,v0,0x80103bf4
80103b74:	21100000 	move	v0,zero
80103b78:	ea320408 	j	0x8010cba8
80103b7c:	00000000 	nop
80103b80:	0f80043c 	lui	a0,0x800f
80103b84:	08808424 	addiu	a0,a0,-32760
80103b88:	7800a2a0 	sb	v0,120(a1)
80103b8c:	640082a0 	sb	v0,100(a0)
80103b90:	c0000224 	li	v0,192
80103b94:	6e0082a4 	sh	v0,110(a0)
80103b98:	1080023c 	lui	v0,0x8010
80103b9c:	f8034284 	lh	v0,1016(v0)
80103ba0:	80060324 	li	v1,1664
80103ba4:	700083a4 	sh	v1,112(a0)
80103ba8:	80100200 	sll	v0,v0,0x2
80103bac:	6c0082a4 	sh	v0,108(a0)
80103bb0:	2e00a294 	lhu	v0,46(a1)
80103bb4:	00000000 	nop
80103bb8:	38ff4224 	addiu	v0,v0,-200
80103bbc:	3a0082a4 	sh	v0,58(a0)
80103bc0:	8400a294 	lhu	v0,132(a1)
80103bc4:	00000000 	nop
80103bc8:	00140200 	sll	v0,v0,0x10
80103bcc:	031c0200 	sra	v1,v0,0x10
80103bd0:	c2170200 	srl	v0,v0,0x1f
80103bd4:	21186200 	addu	v1,v1,v0
80103bd8:	3200a294 	lhu	v0,50(a1)
80103bdc:	43180300 	sra	v1,v1,0x1
80103be0:	23104300 	subu	v0,v0,v1
80103be4:	3e0082a4 	sh	v0,62(a0)
80103be8:	3600a294 	lhu	v0,54(a1)
80103bec:	e9320408 	j	0x8010cba4
80103bf0:	420082a4 	sh	v0,66(a0)
80103bf4:	0f80033c 	lui	v1,0x800f
80103bf8:	6e806490 	lbu	a0,-32658(v1)
80103bfc:	03000324 	li	v1,3
80103c00:	02008310 	beq	a0,v1,0x80103c0c
80103c04:	01000224 	li	v0,1
80103c08:	21100000 	move	v0,zero
80103c0c:	0800e003 	jr	ra
80103c10:	00000000 	nop
80103c14:	e0ffbd27 	addiu	sp,sp,-32
80103c18:	1400b1af 	sw	s1,20(sp)
80103c1c:	21888000 	move	s1,a0
80103c20:	1c00bfaf 	sw	ra,28(sp)
80103c24:	1800b2af 	sw	s2,24(sp)
80103c28:	1000b0af 	sw	s0,16(sp)
80103c2c:	06003092 	lbu	s0,6(s1)
80103c30:	01001224 	li	s2,1
80103c34:	27001212 	beq	s0,s2,0x80103cd4
80103c38:	0200022a 	slti	v0,s0,2
80103c3c:	05004010 	beqz	v0,0x80103c54
80103c40:	02000224 	li	v0,2
80103c44:	07000012 	beqz	s0,0x80103c64
80103c48:	21100000 	move	v0,zero
80103c4c:	30330408 	j	0x8010ccc0
80103c50:	00000000 	nop
80103c54:	28000212 	beq	s0,v0,0x80103cf8
80103c58:	21100000 	move	v0,zero
80103c5c:	30330408 	j	0x8010ccc0
80103c60:	00000000 	nop
80103c64:	0c80023c 	lui	v0,0x800c
80103c68:	09f84290 	lbu	v0,-2039(v0)
80103c6c:	00000000 	nop
80103c70:	2c004014 	bnez	v0,0x80103d24
80103c74:	21100000 	move	v0,zero
80103c78:	29002292 	lbu	v0,41(s1)
80103c7c:	00000000 	nop
80103c80:	27004010 	beqz	v0,0x80103d20
80103c84:	0c80023c 	lui	v0,0x800c
80103c88:	70f85024 	addiu	s0,v0,-1936
80103c8c:	76000292 	lbu	v0,118(s0)
80103c90:	00000000 	nop
80103c94:	03004014 	bnez	v0,0x80103ca4
80103c98:	00000000 	nop
80103c9c:	d202010c 	jal	0x80040b48
80103ca0:	32000424 	li	a0,50
80103ca4:	d0010292 	lbu	v0,464(s0)
80103ca8:	00000000 	nop
80103cac:	1d004014 	bnez	v0,0x80103d24
80103cb0:	21100000 	move	v0,zero
80103cb4:	01000424 	li	a0,1
80103cb8:	06002292 	lbu	v0,6(s1)
80103cbc:	04000524 	li	a1,4
80103cc0:	21104400 	addu	v0,v0,a0
80103cc4:	d508010c 	jal	0x80042354
80103cc8:	060022a2 	sb	v0,6(s1)
80103ccc:	2f330408 	j	0x8010ccbc
80103cd0:	d00112a2 	sb	s2,464(s0)
80103cd4:	21202002 	move	a0,s1
80103cd8:	21280000 	move	a1,zero
80103cdc:	02000224 	li	v0,2
80103ce0:	1180063c 	lui	a2,0x8011
80103ce4:	b0e3c624 	addiu	a2,a2,-7248
80103ce8:	3703010c 	jal	0x80040cdc
80103cec:	060022a2 	sb	v0,6(s1)
80103cf0:	2f330408 	j	0x8010ccbc
80103cf4:	700030a2 	sb	s0,112(s1)
80103cf8:	2604010c 	jal	0x80041098
80103cfc:	21202002 	move	a0,s1
80103d00:	70002392 	lbu	v1,112(s1)
80103d04:	ff000224 	li	v0,255
80103d08:	06006214 	bne	v1,v0,0x80103d24
80103d0c:	21100000 	move	v0,zero
80103d10:	c408010c 	jal	0x80042310
80103d14:	060020a2 	sb	zero,6(s1)
80103d18:	30330408 	j	0x8010ccc0
80103d1c:	01000224 	li	v0,1
80103d20:	21100000 	move	v0,zero
80103d24:	1c00bf8f 	lw	ra,28(sp)
80103d28:	1800b28f 	lw	s2,24(sp)
80103d2c:	1400b18f 	lw	s1,20(sp)
80103d30:	1000b08f 	lw	s0,16(sp)
80103d34:	0800e003 	jr	ra
80103d38:	2000bd27 	addiu	sp,sp,32
80103d3c:	e8ffbd27 	addiu	sp,sp,-24
80103d40:	1000b0af 	sw	s0,16(sp)
80103d44:	21808000 	move	s0,a0
80103d48:	1400bfaf 	sw	ra,20(sp)
80103d4c:	06000392 	lbu	v1,6(s0)
80103d50:	00000000 	nop
80103d54:	05006010 	beqz	v1,0x80103d6c
80103d58:	01000224 	li	v0,1
80103d5c:	0c006210 	beq	v1,v0,0x80103d90
80103d60:	21100000 	move	v0,zero
80103d64:	56330408 	j	0x8010cd58
80103d68:	00000000 	nop
80103d6c:	21200002 	move	a0,s0
80103d70:	1180063c 	lui	a2,0x8011
80103d74:	21280000 	move	a1,zero
80103d78:	fce3c624 	addiu	a2,a2,-7172
80103d7c:	3703010c 	jal	0x80040cdc
80103d80:	060002a2 	sb	v0,6(s0)
80103d84:	01000224 	li	v0,1
80103d88:	55330408 	j	0x8010cd54
80103d8c:	700002a2 	sb	v0,112(s0)
80103d90:	2604010c 	jal	0x80041098
80103d94:	21200002 	move	a0,s0
80103d98:	70000392 	lbu	v1,112(s0)
80103d9c:	ff000224 	li	v0,255
80103da0:	05006214 	bne	v1,v0,0x80103db8
80103da4:	03000224 	li	v0,3
80103da8:	c408010c 	jal	0x80042310
80103dac:	040002a2 	sb	v0,4(s0)
80103db0:	56330408 	j	0x8010cd58
80103db4:	01000224 	li	v0,1
80103db8:	21100000 	move	v0,zero
80103dbc:	1400bf8f 	lw	ra,20(sp)
80103dc0:	1000b08f 	lw	s0,16(sp)
80103dc4:	0800e003 	jr	ra
80103dc8:	1800bd27 	addiu	sp,sp,24
80103dcc:	d8ffbd27 	addiu	sp,sp,-40
80103dd0:	1800b2af 	sw	s2,24(sp)
80103dd4:	21908000 	move	s2,a0
80103dd8:	1c00b3af 	sw	s3,28(sp)
80103ddc:	2400bfaf 	sw	ra,36(sp)
80103de0:	2000b4af 	sw	s4,32(sp)
80103de4:	1400b1af 	sw	s1,20(sp)
80103de8:	1000b0af 	sw	s0,16(sp)
80103dec:	04004392 	lbu	v1,4(s2)
80103df0:	01000424 	li	a0,1
80103df4:	1d006410 	beq	v1,a0,0x80103e6c
80103df8:	50005326 	addiu	s3,s2,80
80103dfc:	02006228 	slti	v0,v1,2
80103e00:	05004010 	beqz	v0,0x80103e18
80103e04:	00000000 	nop
80103e08:	0a006010 	beqz	v1,0x80103e34
80103e0c:	21880000 	move	s1,zero
80103e10:	a9330408 	j	0x8010cea4
80103e14:	00000000 	nop
80103e18:	02000224 	li	v0,2
80103e1c:	1b006210 	beq	v1,v0,0x80103e8c
80103e20:	03000224 	li	v0,3
80103e24:	36006210 	beq	v1,v0,0x80103f00
80103e28:	00000000 	nop
80103e2c:	a9330408 	j	0x8010cea4
80103e30:	00000000 	nop
80103e34:	040044a2 	sb	a0,4(s2)
80103e38:	21806002 	move	s0,s3
80103e3c:	1469020c 	jal	0x8009a450
80103e40:	01003126 	addiu	s1,s1,1
80103e44:	ff0f4230 	andi	v0,v0,0xfff
80103e48:	20034224 	addiu	v0,v0,800
80103e4c:	000002a6 	sh	v0,0(s0)
80103e50:	1c00222a 	slti	v0,s1,28
80103e54:	f9ff4014 	bnez	v0,0x80103e3c
80103e58:	02001026 	addiu	s0,s0,2
80103e5c:	00400224 	li	v0,16384
80103e60:	4e0042a6 	sh	v0,78(s2)
80103e64:	3c000224 	li	v0,60
80103e68:	500042ae 	sw	v0,80(s2)
80103e6c:	5000428e 	lw	v0,80(s2)
80103e70:	00000000 	nop
80103e74:	21184000 	move	v1,v0
80103e78:	ffff4224 	addiu	v0,v0,-1
80103e7c:	03006014 	bnez	v1,0x80103e8c
80103e80:	500042ae 	sw	v0,80(s2)
80103e84:	02000224 	li	v0,2
80103e88:	040042a2 	sb	v0,4(s2)
80103e8c:	01000224 	li	v0,1
80103e90:	010042a2 	sb	v0,1(s2)
80103e94:	21880000 	move	s1,zero
80103e98:	01001424 	li	s4,1
80103e9c:	21806002 	move	s0,s3
80103ea0:	00000296 	lhu	v0,0(s0)
80103ea4:	00000000 	nop
80103ea8:	9aff4224 	addiu	v0,v0,-102
80103eac:	000002a6 	sh	v0,0(s0)
80103eb0:	00140200 	sll	v0,v0,0x10
80103eb4:	0c004104 	bgez	v0,0x80103ee8
80103eb8:	00000000 	nop
80103ebc:	04004292 	lbu	v0,4(s2)
80103ec0:	00000000 	nop
80103ec4:	07005414 	bne	v0,s4,0x80103ee4
80103ec8:	00000000 	nop
80103ecc:	1469020c 	jal	0x8009a450
80103ed0:	00000000 	nop
80103ed4:	ff0f4230 	andi	v0,v0,0xfff
80103ed8:	20034224 	addiu	v0,v0,800
80103edc:	a1330408 	j	0x8010ce84
80103ee0:	000002a6 	sh	v0,0(s0)
80103ee4:	000000a6 	sh	zero,0(s0)
80103ee8:	01003126 	addiu	s1,s1,1
80103eec:	1c00222a 	slti	v0,s1,28
80103ef0:	ebff4014 	bnez	v0,0x80103ea0
80103ef4:	02001026 	addiu	s0,s0,2
80103ef8:	a9330408 	j	0x8010cea4
80103efc:	00000000 	nop
80103f00:	89e9010c 	jal	0x8007a624
80103f04:	21204002 	move	a0,s2
80103f08:	2400bf8f 	lw	ra,36(sp)
80103f0c:	2000b48f 	lw	s4,32(sp)
80103f10:	1c00b38f 	lw	s3,28(sp)
80103f14:	1800b28f 	lw	s2,24(sp)
80103f18:	1400b18f 	lw	s1,20(sp)
80103f1c:	1000b08f 	lw	s0,16(sp)
80103f20:	0800e003 	jr	ra
80103f24:	2800bd27 	addiu	sp,sp,40
80103f28:	c0ffbd27 	addiu	sp,sp,-64
80103f2c:	2c00b5af 	sw	s5,44(sp)
80103f30:	21a88000 	move	s5,a0
80103f34:	2800b4af 	sw	s4,40(sp)
80103f38:	ed0f143c 	lui	s4,0xfed
80103f3c:	a9cb9436 	ori	s4,s4,0xcba9
80103f40:	1800b0af 	sw	s0,24(sp)
80103f44:	5000b026 	addiu	s0,s5,80
80103f48:	21380000 	move	a3,zero
80103f4c:	2140e000 	move	t0,a3
80103f50:	2148e000 	move	t1,a3
80103f54:	3c00bfaf 	sw	ra,60(sp)
80103f58:	3800beaf 	sw	s8,56(sp)
80103f5c:	3400b7af 	sw	s7,52(sp)
80103f60:	3000b6af 	sw	s6,48(sp)
80103f64:	2400b3af 	sw	s3,36(sp)
80103f68:	2000b2af 	sw	s2,32(sp)
80103f6c:	1c00b1af 	sw	s1,28(sp)
80103f70:	00a8c748 	ctc2	a3,$21
80103f74:	00b0c848 	ctc2	t0,$22
80103f78:	00b8c948 	ctc2	t1,$23
80103f7c:	78ca000c 	jal	0x800329e0
80103f80:	06000424 	li	a0,6
80103f84:	21b80000 	move	s7,zero
80103f88:	1180023c 	lui	v0,0x8011
80103f8c:	34e55e24 	addiu	s8,v0,-6860
80103f90:	21b00002 	move	s6,s0
80103f94:	21908002 	move	s2,s4
80103f98:	80101200 	sll	v0,s2,0x2
80103f9c:	21105200 	addu	v0,v0,s2
80103fa0:	01005424 	addiu	s4,v0,1
80103fa4:	21808002 	move	s0,s4
80103fa8:	80101000 	sll	v0,s0,0x2
80103fac:	21105000 	addu	v0,v0,s0
80103fb0:	01005424 	addiu	s4,v0,1
80103fb4:	0000d396 	lhu	s3,0(s6)
80103fb8:	21204002 	move	a0,s2
80103fbc:	d40f020c 	jal	0x80083f50
80103fc0:	009c1300 	sll	s3,s3,0x10
80103fc4:	21200002 	move	a0,s0
80103fc8:	d40f020c 	jal	0x80083f50
80103fcc:	21884000 	move	s1,v0
80103fd0:	18005100 	mult	v0,s1
80103fd4:	21200002 	move	a0,s0
80103fd8:	12180000 	mflo	v1
80103fdc:	03130300 	sra	v0,v1,0xc
80103fe0:	a00f020c 	jal	0x80083e80
80103fe4:	1000a2a7 	sh	v0,16(sp)
80103fe8:	18005100 	mult	v0,s1
80103fec:	21204002 	move	a0,s2
80103ff0:	12180000 	mflo	v1
80103ff4:	03130300 	sra	v0,v1,0xc
80103ff8:	a00f020c 	jal	0x80083e80
80103ffc:	1400a2a7 	sh	v0,20(sp)
80104000:	1000a387 	lh	v1,16(sp)
80104004:	03241300 	sra	a0,s3,0x10
80104008:	18006400 	mult	v1,a0
8010400c:	12300000 	mflo	a2
80104010:	001c0200 	sll	v1,v0,0x10
80104014:	031c0300 	sra	v1,v1,0x10
80104018:	18006400 	mult	v1,a0
8010401c:	12500000 	mflo	t2
80104020:	1400a387 	lh	v1,20(sp)
80104024:	00000000 	nop
80104028:	18006400 	mult	v1,a0
8010402c:	1200a2a7 	sh	v0,18(sp)
80104030:	03230a00 	sra	a0,t2,0xc
80104034:	031b0600 	sra	v1,a2,0xc
80104038:	1200a4a7 	sh	a0,18(sp)
8010403c:	1000a3a7 	sh	v1,16(sp)
80104040:	12280000 	mflo	a1
80104044:	032b0500 	sra	a1,a1,0xc
80104048:	1400a5a7 	sh	a1,20(sp)
8010404c:	2c00a296 	lhu	v0,44(s5)
80104050:	00000000 	nop
80104054:	21186200 	addu	v1,v1,v0
80104058:	1000a3a7 	sh	v1,16(sp)
8010405c:	2e00a296 	lhu	v0,46(s5)
80104060:	00000000 	nop
80104064:	21208200 	addu	a0,a0,v0
80104068:	1200a4a7 	sh	a0,18(sp)
8010406c:	3000a296 	lhu	v0,48(s5)
80104070:	c39c1300 	sra	s3,s3,0x13
80104074:	2128a200 	addu	a1,a1,v0
80104078:	0001622a 	slti	v0,s3,256
8010407c:	02004014 	bnez	v0,0x80104088
80104080:	1400a5a7 	sh	a1,20(sp)
80104084:	ff001324 	li	s3,255
80104088:	1000a227 	addiu	v0,sp,16
8010408c:	000040c8 	lwc2	$0,0(v0)
80104090:	040041c8 	lwc2	$1,4(v0)
80104094:	f3c5000c 	jal	0x800317cc
80104098:	f6ff0424 	li	a0,-10
8010409c:	0d004014 	bnez	v0,0x801040d4
801040a0:	2120c003 	move	a0,s8
801040a4:	801f073c 	lui	a3,0x1f80
801040a8:	8400e724 	addiu	a3,a3,132
801040ac:	00111300 	sll	v0,s3,0x4
801040b0:	801f083c 	lui	t0,0x1f80
801040b4:	90000825 	addiu	t0,t0,144
801040b8:	801f093c 	lui	t1,0x1f80
801040bc:	0000e38c 	lw	v1,0(a3)
801040c0:	fcffc58f 	lw	a1,-4(s8)
801040c4:	88002925 	addiu	t1,t1,136
801040c8:	000002ad 	sw	v0,0(t0)
801040cc:	939e000c 	jal	0x80027a4c
801040d0:	000023ad 	sw	v1,0(t1)
801040d4:	0100f726 	addiu	s7,s7,1
801040d8:	1c00e22a 	slti	v0,s7,28
801040dc:	adff4014 	bnez	v0,0x80103f94
801040e0:	0200d626 	addiu	s6,s6,2
801040e4:	3c00bf8f 	lw	ra,60(sp)
801040e8:	3800be8f 	lw	s8,56(sp)
801040ec:	3400b78f 	lw	s7,52(sp)
801040f0:	3000b68f 	lw	s6,48(sp)
801040f4:	2c00b58f 	lw	s5,44(sp)
801040f8:	2800b48f 	lw	s4,40(sp)
801040fc:	2400b38f 	lw	s3,36(sp)
80104100:	2000b28f 	lw	s2,32(sp)
80104104:	1c00b18f 	lw	s1,28(sp)
80104108:	1800b08f 	lw	s0,24(sp)
8010410c:	0800e003 	jr	ra
80104110:	4000bd27 	addiu	sp,sp,64
80104114:	c0ffbd27 	addiu	sp,sp,-64
80104118:	2400b3af 	sw	s3,36(sp)
8010411c:	21988000 	move	s3,a0
80104120:	21400000 	move	t0,zero
80104124:	21480001 	move	t1,t0
80104128:	21500001 	move	t2,t0
8010412c:	3c00bfaf 	sw	ra,60(sp)
80104130:	3800beaf 	sw	s8,56(sp)
80104134:	3400b7af 	sw	s7,52(sp)
80104138:	3000b6af 	sw	s6,48(sp)
8010413c:	2c00b5af 	sw	s5,44(sp)
80104140:	2800b4af 	sw	s4,40(sp)
80104144:	2000b2af 	sw	s2,32(sp)
80104148:	1c00b1af 	sw	s1,28(sp)
8010414c:	1800b0af 	sw	s0,24(sp)
80104150:	00a8c848 	ctc2	t0,$21
80104154:	00b0c948 	ctc2	t1,$22
80104158:	00b8ca48 	ctc2	t2,$23
8010415c:	78ca000c 	jal	0x800329e0
80104160:	06000424 	li	a0,6
80104164:	801f023c 	lui	v0,0x1f80
80104168:	21a00000 	move	s4,zero
8010416c:	7c015794 	lhu	s7,380(v0)
80104170:	1180023c 	lui	v0,0x8011
80104174:	34e55e24 	addiu	s8,v0,-6860
80104178:	d40f020c 	jal	0x80083f50
8010417c:	21208002 	move	a0,s4
80104180:	21208002 	move	a0,s4
80104184:	a00f020c 	jal	0x80083e80
80104188:	21b04000 	move	s6,v0
8010418c:	21a84000 	move	s5,v0
80104190:	031a1500 	sra	v1,s5,0x8
80104194:	0300601c 	bgtz	v1,0x801041a4
80104198:	00100224 	li	v0,4096
8010419c:	5b340408 	j	0x8010d16c
801041a0:	00101224 	li	s2,4096
801041a4:	1a004300 	div	zero,v0,v1
801041a8:	02006014 	bnez	v1,0x801041b4
801041ac:	00000000 	nop
801041b0:	0d000700 	break	0x7
801041b4:	ffff0124 	li	at,-1
801041b8:	04006114 	bne	v1,at,0x801041cc
801041bc:	0080013c 	lui	at,0x8000
801041c0:	02004114 	bne	v0,at,0x801041cc
801041c4:	00000000 	nop
801041c8:	0d000600 	break	0x6
801041cc:	12900000 	mflo	s2
801041d0:	00000000 	nop
801041d4:	0010422a 	slti	v0,s2,4096
801041d8:	55004010 	beqz	v0,0x80104330
801041dc:	21880000 	move	s1,zero
801041e0:	21803702 	addu	s0,s1,s7
801041e4:	d40f020c 	jal	0x80083f50
801041e8:	21200002 	move	a0,s0
801041ec:	21200002 	move	a0,s0
801041f0:	a00f020c 	jal	0x80083e80
801041f4:	21804000 	move	s0,v0
801041f8:	4e006396 	lhu	v1,78(s3)
801041fc:	00000000 	nop
80104200:	003c0300 	sll	a3,v1,0x10
80104204:	03340700 	sra	a2,a3,0x10
80104208:	1800a602 	mult	s5,a2
8010420c:	12180000 	mflo	v1
	...
80104218:	1800c602 	mult	s6,a2
8010421c:	12200000 	mflo	a0
80104220:	031b0300 	sra	v1,v1,0xc
80104224:	00000000 	nop
80104228:	18000302 	mult	s0,v1
8010422c:	12580000 	mflo	t3
	...
80104238:	18004300 	mult	v0,v1
8010423c:	032b0400 	sra	a1,a0,0xc
80104240:	1200a5a7 	sh	a1,18(sp)
80104244:	031b0b00 	sra	v1,t3,0xc
80104248:	1000a3a7 	sh	v1,16(sp)
8010424c:	12100000 	mflo	v0
80104250:	03230200 	sra	a0,v0,0xc
80104254:	1400a4a7 	sh	a0,20(sp)
80104258:	2c006296 	lhu	v0,44(s3)
8010425c:	00000000 	nop
80104260:	21186200 	addu	v1,v1,v0
80104264:	1000a3a7 	sh	v1,16(sp)
80104268:	2e006296 	lhu	v0,46(s3)
8010426c:	00000000 	nop
80104270:	2128a200 	addu	a1,a1,v0
80104274:	1200a5a7 	sh	a1,18(sp)
80104278:	30006296 	lhu	v0,48(s3)
8010427c:	00000000 	nop
80104280:	21208200 	addu	a0,a0,v0
80104284:	f401c228 	slti	v0,a2,500
80104288:	09004010 	beqz	v0,0x801042b0
8010428c:	1400a4a7 	sh	a0,20(sp)
80104290:	431c0700 	sra	v1,a3,0x11
80104294:	ff000224 	li	v0,255
80104298:	23804300 	subu	s0,v0,v1
8010429c:	02000106 	bgez	s0,0x801042a8
801042a0:	00000000 	nop
801042a4:	21800000 	move	s0,zero
801042a8:	99340408 	j	0x8010d264
801042ac:	00811000 	sll	s0,s0,0x4
801042b0:	0cfec224 	addiu	v0,a2,-500
801042b4:	00810200 	sll	s0,v0,0x4
801042b8:	0110022a 	slti	v0,s0,4097
801042bc:	03004014 	bnez	v0,0x801042cc
801042c0:	1000a227 	addiu	v0,sp,16
801042c4:	00101024 	li	s0,4096
801042c8:	1000a227 	addiu	v0,sp,16
801042cc:	000040c8 	lwc2	$0,0(v0)
801042d0:	040041c8 	lwc2	$1,4(v0)
801042d4:	f3c5000c 	jal	0x800317cc
801042d8:	21200000 	move	a0,zero
801042dc:	0f004014 	bnez	v0,0x8010431c
801042e0:	801f083c 	lui	t0,0x1f80
801042e4:	84000825 	addiu	t0,t0,132
801042e8:	801f093c 	lui	t1,0x1f80
801042ec:	0000028d 	lw	v0,0(t0)
801042f0:	88002925 	addiu	t1,t1,136
801042f4:	1469020c 	jal	0x8009a450
801042f8:	000022ad 	sw	v0,0(t1)
801042fc:	2120c003 	move	a0,s8
80104300:	ff034230 	andi	v0,v0,0x3ff
80104304:	21100202 	addu	v0,s0,v0
80104308:	801f0a3c 	lui	t2,0x1f80
8010430c:	fcffc58f 	lw	a1,-4(s8)
80104310:	90004a25 	addiu	t2,t2,144
80104314:	939e000c 	jal	0x80027a4c
80104318:	000042ad 	sw	v0,0(t2)
8010431c:	21883202 	addu	s1,s1,s2
80104320:	21103202 	addu	v0,s1,s2
80104324:	00104228 	slti	v0,v0,4096
80104328:	aeff4014 	bnez	v0,0x801041e4
8010432c:	21803702 	addu	s0,s1,s7
80104330:	00019426 	addiu	s4,s4,256
80104334:	0008822a 	slti	v0,s4,2048
80104338:	8fff4014 	bnez	v0,0x80104178
8010433c:	00000000 	nop
80104340:	3c00bf8f 	lw	ra,60(sp)
80104344:	3800be8f 	lw	s8,56(sp)
80104348:	3400b78f 	lw	s7,52(sp)
8010434c:	3000b68f 	lw	s6,48(sp)
80104350:	2c00b58f 	lw	s5,44(sp)
80104354:	2800b48f 	lw	s4,40(sp)
80104358:	2400b38f 	lw	s3,36(sp)
8010435c:	2000b28f 	lw	s2,32(sp)
80104360:	1c00b18f 	lw	s1,28(sp)
80104364:	1800b08f 	lw	s0,24(sp)
80104368:	0800e003 	jr	ra
8010436c:	4000bd27 	addiu	sp,sp,64
80104370:	b0ffbd27 	addiu	sp,sp,-80
80104374:	3800b4af 	sw	s4,56(sp)
80104378:	21a08000 	move	s4,a0
8010437c:	2800b0af 	sw	s0,40(sp)
80104380:	50009026 	addiu	s0,s4,80
80104384:	21380000 	move	a3,zero
80104388:	2140e000 	move	t0,a3
8010438c:	2148e000 	move	t1,a3
80104390:	4c00bfaf 	sw	ra,76(sp)
80104394:	4800beaf 	sw	s8,72(sp)
80104398:	4400b7af 	sw	s7,68(sp)
8010439c:	4000b6af 	sw	s6,64(sp)
801043a0:	3c00b5af 	sw	s5,60(sp)
801043a4:	3400b3af 	sw	s3,52(sp)
801043a8:	3000b2af 	sw	s2,48(sp)
801043ac:	2c00b1af 	sw	s1,44(sp)
801043b0:	00a8c748 	ctc2	a3,$21
801043b4:	00b0c848 	ctc2	t0,$22
801043b8:	00b8c948 	ctc2	t1,$23
801043bc:	78ca000c 	jal	0x800329e0
801043c0:	06000424 	li	a0,6
801043c4:	dcfe163c 	lui	s6,0xfedc
801043c8:	97bad636 	ori	s6,s6,0xba97
801043cc:	21980000 	move	s3,zero
801043d0:	50008386 	lh	v1,80(s4)
801043d4:	2c008286 	lh	v0,44(s4)
801043d8:	21b86002 	move	s7,s3
801043dc:	23186200 	subu	v1,v1,v0
801043e0:	1800a3af 	sw	v1,24(sp)
801043e4:	02000586 	lh	a1,2(s0)
801043e8:	2e008386 	lh	v1,46(s4)
801043ec:	04000486 	lh	a0,4(s0)
801043f0:	30008286 	lh	v0,48(s4)
801043f4:	2328a300 	subu	a1,a1,v1
801043f8:	23208200 	subu	a0,a0,v0
801043fc:	1c00a5af 	sw	a1,28(sp)
80104400:	2000a4af 	sw	a0,32(sp)
80104404:	801f073c 	lui	a3,0x1f80
80104408:	7c01e594 	lhu	a1,380(a3)
8010440c:	03008292 	lbu	v0,3(s4)
80104410:	00190500 	sll	v1,a1,0x4
80104414:	23186302 	subu	v1,s3,v1
80104418:	00120200 	sll	v0,v0,0x8
8010441c:	21186200 	addu	v1,v1,v0
80104420:	ff0f7530 	andi	s5,v1,0xfff
80104424:	2120a002 	move	a0,s5
80104428:	c0290500 	sll	a1,a1,0x7
8010442c:	2128e502 	addu	a1,s7,a1
80104430:	ff0fa530 	andi	a1,a1,0xfff
80104434:	c0100500 	sll	v0,a1,0x3
80104438:	21104500 	addu	v0,v0,a1
8010443c:	a00f020c 	jal	0x80083e80
80104440:	82f20200 	srl	s8,v0,0xa
80104444:	2120a002 	move	a0,s5
80104448:	d40f020c 	jal	0x80083f50
8010444c:	21804000 	move	s0,v0
80104450:	18000202 	mult	s0,v0
80104454:	2120a002 	move	a0,s5
80104458:	12180000 	mflo	v1
8010445c:	a00f020c 	jal	0x80083e80
80104460:	038b0300 	sra	s1,v1,0xc
80104464:	18000202 	mult	s0,v0
80104468:	801f073c 	lui	a3,0x1f80
8010446c:	7c01e494 	lhu	a0,380(a3)
80104470:	00000000 	nop
80104474:	21209300 	addu	a0,a0,s3
80104478:	80210400 	sll	a0,a0,0x6
8010447c:	12180000 	mflo	v1
80104480:	d40f020c 	jal	0x80083f50
80104484:	03930300 	sra	s2,v1,0xc
80104488:	1800a78f 	lw	a3,24(sp)
8010448c:	00000000 	nop
80104490:	1800f300 	mult	a3,s3
80104494:	12500000 	mflo	t2
80104498:	1c00a78f 	lw	a3,28(sp)
8010449c:	00000000 	nop
801044a0:	1800f300 	mult	a3,s3
801044a4:	12280000 	mflo	a1
	...
801044b0:	18000202 	mult	s0,v0
801044b4:	2c008396 	lhu	v1,44(s4)
801044b8:	2000a78f 	lw	a3,32(sp)
801044bc:	03130a00 	sra	v0,t2,0xc
801044c0:	21186200 	addu	v1,v1,v0
801044c4:	1000a3a7 	sh	v1,16(sp)
801044c8:	2e008496 	lhu	a0,46(s4)
801044cc:	03130500 	sra	v0,a1,0xc
801044d0:	21208200 	addu	a0,a0,v0
801044d4:	12300000 	mflo	a2
801044d8:	80101100 	sll	v0,s1,0x2
801044dc:	21105100 	addu	v0,v0,s1
801044e0:	1800f300 	mult	a3,s3
801044e4:	83120200 	sra	v0,v0,0xa
801044e8:	1200a4a7 	sh	a0,18(sp)
801044ec:	30008596 	lhu	a1,48(s4)
801044f0:	21186200 	addu	v1,v1,v0
801044f4:	1000a3a7 	sh	v1,16(sp)
801044f8:	031b0600 	sra	v1,a2,0xc
801044fc:	80100300 	sll	v0,v1,0x2
80104500:	21104300 	addu	v0,v0,v1
80104504:	83120200 	sra	v0,v0,0xa
80104508:	21208200 	addu	a0,a0,v0
8010450c:	1200a4a7 	sh	a0,18(sp)
80104510:	12500000 	mflo	t2
80104514:	03130a00 	sra	v0,t2,0xc
80104518:	2128a200 	addu	a1,a1,v0
8010451c:	80101200 	sll	v0,s2,0x2
80104520:	21105200 	addu	v0,v0,s2
80104524:	83120200 	sra	v0,v0,0xa
80104528:	1400a5a7 	sh	a1,20(sp)
8010452c:	2128a200 	addu	a1,a1,v0
80104530:	1000a227 	addiu	v0,sp,16
80104534:	1400a5a7 	sh	a1,20(sp)
80104538:	000040c8 	lwc2	$0,0(v0)
8010453c:	040041c8 	lwc2	$1,4(v0)
80104540:	f3c5000c 	jal	0x800317cc
80104544:	f6ff0424 	li	a0,-10
80104548:	2a004014 	bnez	v0,0x801045f4
8010454c:	0100023c 	lui	v0,0x1
80104550:	5800828e 	lw	v0,88(s4)
80104554:	00000000 	nop
80104558:	2b106202 	sltu	v0,s3,v0
8010455c:	24004010 	beqz	v0,0x801045f0
80104560:	7ff8a226 	addiu	v0,s5,-1921
80104564:	ff00422c 	sltiu	v0,v0,255
80104568:	06004010 	beqz	v0,0x80104584
8010456c:	ff01c232 	andi	v0,s6,0x1ff
80104570:	801f083c 	lui	t0,0x1f80
80104574:	84000825 	addiu	t0,t0,132
80104578:	0000038d 	lw	v1,0(t0)
8010457c:	4d350408 	j	0x8010d534
80104580:	00034224 	addiu	v0,v0,768
80104584:	ff00c232 	andi	v0,s6,0xff
80104588:	801f073c 	lui	a3,0x1f80
8010458c:	8400e724 	addiu	a3,a3,132
80104590:	0000e38c 	lw	v1,0(a3)
80104594:	80014224 	addiu	v0,v0,384
80104598:	18006200 	mult	v1,v0
8010459c:	801f083c 	lui	t0,0x1f80
801045a0:	88000825 	addiu	t0,t0,136
801045a4:	801f093c 	lui	t1,0x1f80
801045a8:	84002925 	addiu	t1,t1,132
801045ac:	12380000 	mflo	a3
801045b0:	83120700 	sra	v0,a3,0xa
801045b4:	000002ad 	sw	v0,0(t0)
801045b8:	000022ad 	sw	v0,0(t1)
801045bc:	c0201e00 	sll	a0,s8,0x3
801045c0:	0a80023c 	lui	v0,0x800a
801045c4:	0a80073c 	lui	a3,0x800a
801045c8:	90dce724 	addiu	a3,a3,-9072
801045cc:	2120e400 	addu	a0,a3,a0
801045d0:	801f083c 	lui	t0,0x1f80
801045d4:	8cdc458c 	lw	a1,-9076(v0)
801045d8:	90000825 	addiu	t0,t0,144
801045dc:	939e000c 	jal	0x80027a4c
801045e0:	000000ad 	sw	zero,0(t0)
801045e4:	80101600 	sll	v0,s6,0x2
801045e8:	21105600 	addu	v0,v0,s6
801045ec:	01005624 	addiu	s6,v0,1
801045f0:	0100023c 	lui	v0,0x1
801045f4:	6c764234 	ori	v0,v0,0x766c
801045f8:	21b8e202 	addu	s7,s7,v0
801045fc:	7c007326 	addiu	s3,s3,124
80104600:	0010622a 	slti	v0,s3,4096
80104604:	80ff4014 	bnez	v0,0x80104408
80104608:	801f073c 	lui	a3,0x1f80
8010460c:	4c00bf8f 	lw	ra,76(sp)
80104610:	4800be8f 	lw	s8,72(sp)
80104614:	4400b78f 	lw	s7,68(sp)
80104618:	4000b68f 	lw	s6,64(sp)
8010461c:	3c00b58f 	lw	s5,60(sp)
80104620:	3800b48f 	lw	s4,56(sp)
80104624:	3400b38f 	lw	s3,52(sp)
80104628:	3000b28f 	lw	s2,48(sp)
8010462c:	2c00b18f 	lw	s1,44(sp)
80104630:	2800b08f 	lw	s0,40(sp)
80104634:	0800e003 	jr	ra
80104638:	5000bd27 	addiu	sp,sp,80
8010463c:	e0ffbd27 	addiu	sp,sp,-32
80104640:	1400b1af 	sw	s1,20(sp)
80104644:	21888000 	move	s1,a0
80104648:	1c00bfaf 	sw	ra,28(sp)
8010464c:	1800b2af 	sw	s2,24(sp)
80104650:	1000b0af 	sw	s0,16(sp)
80104654:	04002392 	lbu	v1,4(s1)
80104658:	01000424 	li	a0,1
8010465c:	17006410 	beq	v1,a0,0x801046bc
80104660:	02006228 	slti	v0,v1,2
80104664:	05004010 	beqz	v0,0x8010467c
80104668:	00000000 	nop
8010466c:	0a006010 	beqz	v1,0x80104698
80104670:	00010224 	li	v0,256
80104674:	ef350408 	j	0x8010d7bc
80104678:	00000000 	nop
8010467c:	02000224 	li	v0,2
80104680:	48006210 	beq	v1,v0,0x801047a4
80104684:	03000224 	li	v0,3
80104688:	63006210 	beq	v1,v0,0x80104818
8010468c:	00000000 	nop
80104690:	ef350408 	j	0x8010d7bc
80104694:	00000000 	nop
80104698:	500022ae 	sw	v0,80(s1)
8010469c:	540022ae 	sw	v0,84(s1)
801046a0:	78000224 	li	v0,120
801046a4:	010024a2 	sb	a0,1(s1)
801046a8:	040024a2 	sb	a0,4(s1)
801046ac:	480020a6 	sh	zero,72(s1)
801046b0:	4a0020a6 	sh	zero,74(s1)
801046b4:	4c0020a6 	sh	zero,76(s1)
801046b8:	4e0022a6 	sh	v0,78(s1)
801046bc:	166c043c 	lui	a0,0x6c16
801046c0:	801f123c 	lui	s2,0x1f80
801046c4:	7c014596 	lhu	a1,380(s2)
801046c8:	6dc18434 	ori	a0,a0,0xc16d
801046cc:	1900a400 	multu	a1,a0
801046d0:	10200000 	mfhi	a0
801046d4:	2310a400 	subu	v0,a1,a0
801046d8:	42100200 	srl	v0,v0,0x1
801046dc:	21208200 	addu	a0,a0,v0
801046e0:	42210400 	srl	a0,a0,0x5
801046e4:	40180400 	sll	v1,a0,0x1
801046e8:	21186400 	addu	v1,v1,a0
801046ec:	00110300 	sll	v0,v1,0x4
801046f0:	23104300 	subu	v0,v0,v1
801046f4:	2328a200 	subu	a1,a1,v0
801046f8:	ffffa530 	andi	a1,a1,0xffff
801046fc:	0a00a014 	bnez	a1,0x80104728
80104700:	1180103c 	lui	s0,0x8011
80104704:	1469020c 	jal	0x8009a450
80104708:	70901026 	addiu	s0,s0,-28560
8010470c:	38000424 	li	a0,56
80104710:	43120200 	sra	v0,v0,0x9
80104714:	06004230 	andi	v0,v0,0x6
80104718:	21105000 	addu	v0,v0,s0
8010471c:	00004580 	lb	a1,0(v0)
80104720:	64d1010c 	jal	0x80074590
80104724:	21300000 	move	a2,zero
80104728:	3800228e 	lw	v0,56(s1)
8010472c:	00000000 	nop
80104730:	04004014 	bnez	v0,0x80104744
80104734:	340022ae 	sw	v0,52(s1)
80104738:	1180023c 	lui	v0,0x8011
8010473c:	48e54224 	addiu	v0,v0,-6840
80104740:	340022ae 	sw	v0,52(s1)
80104744:	7c014496 	lhu	a0,380(s2)
80104748:	d40f020c 	jal	0x80083f50
8010474c:	c2210400 	srl	a0,a0,0x7
80104750:	43110200 	sra	v0,v0,0x5
80104754:	7c014496 	lhu	a0,380(s2)
80104758:	48002396 	lhu	v1,72(s1)
8010475c:	02210400 	srl	a0,a0,0x4
80104760:	21186200 	addu	v1,v1,v0
80104764:	d40f020c 	jal	0x80083f50
80104768:	480023a6 	sh	v1,72(s1)
8010476c:	c3110200 	sra	v0,v0,0x7
80104770:	7c014496 	lhu	a0,380(s2)
80104774:	4a002396 	lhu	v1,74(s1)
80104778:	40200400 	sll	a0,a0,0x1
8010477c:	21186200 	addu	v1,v1,v0
80104780:	d40f020c 	jal	0x80083f50
80104784:	4a0023a6 	sh	v1,74(s1)
80104788:	01000324 	li	v1,1
8010478c:	010023a2 	sb	v1,1(s1)
80104790:	4c002396 	lhu	v1,76(s1)
80104794:	83110200 	sra	v0,v0,0x6
80104798:	21186200 	addu	v1,v1,v0
8010479c:	ef350408 	j	0x8010d7bc
801047a0:	4c0023a6 	sh	v1,76(s1)
801047a4:	05002292 	lbu	v0,5(s1)
801047a8:	00000000 	nop
801047ac:	05004010 	beqz	v0,0x801047c4
801047b0:	00000000 	nop
801047b4:	04004410 	beq	v0,a0,0x801047c8
801047b8:	00000000 	nop
801047bc:	ef350408 	j	0x8010d7bc
801047c0:	00000000 	nop
801047c4:	050024a2 	sb	a0,5(s1)
801047c8:	5000228e 	lw	v0,80(s1)
801047cc:	00000000 	nop
801047d0:	f0ff4224 	addiu	v0,v0,-16
801047d4:	02004104 	bgez	v0,0x801047e0
801047d8:	500022ae 	sw	v0,80(s1)
801047dc:	500020ae 	sw	zero,80(s1)
801047e0:	5400238e 	lw	v1,84(s1)
801047e4:	06002292 	lbu	v0,6(s1)
801047e8:	f0ff6324 	addiu	v1,v1,-16
801047ec:	01004224 	addiu	v0,v0,1
801047f0:	060022a2 	sb	v0,6(s1)
801047f4:	ff004230 	andi	v0,v0,0xff
801047f8:	1100422c 	sltiu	v0,v0,17
801047fc:	03004014 	bnez	v0,0x8010480c
80104800:	540023ae 	sw	v1,84(s1)
80104804:	03000224 	li	v0,3
80104808:	040022a2 	sb	v0,4(s1)
8010480c:	01000224 	li	v0,1
80104810:	ef350408 	j	0x8010d7bc
80104814:	010022a2 	sb	v0,1(s1)
80104818:	89e9010c 	jal	0x8007a624
8010481c:	21202002 	move	a0,s1
80104820:	1c00bf8f 	lw	ra,28(sp)
80104824:	1800b28f 	lw	s2,24(sp)
80104828:	1400b18f 	lw	s1,20(sp)
8010482c:	1000b08f 	lw	s0,16(sp)
80104830:	0800e003 	jr	ra
80104834:	2000bd27 	addiu	sp,sp,32
80104838:	21788000 	move	t7,a0
8010483c:	21c0c000 	move	t8,a2
80104840:	1000b98f 	lw	t9,16(sp)
80104844:	1800a38f 	lw	v1,24(sp)
80104848:	1400a687 	lh	a2,20(sp)
8010484c:	1400a48f 	lw	a0,20(sp)
80104850:	4600c018 	blez	a2,0x8010496c
80104854:	b9000a24 	li	t2,185
80104858:	e7000924 	li	t1,231
8010485c:	51000b24 	li	t3,81
80104860:	67000824 	li	t0,103
80104864:	002e8434 	ori	a0,a0,0x2e00
80104868:	00240400 	sll	a0,a0,0x10
8010486c:	00120600 	sll	v0,a2,0x8
80104870:	25104600 	or	v0,v0,a2
80104874:	25208200 	or	a0,a0,v0
80104878:	35000e24 	li	t6,53
8010487c:	f0016324 	addiu	v1,v1,496
80104880:	80190300 	sll	v1,v1,0x6
80104884:	17006334 	ori	v1,v1,0x17
80104888:	2330a700 	subu	a2,a1,a3
8010488c:	2128a700 	addu	a1,a1,a3
80104890:	0f800d3c 	lui	t5,0x800f
80104894:	1c00eaa1 	sb	t2,28(t7)
80104898:	0c00eaa1 	sb	t2,12(t7)
8010489c:	2400e9a1 	sb	t1,36(t7)
801048a0:	1400e9a1 	sb	t1,20(t7)
801048a4:	1500eba1 	sb	t3,21(t7)
801048a8:	0d00eba1 	sb	t3,13(t7)
801048ac:	2500e8a1 	sb	t0,37(t7)
801048b0:	1d00e8a1 	sb	t0,29(t7)
801048b4:	0400e4ad 	sw	a0,4(t7)
801048b8:	c8d8a78d 	lw	a3,-10040(t5)
801048bc:	23101903 	subu	v0,t8,t9
801048c0:	1600eea5 	sh	t6,22(t7)
801048c4:	0e00e3a5 	sh	v1,14(t7)
801048c8:	1800e6a5 	sh	a2,24(t7)
801048cc:	0800e6a5 	sh	a2,8(t7)
801048d0:	2000e5a5 	sh	a1,32(t7)
801048d4:	1000e5a5 	sh	a1,16(t7)
801048d8:	1200e2a5 	sh	v0,18(t7)
801048dc:	0a00e2a5 	sh	v0,10(t7)
801048e0:	2200f8a5 	sh	t8,34(t7)
801048e4:	1a00f8a5 	sh	t8,26(t7)
801048e8:	1000e28c 	lw	v0,16(a3)
801048ec:	00090c3c 	lui	t4,0x900
801048f0:	25104c00 	or	v0,v0,t4
801048f4:	0000e2ad 	sw	v0,0(t7)
801048f8:	1000efac 	sw	t7,16(a3)
801048fc:	2800ef25 	addiu	t7,t7,40
80104900:	1c00eaa1 	sb	t2,28(t7)
80104904:	0c00eaa1 	sb	t2,12(t7)
80104908:	2400e9a1 	sb	t1,36(t7)
8010490c:	1400e9a1 	sb	t1,20(t7)
80104910:	1500e8a1 	sb	t0,21(t7)
80104914:	0d00e8a1 	sb	t0,13(t7)
80104918:	2500eba1 	sb	t3,37(t7)
8010491c:	1d00eba1 	sb	t3,29(t7)
80104920:	0400e4ad 	sw	a0,4(t7)
80104924:	1600eea5 	sh	t6,22(t7)
80104928:	0e00e3a5 	sh	v1,14(t7)
8010492c:	c8d8a48d 	lw	a0,-10040(t5)
80104930:	21101903 	addu	v0,t8,t9
80104934:	1800e6a5 	sh	a2,24(t7)
80104938:	0800e6a5 	sh	a2,8(t7)
8010493c:	2000e5a5 	sh	a1,32(t7)
80104940:	1000e5a5 	sh	a1,16(t7)
80104944:	1200f8a5 	sh	t8,18(t7)
80104948:	0a00f8a5 	sh	t8,10(t7)
8010494c:	2200e2a5 	sh	v0,34(t7)
80104950:	1a00e2a5 	sh	v0,26(t7)
80104954:	1000838c 	lw	v1,16(a0)
80104958:	2800e225 	addiu	v0,t7,40
8010495c:	25186c00 	or	v1,v1,t4
80104960:	0000e3ad 	sw	v1,0(t7)
80104964:	0800e003 	jr	ra
80104968:	10008fac 	sw	t7,16(a0)
8010496c:	0800e003 	jr	ra
80104970:	2110e001 	move	v0,t7
80104974:	98ffbd27 	addiu	sp,sp,-104
80104978:	5800b6af 	sw	s6,88(sp)
8010497c:	21b08000 	move	s6,a0
80104980:	6400bfaf 	sw	ra,100(sp)
80104984:	6000beaf 	sw	s8,96(sp)
80104988:	5c00b7af 	sw	s7,92(sp)
8010498c:	5400b5af 	sw	s5,84(sp)
80104990:	5000b4af 	sw	s4,80(sp)
80104994:	4c00b3af 	sw	s3,76(sp)
80104998:	4800b2af 	sw	s2,72(sp)
8010499c:	4400b1af 	sw	s1,68(sp)
801049a0:	4000b0af 	sw	s0,64(sp)
801049a4:	2c00c296 	lhu	v0,44(s6)
801049a8:	00000000 	nop
801049ac:	2000a2a7 	sh	v0,32(sp)
801049b0:	2e00c296 	lhu	v0,46(s6)
801049b4:	21a00000 	move	s4,zero
801049b8:	2200a2a7 	sh	v0,34(sp)
801049bc:	3000c296 	lhu	v0,48(s6)
801049c0:	06000424 	li	a0,6
801049c4:	78ca000c 	jal	0x800329e0
801049c8:	2400a2a7 	sh	v0,36(sp)
801049cc:	801f1e3c 	lui	s8,0x1f80
801049d0:	2000a227 	addiu	v0,sp,32
801049d4:	000040c8 	lwc2	$0,0(v0)
801049d8:	040041c8 	lwc2	$1,4(v0)
	...
801049e4:	0100184a 	c2	0x180001
801049e8:	3800a227 	addiu	v0,sp,56
801049ec:	00f84c48 	cfc2	t4,$31
801049f0:	00000000 	nop
801049f4:	00004cac 	sw	t4,0(v0)
801049f8:	3800a28f 	lw	v0,56(sp)
801049fc:	00000000 	nop
80104a00:	17014004 	bltz	v0,0x80104e60
80104a04:	2800a227 	addiu	v0,sp,40
80104a08:	00004ee8 	swc2	$14,0(v0)
80104a0c:	2800b187 	lh	s1,40(sp)
80104a10:	00000000 	nop
80104a14:	02002106 	bgez	s1,0x80104a20
80104a18:	00000000 	nop
80104a1c:	21a02002 	move	s4,s1
80104a20:	2a00b087 	lh	s0,42(sp)
80104a24:	00000000 	nop
80104a28:	02000106 	bgez	s0,0x80104a34
80104a2c:	4001222a 	slti	v0,s1,320
80104a30:	21a09002 	addu	s4,s4,s0
80104a34:	04004014 	bnez	v0,0x80104a48
80104a38:	f000022a 	slti	v0,s0,240
80104a3c:	40018226 	addiu	v0,s4,320
80104a40:	23a05100 	subu	s4,v0,s1
80104a44:	f000022a 	slti	v0,s0,240
80104a48:	04004014 	bnez	v0,0x80104a5c
80104a4c:	ceff822a 	slti	v0,s4,-50
80104a50:	f0008226 	addiu	v0,s4,240
80104a54:	23a05000 	subu	s4,v0,s0
80104a58:	ceff822a 	slti	v0,s4,-50
80104a5c:	00014014 	bnez	v0,0x80104e60
80104a60:	a0000224 	li	v0,160
80104a64:	23a85100 	subu	s5,v0,s1
80104a68:	78000224 	li	v0,120
80104a6c:	23b85000 	subu	s7,v0,s0
80104a70:	0400c392 	lbu	v1,4(s6)
80104a74:	01000224 	li	v0,1
80104a78:	4b006214 	bne	v1,v0,0x80104ba8
80104a7c:	2180c002 	move	s0,s6
80104a80:	0c80133c 	lui	s3,0x800c
80104a84:	44f5708e 	lw	s0,-2748(s3)
80104a88:	1469020c 	jal	0x8009a450
80104a8c:	06001224 	li	s2,6
80104a90:	1f004230 	andi	v0,v0,0x1f
80104a94:	21a08202 	addu	s4,s4,v0
80104a98:	0c000724 	li	a3,12
80104a9c:	2110e000 	move	v0,a3
80104aa0:	30009126 	addiu	s1,s4,48
80104aa4:	008c1100 	sll	s1,s1,0x10
80104aa8:	038c1100 	sra	s1,s1,0x10
80104aac:	2800a387 	lh	v1,40(sp)
80104ab0:	2a00a487 	lh	a0,42(sp)
80104ab4:	1000a2af 	sw	v0,16(sp)
80104ab8:	c0101500 	sll	v0,s5,0x3
80104abc:	23105500 	subu	v0,v0,s5
80104ac0:	c3100200 	sra	v0,v0,0x3
80104ac4:	1400b1af 	sw	s1,20(sp)
80104ac8:	1800b2af 	sw	s2,24(sp)
80104acc:	21184300 	addu	v1,v0,v1
80104ad0:	c0101700 	sll	v0,s7,0x3
80104ad4:	23105700 	subu	v0,v0,s7
80104ad8:	c3100200 	sra	v0,v0,0x3
80104adc:	21104400 	addu	v0,v0,a0
80104ae0:	21200002 	move	a0,s0
80104ae4:	002c0300 	sll	a1,v1,0x10
80104ae8:	032c0500 	sra	a1,a1,0x10
80104aec:	00340200 	sll	a2,v0,0x10
80104af0:	f535040c 	jal	0x8010d7d4
80104af4:	03340600 	sra	a2,a2,0x10
80104af8:	21204000 	move	a0,v0
80104afc:	20000724 	li	a3,32
80104b00:	2800a387 	lh	v1,40(sp)
80104b04:	2a00a587 	lh	a1,42(sp)
80104b08:	2110e000 	move	v0,a3
80104b0c:	1400b1af 	sw	s1,20(sp)
80104b10:	40881500 	sll	s1,s5,0x1
80104b14:	21883502 	addu	s1,s1,s5
80104b18:	1000a2af 	sw	v0,16(sp)
80104b1c:	c3101100 	sra	v0,s1,0x3
80104b20:	40801700 	sll	s0,s7,0x1
80104b24:	21801702 	addu	s0,s0,s7
80104b28:	1800b2af 	sw	s2,24(sp)
80104b2c:	21184300 	addu	v1,v0,v1
80104b30:	c3101000 	sra	v0,s0,0x3
80104b34:	21104500 	addu	v0,v0,a1
80104b38:	002c0300 	sll	a1,v1,0x10
80104b3c:	032c0500 	sra	a1,a1,0x10
80104b40:	00340200 	sll	a2,v0,0x10
80104b44:	f535040c 	jal	0x8010d7d4
80104b48:	03340600 	sra	a2,a2,0x10
80104b4c:	21204000 	move	a0,v0
80104b50:	30000724 	li	a3,48
80104b54:	2800a387 	lh	v1,40(sp)
80104b58:	2a00a587 	lh	a1,42(sp)
80104b5c:	2110e000 	move	v0,a3
80104b60:	1000a2af 	sw	v0,16(sp)
80104b64:	28008226 	addiu	v0,s4,40
80104b68:	00140200 	sll	v0,v0,0x10
80104b6c:	03140200 	sra	v0,v0,0x10
80104b70:	1400a2af 	sw	v0,20(sp)
80104b74:	07000224 	li	v0,7
80104b78:	43881100 	sra	s1,s1,0x1
80104b7c:	43801000 	sra	s0,s0,0x1
80104b80:	1800a2af 	sw	v0,24(sp)
80104b84:	21182302 	addu	v1,s1,v1
80104b88:	21100502 	addu	v0,s0,a1
80104b8c:	002c0300 	sll	a1,v1,0x10
80104b90:	032c0500 	sra	a1,a1,0x10
80104b94:	00340200 	sll	a2,v0,0x10
80104b98:	f535040c 	jal	0x8010d7d4
80104b9c:	03340600 	sra	a2,a2,0x10
80104ba0:	44f562ae 	sw	v0,-2748(s3)
80104ba4:	2180c002 	move	s0,s6
80104ba8:	801f113c 	lui	s1,0x1f80
80104bac:	84003426 	addiu	s4,s1,132
80104bb0:	801f123c 	lui	s2,0x1f80
80104bb4:	3400c28e 	lw	v0,52(s6)
80104bb8:	00000000 	nop
80104bbc:	a8004010 	beqz	v0,0x80104e60
80104bc0:	88005326 	addiu	s3,s2,136
80104bc4:	78ca000c 	jal	0x800329e0
80104bc8:	06000424 	li	a0,6
80104bcc:	21400000 	move	t0,zero
80104bd0:	21480001 	move	t1,t0
80104bd4:	21500001 	move	t2,t0
80104bd8:	00a8c848 	ctc2	t0,$21
80104bdc:	00b0c948 	ctc2	t1,$22
80104be0:	00b8ca48 	ctc2	t2,$23
80104be4:	2c0000ca 	lwc2	$0,44(s0)
80104be8:	300001ca 	lwc2	$1,48(s0)
80104bec:	3200c486 	lh	a0,50(s6)
80104bf0:	f3c5000c 	jal	0x800317cc
80104bf4:	00000000 	nop
80104bf8:	05004010 	beqz	v0,0x80104c10
80104bfc:	00000000 	nop
80104c00:	e0c5000c 	jal	0x80031780
80104c04:	2120c002 	move	a0,s6
80104c08:	7f370408 	j	0x8010ddfc
80104c0c:	00000000 	nop
80104c10:	8400238e 	lw	v1,132(s1)
80104c14:	5400c28e 	lw	v0,84(s6)
80104c18:	00000000 	nop
80104c1c:	18006200 	mult	v1,v0
80104c20:	12580000 	mflo	t3
80104c24:	5000c28e 	lw	v0,80(s6)
80104c28:	00000000 	nop
80104c2c:	18006200 	mult	v1,v0
80104c30:	02120b00 	srl	v0,t3,0x8
80104c34:	880042ae 	sw	v0,136(s2)
80104c38:	12180000 	mflo	v1
80104c3c:	02120300 	srl	v0,v1,0x8
80104c40:	1469020c 	jal	0x8009a450
80104c44:	840022ae 	sw	v0,132(s1)
80104c48:	2120c002 	move	a0,s6
80104c4c:	00010324 	li	v1,256
80104c50:	ff034230 	andi	v0,v0,0x3ff
80104c54:	5000c68e 	lw	a2,80(s6)
80104c58:	3400c58e 	lw	a1,52(s6)
80104c5c:	23186600 	subu	v1,v1,a2
80104c60:	00190300 	sll	v1,v1,0x4
80104c64:	21186200 	addu	v1,v1,v0
80104c68:	2fca000c 	jal	0x800328bc
80104c6c:	9000c3af 	sw	v1,144(s8)
80104c70:	2190c002 	move	s2,s6
80104c74:	21400000 	move	t0,zero
80104c78:	21480001 	move	t1,t0
80104c7c:	fc030a24 	li	t2,1020
80104c80:	3800c2ae 	sw	v0,56(s6)
80104c84:	00a8c848 	ctc2	t0,$21
80104c88:	00b0c948 	ctc2	t1,$22
80104c8c:	00b8ca48 	ctc2	t2,$23
80104c90:	78ca000c 	jal	0x800329e0
80104c94:	06000424 	li	a0,6
80104c98:	21a00000 	move	s4,zero
80104c9c:	00101724 	li	s7,4096
80104ca0:	801f023c 	lui	v0,0x1f80
80104ca4:	7c014294 	lhu	v0,380(v0)
80104ca8:	1180033c 	lui	v1,0x8011
80104cac:	40f10200 	sll	s8,v0,0x5
80104cb0:	801f023c 	lui	v0,0x1f80
80104cb4:	7c014494 	lhu	a0,380(v0)
80104cb8:	d40f020c 	jal	0x80083f50
80104cbc:	80210400 	sll	a0,a0,0x6
80104cc0:	c0810200 	sll	s0,v0,0x7
80104cc4:	03831000 	sra	s0,s0,0xc
80104cc8:	21801402 	addu	s0,s0,s4
80104ccc:	d40f020c 	jal	0x80083f50
80104cd0:	21200002 	move	a0,s0
80104cd4:	21200002 	move	a0,s0
80104cd8:	a00f020c 	jal	0x80083e80
80104cdc:	21b04000 	move	s6,v0
80104ce0:	21a84000 	move	s5,v0
80104ce4:	43121500 	sra	v0,s5,0x9
80104ce8:	0c004018 	blez	v0,0x80104d1c
80104cec:	00101324 	li	s3,4096
80104cf0:	1a00e202 	div	zero,s7,v0
80104cf4:	02004014 	bnez	v0,0x80104d00
80104cf8:	00000000 	nop
80104cfc:	0d000700 	break	0x7
80104d00:	ffff0124 	li	at,-1
80104d04:	04004114 	bne	v0,at,0x80104d18
80104d08:	0080013c 	lui	at,0x8000
80104d0c:	0200e116 	bne	s7,at,0x80104d18
80104d10:	00000000 	nop
80104d14:	0d000600 	break	0x6
80104d18:	12980000 	mflo	s3
80104d1c:	00000000 	nop
80104d20:	0010622a 	slti	v0,s3,4096
80104d24:	4a004010 	beqz	v0,0x80104e50
80104d28:	21880000 	move	s1,zero
80104d2c:	21803e02 	addu	s0,s1,s8
80104d30:	d40f020c 	jal	0x80083f50
80104d34:	21200002 	move	a0,s0
80104d38:	21200002 	move	a0,s0
80104d3c:	a00f020c 	jal	0x80083e80
80104d40:	21804000 	move	s0,v0
80104d44:	4e004386 	lh	v1,78(s2)
80104d48:	00000000 	nop
80104d4c:	1800a302 	mult	s5,v1
80104d50:	12580000 	mflo	t3
	...
80104d5c:	1800c302 	mult	s6,v1
80104d60:	12200000 	mflo	a0
80104d64:	031b0b00 	sra	v1,t3,0xc
80104d68:	00000000 	nop
80104d6c:	18000302 	mult	s0,v1
80104d70:	12580000 	mflo	t3
	...
80104d7c:	18004300 	mult	v0,v1
80104d80:	032b0400 	sra	a1,a0,0xc
80104d84:	3200a5a7 	sh	a1,50(sp)
80104d88:	031b0b00 	sra	v1,t3,0xc
80104d8c:	3000a3a7 	sh	v1,48(sp)
80104d90:	12100000 	mflo	v0
80104d94:	03230200 	sra	a0,v0,0xc
80104d98:	3400a4a7 	sh	a0,52(sp)
80104d9c:	2c004296 	lhu	v0,44(s2)
80104da0:	00000000 	nop
80104da4:	21186200 	addu	v1,v1,v0
80104da8:	3000a3a7 	sh	v1,48(sp)
80104dac:	2e004296 	lhu	v0,46(s2)
80104db0:	00000000 	nop
80104db4:	2128a200 	addu	a1,a1,v0
80104db8:	3200a5a7 	sh	a1,50(sp)
80104dbc:	30004296 	lhu	v0,48(s2)
80104dc0:	00000000 	nop
80104dc4:	21208200 	addu	a0,a0,v0
80104dc8:	3400a4a7 	sh	a0,52(sp)
80104dcc:	5000428e 	lw	v0,80(s2)
80104dd0:	00000000 	nop
80104dd4:	00110200 	sll	v0,v0,0x4
80104dd8:	2380e202 	subu	s0,s7,v0
80104ddc:	3000a227 	addiu	v0,sp,48
80104de0:	000040c8 	lwc2	$0,0(v0)
80104de4:	040041c8 	lwc2	$1,4(v0)
80104de8:	f3c5000c 	jal	0x800317cc
80104dec:	21200000 	move	a0,zero
80104df0:	12004014 	bnez	v0,0x80104e3c
80104df4:	801f083c 	lui	t0,0x1f80
80104df8:	84000825 	addiu	t0,t0,132
80104dfc:	801f093c 	lui	t1,0x1f80
80104e00:	0000028d 	lw	v0,0(t0)
80104e04:	88002925 	addiu	t1,t1,136
80104e08:	83100200 	sra	v0,v0,0x2
80104e0c:	000002ad 	sw	v0,0(t0)
80104e10:	1469020c 	jal	0x8009a450
80104e14:	000022ad 	sw	v0,0(t1)
80104e18:	1180043c 	lui	a0,0x8011
80104e1c:	34e58424 	addiu	a0,a0,-6860
80104e20:	ff074230 	andi	v0,v0,0x7ff
80104e24:	21100202 	addu	v0,s0,v0
80104e28:	801f0a3c 	lui	t2,0x1f80
80104e2c:	fcff858c 	lw	a1,-4(a0)
80104e30:	90004a25 	addiu	t2,t2,144
80104e34:	939e000c 	jal	0x80027a4c
80104e38:	000042ad 	sw	v0,0(t2)
80104e3c:	21883302 	addu	s1,s1,s3
80104e40:	21103302 	addu	v0,s1,s3
80104e44:	00104228 	slti	v0,v0,4096
80104e48:	b9ff4014 	bnez	v0,0x80104d30
80104e4c:	21803e02 	addu	s0,s1,s8
80104e50:	00019426 	addiu	s4,s4,256
80104e54:	0008822a 	slti	v0,s4,2048
80104e58:	96ff4014 	bnez	v0,0x80104cb4
80104e5c:	801f023c 	lui	v0,0x1f80
80104e60:	6400bf8f 	lw	ra,100(sp)
80104e64:	6000be8f 	lw	s8,96(sp)
80104e68:	5c00b78f 	lw	s7,92(sp)
80104e6c:	5800b68f 	lw	s6,88(sp)
80104e70:	5400b58f 	lw	s5,84(sp)
80104e74:	5000b48f 	lw	s4,80(sp)
80104e78:	4c00b38f 	lw	s3,76(sp)
80104e7c:	4800b28f 	lw	s2,72(sp)
80104e80:	4400b18f 	lw	s1,68(sp)
80104e84:	4000b08f 	lw	s0,64(sp)
80104e88:	0800e003 	jr	ra
80104e8c:	6800bd27 	addiu	sp,sp,104
80104e90:	e8ffbd27 	addiu	sp,sp,-24
80104e94:	1000bfaf 	sw	ra,16(sp)
80104e98:	04008390 	lbu	v1,4(a0)
80104e9c:	01000524 	li	a1,1
80104ea0:	0e006510 	beq	v1,a1,0x80104edc
80104ea4:	02006228 	slti	v0,v1,2
80104ea8:	05004010 	beqz	v0,0x80104ec0
80104eac:	00000000 	nop
80104eb0:	08006010 	beqz	v1,0x80104ed4
80104eb4:	00000000 	nop
80104eb8:	b4370408 	j	0x8010ded0
80104ebc:	00000000 	nop
80104ec0:	04006228 	slti	v0,v1,4
80104ec4:	1b004010 	beqz	v0,0x80104f34
80104ec8:	00000000 	nop
80104ecc:	b2370408 	j	0x8010dec8
80104ed0:	00000000 	nop
80104ed4:	040085a0 	sb	a1,4(a0)
80104ed8:	4e0080a4 	sh	zero,78(a0)
80104edc:	4e008584 	lh	a1,78(a0)
80104ee0:	4e008394 	lhu	v1,78(a0)
80104ee4:	01000224 	li	v0,1
80104ee8:	010082a0 	sb	v0,1(a0)
80104eec:	d601a228 	slti	v0,a1,470
80104ef0:	05004010 	beqz	v0,0x80104f08
80104ef4:	f4010224 	li	v0,500
80104ef8:	23104500 	subu	v0,v0,a1
80104efc:	83100200 	sra	v0,v0,0x2
80104f00:	aa370408 	j	0x8010dea8
80104f04:	21106200 	addu	v0,v1,v0
80104f08:	06006224 	addiu	v0,v1,6
80104f0c:	4e0082a4 	sh	v0,78(a0)
80104f10:	4e008284 	lh	v0,78(a0)
80104f14:	00000000 	nop
80104f18:	e8034228 	slti	v0,v0,1000
80104f1c:	05004014 	bnez	v0,0x80104f34
80104f20:	02000224 	li	v0,2
80104f24:	b4370408 	j	0x8010ded0
80104f28:	040082a0 	sb	v0,4(a0)
80104f2c:	89e9010c 	jal	0x8007a624
80104f30:	00000000 	nop
80104f34:	1000bf8f 	lw	ra,16(sp)
80104f38:	00000000 	nop
80104f3c:	0800e003 	jr	ra
80104f40:	1800bd27 	addiu	sp,sp,24
80104f44:	e8ffbd27 	addiu	sp,sp,-24
80104f48:	1000bfaf 	sw	ra,16(sp)
80104f4c:	04008390 	lbu	v1,4(a0)
80104f50:	01000524 	li	a1,1
80104f54:	0e006510 	beq	v1,a1,0x80104f90
80104f58:	02006228 	slti	v0,v1,2
80104f5c:	05004010 	beqz	v0,0x80104f74
80104f60:	00000000 	nop
80104f64:	08006010 	beqz	v1,0x80104f88
80104f68:	00000000 	nop
80104f6c:	d6370408 	j	0x8010df58
80104f70:	00000000 	nop
80104f74:	04006228 	slti	v0,v1,4
80104f78:	10004010 	beqz	v0,0x80104fbc
80104f7c:	00000000 	nop
80104f80:	d4370408 	j	0x8010df50
80104f84:	00000000 	nop
80104f88:	040085a0 	sb	a1,4(a0)
80104f8c:	580080ac 	sw	zero,88(a0)
80104f90:	5800838c 	lw	v1,88(a0)
80104f94:	01000224 	li	v0,1
80104f98:	010082a0 	sb	v0,1(a0)
80104f9c:	00100224 	li	v0,4096
80104fa0:	23104300 	subu	v0,v0,v1
80104fa4:	c2100200 	srl	v0,v0,0x3
80104fa8:	21186200 	addu	v1,v1,v0
80104fac:	d6370408 	j	0x8010df58
80104fb0:	580083ac 	sw	v1,88(a0)
80104fb4:	89e9010c 	jal	0x8007a624
80104fb8:	00000000 	nop
80104fbc:	1000bf8f 	lw	ra,16(sp)
80104fc0:	00000000 	nop
80104fc4:	0800e003 	jr	ra
80104fc8:	1800bd27 	addiu	sp,sp,24
80104fcc:	e8ffbd27 	addiu	sp,sp,-24
80104fd0:	00240400 	sll	a0,a0,0x10
80104fd4:	03240400 	sra	a0,a0,0x10
80104fd8:	06008010 	beqz	a0,0x80104ff4
80104fdc:	1000bfaf 	sw	ra,16(sp)
80104fe0:	01000224 	li	v0,1
80104fe4:	08008210 	beq	a0,v0,0x80105008
80104fe8:	1180023c 	lui	v0,0x8011
80104fec:	fd370408 	j	0x8010dff4
80104ff0:	00000000 	nop
80104ff4:	1180023c 	lui	v0,0x8011
80104ff8:	a8e54224 	addiu	v0,v0,-6744
80104ffc:	03000724 	li	a3,3
80105000:	ec370408 	j	0x8010dfb0
80105004:	21300000 	move	a2,zero
80105008:	c0e54224 	addiu	v0,v0,-6720
8010500c:	0b000724 	li	a3,11
80105010:	d3030624 	li	a2,979
80105014:	801f043c 	lui	a0,0x1f80
80105018:	001c0500 	sll	v1,a1,0x10
8010501c:	831b0300 	sra	v1,v1,0xe
80105020:	21186200 	addu	v1,v1,v0
80105024:	1c02858c 	lw	a1,540(a0)
80105028:	2120e000 	move	a0,a3
8010502c:	00006294 	lhu	v0,0(v1)
80105030:	21380000 	move	a3,zero
80105034:	40110200 	sll	v0,v0,0x5
80105038:	2128a200 	addu	a1,a1,v0
8010503c:	40110600 	sll	v0,a2,0x5
80105040:	02006694 	lhu	a2,2(v1)
80105044:	2128a200 	addu	a1,a1,v0
80105048:	0100c624 	addiu	a2,a2,1
8010504c:	40310600 	sll	a2,a2,0x5
80105050:	aa74000c 	jal	0x8001d2a8
80105054:	2130a600 	addu	a2,a1,a2
80105058:	1000bf8f 	lw	ra,16(sp)
8010505c:	00000000 	nop
80105060:	0800e003 	jr	ra
80105064:	1800bd27 	addiu	sp,sp,24
80105068:	83030600 	sra	zero,a2,0xe
	...
80105074:	3c1a0780 	lb	a3,6716(zero)
80105078:	01046700 	.word	0x670401
8010507c:	c01180fd 	.word	0xfd8011c0
80105080:	00090200 	sll	at,v0,0x4
80105084:	b8c61080 	lb	s0,-14664(zero)
80105088:	ff000000 	.word	0xff
	...
80105098:	ff000000 	.word	0xff
	...
801050a8:	04e01080 	lb	s0,-8188(zero)
801050ac:	34e01080 	lb	s0,-8140(zero)
801050b0:	00040104 	b	0x801060b4
801050b4:	02040304 	.word	0x4030402
801050b8:	02040104 	b	0x801060c4
801050bc:	ff0c0000 	.word	0xcff
801050c0:	7a02f401 	.word	0x1f4027a
801050c4:	6f01e900 	.word	0xe9016f
801050c8:	43048504 	.word	0x4850443
801050cc:	a700e900 	.word	0xe900a7
801050d0:	0b014d01 	.word	0x14d010b
801050d4:	6f01b101 	.word	0x1b1016f
801050d8:	d3011602 	.word	0x21601d3
801050dc:	58027a02 	.word	0x27a0258
801050e0:	bd021602 	.word	0x21602bd
801050e4:	9001e900 	.word	0xe90190
801050e8:	43048504 	.word	0x4850443
801050ec:	c800ea00 	.word	0xea00c8
801050f0:	2c016f01 	.word	0x16f012c
801050f4:	b101d301 	.word	0x1d301b1
801050f8:	16025802 	.word	0x2580216
801050fc:	7a02bd02 	.word	0x2bd027a
80105100:	fc025602 	.word	0x25602fc
80105104:	b001e900 	.word	0xe901b0
80105108:	4304a600 	.word	0xa60443
8010510c:	0a014d01 	.word	0x14d010a
80105110:	b001f201 	.word	0x1f201b0
80105114:	14025602 	.word	0x2560214
80105118:	9802ba02 	.word	0x2ba0298
8010511c:	fc023e03 	.word	0x33e02fc
80105120:	1a2b541e 	.word	0x1e542b1a
80105124:	af15090d 	jal	0x842456bc
80105128:	4304c700 	.word	0xc70443
8010512c:	2b018f01 	.word	0x18f012b
80105130:	d109130e 	jal	0x884c2744
80105134:	5516971a 	.word	0x1a971655
80105138:	d9221a2b 	slti	k0,t8,8921
8010513c:	5c2f9e37 	ori	s8,gp,0x2f5c
80105140:	4ce01080 	lb	s0,-8116(zero)
80105144:	5ce01080 	lb	s0,-8100(zero)
80105148:	7003fa00 	.word	0xfa0370
8010514c:	4ce01080 	lb	s0,-8116(zero)
80105150:	5ce01080 	lb	s0,-8100(zero)
80105154:	7003fa00 	.word	0xfa0370
80105158:	4ce01080 	lb	s0,-8116(zero)
8010515c:	5ce01080 	lb	s0,-8100(zero)
80105160:	7003fa00 	.word	0xfa0370
80105164:	4ce01080 	lb	s0,-8116(zero)
80105168:	5ce01080 	lb	s0,-8100(zero)
8010516c:	7003fa00 	.word	0xfa0370
80105170:	4ce01080 	lb	s0,-8116(zero)
80105174:	5ce01080 	lb	s0,-8100(zero)
80105178:	7003fa00 	.word	0xfa0370
8010517c:	4ce01080 	lb	s0,-8116(zero)
80105180:	5ce01080 	lb	s0,-8100(zero)
80105184:	7003fa00 	.word	0xfa0370
80105188:	4ce01080 	lb	s0,-8116(zero)
8010518c:	5ce01080 	lb	s0,-8100(zero)
80105190:	7003fa00 	.word	0xfa0370
80105194:	4ce01080 	lb	s0,-8116(zero)
80105198:	5ce01080 	lb	s0,-8100(zero)
8010519c:	7003fa00 	.word	0xfa0370
801051a0:	4ce01080 	lb	s0,-8116(zero)
801051a4:	5ce01080 	lb	s0,-8100(zero)
801051a8:	7003fa00 	.word	0xfa0370
801051ac:	ffff0000 	.word	0xffff
	...
801051bc:	48e11080 	lb	s0,-7864(zero)
801051c0:	0100733b 	xori	s3,k1,0x1
801051c4:	07010000 	.word	0x107
801051c8:	9f07d0ff 	.word	0xffd0079f
801051cc:	00090000 	sll	at,zero,0x4
801051d0:	40002002 	.word	0x2200040
801051d4:	00030103 	.word	0x3010300
801051d8:	02030303 	.word	0x3030302
801051dc:	04030503 	.word	0x3050304
801051e0:	0603ff0e 	jal	0x8bfc0c18
801051e4:	241c2524 	addiu	a1,at,7204
801051e8:	46304838 	xori	t0,v0,0x3046
801051ec:	26302524 	addiu	a1,at,12326
801051f0:	231c062c 	sltiu	a2,zero,7203
801051f4:	262c2528 	slti	a1,at,11302
801051f8:	24242324 	addiu	v1,at,9252
801051fc:	421c2324 	addiu	v1,at,7234
80105200:	00000000 	nop
80105204:	231c241c 	.word	0x1c241c23
80105208:	25244630 	andi	a2,v0,0x2425
8010520c:	48382630 	andi	a2,at,0x3848
80105210:	25242324 	addiu	v1,at,9253
80105214:	062c262c 	sltiu	a2,at,11270
80105218:	25282424 	addiu	a0,at,10277
8010521c:	2324421c 	.word	0x1c422423
80105220:	00000000 	nop
80105224:	2524231c 	.word	0x1c232425
80105228:	241c2524 	addiu	a1,at,7204
8010522c:	46304838 	xori	t0,v0,0x3046
80105230:	2630421c 	.word	0x1c423026
80105234:	2324062c 	sltiu	a2,zero,9251
80105238:	262c2528 	slti	a1,at,11302
8010523c:	24242324 	addiu	v1,at,9252
80105240:	00000000 	nop
80105244:	26302524 	addiu	a1,at,12326
80105248:	231c241c 	.word	0x1c241c23
8010524c:	25244630 	andi	a2,v0,0x2425
80105250:	48382324 	addiu	v1,at,14408
80105254:	421c2324 	addiu	v1,at,7234
80105258:	062c262c 	sltiu	a2,at,11270
8010525c:	25282424 	addiu	a0,at,10277
80105260:	00000000 	nop
80105264:	48382630 	andi	a2,at,0x3848
80105268:	2524231c 	.word	0x1c232425
8010526c:	241c2524 	addiu	a1,at,7204
80105270:	46302424 	addiu	a0,at,12358
80105274:	2324421c 	.word	0x1c422423
80105278:	2324062c 	sltiu	a2,zero,9251
8010527c:	262c2528 	slti	a1,at,11302
80105280:	00000000 	nop
80105284:	46304838 	xori	t0,v0,0x3046
80105288:	26302524 	addiu	a1,at,12326
8010528c:	231c241c 	.word	0x1c241c23
80105290:	25242528 	slti	a1,at,9253
80105294:	24242324 	addiu	v1,at,9252
80105298:	421c2324 	addiu	v1,at,7234
8010529c:	062c262c 	sltiu	a2,at,11270
801052a0:	00000000 	nop
801052a4:	25244630 	andi	a2,v0,0x2425
801052a8:	48382630 	andi	a2,at,0x3848
801052ac:	2524231c 	.word	0x1c232425
801052b0:	241c262c 	sltiu	a2,at,7204
801052b4:	25282424 	addiu	a0,at,10277
801052b8:	2324421c 	.word	0x1c422423
801052bc:	2324062c 	sltiu	a2,zero,9251
801052c0:	00000000 	nop
801052c4:	70e11080 	lb	s0,-7824(zero)
801052c8:	80e11080 	lb	s0,-7808(zero)
801052cc:	e0016a00 	.word	0x6a01e0
801052d0:	ffff0000 	.word	0xffff
801052d4:	00000000 	nop
801052d8:	08000000 	jr	zero
801052dc:	90000000 	.word	0x90
801052e0:	00000900 	sll	zero,t1,0x0
801052e4:	000070ff 	.word	0xff700000
801052e8:	00000000 	nop
801052ec:	0a000000 	.word	0xa
801052f0:	31100000 	.word	0x1031
801052f4:	0000b20c 	jal	0x82c80000
801052f8:	34100000 	.word	0x1034
801052fc:	000000fc 	.word	0xfc000000
80105300:	0d100100 	break	0x1,0x40
80105304:	00009a00 	.word	0x9a0000
80105308:	3b100080 	lb	zero,4155(zero)
8010530c:	00000000 	nop
80105310:	3e100000 	.word	0x103e
80105314:	b4b81080 	lb	s0,-18252(zero)
80105318:	00100100 	sll	v0,at,0x0
8010531c:	00000000 	nop
80105320:	3e100000 	.word	0x103e
80105324:	24ba1080 	lb	s0,-17884(zero)
80105328:	00100100 	sll	v0,at,0x0
8010532c:	01000000 	.word	0x1
80105330:	00100100 	sll	v0,at,0x0
80105334:	02000000 	srl	zero,zero,0x0
80105338:	39100080 	lb	zero,4153(zero)
8010533c:	0400b400 	sllv	zero,s4,a1
80105340:	3e100000 	.word	0x103e
80105344:	20bb1080 	lb	s0,-17632(zero)
80105348:	39100080 	lb	zero,4153(zero)
8010534c:	00000200 	sll	zero,v0,0x0
80105350:	00100100 	sll	v0,at,0x0
80105354:	03000000 	sra	zero,zero,0x0
80105358:	3e100000 	.word	0x103e
8010535c:	fcbb1080 	lb	s0,-17412(zero)
80105360:	3e100000 	.word	0x103e
80105364:	9cbc1080 	lb	s0,-17252(zero)
80105368:	3e100000 	.word	0x103e
8010536c:	74b91080 	lb	s0,-18060(zero)
80105370:	0c100000 	syscall	0x40
80105374:	8d000100 	break	0x1,0x2
80105378:	37100000 	.word	0x1037
8010537c:	b9000400 	.word	0x400b9
80105380:	05101e00 	.word	0x1e1005
80105384:	00000000 	nop
80105388:	0c100000 	syscall	0x40
8010538c:	8d000200 	break	0x2,0x2
80105390:	05101e00 	.word	0x1e1005
80105394:	00000000 	nop
80105398:	0c100000 	syscall	0x40
8010539c:	8d000300 	break	0x3,0x2
801053a0:	05101e00 	.word	0x1e1005
801053a4:	00000000 	nop
801053a8:	0c100000 	syscall	0x40
801053ac:	8d000400 	break	0x4,0x2
801053b0:	05101e00 	.word	0x1e1005
801053b4:	00000000 	nop
801053b8:	0c100000 	syscall	0x40
801053bc:	8d000500 	break	0x5,0x2
801053c0:	05101e00 	.word	0x1e1005
801053c4:	00000000 	nop
801053c8:	0c100000 	syscall	0x40
801053cc:	8d000600 	break	0x6,0x2
801053d0:	05103c00 	.word	0x3c1005
801053d4:	00000000 	nop
801053d8:	3e100000 	.word	0x103e
801053dc:	ccb91080 	lb	s0,-17972(zero)
801053e0:	05505a00 	.word	0x5a5005
	...
801053ec:	383e0a80 	lb	t2,15928(zero)
801053f0:	01000200 	.word	0x20001
801053f4:	03000400 	sra	zero,a0,0x0
801053f8:	05000000 	.word	0x5
801053fc:	32003300 	.word	0x330032
80105400:	34003500 	.word	0x350034
80105404:	36000000 	.word	0x36
80105408:	01000400 	.word	0x40001
8010540c:	02000500 	srl	zero,a1,0x0
80105410:	0300c047 	c1	0x1c00003
80105414:	0a100000 	.word	0x100a
80105418:	00000000 	nop
8010541c:	18100000 	.word	0x1018
80105420:	03000000 	sra	zero,zero,0x0
80105424:	0d100100 	break	0x1,0x40
80105428:	00009a00 	.word	0x9a0000
8010542c:	3b100080 	lb	zero,4155(zero)
80105430:	00000000 	nop
80105434:	3e100000 	.word	0x103e
80105438:	f8ca1080 	lb	s0,-13576(zero)
8010543c:	01100180 	lb	at,4097(zero)
80105440:	04000200 	sllv	zero,v0,zero
80105444:	3a500080 	lb	zero,20538(zero)
80105448:	0600ba00 	srlv	zero,k0,a1
8010544c:	00000000 	nop
80105450:	383e0a80 	lb	t2,15928(zero)
80105454:	fd11f6fb 	.word	0xfbf611fd
80105458:	1204a20e 	jal	0x8a881048
8010545c:	a1fcfd09 	j	0x87f7f284
80105460:	0a100000 	.word	0x100a
80105464:	00000000 	nop
80105468:	0c100000 	syscall	0x40
8010546c:	8c000200 	syscall	0x802
80105470:	06100000 	srlv	v0,zero,zero
80105474:	8c000300 	syscall	0xc02
80105478:	18100100 	.word	0x11018
8010547c:	03000000 	sra	zero,zero,0x0
80105480:	0d100100 	break	0x1,0x40
80105484:	00009a00 	.word	0x9a0000
80105488:	3a100280 	lb	v0,4154(zero)
8010548c:	00000000 	nop
80105490:	01100180 	lb	at,4097(zero)
80105494:	05000200 	.word	0x20005
80105498:	3b100081 	lb	zero,4155(t0)
8010549c:	000d050d 	jal	0x84143400
801054a0:	39100080 	lb	zero,4153(zero)
801054a4:	0d00c400 	break	0xc4
801054a8:	15300300 	.word	0x33015
801054ac:	f0e31080 	lb	s0,-7184(zero)
801054b0:	ffff2d00 	.word	0x2dffff
801054b4:	00000000 	nop
801054b8:	05101e00 	.word	0x1e1005
801054bc:	00000000 	nop
801054c0:	18100100 	.word	0x11018
801054c4:	03000000 	sra	zero,zero,0x0
801054c8:	01100180 	lb	at,4097(zero)
801054cc:	06000200 	srlv	zero,v0,zero
801054d0:	3a500080 	lb	zero,20538(zero)
801054d4:	0600ba00 	srlv	zero,k0,a1
801054d8:	00000000 	nop
801054dc:	383e0a80 	lb	t2,15928(zero)
801054e0:	0303000d 	jal	0x84000c0c
801054e4:	80fd0009 	j	0x8403f600
801054e8:	09000000 	jalr	zero,zero
801054ec:	00000000 	nop
801054f0:	28a21080 	lb	s0,-24024(zero)
801054f4:	01048007 	bltz	gp,0x801064fc
801054f8:	c0fc7408 	j	0x81d3f300
801054fc:	0c000000 	syscall
80105500:	00000000 	nop
80105504:	d8a51080 	lb	s0,-23080(zero)
80105508:	01043309 	j	0x84cc1004
8010550c:	80fd400a 	j	0x8903f600
80105510:	66005a00 	.word	0x5a0066
80105514:	00000000 	nop
80105518:	e0c21080 	lb	s0,-15648(zero)
8010551c:	0104840a 	j	0x8a101004
80105520:	80fd400a 	j	0x8903f600
80105524:	66015a00 	.word	0x5a0166
80105528:	00000000 	nop
8010552c:	e0c21080 	lb	s0,-15648(zero)
80105530:	0104250c 	jal	0x80941004
80105534:	80fd400a 	j	0x8903f600
80105538:	66025a00 	.word	0x5a0266
8010553c:	00000000 	nop
80105540:	e0c21080 	lb	s0,-15648(zero)
80105544:	0104110f 	jal	0x8c441004
80105548:	80fd400a 	j	0x8903f600
8010554c:	66035a00 	.word	0x5a0366
80105550:	00000000 	nop
80105554:	e0c21080 	lb	s0,-15648(zero)
80105558:	0104e010 	beqz	a3,0x80106560
8010555c:	80fd400a 	j	0x8903f600
80105560:	66045a00 	.word	0x5a0466
80105564:	00000000 	nop
80105568:	e0c21080 	lb	s0,-15648(zero)
8010556c:	0204000d 	jal	0x84001008
80105570:	1bfb050d 	jal	0x8417ec6c
80105574:	65050000 	.word	0x565
80105578:	00000000 	nop
8010557c:	64b61080 	lb	s0,-18844(zero)
80105580:	ff000000 	.word	0xff
	...
80105594:	373b0d00 	.word	0xd3b37
80105598:	f908fa09 	j	0x87e823e4
8010559c:	85c58304 	.word	0x483c585
801055a0:	e919e919 	.word	0x19e919e9
801055a4:	85c587c5 	lwc1	$f7,-14971(t4)
801055a8:	3f3e0e00 	.word	0xe3e3f
801055ac:	e818e818 	.word	0x18e818e8
801055b0:	05058380 	lb	v1,1285(a0)
801055b4:	e818e818 	.word	0x18e818e8
801055b8:	05058380 	lb	v1,1285(a0)
801055bc:	e818e818 	.word	0x18e818e8
801055c0:	35058380 	lb	v1,1333(a0)
801055c4:	e818e818 	.word	0x18e818e8
801055c8:	35058380 	lb	v1,1333(a0)
801055cc:	e818e818 	.word	0x18e818e8
801055d0:	65058380 	lb	v1,1381(a0)
801055d4:	e818e818 	.word	0x18e818e8
801055d8:	650583c0 	lwc0	$3,1381(a0)
801055dc:	68cd1080 	lb	s0,-12952(zero)
801055e0:	c4ce1080 	lb	s0,-12604(zero)
801055e4:	00000000 	nop
801055e8:	2cde1080 	lb	s0,-8660(zero)
801055ec:	b0d01080 	lb	s0,-12112(zero)
801055f0:	00000000 	nop
801055f4:	e0de1080 	lb	s0,-8480(zero)
801055f8:	0cd31080 	lb	s0,-11508(zero)
801055fc:	00000000 	nop
80105600:	d8d51080 	lb	s0,-10792(zero)
80105604:	10d91080 	lb	s0,-9968(zero)
80105608:	44e51080 	lb	s0,-6844(zero)
8010560c:	00001e00 	sll	zero,s8,0x0
80105610:	1e001e00 	.word	0x1e001e
80105614:	3c001e00 	.word	0x1e003c
80105618:	5a001e00 	.word	0x1e005a
8010561c:	78001e00 	.word	0x1e0078
80105620:	96001e00 	.word	0x1e0096
80105624:	00001100 	sll	zero,s1,0x0
80105628:	11002200 	.word	0x220011
8010562c:	33001c00 	.word	0x1c0033
80105630:	4f001600 	.word	0x16004f
80105634:	65002a00 	.word	0x2a0065
80105638:	8f002400 	.word	0x24008f
8010563c:	b3001f00 	.word	0x1f00b3
80105640:	d2000e00 	.word	0xe00d2
80105644:	e0001400 	.word	0x1400e0
80105648:	f4000a00 	.word	0xa00f4
8010564c:	fe000e00 	.word	0xe00fe
80105650:	0c011400 	syscall	0x5004
80105654:	20011b00 	.word	0x1b0120
80105658:	3b010700 	.word	0x7013b
8010565c:	42011700 	srl	zero,s7,0x5
	...
80105668:	003640e1 	swc0	c0_index,13824(t2)
	...
