
rom/extracted/BIN/A0B.BIN:     file format binary


Disassembly of section .data:

80100000 <.data>:
80100000:	15000000 	.word	0x15
80100004:	0ca61080 	lb	s0,-23028(zero)
80100008:	4ca61080 	lb	s0,-22964(zero)
8010000c:	24a61080 	lb	s0,-23004(zero)
80100010:	24a61080 	lb	s0,-23004(zero)
80100014:	0ca61080 	lb	s0,-23028(zero)
80100018:	0ca61080 	lb	s0,-23028(zero)
8010001c:	0ca61080 	lb	s0,-23028(zero)
80100020:	24a61080 	lb	s0,-23004(zero)
80100024:	24a61080 	lb	s0,-23004(zero)
80100028:	4ca61080 	lb	s0,-22964(zero)
8010002c:	4ca61080 	lb	s0,-22964(zero)
80100030:	24a61080 	lb	s0,-23004(zero)
80100034:	74b31080 	lb	s0,-19596(zero)
80100038:	18b21080 	lb	s0,-19944(zero)
8010003c:	80b11080 	lb	s0,-20096(zero)
80100040:	18b21080 	lb	s0,-19944(zero)
80100044:	18b21080 	lb	s0,-19944(zero)
80100048:	18b21080 	lb	s0,-19944(zero)
8010004c:	74b31080 	lb	s0,-19596(zero)
80100050:	18b21080 	lb	s0,-19944(zero)
80100054:	dcca1080 	lb	s0,-13604(zero)
80100058:	e8ca1080 	lb	s0,-13592(zero)
8010005c:	f4ca1080 	lb	s0,-13580(zero)
80100060:	04cb1080 	lb	s0,-13564(zero)
80100064:	14cb1080 	lb	s0,-13548(zero)
80100068:	00000000 	nop
8010006c:	eccb1080 	lb	s0,-13332(zero)
80100070:	eccb1080 	lb	s0,-13332(zero)
80100074:	d4ce1080 	lb	s0,-12588(zero)
80100078:	eccb1080 	lb	s0,-13332(zero)
8010007c:	eccb1080 	lb	s0,-13332(zero)
80100080:	d4ce1080 	lb	s0,-12588(zero)
80100084:	24ce1080 	lb	s0,-12764(zero)
80100088:	38ce1080 	lb	s0,-12744(zero)
8010008c:	40ce1080 	lb	s0,-12736(zero)
80100090:	54ce1080 	lb	s0,-12716(zero)
80100094:	54ce1080 	lb	s0,-12716(zero)
80100098:	68ce1080 	lb	s0,-12696(zero)
8010009c:	10d11080 	lb	s0,-12016(zero)
801000a0:	24d11080 	lb	s0,-11996(zero)
801000a4:	2cd11080 	lb	s0,-11988(zero)
801000a8:	40d11080 	lb	s0,-11968(zero)
801000ac:	40d11080 	lb	s0,-11968(zero)
801000b0:	58d11080 	lb	s0,-11944(zero)
801000b4:	30d21080 	lb	s0,-11728(zero)
801000b8:	50d21080 	lb	s0,-11696(zero)
801000bc:	dcd21080 	lb	s0,-11556(zero)
801000c0:	60d31080 	lb	s0,-11424(zero)
801000c4:	10d71080 	lb	s0,-10480(zero)
801000c8:	90d71080 	lb	s0,-10352(zero)
801000cc:	d8d31080 	lb	s0,-11304(zero)
801000d0:	d8d31080 	lb	s0,-11304(zero)
801000d4:	dcd51080 	lb	s0,-10788(zero)
801000d8:	d8d31080 	lb	s0,-11304(zero)
801000dc:	c0d41080 	lb	s0,-11072(zero)
801000e0:	dcd51080 	lb	s0,-10788(zero)
801000e4:	94d51080 	lb	s0,-10860(zero)
801000e8:	94d51080 	lb	s0,-10860(zero)
801000ec:	94d51080 	lb	s0,-10860(zero)
801000f0:	b4d51080 	lb	s0,-10828(zero)
801000f4:	c8d51080 	lb	s0,-10808(zero)
801000f8:	94d51080 	lb	s0,-10860(zero)
801000fc:	70d51080 	lb	s0,-10896(zero)
80100100:	94d51080 	lb	s0,-10860(zero)
80100104:	94d51080 	lb	s0,-10860(zero)
80100108:	b4d51080 	lb	s0,-10828(zero)
8010010c:	c8d51080 	lb	s0,-10808(zero)
80100110:	94d51080 	lb	s0,-10860(zero)
80100114:	d8d71080 	lb	s0,-10280(zero)
80100118:	e0d71080 	lb	s0,-10272(zero)
8010011c:	e0d71080 	lb	s0,-10272(zero)
80100120:	2cd81080 	lb	s0,-10196(zero)
80100124:	2cd81080 	lb	s0,-10196(zero)
80100128:	34d81080 	lb	s0,-10188(zero)
8010012c:	e0d81080 	lb	s0,-10016(zero)
80100130:	50da1080 	lb	s0,-9648(zero)
80100134:	20db1080 	lb	s0,-9440(zero)
80100138:	80dd1080 	lb	s0,-8832(zero)
8010013c:	34e01080 	lb	s0,-8140(zero)
80100140:	00000000 	nop
80100144:	7ce21080 	lb	s0,-7556(zero)
80100148:	20e61080 	lb	s0,-6624(zero)
8010014c:	7ce21080 	lb	s0,-7556(zero)
80100150:	4ce81080 	lb	s0,-6068(zero)
80100154:	7ce21080 	lb	s0,-7556(zero)
80100158:	7ce21080 	lb	s0,-7556(zero)
8010015c:	7ce21080 	lb	s0,-7556(zero)
80100160:	7ce21080 	lb	s0,-7556(zero)
80100164:	7ce21080 	lb	s0,-7556(zero)
80100168:	7ce21080 	lb	s0,-7556(zero)
8010016c:	7ce21080 	lb	s0,-7556(zero)
80100170:	7ce21080 	lb	s0,-7556(zero)
80100174:	7ce81080 	lb	s0,-6020(zero)
80100178:	90e91080 	lb	s0,-5744(zero)
8010017c:	54ea1080 	lb	s0,-5548(zero)
80100180:	f4ea1080 	lb	s0,-5388(zero)
80100184:	28eb1080 	lb	s0,-5336(zero)
80100188:	5ced1080 	lb	s0,-4772(zero)
8010018c:	28eb1080 	lb	s0,-5336(zero)
80100190:	a4ed1080 	lb	s0,-4700(zero)
80100194:	78ee1080 	lb	s0,-4488(zero)
80100198:	bcee1080 	lb	s0,-4420(zero)
8010019c:	8cf11080 	lb	s0,-3700(zero)
801001a0:	e8f11080 	lb	s0,-3608(zero)
801001a4:	3cf21080 	lb	s0,-3524(zero)
801001a8:	70f21080 	lb	s0,-3472(zero)
801001ac:	a8f21080 	lb	s0,-3416(zero)
801001b0:	e8f21080 	lb	s0,-3352(zero)
801001b4:	1cf31080 	lb	s0,-3300(zero)
801001b8:	60f31080 	lb	s0,-3232(zero)
801001bc:	a4f31080 	lb	s0,-3164(zero)
801001c0:	00000000 	nop
801001c4:	9cf51080 	lb	s0,-2660(zero)
801001c8:	14f61080 	lb	s0,-2540(zero)
801001cc:	88f61080 	lb	s0,-2424(zero)
801001d0:	f0f81080 	lb	s0,-1808(zero)
801001d4:	30f91080 	lb	s0,-1744(zero)
801001d8:	00000000 	nop
801001dc:	28fa1080 	lb	s0,-1496(zero)
801001e0:	94fa1080 	lb	s0,-1388(zero)
801001e4:	14fb1080 	lb	s0,-1260(zero)
801001e8:	50fb1080 	lb	s0,-1200(zero)
801001ec:	a0fb1080 	lb	s0,-1120(zero)
801001f0:	00000000 	nop
801001f4:	10ff1080 	lb	s0,-240(zero)
801001f8:	a0ff1080 	lb	s0,-96(zero)
801001fc:	b0ff1080 	lb	s0,-80(zero)
80100200:	c0ff1080 	lb	s0,-64(zero)
80100204:	d0ff1080 	lb	s0,-48(zero)
80100208:	a4001180 	lb	s1,164(zero)
8010020c:	b4001180 	lb	s1,180(zero)
80100210:	00000000 	nop
80100214:	38021180 	lb	s1,568(zero)
80100218:	84021180 	lb	s1,644(zero)
8010021c:	b8021180 	lb	s1,696(zero)
80100220:	b0031180 	lb	s1,944(zero)
80100224:	44041180 	lb	s1,1092(zero)
80100228:	78041180 	lb	s1,1144(zero)
8010022c:	a4041180 	lb	s1,1188(zero)
80100230:	58585800 	.word	0x585858
80100234:	d4bb1180 	lb	s1,-17452(zero)
80100238:	74b81180 	lb	s1,-18316(zero)
8010023c:	14b51180 	lb	s1,-19180(zero)
80100240:	b4b11180 	lb	s1,-20044(zero)
80100244:	54ae1180 	lb	s1,-20908(zero)
80100248:	f4aa1180 	lb	s1,-21772(zero)
8010024c:	30303000 	.word	0x303030
80100250:	48484800 	.word	0x484848
80100254:	54545401 	.word	0x1545454
80100258:	5d5d5d02 	.word	0x25d5d5d
8010025c:	60606003 	.word	0x3606060
80100260:	66666604 	.word	0x4666666
80100264:	69696905 	.word	0x5696969
80100268:	69696906 	.word	0x6696969
8010026c:	80511180 	lb	s1,20864(zero)
80100270:	0c4f1180 	lb	s1,20236(zero)
80100274:	604f1180 	lb	s1,20320(zero)
80100278:	bc4f1180 	lb	s1,20412(zero)
8010027c:	10501180 	lb	s1,20496(zero)
80100280:	64501180 	lb	s1,20580(zero)
80100284:	b8501180 	lb	s1,20664(zero)
80100288:	b8501180 	lb	s1,20664(zero)
8010028c:	b8501180 	lb	s1,20664(zero)
80100290:	28511180 	lb	s1,20776(zero)
80100294:	80561180 	lb	s1,22144(zero)
80100298:	c0561180 	lb	s1,22208(zero)
8010029c:	fc561180 	lb	s1,22268(zero)
801002a0:	0c571180 	lb	s1,22284(zero)
801002a4:	60571180 	lb	s1,22368(zero)
801002a8:	84571180 	lb	s1,22404(zero)
801002ac:	d4571180 	lb	s1,22484(zero)
801002b0:	f4571180 	lb	s1,22516(zero)
801002b4:	14581180 	lb	s1,22548(zero)
801002b8:	34581180 	lb	s1,22580(zero)
801002bc:	54581180 	lb	s1,22612(zero)
801002c0:	00000000 	nop
801002c4:	785b1180 	lb	s1,23416(zero)
801002c8:	e45b1180 	lb	s1,23524(zero)
801002cc:	cc5c1180 	lb	s1,23756(zero)
801002d0:	745d1180 	lb	s1,23924(zero)
801002d4:	a05e1180 	lb	s1,24224(zero)
801002d8:	00000000 	nop
801002dc:	f85d1180 	lb	s1,24056(zero)
801002e0:	f85d1180 	lb	s1,24056(zero)
801002e4:	105e1180 	lb	s1,24080(zero)
801002e8:	705e1180 	lb	s1,24176(zero)
801002ec:	705e1180 	lb	s1,24176(zero)
801002f0:	f85d1180 	lb	s1,24056(zero)
801002f4:	405f1180 	lb	s1,24384(zero)
801002f8:	785f1180 	lb	s1,24440(zero)
801002fc:	e85f1180 	lb	s1,24552(zero)
80100300:	a0601180 	lb	s1,24736(zero)
80100304:	d0611180 	lb	s1,25040(zero)
80100308:	58621180 	lb	s1,25176(zero)
8010030c:	c0621180 	lb	s1,25280(zero)
80100310:	74631180 	lb	s1,25460(zero)
80100314:	ac631180 	lb	s1,25516(zero)
80100318:	ac631180 	lb	s1,25516(zero)
8010031c:	88631180 	lb	s1,25480(zero)
80100320:	e0ffbd27 	addiu	sp,sp,-32
80100324:	1000b0af 	sw	s0,16(sp)
80100328:	21808000 	move	s0,a0
8010032c:	1400b1af 	sw	s1,20(sp)
80100330:	1800bfaf 	sw	ra,24(sp)
80100334:	00000392 	lbu	v1,0(s0)
80100338:	04000224 	li	v0,4
8010033c:	41006214 	bne	v1,v0,0x80100444
80100340:	2188a000 	move	s1,a1
80100344:	2b000292 	lbu	v0,43(s0)
80100348:	00000000 	nop
8010034c:	3d004014 	bnez	v0,0x80100444
80100350:	00000000 	nop
80100354:	2e002586 	lh	a1,46(s1)
80100358:	36002686 	lh	a2,54(s1)
8010035c:	ace0010c 	jal	0x800782b0
80100360:	2c000426 	addiu	a0,s0,44
80100364:	00140200 	sll	v0,v0,0x10
80100368:	032c0200 	sra	a1,v0,0x10
8010036c:	56000486 	lh	a0,86(s0)
80100370:	dadd010c 	jal	0x80077768
80100374:	21300000 	move	a2,zero
80100378:	1a004010 	beqz	v0,0x801003e4
8010037c:	00000000 	nop
80100380:	2e000296 	lhu	v0,46(s0)
80100384:	2e002396 	lhu	v1,46(s1)
80100388:	00000000 	nop
8010038c:	23104300 	subu	v0,v0,v1
80100390:	00140200 	sll	v0,v0,0x10
80100394:	03140200 	sra	v0,v0,0x10
80100398:	18004200 	mult	v0,v0
8010039c:	36000296 	lhu	v0,54(s0)
801003a0:	36002396 	lhu	v1,54(s1)
801003a4:	00000000 	nop
801003a8:	23104300 	subu	v0,v0,v1
801003ac:	12200000 	mflo	a0
801003b0:	00140200 	sll	v0,v0,0x10
801003b4:	03140200 	sra	v0,v0,0x10
801003b8:	18004200 	mult	v0,v0
801003bc:	12180000 	mflo	v1
801003c0:	2010020c 	jal	0x80084080
801003c4:	21208300 	addu	a0,a0,v1
801003c8:	01014228 	slti	v0,v0,257
801003cc:	1d004014 	bnez	v0,0x80100444
801003d0:	01000224 	li	v0,1
801003d4:	2b0002a2 	sb	v0,43(s0)
801003d8:	801f023c 	lui	v0,0x1f80
801003dc:	f8240408 	j	0x801093e0
801003e0:	460240a0 	sb	zero,582(v0)
801003e4:	21200002 	move	a0,s0
801003e8:	3f90000c 	jal	0x800240fc
801003ec:	21282002 	move	a1,s1
801003f0:	14004010 	beqz	v0,0x80100444
801003f4:	00000000 	nop
801003f8:	c000228e 	lw	v0,192(s1)
801003fc:	00000000 	nop
80100400:	08004294 	lhu	v0,8(v0)
80100404:	00000000 	nop
80100408:	00014224 	addiu	v0,v0,256
8010040c:	ff0f4230 	andi	v0,v0,0xfff
80100410:	0102422c 	sltiu	v0,v0,513
80100414:	0b004010 	beqz	v0,0x80100444
80100418:	01000224 	li	v0,1
8010041c:	290022a2 	sb	v0,41(s1)
80100420:	0a000224 	li	v0,10
80100424:	000002a2 	sb	v0,0(s0)
80100428:	02000224 	li	v0,2
8010042c:	03000324 	li	v1,3
80100430:	040002a2 	sb	v0,4(s0)
80100434:	060002a2 	sb	v0,6(s0)
80100438:	801f023c 	lui	v0,0x1f80
8010043c:	050003a2 	sb	v1,5(s0)
80100440:	460243a0 	sb	v1,582(v0)
80100444:	1800bf8f 	lw	ra,24(sp)
80100448:	1400b18f 	lw	s1,20(sp)
8010044c:	1000b08f 	lw	s0,16(sp)
80100450:	0800e003 	jr	ra
80100454:	2000bd27 	addiu	sp,sp,32
80100458:	d8ffbd27 	addiu	sp,sp,-40
8010045c:	1c00b3af 	sw	s3,28(sp)
80100460:	21988000 	move	s3,a0
80100464:	1800b2af 	sw	s2,24(sp)
80100468:	2190a000 	move	s2,a1
8010046c:	01000624 	li	a2,1
80100470:	2000bfaf 	sw	ra,32(sp)
80100474:	1400b1af 	sw	s1,20(sp)
80100478:	037d000c 	jal	0x8001f40c
8010047c:	1000b0af 	sw	s0,16(sp)
80100480:	21884000 	move	s1,v0
80100484:	7c002006 	bltz	s1,0x80100678
80100488:	01000624 	li	a2,1
8010048c:	801f103c 	lui	s0,0x1f80
80100490:	9c000496 	lhu	a0,156(s0)
80100494:	60004586 	lh	a1,96(s2)
80100498:	00088424 	addiu	a0,a0,2048
8010049c:	00240400 	sll	a0,a0,0x10
801004a0:	dadd010c 	jal	0x80077768
801004a4:	03240400 	sra	a0,a0,0x10
801004a8:	02004224 	addiu	v0,v0,2
801004ac:	5f0042a2 	sb	v0,95(s2)
801004b0:	44016492 	lbu	a0,324(s3)
801004b4:	01000224 	li	v0,1
801004b8:	05008210 	beq	a0,v0,0x801004d0
801004bc:	02000224 	li	v0,2
801004c0:	19008210 	beq	a0,v0,0x80100528
801004c4:	00000000 	nop
801004c8:	5f250408 	j	0x8010957c
801004cc:	00000000 	nop
801004d0:	0c80023c 	lui	v0,0x800c
801004d4:	70f84390 	lbu	v1,-1936(v0)
801004d8:	0e000224 	li	v0,14
801004dc:	05006214 	bne	v1,v0,0x801004f4
801004e0:	00000000 	nop
801004e4:	bf004292 	lbu	v0,191(s2)
801004e8:	00000000 	nop
801004ec:	3c004014 	bnez	v0,0x801005e0
801004f0:	00000000 	nop
801004f4:	00004292 	lbu	v0,0(s2)
801004f8:	00000000 	nop
801004fc:	18004230 	andi	v0,v0,0x18
80100500:	37004014 	bnez	v0,0x801005e0
80100504:	0200222a 	slti	v0,s1,2
80100508:	35004010 	beqz	v0,0x801005e0
8010050c:	21204002 	move	a0,s2
80100510:	06000524 	li	a1,6
80100514:	03000624 	li	a2,3
80100518:	6d7f000c 	jal	0x8001fdb4
8010051c:	1e000724 	li	a3,30
80100520:	85250408 	j	0x80109614
80100524:	00000000 	nop
80100528:	00004292 	lbu	v0,0(s2)
8010052c:	00000000 	nop
80100530:	0a004230 	andi	v0,v0,0xa
80100534:	21004010 	beqz	v0,0x801005bc
80100538:	03000224 	li	v0,3
8010053c:	7e016296 	lhu	v0,382(s3)
80100540:	00000000 	nop
80100544:	00024230 	andi	v0,v0,0x200
80100548:	4b004014 	bnez	v0,0x80100678
8010054c:	00000000 	nop
80100550:	9c00048e 	lw	a0,156(s0)
80100554:	d40f020c 	jal	0x80083f50
80100558:	00000000 	nop
8010055c:	80006386 	lh	v1,128(s3)
80100560:	80004486 	lh	a0,128(s2)
80100564:	00000000 	nop
80100568:	21186400 	addu	v1,v1,a0
8010056c:	18004300 	mult	v0,v1
80100570:	9c00048e 	lw	a0,156(s0)
80100574:	12480000 	mflo	t1
80100578:	a00f020c 	jal	0x80083e80
8010057c:	03830900 	sra	s0,t1,0xc
80100580:	80006386 	lh	v1,128(s3)
80100584:	80004486 	lh	a0,128(s2)
80100588:	00000000 	nop
8010058c:	21186400 	addu	v1,v1,a0
80100590:	18004300 	mult	v0,v1
80100594:	2e006296 	lhu	v0,46(s3)
80100598:	00000000 	nop
8010059c:	23105000 	subu	v0,v0,s0
801005a0:	2e0042a6 	sh	v0,46(s2)
801005a4:	36006296 	lhu	v0,54(s3)
801005a8:	12480000 	mflo	t1
801005ac:	031b0900 	sra	v1,t1,0xc
801005b0:	21104300 	addu	v0,v0,v1
801005b4:	85250408 	j	0x80109614
801005b8:	360042a6 	sh	v0,54(s2)
801005bc:	9c00038e 	lw	v1,156(s0)
801005c0:	000042a2 	sb	v0,0(s2)
801005c4:	040044a2 	sb	a0,4(s2)
801005c8:	050040a2 	sb	zero,5(s2)
801005cc:	060040a2 	sb	zero,6(s2)
801005d0:	00086324 	addiu	v1,v1,2048
801005d4:	03190300 	sra	v1,v1,0x4
801005d8:	85250408 	j	0x80109614
801005dc:	2b0043a2 	sb	v1,43(s2)
801005e0:	7e016296 	lhu	v0,382(s3)
801005e4:	00000000 	nop
801005e8:	00024230 	andi	v0,v0,0x200
801005ec:	22004014 	bnez	v0,0x80100678
801005f0:	801f103c 	lui	s0,0x1f80
801005f4:	9c00048e 	lw	a0,156(s0)
801005f8:	d40f020c 	jal	0x80083f50
801005fc:	00000000 	nop
80100600:	80006386 	lh	v1,128(s3)
80100604:	80004486 	lh	a0,128(s2)
80100608:	00000000 	nop
8010060c:	21186400 	addu	v1,v1,a0
80100610:	18004300 	mult	v0,v1
80100614:	9c00048e 	lw	a0,156(s0)
80100618:	12480000 	mflo	t1
8010061c:	a00f020c 	jal	0x80083e80
80100620:	038b0900 	sra	s1,t1,0xc
80100624:	80006386 	lh	v1,128(s3)
80100628:	80004486 	lh	a0,128(s2)
8010062c:	00000000 	nop
80100630:	21186400 	addu	v1,v1,a0
80100634:	18004300 	mult	v0,v1
80100638:	21284002 	move	a1,s2
8010063c:	01000624 	li	a2,1
80100640:	21380000 	move	a3,zero
80100644:	21206002 	move	a0,s3
80100648:	2e008294 	lhu	v0,46(a0)
8010064c:	9c00038e 	lw	v1,156(s0)
80100650:	23105100 	subu	v0,v0,s1
80100654:	03190300 	sra	v1,v1,0x4
80100658:	2e00a2a4 	sh	v0,46(a1)
8010065c:	36008294 	lhu	v0,54(a0)
80100660:	12480000 	mflo	t1
80100664:	03430900 	sra	t0,t1,0xc
80100668:	21104800 	addu	v0,v0,t0
8010066c:	3600a2a4 	sh	v0,54(a1)
80100670:	428b000c 	jal	0x80022d08
80100674:	2b0083a0 	sb	v1,43(a0)
80100678:	2000bf8f 	lw	ra,32(sp)
8010067c:	1c00b38f 	lw	s3,28(sp)
80100680:	1800b28f 	lw	s2,24(sp)
80100684:	1400b18f 	lw	s1,20(sp)
80100688:	1000b08f 	lw	s0,16(sp)
8010068c:	0800e003 	jr	ra
80100690:	2800bd27 	addiu	sp,sp,40
80100694:	c8ffbd27 	addiu	sp,sp,-56
80100698:	1c00b1af 	sw	s1,28(sp)
8010069c:	21888000 	move	s1,a0
801006a0:	3000b6af 	sw	s6,48(sp)
801006a4:	21b0a000 	move	s6,a1
801006a8:	2800b4af 	sw	s4,40(sp)
801006ac:	3400bfaf 	sw	ra,52(sp)
801006b0:	2c00b5af 	sw	s5,44(sp)
801006b4:	2400b3af 	sw	s3,36(sp)
801006b8:	2000b2af 	sw	s2,32(sp)
801006bc:	1800b0af 	sw	s0,24(sp)
801006c0:	2a002392 	lbu	v1,42(s1)
801006c4:	01000224 	li	v0,1
801006c8:	0f016214 	bne	v1,v0,0x80100b08
801006cc:	21a0c000 	move	s4,a2
801006d0:	36002296 	lhu	v0,54(s1)
801006d4:	34008396 	lhu	v1,52(s4)
801006d8:	00000000 	nop
801006dc:	23104300 	subu	v0,v0,v1
801006e0:	58024224 	addiu	v0,v0,600
801006e4:	ffff4230 	andi	v0,v0,0xffff
801006e8:	5902422c 	sltiu	v0,v0,601
801006ec:	06014010 	beqz	v0,0x80100b08
801006f0:	00000000 	nop
801006f4:	2e002296 	lhu	v0,46(s1)
801006f8:	2c008396 	lhu	v1,44(s4)
801006fc:	8000c596 	lhu	a1,128(s6)
80100700:	8200c486 	lh	a0,130(s6)
80100704:	23104300 	subu	v0,v0,v1
80100708:	2138a200 	addu	a3,a1,v0
8010070c:	21984000 	move	s3,v0
80100710:	ffffe230 	andi	v0,a3,0xffff
80100714:	2a108200 	slt	v0,a0,v0
80100718:	fb004014 	bnez	v0,0x80100b08
8010071c:	00000000 	nop
80100720:	32002296 	lhu	v0,50(s1)
80100724:	30008396 	lhu	v1,48(s4)
80100728:	00000000 	nop
8010072c:	23104300 	subu	v0,v0,v1
80100730:	2130a200 	addu	a2,a1,v0
80100734:	21904000 	move	s2,v0
80100738:	ffffc230 	andi	v0,a2,0xffff
8010073c:	2a108200 	slt	v0,a0,v0
80100740:	f1004014 	bnez	v0,0x80100b08
80100744:	00000000 	nop
80100748:	0c008486 	lh	a0,12(s4)
8010074c:	d40f020c 	jal	0x80083f50
80100750:	00000000 	nop
80100754:	8000c386 	lh	v1,128(s6)
80100758:	00000000 	nop
8010075c:	18004300 	mult	v0,v1
80100760:	0c008486 	lh	a0,12(s4)
80100764:	12480000 	mflo	t1
80100768:	a00f020c 	jal	0x80083e80
8010076c:	03830900 	sra	s0,t1,0xc
80100770:	8000c386 	lh	v1,128(s6)
80100774:	00000000 	nop
80100778:	18004300 	mult	v0,v1
8010077c:	21280000 	move	a1,zero
80100780:	21380002 	move	a3,s0
80100784:	21a80002 	move	s5,s0
80100788:	12480000 	mflo	t1
8010078c:	23100900 	negu	v0,t1
80100790:	031b0200 	sra	v1,v0,0xc
80100794:	21306000 	move	a2,v1
80100798:	00141000 	sll	v0,s0,0x10
8010079c:	02004104 	bgez	v0,0x801007a8
801007a0:	21406000 	move	t0,v1
801007a4:	23381000 	negu	a3,s0
801007a8:	00140300 	sll	v0,v1,0x10
801007ac:	02004104 	bgez	v0,0x801007b8
801007b0:	00140700 	sll	v0,a3,0x10
801007b4:	23300300 	negu	a2,v1
801007b8:	03240200 	sra	a0,v0,0x10
801007bc:	00140600 	sll	v0,a2,0x10
801007c0:	031c0200 	sra	v1,v0,0x10
801007c4:	2a108300 	slt	v0,a0,v1
801007c8:	02004010 	beqz	v0,0x801007d4
801007cc:	00000000 	nop
801007d0:	01000524 	li	a1,1
801007d4:	03008014 	bnez	a0,0x801007e4
801007d8:	00000000 	nop
801007dc:	e3250408 	j	0x8010978c
801007e0:	03000524 	li	a1,3
801007e4:	03006014 	bnez	v1,0x801007f4
801007e8:	01000224 	li	v0,1
801007ec:	02000524 	li	a1,2
801007f0:	01000224 	li	v0,1
801007f4:	2c00a210 	beq	a1,v0,0x801008a8
801007f8:	0200a228 	slti	v0,a1,2
801007fc:	05004010 	beqz	v0,0x80100814
80100800:	02000224 	li	v0,2
80100804:	0900a010 	beqz	a1,0x8010082c
80100808:	0100a230 	andi	v0,a1,0x1
8010080c:	36260408 	j	0x801098d8
80100810:	00000000 	nop
80100814:	4400a210 	beq	a1,v0,0x80100928
80100818:	03000224 	li	v0,3
8010081c:	4500a210 	beq	a1,v0,0x80100934
80100820:	0100a230 	andi	v0,a1,0x1
80100824:	36260408 	j	0x801098d8
80100828:	00000000 	nop
8010082c:	00141300 	sll	v0,s3,0x10
80100830:	02004104 	bgez	v0,0x8010083c
80100834:	21186002 	move	v1,s3
80100838:	23181300 	negu	v1,s3
8010083c:	001c0300 	sll	v1,v1,0x10
80100840:	00140700 	sll	v0,a3,0x10
80100844:	2a104300 	slt	v0,v0,v1
80100848:	af004014 	bnez	v0,0x80100b08
8010084c:	001c1300 	sll	v1,s3,0x10
80100850:	031c0300 	sra	v1,v1,0x10
80100854:	00140800 	sll	v0,t0,0x10
80100858:	03140200 	sra	v0,v0,0x10
8010085c:	18006200 	mult	v1,v0
80100860:	12180000 	mflo	v1
80100864:	00141500 	sll	v0,s5,0x10
80100868:	03140200 	sra	v0,v0,0x10
8010086c:	1a006200 	div	zero,v1,v0
80100870:	02004014 	bnez	v0,0x8010087c
80100874:	00000000 	nop
80100878:	0d000700 	break	0x7
8010087c:	ffff0124 	li	at,-1
80100880:	04004114 	bne	v0,at,0x80100894
80100884:	0080013c 	lui	at,0x8000
80100888:	02006114 	bne	v1,at,0x80100894
8010088c:	00000000 	nop
80100890:	0d000600 	break	0x6
80100894:	12100000 	mflo	v0
80100898:	00000000 	nop
8010089c:	1000a2af 	sw	v0,16(sp)
801008a0:	36260408 	j	0x801098d8
801008a4:	0100a230 	andi	v0,a1,0x1
801008a8:	00141200 	sll	v0,s2,0x10
801008ac:	02004104 	bgez	v0,0x801008b8
801008b0:	21184002 	move	v1,s2
801008b4:	23181200 	negu	v1,s2
801008b8:	001c0300 	sll	v1,v1,0x10
801008bc:	00140600 	sll	v0,a2,0x10
801008c0:	2a104300 	slt	v0,v0,v1
801008c4:	90004014 	bnez	v0,0x80100b08
801008c8:	001c1200 	sll	v1,s2,0x10
801008cc:	031c0300 	sra	v1,v1,0x10
801008d0:	00141500 	sll	v0,s5,0x10
801008d4:	03140200 	sra	v0,v0,0x10
801008d8:	18006200 	mult	v1,v0
801008dc:	00140800 	sll	v0,t0,0x10
801008e0:	12180000 	mflo	v1
801008e4:	03140200 	sra	v0,v0,0x10
801008e8:	23100200 	negu	v0,v0
801008ec:	1a006200 	div	zero,v1,v0
801008f0:	02004014 	bnez	v0,0x801008fc
801008f4:	00000000 	nop
801008f8:	0d000700 	break	0x7
801008fc:	ffff0124 	li	at,-1
80100900:	04004114 	bne	v0,at,0x80100914
80100904:	0080013c 	lui	at,0x8000
80100908:	02006114 	bne	v1,at,0x80100914
8010090c:	00000000 	nop
80100910:	0d000600 	break	0x6
80100914:	12100000 	mflo	v0
80100918:	00000000 	nop
8010091c:	1400a2af 	sw	v0,20(sp)
80100920:	36260408 	j	0x801098d8
80100924:	0100a230 	andi	v0,a1,0x1
80100928:	1000a0af 	sw	zero,16(sp)
8010092c:	36260408 	j	0x801098d8
80100930:	0100a230 	andi	v0,a1,0x1
80100934:	1400a0af 	sw	zero,20(sp)
80100938:	0100a230 	andi	v0,a1,0x1
8010093c:	49004014 	bnez	v0,0x80100a64
80100940:	00000000 	nop
80100944:	32002686 	lh	a2,50(s1)
80100948:	30008586 	lh	a1,48(s4)
8010094c:	1000a28f 	lw	v0,16(sp)
80100950:	30008796 	lhu	a3,48(s4)
80100954:	c0ffc324 	addiu	v1,a2,-64
80100958:	2310a200 	subu	v0,a1,v0
8010095c:	2a186200 	slt	v1,v1,v0
80100960:	28006010 	beqz	v1,0x80100a04
80100964:	00000000 	nop
80100968:	1000a38f 	lw	v1,16(sp)
8010096c:	84002286 	lh	v0,132(s1)
80100970:	40006324 	addiu	v1,v1,64
80100974:	2318a300 	subu	v1,a1,v1
80100978:	2110c200 	addu	v0,a2,v0
8010097c:	2a104300 	slt	v0,v0,v1
80100980:	84002396 	lhu	v1,132(s1)
80100984:	60004014 	bnez	v0,0x80100b08
80100988:	00000000 	nop
8010098c:	45012292 	lbu	v0,325(s1)
80100990:	00000000 	nop
80100994:	01004230 	andi	v0,v0,0x1
80100998:	5b004014 	bnez	v0,0x80100b08
8010099c:	00000000 	nop
801009a0:	1000a28f 	lw	v0,16(sp)
801009a4:	21202002 	move	a0,s1
801009a8:	40004224 	addiu	v0,v0,64
801009ac:	2310e200 	subu	v0,a3,v0
801009b0:	23104300 	subu	v0,v0,v1
801009b4:	320022a6 	sh	v0,50(s1)
801009b8:	1e8b000c 	jal	0x80022c78
801009bc:	6000d3a6 	sh	s3,96(s6)
801009c0:	0c008486 	lh	a0,12(s4)
801009c4:	d40f020c 	jal	0x80083f50
801009c8:	00000000 	nop
801009cc:	03110200 	sra	v0,v0,0x4
801009d0:	480022a6 	sh	v0,72(s1)
801009d4:	4c0020a6 	sh	zero,76(s1)
801009d8:	0c008486 	lh	a0,12(s4)
801009dc:	a00f020c 	jal	0x80083e80
801009e0:	00000000 	nop
801009e4:	03110200 	sra	v0,v0,0x4
801009e8:	4a0022a6 	sh	v0,74(s1)
801009ec:	0c008296 	lhu	v0,12(s4)
801009f0:	00000000 	nop
801009f4:	420122a6 	sh	v0,322(s1)
801009f8:	01000224 	li	v0,1
801009fc:	a9260408 	j	0x80109aa4
80100a00:	2900c2a2 	sb	v0,41(s6)
80100a04:	1000a28f 	lw	v0,16(sp)
80100a08:	86002386 	lh	v1,134(s1)
80100a0c:	84002486 	lh	a0,132(s1)
80100a10:	c0ff4224 	addiu	v0,v0,-64
80100a14:	2310a200 	subu	v0,a1,v0
80100a18:	23186400 	subu	v1,v1,a0
80100a1c:	2318c300 	subu	v1,a2,v1
80100a20:	2a104300 	slt	v0,v0,v1
80100a24:	86002696 	lhu	a2,134(s1)
80100a28:	84002596 	lhu	a1,132(s1)
80100a2c:	36004014 	bnez	v0,0x80100b08
80100a30:	801f043c 	lui	a0,0x1f80
80100a34:	04000324 	li	v1,4
80100a38:	530283a0 	sb	v1,595(a0)
80100a3c:	2318c500 	subu	v1,a2,a1
80100a40:	1000a28f 	lw	v0,16(sp)
80100a44:	4a002486 	lh	a0,74(s1)
80100a48:	c0ff4224 	addiu	v0,v0,-64
80100a4c:	2310e200 	subu	v0,a3,v0
80100a50:	21104300 	addu	v0,v0,v1
80100a54:	2c008104 	bgez	a0,0x80100b08
80100a58:	320022a6 	sh	v0,50(s1)
80100a5c:	a9260408 	j	0x80109aa4
80100a60:	4a0020a6 	sh	zero,74(s1)
80100a64:	2c008586 	lh	a1,44(s4)
80100a68:	1400a28f 	lw	v0,20(sp)
80100a6c:	2e002786 	lh	a3,46(s1)
80100a70:	2c008696 	lhu	a2,44(s4)
80100a74:	2110a200 	addu	v0,a1,v0
80100a78:	2a104700 	slt	v0,v0,a3
80100a7c:	13004010 	beqz	v0,0x80100acc
80100a80:	00000000 	nop
80100a84:	1400a28f 	lw	v0,20(sp)
80100a88:	82002386 	lh	v1,130(s1)
80100a8c:	80002486 	lh	a0,128(s1)
80100a90:	60004224 	addiu	v0,v0,96
80100a94:	2110a200 	addu	v0,a1,v0
80100a98:	23186400 	subu	v1,v1,a0
80100a9c:	2318e300 	subu	v1,a3,v1
80100aa0:	2a104300 	slt	v0,v0,v1
80100aa4:	82002396 	lhu	v1,130(s1)
80100aa8:	80002496 	lhu	a0,128(s1)
80100aac:	16004014 	bnez	v0,0x80100b08
80100ab0:	00000000 	nop
80100ab4:	1400a28f 	lw	v0,20(sp)
80100ab8:	23186400 	subu	v1,v1,a0
80100abc:	60004224 	addiu	v0,v0,96
80100ac0:	2110c200 	addu	v0,a2,v0
80100ac4:	a8260408 	j	0x80109aa0
80100ac8:	21104300 	addu	v0,v0,v1
80100acc:	1400a38f 	lw	v1,20(sp)
80100ad0:	80002286 	lh	v0,128(s1)
80100ad4:	a0ff6324 	addiu	v1,v1,-96
80100ad8:	2118a300 	addu	v1,a1,v1
80100adc:	2110e200 	addu	v0,a3,v0
80100ae0:	2a104300 	slt	v0,v0,v1
80100ae4:	80002396 	lhu	v1,128(s1)
80100ae8:	07004014 	bnez	v0,0x80100b08
80100aec:	00000000 	nop
80100af0:	1400a28f 	lw	v0,20(sp)
80100af4:	00000000 	nop
80100af8:	a0ff4224 	addiu	v0,v0,-96
80100afc:	2110c200 	addu	v0,a2,v0
80100b00:	23104300 	subu	v0,v0,v1
80100b04:	2e0022a6 	sh	v0,46(s1)
80100b08:	3400bf8f 	lw	ra,52(sp)
80100b0c:	3000b68f 	lw	s6,48(sp)
80100b10:	2c00b58f 	lw	s5,44(sp)
80100b14:	2800b48f 	lw	s4,40(sp)
80100b18:	2400b38f 	lw	s3,36(sp)
80100b1c:	2000b28f 	lw	s2,32(sp)
80100b20:	1c00b18f 	lw	s1,28(sp)
80100b24:	1800b08f 	lw	s0,24(sp)
80100b28:	0800e003 	jr	ra
80100b2c:	3800bd27 	addiu	sp,sp,56
80100b30:	c8ffbd27 	addiu	sp,sp,-56
80100b34:	1400b1af 	sw	s1,20(sp)
80100b38:	21888000 	move	s1,a0
80100b3c:	2400b5af 	sw	s5,36(sp)
80100b40:	21a8a000 	move	s5,a1
80100b44:	1800b2af 	sw	s2,24(sp)
80100b48:	2190c000 	move	s2,a2
80100b4c:	0e80023c 	lui	v0,0x800e
80100b50:	aa7e4390 	lbu	v1,32426(v0)
80100b54:	01000224 	li	v0,1
80100b58:	3000bfaf 	sw	ra,48(sp)
80100b5c:	2c00b7af 	sw	s7,44(sp)
80100b60:	2800b6af 	sw	s6,40(sp)
80100b64:	2000b4af 	sw	s4,32(sp)
80100b68:	1c00b3af 	sw	s3,28(sp)
80100b6c:	11016214 	bne	v1,v0,0x80100fb4
80100b70:	1000b0af 	sw	s0,16(sp)
80100b74:	36002296 	lhu	v0,54(s1)
80100b78:	34004396 	lhu	v1,52(s2)
80100b7c:	00000000 	nop
80100b80:	23104300 	subu	v0,v0,v1
80100b84:	58024224 	addiu	v0,v0,600
80100b88:	ffff4230 	andi	v0,v0,0xffff
80100b8c:	5902422c 	sltiu	v0,v0,601
80100b90:	08014010 	beqz	v0,0x80100fb4
80100b94:	00000000 	nop
80100b98:	2e002296 	lhu	v0,46(s1)
80100b9c:	2c004396 	lhu	v1,44(s2)
80100ba0:	8000a596 	lhu	a1,128(s5)
80100ba4:	8200a686 	lh	a2,130(s5)
80100ba8:	23104300 	subu	v0,v0,v1
80100bac:	2120a200 	addu	a0,a1,v0
80100bb0:	21b04000 	move	s6,v0
80100bb4:	ffff8230 	andi	v0,a0,0xffff
80100bb8:	2a10c200 	slt	v0,a2,v0
80100bbc:	fd004014 	bnez	v0,0x80100fb4
80100bc0:	00000000 	nop
80100bc4:	32002296 	lhu	v0,50(s1)
80100bc8:	30004396 	lhu	v1,48(s2)
80100bcc:	00000000 	nop
80100bd0:	23104300 	subu	v0,v0,v1
80100bd4:	2128a200 	addu	a1,a1,v0
80100bd8:	21984000 	move	s3,v0
80100bdc:	ffffa230 	andi	v0,a1,0xffff
80100be0:	2a10c200 	slt	v0,a2,v0
80100be4:	f3004014 	bnez	v0,0x80100fb4
80100be8:	00000000 	nop
80100bec:	0c004486 	lh	a0,12(s2)
80100bf0:	d40f020c 	jal	0x80083f50
80100bf4:	21b80000 	move	s7,zero
80100bf8:	8000a386 	lh	v1,128(s5)
80100bfc:	00000000 	nop
80100c00:	18004300 	mult	v0,v1
80100c04:	0c004486 	lh	a0,12(s2)
80100c08:	12580000 	mflo	t3
80100c0c:	a00f020c 	jal	0x80083e80
80100c10:	03830b00 	sra	s0,t3,0xc
80100c14:	8000a386 	lh	v1,128(s5)
80100c18:	00000000 	nop
80100c1c:	18004300 	mult	v0,v1
80100c20:	2148e002 	move	t1,s7
80100c24:	21200002 	move	a0,s0
80100c28:	21a00002 	move	s4,s0
80100c2c:	12580000 	mflo	t3
80100c30:	23100b00 	negu	v0,t3
80100c34:	031b0200 	sra	v1,v0,0xc
80100c38:	21286000 	move	a1,v1
80100c3c:	00141000 	sll	v0,s0,0x10
80100c40:	02004104 	bgez	v0,0x80100c4c
80100c44:	21506000 	move	t2,v1
80100c48:	23201000 	negu	a0,s0
80100c4c:	00140300 	sll	v0,v1,0x10
80100c50:	02004104 	bgez	v0,0x80100c5c
80100c54:	00140400 	sll	v0,a0,0x10
80100c58:	23280300 	negu	a1,v1
80100c5c:	03340200 	sra	a2,v0,0x10
80100c60:	00140500 	sll	v0,a1,0x10
80100c64:	031c0200 	sra	v1,v0,0x10
80100c68:	2a10c300 	slt	v0,a2,v1
80100c6c:	02004010 	beqz	v0,0x80100c78
80100c70:	00000000 	nop
80100c74:	01000924 	li	t1,1
80100c78:	0300c014 	bnez	a2,0x80100c88
80100c7c:	00000000 	nop
80100c80:	0c270408 	j	0x80109c30
80100c84:	03000924 	li	t1,3
80100c88:	03006014 	bnez	v1,0x80100c98
80100c8c:	21182001 	move	v1,t1
80100c90:	02000924 	li	t1,2
80100c94:	21182001 	move	v1,t1
80100c98:	01000224 	li	v0,1
80100c9c:	45006210 	beq	v1,v0,0x80100db4
80100ca0:	02006228 	slti	v0,v1,2
80100ca4:	05004010 	beqz	v0,0x80100cbc
80100ca8:	02000224 	li	v0,2
80100cac:	09006010 	beqz	v1,0x80100cd4
80100cb0:	00141600 	sll	v0,s6,0x10
80100cb4:	9d270408 	j	0x80109e74
80100cb8:	00000000 	nop
80100cbc:	5f006210 	beq	v1,v0,0x80100e3c
80100cc0:	03000224 	li	v0,3
80100cc4:	77006210 	beq	v1,v0,0x80100ea4
80100cc8:	00000000 	nop
80100ccc:	9d270408 	j	0x80109e74
80100cd0:	00000000 	nop
80100cd4:	032c0200 	sra	a1,v0,0x10
80100cd8:	0200a104 	bgez	a1,0x80100ce4
80100cdc:	2118c002 	move	v1,s6
80100ce0:	23181600 	negu	v1,s6
80100ce4:	001c0300 	sll	v1,v1,0x10
80100ce8:	00140400 	sll	v0,a0,0x10
80100cec:	2a104300 	slt	v0,v0,v1
80100cf0:	b0004014 	bnez	v0,0x80100fb4
80100cf4:	00140a00 	sll	v0,t2,0x10
80100cf8:	03140200 	sra	v0,v0,0x10
80100cfc:	1800a200 	mult	a1,v0
80100d00:	12180000 	mflo	v1
80100d04:	00141400 	sll	v0,s4,0x10
80100d08:	03140200 	sra	v0,v0,0x10
80100d0c:	1a006200 	div	zero,v1,v0
80100d10:	02004014 	bnez	v0,0x80100d1c
80100d14:	00000000 	nop
80100d18:	0d000700 	break	0x7
80100d1c:	ffff0124 	li	at,-1
80100d20:	04004114 	bne	v0,at,0x80100d34
80100d24:	0080013c 	lui	at,0x8000
80100d28:	02006114 	bne	v1,at,0x80100d34
80100d2c:	00000000 	nop
80100d30:	0d000600 	break	0x6
80100d34:	12380000 	mflo	a3
80100d38:	30004696 	lhu	a2,48(s2)
80100d3c:	32002496 	lhu	a0,50(s1)
80100d40:	84002896 	lhu	t0,132(s1)
80100d44:	2310c700 	subu	v0,a2,a3
80100d48:	23108200 	subu	v0,a0,v0
80100d4c:	40004224 	addiu	v0,v0,64
80100d50:	21280201 	addu	a1,t0,v0
80100d54:	ffffa330 	andi	v1,a1,0xffff
80100d58:	86002286 	lh	v0,134(s1)
80100d5c:	86002596 	lhu	a1,134(s1)
80100d60:	80004224 	addiu	v0,v0,128
80100d64:	2a104300 	slt	v0,v0,v1
80100d68:	92004014 	bnez	v0,0x80100fb4
80100d6c:	10000224 	li	v0,16
80100d70:	5f002392 	lbu	v1,95(s1)
80100d74:	00000000 	nop
80100d78:	57006214 	bne	v1,v0,0x80100ed8
80100d7c:	04104400 	sllv	v0,a0,v0
80100d80:	03140200 	sra	v0,v0,0x10
80100d84:	001c0600 	sll	v1,a2,0x10
80100d88:	031c0300 	sra	v1,v1,0x10
80100d8c:	00240700 	sll	a0,a3,0x10
80100d90:	03240400 	sra	a0,a0,0x10
80100d94:	23186400 	subu	v1,v1,a0
80100d98:	2a186200 	slt	v1,v1,v0
80100d9c:	4e006010 	beqz	v1,0x80100ed8
80100da0:	c0ffe224 	addiu	v0,a3,-64
80100da4:	2310c200 	subu	v0,a2,v0
80100da8:	2318a800 	subu	v1,a1,t0
80100dac:	8d270408 	j	0x80109e34
80100db0:	21104300 	addu	v0,v0,v1
80100db4:	00141300 	sll	v0,s3,0x10
80100db8:	03240200 	sra	a0,v0,0x10
80100dbc:	02008104 	bgez	a0,0x80100dc8
80100dc0:	21186002 	move	v1,s3
80100dc4:	23181300 	negu	v1,s3
80100dc8:	001c0300 	sll	v1,v1,0x10
80100dcc:	00140500 	sll	v0,a1,0x10
80100dd0:	2a104300 	slt	v0,v0,v1
80100dd4:	77004014 	bnez	v0,0x80100fb4
80100dd8:	00141400 	sll	v0,s4,0x10
80100ddc:	03140200 	sra	v0,v0,0x10
80100de0:	18008200 	mult	a0,v0
80100de4:	12180000 	mflo	v1
80100de8:	00140a00 	sll	v0,t2,0x10
80100dec:	03140200 	sra	v0,v0,0x10
80100df0:	1a006200 	div	zero,v1,v0
80100df4:	02004014 	bnez	v0,0x80100e00
80100df8:	00000000 	nop
80100dfc:	0d000700 	break	0x7
80100e00:	ffff0124 	li	at,-1
80100e04:	04004114 	bne	v0,at,0x80100e18
80100e08:	0080013c 	lui	at,0x8000
80100e0c:	02006114 	bne	v1,at,0x80100e18
80100e10:	00000000 	nop
80100e14:	0d000600 	break	0x6
80100e18:	12100000 	mflo	v0
80100e1c:	2c004396 	lhu	v1,44(s2)
80100e20:	2e002496 	lhu	a0,46(s1)
80100e24:	23186200 	subu	v1,v1,v0
80100e28:	23208300 	subu	a0,a0,v1
80100e2c:	80002296 	lhu	v0,128(s1)
80100e30:	40008424 	addiu	a0,a0,64
80100e34:	97270408 	j	0x80109e5c
80100e38:	21204400 	addu	a0,v0,a0
80100e3c:	32002696 	lhu	a2,50(s1)
80100e40:	30004496 	lhu	a0,48(s2)
80100e44:	84002796 	lhu	a3,132(s1)
80100e48:	2310c400 	subu	v0,a2,a0
80100e4c:	40004224 	addiu	v0,v0,64
80100e50:	2128e200 	addu	a1,a3,v0
80100e54:	ffffa330 	andi	v1,a1,0xffff
80100e58:	86002286 	lh	v0,134(s1)
80100e5c:	86002596 	lhu	a1,134(s1)
80100e60:	80004224 	addiu	v0,v0,128
80100e64:	2a104300 	slt	v0,v0,v1
80100e68:	52004014 	bnez	v0,0x80100fb4
80100e6c:	10000224 	li	v0,16
80100e70:	5f002392 	lbu	v1,95(s1)
80100e74:	00000000 	nop
80100e78:	17006214 	bne	v1,v0,0x80100ed8
80100e7c:	04184600 	sllv	v1,a2,v0
80100e80:	04104400 	sllv	v0,a0,v0
80100e84:	2a104300 	slt	v0,v0,v1
80100e88:	13004010 	beqz	v0,0x80100ed8
80100e8c:	2310a700 	subu	v0,a1,a3
80100e90:	40004224 	addiu	v0,v0,64
80100e94:	21108200 	addu	v0,a0,v0
80100e98:	320022a6 	sh	v0,50(s1)
80100e9c:	9d270408 	j	0x80109e74
80100ea0:	01001724 	li	s7,1
80100ea4:	2e002296 	lhu	v0,46(s1)
80100ea8:	2c004396 	lhu	v1,44(s2)
80100eac:	00000000 	nop
80100eb0:	23104300 	subu	v0,v0,v1
80100eb4:	80002396 	lhu	v1,128(s1)
80100eb8:	40004224 	addiu	v0,v0,64
80100ebc:	21206200 	addu	a0,v1,v0
80100ec0:	82002286 	lh	v0,130(s1)
80100ec4:	ffff8330 	andi	v1,a0,0xffff
80100ec8:	80004224 	addiu	v0,v0,128
80100ecc:	2a104300 	slt	v0,v0,v1
80100ed0:	38004014 	bnez	v0,0x80100fb4
80100ed4:	00000000 	nop
80100ed8:	0c004296 	lhu	v0,12(s2)
80100edc:	00000000 	nop
80100ee0:	02110200 	srl	v0,v0,0x4
80100ee4:	ff004330 	andi	v1,v0,0xff
80100ee8:	01002231 	andi	v0,t1,0x1
80100eec:	08004010 	beqz	v0,0x80100f10
80100ef0:	21286000 	move	a1,v1
80100ef4:	00140a00 	sll	v0,t2,0x10
80100ef8:	06004018 	blez	v0,0x80100f14
80100efc:	00141300 	sll	v0,s3,0x10
80100f00:	07004018 	blez	v0,0x80100f20
80100f04:	80006224 	addiu	v0,v1,128
80100f08:	af270408 	j	0x80109ebc
80100f0c:	ff004530 	andi	a1,v0,0xff
80100f10:	00141600 	sll	v0,s6,0x10
80100f14:	02004104 	bgez	v0,0x80100f20
80100f18:	80006224 	addiu	v0,v1,128
80100f1c:	ff004530 	andi	a1,v0,0xff
80100f20:	46002492 	lbu	a0,70(s1)
80100f24:	00000000 	nop
80100f28:	08008230 	andi	v0,a0,0x8
80100f2c:	06004014 	bnez	v0,0x80100f48
80100f30:	40000324 	li	v1,64
80100f34:	1280033c 	lui	v1,0x8012
80100f38:	74826324 	addiu	v1,v1,-32140
80100f3c:	07008230 	andi	v0,a0,0x7
80100f40:	21104300 	addu	v0,v0,v1
80100f44:	00004390 	lbu	v1,0(v0)
80100f48:	00000000 	nop
80100f4c:	23106500 	subu	v0,v1,a1
80100f50:	ff004330 	andi	v1,v0,0xff
80100f54:	5e002292 	lbu	v0,94(s1)
80100f58:	00000000 	nop
80100f5c:	02004010 	beqz	v0,0x80100f68
80100f60:	000a0424 	li	a0,2560
80100f64:	000e0424 	li	a0,3584
80100f68:	8000622c 	sltiu	v0,v1,128
80100f6c:	03004010 	beqz	v0,0x80100f7c
80100f70:	23100400 	negu	v0,a0
80100f74:	c7270408 	j	0x80109f1c
80100f78:	4400a4a6 	sh	a0,68(s5)
80100f7c:	4400a2a6 	sh	v0,68(s5)
80100f80:	0500e012 	beqz	s7,0x80100f98
80100f84:	21202002 	move	a0,s1
80100f88:	2128a002 	move	a1,s5
80100f8c:	21304002 	move	a2,s2
80100f90:	d0270408 	j	0x80109f40
80100f94:	00120724 	li	a3,4608
80100f98:	2128a002 	move	a1,s5
80100f9c:	21304002 	move	a2,s2
80100fa0:	21380000 	move	a3,zero
80100fa4:	187a000c 	jal	0x8001e860
80100fa8:	00000000 	nop
80100fac:	801f023c 	lui	v0,0x1f80
80100fb0:	820140a0 	sb	zero,386(v0)
80100fb4:	3000bf8f 	lw	ra,48(sp)
80100fb8:	2c00b78f 	lw	s7,44(sp)
80100fbc:	2800b68f 	lw	s6,40(sp)
80100fc0:	2400b58f 	lw	s5,36(sp)
80100fc4:	2000b48f 	lw	s4,32(sp)
80100fc8:	1c00b38f 	lw	s3,28(sp)
80100fcc:	1800b28f 	lw	s2,24(sp)
80100fd0:	1400b18f 	lw	s1,20(sp)
80100fd4:	1000b08f 	lw	s0,16(sp)
80100fd8:	0800e003 	jr	ra
80100fdc:	3800bd27 	addiu	sp,sp,56
80100fe0:	c8ffbd27 	addiu	sp,sp,-56
80100fe4:	2400b3af 	sw	s3,36(sp)
80100fe8:	21988000 	move	s3,a0
80100fec:	2800b4af 	sw	s4,40(sp)
80100ff0:	21a0a000 	move	s4,a1
80100ff4:	2c00b5af 	sw	s5,44(sp)
80100ff8:	3400bfaf 	sw	ra,52(sp)
80100ffc:	3000b6af 	sw	s6,48(sp)
80101000:	2000b2af 	sw	s2,32(sp)
80101004:	1c00b1af 	sw	s1,28(sp)
80101008:	1800b0af 	sw	s0,24(sp)
8010100c:	2a006392 	lbu	v1,42(s3)
80101010:	01000224 	li	v0,1
80101014:	fc006214 	bne	v1,v0,0x80101408
80101018:	21a8c000 	move	s5,a2
8010101c:	50016296 	lhu	v0,336(s3)
80101020:	3400a396 	lhu	v1,52(s5)
80101024:	00000000 	nop
80101028:	23104300 	subu	v0,v0,v1
8010102c:	58024224 	addiu	v0,v0,600
80101030:	ffff4230 	andi	v0,v0,0xffff
80101034:	5902422c 	sltiu	v0,v0,601
80101038:	f4004010 	beqz	v0,0x8010140c
8010103c:	21100000 	move	v0,zero
80101040:	4c016296 	lhu	v0,332(s3)
80101044:	2c00a396 	lhu	v1,44(s5)
80101048:	80008496 	lhu	a0,128(s4)
8010104c:	82008586 	lh	a1,130(s4)
80101050:	23104300 	subu	v0,v0,v1
80101054:	21308200 	addu	a2,a0,v0
80101058:	21904000 	move	s2,v0
8010105c:	ffffc230 	andi	v0,a2,0xffff
80101060:	2a10a200 	slt	v0,a1,v0
80101064:	e9004014 	bnez	v0,0x8010140c
80101068:	21100000 	move	v0,zero
8010106c:	4e016296 	lhu	v0,334(s3)
80101070:	3000a396 	lhu	v1,48(s5)
80101074:	00000000 	nop
80101078:	23104300 	subu	v0,v0,v1
8010107c:	21208200 	addu	a0,a0,v0
80101080:	21884000 	move	s1,v0
80101084:	ffff8230 	andi	v0,a0,0xffff
80101088:	2a10a200 	slt	v0,a1,v0
8010108c:	df004014 	bnez	v0,0x8010140c
80101090:	21100000 	move	v0,zero
80101094:	0c00a486 	lh	a0,12(s5)
80101098:	d40f020c 	jal	0x80083f50
8010109c:	00000000 	nop
801010a0:	80008386 	lh	v1,128(s4)
801010a4:	00000000 	nop
801010a8:	18004300 	mult	v0,v1
801010ac:	0c00a486 	lh	a0,12(s5)
801010b0:	12480000 	mflo	t1
801010b4:	a00f020c 	jal	0x80083e80
801010b8:	03830900 	sra	s0,t1,0xc
801010bc:	80008386 	lh	v1,128(s4)
801010c0:	00000000 	nop
801010c4:	18004300 	mult	v0,v1
801010c8:	21380000 	move	a3,zero
801010cc:	21300002 	move	a2,s0
801010d0:	21b00002 	move	s6,s0
801010d4:	12480000 	mflo	t1
801010d8:	23100900 	negu	v0,t1
801010dc:	031b0200 	sra	v1,v0,0xc
801010e0:	21206000 	move	a0,v1
801010e4:	00141000 	sll	v0,s0,0x10
801010e8:	02004104 	bgez	v0,0x801010f4
801010ec:	21406000 	move	t0,v1
801010f0:	23301000 	negu	a2,s0
801010f4:	00140300 	sll	v0,v1,0x10
801010f8:	02004104 	bgez	v0,0x80101104
801010fc:	00140600 	sll	v0,a2,0x10
80101100:	23200300 	negu	a0,v1
80101104:	032c0200 	sra	a1,v0,0x10
80101108:	00140400 	sll	v0,a0,0x10
8010110c:	031c0200 	sra	v1,v0,0x10
80101110:	2a10a300 	slt	v0,a1,v1
80101114:	02004010 	beqz	v0,0x80101120
80101118:	00000000 	nop
8010111c:	01000724 	li	a3,1
80101120:	0300a014 	bnez	a1,0x80101130
80101124:	00000000 	nop
80101128:	36280408 	j	0x8010a0d8
8010112c:	03000724 	li	a3,3
80101130:	03006014 	bnez	v1,0x80101140
80101134:	2118e000 	move	v1,a3
80101138:	02000724 	li	a3,2
8010113c:	2118e000 	move	v1,a3
80101140:	01000224 	li	v0,1
80101144:	31006210 	beq	v1,v0,0x8010120c
80101148:	02006228 	slti	v0,v1,2
8010114c:	05004010 	beqz	v0,0x80101164
80101150:	02000224 	li	v0,2
80101154:	09006010 	beqz	v1,0x8010117c
80101158:	0100e230 	andi	v0,a3,0x1
8010115c:	ae280408 	j	0x8010a2b8
80101160:	00000000 	nop
80101164:	4e006210 	beq	v1,v0,0x801012a0
80101168:	03000224 	li	v0,3
8010116c:	5c006210 	beq	v1,v0,0x801012e0
80101170:	0100e230 	andi	v0,a3,0x1
80101174:	ae280408 	j	0x8010a2b8
80101178:	00000000 	nop
8010117c:	00141200 	sll	v0,s2,0x10
80101180:	04004104 	bgez	v0,0x80101194
80101184:	23101200 	negu	v0,s2
80101188:	1200a2a7 	sh	v0,18(sp)
8010118c:	4d280408 	j	0x8010a134
80101190:	00000000 	nop
80101194:	1200b2a7 	sh	s2,18(sp)
80101198:	1200a397 	lhu	v1,18(sp)
8010119c:	00140600 	sll	v0,a2,0x10
801011a0:	001c0300 	sll	v1,v1,0x10
801011a4:	2a104300 	slt	v0,v0,v1
801011a8:	98004014 	bnez	v0,0x8010140c
801011ac:	21100000 	move	v0,zero
801011b0:	001c1200 	sll	v1,s2,0x10
801011b4:	031c0300 	sra	v1,v1,0x10
801011b8:	00140800 	sll	v0,t0,0x10
801011bc:	03140200 	sra	v0,v0,0x10
801011c0:	18006200 	mult	v1,v0
801011c4:	12180000 	mflo	v1
801011c8:	00141600 	sll	v0,s6,0x10
801011cc:	03140200 	sra	v0,v0,0x10
801011d0:	1a006200 	div	zero,v1,v0
801011d4:	02004014 	bnez	v0,0x801011e0
801011d8:	00000000 	nop
801011dc:	0d000700 	break	0x7
801011e0:	ffff0124 	li	at,-1
801011e4:	04004114 	bne	v0,at,0x801011f8
801011e8:	0080013c 	lui	at,0x8000
801011ec:	02006114 	bne	v1,at,0x801011f8
801011f0:	00000000 	nop
801011f4:	0d000600 	break	0x6
801011f8:	12100000 	mflo	v0
801011fc:	00000000 	nop
80101200:	1400a2a7 	sh	v0,20(sp)
80101204:	ae280408 	j	0x8010a2b8
80101208:	0100e230 	andi	v0,a3,0x1
8010120c:	00141100 	sll	v0,s1,0x10
80101210:	04004104 	bgez	v0,0x80101224
80101214:	23101100 	negu	v0,s1
80101218:	1200a2a7 	sh	v0,18(sp)
8010121c:	71280408 	j	0x8010a1c4
80101220:	00000000 	nop
80101224:	1200b1a7 	sh	s1,18(sp)
80101228:	1200a397 	lhu	v1,18(sp)
8010122c:	00140400 	sll	v0,a0,0x10
80101230:	001c0300 	sll	v1,v1,0x10
80101234:	2a104300 	slt	v0,v0,v1
80101238:	74004014 	bnez	v0,0x8010140c
8010123c:	21100000 	move	v0,zero
80101240:	001c1100 	sll	v1,s1,0x10
80101244:	031c0300 	sra	v1,v1,0x10
80101248:	00141600 	sll	v0,s6,0x10
8010124c:	03140200 	sra	v0,v0,0x10
80101250:	18006200 	mult	v1,v0
80101254:	00140800 	sll	v0,t0,0x10
80101258:	12180000 	mflo	v1
8010125c:	03140200 	sra	v0,v0,0x10
80101260:	23100200 	negu	v0,v0
80101264:	1a006200 	div	zero,v1,v0
80101268:	02004014 	bnez	v0,0x80101274
8010126c:	00000000 	nop
80101270:	0d000700 	break	0x7
80101274:	ffff0124 	li	at,-1
80101278:	04004114 	bne	v0,at,0x8010128c
8010127c:	0080013c 	lui	at,0x8000
80101280:	02006114 	bne	v1,at,0x8010128c
80101284:	00000000 	nop
80101288:	0d000600 	break	0x6
8010128c:	12100000 	mflo	v0
80101290:	00000000 	nop
80101294:	1000a2a7 	sh	v0,16(sp)
80101298:	ae280408 	j	0x8010a2b8
8010129c:	0100e230 	andi	v0,a3,0x1
801012a0:	00141200 	sll	v0,s2,0x10
801012a4:	04004104 	bgez	v0,0x801012b8
801012a8:	23101200 	negu	v0,s2
801012ac:	1200a2a7 	sh	v0,18(sp)
801012b0:	96280408 	j	0x8010a258
801012b4:	00000000 	nop
801012b8:	1200b2a7 	sh	s2,18(sp)
801012bc:	1200a397 	lhu	v1,18(sp)
801012c0:	00140600 	sll	v0,a2,0x10
801012c4:	001c0300 	sll	v1,v1,0x10
801012c8:	2a104300 	slt	v0,v0,v1
801012cc:	4f004014 	bnez	v0,0x8010140c
801012d0:	21100000 	move	v0,zero
801012d4:	1400a0a7 	sh	zero,20(sp)
801012d8:	ae280408 	j	0x8010a2b8
801012dc:	0100e230 	andi	v0,a3,0x1
801012e0:	00141100 	sll	v0,s1,0x10
801012e4:	04004104 	bgez	v0,0x801012f8
801012e8:	23101100 	negu	v0,s1
801012ec:	1200a2a7 	sh	v0,18(sp)
801012f0:	a6280408 	j	0x8010a298
801012f4:	00000000 	nop
801012f8:	1200b1a7 	sh	s1,18(sp)
801012fc:	1200a397 	lhu	v1,18(sp)
80101300:	00140400 	sll	v0,a0,0x10
80101304:	001c0300 	sll	v1,v1,0x10
80101308:	2a104300 	slt	v0,v0,v1
8010130c:	3f004014 	bnez	v0,0x8010140c
80101310:	21100000 	move	v0,zero
80101314:	1000a0a7 	sh	zero,16(sp)
80101318:	0100e230 	andi	v0,a3,0x1
8010131c:	3b004014 	bnez	v0,0x8010140c
80101320:	21100000 	move	v0,zero
80101324:	3000a396 	lhu	v1,48(s5)
80101328:	1400a497 	lhu	a0,20(sp)
8010132c:	4e016296 	lhu	v0,334(s3)
80101330:	23186400 	subu	v1,v1,a0
80101334:	23104300 	subu	v0,v0,v1
80101338:	40004424 	addiu	a0,v0,64
8010133c:	ffff8230 	andi	v0,a0,0xffff
80101340:	8100422c 	sltiu	v0,v0,129
80101344:	31004010 	beqz	v0,0x8010140c
80101348:	21100000 	move	v0,zero
8010134c:	1200a297 	lhu	v0,18(sp)
80101350:	00000000 	nop
80101354:	2310c200 	subu	v0,a2,v0
80101358:	1200a2a7 	sh	v0,18(sp)
8010135c:	1200a297 	lhu	v0,18(sp)
80101360:	00000000 	nop
80101364:	5500422c 	sltiu	v0,v0,85
80101368:	27004010 	beqz	v0,0x80101408
8010136c:	00141200 	sll	v0,s2,0x10
80101370:	08004104 	bgez	v0,0x80101394
80101374:	00000000 	nop
80101378:	47016292 	lbu	v0,327(s3)
8010137c:	00000000 	nop
80101380:	01004230 	andi	v0,v0,0x1
80101384:	08004010 	beqz	v0,0x801013a8
80101388:	21100000 	move	v0,zero
8010138c:	ea280408 	j	0x8010a3a8
80101390:	00000000 	nop
80101394:	47016292 	lbu	v0,327(s3)
80101398:	00000000 	nop
8010139c:	01004230 	andi	v0,v0,0x1
801013a0:	1a004010 	beqz	v0,0x8010140c
801013a4:	21100000 	move	v0,zero
801013a8:	01000224 	li	v0,1
801013ac:	290082a2 	sb	v0,41(s4)
801013b0:	00141200 	sll	v0,s2,0x10
801013b4:	600092a6 	sh	s2,96(s4)
801013b8:	05004018 	blez	v0,0x801013d0
801013bc:	560160a6 	sh	zero,342(s3)
801013c0:	80008396 	lhu	v1,128(s4)
801013c4:	1e000224 	li	v0,30
801013c8:	de280408 	j	0x8010a378
801013cc:	23104300 	subu	v0,v0,v1
801013d0:	80008296 	lhu	v0,128(s4)
801013d4:	00000000 	nop
801013d8:	e2ff4224 	addiu	v0,v0,-30
801013dc:	520162a6 	sh	v0,338(s3)
801013e0:	01000224 	li	v0,1
801013e4:	801f033c 	lui	v1,0x1f80
801013e8:	840075ac 	sw	s5,132(v1)
801013ec:	801f033c 	lui	v1,0x1f80
801013f0:	800074ac 	sw	s4,128(v1)
801013f4:	08000324 	li	v1,8
801013f8:	640163a2 	sb	v1,356(s3)
801013fc:	801f033c 	lui	v1,0x1f80
80101400:	ea280408 	j	0x8010a3a8
80101404:	820160a0 	sb	zero,386(v1)
80101408:	21100000 	move	v0,zero
8010140c:	3400bf8f 	lw	ra,52(sp)
80101410:	3000b68f 	lw	s6,48(sp)
80101414:	2c00b58f 	lw	s5,44(sp)
80101418:	2800b48f 	lw	s4,40(sp)
8010141c:	2400b38f 	lw	s3,36(sp)
80101420:	2000b28f 	lw	s2,32(sp)
80101424:	1c00b18f 	lw	s1,28(sp)
80101428:	1800b08f 	lw	s0,24(sp)
8010142c:	0800e003 	jr	ra
80101430:	3800bd27 	addiu	sp,sp,56
80101434:	d8ffbd27 	addiu	sp,sp,-40
80101438:	1c00b3af 	sw	s3,28(sp)
8010143c:	21988000 	move	s3,a0
80101440:	1800b2af 	sw	s2,24(sp)
80101444:	2190a000 	move	s2,a1
80101448:	2000bfaf 	sw	ra,32(sp)
8010144c:	1400b1af 	sw	s1,20(sp)
80101450:	c18b000c 	jal	0x80022f04
80101454:	1000b0af 	sw	s0,16(sp)
80101458:	4f004010 	beqz	v0,0x80101598
8010145c:	801f103c 	lui	s0,0x1f80
80101460:	9c00048e 	lw	a0,156(s0)
80101464:	d40f020c 	jal	0x80083f50
80101468:	00000000 	nop
8010146c:	80006386 	lh	v1,128(s3)
80101470:	80004486 	lh	a0,128(s2)
80101474:	00000000 	nop
80101478:	21186400 	addu	v1,v1,a0
8010147c:	18004300 	mult	v0,v1
80101480:	9c00048e 	lw	a0,156(s0)
80101484:	12400000 	mflo	t0
80101488:	a00f020c 	jal	0x80083e80
8010148c:	038b0800 	sra	s1,t0,0xc
80101490:	80006386 	lh	v1,128(s3)
80101494:	80004486 	lh	a0,128(s2)
80101498:	00000000 	nop
8010149c:	21186400 	addu	v1,v1,a0
801014a0:	18004300 	mult	v0,v1
801014a4:	01000624 	li	a2,1
801014a8:	40016586 	lh	a1,320(s3)
801014ac:	2e004296 	lhu	v0,46(s2)
801014b0:	9c000486 	lh	a0,156(s0)
801014b4:	21105100 	addu	v0,v0,s1
801014b8:	2e0062a6 	sh	v0,46(s3)
801014bc:	36004296 	lhu	v0,54(s2)
801014c0:	12400000 	mflo	t0
801014c4:	031b0800 	sra	v1,t0,0xc
801014c8:	23104300 	subu	v0,v0,v1
801014cc:	dadd010c 	jal	0x80077768
801014d0:	360062a6 	sh	v0,54(s3)
801014d4:	21206002 	move	a0,s3
801014d8:	21284002 	move	a1,s2
801014dc:	02004224 	addiu	v0,v0,2
801014e0:	01000624 	li	a2,1
801014e4:	5f0082a0 	sb	v0,95(a0)
801014e8:	9c00028e 	lw	v0,156(s0)
801014ec:	21380000 	move	a3,zero
801014f0:	03110200 	sra	v0,v0,0x4
801014f4:	428b000c 	jal	0x80022d08
801014f8:	2b0082a0 	sb	v0,43(a0)
801014fc:	00005092 	lbu	s0,0(s2)
80101500:	01000224 	li	v0,1
80101504:	24000216 	bne	s0,v0,0x80101598
80101508:	00000000 	nop
8010150c:	5e004292 	lbu	v0,94(s2)
80101510:	040050a2 	sb	s0,4(s2)
80101514:	0b004010 	beqz	v0,0x80101544
80101518:	060040a2 	sb	zero,6(s2)
8010151c:	ffff4224 	addiu	v0,v0,-1
80101520:	5e0042a2 	sb	v0,94(s2)
80101524:	ff004230 	andi	v0,v0,0xff
80101528:	07004010 	beqz	v0,0x80101548
8010152c:	02000224 	li	v0,2
80101530:	c85d040c 	jal	0x80117720
80101534:	21204002 	move	a0,s2
80101538:	03000224 	li	v0,3
8010153c:	3b290408 	j	0x8010a4ec
80101540:	050050a2 	sb	s0,5(s2)
80101544:	02000224 	li	v0,2
80101548:	040042a2 	sb	v0,4(s2)
8010154c:	050040a2 	sb	zero,5(s2)
80101550:	000042a2 	sb	v0,0(s2)
80101554:	01000624 	li	a2,1
80101558:	801f023c 	lui	v0,0x1f80
8010155c:	9c004494 	lhu	a0,156(v0)
80101560:	60004586 	lh	a1,96(s2)
80101564:	00088424 	addiu	a0,a0,2048
80101568:	00240400 	sll	a0,a0,0x10
8010156c:	dadd010c 	jal	0x80077768
80101570:	03240400 	sra	a0,a0,0x10
80101574:	be004392 	lbu	v1,190(s2)
80101578:	21204000 	move	a0,v0
8010157c:	05008314 	bne	a0,v1,0x80101594
80101580:	01000224 	li	v0,1
80101584:	2b0042a2 	sb	v0,43(s2)
80101588:	02008224 	addiu	v0,a0,2
8010158c:	4d290408 	j	0x8010a534
80101590:	5f0042a2 	sb	v0,95(s2)
80101594:	2b0040a2 	sb	zero,43(s2)
80101598:	2000bf8f 	lw	ra,32(sp)
8010159c:	1c00b38f 	lw	s3,28(sp)
801015a0:	1800b28f 	lw	s2,24(sp)
801015a4:	1400b18f 	lw	s1,20(sp)
801015a8:	1000b08f 	lw	s0,16(sp)
801015ac:	0800e003 	jr	ra
801015b0:	2800bd27 	addiu	sp,sp,40
801015b4:	e0ffbd27 	addiu	sp,sp,-32
801015b8:	1400b1af 	sw	s1,20(sp)
801015bc:	21888000 	move	s1,a0
801015c0:	1000b0af 	sw	s0,16(sp)
801015c4:	1800bfaf 	sw	ra,24(sp)
801015c8:	c18b000c 	jal	0x80022f04
801015cc:	2180a000 	move	s0,a1
801015d0:	57004010 	beqz	v0,0x80101730
801015d4:	00000000 	nop
801015d8:	00000292 	lbu	v0,0(s0)
801015dc:	00000000 	nop
801015e0:	02004230 	andi	v0,v0,0x2
801015e4:	07004010 	beqz	v0,0x80101604
801015e8:	21202002 	move	a0,s1
801015ec:	21280002 	move	a1,s0
801015f0:	21300000 	move	a2,zero
801015f4:	187a000c 	jal	0x8001e860
801015f8:	2138c000 	move	a3,a2
801015fc:	b3290408 	j	0x8010a6cc
80101600:	00000000 	nop
80101604:	21280002 	move	a1,s0
80101608:	21300000 	move	a2,zero
8010160c:	2777000c 	jal	0x8001dc9c
80101610:	2138c000 	move	a3,a2
80101614:	01000424 	li	a0,1
80101618:	040004a2 	sb	a0,4(s0)
8010161c:	060000a2 	sb	zero,6(s0)
80101620:	5e002292 	lbu	v0,94(s1)
80101624:	00000000 	nop
80101628:	05004014 	bnez	v0,0x80101640
8010162c:	02000224 	li	v0,2
80101630:	02002392 	lbu	v1,2(s1)
80101634:	00000000 	nop
80101638:	2c006210 	beq	v1,v0,0x801016ec
8010163c:	00000000 	nop
80101640:	05000392 	lbu	v1,5(s0)
80101644:	00000000 	nop
80101648:	0c00622c 	sltiu	v0,v1,12
8010164c:	18004010 	beqz	v0,0x801016b0
80101650:	1180023c 	lui	v0,0x8011
80101654:	a08f4224 	addiu	v0,v0,-28768
80101658:	80180300 	sll	v1,v1,0x2
8010165c:	21186200 	addu	v1,v1,v0
80101660:	0000628c 	lw	v0,0(v1)
80101664:	00000000 	nop
80101668:	08004000 	jr	v0
8010166c:	00000000 	nop
80101670:	5e000292 	lbu	v0,94(s0)
80101674:	00000000 	nop
80101678:	16004010 	beqz	v0,0x801016d4
8010167c:	ffff4224 	addiu	v0,v0,-1
80101680:	93290408 	j	0x8010a64c
80101684:	5e0002a2 	sb	v0,94(s0)
80101688:	5e000392 	lbu	v1,94(s0)
8010168c:	00000000 	nop
80101690:	ff006230 	andi	v0,v1,0xff
80101694:	0f004010 	beqz	v0,0x801016d4
80101698:	0200422c 	sltiu	v0,v0,2
8010169c:	03004014 	bnez	v0,0x801016ac
801016a0:	feff6224 	addiu	v0,v1,-2
801016a4:	93290408 	j	0x8010a64c
801016a8:	5e0002a2 	sb	v0,94(s0)
801016ac:	5e0000a2 	sb	zero,94(s0)
801016b0:	5e000292 	lbu	v0,94(s0)
801016b4:	00000000 	nop
801016b8:	07004010 	beqz	v0,0x801016d8
801016bc:	02000224 	li	v0,2
801016c0:	c85d040c 	jal	0x80117720
801016c4:	21200002 	move	a0,s0
801016c8:	01000224 	li	v0,1
801016cc:	9f290408 	j	0x8010a67c
801016d0:	050002a2 	sb	v0,5(s0)
801016d4:	02000224 	li	v0,2
801016d8:	040002a2 	sb	v0,4(s0)
801016dc:	050000a2 	sb	zero,5(s0)
801016e0:	03000224 	li	v0,3
801016e4:	a4290408 	j	0x8010a690
801016e8:	000002a2 	sb	v0,0(s0)
801016ec:	050004a2 	sb	a0,5(s0)
801016f0:	000004a2 	sb	a0,0(s0)
801016f4:	01000624 	li	a2,1
801016f8:	801f023c 	lui	v0,0x1f80
801016fc:	9c004494 	lhu	a0,156(v0)
80101700:	60000586 	lh	a1,96(s0)
80101704:	00088424 	addiu	a0,a0,2048
80101708:	00240400 	sll	a0,a0,0x10
8010170c:	dadd010c 	jal	0x80077768
80101710:	03240400 	sra	a0,a0,0x10
80101714:	be000392 	lbu	v1,190(s0)
80101718:	00000000 	nop
8010171c:	03004314 	bne	v0,v1,0x8010172c
80101720:	01000224 	li	v0,1
80101724:	b3290408 	j	0x8010a6cc
80101728:	2b0002a2 	sb	v0,43(s0)
8010172c:	2b0000a2 	sb	zero,43(s0)
80101730:	1800bf8f 	lw	ra,24(sp)
80101734:	1400b18f 	lw	s1,20(sp)
80101738:	1000b08f 	lw	s0,16(sp)
8010173c:	0800e003 	jr	ra
80101740:	2000bd27 	addiu	sp,sp,32
80101744:	c8ffbd27 	addiu	sp,sp,-56
80101748:	2000b2af 	sw	s2,32(sp)
8010174c:	21908000 	move	s2,a0
80101750:	2800b4af 	sw	s4,40(sp)
80101754:	21a0c000 	move	s4,a2
80101758:	3000bfaf 	sw	ra,48(sp)
8010175c:	2c00b5af 	sw	s5,44(sp)
80101760:	2400b3af 	sw	s3,36(sp)
80101764:	1c00b1af 	sw	s1,28(sp)
80101768:	1800b0af 	sw	s0,24(sp)
8010176c:	36004296 	lhu	v0,54(s2)
80101770:	34008396 	lhu	v1,52(s4)
80101774:	00000000 	nop
80101778:	23104300 	subu	v0,v0,v1
8010177c:	58024224 	addiu	v0,v0,600
80101780:	ffff4230 	andi	v0,v0,0xffff
80101784:	5902422c 	sltiu	v0,v0,601
80101788:	7c004010 	beqz	v0,0x8010197c
8010178c:	2198a000 	move	s3,a1
80101790:	2e004396 	lhu	v1,46(s2)
80101794:	2c008296 	lhu	v0,44(s4)
80101798:	80006496 	lhu	a0,128(s3)
8010179c:	82006686 	lh	a2,130(s3)
801017a0:	23886200 	subu	s1,v1,v0
801017a4:	21289100 	addu	a1,a0,s1
801017a8:	ffffa230 	andi	v0,a1,0xffff
801017ac:	2a10c200 	slt	v0,a2,v0
801017b0:	72004014 	bnez	v0,0x8010197c
801017b4:	21a82002 	move	s5,s1
801017b8:	32004296 	lhu	v0,50(s2)
801017bc:	30008396 	lhu	v1,48(s4)
801017c0:	00000000 	nop
801017c4:	23104300 	subu	v0,v0,v1
801017c8:	21208200 	addu	a0,a0,v0
801017cc:	ffff8230 	andi	v0,a0,0xffff
801017d0:	2a10c200 	slt	v0,a2,v0
801017d4:	69004014 	bnez	v0,0x8010197c
801017d8:	00000000 	nop
801017dc:	0c008486 	lh	a0,12(s4)
801017e0:	d40f020c 	jal	0x80083f50
801017e4:	00000000 	nop
801017e8:	80006386 	lh	v1,128(s3)
801017ec:	00000000 	nop
801017f0:	18004300 	mult	v0,v1
801017f4:	0c008486 	lh	a0,12(s4)
801017f8:	12400000 	mflo	t0
801017fc:	a00f020c 	jal	0x80083e80
80101800:	03830800 	sra	s0,t0,0xc
80101804:	80006386 	lh	v1,128(s3)
80101808:	00000000 	nop
8010180c:	18004300 	mult	v0,v1
80101810:	21280002 	move	a1,s0
80101814:	21980002 	move	s3,s0
80101818:	12400000 	mflo	t0
8010181c:	23100800 	negu	v0,t0
80101820:	031b0200 	sra	v1,v0,0xc
80101824:	21206000 	move	a0,v1
80101828:	00141000 	sll	v0,s0,0x10
8010182c:	02004104 	bgez	v0,0x80101838
80101830:	21306000 	move	a2,v1
80101834:	23281000 	negu	a1,s0
80101838:	00140300 	sll	v0,v1,0x10
8010183c:	03004104 	bgez	v0,0x8010184c
80101840:	00140400 	sll	v0,a0,0x10
80101844:	23200300 	negu	a0,v1
80101848:	00140400 	sll	v0,a0,0x10
8010184c:	04004014 	bnez	v0,0x80101860
80101850:	00141100 	sll	v0,s1,0x10
80101854:	1000a0af 	sw	zero,16(sp)
80101858:	1c2a0408 	j	0x8010a870
8010185c:	00000000 	nop
80101860:	02004104 	bgez	v0,0x8010186c
80101864:	21102002 	move	v0,s1
80101868:	23101100 	negu	v0,s1
8010186c:	001c0200 	sll	v1,v0,0x10
80101870:	00140500 	sll	v0,a1,0x10
80101874:	2a104300 	slt	v0,v0,v1
80101878:	40004014 	bnez	v0,0x8010197c
8010187c:	001c1500 	sll	v1,s5,0x10
80101880:	031c0300 	sra	v1,v1,0x10
80101884:	23180300 	negu	v1,v1
80101888:	00140600 	sll	v0,a2,0x10
8010188c:	03140200 	sra	v0,v0,0x10
80101890:	18006200 	mult	v1,v0
80101894:	12180000 	mflo	v1
80101898:	00141300 	sll	v0,s3,0x10
8010189c:	03140200 	sra	v0,v0,0x10
801018a0:	1a006200 	div	zero,v1,v0
801018a4:	02004014 	bnez	v0,0x801018b0
801018a8:	00000000 	nop
801018ac:	0d000700 	break	0x7
801018b0:	ffff0124 	li	at,-1
801018b4:	04004114 	bne	v0,at,0x801018c8
801018b8:	0080013c 	lui	at,0x8000
801018bc:	02006114 	bne	v1,at,0x801018c8
801018c0:	00000000 	nop
801018c4:	0d000600 	break	0x6
801018c8:	12100000 	mflo	v0
801018cc:	00000000 	nop
801018d0:	1000a2af 	sw	v0,16(sp)
801018d4:	30008586 	lh	a1,48(s4)
801018d8:	1000a28f 	lw	v0,16(sp)
801018dc:	32004786 	lh	a3,50(s2)
801018e0:	30008696 	lhu	a2,48(s4)
801018e4:	2110a200 	addu	v0,a1,v0
801018e8:	2a10e200 	slt	v0,a3,v0
801018ec:	15004010 	beqz	v0,0x80101944
801018f0:	00000000 	nop
801018f4:	1000a28f 	lw	v0,16(sp)
801018f8:	86004386 	lh	v1,134(s2)
801018fc:	84004486 	lh	a0,132(s2)
80101900:	c0ff4224 	addiu	v0,v0,-64
80101904:	2110a200 	addu	v0,a1,v0
80101908:	23186400 	subu	v1,v1,a0
8010190c:	2118e300 	addu	v1,a3,v1
80101910:	2a186200 	slt	v1,v1,v0
80101914:	86004596 	lhu	a1,134(s2)
80101918:	84004496 	lhu	a0,132(s2)
8010191c:	17006014 	bnez	v1,0x8010197c
80101920:	00000000 	nop
80101924:	1000a28f 	lw	v0,16(sp)
80101928:	01000324 	li	v1,1
8010192c:	290043a2 	sb	v1,41(s2)
80101930:	2318a400 	subu	v1,a1,a0
80101934:	c0ff4224 	addiu	v0,v0,-64
80101938:	2110c200 	addu	v0,a2,v0
8010193c:	452a0408 	j	0x8010a914
80101940:	23104300 	subu	v0,v0,v1
80101944:	1000a38f 	lw	v1,16(sp)
80101948:	84004286 	lh	v0,132(s2)
8010194c:	84004496 	lhu	a0,132(s2)
80101950:	2118a300 	addu	v1,a1,v1
80101954:	2310e200 	subu	v0,a3,v0
80101958:	2a186200 	slt	v1,v1,v0
8010195c:	07006014 	bnez	v1,0x8010197c
80101960:	00000000 	nop
80101964:	1000a28f 	lw	v0,16(sp)
80101968:	01000324 	li	v1,1
8010196c:	290043a2 	sb	v1,41(s2)
80101970:	2110c200 	addu	v0,a2,v0
80101974:	21108200 	addu	v0,a0,v0
80101978:	320042a6 	sh	v0,50(s2)
8010197c:	3000bf8f 	lw	ra,48(sp)
80101980:	2c00b58f 	lw	s5,44(sp)
80101984:	2800b48f 	lw	s4,40(sp)
80101988:	2400b38f 	lw	s3,36(sp)
8010198c:	2000b28f 	lw	s2,32(sp)
80101990:	1c00b18f 	lw	s1,28(sp)
80101994:	1800b08f 	lw	s0,24(sp)
80101998:	0800e003 	jr	ra
8010199c:	3800bd27 	addiu	sp,sp,56
801019a0:	d8ffbd27 	addiu	sp,sp,-40
801019a4:	1000b0af 	sw	s0,16(sp)
801019a8:	21808000 	move	s0,a0
801019ac:	0c80023c 	lui	v0,0x800c
801019b0:	08f84324 	addiu	v1,v0,-2040
801019b4:	2400bfaf 	sw	ra,36(sp)
801019b8:	2000b4af 	sw	s4,32(sp)
801019bc:	1c00b3af 	sw	s3,28(sp)
801019c0:	1800b2af 	sw	s2,24(sp)
801019c4:	1400b1af 	sw	s1,20(sp)
801019c8:	05006280 	lb	v0,5(v1)
801019cc:	00000000 	nop
801019d0:	c6004014 	bnez	v0,0x80101cec
801019d4:	2190a000 	move	s2,a1
801019d8:	801f023c 	lui	v0,0x1f80
801019dc:	59024290 	lbu	v0,601(v0)
801019e0:	00000000 	nop
801019e4:	c1004014 	bnez	v0,0x80101cec
801019e8:	00000000 	nop
801019ec:	01006290 	lbu	v0,1(v1)
801019f0:	00000000 	nop
801019f4:	bd004014 	bnez	v0,0x80101cec
801019f8:	00000000 	nop
801019fc:	02006290 	lbu	v0,2(v1)
80101a00:	00000000 	nop
80101a04:	b9004014 	bnez	v0,0x80101cec
80101a08:	00000000 	nop
80101a0c:	00000292 	lbu	v0,0(s0)
80101a10:	00000000 	nop
80101a14:	0c004230 	andi	v0,v0,0xc
80101a18:	b4004014 	bnez	v0,0x80101cec
80101a1c:	00000000 	nop
80101a20:	7e010296 	lhu	v0,382(s0)
80101a24:	84005396 	lhu	s3,132(s2)
80101a28:	86005496 	lhu	s4,134(s2)
80101a2c:	40004230 	andi	v0,v0,0x40
80101a30:	05004010 	beqz	v0,0x80101a48
80101a34:	21108002 	move	v0,s4
80101a38:	90016326 	addiu	v1,s3,400
80101a3c:	90014224 	addiu	v0,v0,400
80101a40:	7d2a0408 	j	0x8010a9f4
80101a44:	840043a6 	sh	v1,132(s2)
80101a48:	86004296 	lhu	v0,134(s2)
80101a4c:	c8006326 	addiu	v1,s3,200
80101a50:	840043a6 	sh	v1,132(s2)
80101a54:	c8004224 	addiu	v0,v0,200
80101a58:	860042a6 	sh	v0,134(s2)
80101a5c:	21200002 	move	a0,s0
80101a60:	c18b000c 	jal	0x80022f04
80101a64:	21284002 	move	a1,s2
80101a68:	9f004010 	beqz	v0,0x80101ce8
80101a6c:	0c80023c 	lui	v0,0x800c
80101a70:	08f84624 	addiu	a2,v0,-2040
80101a74:	801f053c 	lui	a1,0x1f80
80101a78:	1600c0a0 	sb	zero,22(a2)
80101a7c:	84000396 	lhu	v1,132(s0)
80101a80:	84004296 	lhu	v0,132(s2)
80101a84:	32000496 	lhu	a0,50(s0)
80101a88:	21186200 	addu	v1,v1,v0
80101a8c:	32004296 	lhu	v0,50(s2)
80101a90:	2c016324 	addiu	v1,v1,300
80101a94:	23104400 	subu	v0,v0,a0
80101a98:	9000a48c 	lw	a0,144(a1)
80101a9c:	00000000 	nop
80101aa0:	04008010 	beqz	a0,0x80101ab4
80101aa4:	23886200 	subu	s1,v1,v0
80101aa8:	9000a290 	lbu	v0,144(a1)
80101aac:	9e2a0408 	j	0x8010aa78
80101ab0:	4000c2a0 	sb	v0,64(a2)
80101ab4:	01000224 	li	v0,1
80101ab8:	4000c2a0 	sb	v0,64(a2)
80101abc:	78000292 	lbu	v0,120(s0)
80101ac0:	00000000 	nop
80101ac4:	06004014 	bnez	v0,0x80101ae0
80101ac8:	801f033c 	lui	v1,0x1f80
80101acc:	25000424 	li	a0,37
80101ad0:	21280000 	move	a1,zero
80101ad4:	64d1010c 	jal	0x80074590
80101ad8:	2130a000 	move	a2,a1
80101adc:	801f033c 	lui	v1,0x1f80
80101ae0:	44000496 	lhu	a0,68(s0)
80101ae4:	9400638c 	lw	v1,148(v1)
80101ae8:	00140400 	sll	v0,a0,0x10
80101aec:	83140200 	sra	v0,v0,0x12
80101af0:	23208200 	subu	a0,a0,v0
80101af4:	09006010 	beqz	v1,0x80101b1c
80101af8:	440004a6 	sh	a0,68(s0)
80101afc:	00141100 	sll	v0,s1,0x10
80101b00:	3000038e 	lw	v1,48(s0)
80101b04:	03110200 	sra	v0,v0,0x4
80101b08:	500000a6 	sh	zero,80(s0)
80101b0c:	4a0000a6 	sh	zero,74(s0)
80101b10:	23186200 	subu	v1,v1,v0
80101b14:	e42a0408 	j	0x8010ab90
80101b18:	300003ae 	sw	v1,48(s0)
80101b1c:	4a000296 	lhu	v0,74(s0)
80101b20:	40181100 	sll	v1,s1,0x1
80101b24:	23104300 	subu	v0,v0,v1
80101b28:	4a0002a6 	sh	v0,74(s0)
80101b2c:	00140200 	sll	v0,v0,0x10
80101b30:	031c0200 	sra	v1,v0,0x10
80101b34:	81026228 	slti	v0,v1,641
80101b38:	03004014 	bnez	v0,0x80101b48
80101b3c:	00141100 	sll	v0,s1,0x10
80101b40:	c42a0408 	j	0x8010ab10
80101b44:	80020224 	li	v0,640
80101b48:	03140200 	sra	v0,v0,0x10
80101b4c:	f4014228 	slti	v0,v0,500
80101b50:	05004010 	beqz	v0,0x80101b68
80101b54:	00c26228 	slti	v0,v1,-15872
80101b58:	07004010 	beqz	v0,0x80101b78
80101b5c:	00c20224 	li	v0,-15872
80101b60:	c52a0408 	j	0x8010ab14
80101b64:	4a0002a6 	sh	v0,74(s0)
80101b68:	00d86228 	slti	v0,v1,-10240
80101b6c:	02004010 	beqz	v0,0x80101b78
80101b70:	00d80224 	li	v0,-10240
80101b74:	4a0002a6 	sh	v0,74(s0)
80101b78:	46000392 	lbu	v1,70(s0)
80101b7c:	00000000 	nop
80101b80:	edff6224 	addiu	v0,v1,-19
80101b84:	0300422c 	sltiu	v0,v0,3
80101b88:	0a004014 	bnez	v0,0x80101bb4
80101b8c:	801f023c 	lui	v0,0x1f80
80101b90:	ff006330 	andi	v1,v1,0xff
80101b94:	ca000224 	li	v0,202
80101b98:	05006210 	beq	v1,v0,0x80101bb0
80101b9c:	e5000224 	li	v0,229
80101ba0:	03006210 	beq	v1,v0,0x80101bb0
80101ba4:	e6000224 	li	v0,230
80101ba8:	12006214 	bne	v1,v0,0x80101bf4
80101bac:	00000000 	nop
80101bb0:	801f023c 	lui	v0,0x1f80
80101bb4:	9000428c 	lw	v0,144(v0)
80101bb8:	00000000 	nop
80101bbc:	05004010 	beqz	v0,0x80101bd4
80101bc0:	01000224 	li	v0,1
80101bc4:	45010392 	lbu	v1,325(s0)
80101bc8:	00000000 	nop
80101bcc:	07006210 	beq	v1,v0,0x80101bec
80101bd0:	0c80033c 	lui	v1,0x800c
80101bd4:	21200002 	move	a0,s0
80101bd8:	12000524 	li	a1,18
80101bdc:	4553010c 	jal	0x80054d14
80101be0:	04000624 	li	a2,4
80101be4:	e42a0408 	j	0x8010ab90
80101be8:	00000000 	nop
80101bec:	04000224 	li	v0,4
80101bf0:	48f862a0 	sb	v0,-1976(v1)
80101bf4:	64004296 	lhu	v0,100(s2)
80101bf8:	00000000 	nop
80101bfc:	01004224 	addiu	v0,v0,1
80101c00:	640042a6 	sh	v0,100(s2)
80101c04:	00140200 	sll	v0,v0,0x10
80101c08:	03140200 	sra	v0,v0,0x10
80101c0c:	3d004228 	slti	v0,v0,61
80101c10:	31004014 	bnez	v0,0x80101cd8
80101c14:	01000224 	li	v0,1
80101c18:	6e010286 	lh	v0,366(s0)
80101c1c:	00000000 	nop
80101c20:	2c004010 	beqz	v0,0x80101cd4
80101c24:	801f023c 	lui	v0,0x1f80
80101c28:	37014290 	lbu	v0,311(v0)
80101c2c:	00000000 	nop
80101c30:	29004014 	bnez	v0,0x80101cd8
80101c34:	01000224 	li	v0,1
80101c38:	77010292 	lbu	v0,375(s0)
80101c3c:	00000000 	nop
80101c40:	02004230 	andi	v0,v0,0x2
80101c44:	24004014 	bnez	v0,0x80101cd8
80101c48:	01000224 	li	v0,1
80101c4c:	78000292 	lbu	v0,120(s0)
80101c50:	00000000 	nop
80101c54:	20004014 	bnez	v0,0x80101cd8
80101c58:	01000224 	li	v0,1
80101c5c:	7e010296 	lhu	v0,382(s0)
80101c60:	00000000 	nop
80101c64:	00044230 	andi	v0,v0,0x400
80101c68:	1b004014 	bnez	v0,0x80101cd8
80101c6c:	01000224 	li	v0,1
80101c70:	0c80023c 	lui	v0,0x800c
80101c74:	d5fa4290 	lbu	v0,-1323(v0)
80101c78:	00000000 	nop
80101c7c:	0a004014 	bnez	v0,0x80101ca8
80101c80:	01000224 	li	v0,1
80101c84:	21200002 	move	a0,s0
80101c88:	21280000 	move	a1,zero
80101c8c:	01000624 	li	a2,1
80101c90:	428b000c 	jal	0x80022d08
80101c94:	2138c000 	move	a3,a2
80101c98:	03004010 	beqz	v0,0x80101ca8
80101c9c:	01000224 	li	v0,1
80101ca0:	122b0408 	j	0x8010ac48
80101ca4:	070000a2 	sb	zero,7(s0)
80101ca8:	070002a2 	sb	v0,7(s0)
80101cac:	02000424 	li	a0,2
80101cb0:	00000392 	lbu	v1,0(s0)
80101cb4:	06000224 	li	v0,6
80101cb8:	040004a2 	sb	a0,4(s0)
80101cbc:	050002a2 	sb	v0,5(s0)
80101cc0:	060000a2 	sb	zero,6(s0)
80101cc4:	0c006334 	ori	v1,v1,0xc
80101cc8:	000003a2 	sb	v1,0(s0)
80101ccc:	000044a2 	sb	a0,0(s2)
80101cd0:	400040a6 	sh	zero,64(s2)
80101cd4:	01000224 	li	v0,1
80101cd8:	5e0042a2 	sb	v0,94(s2)
80101cdc:	840053a6 	sh	s3,132(s2)
80101ce0:	222b0408 	j	0x8010ac88
80101ce4:	860054a6 	sh	s4,134(s2)
80101ce8:	640040a6 	sh	zero,100(s2)
80101cec:	2400bf8f 	lw	ra,36(sp)
80101cf0:	2000b48f 	lw	s4,32(sp)
80101cf4:	1c00b38f 	lw	s3,28(sp)
80101cf8:	1800b28f 	lw	s2,24(sp)
80101cfc:	1400b18f 	lw	s1,20(sp)
80101d00:	1000b08f 	lw	s0,16(sp)
80101d04:	0800e003 	jr	ra
80101d08:	2800bd27 	addiu	sp,sp,40
80101d0c:	d8ffbd27 	addiu	sp,sp,-40
80101d10:	801f023c 	lui	v0,0x1f80
80101d14:	1c00b3af 	sw	s3,28(sp)
80101d18:	3c01538c 	lw	s3,316(v0)
80101d1c:	801f023c 	lui	v0,0x1f80
80101d20:	801f033c 	lui	v1,0x1f80
80101d24:	44014490 	lbu	a0,324(v0)
80101d28:	50016284 	lh	v0,336(v1)
80101d2c:	801f033c 	lui	v1,0x1f80
80101d30:	2400bfaf 	sw	ra,36(sp)
80101d34:	2000b4af 	sw	s4,32(sp)
80101d38:	1800b2af 	sw	s2,24(sp)
80101d3c:	1400b1af 	sw	s1,20(sp)
80101d40:	1000b0af 	sw	s0,16(sp)
80101d44:	53004010 	beqz	v0,0x80101e94
80101d48:	830164a0 	sb	a0,387(v1)
80101d4c:	ff008230 	andi	v0,a0,0xff
80101d50:	50004010 	beqz	v0,0x80101e94
80101d54:	21a06000 	move	s4,v1
80101d58:	801f123c 	lui	s2,0x1f80
80101d5c:	0000708e 	lw	s0,0(s3)
80101d60:	83018292 	lbu	v0,387(s4)
80101d64:	00000000 	nop
80101d68:	ffff4224 	addiu	v0,v0,-1
80101d6c:	830182a2 	sb	v0,387(s4)
80101d70:	00000392 	lbu	v1,0(s0)
80101d74:	02000224 	li	v0,2
80101d78:	41006210 	beq	v1,v0,0x80101e80
80101d7c:	04007326 	addiu	s3,s3,4
80101d80:	08006230 	andi	v0,v1,0x8
80101d84:	3e004014 	bnez	v0,0x80101e80
80101d88:	801f023c 	lui	v0,0x1f80
80101d8c:	4801518c 	lw	s1,328(v0)
80101d90:	801f023c 	lui	v0,0x1f80
80101d94:	50014290 	lbu	v0,336(v0)
80101d98:	00000000 	nop
80101d9c:	820142a2 	sb	v0,386(s2)
80101da0:	ff004230 	andi	v0,v0,0xff
80101da4:	37004010 	beqz	v0,0x80101e84
80101da8:	801f033c 	lui	v1,0x1f80
80101dac:	82014292 	lbu	v0,386(s2)
80101db0:	0000258e 	lw	a1,0(s1)
80101db4:	ffff4224 	addiu	v0,v0,-1
80101db8:	820142a2 	sb	v0,386(s2)
80101dbc:	0000a290 	lbu	v0,0(a1)
80101dc0:	00000000 	nop
80101dc4:	01004230 	andi	v0,v0,0x1
80101dc8:	28004010 	beqz	v0,0x80101e6c
80101dcc:	04003126 	addiu	s1,s1,4
80101dd0:	0200a390 	lbu	v1,2(a1)
80101dd4:	18000224 	li	v0,24
80101dd8:	11006210 	beq	v1,v0,0x80101e20
80101ddc:	19006228 	slti	v0,v1,25
80101de0:	05004010 	beqz	v0,0x80101df8
80101de4:	08000224 	li	v0,8
80101de8:	08006210 	beq	v1,v0,0x80101e0c
80101dec:	801f023c 	lui	v0,0x1f80
80101df0:	832b0408 	j	0x8010ae0c
80101df4:	00000000 	nop
80101df8:	64000224 	li	v0,100
80101dfc:	15006210 	beq	v1,v0,0x80101e54
80101e00:	801f023c 	lui	v0,0x1f80
80101e04:	832b0408 	j	0x8010ae0c
80101e08:	00000000 	nop
80101e0c:	c000a68c 	lw	a2,192(a1)
80101e10:	b829040c 	jal	0x8010a6e0
80101e14:	21200002 	move	a0,s0
80101e18:	832b0408 	j	0x8010ae0c
80101e1c:	801f023c 	lui	v0,0x1f80
80101e20:	00000392 	lbu	v1,0(s0)
80101e24:	04000224 	li	v0,4
80101e28:	11006214 	bne	v1,v0,0x80101e70
80101e2c:	801f023c 	lui	v0,0x1f80
80101e30:	3f90000c 	jal	0x800240fc
80101e34:	21200002 	move	a0,s0
80101e38:	0d004010 	beqz	v0,0x80101e70
80101e3c:	801f023c 	lui	v0,0x1f80
80101e40:	01000224 	li	v0,1
80101e44:	5e0002a2 	sb	v0,94(s0)
80101e48:	0a000224 	li	v0,10
80101e4c:	822b0408 	j	0x8010ae08
80101e50:	000002a2 	sb	v0,0(s0)
80101e54:	02000392 	lbu	v1,2(s0)
80101e58:	66000224 	li	v0,102
80101e5c:	04006214 	bne	v1,v0,0x80101e70
80101e60:	801f023c 	lui	v0,0x1f80
80101e64:	af24040c 	jal	0x801092bc
80101e68:	21200002 	move	a0,s0
80101e6c:	801f023c 	lui	v0,0x1f80
80101e70:	82014290 	lbu	v0,386(v0)
80101e74:	00000000 	nop
80101e78:	ccff4014 	bnez	v0,0x80101dac
80101e7c:	00000000 	nop
80101e80:	801f033c 	lui	v1,0x1f80
80101e84:	83016290 	lbu	v0,387(v1)
80101e88:	00000000 	nop
80101e8c:	b3ff4014 	bnez	v0,0x80101d5c
80101e90:	00000000 	nop
80101e94:	2400bf8f 	lw	ra,36(sp)
80101e98:	2000b48f 	lw	s4,32(sp)
80101e9c:	1c00b38f 	lw	s3,28(sp)
80101ea0:	1800b28f 	lw	s2,24(sp)
80101ea4:	1400b18f 	lw	s1,20(sp)
80101ea8:	1000b08f 	lw	s0,16(sp)
80101eac:	0800e003 	jr	ra
80101eb0:	2800bd27 	addiu	sp,sp,40
80101eb4:	801f023c 	lui	v0,0x1f80
80101eb8:	44014284 	lh	v0,324(v0)
80101ebc:	d8ffbd27 	addiu	sp,sp,-40
80101ec0:	2000bfaf 	sw	ra,32(sp)
80101ec4:	1c00b3af 	sw	s3,28(sp)
80101ec8:	1800b2af 	sw	s2,24(sp)
80101ecc:	1400b1af 	sw	s1,20(sp)
80101ed0:	61004010 	beqz	v0,0x80102058
80101ed4:	1000b0af 	sw	s0,16(sp)
80101ed8:	0f80023c 	lui	v0,0x800f
80101edc:	3827518c 	lw	s1,10040(v0)
80101ee0:	00000000 	nop
80101ee4:	5c002012 	beqz	s1,0x80102058
80101ee8:	801f133c 	lui	s3,0x1f80
80101eec:	00002292 	lbu	v0,0(s1)
80101ef0:	00000000 	nop
80101ef4:	01004230 	andi	v0,v0,0x1
80101ef8:	53004010 	beqz	v0,0x80102048
80101efc:	00000000 	nop
80101f00:	2b002292 	lbu	v0,43(s1)
80101f04:	00000000 	nop
80101f08:	4f004014 	bnez	v0,0x80102048
80101f0c:	801f023c 	lui	v0,0x1f80
80101f10:	3c01528c 	lw	s2,316(v0)
80101f14:	801f023c 	lui	v0,0x1f80
80101f18:	44014290 	lbu	v0,324(v0)
80101f1c:	00000000 	nop
80101f20:	820162a2 	sb	v0,386(s3)
80101f24:	ff004230 	andi	v0,v0,0xff
80101f28:	47004010 	beqz	v0,0x80102048
80101f2c:	00000000 	nop
80101f30:	82016292 	lbu	v0,386(s3)
80101f34:	0000508e 	lw	s0,0(s2)
80101f38:	ffff4224 	addiu	v0,v0,-1
80101f3c:	820162a2 	sb	v0,386(s3)
80101f40:	00000292 	lbu	v0,0(s0)
80101f44:	00000000 	nop
80101f48:	01004230 	andi	v0,v0,0x1
80101f4c:	39004010 	beqz	v0,0x80102034
80101f50:	04005226 	addiu	s2,s2,4
80101f54:	02000392 	lbu	v1,2(s0)
80101f58:	55000224 	li	v0,85
80101f5c:	36006210 	beq	v1,v0,0x80102038
80101f60:	801f023c 	lui	v0,0x1f80
80101f64:	56006228 	slti	v0,v1,86
80101f68:	05004010 	beqz	v0,0x80101f80
80101f6c:	4f000224 	li	v0,79
80101f70:	08006210 	beq	v1,v0,0x80101f94
80101f74:	801f023c 	lui	v0,0x1f80
80101f78:	f52b0408 	j	0x8010afd4
80101f7c:	00000000 	nop
80101f80:	66000224 	li	v0,102
80101f84:	08006210 	beq	v1,v0,0x80101fa8
80101f88:	801f023c 	lui	v0,0x1f80
80101f8c:	f52b0408 	j	0x8010afd4
80101f90:	00000000 	nop
80101f94:	21202002 	move	a0,s1
80101f98:	5429040c 	jal	0x8010a550
80101f9c:	21280002 	move	a1,s0
80101fa0:	f52b0408 	j	0x8010afd4
80101fa4:	801f023c 	lui	v0,0x1f80
80101fa8:	21202002 	move	a0,s1
80101fac:	c18b000c 	jal	0x80022f04
80101fb0:	21280002 	move	a1,s0
80101fb4:	20004010 	beqz	v0,0x80102038
80101fb8:	801f023c 	lui	v0,0x1f80
80101fbc:	0c80023c 	lui	v0,0x800c
80101fc0:	70f84390 	lbu	v1,-1936(v0)
80101fc4:	0e000224 	li	v0,14
80101fc8:	07006214 	bne	v1,v0,0x80101fe8
80101fcc:	00000000 	nop
80101fd0:	bf000292 	lbu	v0,191(s0)
80101fd4:	00000000 	nop
80101fd8:	08004014 	bnez	v0,0x80101ffc
80101fdc:	21202002 	move	a0,s1
80101fe0:	ed2b0408 	j	0x8010afb4
80101fe4:	21280002 	move	a1,s0
80101fe8:	00000292 	lbu	v0,0(s0)
80101fec:	00000000 	nop
80101ff0:	08004230 	andi	v0,v0,0x8
80101ff4:	07004010 	beqz	v0,0x80102014
80101ff8:	21202002 	move	a0,s1
80101ffc:	21280002 	move	a1,s0
80102000:	21300000 	move	a2,zero
80102004:	187a000c 	jal	0x8001e860
80102008:	2138c000 	move	a3,a2
8010200c:	f12b0408 	j	0x8010afc4
80102010:	80004230 	andi	v0,v0,0x80
80102014:	21280002 	move	a1,s0
80102018:	21300000 	move	a2,zero
8010201c:	2777000c 	jal	0x8001dc9c
80102020:	01000724 	li	a3,1
80102024:	80004230 	andi	v0,v0,0x80
80102028:	03004014 	bnez	v0,0x80102038
8010202c:	801f023c 	lui	v0,0x1f80
80102030:	820160a2 	sb	zero,386(s3)
80102034:	801f023c 	lui	v0,0x1f80
80102038:	82014290 	lbu	v0,386(v0)
8010203c:	00000000 	nop
80102040:	bbff4014 	bnez	v0,0x80101f30
80102044:	00000000 	nop
80102048:	2400318e 	lw	s1,36(s1)
8010204c:	00000000 	nop
80102050:	a6ff2016 	bnez	s1,0x80101eec
80102054:	00000000 	nop
80102058:	2000bf8f 	lw	ra,32(sp)
8010205c:	1c00b38f 	lw	s3,28(sp)
80102060:	1800b28f 	lw	s2,24(sp)
80102064:	1400b18f 	lw	s1,20(sp)
80102068:	1000b08f 	lw	s0,16(sp)
8010206c:	0800e003 	jr	ra
80102070:	2800bd27 	addiu	sp,sp,40
80102074:	801f023c 	lui	v0,0x1f80
80102078:	50014284 	lh	v0,336(v0)
8010207c:	d8ffbd27 	addiu	sp,sp,-40
80102080:	2000bfaf 	sw	ra,32(sp)
80102084:	1c00b3af 	sw	s3,28(sp)
80102088:	1800b2af 	sw	s2,24(sp)
8010208c:	1400b1af 	sw	s1,20(sp)
80102090:	37004010 	beqz	v0,0x80102170
80102094:	1000b0af 	sw	s0,16(sp)
80102098:	0f80023c 	lui	v0,0x800f
8010209c:	3827518c 	lw	s1,10040(v0)
801020a0:	00000000 	nop
801020a4:	32002012 	beqz	s1,0x80102170
801020a8:	801f133c 	lui	s3,0x1f80
801020ac:	00002292 	lbu	v0,0(s1)
801020b0:	00000000 	nop
801020b4:	01004230 	andi	v0,v0,0x1
801020b8:	29004010 	beqz	v0,0x80102160
801020bc:	00000000 	nop
801020c0:	2b002292 	lbu	v0,43(s1)
801020c4:	00000000 	nop
801020c8:	25004014 	bnez	v0,0x80102160
801020cc:	801f023c 	lui	v0,0x1f80
801020d0:	4801528c 	lw	s2,328(v0)
801020d4:	801f023c 	lui	v0,0x1f80
801020d8:	50014290 	lbu	v0,336(v0)
801020dc:	00000000 	nop
801020e0:	820162a2 	sb	v0,386(s3)
801020e4:	ff004230 	andi	v0,v0,0xff
801020e8:	1d004010 	beqz	v0,0x80102160
801020ec:	00000000 	nop
801020f0:	82016292 	lbu	v0,386(s3)
801020f4:	0000508e 	lw	s0,0(s2)
801020f8:	ffff4224 	addiu	v0,v0,-1
801020fc:	820162a2 	sb	v0,386(s3)
80102100:	00000292 	lbu	v0,0(s0)
80102104:	00000000 	nop
80102108:	01004230 	andi	v0,v0,0x1
8010210c:	0f004010 	beqz	v0,0x8010214c
80102110:	04005226 	addiu	s2,s2,4
80102114:	02000392 	lbu	v1,2(s0)
80102118:	08000224 	li	v0,8
8010211c:	07006210 	beq	v1,v0,0x8010213c
80102120:	12000224 	li	v0,18
80102124:	0a006214 	bne	v1,v0,0x80102150
80102128:	801f023c 	lui	v0,0x1f80
8010212c:	21202002 	move	a0,s1
80102130:	21280002 	move	a1,s0
80102134:	ad85000c 	jal	0x800216b4
80102138:	21300000 	move	a2,zero
8010213c:	21202002 	move	a0,s1
80102140:	c000068e 	lw	a2,192(s0)
80102144:	b326040c 	jal	0x80109acc
80102148:	21280002 	move	a1,s0
8010214c:	801f023c 	lui	v0,0x1f80
80102150:	82014290 	lbu	v0,386(v0)
80102154:	00000000 	nop
80102158:	e5ff4014 	bnez	v0,0x801020f0
8010215c:	00000000 	nop
80102160:	2400318e 	lw	s1,36(s1)
80102164:	00000000 	nop
80102168:	d0ff2016 	bnez	s1,0x801020ac
8010216c:	00000000 	nop
80102170:	2000bf8f 	lw	ra,32(sp)
80102174:	1c00b38f 	lw	s3,28(sp)
80102178:	1800b28f 	lw	s2,24(sp)
8010217c:	1400b18f 	lw	s1,20(sp)
80102180:	1000b08f 	lw	s0,16(sp)
80102184:	0800e003 	jr	ra
80102188:	2800bd27 	addiu	sp,sp,40
8010218c:	d8ffbd27 	addiu	sp,sp,-40
80102190:	1000b0af 	sw	s0,16(sp)
80102194:	0e80103c 	lui	s0,0x800e
80102198:	1400b1af 	sw	s1,20(sp)
8010219c:	807e1126 	addiu	s1,s0,32384
801021a0:	21202002 	move	a0,s1
801021a4:	2000bfaf 	sw	ra,32(sp)
801021a8:	1c00b3af 	sw	s3,28(sp)
801021ac:	238a000c 	jal	0x8002288c
801021b0:	1800b2af 	sw	s2,24(sp)
801021b4:	807e0392 	lbu	v1,32384(s0)
801021b8:	00000000 	nop
801021bc:	0800622c 	sltiu	v0,v1,8
801021c0:	2e004010 	beqz	v0,0x8010227c
801021c4:	1180023c 	lui	v0,0x8011
801021c8:	d08f4224 	addiu	v0,v0,-28720
801021cc:	80180300 	sll	v1,v1,0x2
801021d0:	21186200 	addu	v1,v1,v0
801021d4:	0000628c 	lw	v0,0(v1)
801021d8:	00000000 	nop
801021dc:	08004000 	jr	v0
801021e0:	00000000 	nop
801021e4:	5801228e 	lw	v0,344(s1)
801021e8:	00000000 	nop
801021ec:	0200422c 	sltiu	v0,v0,2
801021f0:	79004010 	beqz	v0,0x801023d8
801021f4:	801f023c 	lui	v0,0x1f80
801021f8:	4801508c 	lw	s0,328(v0)
801021fc:	801f023c 	lui	v0,0x1f80
80102200:	50014290 	lbu	v0,336(v0)
80102204:	801f033c 	lui	v1,0x1f80
80102208:	820162a0 	sb	v0,386(v1)
8010220c:	ff004230 	andi	v0,v0,0xff
80102210:	71004010 	beqz	v0,0x801023d8
80102214:	00000000 	nop
80102218:	21906000 	move	s2,v1
8010221c:	08001324 	li	s3,8
80102220:	82014292 	lbu	v0,386(s2)
80102224:	0000058e 	lw	a1,0(s0)
80102228:	ffff4224 	addiu	v0,v0,-1
8010222c:	820142a2 	sb	v0,386(s2)
80102230:	0000a290 	lbu	v0,0(a1)
80102234:	00000000 	nop
80102238:	01004230 	andi	v0,v0,0x1
8010223c:	08004010 	beqz	v0,0x80102260
80102240:	04001026 	addiu	s0,s0,4
80102244:	0200a290 	lbu	v0,2(a1)
80102248:	00000000 	nop
8010224c:	05005314 	bne	v0,s3,0x80102264
80102250:	801f033c 	lui	v1,0x1f80
80102254:	c000a68c 	lw	a2,192(a1)
80102258:	8c25040c 	jal	0x80109630
8010225c:	21202002 	move	a0,s1
80102260:	801f033c 	lui	v1,0x1f80
80102264:	82016290 	lbu	v0,386(v1)
80102268:	00000000 	nop
8010226c:	5a004010 	beqz	v0,0x801023d8
80102270:	00000000 	nop
80102274:	6f2c0408 	j	0x8010b1bc
80102278:	00000000 	nop
8010227c:	d889000c 	jal	0x80022760
80102280:	21202002 	move	a0,s1
80102284:	801f023c 	lui	v0,0x1f80
80102288:	3c01508c 	lw	s0,316(v0)
8010228c:	801f023c 	lui	v0,0x1f80
80102290:	44014290 	lbu	v0,324(v0)
80102294:	801f033c 	lui	v1,0x1f80
80102298:	820162a0 	sb	v0,386(v1)
8010229c:	ff004230 	andi	v0,v0,0xff
801022a0:	29004010 	beqz	v0,0x80102348
801022a4:	00000000 	nop
801022a8:	21906000 	move	s2,v1
801022ac:	82014292 	lbu	v0,386(s2)
801022b0:	0000058e 	lw	a1,0(s0)
801022b4:	ffff4224 	addiu	v0,v0,-1
801022b8:	820142a2 	sb	v0,386(s2)
801022bc:	0000a290 	lbu	v0,0(a1)
801022c0:	00000000 	nop
801022c4:	01004230 	andi	v0,v0,0x1
801022c8:	1a004010 	beqz	v0,0x80102334
801022cc:	04001026 	addiu	s0,s0,4
801022d0:	0200a390 	lbu	v1,2(a1)
801022d4:	55000224 	li	v0,85
801022d8:	10006210 	beq	v1,v0,0x8010231c
801022dc:	56006228 	slti	v0,v1,86
801022e0:	05004010 	beqz	v0,0x801022f8
801022e4:	4f000224 	li	v0,79
801022e8:	08006210 	beq	v1,v0,0x8010230c
801022ec:	801f033c 	lui	v1,0x1f80
801022f0:	b52c0408 	j	0x8010b2d4
801022f4:	00000000 	nop
801022f8:	66000224 	li	v0,102
801022fc:	0b006210 	beq	v1,v0,0x8010232c
80102300:	801f033c 	lui	v1,0x1f80
80102304:	b52c0408 	j	0x8010b2d4
80102308:	00000000 	nop
8010230c:	f428040c 	jal	0x8010a3d0
80102310:	21202002 	move	a0,s1
80102314:	b52c0408 	j	0x8010b2d4
80102318:	801f033c 	lui	v1,0x1f80
8010231c:	4f2a040c 	jal	0x8010a93c
80102320:	21202002 	move	a0,s1
80102324:	b52c0408 	j	0x8010b2d4
80102328:	801f033c 	lui	v1,0x1f80
8010232c:	fd24040c 	jal	0x801093f4
80102330:	21202002 	move	a0,s1
80102334:	801f033c 	lui	v1,0x1f80
80102338:	82016290 	lbu	v0,386(v1)
8010233c:	00000000 	nop
80102340:	daff4014 	bnez	v0,0x801022ac
80102344:	00000000 	nop
80102348:	5801228e 	lw	v0,344(s1)
8010234c:	00000000 	nop
80102350:	0200422c 	sltiu	v0,v0,2
80102354:	20004010 	beqz	v0,0x801023d8
80102358:	801f023c 	lui	v0,0x1f80
8010235c:	4801508c 	lw	s0,328(v0)
80102360:	801f023c 	lui	v0,0x1f80
80102364:	50014290 	lbu	v0,336(v0)
80102368:	801f033c 	lui	v1,0x1f80
8010236c:	820162a0 	sb	v0,386(v1)
80102370:	ff004230 	andi	v0,v0,0xff
80102374:	18004010 	beqz	v0,0x801023d8
80102378:	00000000 	nop
8010237c:	21906000 	move	s2,v1
80102380:	08001324 	li	s3,8
80102384:	82014292 	lbu	v0,386(s2)
80102388:	0000058e 	lw	a1,0(s0)
8010238c:	ffff4224 	addiu	v0,v0,-1
80102390:	820142a2 	sb	v0,386(s2)
80102394:	0000a290 	lbu	v0,0(a1)
80102398:	00000000 	nop
8010239c:	01004230 	andi	v0,v0,0x1
801023a0:	08004010 	beqz	v0,0x801023c4
801023a4:	04001026 	addiu	s0,s0,4
801023a8:	0200a290 	lbu	v0,2(a1)
801023ac:	00000000 	nop
801023b0:	05005314 	bne	v0,s3,0x801023c8
801023b4:	801f033c 	lui	v1,0x1f80
801023b8:	c000a68c 	lw	a2,192(a1)
801023bc:	8c25040c 	jal	0x80109630
801023c0:	21202002 	move	a0,s1
801023c4:	801f033c 	lui	v1,0x1f80
801023c8:	82016290 	lbu	v0,386(v1)
801023cc:	00000000 	nop
801023d0:	ecff4014 	bnez	v0,0x80102384
801023d4:	00000000 	nop
801023d8:	942b040c 	jal	0x8010ae50
801023dc:	00000000 	nop
801023e0:	042c040c 	jal	0x8010b010
801023e4:	00000000 	nop
801023e8:	2a2b040c 	jal	0x8010aca8
801023ec:	00000000 	nop
801023f0:	801f023c 	lui	v0,0x1f80
801023f4:	37014290 	lbu	v0,311(v0)
801023f8:	00000000 	nop
801023fc:	23004014 	bnez	v0,0x8010248c
80102400:	0c80023c 	lui	v0,0x800c
80102404:	08f84424 	addiu	a0,v0,-2040
80102408:	05008280 	lb	v0,5(a0)
8010240c:	00000000 	nop
80102410:	1e004014 	bnez	v0,0x8010248c
80102414:	00000000 	nop
80102418:	6a002296 	lhu	v0,106(s1)
8010241c:	00000000 	nop
80102420:	000f4330 	andi	v1,v0,0xf00
80102424:	00804230 	andi	v0,v0,0x8000
80102428:	18004010 	beqz	v0,0x8010248c
8010242c:	00070224 	li	v0,1792
80102430:	6a0020a6 	sh	zero,106(s1)
80102434:	0a006214 	bne	v1,v0,0x80102460
80102438:	160080a0 	sb	zero,22(a0)
8010243c:	03000224 	li	v0,3
80102440:	000022a2 	sb	v0,0(s1)
80102444:	02000224 	li	v0,2
80102448:	040022a2 	sb	v0,4(s1)
8010244c:	05000224 	li	v0,5
80102450:	050022a2 	sb	v0,5(s1)
80102454:	060020a2 	sb	zero,6(s1)
80102458:	0a2d0408 	j	0x8010b428
8010245c:	070020a2 	sb	zero,7(s1)
80102460:	00090224 	li	v0,2304
80102464:	09006214 	bne	v1,v0,0x8010248c
80102468:	21202002 	move	a0,s1
8010246c:	21280000 	move	a1,zero
80102470:	01000624 	li	a2,1
80102474:	56008284 	lh	v0,86(a0)
80102478:	2138c000 	move	a3,a2
8010247c:	00084224 	addiu	v0,v0,2048
80102480:	03110200 	sra	v0,v0,0x4
80102484:	428b000c 	jal	0x80022d08
80102488:	2b0082a0 	sb	v0,43(a0)
8010248c:	2000bf8f 	lw	ra,32(sp)
80102490:	1c00b38f 	lw	s3,28(sp)
80102494:	1800b28f 	lw	s2,24(sp)
80102498:	1400b18f 	lw	s1,20(sp)
8010249c:	1000b08f 	lw	s0,16(sp)
801024a0:	0800e003 	jr	ra
801024a4:	2800bd27 	addiu	sp,sp,40
801024a8:	e8ffbd27 	addiu	sp,sp,-24
801024ac:	0c80023c 	lui	v0,0x800c
801024b0:	08f84524 	addiu	a1,v0,-2040
801024b4:	1000bfaf 	sw	ra,16(sp)
801024b8:	0500a280 	lb	v0,5(a1)
801024bc:	00000000 	nop
801024c0:	1d004014 	bnez	v0,0x80102538
801024c4:	00000000 	nop
801024c8:	6a008294 	lhu	v0,106(a0)
801024cc:	00000000 	nop
801024d0:	000f4330 	andi	v1,v0,0xf00
801024d4:	00804230 	andi	v0,v0,0x8000
801024d8:	17004010 	beqz	v0,0x80102538
801024dc:	00070224 	li	v0,1792
801024e0:	6a0080a4 	sh	zero,106(a0)
801024e4:	0a006214 	bne	v1,v0,0x80102510
801024e8:	1600a0a0 	sb	zero,22(a1)
801024ec:	03000224 	li	v0,3
801024f0:	000082a0 	sb	v0,0(a0)
801024f4:	02000224 	li	v0,2
801024f8:	040082a0 	sb	v0,4(a0)
801024fc:	05000224 	li	v0,5
80102500:	050082a0 	sb	v0,5(a0)
80102504:	060080a0 	sb	zero,6(a0)
80102508:	352d0408 	j	0x8010b4d4
8010250c:	070080a0 	sb	zero,7(a0)
80102510:	00090224 	li	v0,2304
80102514:	08006214 	bne	v1,v0,0x80102538
80102518:	21280000 	move	a1,zero
8010251c:	01000624 	li	a2,1
80102520:	56008284 	lh	v0,86(a0)
80102524:	2138c000 	move	a3,a2
80102528:	00084224 	addiu	v0,v0,2048
8010252c:	03110200 	sra	v0,v0,0x4
80102530:	428b000c 	jal	0x80022d08
80102534:	2b0082a0 	sb	v0,43(a0)
80102538:	1000bf8f 	lw	ra,16(sp)
8010253c:	00000000 	nop
80102540:	0800e003 	jr	ra
80102544:	1800bd27 	addiu	sp,sp,24
80102548:	801f023c 	lui	v0,0x1f80
8010254c:	37014290 	lbu	v0,311(v0)
80102550:	e8ffbd27 	addiu	sp,sp,-24
80102554:	23004014 	bnez	v0,0x801025e4
80102558:	1000bfaf 	sw	ra,16(sp)
8010255c:	0c80023c 	lui	v0,0x800c
80102560:	08f84524 	addiu	a1,v0,-2040
80102564:	0500a280 	lb	v0,5(a1)
80102568:	00000000 	nop
8010256c:	1d004014 	bnez	v0,0x801025e4
80102570:	00000000 	nop
80102574:	6a008294 	lhu	v0,106(a0)
80102578:	00000000 	nop
8010257c:	000f4330 	andi	v1,v0,0xf00
80102580:	00804230 	andi	v0,v0,0x8000
80102584:	17004010 	beqz	v0,0x801025e4
80102588:	00070224 	li	v0,1792
8010258c:	6a0080a4 	sh	zero,106(a0)
80102590:	0a006214 	bne	v1,v0,0x801025bc
80102594:	1600a0a0 	sb	zero,22(a1)
80102598:	03000224 	li	v0,3
8010259c:	000082a0 	sb	v0,0(a0)
801025a0:	02000224 	li	v0,2
801025a4:	040082a0 	sb	v0,4(a0)
801025a8:	05000224 	li	v0,5
801025ac:	050082a0 	sb	v0,5(a0)
801025b0:	060080a0 	sb	zero,6(a0)
801025b4:	602d0408 	j	0x8010b580
801025b8:	070080a0 	sb	zero,7(a0)
801025bc:	00090224 	li	v0,2304
801025c0:	08006214 	bne	v1,v0,0x801025e4
801025c4:	21280000 	move	a1,zero
801025c8:	01000624 	li	a2,1
801025cc:	56008284 	lh	v0,86(a0)
801025d0:	2138c000 	move	a3,a2
801025d4:	00084224 	addiu	v0,v0,2048
801025d8:	03110200 	sra	v0,v0,0x4
801025dc:	428b000c 	jal	0x80022d08
801025e0:	2b0082a0 	sb	v0,43(a0)
801025e4:	1000bf8f 	lw	ra,16(sp)
801025e8:	00000000 	nop
801025ec:	0800e003 	jr	ra
801025f0:	1800bd27 	addiu	sp,sp,24
801025f4:	e0ffbd27 	addiu	sp,sp,-32
801025f8:	1400b1af 	sw	s1,20(sp)
801025fc:	801f023c 	lui	v0,0x1f80
80102600:	1000b0af 	sw	s0,16(sp)
80102604:	3c01508c 	lw	s0,316(v0)
80102608:	801f023c 	lui	v0,0x1f80
8010260c:	44014290 	lbu	v0,324(v0)
80102610:	801f033c 	lui	v1,0x1f80
80102614:	1c00bfaf 	sw	ra,28(sp)
80102618:	1800b2af 	sw	s2,24(sp)
8010261c:	820162a0 	sb	v0,386(v1)
80102620:	ff004230 	andi	v0,v0,0xff
80102624:	29004010 	beqz	v0,0x801026cc
80102628:	21888000 	move	s1,a0
8010262c:	21906000 	move	s2,v1
80102630:	82014292 	lbu	v0,386(s2)
80102634:	0000058e 	lw	a1,0(s0)
80102638:	ffff4224 	addiu	v0,v0,-1
8010263c:	820142a2 	sb	v0,386(s2)
80102640:	0000a290 	lbu	v0,0(a1)
80102644:	00000000 	nop
80102648:	01004230 	andi	v0,v0,0x1
8010264c:	1a004010 	beqz	v0,0x801026b8
80102650:	04001026 	addiu	s0,s0,4
80102654:	0200a390 	lbu	v1,2(a1)
80102658:	55000224 	li	v0,85
8010265c:	10006210 	beq	v1,v0,0x801026a0
80102660:	56006228 	slti	v0,v1,86
80102664:	05004010 	beqz	v0,0x8010267c
80102668:	4f000224 	li	v0,79
8010266c:	08006210 	beq	v1,v0,0x80102690
80102670:	801f033c 	lui	v1,0x1f80
80102674:	962d0408 	j	0x8010b658
80102678:	00000000 	nop
8010267c:	66000224 	li	v0,102
80102680:	0b006210 	beq	v1,v0,0x801026b0
80102684:	801f033c 	lui	v1,0x1f80
80102688:	962d0408 	j	0x8010b658
8010268c:	00000000 	nop
80102690:	f428040c 	jal	0x8010a3d0
80102694:	21202002 	move	a0,s1
80102698:	962d0408 	j	0x8010b658
8010269c:	801f033c 	lui	v1,0x1f80
801026a0:	4f2a040c 	jal	0x8010a93c
801026a4:	21202002 	move	a0,s1
801026a8:	962d0408 	j	0x8010b658
801026ac:	801f033c 	lui	v1,0x1f80
801026b0:	fd24040c 	jal	0x801093f4
801026b4:	21202002 	move	a0,s1
801026b8:	801f033c 	lui	v1,0x1f80
801026bc:	82016290 	lbu	v0,386(v1)
801026c0:	00000000 	nop
801026c4:	daff4014 	bnez	v0,0x80102630
801026c8:	00000000 	nop
801026cc:	1c00bf8f 	lw	ra,28(sp)
801026d0:	1800b28f 	lw	s2,24(sp)
801026d4:	1400b18f 	lw	s1,20(sp)
801026d8:	1000b08f 	lw	s0,16(sp)
801026dc:	0800e003 	jr	ra
801026e0:	2000bd27 	addiu	sp,sp,32
801026e4:	d8ffbd27 	addiu	sp,sp,-40
801026e8:	1c00b3af 	sw	s3,28(sp)
801026ec:	801f023c 	lui	v0,0x1f80
801026f0:	1000b0af 	sw	s0,16(sp)
801026f4:	4801508c 	lw	s0,328(v0)
801026f8:	801f023c 	lui	v0,0x1f80
801026fc:	50014290 	lbu	v0,336(v0)
80102700:	801f033c 	lui	v1,0x1f80
80102704:	2000bfaf 	sw	ra,32(sp)
80102708:	1800b2af 	sw	s2,24(sp)
8010270c:	1400b1af 	sw	s1,20(sp)
80102710:	820162a0 	sb	v0,386(v1)
80102714:	ff004230 	andi	v0,v0,0xff
80102718:	18004010 	beqz	v0,0x8010277c
8010271c:	21988000 	move	s3,a0
80102720:	21886000 	move	s1,v1
80102724:	08001224 	li	s2,8
80102728:	82012292 	lbu	v0,386(s1)
8010272c:	0000058e 	lw	a1,0(s0)
80102730:	ffff4224 	addiu	v0,v0,-1
80102734:	820122a2 	sb	v0,386(s1)
80102738:	0000a290 	lbu	v0,0(a1)
8010273c:	00000000 	nop
80102740:	01004230 	andi	v0,v0,0x1
80102744:	08004010 	beqz	v0,0x80102768
80102748:	04001026 	addiu	s0,s0,4
8010274c:	0200a290 	lbu	v0,2(a1)
80102750:	00000000 	nop
80102754:	05005214 	bne	v0,s2,0x8010276c
80102758:	801f033c 	lui	v1,0x1f80
8010275c:	c000a68c 	lw	a2,192(a1)
80102760:	8c25040c 	jal	0x80109630
80102764:	21206002 	move	a0,s3
80102768:	801f033c 	lui	v1,0x1f80
8010276c:	82016290 	lbu	v0,386(v1)
80102770:	00000000 	nop
80102774:	ecff4014 	bnez	v0,0x80102728
80102778:	00000000 	nop
8010277c:	2000bf8f 	lw	ra,32(sp)
80102780:	1c00b38f 	lw	s3,28(sp)
80102784:	1800b28f 	lw	s2,24(sp)
80102788:	1400b18f 	lw	s1,20(sp)
8010278c:	1000b08f 	lw	s0,16(sp)
80102790:	0800e003 	jr	ra
80102794:	2800bd27 	addiu	sp,sp,40
80102798:	0800e003 	jr	ra
8010279c:	21100000 	move	v0,zero
801027a0:	e0ffbd27 	addiu	sp,sp,-32
801027a4:	1400b1af 	sw	s1,20(sp)
801027a8:	21888000 	move	s1,a0
801027ac:	1800bfaf 	sw	ra,24(sp)
801027b0:	1000b0af 	sw	s0,16(sp)
801027b4:	77012292 	lbu	v0,375(s1)
801027b8:	06002392 	lbu	v1,6(s1)
801027bc:	02004234 	ori	v0,v0,0x2
801027c0:	06006010 	beqz	v1,0x801027dc
801027c4:	770122a2 	sb	v0,375(s1)
801027c8:	01000224 	li	v0,1
801027cc:	0b006210 	beq	v1,v0,0x801027fc
801027d0:	00000000 	nop
801027d4:	492e0408 	j	0x8010b924
801027d8:	00000000 	nop
801027dc:	58002496 	lhu	a0,88(s1)
801027e0:	06002392 	lbu	v1,6(s1)
801027e4:	01000224 	li	v0,1
801027e8:	000022a2 	sb	v0,0(s1)
801027ec:	400020a6 	sh	zero,64(s1)
801027f0:	01006324 	addiu	v1,v1,1
801027f4:	7e0024a6 	sh	a0,126(s1)
801027f8:	060023a2 	sb	v1,6(s1)
801027fc:	40002296 	lhu	v0,64(s1)
80102800:	00000000 	nop
80102804:	01004324 	addiu	v1,v0,1
80102808:	ff006230 	andi	v0,v1,0xff
8010280c:	21304000 	move	a2,v0
80102810:	80004228 	slti	v0,v0,128
80102814:	02004014 	bnez	v0,0x80102820
80102818:	400023a6 	sh	v1,64(s1)
8010281c:	80000624 	li	a2,128
80102820:	21202002 	move	a0,s1
80102824:	01000524 	li	a1,1
80102828:	00ff0224 	li	v0,-256
8010282c:	24106200 	and	v0,v1,v0
80102830:	25104600 	or	v0,v0,a2
80102834:	d25a010c 	jal	0x80056b48
80102838:	400022a6 	sh	v0,64(s1)
8010283c:	5757010c 	jal	0x80055d5c
80102840:	21202002 	move	a0,s1
80102844:	32002296 	lhu	v0,50(s1)
80102848:	21202002 	move	a0,s1
8010284c:	08004224 	addiu	v0,v0,8
80102850:	1351010c 	jal	0x8005444c
80102854:	320022a6 	sh	v0,50(s1)
80102858:	44002486 	lh	a0,68(s1)
8010285c:	00000000 	nop
80102860:	02008104 	bgez	a0,0x8010286c
80102864:	21108000 	move	v0,a0
80102868:	23100200 	negu	v0,v0
8010286c:	20ff4224 	addiu	v0,v0,-224
80102870:	21184000 	move	v1,v0
80102874:	00140200 	sll	v0,v0,0x10
80102878:	0200401c 	bgtz	v0,0x80102884
8010287c:	00000000 	nop
80102880:	21180000 	move	v1,zero
80102884:	03008004 	bltz	a0,0x80102894
80102888:	23100300 	negu	v0,v1
8010288c:	0d2e0408 	j	0x8010b834
80102890:	440023a6 	sh	v1,68(s1)
80102894:	440022a6 	sh	v0,68(s1)
80102898:	0e80053c 	lui	a1,0x800e
8010289c:	801f023c 	lui	v0,0x1f80
801028a0:	801f033c 	lui	v1,0x1f80
801028a4:	70014294 	lhu	v0,368(v0)
801028a8:	72016494 	lhu	a0,370(v1)
801028ac:	f0004234 	ori	v0,v0,0xf0
801028b0:	25208200 	or	a0,a0,v0
801028b4:	801f023c 	lui	v0,0x1f80
801028b8:	74014294 	lhu	v0,372(v0)
801028bc:	687ea394 	lhu	v1,32360(a1)
801028c0:	25104400 	or	v0,v0,a0
801028c4:	24186200 	and	v1,v1,v0
801028c8:	23006010 	beqz	v1,0x80102958
801028cc:	00000000 	nop
801028d0:	1469020c 	jal	0x8009a450
801028d4:	00000000 	nop
801028d8:	1f004230 	andi	v0,v0,0x1f
801028dc:	f0ff4224 	addiu	v0,v0,-16
801028e0:	80100200 	sll	v0,v0,0x2
801028e4:	7e002396 	lhu	v1,126(s1)
801028e8:	40002496 	lhu	a0,64(s1)
801028ec:	21186200 	addu	v1,v1,v0
801028f0:	ff008230 	andi	v0,a0,0xff
801028f4:	0a004228 	slti	v0,v0,10
801028f8:	15004010 	beqz	v0,0x80102950
801028fc:	580023a6 	sh	v1,88(s1)
80102900:	00018224 	addiu	v0,a0,256
80102904:	00ff0324 	li	v1,-256
80102908:	24104300 	and	v0,v0,v1
8010290c:	400022a6 	sh	v0,64(s1)
80102910:	00140200 	sll	v0,v0,0x10
80102914:	03140200 	sra	v0,v0,0x10
80102918:	00054228 	slti	v0,v0,1280
8010291c:	12004014 	bnez	v0,0x80102968
80102920:	21202002 	move	a0,s1
80102924:	77012292 	lbu	v0,375(s1)
80102928:	01001024 	li	s0,1
8010292c:	000030a2 	sb	s0,0(s1)
80102930:	02004230 	andi	v0,v0,0x2
80102934:	6650010c 	jal	0x80054198
80102938:	770122a2 	sb	v0,375(s1)
8010293c:	040030a2 	sb	s0,4(s1)
80102940:	050020a2 	sb	zero,5(s1)
80102944:	060020a2 	sb	zero,6(s1)
80102948:	402e0408 	j	0x8010b900
8010294c:	070020a2 	sb	zero,7(s1)
80102950:	402e0408 	j	0x8010b900
80102954:	400020a6 	sh	zero,64(s1)
80102958:	7e002296 	lhu	v0,126(s1)
8010295c:	00000000 	nop
80102960:	580022a6 	sh	v0,88(s1)
80102964:	21202002 	move	a0,s1
80102968:	005b010c 	jal	0x80056c00
8010296c:	01000524 	li	a1,1
80102970:	29002292 	lbu	v0,41(s1)
80102974:	00000000 	nop
80102978:	03004010 	beqz	v0,0x80102988
8010297c:	0c80033c 	lui	v1,0x800c
80102980:	01000224 	li	v0,1
80102984:	1ef862a0 	sb	v0,-2018(v1)
80102988:	1800bf8f 	lw	ra,24(sp)
8010298c:	1400b18f 	lw	s1,20(sp)
80102990:	1000b08f 	lw	s0,16(sp)
80102994:	0800e003 	jr	ra
80102998:	2000bd27 	addiu	sp,sp,32
8010299c:	e0ffbd27 	addiu	sp,sp,-32
801029a0:	1000b0af 	sw	s0,16(sp)
801029a4:	21808000 	move	s0,a0
801029a8:	1800bfaf 	sw	ra,24(sp)
801029ac:	1400b1af 	sw	s1,20(sp)
801029b0:	77010292 	lbu	v0,375(s0)
801029b4:	00000000 	nop
801029b8:	02004234 	ori	v0,v0,0x2
801029bc:	5adb010c 	jal	0x80076d68
801029c0:	770102a2 	sb	v0,375(s0)
801029c4:	06000392 	lbu	v1,6(s0)
801029c8:	01001124 	li	s1,1
801029cc:	44007110 	beq	v1,s1,0x80102ae0
801029d0:	02006228 	slti	v0,v1,2
801029d4:	05004010 	beqz	v0,0x801029ec
801029d8:	00000000 	nop
801029dc:	08006010 	beqz	v1,0x80102a00
801029e0:	00000000 	nop
801029e4:	ff2e0408 	j	0x8010bbfc
801029e8:	00000000 	nop
801029ec:	02000224 	li	v0,2
801029f0:	64006210 	beq	v1,v0,0x80102b84
801029f4:	00000000 	nop
801029f8:	ff2e0408 	j	0x8010bbfc
801029fc:	00000000 	nop
80102a00:	07000292 	lbu	v0,7(s0)
80102a04:	00000000 	nop
80102a08:	0a004014 	bnez	v0,0x80102a34
80102a0c:	21200002 	move	a0,s0
80102a10:	23000424 	li	a0,35
80102a14:	21280000 	move	a1,zero
80102a18:	64d1010c 	jal	0x80074590
80102a1c:	2130a000 	move	a2,a1
80102a20:	06000424 	li	a0,6
80102a24:	2c000526 	addiu	a1,s0,44
80102a28:	b5c4000c 	jal	0x800312d4
80102a2c:	b0ff0624 	li	a2,-80
80102a30:	21200002 	move	a0,s0
80102a34:	0c80023c 	lui	v0,0x800c
80102a38:	09f840a0 	sb	zero,-2039(v0)
80102a3c:	070000a2 	sb	zero,7(s0)
80102a40:	610000a2 	sb	zero,97(s0)
80102a44:	460100a2 	sb	zero,326(s0)
80102a48:	644f010c 	jal	0x80053d90
80102a4c:	580000a6 	sh	zero,88(s0)
80102a50:	21200002 	move	a0,s0
80102a54:	02000524 	li	a1,2
80102a58:	47010292 	lbu	v0,327(s0)
80102a5c:	04000624 	li	a2,4
80102a60:	21104500 	addu	v0,v0,a1
80102a64:	4a0102a2 	sb	v0,330(s0)
80102a68:	4553010c 	jal	0x80054d14
80102a6c:	490102a2 	sb	v0,329(s0)
80102a70:	02000424 	li	a0,2
80102a74:	03000524 	li	a1,3
80102a78:	60ea010c 	jal	0x8007a980
80102a7c:	01000624 	li	a2,1
80102a80:	21204000 	move	a0,v0
80102a84:	07008010 	beqz	a0,0x80102aa4
80102a88:	1180023c 	lui	v0,0x8011
80102a8c:	28008390 	lbu	v1,40(a0)
80102a90:	08464224 	addiu	v0,v0,17928
80102a94:	1c0082ac 	sw	v0,28(a0)
80102a98:	020080a0 	sb	zero,2(a0)
80102a9c:	80006334 	ori	v1,v1,0x80
80102aa0:	280083a0 	sb	v1,40(a0)
80102aa4:	7154010c 	jal	0x800551c4
80102aa8:	21200002 	move	a0,s0
80102aac:	45010392 	lbu	v1,325(s0)
80102ab0:	00000000 	nop
80102ab4:	03007114 	bne	v1,s1,0x80102ac4
80102ab8:	02000224 	li	v0,2
80102abc:	ff2e0408 	j	0x8010bbfc
80102ac0:	060011a2 	sb	s1,6(s0)
80102ac4:	03006214 	bne	v1,v0,0x80102ad4
80102ac8:	1a000224 	li	v0,26
80102acc:	ff2e0408 	j	0x8010bbfc
80102ad0:	060003a2 	sb	v1,6(s0)
80102ad4:	450100a2 	sb	zero,325(s0)
80102ad8:	fc2e0408 	j	0x8010bbf0
80102adc:	040011a2 	sb	s1,4(s0)
80102ae0:	44000486 	lh	a0,68(s0)
80102ae4:	00000000 	nop
80102ae8:	02008104 	bgez	a0,0x80102af4
80102aec:	21108000 	move	v0,a0
80102af0:	23100200 	negu	v0,v0
80102af4:	20ff4224 	addiu	v0,v0,-224
80102af8:	21184000 	move	v1,v0
80102afc:	00140200 	sll	v0,v0,0x10
80102b00:	0200401c 	bgtz	v0,0x80102b0c
80102b04:	00000000 	nop
80102b08:	21180000 	move	v1,zero
80102b0c:	03008004 	bltz	a0,0x80102b1c
80102b10:	23100300 	negu	v0,v1
80102b14:	af2e0408 	j	0x8010babc
80102b18:	440003a6 	sh	v1,68(s0)
80102b1c:	440002a6 	sh	v0,68(s0)
80102b20:	21200002 	move	a0,s0
80102b24:	d25a010c 	jal	0x80056b48
80102b28:	01000524 	li	a1,1
80102b2c:	5757010c 	jal	0x80055d5c
80102b30:	21200002 	move	a0,s0
80102b34:	4a000296 	lhu	v0,74(s0)
80102b38:	00000000 	nop
80102b3c:	00044224 	addiu	v0,v0,1024
80102b40:	4a0002a6 	sh	v0,74(s0)
80102b44:	00140200 	sll	v0,v0,0x10
80102b48:	05004018 	blez	v0,0x80102b60
80102b4c:	02000324 	li	v1,2
80102b50:	06000292 	lbu	v0,6(s0)
80102b54:	450103a2 	sb	v1,325(s0)
80102b58:	01004224 	addiu	v0,v0,1
80102b5c:	060002a2 	sb	v0,6(s0)
80102b60:	21200002 	move	a0,s0
80102b64:	4a008284 	lh	v0,74(a0)
80102b68:	3000838c 	lw	v1,48(a0)
80102b6c:	00120200 	sll	v0,v0,0x8
80102b70:	21186200 	addu	v1,v1,v0
80102b74:	7154010c 	jal	0x800551c4
80102b78:	300083ac 	sw	v1,48(a0)
80102b7c:	ff2e0408 	j	0x8010bbfc
80102b80:	00000000 	nop
80102b84:	44000486 	lh	a0,68(s0)
80102b88:	00000000 	nop
80102b8c:	02008104 	bgez	a0,0x80102b98
80102b90:	21108000 	move	v0,a0
80102b94:	23100200 	negu	v0,v0
80102b98:	20ff4224 	addiu	v0,v0,-224
80102b9c:	21184000 	move	v1,v0
80102ba0:	00140200 	sll	v0,v0,0x10
80102ba4:	0200401c 	bgtz	v0,0x80102bb0
80102ba8:	00000000 	nop
80102bac:	21180000 	move	v1,zero
80102bb0:	03008004 	bltz	a0,0x80102bc0
80102bb4:	23100300 	negu	v0,v1
80102bb8:	d82e0408 	j	0x8010bb60
80102bbc:	440003a6 	sh	v1,68(s0)
80102bc0:	440002a6 	sh	v0,68(s0)
80102bc4:	21200002 	move	a0,s0
80102bc8:	d25a010c 	jal	0x80056b48
80102bcc:	01000524 	li	a1,1
80102bd0:	5757010c 	jal	0x80055d5c
80102bd4:	21200002 	move	a0,s0
80102bd8:	4a000296 	lhu	v0,74(s0)
80102bdc:	00000000 	nop
80102be0:	00044224 	addiu	v0,v0,1024
80102be4:	4a0002a6 	sh	v0,74(s0)
80102be8:	00140200 	sll	v0,v0,0x10
80102bec:	03140200 	sra	v0,v0,0x10
80102bf0:	013e4228 	slti	v0,v0,15873
80102bf4:	03004014 	bnez	v0,0x80102c04
80102bf8:	21200002 	move	a0,s0
80102bfc:	003e0224 	li	v0,15872
80102c00:	4a0002a6 	sh	v0,74(s0)
80102c04:	4a000286 	lh	v0,74(s0)
80102c08:	3000038e 	lw	v1,48(s0)
80102c0c:	00120200 	sll	v0,v0,0x8
80102c10:	21186200 	addu	v1,v1,v0
80102c14:	1351010c 	jal	0x8005444c
80102c18:	300003ae 	sw	v1,48(s0)
80102c1c:	29000292 	lbu	v0,41(s0)
80102c20:	00000000 	nop
80102c24:	0e004010 	beqz	v0,0x80102c60
80102c28:	00000000 	nop
80102c2c:	534c010c 	jal	0x8005314c
80102c30:	21200002 	move	a0,s0
80102c34:	7154010c 	jal	0x800551c4
80102c38:	21200002 	move	a0,s0
80102c3c:	01000224 	li	v0,1
80102c40:	040002a2 	sb	v0,4(s0)
80102c44:	1a000224 	li	v0,26
80102c48:	480100a2 	sb	zero,328(s0)
80102c4c:	500000a6 	sh	zero,80(s0)
80102c50:	450100a2 	sb	zero,325(s0)
80102c54:	050002a2 	sb	v0,5(s0)
80102c58:	060000a2 	sb	zero,6(s0)
80102c5c:	070000a2 	sb	zero,7(s0)
80102c60:	1800bf8f 	lw	ra,24(sp)
80102c64:	1400b18f 	lw	s1,20(sp)
80102c68:	1000b08f 	lw	s0,16(sp)
80102c6c:	0800e003 	jr	ra
80102c70:	2000bd27 	addiu	sp,sp,32
80102c74:	c0ffbd27 	addiu	sp,sp,-64
80102c78:	3000b0af 	sw	s0,48(sp)
80102c7c:	21808000 	move	s0,a0
80102c80:	3800bfaf 	sw	ra,56(sp)
80102c84:	3400b1af 	sw	s1,52(sp)
80102c88:	05000392 	lbu	v1,5(s0)
80102c8c:	00000000 	nop
80102c90:	05006010 	beqz	v1,0x80102ca8
80102c94:	01000224 	li	v0,1
80102c98:	39006210 	beq	v1,v0,0x80102d80
80102c9c:	00000000 	nop
80102ca0:	4f2f0408 	j	0x8010bd3c
80102ca4:	00000000 	nop
80102ca8:	4400a284 	lh	v0,68(a1)
80102cac:	00000000 	nop
80102cb0:	02004104 	bgez	v0,0x80102cbc
80102cb4:	21184000 	move	v1,v0
80102cb8:	23180300 	negu	v1,v1
80102cbc:	4501a290 	lbu	v0,325(a1)
80102cc0:	00000000 	nop
80102cc4:	06004014 	bnez	v0,0x80102ce0
80102cc8:	21886000 	move	s1,v1
80102ccc:	00140300 	sll	v0,v1,0x10
80102cd0:	03140200 	sra	v0,v0,0x10
80102cd4:	00084228 	slti	v0,v0,2048
80102cd8:	31004014 	bnez	v0,0x80102da0
80102cdc:	00000000 	nop
80102ce0:	6a00a294 	lhu	v0,106(a1)
80102ce4:	0a000324 	li	v1,10
80102ce8:	02120200 	srl	v0,v0,0x8
80102cec:	0f004230 	andi	v0,v0,0xf
80102cf0:	13004314 	bne	v0,v1,0x80102d40
80102cf4:	21100000 	move	v0,zero
80102cf8:	32000586 	lh	a1,50(s0)
80102cfc:	7922010c 	jal	0x800489e4
80102d00:	21200002 	move	a0,s0
80102d04:	0d004010 	beqz	v0,0x80102d3c
80102d08:	801f023c 	lui	v0,0x1f80
80102d0c:	0d000424 	li	a0,13
80102d10:	2e000396 	lhu	v1,46(s0)
80102d14:	a4014294 	lhu	v0,420(v0)
80102d18:	2000a527 	addiu	a1,sp,32
80102d1c:	2200a3a7 	sh	v1,34(sp)
80102d20:	2600a2a7 	sh	v0,38(sp)
80102d24:	36000296 	lhu	v0,54(s0)
80102d28:	ceff0624 	li	a2,-50
80102d2c:	5bc4000c 	jal	0x8003116c
80102d30:	2a00a2a7 	sh	v0,42(sp)
80102d34:	372f0408 	j	0x8010bcdc
80102d38:	01000224 	li	v0,1
80102d3c:	21100000 	move	v0,zero
80102d40:	17004010 	beqz	v0,0x80102da0
80102d44:	01000224 	li	v0,1
80102d48:	050002a2 	sb	v0,5(s0)
80102d4c:	00141100 	sll	v0,s1,0x10
80102d50:	03140200 	sra	v0,v0,0x10
80102d54:	01384228 	slti	v0,v0,14337
80102d58:	02004014 	bnez	v0,0x80102d64
80102d5c:	1280023c 	lui	v0,0x8012
80102d60:	00381124 	li	s1,14336
80102d64:	7c824224 	addiu	v0,v0,-32132
80102d68:	001c1100 	sll	v1,s1,0x10
80102d6c:	c31e0300 	sra	v1,v1,0x1b
80102d70:	21186200 	addu	v1,v1,v0
80102d74:	00006290 	lbu	v0,0(v1)
80102d78:	4f2f0408 	j	0x8010bd3c
80102d7c:	0e0002a6 	sh	v0,14(s0)
80102d80:	0e000296 	lhu	v0,14(s0)
80102d84:	00000000 	nop
80102d88:	ffff4224 	addiu	v0,v0,-1
80102d8c:	0e0002a6 	sh	v0,14(s0)
80102d90:	00140200 	sll	v0,v0,0x10
80102d94:	02004014 	bnez	v0,0x80102da0
80102d98:	00000000 	nop
80102d9c:	050000a2 	sb	zero,5(s0)
80102da0:	3800bf8f 	lw	ra,56(sp)
80102da4:	3400b18f 	lw	s1,52(sp)
80102da8:	3000b08f 	lw	s0,48(sp)
80102dac:	0800e003 	jr	ra
80102db0:	4000bd27 	addiu	sp,sp,64
80102db4:	e0ffbd27 	addiu	sp,sp,-32
80102db8:	1400b1af 	sw	s1,20(sp)
80102dbc:	21888000 	move	s1,a0
80102dc0:	801f023c 	lui	v0,0x1f80
80102dc4:	1000b0af 	sw	s0,16(sp)
80102dc8:	01001024 	li	s0,1
80102dcc:	1800bfaf 	sw	ra,24(sp)
80102dd0:	39bc010c 	jal	0x8006f0e4
80102dd4:	7e0250a0 	sb	s0,638(v0)
80102dd8:	21202002 	move	a0,s1
80102ddc:	5757010c 	jal	0x80055d5c
80102de0:	010030a2 	sb	s0,1(s1)
80102de4:	21202002 	move	a0,s1
80102de8:	420120a6 	sh	zero,322(s1)
80102dec:	6650010c 	jal	0x80054198
80102df0:	580020a6 	sh	zero,88(s1)
80102df4:	a154010c 	jal	0x80055284
80102df8:	21202002 	move	a0,s1
80102dfc:	21202002 	move	a0,s1
80102e00:	02000524 	li	a1,2
80102e04:	4553010c 	jal	0x80054d14
80102e08:	21300000 	move	a2,zero
80102e0c:	57cc000c 	jal	0x8003315c
80102e10:	21202002 	move	a0,s1
80102e14:	0c80023c 	lui	v0,0x800c
80102e18:	1afa4290 	lbu	v0,-1510(v0)
80102e1c:	00000000 	nop
80102e20:	02004230 	andi	v0,v0,0x2
80102e24:	07004014 	bnez	v0,0x80102e44
80102e28:	01000424 	li	a0,1
80102e2c:	d508010c 	jal	0x80042354
80102e30:	05000524 	li	a1,5
80102e34:	cb73000c 	jal	0x8001cf2c
80102e38:	00000000 	nop
80102e3c:	04000224 	li	v0,4
80102e40:	040022a2 	sb	v0,4(s1)
80102e44:	1800bf8f 	lw	ra,24(sp)
80102e48:	1400b18f 	lw	s1,20(sp)
80102e4c:	1000b08f 	lw	s0,16(sp)
80102e50:	0800e003 	jr	ra
80102e54:	2000bd27 	addiu	sp,sp,32
80102e58:	44008584 	lh	a1,68(a0)
80102e5c:	00000000 	nop
80102e60:	0200a104 	bgez	a1,0x80102e6c
80102e64:	2110a000 	move	v0,a1
80102e68:	23100200 	negu	v0,v0
80102e6c:	20ff4224 	addiu	v0,v0,-224
80102e70:	21184000 	move	v1,v0
80102e74:	00140200 	sll	v0,v0,0x10
80102e78:	0200401c 	bgtz	v0,0x80102e84
80102e7c:	00000000 	nop
80102e80:	21180000 	move	v1,zero
80102e84:	0300a004 	bltz	a1,0x80102e94
80102e88:	23100300 	negu	v0,v1
80102e8c:	0800e003 	jr	ra
80102e90:	440083a4 	sh	v1,68(a0)
80102e94:	0800e003 	jr	ra
80102e98:	440082a4 	sh	v0,68(a0)
80102e9c:	e8ffbd27 	addiu	sp,sp,-24
80102ea0:	1000bfaf 	sw	ra,16(sp)
80102ea4:	02000424 	li	a0,2
80102ea8:	03000524 	li	a1,3
80102eac:	60ea010c 	jal	0x8007a980
80102eb0:	01000624 	li	a2,1
80102eb4:	07004010 	beqz	v0,0x80102ed4
80102eb8:	1180033c 	lui	v1,0x8011
80102ebc:	28004490 	lbu	a0,40(v0)
80102ec0:	08466324 	addiu	v1,v1,17928
80102ec4:	1c0043ac 	sw	v1,28(v0)
80102ec8:	020040a0 	sb	zero,2(v0)
80102ecc:	80008434 	ori	a0,a0,0x80
80102ed0:	280044a0 	sb	a0,40(v0)
80102ed4:	1000bf8f 	lw	ra,16(sp)
80102ed8:	00000000 	nop
80102edc:	0800e003 	jr	ra
80102ee0:	1800bd27 	addiu	sp,sp,24
80102ee4:	d0ffbd27 	addiu	sp,sp,-48
80102ee8:	2400b5af 	sw	s5,36(sp)
80102eec:	21a88000 	move	s5,a0
80102ef0:	2000b4af 	sw	s4,32(sp)
80102ef4:	21a0a000 	move	s4,a1
80102ef8:	0c80023c 	lui	v0,0x800c
80102efc:	70f84390 	lbu	v1,-1936(v0)
80102f00:	0c000224 	li	v0,12
80102f04:	2800bfaf 	sw	ra,40(sp)
80102f08:	1c00b3af 	sw	s3,28(sp)
80102f0c:	1800b2af 	sw	s2,24(sp)
80102f10:	1400b1af 	sw	s1,20(sp)
80102f14:	73006210 	beq	v1,v0,0x801030e4
80102f18:	1000b0af 	sw	s0,16(sp)
80102f1c:	0f000224 	li	v0,15
80102f20:	70006210 	beq	v1,v0,0x801030e4
80102f24:	00000000 	nop
80102f28:	1100c010 	beqz	a2,0x80102f70
80102f2c:	801f023c 	lui	v0,0x1f80
80102f30:	46024390 	lbu	v1,582(v0)
80102f34:	02000224 	li	v0,2
80102f38:	08006214 	bne	v1,v0,0x80102f5c
80102f3c:	e8031224 	li	s2,1000
80102f40:	6000a28e 	lw	v0,96(s5)
80102f44:	00000000 	nop
80102f48:	90014228 	slti	v0,v0,400
80102f4c:	65004014 	bnez	v0,0x801030e4
80102f50:	58021224 	li	s2,600
80102f54:	bf2f0408 	j	0x8010befc
80102f58:	90010424 	li	a0,400
80102f5c:	20030424 	li	a0,800
80102f60:	56008396 	lhu	v1,86(s4)
80102f64:	0008c224 	addiu	v0,a2,2048
80102f68:	c92f0408 	j	0x8010bf24
80102f6c:	21806200 	addu	s0,v1,v0
80102f70:	90010424 	li	a0,400
80102f74:	801f023c 	lui	v0,0x1f80
80102f78:	56008396 	lhu	v1,86(s4)
80102f7c:	ee004294 	lhu	v0,238(v0)
80102f80:	00087024 	addiu	s0,v1,2048
80102f84:	23900200 	negu	s2,v0
80102f88:	801f023c 	lui	v0,0x1f80
80102f8c:	d0004524 	addiu	a1,v0,208
80102f90:	0600a294 	lhu	v0,6(a1)
80102f94:	1200a694 	lhu	a2,18(a1)
80102f98:	21104400 	addu	v0,v0,a0
80102f9c:	23184600 	subu	v1,v0,a2
80102fa0:	0a006224 	addiu	v0,v1,10
80102fa4:	ffff4230 	andi	v0,v0,0xffff
80102fa8:	1500422c 	sltiu	v0,v0,21
80102fac:	07004014 	bnez	v0,0x80102fcc
80102fb0:	2310c400 	subu	v0,a2,a0
80102fb4:	00140300 	sll	v0,v1,0x10
80102fb8:	0400a38c 	lw	v1,4(a1)
80102fbc:	c3100200 	sra	v0,v0,0x3
80102fc0:	23186200 	subu	v1,v1,v0
80102fc4:	df2f0408 	j	0x8010bf7c
80102fc8:	0400a3ac 	sw	v1,4(a1)
80102fcc:	0600a2a4 	sh	v0,6(a1)
80102fd0:	6600a292 	lbu	v0,102(s5)
80102fd4:	00000000 	nop
80102fd8:	02004234 	ori	v0,v0,0x2
80102fdc:	6600a2a2 	sb	v0,102(s5)
80102fe0:	00841000 	sll	s0,s0,0x10
80102fe4:	03841000 	sra	s0,s0,0x10
80102fe8:	d40f020c 	jal	0x80083f50
80102fec:	21200002 	move	a0,s0
80102ff0:	00941200 	sll	s2,s2,0x10
80102ff4:	03941200 	sra	s2,s2,0x10
80102ff8:	18005200 	mult	v0,s2
80102ffc:	21200002 	move	a0,s0
80103000:	2e009196 	lhu	s1,46(s4)
80103004:	12180000 	mflo	v1
80103008:	03130300 	sra	v0,v1,0xc
8010300c:	a00f020c 	jal	0x80083e80
80103010:	21882202 	addu	s1,s1,v0
80103014:	18005200 	mult	v0,s2
80103018:	801f133c 	lui	s3,0x1f80
8010301c:	d0007226 	addiu	s2,s3,208
80103020:	36009096 	lhu	s0,54(s4)
80103024:	0a004296 	lhu	v0,10(s2)
80103028:	12180000 	mflo	v1
8010302c:	031b0300 	sra	v1,v1,0xc
80103030:	23800302 	subu	s0,s0,v1
80103034:	23800202 	subu	s0,s0,v0
80103038:	00841000 	sll	s0,s0,0x10
8010303c:	03841000 	sra	s0,s0,0x10
80103040:	02004296 	lhu	v0,2(s2)
80103044:	23201000 	negu	a0,s0
80103048:	23882202 	subu	s1,s1,v0
8010304c:	008c1100 	sll	s1,s1,0x10
80103050:	038c1100 	sra	s1,s1,0x10
80103054:	a415020c 	jal	0x80085690
80103058:	21282002 	move	a1,s1
8010305c:	18003102 	mult	s1,s1
80103060:	12180000 	mflo	v1
	...
8010306c:	18001002 	mult	s0,s0
80103070:	21884000 	move	s1,v0
80103074:	12400000 	mflo	t0
80103078:	2010020c 	jal	0x80084080
8010307c:	21206800 	addu	a0,v1,t0
80103080:	008c1100 	sll	s1,s1,0x10
80103084:	038c1100 	sra	s1,s1,0x10
80103088:	21202002 	move	a0,s1
8010308c:	d40f020c 	jal	0x80083f50
80103090:	21804000 	move	s0,v0
80103094:	00841000 	sll	s0,s0,0x10
80103098:	03841000 	sra	s0,s0,0x10
8010309c:	18005000 	mult	v0,s0
801030a0:	21202002 	move	a0,s1
801030a4:	d000628e 	lw	v0,208(s3)
801030a8:	12180000 	mflo	v1
801030ac:	21104300 	addu	v0,v0,v1
801030b0:	a00f020c 	jal	0x80083e80
801030b4:	d00062ae 	sw	v0,208(s3)
801030b8:	18005000 	mult	v0,s0
801030bc:	9101102a 	slti	s0,s0,401
801030c0:	0800428e 	lw	v0,8(s2)
801030c4:	12180000 	mflo	v1
801030c8:	23104300 	subu	v0,v0,v1
801030cc:	05000012 	beqz	s0,0x801030e4
801030d0:	080042ae 	sw	v0,8(s2)
801030d4:	6600a292 	lbu	v0,102(s5)
801030d8:	00000000 	nop
801030dc:	01004234 	ori	v0,v0,0x1
801030e0:	6600a2a2 	sb	v0,102(s5)
801030e4:	2800bf8f 	lw	ra,40(sp)
801030e8:	2400b58f 	lw	s5,36(sp)
801030ec:	2000b48f 	lw	s4,32(sp)
801030f0:	1c00b38f 	lw	s3,28(sp)
801030f4:	1800b28f 	lw	s2,24(sp)
801030f8:	1400b18f 	lw	s1,20(sp)
801030fc:	1000b08f 	lw	s0,16(sp)
80103100:	0800e003 	jr	ra
80103104:	3000bd27 	addiu	sp,sp,48
80103108:	e8ffbd27 	addiu	sp,sp,-24
8010310c:	1000b0af 	sw	s0,16(sp)
80103110:	21808000 	move	s0,a0
80103114:	1400bfaf 	sw	ra,20(sp)
80103118:	03000492 	lbu	a0,3(s0)
8010311c:	01000524 	li	a1,1
80103120:	1a008510 	beq	a0,a1,0x8010318c
80103124:	02008228 	slti	v0,a0,2
80103128:	05004010 	beqz	v0,0x80103140
8010312c:	00000000 	nop
80103130:	0a008010 	beqz	a0,0x8010315c
80103134:	0c80033c 	lui	v1,0x800c
80103138:	bc300408 	j	0x8010c2f0
8010313c:	00000000 	nop
80103140:	02000224 	li	v0,2
80103144:	2d008210 	beq	a0,v0,0x801031fc
80103148:	03000224 	li	v0,3
8010314c:	5c008210 	beq	a0,v0,0x801032c0
80103150:	00000000 	nop
80103154:	bc300408 	j	0x8010c2f0
80103158:	00000000 	nop
8010315c:	02000224 	li	v0,2
80103160:	21f862a0 	sb	v0,-2015(v1)
80103164:	801f033c 	lui	v1,0x1f80
80103168:	62f80224 	li	v0,-1950
8010316c:	560000a6 	sh	zero,86(s0)
80103170:	ee0062a4 	sh	v0,238(v1)
80103174:	03000292 	lbu	v0,3(s0)
80103178:	e0fc0324 	li	v1,-800
8010317c:	260003a6 	sh	v1,38(s0)
80103180:	01004224 	addiu	v0,v0,1
80103184:	bc300408 	j	0x8010c2f0
80103188:	030002a2 	sb	v0,3(s0)
8010318c:	801f023c 	lui	v0,0x1f80
80103190:	46024290 	lbu	v0,582(v0)
80103194:	00000000 	nop
80103198:	0b004010 	beqz	v0,0x801031c8
8010319c:	21200002 	move	a0,s0
801031a0:	0e80053c 	lui	a1,0x800e
801031a4:	807ea524 	addiu	a1,a1,32384
801031a8:	21300000 	move	a2,zero
801031ac:	64000292 	lbu	v0,100(s0)
801031b0:	03000392 	lbu	v1,3(s0)
801031b4:	80004234 	ori	v0,v0,0x80
801031b8:	01006324 	addiu	v1,v1,1
801031bc:	640002a2 	sb	v0,100(s0)
801031c0:	90300408 	j	0x8010c240
801031c4:	030003a2 	sb	v1,3(s0)
801031c8:	0e80023c 	lui	v0,0x800e
801031cc:	aa7e4290 	lbu	v0,32426(v0)
801031d0:	00000000 	nop
801031d4:	f2ff4224 	addiu	v0,v0,-14
801031d8:	0700422c 	sltiu	v0,v0,7
801031dc:	55004010 	beqz	v0,0x80103334
801031e0:	0c80023c 	lui	v0,0x800c
801031e4:	801f033c 	lui	v1,0x1f80
801031e8:	21f840a0 	sb	zero,-2015(v0)
801031ec:	ecfa0224 	li	v0,-1300
801031f0:	ee0062a4 	sh	v0,238(v1)
801031f4:	bb300408 	j	0x8010c2ec
801031f8:	00ff0224 	li	v0,-256
801031fc:	801f023c 	lui	v0,0x1f80
80103200:	46024290 	lbu	v0,582(v0)
80103204:	00000000 	nop
80103208:	21004014 	bnez	v0,0x80103290
8010320c:	00000000 	nop
80103210:	64000292 	lbu	v0,100(s0)
80103214:	03000392 	lbu	v1,3(s0)
80103218:	560000a6 	sh	zero,86(s0)
8010321c:	7f004230 	andi	v0,v0,0x7f
80103220:	01006324 	addiu	v1,v1,1
80103224:	640002a2 	sb	v0,100(s0)
80103228:	0e80023c 	lui	v0,0x800e
8010322c:	030003a2 	sb	v1,3(s0)
80103230:	aa7e4290 	lbu	v0,32426(v0)
80103234:	00000000 	nop
80103238:	f2ff4224 	addiu	v0,v0,-14
8010323c:	0700422c 	sltiu	v0,v0,7
80103240:	07004010 	beqz	v0,0x80103260
80103244:	0c80023c 	lui	v0,0x800c
80103248:	801f033c 	lui	v1,0x1f80
8010324c:	21f840a0 	sb	zero,-2015(v0)
80103250:	ecfa0224 	li	v0,-1300
80103254:	ee0062a4 	sh	v0,238(v1)
80103258:	84300408 	j	0x8010c210
8010325c:	00ff0224 	li	v0,-256
80103260:	801f033c 	lui	v1,0x1f80
80103264:	21f844a0 	sb	a0,-2015(v0)
80103268:	62f80224 	li	v0,-1950
8010326c:	ee0062a4 	sh	v0,238(v1)
80103270:	e0fc0224 	li	v0,-800
80103274:	260002a6 	sh	v0,38(s0)
80103278:	e0fc0224 	li	v0,-800
8010327c:	80ba010c 	jal	0x8006ea00
80103280:	260002a6 	sh	v0,38(s0)
80103284:	0c000224 	li	v0,12
80103288:	bc300408 	j	0x8010c2f0
8010328c:	680002a6 	sh	v0,104(s0)
80103290:	07004514 	bne	v0,a1,0x801032b0
80103294:	21200002 	move	a0,s0
80103298:	0e80053c 	lui	a1,0x800e
8010329c:	807ea524 	addiu	a1,a1,32384
801032a0:	21300000 	move	a2,zero
801032a4:	a02f040c 	jal	0x8010be80
801032a8:	00000000 	nop
801032ac:	21200002 	move	a0,s0
801032b0:	fdb8010c 	jal	0x8006e3f4
801032b4:	38008524 	addiu	a1,a0,56
801032b8:	bc300408 	j	0x8010c2f0
801032bc:	00000000 	nop
801032c0:	68000296 	lhu	v0,104(s0)
801032c4:	00000000 	nop
801032c8:	ffff4224 	addiu	v0,v0,-1
801032cc:	680002a6 	sh	v0,104(s0)
801032d0:	00140200 	sll	v0,v0,0x10
801032d4:	0b004014 	bnez	v0,0x80103304
801032d8:	0e80023c 	lui	v0,0x800e
801032dc:	0c80023c 	lui	v0,0x800c
801032e0:	08f84324 	addiu	v1,v0,-2040
801032e4:	39006290 	lbu	v0,57(v1)
801032e8:	00000000 	nop
801032ec:	03004010 	beqz	v0,0x801032fc
801032f0:	00000000 	nop
801032f4:	010060a0 	sb	zero,1(v1)
801032f8:	390060a0 	sb	zero,57(v1)
801032fc:	030005a2 	sb	a1,3(s0)
80103300:	0e80023c 	lui	v0,0x800e
80103304:	aa7e4290 	lbu	v0,32426(v0)
80103308:	00000000 	nop
8010330c:	f2ff4224 	addiu	v0,v0,-14
80103310:	0700422c 	sltiu	v0,v0,7
80103314:	07004010 	beqz	v0,0x80103334
80103318:	0c80023c 	lui	v0,0x800c
8010331c:	801f033c 	lui	v1,0x1f80
80103320:	21f840a0 	sb	zero,-2015(v0)
80103324:	ecfa0224 	li	v0,-1300
80103328:	ee0062a4 	sh	v0,238(v1)
8010332c:	bb300408 	j	0x8010c2ec
80103330:	00ff0224 	li	v0,-256
80103334:	0c80033c 	lui	v1,0x800c
80103338:	02000224 	li	v0,2
8010333c:	21f862a0 	sb	v0,-2015(v1)
80103340:	801f033c 	lui	v1,0x1f80
80103344:	62f80224 	li	v0,-1950
80103348:	ee0062a4 	sh	v0,238(v1)
8010334c:	e0fc0224 	li	v0,-800
80103350:	260002a6 	sh	v0,38(s0)
80103354:	1400bf8f 	lw	ra,20(sp)
80103358:	1000b08f 	lw	s0,16(sp)
8010335c:	0800e003 	jr	ra
80103360:	1800bd27 	addiu	sp,sp,24
80103364:	0800e003 	jr	ra
80103368:	00000000 	nop
8010336c:	0800e003 	jr	ra
80103370:	00000000 	nop
80103374:	d8ffbd27 	addiu	sp,sp,-40
80103378:	1800b2af 	sw	s2,24(sp)
8010337c:	21908000 	move	s2,a0
80103380:	2000b4af 	sw	s4,32(sp)
80103384:	21a0a000 	move	s4,a1
80103388:	1280033c 	lui	v1,0x8012
8010338c:	b4826324 	addiu	v1,v1,-32076
80103390:	80101400 	sll	v0,s4,0x2
80103394:	21104300 	addu	v0,v0,v1
80103398:	2400bfaf 	sw	ra,36(sp)
8010339c:	1c00b3af 	sw	s3,28(sp)
801033a0:	1400b1af 	sw	s1,20(sp)
801033a4:	1000b0af 	sw	s0,16(sp)
801033a8:	080040a6 	sh	zero,8(s2)
801033ac:	0000518c 	lw	s1,0(v0)
801033b0:	00000000 	nop
801033b4:	00002392 	lbu	v1,0(s1)
801033b8:	ff000224 	li	v0,255
801033bc:	43006210 	beq	v1,v0,0x801034cc
801033c0:	0c80023c 	lui	v0,0x800c
801033c4:	08f85324 	addiu	s3,v0,-2040
801033c8:	0c003026 	addiu	s0,s1,12
801033cc:	06008012 	beqz	s4,0x801033e8
801033d0:	00000000 	nop
801033d4:	08004286 	lh	v0,8(s2)
801033d8:	00000000 	nop
801033dc:	0f004228 	slti	v0,v0,15
801033e0:	35004010 	beqz	v0,0x801034b8
801033e4:	00000000 	nop
801033e8:	feff0392 	lbu	v1,-2(s0)
801033ec:	00000000 	nop
801033f0:	0c006010 	beqz	v1,0x80103424
801033f4:	01000224 	li	v0,1
801033f8:	0a006214 	bne	v1,v0,0x80103424
801033fc:	00000000 	nop
80103400:	f8ff0296 	lhu	v0,-8(s0)
80103404:	00000000 	nop
80103408:	080062a6 	sh	v0,8(s3)
8010340c:	faff0296 	lhu	v0,-6(s0)
80103410:	00000000 	nop
80103414:	0a0062a6 	sh	v0,10(s3)
80103418:	fcff0296 	lhu	v0,-4(s0)
8010341c:	00000000 	nop
80103420:	0c0062a6 	sh	v0,12(s3)
80103424:	00002592 	lbu	a1,0(s1)
80103428:	f5ff0692 	lbu	a2,-11(s0)
8010342c:	f6ff0792 	lbu	a3,-10(s0)
80103430:	77cb010c 	jal	0x80072ddc
80103434:	21204002 	move	a0,s2
80103438:	21184000 	move	v1,v0
8010343c:	1e006010 	beqz	v1,0x801034b8
80103440:	00000000 	nop
80103444:	f8ff0286 	lh	v0,-8(s0)
80103448:	00000000 	nop
8010344c:	00140200 	sll	v0,v0,0x10
80103450:	2c0062ac 	sw	v0,44(v1)
80103454:	faff0286 	lh	v0,-6(s0)
80103458:	00000000 	nop
8010345c:	00140200 	sll	v0,v0,0x10
80103460:	300062ac 	sw	v0,48(v1)
80103464:	fcff0286 	lh	v0,-4(s0)
80103468:	00000000 	nop
8010346c:	00140200 	sll	v0,v0,0x10
80103470:	340062ac 	sw	v0,52(v1)
80103474:	f7ff0292 	lbu	v0,-9(s0)
80103478:	540060a4 	sh	zero,84(v1)
8010347c:	560060a4 	sh	zero,86(v1)
80103480:	580060a4 	sh	zero,88(v1)
80103484:	030062a0 	sb	v0,3(v1)
80103488:	0000028e 	lw	v0,0(s0)
8010348c:	0a008012 	beqz	s4,0x801034b8
80103490:	1c0062ac 	sw	v0,28(v1)
80103494:	08004286 	lh	v0,8(s2)
80103498:	00000000 	nop
8010349c:	80100200 	sll	v0,v0,0x2
801034a0:	21104202 	addu	v0,s2,v0
801034a4:	0c0043ac 	sw	v1,12(v0)
801034a8:	08004296 	lhu	v0,8(s2)
801034ac:	00000000 	nop
801034b0:	01004224 	addiu	v0,v0,1
801034b4:	080042a6 	sh	v0,8(s2)
801034b8:	10003126 	addiu	s1,s1,16
801034bc:	00002392 	lbu	v1,0(s1)
801034c0:	ff000224 	li	v0,255
801034c4:	c1ff6214 	bne	v1,v0,0x801033cc
801034c8:	10001026 	addiu	s0,s0,16
801034cc:	2400bf8f 	lw	ra,36(sp)
801034d0:	2000b48f 	lw	s4,32(sp)
801034d4:	1c00b38f 	lw	s3,28(sp)
801034d8:	1800b28f 	lw	s2,24(sp)
801034dc:	1400b18f 	lw	s1,20(sp)
801034e0:	1000b08f 	lw	s0,16(sp)
801034e4:	0800e003 	jr	ra
801034e8:	2800bd27 	addiu	sp,sp,40
801034ec:	e8ffbd27 	addiu	sp,sp,-24
801034f0:	1000b0af 	sw	s0,16(sp)
801034f4:	21808000 	move	s0,a0
801034f8:	1400bfaf 	sw	ra,20(sp)
801034fc:	04000392 	lbu	v1,4(s0)
80103500:	01000424 	li	a0,1
80103504:	1b006410 	beq	v1,a0,0x80103574
80103508:	02006228 	slti	v0,v1,2
8010350c:	05004010 	beqz	v0,0x80103524
80103510:	00000000 	nop
80103514:	0a006010 	beqz	v1,0x80103540
80103518:	00000000 	nop
8010351c:	51310408 	j	0x8010c544
80103520:	00000000 	nop
80103524:	02000224 	li	v0,2
80103528:	1f006210 	beq	v1,v0,0x801035a8
8010352c:	03000224 	li	v0,3
80103530:	1b006210 	beq	v1,v0,0x801035a0
80103534:	00000000 	nop
80103538:	51310408 	j	0x8010c544
8010353c:	00000000 	nop
80103540:	040004a2 	sb	a0,4(s0)
80103544:	21200002 	move	a0,s0
80103548:	c430040c 	jal	0x8010c310
8010354c:	21280000 	move	a1,zero
80103550:	050c0424 	li	a0,3077
80103554:	3dc4000c 	jal	0x800310f4
80103558:	21280000 	move	a1,zero
8010355c:	add4010c 	jal	0x800752b4
80103560:	01000424 	li	a0,1
80103564:	49d7010c 	jal	0x80075d24
80103568:	ff1f0424 	li	a0,8191
8010356c:	51310408 	j	0x8010c544
80103570:	00000000 	nop
80103574:	b49a000c 	jal	0x80026ad0
80103578:	21200002 	move	a0,s0
8010357c:	04004010 	beqz	v0,0x80103590
80103580:	00000000 	nop
80103584:	03000592 	lbu	a1,3(s0)
80103588:	c430040c 	jal	0x8010c310
8010358c:	21200002 	move	a0,s0
80103590:	9a9a000c 	jal	0x80026a68
80103594:	21200002 	move	a0,s0
80103598:	51310408 	j	0x8010c544
8010359c:	00000000 	nop
801035a0:	74eb010c 	jal	0x8007add0
801035a4:	21200002 	move	a0,s0
801035a8:	1400bf8f 	lw	ra,20(sp)
801035ac:	1000b08f 	lw	s0,16(sp)
801035b0:	0800e003 	jr	ra
801035b4:	1800bd27 	addiu	sp,sp,24
801035b8:	d0ffbd27 	addiu	sp,sp,-48
801035bc:	2400b5af 	sw	s5,36(sp)
801035c0:	21a88000 	move	s5,a0
801035c4:	2000b4af 	sw	s4,32(sp)
801035c8:	21a0a000 	move	s4,a1
801035cc:	0c80023c 	lui	v0,0x800c
801035d0:	70f84390 	lbu	v1,-1936(v0)
801035d4:	0c000224 	li	v0,12
801035d8:	2800bfaf 	sw	ra,40(sp)
801035dc:	1c00b3af 	sw	s3,28(sp)
801035e0:	1800b2af 	sw	s2,24(sp)
801035e4:	1400b1af 	sw	s1,20(sp)
801035e8:	73006210 	beq	v1,v0,0x801037b8
801035ec:	1000b0af 	sw	s0,16(sp)
801035f0:	0f000224 	li	v0,15
801035f4:	70006210 	beq	v1,v0,0x801037b8
801035f8:	00000000 	nop
801035fc:	1100c010 	beqz	a2,0x80103644
80103600:	801f023c 	lui	v0,0x1f80
80103604:	46024390 	lbu	v1,582(v0)
80103608:	02000224 	li	v0,2
8010360c:	08006214 	bne	v1,v0,0x80103630
80103610:	e8031224 	li	s2,1000
80103614:	6000a28e 	lw	v0,96(s5)
80103618:	00000000 	nop
8010361c:	90014228 	slti	v0,v0,400
80103620:	65004014 	bnez	v0,0x801037b8
80103624:	58021224 	li	s2,600
80103628:	74310408 	j	0x8010c5d0
8010362c:	90010424 	li	a0,400
80103630:	20030424 	li	a0,800
80103634:	56008396 	lhu	v1,86(s4)
80103638:	0008c224 	addiu	v0,a2,2048
8010363c:	7e310408 	j	0x8010c5f8
80103640:	21806200 	addu	s0,v1,v0
80103644:	90010424 	li	a0,400
80103648:	801f023c 	lui	v0,0x1f80
8010364c:	56008396 	lhu	v1,86(s4)
80103650:	ee004294 	lhu	v0,238(v0)
80103654:	00087024 	addiu	s0,v1,2048
80103658:	23900200 	negu	s2,v0
8010365c:	801f023c 	lui	v0,0x1f80
80103660:	d0004524 	addiu	a1,v0,208
80103664:	0600a294 	lhu	v0,6(a1)
80103668:	1200a694 	lhu	a2,18(a1)
8010366c:	21104400 	addu	v0,v0,a0
80103670:	23184600 	subu	v1,v0,a2
80103674:	0a006224 	addiu	v0,v1,10
80103678:	ffff4230 	andi	v0,v0,0xffff
8010367c:	1500422c 	sltiu	v0,v0,21
80103680:	07004014 	bnez	v0,0x801036a0
80103684:	2310c400 	subu	v0,a2,a0
80103688:	00140300 	sll	v0,v1,0x10
8010368c:	0400a38c 	lw	v1,4(a1)
80103690:	c3100200 	sra	v0,v0,0x3
80103694:	23186200 	subu	v1,v1,v0
80103698:	94310408 	j	0x8010c650
8010369c:	0400a3ac 	sw	v1,4(a1)
801036a0:	0600a2a4 	sh	v0,6(a1)
801036a4:	6600a292 	lbu	v0,102(s5)
801036a8:	00000000 	nop
801036ac:	02004234 	ori	v0,v0,0x2
801036b0:	6600a2a2 	sb	v0,102(s5)
801036b4:	00841000 	sll	s0,s0,0x10
801036b8:	03841000 	sra	s0,s0,0x10
801036bc:	d40f020c 	jal	0x80083f50
801036c0:	21200002 	move	a0,s0
801036c4:	00941200 	sll	s2,s2,0x10
801036c8:	03941200 	sra	s2,s2,0x10
801036cc:	18005200 	mult	v0,s2
801036d0:	21200002 	move	a0,s0
801036d4:	2e009196 	lhu	s1,46(s4)
801036d8:	12180000 	mflo	v1
801036dc:	03130300 	sra	v0,v1,0xc
801036e0:	a00f020c 	jal	0x80083e80
801036e4:	21882202 	addu	s1,s1,v0
801036e8:	18005200 	mult	v0,s2
801036ec:	801f133c 	lui	s3,0x1f80
801036f0:	d0007226 	addiu	s2,s3,208
801036f4:	36009096 	lhu	s0,54(s4)
801036f8:	0a004296 	lhu	v0,10(s2)
801036fc:	12180000 	mflo	v1
80103700:	031b0300 	sra	v1,v1,0xc
80103704:	23800302 	subu	s0,s0,v1
80103708:	23800202 	subu	s0,s0,v0
8010370c:	00841000 	sll	s0,s0,0x10
80103710:	03841000 	sra	s0,s0,0x10
80103714:	02004296 	lhu	v0,2(s2)
80103718:	23201000 	negu	a0,s0
8010371c:	23882202 	subu	s1,s1,v0
80103720:	008c1100 	sll	s1,s1,0x10
80103724:	038c1100 	sra	s1,s1,0x10
80103728:	a415020c 	jal	0x80085690
8010372c:	21282002 	move	a1,s1
80103730:	18003102 	mult	s1,s1
80103734:	12180000 	mflo	v1
	...
80103740:	18001002 	mult	s0,s0
80103744:	21884000 	move	s1,v0
80103748:	12400000 	mflo	t0
8010374c:	2010020c 	jal	0x80084080
80103750:	21206800 	addu	a0,v1,t0
80103754:	008c1100 	sll	s1,s1,0x10
80103758:	038c1100 	sra	s1,s1,0x10
8010375c:	21202002 	move	a0,s1
80103760:	d40f020c 	jal	0x80083f50
80103764:	21804000 	move	s0,v0
80103768:	00841000 	sll	s0,s0,0x10
8010376c:	03841000 	sra	s0,s0,0x10
80103770:	18005000 	mult	v0,s0
80103774:	21202002 	move	a0,s1
80103778:	d000628e 	lw	v0,208(s3)
8010377c:	12180000 	mflo	v1
80103780:	21104300 	addu	v0,v0,v1
80103784:	a00f020c 	jal	0x80083e80
80103788:	d00062ae 	sw	v0,208(s3)
8010378c:	18005000 	mult	v0,s0
80103790:	9101102a 	slti	s0,s0,401
80103794:	0800428e 	lw	v0,8(s2)
80103798:	12180000 	mflo	v1
8010379c:	23104300 	subu	v0,v0,v1
801037a0:	05000012 	beqz	s0,0x801037b8
801037a4:	080042ae 	sw	v0,8(s2)
801037a8:	6600a292 	lbu	v0,102(s5)
801037ac:	00000000 	nop
801037b0:	01004234 	ori	v0,v0,0x1
801037b4:	6600a2a2 	sb	v0,102(s5)
801037b8:	2800bf8f 	lw	ra,40(sp)
801037bc:	2400b58f 	lw	s5,36(sp)
801037c0:	2000b48f 	lw	s4,32(sp)
801037c4:	1c00b38f 	lw	s3,28(sp)
801037c8:	1800b28f 	lw	s2,24(sp)
801037cc:	1400b18f 	lw	s1,20(sp)
801037d0:	1000b08f 	lw	s0,16(sp)
801037d4:	0800e003 	jr	ra
801037d8:	3000bd27 	addiu	sp,sp,48
801037dc:	d8ffbd27 	addiu	sp,sp,-40
801037e0:	1800b0af 	sw	s0,24(sp)
801037e4:	21808000 	move	s0,a0
801037e8:	0e80023c 	lui	v0,0x800e
801037ec:	2000b2af 	sw	s2,32(sp)
801037f0:	807e5224 	addiu	s2,v0,32384
801037f4:	2400bfaf 	sw	ra,36(sp)
801037f8:	1c00b1af 	sw	s1,28(sp)
801037fc:	04001192 	lbu	s1,4(s0)
80103800:	01000224 	li	v0,1
80103804:	2a002212 	beq	s1,v0,0x801038b0
80103808:	0200222a 	slti	v0,s1,2
8010380c:	05004010 	beqz	v0,0x80103824
80103810:	00000000 	nop
80103814:	08002012 	beqz	s1,0x80103838
80103818:	21200002 	move	a0,s0
8010381c:	4c320408 	j	0x8010c930
80103820:	00000000 	nop
80103824:	0400222a 	slti	v0,s1,4
80103828:	5a004010 	beqz	v0,0x80103994
8010382c:	00000000 	nop
80103830:	4a320408 	j	0x8010c928
80103834:	00000000 	nop
80103838:	1280033c 	lui	v1,0x8012
8010383c:	0c80023c 	lui	v0,0x800c
80103840:	70f84290 	lbu	v0,-1936(v0)
80103844:	2ca56324 	addiu	v1,v1,-23252
80103848:	f6ff4224 	addiu	v0,v0,-10
8010384c:	80100200 	sll	v0,v0,0x2
80103850:	21104300 	addu	v0,v0,v1
80103854:	0000468c 	lw	a2,0(v0)
80103858:	dc46010c 	jal	0x80051b70
8010385c:	0c000524 	li	a1,12
80103860:	4c004014 	bnez	v0,0x80103994
80103864:	00000000 	nop
80103868:	04000292 	lbu	v0,4(s0)
8010386c:	540000a6 	sh	zero,84(s0)
80103870:	01004224 	addiu	v0,v0,1
80103874:	040002a2 	sb	v0,4(s0)
80103878:	801f023c 	lui	v0,0x1f80
8010387c:	d0004224 	addiu	v0,v0,208
80103880:	02004584 	lh	a1,2(v0)
80103884:	0a004684 	lh	a2,10(v0)
80103888:	ace0010c 	jal	0x800782b0
8010388c:	2c000426 	addiu	a0,s0,44
80103890:	c000038e 	lw	v1,192(s0)
80103894:	00fc4224 	addiu	v0,v0,-1024
80103898:	560002a6 	sh	v0,86(s0)
8010389c:	28000224 	li	v0,40
801038a0:	580000a6 	sh	zero,88(s0)
801038a4:	4a0000a6 	sh	zero,74(s0)
801038a8:	4c320408 	j	0x8010c930
801038ac:	000062a4 	sh	v0,0(v1)
801038b0:	801f023c 	lui	v0,0x1f80
801038b4:	d0004224 	addiu	v0,v0,208
801038b8:	02004584 	lh	a1,2(v0)
801038bc:	0a004684 	lh	a2,10(v0)
801038c0:	ace0010c 	jal	0x800782b0
801038c4:	2c000426 	addiu	a0,s0,44
801038c8:	21200002 	move	a0,s0
801038cc:	00fc4224 	addiu	v0,v0,-1024
801038d0:	e3dd010c 	jal	0x8007778c
801038d4:	560002a6 	sh	v0,86(s0)
801038d8:	05000292 	lbu	v0,5(s0)
801038dc:	00000000 	nop
801038e0:	05004010 	beqz	v0,0x801038f8
801038e4:	21200002 	move	a0,s0
801038e8:	0a005110 	beq	v0,s1,0x80103914
801038ec:	00000000 	nop
801038f0:	4c320408 	j	0x8010c930
801038f4:	00000000 	nop
801038f8:	dc00468e 	lw	a2,220(s2)
801038fc:	d000478e 	lw	a3,208(s2)
80103900:	21280000 	move	a1,zero
80103904:	592f010c 	jal	0x8004bd64
80103908:	1000a0af 	sw	zero,16(sp)
8010390c:	4c320408 	j	0x8010c930
80103910:	00000000 	nop
80103914:	4a000296 	lhu	v0,74(s0)
80103918:	00000000 	nop
8010391c:	00fe4224 	addiu	v0,v0,-512
80103920:	4a0002a6 	sh	v0,74(s0)
80103924:	00140200 	sll	v0,v0,0x10
80103928:	03140200 	sra	v0,v0,0x10
8010392c:	00d04228 	slti	v0,v0,-12288
80103930:	02004010 	beqz	v0,0x8010393c
80103934:	00d00224 	li	v0,-12288
80103938:	4a0002a6 	sh	v0,74(s0)
8010393c:	4a000286 	lh	v0,74(s0)
80103940:	3000038e 	lw	v1,48(s0)
80103944:	01000492 	lbu	a0,1(s0)
80103948:	00120200 	sll	v0,v0,0x8
8010394c:	21186200 	addu	v1,v1,v0
80103950:	0a008014 	bnez	a0,0x8010397c
80103954:	300003ae 	sw	v1,48(s0)
80103958:	07000424 	li	a0,7
8010395c:	03000224 	li	v0,3
80103960:	70b8010c 	jal	0x8006e1c0
80103964:	040002a2 	sb	v0,4(s0)
80103968:	801f023c 	lui	v0,0x1f80
8010396c:	4802438c 	lw	v1,584(v0)
80103970:	02000224 	li	v0,2
80103974:	4c320408 	j	0x8010c930
80103978:	050062a0 	sb	v0,5(v1)
8010397c:	fe45010c 	jal	0x800517f8
80103980:	21200002 	move	a0,s0
80103984:	4c320408 	j	0x8010c930
80103988:	00000000 	nop
8010398c:	89e9010c 	jal	0x8007a624
80103990:	21200002 	move	a0,s0
80103994:	2400bf8f 	lw	ra,36(sp)
80103998:	2000b28f 	lw	s2,32(sp)
8010399c:	1c00b18f 	lw	s1,28(sp)
801039a0:	1800b08f 	lw	s0,24(sp)
801039a4:	0800e003 	jr	ra
801039a8:	2800bd27 	addiu	sp,sp,40
801039ac:	e0ffbd27 	addiu	sp,sp,-32
801039b0:	1400b1af 	sw	s1,20(sp)
801039b4:	0e80023c 	lui	v0,0x800e
801039b8:	1000b0af 	sw	s0,16(sp)
801039bc:	807e5024 	addiu	s0,v0,32384
801039c0:	1800bfaf 	sw	ra,24(sp)
801039c4:	44010392 	lbu	v1,324(s0)
801039c8:	01000224 	li	v0,1
801039cc:	2c006214 	bne	v1,v0,0x80103a80
801039d0:	21888000 	move	s1,a0
801039d4:	2e000296 	lhu	v0,46(s0)
801039d8:	2e002396 	lhu	v1,46(s1)
801039dc:	00000000 	nop
801039e0:	23104300 	subu	v0,v0,v1
801039e4:	00140200 	sll	v0,v0,0x10
801039e8:	03140200 	sra	v0,v0,0x10
801039ec:	18004200 	mult	v0,v0
801039f0:	36000296 	lhu	v0,54(s0)
801039f4:	36002396 	lhu	v1,54(s1)
801039f8:	00000000 	nop
801039fc:	23104300 	subu	v0,v0,v1
80103a00:	12200000 	mflo	a0
80103a04:	00140200 	sll	v0,v0,0x10
80103a08:	03140200 	sra	v0,v0,0x10
80103a0c:	18004200 	mult	v0,v0
80103a10:	12180000 	mflo	v1
80103a14:	2010020c 	jal	0x80084080
80103a18:	21208300 	addu	a0,a0,v1
80103a1c:	80000386 	lh	v1,128(s0)
80103a20:	80002486 	lh	a0,128(s1)
80103a24:	ffff4230 	andi	v0,v0,0xffff
80103a28:	21186400 	addu	v1,v1,a0
80103a2c:	22016324 	addiu	v1,v1,290
80103a30:	2a186200 	slt	v1,v1,v0
80103a34:	12006014 	bnez	v1,0x80103a80
80103a38:	00000000 	nop
80103a3c:	32000396 	lhu	v1,50(s0)
80103a40:	32002296 	lhu	v0,50(s1)
80103a44:	84002496 	lhu	a0,132(s1)
80103a48:	23186200 	subu	v1,v1,v0
80103a4c:	84000296 	lhu	v0,132(s0)
80103a50:	58026324 	addiu	v1,v1,600
80103a54:	21104400 	addu	v0,v0,a0
80103a58:	21186200 	addu	v1,v1,v0
80103a5c:	ffff6330 	andi	v1,v1,0xffff
80103a60:	00240400 	sll	a0,a0,0x10
80103a64:	86000286 	lh	v0,134(s0)
80103a68:	03240400 	sra	a0,a0,0x10
80103a6c:	21104400 	addu	v0,v0,a0
80103a70:	58024224 	addiu	v0,v0,600
80103a74:	2a104300 	slt	v0,v0,v1
80103a78:	88320408 	j	0x8010ca20
80103a7c:	01004238 	xori	v0,v0,0x1
80103a80:	21100000 	move	v0,zero
80103a84:	1800bf8f 	lw	ra,24(sp)
80103a88:	1400b18f 	lw	s1,20(sp)
80103a8c:	1000b08f 	lw	s0,16(sp)
80103a90:	0800e003 	jr	ra
80103a94:	2000bd27 	addiu	sp,sp,32
80103a98:	e8ffbd27 	addiu	sp,sp,-24
80103a9c:	1000b0af 	sw	s0,16(sp)
80103aa0:	21808000 	move	s0,a0
80103aa4:	0c80023c 	lui	v0,0x800c
80103aa8:	70f84390 	lbu	v1,-1936(v0)
80103aac:	0f000224 	li	v0,15
80103ab0:	04006214 	bne	v1,v0,0x80103ac4
80103ab4:	1400bfaf 	sw	ra,20(sp)
80103ab8:	6e000286 	lh	v0,110(s0)
80103abc:	9b320408 	j	0x8010ca6c
80103ac0:	03004328 	slti	v1,v0,3
80103ac4:	6e000286 	lh	v0,110(s0)
80103ac8:	00000000 	nop
80103acc:	02004328 	slti	v1,v0,2
80103ad0:	1280043c 	lui	a0,0x8012
80103ad4:	fca48424 	addiu	a0,a0,-23300
80103ad8:	0c80023c 	lui	v0,0x800c
80103adc:	70f84290 	lbu	v0,-1936(v0)
80103ae0:	80180300 	sll	v1,v1,0x2
80103ae4:	f6ff4224 	addiu	v0,v0,-10
80103ae8:	c0100200 	sll	v0,v0,0x3
80103aec:	21186200 	addu	v1,v1,v0
80103af0:	21186400 	addu	v1,v1,a0
80103af4:	66000496 	lhu	a0,102(s0)
80103af8:	0000628c 	lw	v0,0(v1)
80103afc:	0f008330 	andi	v1,a0,0xf
80103b00:	21104300 	addu	v0,v0,v1
80103b04:	00004290 	lbu	v0,0(v0)
80103b08:	01008424 	addiu	a0,a0,1
80103b0c:	660004a6 	sh	a0,102(s0)
80103b10:	21184000 	move	v1,v0
80103b14:	0500622c 	sltiu	v0,v1,5
80103b18:	17004010 	beqz	v0,0x80103b78
80103b1c:	060000a2 	sb	zero,6(s0)
80103b20:	1180023c 	lui	v0,0x8011
80103b24:	f08f4224 	addiu	v0,v0,-28688
80103b28:	80180300 	sll	v1,v1,0x2
80103b2c:	21186200 	addu	v1,v1,v0
80103b30:	0000628c 	lw	v0,0(v1)
80103b34:	00000000 	nop
80103b38:	08004000 	jr	v0
80103b3c:	00000000 	nop
80103b40:	01000224 	li	v0,1
80103b44:	cc320408 	j	0x8010cb30
80103b48:	640002a6 	sh	v0,100(s0)
80103b4c:	02000224 	li	v0,2
80103b50:	cb320408 	j	0x8010cb2c
80103b54:	640002a6 	sh	v0,100(s0)
80103b58:	03000224 	li	v0,3
80103b5c:	640002a6 	sh	v0,100(s0)
80103b60:	cc320408 	j	0x8010cb30
80103b64:	02000224 	li	v0,2
80103b68:	04000224 	li	v0,4
80103b6c:	640002a6 	sh	v0,100(s0)
80103b70:	cc320408 	j	0x8010cb30
80103b74:	02000224 	li	v0,2
80103b78:	05000224 	li	v0,5
80103b7c:	1469020c 	jal	0x8009a450
80103b80:	640002a6 	sh	v0,100(s0)
80103b84:	40004230 	andi	v0,v0,0x40
80103b88:	02004014 	bnez	v0,0x80103b94
80103b8c:	03000224 	li	v0,3
80103b90:	01000224 	li	v0,1
80103b94:	050002a2 	sb	v0,5(s0)
80103b98:	1400bf8f 	lw	ra,20(sp)
80103b9c:	1000b08f 	lw	s0,16(sp)
80103ba0:	0800e003 	jr	ra
80103ba4:	1800bd27 	addiu	sp,sp,24
80103ba8:	b8ffbd27 	addiu	sp,sp,-72
80103bac:	3800b6af 	sw	s6,56(sp)
80103bb0:	21b00000 	move	s6,zero
80103bb4:	3400b5af 	sw	s5,52(sp)
80103bb8:	ff0f153c 	lui	s5,0xfff
80103bbc:	ffff0224 	li	v0,-1
80103bc0:	801f033c 	lui	v1,0x1f80
80103bc4:	4400bfaf 	sw	ra,68(sp)
80103bc8:	4000beaf 	sw	s8,64(sp)
80103bcc:	3c00b7af 	sw	s7,60(sp)
80103bd0:	3000b4af 	sw	s4,48(sp)
80103bd4:	2c00b3af 	sw	s3,44(sp)
80103bd8:	2800b2af 	sw	s2,40(sp)
80103bdc:	2400b1af 	sw	s1,36(sp)
80103be0:	2000b0af 	sw	s0,32(sp)
80103be4:	4c00a5af 	sw	a1,76(sp)
80103be8:	1000a2a7 	sh	v0,16(sp)
80103bec:	1200a2a7 	sh	v0,18(sp)
80103bf0:	1400a2a7 	sh	v0,20(sp)
80103bf4:	1600a2a7 	sh	v0,22(sp)
80103bf8:	1800a4af 	sw	a0,24(sp)
80103bfc:	720082a4 	sh	v0,114(a0)
80103c00:	0c80023c 	lui	v0,0x800c
80103c04:	70f84290 	lbu	v0,-1936(v0)
80103c08:	ff000424 	li	a0,255
80103c0c:	5c0264a0 	sb	a0,604(v1)
80103c10:	5c026324 	addiu	v1,v1,604
80103c14:	010064a0 	sb	a0,1(v1)
80103c18:	020064a0 	sb	a0,2(v1)
80103c1c:	030064a0 	sb	a0,3(v1)
80103c20:	f6ff4324 	addiu	v1,v0,-10
80103c24:	0600622c 	sltiu	v0,v1,6
80103c28:	7e014010 	beqz	v0,0x80104224
80103c2c:	ffffb536 	ori	s5,s5,0xffff
80103c30:	1180023c 	lui	v0,0x8011
80103c34:	08904224 	addiu	v0,v0,-28664
80103c38:	80180300 	sll	v1,v1,0x2
80103c3c:	21186200 	addu	v1,v1,v0
80103c40:	0000628c 	lw	v0,0(v1)
80103c44:	00000000 	nop
80103c48:	08004000 	jr	v0
80103c4c:	00000000 	nop
80103c50:	21800000 	move	s0,zero
80103c54:	01001724 	li	s7,1
80103c58:	801f023c 	lui	v0,0x1f80
80103c5c:	5c025224 	addiu	s2,v0,604
80103c60:	1000b427 	addiu	s4,sp,16
80103c64:	21988002 	move	s3,s4
80103c68:	0c80023c 	lui	v0,0x800c
80103c6c:	70f84290 	lbu	v0,-1936(v0)
80103c70:	1280033c 	lui	v1,0x8012
80103c74:	6ca27124 	addiu	s1,v1,-23956
80103c78:	0b004238 	xori	v0,v0,0xb
80103c7c:	2bf05700 	sltu	s8,v0,s7
80103c80:	1600c013 	beqz	s8,0x80103cdc
80103c84:	0e80023c 	lui	v0,0x800e
80103c88:	aa7e4290 	lbu	v0,32426(v0)
80103c8c:	00000000 	nop
80103c90:	0e005714 	bne	v0,s7,0x80103ccc
80103c94:	00000000 	nop
80103c98:	06002286 	lh	v0,6(s1)
80103c9c:	00000000 	nop
80103ca0:	69005714 	bne	v0,s7,0x80103e48
80103ca4:	801f023c 	lui	v0,0x1f80
80103ca8:	1f330408 	j	0x8010cc7c
80103cac:	00000000 	nop
80103cb0:	01000424 	li	a0,1
80103cb4:	00006ba4 	sh	t3,0(v1)
80103cb8:	49330408 	j	0x8010cd24
80103cbc:	000050a0 	sb	s0,0(v0)
80103cc0:	00006ba4 	sh	t3,0(v1)
80103cc4:	74330408 	j	0x8010cdd0
80103cc8:	000050a0 	sb	s0,0(v0)
80103ccc:	06002286 	lh	v0,6(s1)
80103cd0:	00000000 	nop
80103cd4:	5c005710 	beq	v0,s7,0x80103e48
80103cd8:	00000000 	nop
80103cdc:	801f023c 	lui	v0,0x1f80
80103ce0:	60014294 	lhu	v0,352(v0)
80103ce4:	00002396 	lhu	v1,0(s1)
80103ce8:	00000000 	nop
80103cec:	23104300 	subu	v0,v0,v1
80103cf0:	00140200 	sll	v0,v0,0x10
80103cf4:	03140200 	sra	v0,v0,0x10
80103cf8:	18004200 	mult	v0,v0
80103cfc:	801f023c 	lui	v0,0x1f80
80103d00:	64014294 	lhu	v0,356(v0)
80103d04:	04002396 	lhu	v1,4(s1)
80103d08:	00000000 	nop
80103d0c:	23104300 	subu	v0,v0,v1
80103d10:	12200000 	mflo	a0
80103d14:	00140200 	sll	v0,v0,0x10
80103d18:	03140200 	sra	v0,v0,0x10
80103d1c:	18004200 	mult	v0,v0
80103d20:	12180000 	mflo	v1
80103d24:	2010020c 	jal	0x80084080
80103d28:	21208300 	addu	a0,a0,v1
80103d2c:	801f033c 	lui	v1,0x1f80
80103d30:	21584000 	move	t3,v0
80103d34:	62016394 	lhu	v1,354(v1)
80103d38:	40066229 	slti	v0,t3,1600
80103d3c:	3d004010 	beqz	v0,0x80103e34
80103d40:	70fe6324 	addiu	v1,v1,-400
80103d44:	00140300 	sll	v0,v1,0x10
80103d48:	02002386 	lh	v1,2(s1)
80103d4c:	03140200 	sra	v0,v0,0x10
80103d50:	2a104300 	slt	v0,v0,v1
80103d54:	37004010 	beqz	v0,0x80103e34
80103d58:	21200000 	move	a0,zero
80103d5c:	21288000 	move	a1,a0
80103d60:	ffff0624 	li	a2,-1
80103d64:	21188002 	move	v1,s4
80103d68:	00006284 	lh	v0,0(v1)
80103d6c:	00000000 	nop
80103d70:	cfff4610 	beq	v0,a2,0x80103cb0
80103d74:	2110b200 	addu	v0,a1,s2
80103d78:	0100a524 	addiu	a1,a1,1
80103d7c:	0400a228 	slti	v0,a1,4
80103d80:	f9ff4014 	bnez	v0,0x80103d68
80103d84:	02006324 	addiu	v1,v1,2
80103d88:	2b008014 	bnez	a0,0x80103e38
80103d8c:	2a107501 	slt	v0,t3,s5
80103d90:	21380000 	move	a3,zero
80103d94:	21506002 	move	t2,s3
80103d98:	0100e524 	addiu	a1,a3,1
80103d9c:	0400a228 	slti	v0,a1,4
80103da0:	15004010 	beqz	v0,0x80103df8
80103da4:	40100500 	sll	v0,a1,0x1
80103da8:	21484001 	move	t1,t2
80103dac:	2140f200 	addu	t0,a3,s2
80103db0:	21305300 	addu	a2,v0,s3
80103db4:	00002485 	lh	a0,0(t1)
80103db8:	0000c284 	lh	v0,0(a2)
80103dbc:	0000c394 	lhu	v1,0(a2)
80103dc0:	2a108200 	slt	v0,a0,v0
80103dc4:	08004010 	beqz	v0,0x80103de8
80103dc8:	00000000 	nop
80103dcc:	000023a5 	sh	v1,0(t1)
80103dd0:	2118b200 	addu	v1,a1,s2
80103dd4:	0000c4a4 	sh	a0,0(a2)
80103dd8:	00006290 	lbu	v0,0(v1)
80103ddc:	00000491 	lbu	a0,0(t0)
80103de0:	000002a1 	sb	v0,0(t0)
80103de4:	000064a0 	sb	a0,0(v1)
80103de8:	0100a524 	addiu	a1,a1,1
80103dec:	0400a228 	slti	v0,a1,4
80103df0:	f0ff4014 	bnez	v0,0x80103db4
80103df4:	0200c624 	addiu	a2,a2,2
80103df8:	0100e724 	addiu	a3,a3,1
80103dfc:	0400e228 	slti	v0,a3,4
80103e00:	e5ff4014 	bnez	v0,0x80103d98
80103e04:	02004a25 	addiu	t2,t2,2
80103e08:	21280000 	move	a1,zero
80103e0c:	21188002 	move	v1,s4
80103e10:	00006284 	lh	v0,0(v1)
80103e14:	00000000 	nop
80103e18:	2a106201 	slt	v0,t3,v0
80103e1c:	a8ff4014 	bnez	v0,0x80103cc0
80103e20:	2110b200 	addu	v0,a1,s2
80103e24:	0100a524 	addiu	a1,a1,1
80103e28:	0400a228 	slti	v0,a1,4
80103e2c:	f8ff4014 	bnez	v0,0x80103e10
80103e30:	02006324 	addiu	v1,v1,2
80103e34:	2a107501 	slt	v0,t3,s5
80103e38:	03004010 	beqz	v0,0x80103e48
80103e3c:	00000000 	nop
80103e40:	21a86001 	move	s5,t3
80103e44:	21b00002 	move	s6,s0
80103e48:	01001026 	addiu	s0,s0,1
80103e4c:	3a00022a 	slti	v0,s0,58
80103e50:	8bff4014 	bnez	v0,0x80103c80
80103e54:	08003126 	addiu	s1,s1,8
80103e58:	4c00ac8f 	lw	t4,76(sp)
80103e5c:	00000000 	nop
80103e60:	0600822d 	sltiu	v0,t4,6
80103e64:	1e004010 	beqz	v0,0x80103ee0
80103e68:	1180023c 	lui	v0,0x8011
80103e6c:	20904224 	addiu	v0,v0,-28640
80103e70:	80180c00 	sll	v1,t4,0x2
80103e74:	21186200 	addu	v1,v1,v0
80103e78:	0000628c 	lw	v0,0(v1)
80103e7c:	00000000 	nop
80103e80:	08004000 	jr	v0
80103e84:	00000000 	nop
80103e88:	1469020c 	jal	0x8009a450
80103e8c:	00000000 	nop
80103e90:	30004230 	andi	v0,v0,0x30
80103e94:	9f330408 	j	0x8010ce7c
80103e98:	03810200 	sra	s0,v0,0x4
80103e9c:	9f330408 	j	0x8010ce7c
80103ea0:	21800000 	move	s0,zero
80103ea4:	1469020c 	jal	0x8009a450
80103ea8:	00000000 	nop
80103eac:	20004230 	andi	v0,v0,0x20
80103eb0:	9f330408 	j	0x8010ce7c
80103eb4:	43810200 	sra	s0,v0,0x5
80103eb8:	1469020c 	jal	0x8009a450
80103ebc:	00000000 	nop
80103ec0:	20004230 	andi	v0,v0,0x20
80103ec4:	9e330408 	j	0x8010ce78
80103ec8:	43810200 	sra	s0,v0,0x5
80103ecc:	1469020c 	jal	0x8009a450
80103ed0:	00000000 	nop
80103ed4:	40004230 	andi	v0,v0,0x40
80103ed8:	83810200 	sra	s0,v0,0x6
80103edc:	01001026 	addiu	s0,s0,1
80103ee0:	21280000 	move	a1,zero
80103ee4:	801f023c 	lui	v0,0x1f80
80103ee8:	5c024424 	addiu	a0,v0,604
80103eec:	ffff0324 	li	v1,-1
80103ef0:	03000232 	andi	v0,s0,0x3
80103ef4:	21104400 	addu	v0,v0,a0
80103ef8:	00004790 	lbu	a3,0(v0)
80103efc:	00000000 	nop
80103f00:	0800e314 	bne	a3,v1,0x80103f24
80103f04:	00000000 	nop
80103f08:	0100a524 	addiu	a1,a1,1
80103f0c:	0400a228 	slti	v0,a1,4
80103f10:	f7ff4014 	bnez	v0,0x80103ef0
80103f14:	01001026 	addiu	s0,s0,1
80103f18:	ffff0224 	li	v0,-1
80103f1c:	0200e210 	beq	a3,v0,0x80103f28
80103f20:	00000000 	nop
80103f24:	21b0e000 	move	s6,a3
80103f28:	1800ac8f 	lw	t4,24(sp)
80103f2c:	2110c002 	move	v0,s6
80103f30:	70340408 	j	0x8010d1c0
80103f34:	720096a5 	sh	s6,114(t4)
80103f38:	21800000 	move	s0,zero
80103f3c:	01001424 	li	s4,1
80103f40:	801f023c 	lui	v0,0x1f80
80103f44:	5c025324 	addiu	s3,v0,604
80103f48:	1000b227 	addiu	s2,sp,16
80103f4c:	0c80023c 	lui	v0,0x800c
80103f50:	70f84290 	lbu	v0,-1936(v0)
80103f54:	1280033c 	lui	v1,0x8012
80103f58:	6ca27124 	addiu	s1,v1,-23956
80103f5c:	0f004238 	xori	v0,v0,0xf
80103f60:	2bf05400 	sltu	s8,v0,s4
80103f64:	1600c013 	beqz	s8,0x80103fc0
80103f68:	0e80023c 	lui	v0,0x800e
80103f6c:	aa7e4290 	lbu	v0,32426(v0)
80103f70:	00000000 	nop
80103f74:	0e005414 	bne	v0,s4,0x80103fb0
80103f78:	00000000 	nop
80103f7c:	06002286 	lh	v0,6(s1)
80103f80:	00000000 	nop
80103f84:	6b005414 	bne	v0,s4,0x80104134
80103f88:	801f023c 	lui	v0,0x1f80
80103f8c:	d8330408 	j	0x8010cf60
80103f90:	00000000 	nop
80103f94:	01000424 	li	a0,1
80103f98:	00006ba4 	sh	t3,0(v1)
80103f9c:	04340408 	j	0x8010d010
80103fa0:	000050a0 	sb	s0,0(v0)
80103fa4:	00006ba4 	sh	t3,0(v1)
80103fa8:	2f340408 	j	0x8010d0bc
80103fac:	000050a0 	sb	s0,0(v0)
80103fb0:	06002286 	lh	v0,6(s1)
80103fb4:	00000000 	nop
80103fb8:	5e005410 	beq	v0,s4,0x80104134
80103fbc:	00000000 	nop
80103fc0:	801f023c 	lui	v0,0x1f80
80103fc4:	60014294 	lhu	v0,352(v0)
80103fc8:	00002396 	lhu	v1,0(s1)
80103fcc:	00000000 	nop
80103fd0:	23104300 	subu	v0,v0,v1
80103fd4:	00140200 	sll	v0,v0,0x10
80103fd8:	03140200 	sra	v0,v0,0x10
80103fdc:	18004200 	mult	v0,v0
80103fe0:	801f023c 	lui	v0,0x1f80
80103fe4:	62014294 	lhu	v0,354(v0)
80103fe8:	02002396 	lhu	v1,2(s1)
80103fec:	00000000 	nop
80103ff0:	23104300 	subu	v0,v0,v1
80103ff4:	12280000 	mflo	a1
80103ff8:	00140200 	sll	v0,v0,0x10
80103ffc:	03140200 	sra	v0,v0,0x10
80104000:	18004200 	mult	v0,v0
80104004:	04002396 	lhu	v1,4(s1)
80104008:	801f023c 	lui	v0,0x1f80
8010400c:	64014294 	lhu	v0,356(v0)
80104010:	00000000 	nop
80104014:	23104300 	subu	v0,v0,v1
80104018:	12200000 	mflo	a0
8010401c:	00140200 	sll	v0,v0,0x10
80104020:	03140200 	sra	v0,v0,0x10
80104024:	18004200 	mult	v0,v0
80104028:	2120a400 	addu	a0,a1,a0
8010402c:	12180000 	mflo	v1
80104030:	2010020c 	jal	0x80084080
80104034:	21208300 	addu	a0,a0,v1
80104038:	21584000 	move	t3,v0
8010403c:	40066229 	slti	v0,t3,1600
80104040:	37004010 	beqz	v0,0x80104120
80104044:	21200000 	move	a0,zero
80104048:	21288000 	move	a1,a0
8010404c:	ffff0624 	li	a2,-1
80104050:	21184002 	move	v1,s2
80104054:	00006284 	lh	v0,0(v1)
80104058:	00000000 	nop
8010405c:	cdff4610 	beq	v0,a2,0x80103f94
80104060:	2110b300 	addu	v0,a1,s3
80104064:	0100a524 	addiu	a1,a1,1
80104068:	0400a228 	slti	v0,a1,4
8010406c:	f9ff4014 	bnez	v0,0x80104054
80104070:	02006324 	addiu	v1,v1,2
80104074:	2b008014 	bnez	a0,0x80104124
80104078:	2a107501 	slt	v0,t3,s5
8010407c:	21380000 	move	a3,zero
80104080:	21504002 	move	t2,s2
80104084:	0100e524 	addiu	a1,a3,1
80104088:	0400a228 	slti	v0,a1,4
8010408c:	15004010 	beqz	v0,0x801040e4
80104090:	40100500 	sll	v0,a1,0x1
80104094:	21484001 	move	t1,t2
80104098:	2140f300 	addu	t0,a3,s3
8010409c:	21305200 	addu	a2,v0,s2
801040a0:	00002485 	lh	a0,0(t1)
801040a4:	0000c284 	lh	v0,0(a2)
801040a8:	0000c394 	lhu	v1,0(a2)
801040ac:	2a108200 	slt	v0,a0,v0
801040b0:	08004010 	beqz	v0,0x801040d4
801040b4:	00000000 	nop
801040b8:	000023a5 	sh	v1,0(t1)
801040bc:	2118b300 	addu	v1,a1,s3
801040c0:	0000c4a4 	sh	a0,0(a2)
801040c4:	00006290 	lbu	v0,0(v1)
801040c8:	00000491 	lbu	a0,0(t0)
801040cc:	000002a1 	sb	v0,0(t0)
801040d0:	000064a0 	sb	a0,0(v1)
801040d4:	0100a524 	addiu	a1,a1,1
801040d8:	0400a228 	slti	v0,a1,4
801040dc:	f0ff4014 	bnez	v0,0x801040a0
801040e0:	0200c624 	addiu	a2,a2,2
801040e4:	0100e724 	addiu	a3,a3,1
801040e8:	0400e228 	slti	v0,a3,4
801040ec:	e5ff4014 	bnez	v0,0x80104084
801040f0:	02004a25 	addiu	t2,t2,2
801040f4:	21280000 	move	a1,zero
801040f8:	21184002 	move	v1,s2
801040fc:	00006284 	lh	v0,0(v1)
80104100:	00000000 	nop
80104104:	2a106201 	slt	v0,t3,v0
80104108:	a6ff4014 	bnez	v0,0x80103fa4
8010410c:	2110b300 	addu	v0,a1,s3
80104110:	0100a524 	addiu	a1,a1,1
80104114:	0400a228 	slti	v0,a1,4
80104118:	f8ff4014 	bnez	v0,0x801040fc
8010411c:	02006324 	addiu	v1,v1,2
80104120:	2a107501 	slt	v0,t3,s5
80104124:	03004010 	beqz	v0,0x80104134
80104128:	00000000 	nop
8010412c:	21a86001 	move	s5,t3
80104130:	21b00002 	move	s6,s0
80104134:	01001026 	addiu	s0,s0,1
80104138:	3a00022a 	slti	v0,s0,58
8010413c:	89ff4014 	bnez	v0,0x80103f64
80104140:	08003126 	addiu	s1,s1,8
80104144:	4c00ac8f 	lw	t4,76(sp)
80104148:	00000000 	nop
8010414c:	0600822d 	sltiu	v0,t4,6
80104150:	1f004010 	beqz	v0,0x801041d0
80104154:	1180023c 	lui	v0,0x8011
80104158:	38904224 	addiu	v0,v0,-28616
8010415c:	80180c00 	sll	v1,t4,0x2
80104160:	21186200 	addu	v1,v1,v0
80104164:	0000628c 	lw	v0,0(v1)
80104168:	00000000 	nop
8010416c:	08004000 	jr	v0
80104170:	00000000 	nop
80104174:	1469020c 	jal	0x8009a450
80104178:	00000000 	nop
8010417c:	30004230 	andi	v0,v0,0x30
80104180:	5b340408 	j	0x8010d16c
80104184:	03810200 	sra	s0,v0,0x4
80104188:	5b340408 	j	0x8010d16c
8010418c:	21800000 	move	s0,zero
80104190:	1469020c 	jal	0x8009a450
80104194:	00000000 	nop
80104198:	10004230 	andi	v0,v0,0x10
8010419c:	5b340408 	j	0x8010d16c
801041a0:	03810200 	sra	s0,v0,0x4
801041a4:	1469020c 	jal	0x8009a450
801041a8:	00000000 	nop
801041ac:	20004230 	andi	v0,v0,0x20
801041b0:	43810200 	sra	s0,v0,0x5
801041b4:	5b340408 	j	0x8010d16c
801041b8:	01001026 	addiu	s0,s0,1
801041bc:	1469020c 	jal	0x8009a450
801041c0:	00000000 	nop
801041c4:	40004230 	andi	v0,v0,0x40
801041c8:	83810200 	sra	s0,v0,0x6
801041cc:	02001026 	addiu	s0,s0,2
801041d0:	21280000 	move	a1,zero
801041d4:	801f023c 	lui	v0,0x1f80
801041d8:	5c024424 	addiu	a0,v0,604
801041dc:	ffff0324 	li	v1,-1
801041e0:	03000232 	andi	v0,s0,0x3
801041e4:	21104400 	addu	v0,v0,a0
801041e8:	00004790 	lbu	a3,0(v0)
801041ec:	00000000 	nop
801041f0:	0800e314 	bne	a3,v1,0x80104214
801041f4:	00000000 	nop
801041f8:	0100a524 	addiu	a1,a1,1
801041fc:	0400a228 	slti	v0,a1,4
80104200:	f7ff4014 	bnez	v0,0x801041e0
80104204:	01001026 	addiu	s0,s0,1
80104208:	ffff0224 	li	v0,-1
8010420c:	0200e210 	beq	a3,v0,0x80104218
80104210:	00000000 	nop
80104214:	21b0e000 	move	s6,a3
80104218:	1800ac8f 	lw	t4,24(sp)
8010421c:	2110c002 	move	v0,s6
80104220:	720096a5 	sh	s6,114(t4)
80104224:	4400bf8f 	lw	ra,68(sp)
80104228:	4000be8f 	lw	s8,64(sp)
8010422c:	3c00b78f 	lw	s7,60(sp)
80104230:	3800b68f 	lw	s6,56(sp)
80104234:	3400b58f 	lw	s5,52(sp)
80104238:	3000b48f 	lw	s4,48(sp)
8010423c:	2c00b38f 	lw	s3,44(sp)
80104240:	2800b28f 	lw	s2,40(sp)
80104244:	2400b18f 	lw	s1,36(sp)
80104248:	2000b08f 	lw	s0,32(sp)
8010424c:	0800e003 	jr	ra
80104250:	4800bd27 	addiu	sp,sp,72
80104254:	e8ffbd27 	addiu	sp,sp,-24
80104258:	1000b0af 	sw	s0,16(sp)
8010425c:	21808000 	move	s0,a0
80104260:	1400bfaf 	sw	ra,20(sp)
80104264:	06000392 	lbu	v1,6(s0)
80104268:	00000000 	nop
8010426c:	0600622c 	sltiu	v0,v1,6
80104270:	99014010 	beqz	v0,0x801048d8
80104274:	1180023c 	lui	v0,0x8011
80104278:	50904224 	addiu	v0,v0,-28592
8010427c:	80180300 	sll	v1,v1,0x2
80104280:	21186200 	addu	v1,v1,v0
80104284:	0000628c 	lw	v0,0(v1)
80104288:	00000000 	nop
8010428c:	08004000 	jr	v0
80104290:	00000000 	nop
80104294:	21200002 	move	a0,s0
80104298:	02000524 	li	a1,2
8010429c:	da05010c 	jal	0x80041768
801042a0:	06000624 	li	a2,6
801042a4:	06000292 	lbu	v0,6(s0)
801042a8:	00000000 	nop
801042ac:	01004224 	addiu	v0,v0,1
801042b0:	060002a2 	sb	v0,6(s0)
801042b4:	5232040c 	jal	0x8010c948
801042b8:	21200002 	move	a0,s0
801042bc:	06004010 	beqz	v0,0x801042d8
801042c0:	02000224 	li	v0,2
801042c4:	000002a2 	sb	v0,0(s0)
801042c8:	21200002 	move	a0,s0
801042cc:	03000524 	li	a1,3
801042d0:	da05010c 	jal	0x80041768
801042d4:	02000624 	li	a2,2
801042d8:	3800028e 	lw	v0,56(s0)
801042dc:	00000000 	nop
801042e0:	02004294 	lhu	v0,2(v0)
801042e4:	00000000 	nop
801042e8:	00804230 	andi	v0,v0,0x8000
801042ec:	7a014010 	beqz	v0,0x801048d8
801042f0:	80000424 	li	a0,128
801042f4:	21280000 	move	a1,zero
801042f8:	64d1010c 	jal	0x80074590
801042fc:	2130a000 	move	a2,a1
80104300:	02000224 	li	v0,2
80104304:	000002a2 	sb	v0,0(s0)
80104308:	10000224 	li	v0,16
8010430c:	400002a6 	sh	v0,64(s0)
80104310:	80000224 	li	v0,128
80104314:	1a0002a2 	sb	v0,26(s0)
80104318:	190002a2 	sb	v0,25(s0)
8010431c:	180002a2 	sb	v0,24(s0)
80104320:	06000292 	lbu	v0,6(s0)
80104324:	0d000392 	lbu	v1,13(s0)
80104328:	4a0000a6 	sh	zero,74(s0)
8010432c:	01004224 	addiu	v0,v0,1
80104330:	02006334 	ori	v1,v1,0x2
80104334:	060002a2 	sb	v0,6(s0)
80104338:	1d360408 	j	0x8010d874
8010433c:	0d0003a2 	sb	v1,13(s0)
80104340:	4a000296 	lhu	v0,74(s0)
80104344:	00000000 	nop
80104348:	00fd4224 	addiu	v0,v0,-768
8010434c:	4a0002a6 	sh	v0,74(s0)
80104350:	00140200 	sll	v0,v0,0x10
80104354:	03140200 	sra	v0,v0,0x10
80104358:	00d04228 	slti	v0,v0,-12288
8010435c:	02004010 	beqz	v0,0x80104368
80104360:	00d00224 	li	v0,-12288
80104364:	4a0002a6 	sh	v0,74(s0)
80104368:	4a000286 	lh	v0,74(s0)
8010436c:	3000038e 	lw	v1,48(s0)
80104370:	40000496 	lhu	a0,64(s0)
80104374:	00120200 	sll	v0,v0,0x8
80104378:	21186200 	addu	v1,v1,v0
8010437c:	ffff8424 	addiu	a0,a0,-1
80104380:	400004a6 	sh	a0,64(s0)
80104384:	00240400 	sll	a0,a0,0x10
80104388:	07008014 	bnez	a0,0x801043a8
8010438c:	300003ae 	sw	v1,48(s0)
80104390:	06000292 	lbu	v0,6(s0)
80104394:	28000324 	li	v1,40
80104398:	010000a2 	sb	zero,1(s0)
8010439c:	400003a6 	sh	v1,64(s0)
801043a0:	01004224 	addiu	v0,v0,1
801043a4:	060002a2 	sb	v0,6(s0)
801043a8:	18000292 	lbu	v0,24(s0)
801043ac:	00000000 	nop
801043b0:	f8ff4224 	addiu	v0,v0,-8
801043b4:	180002a2 	sb	v0,24(s0)
801043b8:	1a0002a2 	sb	v0,26(s0)
801043bc:	1d360408 	j	0x8010d874
801043c0:	190002a2 	sb	v0,25(s0)
801043c4:	0c80023c 	lui	v0,0x800c
801043c8:	010000a2 	sb	zero,1(s0)
801043cc:	09f84290 	lbu	v0,-2039(v0)
801043d0:	00000000 	nop
801043d4:	40014014 	bnez	v0,0x801048d8
801043d8:	00000000 	nop
801043dc:	40000296 	lhu	v0,64(s0)
801043e0:	00000000 	nop
801043e4:	ffff4224 	addiu	v0,v0,-1
801043e8:	400002a6 	sh	v0,64(s0)
801043ec:	00140200 	sll	v0,v0,0x10
801043f0:	39014014 	bnez	v0,0x801048d8
801043f4:	00000000 	nop
801043f8:	64000586 	lh	a1,100(s0)
801043fc:	d132040c 	jal	0x8010cb44
80104400:	21200002 	move	a0,s0
80104404:	0c80033c 	lui	v1,0x800c
80104408:	70f86390 	lbu	v1,-1936(v1)
8010440c:	21204000 	move	a0,v0
80104410:	f6ff6324 	addiu	v1,v1,-10
80104414:	0600622c 	sltiu	v0,v1,6
80104418:	9d004010 	beqz	v0,0x80104690
8010441c:	1180023c 	lui	v0,0x8011
80104420:	68904224 	addiu	v0,v0,-28568
80104424:	80180300 	sll	v1,v1,0x2
80104428:	21186200 	addu	v1,v1,v0
8010442c:	0000628c 	lw	v0,0(v1)
80104430:	00000000 	nop
80104434:	08004000 	jr	v0
80104438:	00000000 	nop
8010443c:	1280023c 	lui	v0,0x8012
80104440:	6ca24224 	addiu	v0,v0,-23956
80104444:	c0180400 	sll	v1,a0,0x3
80104448:	21186200 	addu	v1,v1,v0
8010444c:	00006294 	lhu	v0,0(v1)
80104450:	00000000 	nop
80104454:	2e0002a6 	sh	v0,46(s0)
80104458:	02006294 	lhu	v0,2(v1)
8010445c:	00000000 	nop
80104460:	320002a6 	sh	v0,50(s0)
80104464:	04006294 	lhu	v0,4(v1)
80104468:	00000000 	nop
8010446c:	360002a6 	sh	v0,54(s0)
80104470:	06006290 	lbu	v0,6(v1)
80104474:	00000000 	nop
80104478:	2a0002a2 	sb	v0,42(s0)
8010447c:	0e80023c 	lui	v0,0x800e
80104480:	c57f4290 	lbu	v0,32709(v0)
80104484:	00000000 	nop
80104488:	09004014 	bnez	v0,0x801044b0
8010448c:	801f043c 	lui	a0,0x1f80
80104490:	32000386 	lh	v1,50(s0)
80104494:	62018284 	lh	v0,354(a0)
80104498:	00000000 	nop
8010449c:	2a104300 	slt	v0,v0,v1
801044a0:	62018394 	lhu	v1,354(a0)
801044a4:	02004010 	beqz	v0,0x801044b0
801044a8:	00000000 	nop
801044ac:	320003a6 	sh	v1,50(s0)
801044b0:	2522010c 	jal	0x80048894
801044b4:	21200002 	move	a0,s0
801044b8:	801f043c 	lui	a0,0x1f80
801044bc:	32000386 	lh	v1,50(s0)
801044c0:	a4018284 	lh	v0,420(a0)
801044c4:	00000000 	nop
801044c8:	2a104300 	slt	v0,v0,v1
801044cc:	a4018394 	lhu	v1,420(a0)
801044d0:	02004010 	beqz	v0,0x801044dc
801044d4:	00000000 	nop
801044d8:	320003a6 	sh	v1,50(s0)
801044dc:	32000296 	lhu	v0,50(s0)
801044e0:	86000396 	lhu	v1,134(s0)
801044e4:	84000496 	lhu	a0,132(s0)
801044e8:	98fe4224 	addiu	v0,v0,-360
801044ec:	23186400 	subu	v1,v1,a0
801044f0:	64000486 	lh	a0,100(s0)
801044f4:	23104300 	subu	v0,v0,v1
801044f8:	320002a6 	sh	v0,50(s0)
801044fc:	0600822c 	sltiu	v0,a0,6
80104500:	63004010 	beqz	v0,0x80104690
80104504:	1180023c 	lui	v0,0x8011
80104508:	80904224 	addiu	v0,v0,-28544
8010450c:	80180400 	sll	v1,a0,0x2
80104510:	21186200 	addu	v1,v1,v0
80104514:	0000628c 	lw	v0,0(v1)
80104518:	00000000 	nop
8010451c:	08004000 	jr	v0
80104520:	00000000 	nop
80104524:	1280023c 	lui	v0,0x8012
80104528:	6ca24224 	addiu	v0,v0,-23956
8010452c:	c0180400 	sll	v1,a0,0x3
80104530:	21186200 	addu	v1,v1,v0
80104534:	00006294 	lhu	v0,0(v1)
80104538:	00000000 	nop
8010453c:	2e0002a6 	sh	v0,46(s0)
80104540:	02006294 	lhu	v0,2(v1)
80104544:	00000000 	nop
80104548:	320002a6 	sh	v0,50(s0)
8010454c:	04006294 	lhu	v0,4(v1)
80104550:	00000000 	nop
80104554:	360002a6 	sh	v0,54(s0)
80104558:	06006290 	lbu	v0,6(v1)
8010455c:	21200002 	move	a0,s0
80104560:	2522010c 	jal	0x80048894
80104564:	2a0002a2 	sb	v0,42(s0)
80104568:	801f043c 	lui	a0,0x1f80
8010456c:	32000386 	lh	v1,50(s0)
80104570:	a4018284 	lh	v0,420(a0)
80104574:	00000000 	nop
80104578:	2a104300 	slt	v0,v0,v1
8010457c:	a4018394 	lhu	v1,420(a0)
80104580:	02004010 	beqz	v0,0x8010458c
80104584:	00000000 	nop
80104588:	320003a6 	sh	v1,50(s0)
8010458c:	32000296 	lhu	v0,50(s0)
80104590:	86000396 	lhu	v1,134(s0)
80104594:	84000496 	lhu	a0,132(s0)
80104598:	98fe4224 	addiu	v0,v0,-360
8010459c:	23186400 	subu	v1,v1,a0
801045a0:	64000486 	lh	a0,100(s0)
801045a4:	23104300 	subu	v0,v0,v1
801045a8:	320002a6 	sh	v0,50(s0)
801045ac:	0600822c 	sltiu	v0,a0,6
801045b0:	37004010 	beqz	v0,0x80104690
801045b4:	1180023c 	lui	v0,0x8011
801045b8:	98904224 	addiu	v0,v0,-28520
801045bc:	80180400 	sll	v1,a0,0x2
801045c0:	21186200 	addu	v1,v1,v0
801045c4:	0000628c 	lw	v0,0(v1)
801045c8:	00000000 	nop
801045cc:	08004000 	jr	v0
801045d0:	00000000 	nop
801045d4:	1469020c 	jal	0x8009a450
801045d8:	00000000 	nop
801045dc:	30004230 	andi	v0,v0,0x30
801045e0:	c0180200 	sll	v1,v0,0x3
801045e4:	32000496 	lhu	a0,50(s0)
801045e8:	21186200 	addu	v1,v1,v0
801045ec:	23208300 	subu	a0,a0,v1
801045f0:	8b350408 	j	0x8010d62c
801045f4:	320004a6 	sh	a0,50(s0)
801045f8:	1469020c 	jal	0x8009a450
801045fc:	00000000 	nop
80104600:	30004230 	andi	v0,v0,0x30
80104604:	32000396 	lhu	v1,50(s0)
80104608:	c0100200 	sll	v0,v0,0x3
8010460c:	23186200 	subu	v1,v1,v0
80104610:	8b350408 	j	0x8010d62c
80104614:	320003a6 	sh	v1,50(s0)
80104618:	32000296 	lhu	v0,50(s0)
8010461c:	00000000 	nop
80104620:	9cff4224 	addiu	v0,v0,-100
80104624:	8b350408 	j	0x8010d62c
80104628:	320002a6 	sh	v0,50(s0)
8010462c:	32000296 	lhu	v0,50(s0)
80104630:	00000000 	nop
80104634:	38ff4224 	addiu	v0,v0,-200
80104638:	8b350408 	j	0x8010d62c
8010463c:	320002a6 	sh	v0,50(s0)
80104640:	1280023c 	lui	v0,0x8012
80104644:	6ca24224 	addiu	v0,v0,-23956
80104648:	c0200400 	sll	a0,a0,0x3
8010464c:	21208200 	addu	a0,a0,v0
80104650:	00008294 	lhu	v0,0(a0)
80104654:	86000396 	lhu	v1,134(s0)
80104658:	84000596 	lhu	a1,132(s0)
8010465c:	2e0002a6 	sh	v0,46(s0)
80104660:	02008294 	lhu	v0,2(a0)
80104664:	00000000 	nop
80104668:	320002a6 	sh	v0,50(s0)
8010466c:	04008294 	lhu	v0,4(a0)
80104670:	23186500 	subu	v1,v1,a1
80104674:	360002a6 	sh	v0,54(s0)
80104678:	32000296 	lhu	v0,50(s0)
8010467c:	06008490 	lbu	a0,6(a0)
80104680:	98fe4224 	addiu	v0,v0,-360
80104684:	23104300 	subu	v0,v0,v1
80104688:	320002a6 	sh	v0,50(s0)
8010468c:	2a0004a2 	sb	a0,42(s0)
80104690:	21200002 	move	a0,s0
80104694:	04000524 	li	a1,4
80104698:	2130a000 	move	a2,a1
8010469c:	10000224 	li	v0,16
801046a0:	da05010c 	jal	0x80041768
801046a4:	400002a6 	sh	v0,64(s0)
801046a8:	06000292 	lbu	v0,6(s0)
801046ac:	2c000426 	addiu	a0,s0,44
801046b0:	01004224 	addiu	v0,v0,1
801046b4:	060002a2 	sb	v0,6(s0)
801046b8:	801f023c 	lui	v0,0x1f80
801046bc:	60014584 	lh	a1,352(v0)
801046c0:	801f023c 	lui	v0,0x1f80
801046c4:	64014684 	lh	a2,356(v0)
801046c8:	00300224 	li	v0,12288
801046cc:	ace0010c 	jal	0x800782b0
801046d0:	4a0002a6 	sh	v0,74(s0)
801046d4:	00140200 	sll	v0,v0,0x10
801046d8:	03240200 	sra	a0,v0,0x10
801046dc:	56000586 	lh	a1,86(s0)
801046e0:	bedd010c 	jal	0x800776f8
801046e4:	80000624 	li	a2,128
801046e8:	21200002 	move	a0,s0
801046ec:	b006010c 	jal	0x80041ac0
801046f0:	560002a6 	sh	v0,86(s0)
801046f4:	81000424 	li	a0,129
801046f8:	21280000 	move	a1,zero
801046fc:	64d1010c 	jal	0x80074590
80104700:	2130a000 	move	a2,a1
80104704:	0c80023c 	lui	v0,0x800c
80104708:	70f84390 	lbu	v1,-1936(v0)
8010470c:	0d000224 	li	v0,13
80104710:	71006214 	bne	v1,v0,0x801048d8
80104714:	00000000 	nop
80104718:	6e000286 	lh	v0,110(s0)
8010471c:	00000000 	nop
80104720:	02004228 	slti	v0,v0,2
80104724:	6c004014 	bnez	v0,0x801048d8
80104728:	00000000 	nop
8010472c:	e000048e 	lw	a0,224(s0)
80104730:	00000000 	nop
80104734:	4000828c 	lw	v0,64(a0)
80104738:	00000000 	nop
8010473c:	66004014 	bnez	v0,0x801048d8
80104740:	801f023c 	lui	v0,0x1f80
80104744:	5b024290 	lbu	v0,603(v0)
80104748:	00000000 	nop
8010474c:	62004014 	bnez	v0,0x801048d8
80104750:	0c80023c 	lui	v0,0x800c
80104754:	08f84224 	addiu	v0,v0,-2040
80104758:	5800438c 	lw	v1,88(v0)
8010475c:	00000000 	nop
80104760:	400083ac 	sw	v1,64(a0)
80104764:	e800038e 	lw	v1,232(s0)
80104768:	6000428c 	lw	v0,96(v0)
8010476c:	1d360408 	j	0x8010d874
80104770:	400062ac 	sw	v0,64(v1)
80104774:	4a000296 	lhu	v0,74(s0)
80104778:	00000000 	nop
8010477c:	00fd4224 	addiu	v0,v0,-768
80104780:	4a0002a6 	sh	v0,74(s0)
80104784:	00140200 	sll	v0,v0,0x10
80104788:	02004104 	bgez	v0,0x80104794
8010478c:	00000000 	nop
80104790:	4a0000a6 	sh	zero,74(s0)
80104794:	4a000286 	lh	v0,74(s0)
80104798:	3000038e 	lw	v1,48(s0)
8010479c:	40000496 	lhu	a0,64(s0)
801047a0:	00120200 	sll	v0,v0,0x8
801047a4:	21186200 	addu	v1,v1,v0
801047a8:	ffff8424 	addiu	a0,a0,-1
801047ac:	400004a6 	sh	a0,64(s0)
801047b0:	00240400 	sll	a0,a0,0x10
801047b4:	07008014 	bnez	a0,0x801047d4
801047b8:	300003ae 	sw	v1,48(s0)
801047bc:	06000292 	lbu	v0,6(s0)
801047c0:	0d000392 	lbu	v1,13(s0)
801047c4:	01004224 	addiu	v0,v0,1
801047c8:	fd006330 	andi	v1,v1,0xfd
801047cc:	060002a2 	sb	v0,6(s0)
801047d0:	0d0003a2 	sb	v1,13(s0)
801047d4:	18000292 	lbu	v0,24(s0)
801047d8:	00000000 	nop
801047dc:	08004224 	addiu	v0,v0,8
801047e0:	180002a2 	sb	v0,24(s0)
801047e4:	1a0002a2 	sb	v0,26(s0)
801047e8:	190002a2 	sb	v0,25(s0)
801047ec:	12360408 	j	0x8010d848
801047f0:	801f023c 	lui	v0,0x1f80
801047f4:	21200002 	move	a0,s0
801047f8:	21280000 	move	a1,zero
801047fc:	06000624 	li	a2,6
80104800:	01000224 	li	v0,1
80104804:	da05010c 	jal	0x80041768
80104808:	000002a2 	sb	v0,0(s0)
8010480c:	64000386 	lh	v1,100(s0)
80104810:	00000000 	nop
80104814:	0600622c 	sltiu	v0,v1,6
80104818:	21004010 	beqz	v0,0x801048a0
8010481c:	1180023c 	lui	v0,0x8011
80104820:	b0904224 	addiu	v0,v0,-28496
80104824:	80180300 	sll	v1,v1,0x2
80104828:	21186200 	addu	v1,v1,v0
8010482c:	0000628c 	lw	v0,0(v1)
80104830:	00000000 	nop
80104834:	08004000 	jr	v0
80104838:	00000000 	nop
8010483c:	0f360408 	j	0x8010d83c
80104840:	050000a2 	sb	zero,5(s0)
80104844:	0c80023c 	lui	v0,0x800c
80104848:	70f84390 	lbu	v1,-1936(v0)
8010484c:	0f000224 	li	v0,15
80104850:	08006214 	bne	v1,v0,0x80104874
80104854:	00000000 	nop
80104858:	6e000286 	lh	v0,110(s0)
8010485c:	00000000 	nop
80104860:	03004228 	slti	v0,v0,3
80104864:	0d004014 	bnez	v0,0x8010489c
80104868:	06000224 	li	v0,6
8010486c:	0e360408 	j	0x8010d838
80104870:	05000224 	li	v0,5
80104874:	6e000286 	lh	v0,110(s0)
80104878:	00000000 	nop
8010487c:	02004228 	slti	v0,v0,2
80104880:	06004014 	bnez	v0,0x8010489c
80104884:	06000224 	li	v0,6
80104888:	0e360408 	j	0x8010d838
8010488c:	05000224 	li	v0,5
80104890:	0e360408 	j	0x8010d838
80104894:	02000224 	li	v0,2
80104898:	03000224 	li	v0,3
8010489c:	050002a2 	sb	v0,5(s0)
801048a0:	801f023c 	lui	v0,0x1f80
801048a4:	060000a2 	sb	zero,6(s0)
801048a8:	070000a2 	sb	zero,7(s0)
801048ac:	60014584 	lh	a1,352(v0)
801048b0:	801f023c 	lui	v0,0x1f80
801048b4:	64014684 	lh	a2,356(v0)
801048b8:	ace0010c 	jal	0x800782b0
801048bc:	2c000426 	addiu	a0,s0,44
801048c0:	00140200 	sll	v0,v0,0x10
801048c4:	03240200 	sra	a0,v0,0x10
801048c8:	56000586 	lh	a1,86(s0)
801048cc:	bedd010c 	jal	0x800776f8
801048d0:	80000624 	li	a2,128
801048d4:	560002a6 	sh	v0,86(s0)
801048d8:	1400bf8f 	lw	ra,20(sp)
801048dc:	1000b08f 	lw	s0,16(sp)
801048e0:	0800e003 	jr	ra
801048e4:	1800bd27 	addiu	sp,sp,24
801048e8:	0c80023c 	lui	v0,0x800c
801048ec:	09f84290 	lbu	v0,-2039(v0)
801048f0:	d8ffbd27 	addiu	sp,sp,-40
801048f4:	2000b4af 	sw	s4,32(sp)
801048f8:	21a08000 	move	s4,a0
801048fc:	2400bfaf 	sw	ra,36(sp)
80104900:	1c00b3af 	sw	s3,28(sp)
80104904:	1800b2af 	sw	s2,24(sp)
80104908:	1400b1af 	sw	s1,20(sp)
8010490c:	07024014 	bnez	v0,0x8010512c
80104910:	1000b0af 	sw	s0,16(sp)
80104914:	06008392 	lbu	v1,6(s4)
80104918:	00000000 	nop
8010491c:	0500622c 	sltiu	v0,v1,5
80104920:	02024010 	beqz	v0,0x8010512c
80104924:	1180023c 	lui	v0,0x8011
80104928:	c8904224 	addiu	v0,v0,-28472
8010492c:	80180300 	sll	v1,v1,0x2
80104930:	21186200 	addu	v1,v1,v0
80104934:	0000628c 	lw	v0,0(v1)
80104938:	00000000 	nop
8010493c:	08004000 	jr	v0
80104940:	00000000 	nop
80104944:	5232040c 	jal	0x8010c948
80104948:	21208002 	move	a0,s4
8010494c:	d6014014 	bnez	v0,0x801050a8
80104950:	21208002 	move	a0,s4
80104954:	801f023c 	lui	v0,0x1f80
80104958:	60014584 	lh	a1,352(v0)
8010495c:	801f023c 	lui	v0,0x1f80
80104960:	64014684 	lh	a2,356(v0)
80104964:	ace0010c 	jal	0x800782b0
80104968:	2c008426 	addiu	a0,s4,44
8010496c:	00140200 	sll	v0,v0,0x10
80104970:	03240200 	sra	a0,v0,0x10
80104974:	60008586 	lh	a1,96(s4)
80104978:	dadd010c 	jal	0x80077768
8010497c:	21300000 	move	a2,zero
80104980:	03004010 	beqz	v0,0x80104990
80104984:	01000224 	li	v0,1
80104988:	4c360408 	j	0x8010d930
8010498c:	be0082a2 	sb	v0,190(s4)
80104990:	be0080a2 	sb	zero,190(s4)
80104994:	5f008292 	lbu	v0,95(s4)
80104998:	00000000 	nop
8010499c:	0c004010 	beqz	v0,0x801049d0
801049a0:	01004230 	andi	v0,v0,0x1
801049a4:	be008392 	lbu	v1,190(s4)
801049a8:	00000000 	nop
801049ac:	09004314 	bne	v0,v1,0x801049d4
801049b0:	21208002 	move	a0,s4
801049b4:	03000524 	li	a1,3
801049b8:	da05010c 	jal	0x80041768
801049bc:	04000624 	li	a2,4
801049c0:	21208002 	move	a0,s4
801049c4:	02000224 	li	v0,2
801049c8:	17380408 	j	0x8010e05c
801049cc:	000082a2 	sb	v0,0(s4)
801049d0:	21208002 	move	a0,s4
801049d4:	07000524 	li	a1,7
801049d8:	da05010c 	jal	0x80041768
801049dc:	02000624 	li	a2,2
801049e0:	00300224 	li	v0,12288
801049e4:	801f033c 	lui	v1,0x1f80
801049e8:	56008486 	lh	a0,86(s4)
801049ec:	801f053c 	lui	a1,0x1f80
801049f0:	440082a6 	sh	v0,68(s4)
801049f4:	06008292 	lbu	v0,6(s4)
801049f8:	23200400 	negu	a0,a0
801049fc:	01004224 	addiu	v0,v0,1
80104a00:	060082a2 	sb	v0,6(s4)
80104a04:	801f023c 	lui	v0,0x1f80
80104a08:	60015384 	lh	s3,352(v0)
80104a0c:	2e008286 	lh	v0,46(s4)
80104a10:	62017284 	lh	s2,354(v1)
80104a14:	32008386 	lh	v1,50(s4)
80104a18:	6401b184 	lh	s1,356(a1)
80104a1c:	23986202 	subu	s3,s3,v0
80104a20:	36008286 	lh	v0,54(s4)
80104a24:	23904302 	subu	s2,s2,v1
80104a28:	d40f020c 	jal	0x80083f50
80104a2c:	23882202 	subu	s1,s1,v0
80104a30:	56008486 	lh	a0,86(s4)
80104a34:	21804000 	move	s0,v0
80104a38:	a00f020c 	jal	0x80083e80
80104a3c:	23200400 	negu	a0,a0
80104a40:	18001302 	mult	s0,s3
80104a44:	12180000 	mflo	v1
	...
80104a50:	18005100 	mult	v0,s1
80104a54:	21204002 	move	a0,s2
80104a58:	12480000 	mflo	t1
80104a5c:	21286900 	addu	a1,v1,t1
80104a60:	a415020c 	jal	0x80085690
80104a64:	032b0500 	sra	a1,a1,0xc
80104a68:	00140200 	sll	v0,v0,0x10
80104a6c:	03140200 	sra	v0,v0,0x10
80104a70:	21204000 	move	a0,v0
80104a74:	02008104 	bgez	a0,0x80104a80
80104a78:	21108000 	move	v0,a0
80104a7c:	23100200 	negu	v0,v0
80104a80:	21184000 	move	v1,v0
80104a84:	00140200 	sll	v0,v0,0x10
80104a88:	03140200 	sra	v0,v0,0x10
80104a8c:	81004228 	slti	v0,v0,129
80104a90:	02004014 	bnez	v0,0x80104a9c
80104a94:	6c0084a6 	sh	a0,108(s4)
80104a98:	80000324 	li	v1,128
80104a9c:	03008104 	bgez	a0,0x80104aac
80104aa0:	23100300 	negu	v0,v1
80104aa4:	32380408 	j	0x8010e0c8
80104aa8:	6c0082a6 	sh	v0,108(s4)
80104aac:	32380408 	j	0x8010e0c8
80104ab0:	6c0083a6 	sh	v1,108(s4)
80104ab4:	5232040c 	jal	0x8010c948
80104ab8:	21208002 	move	a0,s4
80104abc:	7a014014 	bnez	v0,0x801050a8
80104ac0:	21208002 	move	a0,s4
80104ac4:	be008292 	lbu	v0,190(s4)
80104ac8:	00000000 	nop
80104acc:	04004014 	bnez	v0,0x80104ae0
80104ad0:	00000000 	nop
80104ad4:	60008296 	lhu	v0,96(s4)
80104ad8:	a3360408 	j	0x8010da8c
80104adc:	ff0f4430 	andi	a0,v0,0xfff
80104ae0:	60008296 	lhu	v0,96(s4)
80104ae4:	00000000 	nop
80104ae8:	00084224 	addiu	v0,v0,2048
80104aec:	ff0f4430 	andi	a0,v0,0xfff
80104af0:	56008586 	lh	a1,86(s4)
80104af4:	bedd010c 	jal	0x800776f8
80104af8:	80000624 	li	a2,128
80104afc:	3800838e 	lw	v1,56(s4)
80104b00:	560082a6 	sh	v0,86(s4)
80104b04:	02006294 	lhu	v0,2(v1)
80104b08:	00000000 	nop
80104b0c:	00804230 	andi	v0,v0,0x8000
80104b10:	86014010 	beqz	v0,0x8010512c
80104b14:	21208002 	move	a0,s4
80104b18:	08000524 	li	a1,8
80104b1c:	da05010c 	jal	0x80041768
80104b20:	05000624 	li	a2,5
80104b24:	21280000 	move	a1,zero
80104b28:	06008292 	lbu	v0,6(s4)
80104b2c:	28000324 	li	v1,40
80104b30:	400083a6 	sh	v1,64(s4)
80104b34:	1280033c 	lui	v1,0x8012
80104b38:	01004224 	addiu	v0,v0,1
80104b3c:	060082a2 	sb	v0,6(s4)
80104b40:	0c80023c 	lui	v0,0x800c
80104b44:	70f84290 	lbu	v0,-1936(v0)
80104b48:	5ca56324 	addiu	v1,v1,-23204
80104b4c:	f6ff4224 	addiu	v0,v0,-10
80104b50:	80100200 	sll	v0,v0,0x2
80104b54:	21104300 	addu	v0,v0,v1
80104b58:	801f033c 	lui	v1,0x1f80
80104b5c:	0000448c 	lw	a0,0(v0)
80104b60:	01000224 	li	v0,1
80104b64:	3dc4000c 	jal	0x800310f4
80104b68:	500262a0 	sb	v0,592(v1)
80104b6c:	82000424 	li	a0,130
80104b70:	21280000 	move	a1,zero
80104b74:	64d1010c 	jal	0x80074590
80104b78:	2130a000 	move	a2,a1
80104b7c:	32380408 	j	0x8010e0c8
80104b80:	00000000 	nop
80104b84:	6c008486 	lh	a0,108(s4)
80104b88:	d40f020c 	jal	0x80083f50
80104b8c:	00000000 	nop
80104b90:	44008386 	lh	v1,68(s4)
80104b94:	00000000 	nop
80104b98:	18004300 	mult	v0,v1
80104b9c:	6c008486 	lh	a0,108(s4)
80104ba0:	12400000 	mflo	t0
80104ba4:	a00f020c 	jal	0x80083e80
80104ba8:	03830800 	sra	s0,t0,0xc
80104bac:	44008386 	lh	v1,68(s4)
80104bb0:	00000000 	nop
80104bb4:	18004300 	mult	v0,v1
80104bb8:	be008292 	lbu	v0,190(s4)
80104bbc:	12400000 	mflo	t0
80104bc0:	02004010 	beqz	v0,0x80104bcc
80104bc4:	03230800 	sra	a0,t0,0xc
80104bc8:	23801000 	negu	s0,s0
80104bcc:	48008286 	lh	v0,72(s4)
80104bd0:	00000000 	nop
80104bd4:	18005000 	mult	v0,s0
80104bd8:	12480000 	mflo	t1
80104bdc:	4c008286 	lh	v0,76(s4)
80104be0:	00000000 	nop
80104be4:	18005000 	mult	v0,s0
80104be8:	00220400 	sll	a0,a0,0x8
80104bec:	2c00838e 	lw	v1,44(s4)
80104bf0:	3000828e 	lw	v0,48(s4)
80104bf4:	21186900 	addu	v1,v1,t1
80104bf8:	2c0083ae 	sw	v1,44(s4)
80104bfc:	5f008392 	lbu	v1,95(s4)
80104c00:	21104400 	addu	v0,v0,a0
80104c04:	300082ae 	sw	v0,48(s4)
80104c08:	3400828e 	lw	v0,52(s4)
80104c0c:	12280000 	mflo	a1
80104c10:	21104500 	addu	v0,v0,a1
80104c14:	2d006014 	bnez	v1,0x80104ccc
80104c18:	340082ae 	sw	v0,52(s4)
80104c1c:	84008496 	lhu	a0,132(s4)
80104c20:	86008286 	lh	v0,134(s4)
80104c24:	00240400 	sll	a0,a0,0x10
80104c28:	032c0400 	sra	a1,a0,0x10
80104c2c:	23104500 	subu	v0,v0,a1
80104c30:	c21f0200 	srl	v1,v0,0x1f
80104c34:	21104300 	addu	v0,v0,v1
80104c38:	42300200 	srl	a2,v0,0x1
80104c3c:	c2270400 	srl	a0,a0,0x1f
80104c40:	2128a400 	addu	a1,a1,a0
80104c44:	42900500 	srl	s2,a1,0x1
80104c48:	be008292 	lbu	v0,190(s4)
80104c4c:	80008596 	lhu	a1,128(s4)
80104c50:	04004014 	bnez	v0,0x80104c64
80104c54:	21208002 	move	a0,s4
80104c58:	60008396 	lhu	v1,96(s4)
80104c5c:	04370408 	j	0x8010dc10
80104c60:	00140500 	sll	v0,a1,0x10
80104c64:	60008296 	lhu	v0,96(s4)
80104c68:	00000000 	nop
80104c6c:	00084324 	addiu	v1,v0,2048
80104c70:	00140500 	sll	v0,a1,0x10
80104c74:	038c0200 	sra	s1,v0,0x10
80104c78:	21282002 	move	a1,s1
80104c7c:	00340600 	sll	a2,a2,0x10
80104c80:	03340600 	sra	a2,a2,0x10
80104c84:	00140300 	sll	v0,v1,0x10
80104c88:	03840200 	sra	s0,v0,0x10
80104c8c:	2b17010c 	jal	0x80045cac
80104c90:	21380002 	move	a3,s0
80104c94:	09004014 	bnez	v0,0x80104cbc
80104c98:	21208002 	move	a0,s4
80104c9c:	21282002 	move	a1,s1
80104ca0:	23301200 	negu	a2,s2
80104ca4:	00340600 	sll	a2,a2,0x10
80104ca8:	03340600 	sra	a2,a2,0x10
80104cac:	2b17010c 	jal	0x80045cac
80104cb0:	21380002 	move	a3,s0
80104cb4:	05004010 	beqz	v0,0x80104ccc
80104cb8:	00000000 	nop
80104cbc:	be008292 	lbu	v0,190(s4)
80104cc0:	00000000 	nop
80104cc4:	02004224 	addiu	v0,v0,2
80104cc8:	5f0082a2 	sb	v0,95(s4)
80104ccc:	b006010c 	jal	0x80041ac0
80104cd0:	21208002 	move	a0,s4
80104cd4:	02004104 	bgez	v0,0x80104ce0
80104cd8:	01000224 	li	v0,1
80104cdc:	400082a6 	sh	v0,64(s4)
80104ce0:	29008292 	lbu	v0,41(s4)
80104ce4:	00000000 	nop
80104ce8:	1f004014 	bnez	v0,0x80104d68
80104cec:	00000000 	nop
80104cf0:	be008292 	lbu	v0,190(s4)
80104cf4:	00000000 	nop
80104cf8:	04004014 	bnez	v0,0x80104d0c
80104cfc:	21208002 	move	a0,s4
80104d00:	60008296 	lhu	v0,96(s4)
80104d04:	2e370408 	j	0x8010dcb8
80104d08:	21280000 	move	a1,zero
80104d0c:	60008296 	lhu	v0,96(s4)
80104d10:	00000000 	nop
80104d14:	00084224 	addiu	v0,v0,2048
80104d18:	21280000 	move	a1,zero
80104d1c:	003c0200 	sll	a3,v0,0x10
80104d20:	86008696 	lhu	a2,134(s4)
80104d24:	84008296 	lhu	v0,132(s4)
80104d28:	033c0700 	sra	a3,a3,0x10
80104d2c:	2330c200 	subu	a2,a2,v0
80104d30:	5000c624 	addiu	a2,a2,80
80104d34:	00340600 	sll	a2,a2,0x10
80104d38:	7015010c 	jal	0x800455c0
80104d3c:	03340600 	sra	a2,a2,0x10
80104d40:	21184000 	move	v1,v0
80104d44:	ff006230 	andi	v0,v1,0xff
80104d48:	07004010 	beqz	v0,0x80104d68
80104d4c:	290083a2 	sb	v1,41(s4)
80104d50:	01006330 	andi	v1,v1,0x1
80104d54:	21106000 	move	v0,v1
80104d58:	03004010 	beqz	v0,0x80104d68
80104d5c:	290083a2 	sb	v1,41(s4)
80104d60:	80006234 	ori	v0,v1,0x80
80104d64:	290082a2 	sb	v0,41(s4)
80104d68:	40008296 	lhu	v0,64(s4)
80104d6c:	00000000 	nop
80104d70:	ffff4224 	addiu	v0,v0,-1
80104d74:	400082a6 	sh	v0,64(s4)
80104d78:	00140200 	sll	v0,v0,0x10
80104d7c:	09004010 	beqz	v0,0x80104da4
80104d80:	00000000 	nop
80104d84:	5f008292 	lbu	v0,95(s4)
80104d88:	00000000 	nop
80104d8c:	09004010 	beqz	v0,0x80104db4
80104d90:	01004230 	andi	v0,v0,0x1
80104d94:	be008392 	lbu	v1,190(s4)
80104d98:	00000000 	nop
80104d9c:	05004314 	bne	v0,v1,0x80104db4
80104da0:	00000000 	nop
80104da4:	06008292 	lbu	v0,6(s4)
80104da8:	00000000 	nop
80104dac:	01004224 	addiu	v0,v0,1
80104db0:	060082a2 	sb	v0,6(s4)
80104db4:	3800828e 	lw	v0,56(s4)
80104db8:	00000000 	nop
80104dbc:	02004294 	lhu	v0,2(v0)
80104dc0:	00000000 	nop
80104dc4:	9a004014 	bnez	v0,0x80105030
80104dc8:	00000000 	nop
80104dcc:	be008292 	lbu	v0,190(s4)
80104dd0:	00000000 	nop
80104dd4:	a4004010 	beqz	v0,0x80105068
80104dd8:	00000000 	nop
80104ddc:	04380408 	j	0x8010e010
80104de0:	00000000 	nop
80104de4:	6c008486 	lh	a0,108(s4)
80104de8:	d40f020c 	jal	0x80083f50
80104dec:	00000000 	nop
80104df0:	44008386 	lh	v1,68(s4)
80104df4:	00000000 	nop
80104df8:	18004300 	mult	v0,v1
80104dfc:	6c008486 	lh	a0,108(s4)
80104e00:	12400000 	mflo	t0
80104e04:	a00f020c 	jal	0x80083e80
80104e08:	03830800 	sra	s0,t0,0xc
80104e0c:	44008386 	lh	v1,68(s4)
80104e10:	00000000 	nop
80104e14:	18004300 	mult	v0,v1
80104e18:	be008292 	lbu	v0,190(s4)
80104e1c:	12400000 	mflo	t0
80104e20:	02004010 	beqz	v0,0x80104e2c
80104e24:	03230800 	sra	a0,t0,0xc
80104e28:	23801000 	negu	s0,s0
80104e2c:	48008286 	lh	v0,72(s4)
80104e30:	00000000 	nop
80104e34:	18005000 	mult	v0,s0
80104e38:	12480000 	mflo	t1
80104e3c:	4c008286 	lh	v0,76(s4)
80104e40:	00000000 	nop
80104e44:	18005000 	mult	v0,s0
80104e48:	00220400 	sll	a0,a0,0x8
80104e4c:	2c00838e 	lw	v1,44(s4)
80104e50:	3000828e 	lw	v0,48(s4)
80104e54:	21186900 	addu	v1,v1,t1
80104e58:	2c0083ae 	sw	v1,44(s4)
80104e5c:	5f008392 	lbu	v1,95(s4)
80104e60:	21104400 	addu	v0,v0,a0
80104e64:	300082ae 	sw	v0,48(s4)
80104e68:	3400828e 	lw	v0,52(s4)
80104e6c:	12280000 	mflo	a1
80104e70:	21104500 	addu	v0,v0,a1
80104e74:	2d006014 	bnez	v1,0x80104f2c
80104e78:	340082ae 	sw	v0,52(s4)
80104e7c:	84008496 	lhu	a0,132(s4)
80104e80:	86008286 	lh	v0,134(s4)
80104e84:	00240400 	sll	a0,a0,0x10
80104e88:	032c0400 	sra	a1,a0,0x10
80104e8c:	23104500 	subu	v0,v0,a1
80104e90:	c21f0200 	srl	v1,v0,0x1f
80104e94:	21104300 	addu	v0,v0,v1
80104e98:	42300200 	srl	a2,v0,0x1
80104e9c:	c2270400 	srl	a0,a0,0x1f
80104ea0:	2128a400 	addu	a1,a1,a0
80104ea4:	42900500 	srl	s2,a1,0x1
80104ea8:	be008292 	lbu	v0,190(s4)
80104eac:	80008596 	lhu	a1,128(s4)
80104eb0:	04004014 	bnez	v0,0x80104ec4
80104eb4:	21208002 	move	a0,s4
80104eb8:	60008396 	lhu	v1,96(s4)
80104ebc:	9c370408 	j	0x8010de70
80104ec0:	00140500 	sll	v0,a1,0x10
80104ec4:	60008296 	lhu	v0,96(s4)
80104ec8:	00000000 	nop
80104ecc:	00084324 	addiu	v1,v0,2048
80104ed0:	00140500 	sll	v0,a1,0x10
80104ed4:	038c0200 	sra	s1,v0,0x10
80104ed8:	21282002 	move	a1,s1
80104edc:	00340600 	sll	a2,a2,0x10
80104ee0:	03340600 	sra	a2,a2,0x10
80104ee4:	00140300 	sll	v0,v1,0x10
80104ee8:	03840200 	sra	s0,v0,0x10
80104eec:	2b17010c 	jal	0x80045cac
80104ef0:	21380002 	move	a3,s0
80104ef4:	09004014 	bnez	v0,0x80104f1c
80104ef8:	21208002 	move	a0,s4
80104efc:	21282002 	move	a1,s1
80104f00:	23301200 	negu	a2,s2
80104f04:	00340600 	sll	a2,a2,0x10
80104f08:	03340600 	sra	a2,a2,0x10
80104f0c:	2b17010c 	jal	0x80045cac
80104f10:	21380002 	move	a3,s0
80104f14:	05004010 	beqz	v0,0x80104f2c
80104f18:	00000000 	nop
80104f1c:	be008292 	lbu	v0,190(s4)
80104f20:	00000000 	nop
80104f24:	02004224 	addiu	v0,v0,2
80104f28:	5f0082a2 	sb	v0,95(s4)
80104f2c:	b006010c 	jal	0x80041ac0
80104f30:	21208002 	move	a0,s4
80104f34:	29008292 	lbu	v0,41(s4)
80104f38:	00000000 	nop
80104f3c:	1f004014 	bnez	v0,0x80104fbc
80104f40:	00000000 	nop
80104f44:	be008292 	lbu	v0,190(s4)
80104f48:	00000000 	nop
80104f4c:	04004014 	bnez	v0,0x80104f60
80104f50:	21208002 	move	a0,s4
80104f54:	60008296 	lhu	v0,96(s4)
80104f58:	c3370408 	j	0x8010df0c
80104f5c:	21280000 	move	a1,zero
80104f60:	60008296 	lhu	v0,96(s4)
80104f64:	00000000 	nop
80104f68:	00084224 	addiu	v0,v0,2048
80104f6c:	21280000 	move	a1,zero
80104f70:	003c0200 	sll	a3,v0,0x10
80104f74:	86008696 	lhu	a2,134(s4)
80104f78:	84008296 	lhu	v0,132(s4)
80104f7c:	033c0700 	sra	a3,a3,0x10
80104f80:	2330c200 	subu	a2,a2,v0
80104f84:	5000c624 	addiu	a2,a2,80
80104f88:	00340600 	sll	a2,a2,0x10
80104f8c:	7015010c 	jal	0x800455c0
80104f90:	03340600 	sra	a2,a2,0x10
80104f94:	21184000 	move	v1,v0
80104f98:	ff006230 	andi	v0,v1,0xff
80104f9c:	07004010 	beqz	v0,0x80104fbc
80104fa0:	290083a2 	sb	v1,41(s4)
80104fa4:	01006330 	andi	v1,v1,0x1
80104fa8:	21106000 	move	v0,v1
80104fac:	03004010 	beqz	v0,0x80104fbc
80104fb0:	290083a2 	sb	v1,41(s4)
80104fb4:	80006234 	ori	v0,v1,0x80
80104fb8:	290082a2 	sb	v0,41(s4)
80104fbc:	44008286 	lh	v0,68(s4)
80104fc0:	00000000 	nop
80104fc4:	02004104 	bgez	v0,0x80104fd0
80104fc8:	00000000 	nop
80104fcc:	23100200 	negu	v0,v0
80104fd0:	00fe4224 	addiu	v0,v0,-512
80104fd4:	21184000 	move	v1,v0
80104fd8:	00140200 	sll	v0,v0,0x10
80104fdc:	07004104 	bgez	v0,0x80104ffc
80104fe0:	00000000 	nop
80104fe4:	06008292 	lbu	v0,6(s4)
80104fe8:	21180000 	move	v1,zero
80104fec:	01004224 	addiu	v0,v0,1
80104ff0:	060082a2 	sb	v0,6(s4)
80104ff4:	801f023c 	lui	v0,0x1f80
80104ff8:	500240a0 	sb	zero,592(v0)
80104ffc:	44008286 	lh	v0,68(s4)
80105000:	00000000 	nop
80105004:	03004104 	bgez	v0,0x80105014
80105008:	23100300 	negu	v0,v1
8010500c:	ed370408 	j	0x8010dfb4
80105010:	440082a6 	sh	v0,68(s4)
80105014:	440083a6 	sh	v1,68(s4)
80105018:	3800828e 	lw	v0,56(s4)
8010501c:	00000000 	nop
80105020:	02004294 	lhu	v0,2(v0)
80105024:	00000000 	nop
80105028:	0b004010 	beqz	v0,0x80105058
8010502c:	00000000 	nop
80105030:	44008296 	lhu	v0,68(s4)
80105034:	56008396 	lhu	v1,86(s4)
80105038:	00140200 	sll	v0,v0,0x10
8010503c:	03150200 	sra	v0,v0,0x14
80105040:	02004104 	bgez	v0,0x8010504c
80105044:	00000000 	nop
80105048:	23100200 	negu	v0,v0
8010504c:	23186200 	subu	v1,v1,v0
80105050:	32380408 	j	0x8010e0c8
80105054:	560083a6 	sh	v1,86(s4)
80105058:	be008292 	lbu	v0,190(s4)
8010505c:	00000000 	nop
80105060:	04004014 	bnez	v0,0x80105074
80105064:	00000000 	nop
80105068:	60008296 	lhu	v0,96(s4)
8010506c:	08380408 	j	0x8010e020
80105070:	ff0f4430 	andi	a0,v0,0xfff
80105074:	60008296 	lhu	v0,96(s4)
80105078:	00000000 	nop
8010507c:	00084224 	addiu	v0,v0,2048
80105080:	ff0f4430 	andi	a0,v0,0xfff
80105084:	56008586 	lh	a1,86(s4)
80105088:	bedd010c 	jal	0x800776f8
8010508c:	40000624 	li	a2,64
80105090:	32380408 	j	0x8010e0c8
80105094:	560082a6 	sh	v0,86(s4)
80105098:	5232040c 	jal	0x8010c948
8010509c:	21208002 	move	a0,s4
801050a0:	0e004010 	beqz	v0,0x801050dc
801050a4:	21208002 	move	a0,s4
801050a8:	03000524 	li	a1,3
801050ac:	04000624 	li	a2,4
801050b0:	02000224 	li	v0,2
801050b4:	da05010c 	jal	0x80041768
801050b8:	000082a2 	sb	v0,0(s4)
801050bc:	21208002 	move	a0,s4
801050c0:	8d32040c 	jal	0x8010ca34
801050c4:	00000000 	nop
801050c8:	01000224 	li	v0,1
801050cc:	050082a2 	sb	v0,5(s4)
801050d0:	060082a2 	sb	v0,6(s4)
801050d4:	32380408 	j	0x8010e0c8
801050d8:	070080a2 	sb	zero,7(s4)
801050dc:	64008286 	lh	v0,100(s4)
801050e0:	04001024 	li	s0,4
801050e4:	04005014 	bne	v0,s0,0x801050f8
801050e8:	03000224 	li	v0,3
801050ec:	640082a6 	sh	v0,100(s4)
801050f0:	32380408 	j	0x8010e0c8
801050f4:	060080a2 	sb	zero,6(s4)
801050f8:	1469020c 	jal	0x8009a450
801050fc:	00000000 	nop
80105100:	40004230 	andi	v0,v0,0x40
80105104:	06004010 	beqz	v0,0x80105120
80105108:	21208002 	move	a0,s4
8010510c:	21280000 	move	a1,zero
80105110:	da05010c 	jal	0x80041768
80105114:	05000624 	li	a2,5
80105118:	30380408 	j	0x8010e0c0
8010511c:	050080a2 	sb	zero,5(s4)
80105120:	050090a2 	sb	s0,5(s4)
80105124:	060080a2 	sb	zero,6(s4)
80105128:	640080a6 	sh	zero,100(s4)
8010512c:	2400bf8f 	lw	ra,36(sp)
80105130:	2000b48f 	lw	s4,32(sp)
80105134:	1c00b38f 	lw	s3,28(sp)
80105138:	1800b28f 	lw	s2,24(sp)
8010513c:	1400b18f 	lw	s1,20(sp)
80105140:	1000b08f 	lw	s0,16(sp)
80105144:	0800e003 	jr	ra
80105148:	2800bd27 	addiu	sp,sp,40
8010514c:	0c80023c 	lui	v0,0x800c
80105150:	09f84290 	lbu	v0,-2039(v0)
80105154:	e0ffbd27 	addiu	sp,sp,-32
80105158:	1000b0af 	sw	s0,16(sp)
8010515c:	21808000 	move	s0,a0
80105160:	1800bfaf 	sw	ra,24(sp)
80105164:	45004014 	bnez	v0,0x8010527c
80105168:	1400b1af 	sw	s1,20(sp)
8010516c:	06001192 	lbu	s1,6(s0)
80105170:	00000000 	nop
80105174:	05002012 	beqz	s1,0x8010518c
80105178:	01000224 	li	v0,1
8010517c:	11002212 	beq	s1,v0,0x801051c4
80105180:	00000000 	nop
80105184:	86380408 	j	0x8010e218
80105188:	00000000 	nop
8010518c:	21200002 	move	a0,s0
80105190:	0b000524 	li	a1,11
80105194:	da05010c 	jal	0x80041768
80105198:	04000624 	li	a2,4
8010519c:	8a000424 	li	a0,138
801051a0:	21280000 	move	a1,zero
801051a4:	64d1010c 	jal	0x80074590
801051a8:	2130a000 	move	a2,a1
801051ac:	06000292 	lbu	v0,6(s0)
801051b0:	5a000324 	li	v1,90
801051b4:	400003a6 	sh	v1,64(s0)
801051b8:	01004224 	addiu	v0,v0,1
801051bc:	86380408 	j	0x8010e218
801051c0:	060002a2 	sb	v0,6(s0)
801051c4:	40000286 	lh	v0,64(s0)
801051c8:	00000000 	nop
801051cc:	1e004228 	slti	v0,v0,30
801051d0:	10004010 	beqz	v0,0x80105214
801051d4:	00000000 	nop
801051d8:	5232040c 	jal	0x8010c948
801051dc:	21200002 	move	a0,s0
801051e0:	0c004010 	beqz	v0,0x80105214
801051e4:	21200002 	move	a0,s0
801051e8:	03000524 	li	a1,3
801051ec:	04000624 	li	a2,4
801051f0:	02000224 	li	v0,2
801051f4:	da05010c 	jal	0x80041768
801051f8:	000002a2 	sb	v0,0(s0)
801051fc:	8d32040c 	jal	0x8010ca34
80105200:	21200002 	move	a0,s0
80105204:	050011a2 	sb	s1,5(s0)
80105208:	060011a2 	sb	s1,6(s0)
8010520c:	86380408 	j	0x8010e218
80105210:	070000a2 	sb	zero,7(s0)
80105214:	40000296 	lhu	v0,64(s0)
80105218:	00000000 	nop
8010521c:	ffff4224 	addiu	v0,v0,-1
80105220:	400002a6 	sh	v0,64(s0)
80105224:	00140200 	sll	v0,v0,0x10
80105228:	09004014 	bnez	v0,0x80105250
8010522c:	801f023c 	lui	v0,0x1f80
80105230:	21200002 	move	a0,s0
80105234:	21280000 	move	a1,zero
80105238:	da05010c 	jal	0x80041768
8010523c:	0a000624 	li	a2,10
80105240:	050000a2 	sb	zero,5(s0)
80105244:	060000a2 	sb	zero,6(s0)
80105248:	640000a6 	sh	zero,100(s0)
8010524c:	801f023c 	lui	v0,0x1f80
80105250:	60014584 	lh	a1,352(v0)
80105254:	801f023c 	lui	v0,0x1f80
80105258:	64014684 	lh	a2,356(v0)
8010525c:	ace0010c 	jal	0x800782b0
80105260:	2c000426 	addiu	a0,s0,44
80105264:	00140200 	sll	v0,v0,0x10
80105268:	03240200 	sra	a0,v0,0x10
8010526c:	56000586 	lh	a1,86(s0)
80105270:	bedd010c 	jal	0x800776f8
80105274:	80000624 	li	a2,128
80105278:	560002a6 	sh	v0,86(s0)
8010527c:	1800bf8f 	lw	ra,24(sp)
80105280:	1400b18f 	lw	s1,20(sp)
80105284:	1000b08f 	lw	s0,16(sp)
80105288:	0800e003 	jr	ra
8010528c:	2000bd27 	addiu	sp,sp,32
80105290:	c8ffbd27 	addiu	sp,sp,-56
80105294:	2800b2af 	sw	s2,40(sp)
80105298:	21908000 	move	s2,a0
8010529c:	3000bfaf 	sw	ra,48(sp)
801052a0:	2c00b3af 	sw	s3,44(sp)
801052a4:	2400b1af 	sw	s1,36(sp)
801052a8:	2000b0af 	sw	s0,32(sp)
801052ac:	05004392 	lbu	v1,5(s2)
801052b0:	00000000 	nop
801052b4:	0c00622c 	sltiu	v0,v1,12
801052b8:	22034010 	beqz	v0,0x80105f44
801052bc:	2198a000 	move	s3,a1
801052c0:	1180023c 	lui	v0,0x8011
801052c4:	e0904224 	addiu	v0,v0,-28448
801052c8:	80180300 	sll	v1,v1,0x2
801052cc:	21186200 	addu	v1,v1,v0
801052d0:	0000628c 	lw	v0,0(v1)
801052d4:	00000000 	nop
801052d8:	08004000 	jr	v0
801052dc:	00000000 	nop
801052e0:	06004392 	lbu	v1,6(s2)
801052e4:	01001024 	li	s0,1
801052e8:	38007010 	beq	v1,s0,0x801053cc
801052ec:	02006228 	slti	v0,v1,2
801052f0:	05004010 	beqz	v0,0x80105308
801052f4:	02000224 	li	v0,2
801052f8:	07006010 	beqz	v1,0x80105318
801052fc:	0c80023c 	lui	v0,0x800c
80105300:	b83b0408 	j	0x8010eee0
80105304:	00000000 	nop
80105308:	81006210 	beq	v1,v0,0x80105510
8010530c:	00000000 	nop
80105310:	b83b0408 	j	0x8010eee0
80105314:	00000000 	nop
80105318:	08f84324 	addiu	v1,v0,-2040
8010531c:	39006290 	lbu	v0,57(v1)
80105320:	00000000 	nop
80105324:	03004010 	beqz	v0,0x80105334
80105328:	08000224 	li	v0,8
8010532c:	010060a0 	sb	zero,1(v1)
80105330:	390060a0 	sb	zero,57(v1)
80105334:	000042a2 	sb	v0,0(s2)
80105338:	801f023c 	lui	v0,0x1f80
8010533c:	460240a0 	sb	zero,582(v0)
80105340:	801f023c 	lui	v0,0x1f80
80105344:	5e0040a2 	sb	zero,94(s2)
80105348:	500240a0 	sb	zero,592(v0)
8010534c:	05004392 	lbu	v1,5(s2)
80105350:	02000224 	li	v0,2
80105354:	07006214 	bne	v1,v0,0x80105374
80105358:	21300000 	move	a2,zero
8010535c:	47016292 	lbu	v0,327(s3)
80105360:	00000000 	nop
80105364:	0b004010 	beqz	v0,0x80105394
80105368:	00f00224 	li	v0,-4096
8010536c:	ce380408 	j	0x8010e338
80105370:	be0040a2 	sb	zero,190(s2)
80105374:	2b004592 	lbu	a1,43(s2)
80105378:	60004486 	lh	a0,96(s2)
8010537c:	dadd010c 	jal	0x80077768
80105380:	00290500 	sll	a1,a1,0x4
80105384:	03004010 	beqz	v0,0x80105394
80105388:	00f00224 	li	v0,-4096
8010538c:	ce380408 	j	0x8010e338
80105390:	be0040a2 	sb	zero,190(s2)
80105394:	00100224 	li	v0,4096
80105398:	be0050a2 	sb	s0,190(s2)
8010539c:	440042a6 	sh	v0,68(s2)
801053a0:	21204002 	move	a0,s2
801053a4:	09000524 	li	a1,9
801053a8:	04000624 	li	a2,4
801053ac:	06004292 	lbu	v0,6(s2)
801053b0:	00cc0324 	li	v1,-13312
801053b4:	4a0043a6 	sh	v1,74(s2)
801053b8:	01004224 	addiu	v0,v0,1
801053bc:	da05010c 	jal	0x80041768
801053c0:	060042a2 	sb	v0,6(s2)
801053c4:	27390408 	j	0x8010e49c
801053c8:	21204002 	move	a0,s2
801053cc:	4a004296 	lhu	v0,74(s2)
801053d0:	00000000 	nop
801053d4:	60034224 	addiu	v0,v0,864
801053d8:	4a0042a6 	sh	v0,74(s2)
801053dc:	00140200 	sll	v0,v0,0x10
801053e0:	0a004018 	blez	v0,0x8010540c
801053e4:	80000224 	li	v0,128
801053e8:	1a0042a2 	sb	v0,26(s2)
801053ec:	190042a2 	sb	v0,25(s2)
801053f0:	180042a2 	sb	v0,24(s2)
801053f4:	06004292 	lbu	v0,6(s2)
801053f8:	0d004392 	lbu	v1,13(s2)
801053fc:	01004224 	addiu	v0,v0,1
80105400:	02006334 	ori	v1,v1,0x2
80105404:	060042a2 	sb	v0,6(s2)
80105408:	0d0043a2 	sb	v1,13(s2)
8010540c:	21204002 	move	a0,s2
80105410:	4a004286 	lh	v0,74(s2)
80105414:	3000438e 	lw	v1,48(s2)
80105418:	00120200 	sll	v0,v0,0x8
8010541c:	21186200 	addu	v1,v1,v0
80105420:	5adb010c 	jal	0x80076d68
80105424:	300043ae 	sw	v1,48(s2)
80105428:	21204002 	move	a0,s2
8010542c:	8706010c 	jal	0x80041a1c
80105430:	01000524 	li	a1,1
80105434:	5f004292 	lbu	v0,95(s2)
80105438:	00000000 	nop
8010543c:	2d004014 	bnez	v0,0x801054f4
80105440:	00000000 	nop
80105444:	84004496 	lhu	a0,132(s2)
80105448:	86004286 	lh	v0,134(s2)
8010544c:	00240400 	sll	a0,a0,0x10
80105450:	032c0400 	sra	a1,a0,0x10
80105454:	23104500 	subu	v0,v0,a1
80105458:	c21f0200 	srl	v1,v0,0x1f
8010545c:	21104300 	addu	v0,v0,v1
80105460:	42300200 	srl	a2,v0,0x1
80105464:	c2270400 	srl	a0,a0,0x1f
80105468:	2128a400 	addu	a1,a1,a0
8010546c:	42980500 	srl	s3,a1,0x1
80105470:	be004292 	lbu	v0,190(s2)
80105474:	80004596 	lhu	a1,128(s2)
80105478:	04004014 	bnez	v0,0x8010548c
8010547c:	21204002 	move	a0,s2
80105480:	60004396 	lhu	v1,96(s2)
80105484:	0e390408 	j	0x8010e438
80105488:	00140500 	sll	v0,a1,0x10
8010548c:	60004296 	lhu	v0,96(s2)
80105490:	00000000 	nop
80105494:	00084324 	addiu	v1,v0,2048
80105498:	00140500 	sll	v0,a1,0x10
8010549c:	038c0200 	sra	s1,v0,0x10
801054a0:	21282002 	move	a1,s1
801054a4:	00340600 	sll	a2,a2,0x10
801054a8:	03340600 	sra	a2,a2,0x10
801054ac:	00140300 	sll	v0,v1,0x10
801054b0:	03840200 	sra	s0,v0,0x10
801054b4:	2b17010c 	jal	0x80045cac
801054b8:	21380002 	move	a3,s0
801054bc:	09004014 	bnez	v0,0x801054e4
801054c0:	21204002 	move	a0,s2
801054c4:	21282002 	move	a1,s1
801054c8:	23301300 	negu	a2,s3
801054cc:	00340600 	sll	a2,a2,0x10
801054d0:	03340600 	sra	a2,a2,0x10
801054d4:	2b17010c 	jal	0x80045cac
801054d8:	21380002 	move	a3,s0
801054dc:	05004010 	beqz	v0,0x801054f4
801054e0:	00000000 	nop
801054e4:	be004292 	lbu	v0,190(s2)
801054e8:	00000000 	nop
801054ec:	02004224 	addiu	v0,v0,2
801054f0:	5f0042a2 	sb	v0,95(s2)
801054f4:	b006010c 	jal	0x80041ac0
801054f8:	21204002 	move	a0,s2
801054fc:	21204002 	move	a0,s2
80105500:	c304010c 	jal	0x8004130c
80105504:	21280000 	move	a1,zero
80105508:	b83b0408 	j	0x8010eee0
8010550c:	00000000 	nop
80105510:	4a004296 	lhu	v0,74(s2)
80105514:	00000000 	nop
80105518:	60034224 	addiu	v0,v0,864
8010551c:	4a0042a6 	sh	v0,74(s2)
80105520:	00140200 	sll	v0,v0,0x10
80105524:	03140200 	sra	v0,v0,0x10
80105528:	01304228 	slti	v0,v0,12289
8010552c:	02004014 	bnez	v0,0x80105538
80105530:	00300224 	li	v0,12288
80105534:	4a0042a6 	sh	v0,74(s2)
80105538:	5adb010c 	jal	0x80076d68
8010553c:	21204002 	move	a0,s2
80105540:	21204002 	move	a0,s2
80105544:	8706010c 	jal	0x80041a1c
80105548:	01000524 	li	a1,1
8010554c:	4a004286 	lh	v0,74(s2)
80105550:	3000438e 	lw	v1,48(s2)
80105554:	5f004492 	lbu	a0,95(s2)
80105558:	00120200 	sll	v0,v0,0x8
8010555c:	21186200 	addu	v1,v1,v0
80105560:	2d008014 	bnez	a0,0x80105618
80105564:	300043ae 	sw	v1,48(s2)
80105568:	84004496 	lhu	a0,132(s2)
8010556c:	86004286 	lh	v0,134(s2)
80105570:	00240400 	sll	a0,a0,0x10
80105574:	032c0400 	sra	a1,a0,0x10
80105578:	23104500 	subu	v0,v0,a1
8010557c:	c21f0200 	srl	v1,v0,0x1f
80105580:	21104300 	addu	v0,v0,v1
80105584:	42300200 	srl	a2,v0,0x1
80105588:	c2270400 	srl	a0,a0,0x1f
8010558c:	2128a400 	addu	a1,a1,a0
80105590:	42980500 	srl	s3,a1,0x1
80105594:	be004292 	lbu	v0,190(s2)
80105598:	80004596 	lhu	a1,128(s2)
8010559c:	04004014 	bnez	v0,0x801055b0
801055a0:	21204002 	move	a0,s2
801055a4:	60004396 	lhu	v1,96(s2)
801055a8:	57390408 	j	0x8010e55c
801055ac:	00140500 	sll	v0,a1,0x10
801055b0:	60004296 	lhu	v0,96(s2)
801055b4:	00000000 	nop
801055b8:	00084324 	addiu	v1,v0,2048
801055bc:	00140500 	sll	v0,a1,0x10
801055c0:	038c0200 	sra	s1,v0,0x10
801055c4:	21282002 	move	a1,s1
801055c8:	00340600 	sll	a2,a2,0x10
801055cc:	03340600 	sra	a2,a2,0x10
801055d0:	00140300 	sll	v0,v1,0x10
801055d4:	03840200 	sra	s0,v0,0x10
801055d8:	2b17010c 	jal	0x80045cac
801055dc:	21380002 	move	a3,s0
801055e0:	09004014 	bnez	v0,0x80105608
801055e4:	21204002 	move	a0,s2
801055e8:	21282002 	move	a1,s1
801055ec:	23301300 	negu	a2,s3
801055f0:	00340600 	sll	a2,a2,0x10
801055f4:	03340600 	sra	a2,a2,0x10
801055f8:	2b17010c 	jal	0x80045cac
801055fc:	21380002 	move	a3,s0
80105600:	05004010 	beqz	v0,0x80105618
80105604:	00000000 	nop
80105608:	be004292 	lbu	v0,190(s2)
8010560c:	00000000 	nop
80105610:	02004224 	addiu	v0,v0,2
80105614:	5f0042a2 	sb	v0,95(s2)
80105618:	b006010c 	jal	0x80041ac0
8010561c:	21204002 	move	a0,s2
80105620:	21204002 	move	a0,s2
80105624:	c304010c 	jal	0x8004130c
80105628:	21280000 	move	a1,zero
8010562c:	18004292 	lbu	v0,24(s2)
80105630:	00000000 	nop
80105634:	f0ff4224 	addiu	v0,v0,-16
80105638:	180042a2 	sb	v0,24(s2)
8010563c:	ff004330 	andi	v1,v0,0xff
80105640:	1a0042a2 	sb	v0,26(s2)
80105644:	3f026014 	bnez	v1,0x80105f44
80105648:	190042a2 	sb	v0,25(s2)
8010564c:	21204002 	move	a0,s2
80105650:	02000224 	li	v0,2
80105654:	01001024 	li	s0,1
80105658:	010042a2 	sb	v0,1(s2)
8010565c:	000042a2 	sb	v0,0(s2)
80105660:	3c000224 	li	v0,60
80105664:	2b0040a2 	sb	zero,43(s2)
80105668:	040050a2 	sb	s0,4(s2)
8010566c:	8d32040c 	jal	0x8010ca34
80105670:	400042a6 	sh	v0,64(s2)
80105674:	03000224 	li	v0,3
80105678:	050050a2 	sb	s0,5(s2)
8010567c:	ab3b0408 	j	0x8010eeac
80105680:	060042a2 	sb	v0,6(s2)
80105684:	06004392 	lbu	v1,6(s2)
80105688:	01000224 	li	v0,1
8010568c:	2b006210 	beq	v1,v0,0x8010573c
80105690:	02006228 	slti	v0,v1,2
80105694:	05004010 	beqz	v0,0x801056ac
80105698:	02000224 	li	v0,2
8010569c:	07006010 	beqz	v1,0x801056bc
801056a0:	64000524 	li	a1,100
801056a4:	b83b0408 	j	0x8010eee0
801056a8:	00000000 	nop
801056ac:	6a006210 	beq	v1,v0,0x80105858
801056b0:	801f103c 	lui	s0,0x1f80
801056b4:	b83b0408 	j	0x8010eee0
801056b8:	00000000 	nop
801056bc:	c8000424 	li	a0,200
801056c0:	0c80023c 	lui	v0,0x800c
801056c4:	800045a6 	sh	a1,128(s2)
801056c8:	820044a6 	sh	a0,130(s2)
801056cc:	70f84390 	lbu	v1,-1936(v0)
801056d0:	0d000224 	li	v0,13
801056d4:	05006214 	bne	v1,v0,0x801056ec
801056d8:	0e010224 	li	v0,270
801056dc:	840042a6 	sh	v0,132(s2)
801056e0:	08020224 	li	v0,520
801056e4:	a4390408 	j	0x8010e690
801056e8:	860042a6 	sh	v0,134(s2)
801056ec:	840045a6 	sh	a1,132(s2)
801056f0:	860044a6 	sh	a0,134(s2)
801056f4:	21204002 	move	a0,s2
801056f8:	05000524 	li	a1,5
801056fc:	04000624 	li	a2,4
80105700:	801f023c 	lui	v0,0x1f80
80105704:	801f033c 	lui	v1,0x1f80
80105708:	500240a0 	sb	zero,592(v0)
8010570c:	01000224 	li	v0,1
80105710:	c605010c 	jal	0x80041718
80105714:	460262a0 	sb	v0,582(v1)
80105718:	87000424 	li	a0,135
8010571c:	21280000 	move	a1,zero
80105720:	06004292 	lbu	v0,6(s2)
80105724:	2130a000 	move	a2,a1
80105728:	01004224 	addiu	v0,v0,1
8010572c:	64d1010c 	jal	0x80074590
80105730:	060042a2 	sb	v0,6(s2)
80105734:	5a000224 	li	v0,90
80105738:	400042a6 	sh	v0,64(s2)
8010573c:	40004286 	lh	v0,64(s2)
80105740:	40004396 	lhu	v1,64(s2)
80105744:	42004014 	bnez	v0,0x80105850
80105748:	ffff6224 	addiu	v0,v1,-1
8010574c:	0c80023c 	lui	v0,0x800c
80105750:	70f84390 	lbu	v1,-1936(v0)
80105754:	0f000224 	li	v0,15
80105758:	04006214 	bne	v1,v0,0x8010576c
8010575c:	8c000424 	li	a0,140
80105760:	21280000 	move	a1,zero
80105764:	64d1010c 	jal	0x80074590
80105768:	2130a000 	move	a2,a1
8010576c:	04006396 	lhu	v1,4(s3)
80105770:	01030224 	li	v0,769
80105774:	0a006214 	bne	v1,v0,0x801057a0
80105778:	03000224 	li	v0,3
8010577c:	05006392 	lbu	v1,5(s3)
80105780:	00000000 	nop
80105784:	0b006214 	bne	v1,v0,0x801057b4
80105788:	00000000 	nop
8010578c:	06006292 	lbu	v0,6(s3)
80105790:	00000000 	nop
80105794:	0300422c 	sltiu	v0,v0,3
80105798:	06004014 	bnez	v0,0x801057b4
8010579c:	00000000 	nop
801057a0:	06004292 	lbu	v0,6(s2)
801057a4:	00000000 	nop
801057a8:	01004224 	addiu	v0,v0,1
801057ac:	fc390408 	j	0x8010e7f0
801057b0:	060042a2 	sb	v0,6(s2)
801057b4:	00006392 	lbu	v1,0(s3)
801057b8:	01000224 	li	v0,1
801057bc:	26006214 	bne	v1,v0,0x80105858
801057c0:	801f103c 	lui	s0,0x1f80
801057c4:	05006392 	lbu	v1,5(s3)
801057c8:	03000224 	li	v0,3
801057cc:	23006214 	bne	v1,v0,0x8010585c
801057d0:	801f113c 	lui	s1,0x1f80
801057d4:	06006292 	lbu	v0,6(s3)
801057d8:	00000000 	nop
801057dc:	0300422c 	sltiu	v0,v0,3
801057e0:	1e004010 	beqz	v0,0x8010585c
801057e4:	21206002 	move	a0,s3
801057e8:	2e006296 	lhu	v0,46(s3)
801057ec:	21284002 	move	a1,s2
801057f0:	2e0042a6 	sh	v0,46(s2)
801057f4:	36006296 	lhu	v0,54(s3)
801057f8:	01000624 	li	a2,1
801057fc:	360042a6 	sh	v0,54(s2)
80105800:	2a006392 	lbu	v1,42(s3)
80105804:	08000224 	li	v0,8
80105808:	580040a6 	sh	zero,88(s2)
8010580c:	000042a2 	sb	v0,0(s2)
80105810:	2a0043a2 	sb	v1,42(s2)
80105814:	40016296 	lhu	v0,320(s3)
80105818:	2138c000 	move	a3,a2
8010581c:	02110200 	srl	v0,v0,0x4
80105820:	428b000c 	jal	0x80022d08
80105824:	2b0062a2 	sb	v0,43(s3)
80105828:	0b004014 	bnez	v0,0x80105858
8010582c:	801f103c 	lui	s0,0x1f80
80105830:	02000224 	li	v0,2
80105834:	040062a2 	sb	v0,4(s3)
80105838:	050062a2 	sb	v0,5(s3)
8010583c:	78000224 	li	v0,120
80105840:	060060a2 	sb	zero,6(s3)
80105844:	070060a2 	sb	zero,7(s3)
80105848:	fd390408 	j	0x8010e7f4
8010584c:	720162a6 	sh	v0,370(s3)
80105850:	400042a6 	sh	v0,64(s2)
80105854:	801f103c 	lui	s0,0x1f80
80105858:	801f113c 	lui	s1,0x1f80
8010585c:	40020586 	lh	a1,576(s0)
80105860:	44022686 	lh	a2,580(s1)
80105864:	ace0010c 	jal	0x800782b0
80105868:	2c004426 	addiu	a0,s2,44
8010586c:	00140200 	sll	v0,v0,0x10
80105870:	03240200 	sra	a0,v0,0x10
80105874:	56004586 	lh	a1,86(s2)
80105878:	bedd010c 	jal	0x800776f8
8010587c:	80000624 	li	a2,128
80105880:	40020396 	lhu	v1,576(s0)
80105884:	560042a6 	sh	v0,86(s2)
80105888:	560062a6 	sh	v0,86(s3)
8010588c:	44022296 	lhu	v0,580(s1)
80105890:	1200a3a7 	sh	v1,18(sp)
80105894:	32006396 	lhu	v1,50(s3)
80105898:	1000a427 	addiu	a0,sp,16
8010589c:	1a00a2a7 	sh	v0,26(sp)
801058a0:	eab2010c 	jal	0x8006cba8
801058a4:	1600a3a7 	sh	v1,22(sp)
801058a8:	b83b0408 	j	0x8010eee0
801058ac:	00000000 	nop
801058b0:	06004392 	lbu	v1,6(s2)
801058b4:	00000000 	nop
801058b8:	0a00622c 	sltiu	v0,v1,10
801058bc:	a1014010 	beqz	v0,0x80105f44
801058c0:	1180023c 	lui	v0,0x8011
801058c4:	10914224 	addiu	v0,v0,-28400
801058c8:	80180300 	sll	v1,v1,0x2
801058cc:	21186200 	addu	v1,v1,v0
801058d0:	0000628c 	lw	v0,0(v1)
801058d4:	00000000 	nop
801058d8:	08004000 	jr	v0
801058dc:	00000000 	nop
801058e0:	2c004426 	addiu	a0,s2,44
801058e4:	801f023c 	lui	v0,0x1f80
801058e8:	500240a0 	sb	zero,592(v0)
801058ec:	04000224 	li	v0,4
801058f0:	801f103c 	lui	s0,0x1f80
801058f4:	801f113c 	lui	s1,0x1f80
801058f8:	64000324 	li	v1,100
801058fc:	000042a2 	sb	v0,0(s2)
80105900:	c8000224 	li	v0,200
80105904:	820042a6 	sh	v0,130(s2)
80105908:	860042a6 	sh	v0,134(s2)
8010590c:	0c80023c 	lui	v0,0x800c
80105910:	2b0040a2 	sb	zero,43(s2)
80105914:	40020586 	lh	a1,576(s0)
80105918:	44022686 	lh	a2,580(s1)
8010591c:	08f84224 	addiu	v0,v0,-2040
80105920:	800043a6 	sh	v1,128(s2)
80105924:	840043a6 	sh	v1,132(s2)
80105928:	01000324 	li	v1,1
8010592c:	390043a0 	sb	v1,57(v0)
80105930:	010043a0 	sb	v1,1(v0)
80105934:	801f033c 	lui	v1,0x1f80
80105938:	02000224 	li	v0,2
8010593c:	ace0010c 	jal	0x800782b0
80105940:	460262a0 	sb	v0,582(v1)
80105944:	00140200 	sll	v0,v0,0x10
80105948:	03240200 	sra	a0,v0,0x10
8010594c:	56004586 	lh	a1,86(s2)
80105950:	bedd010c 	jal	0x800776f8
80105954:	80000624 	li	a2,128
80105958:	21204002 	move	a0,s2
8010595c:	06000524 	li	a1,6
80105960:	04000624 	li	a2,4
80105964:	560042a6 	sh	v0,86(s2)
80105968:	c605010c 	jal	0x80041718
8010596c:	560062a6 	sh	v0,86(s3)
80105970:	06004292 	lbu	v0,6(s2)
80105974:	00000000 	nop
80105978:	01004224 	addiu	v0,v0,1
8010597c:	060042a2 	sb	v0,6(s2)
80105980:	40020296 	lhu	v0,576(s0)
80105984:	00000000 	nop
80105988:	1200a2a7 	sh	v0,18(sp)
8010598c:	32006396 	lhu	v1,50(s3)
80105990:	44022296 	lhu	v0,580(s1)
80105994:	1000a427 	addiu	a0,sp,16
80105998:	1a00a2a7 	sh	v0,26(sp)
8010599c:	eab2010c 	jal	0x8006cba8
801059a0:	1600a3a7 	sh	v1,22(sp)
801059a4:	40000224 	li	v0,64
801059a8:	440042a6 	sh	v0,68(s2)
801059ac:	5a000224 	li	v0,90
801059b0:	400042a6 	sh	v0,64(s2)
801059b4:	801f023c 	lui	v0,0x1f80
801059b8:	f2004394 	lhu	v1,242(v0)
801059bc:	000c0224 	li	v0,3072
801059c0:	23104300 	subu	v0,v0,v1
801059c4:	56004396 	lhu	v1,86(s2)
801059c8:	ff0f4230 	andi	v0,v0,0xfff
801059cc:	23104300 	subu	v0,v0,v1
801059d0:	ff0f4230 	andi	v0,v0,0xfff
801059d4:	00084228 	slti	v0,v0,2048
801059d8:	03004010 	beqz	v0,0x801059e8
801059dc:	00020224 	li	v0,512
801059e0:	b83b0408 	j	0x8010eee0
801059e4:	6a0042a6 	sh	v0,106(s2)
801059e8:	00fe0224 	li	v0,-512
801059ec:	b83b0408 	j	0x8010eee0
801059f0:	6a0042a6 	sh	v0,106(s2)
801059f4:	58004296 	lhu	v0,88(s2)
801059f8:	56004486 	lh	a0,86(s2)
801059fc:	00024224 	addiu	v0,v0,512
80105a00:	ff0f4230 	andi	v0,v0,0xfff
80105a04:	d40f020c 	jal	0x80083f50
80105a08:	580042a6 	sh	v0,88(s2)
80105a0c:	44004386 	lh	v1,68(s2)
80105a10:	00000000 	nop
80105a14:	18004300 	mult	v0,v1
80105a18:	56004486 	lh	a0,86(s2)
80105a1c:	12400000 	mflo	t0
80105a20:	a00f020c 	jal	0x80083e80
80105a24:	03830800 	sra	s0,t0,0xc
80105a28:	44004386 	lh	v1,68(s2)
80105a2c:	00000000 	nop
80105a30:	18004300 	mult	v0,v1
80105a34:	2e004296 	lhu	v0,46(s2)
80105a38:	2b004492 	lbu	a0,43(s2)
80105a3c:	21105000 	addu	v0,v0,s0
80105a40:	2e0042a6 	sh	v0,46(s2)
80105a44:	36004296 	lhu	v0,54(s2)
80105a48:	12400000 	mflo	t0
80105a4c:	23180800 	negu	v1,t0
80105a50:	031b0300 	sra	v1,v1,0xc
80105a54:	21104300 	addu	v0,v0,v1
80105a58:	06008014 	bnez	a0,0x80105a74
80105a5c:	360042a6 	sh	v0,54(s2)
80105a60:	0f80043c 	lui	a0,0x800f
80105a64:	08808424 	addiu	a0,a0,-32760
80105a68:	6a004686 	lh	a2,106(s2)
80105a6c:	5531040c 	jal	0x8010c554
80105a70:	21284002 	move	a1,s2
80105a74:	5e004292 	lbu	v0,94(s2)
80105a78:	00000000 	nop
80105a7c:	04004010 	beqz	v0,0x80105a90
80105a80:	801f023c 	lui	v0,0x1f80
80105a84:	460240a0 	sb	zero,582(v0)
80105a88:	b63b0408 	j	0x8010eed8
80105a8c:	04000224 	li	v0,4
80105a90:	40004286 	lh	v0,64(s2)
80105a94:	40004396 	lhu	v1,64(s2)
80105a98:	04004014 	bnez	v0,0x80105aac
80105a9c:	08000224 	li	v0,8
80105aa0:	000042a2 	sb	v0,0(s2)
80105aa4:	b63b0408 	j	0x8010eed8
80105aa8:	07000224 	li	v0,7
80105aac:	ffff6224 	addiu	v0,v1,-1
80105ab0:	b83b0408 	j	0x8010eee0
80105ab4:	400042a6 	sh	v0,64(s2)
80105ab8:	b8004296 	lhu	v0,184(s2)
80105abc:	00000000 	nop
80105ac0:	80ff4224 	addiu	v0,v0,-128
80105ac4:	b80042a6 	sh	v0,184(s2)
80105ac8:	00140200 	sll	v0,v0,0x10
80105acc:	03140200 	sra	v0,v0,0x10
80105ad0:	000c4228 	slti	v0,v0,3072
80105ad4:	02004010 	beqz	v0,0x80105ae0
80105ad8:	000c0224 	li	v0,3072
80105adc:	b80042a6 	sh	v0,184(s2)
80105ae0:	6a004686 	lh	a2,106(s2)
80105ae4:	b8004496 	lhu	a0,184(s2)
80105ae8:	58004396 	lhu	v1,88(s2)
80105aec:	0200c104 	bgez	a2,0x80105af8
80105af0:	2110c000 	move	v0,a2
80105af4:	23100200 	negu	v0,v0
80105af8:	20004224 	addiu	v0,v0,32
80105afc:	21284000 	move	a1,v0
80105b00:	00026324 	addiu	v1,v1,512
80105b04:	ff0f6330 	andi	v1,v1,0xfff
80105b08:	00140200 	sll	v0,v0,0x10
80105b0c:	03140200 	sra	v0,v0,0x10
80105b10:	81034228 	slti	v0,v0,897
80105b14:	ba0044a6 	sh	a0,186(s2)
80105b18:	bc0044a6 	sh	a0,188(s2)
80105b1c:	02004014 	bnez	v0,0x80105b28
80105b20:	580043a6 	sh	v1,88(s2)
80105b24:	80030524 	li	a1,896
80105b28:	0300c104 	bgez	a2,0x80105b38
80105b2c:	23100500 	negu	v0,a1
80105b30:	b63a0408 	j	0x8010ead8
80105b34:	6a0042a6 	sh	v0,106(s2)
80105b38:	6a0045a6 	sh	a1,106(s2)
80105b3c:	0f80043c 	lui	a0,0x800f
80105b40:	08808424 	addiu	a0,a0,-32760
80105b44:	6a004686 	lh	a2,106(s2)
80105b48:	5531040c 	jal	0x8010c554
80105b4c:	21284002 	move	a1,s2
80105b50:	b83b0408 	j	0x8010eee0
80105b54:	00000000 	nop
80105b58:	0f80043c 	lui	a0,0x800f
80105b5c:	08808424 	addiu	a0,a0,-32760
80105b60:	21284002 	move	a1,s2
80105b64:	6a004686 	lh	a2,106(s2)
80105b68:	02000224 	li	v0,2
80105b6c:	010042a2 	sb	v0,1(s2)
80105b70:	00100224 	li	v0,4096
80105b74:	b80042a6 	sh	v0,184(s2)
80105b78:	ba0042a6 	sh	v0,186(s2)
80105b7c:	5531040c 	jal	0x8010c554
80105b80:	bc0042a6 	sh	v0,188(s2)
80105b84:	b83b0408 	j	0x8010eee0
80105b88:	00000000 	nop
80105b8c:	06004292 	lbu	v0,6(s2)
80105b90:	06001024 	li	s0,6
80105b94:	05005014 	bne	v0,s0,0x80105bac
80105b98:	0f80043c 	lui	a0,0x800f
80105b9c:	08808424 	addiu	a0,a0,-32760
80105ba0:	6a004686 	lh	a2,106(s2)
80105ba4:	5531040c 	jal	0x8010c554
80105ba8:	21284002 	move	a1,s2
80105bac:	eab2010c 	jal	0x8006cba8
80105bb0:	2c004426 	addiu	a0,s2,44
80105bb4:	07004492 	lbu	a0,7(s2)
80105bb8:	01000524 	li	a1,1
80105bbc:	25008510 	beq	a0,a1,0x80105c54
80105bc0:	02008228 	slti	v0,a0,2
80105bc4:	05004010 	beqz	v0,0x80105bdc
80105bc8:	02000224 	li	v0,2
80105bcc:	07008010 	beqz	a0,0x80105bec
80105bd0:	04000224 	li	v0,4
80105bd4:	b83b0408 	j	0x8010eee0
80105bd8:	00000000 	nop
80105bdc:	31008210 	beq	a0,v0,0x80105ca4
80105be0:	00000000 	nop
80105be4:	b83b0408 	j	0x8010eee0
80105be8:	00000000 	nop
80105bec:	06004392 	lbu	v1,6(s2)
80105bf0:	00000000 	nop
80105bf4:	0d006214 	bne	v1,v0,0x80105c2c
80105bf8:	00d00224 	li	v0,-12288
80105bfc:	0e000424 	li	a0,14
80105c00:	21280000 	move	a1,zero
80105c04:	2130a000 	move	a2,a1
80105c08:	00f00224 	li	v0,-4096
80105c0c:	4a0042a6 	sh	v0,74(s2)
80105c10:	00ec0224 	li	v0,-5120
80105c14:	440042a6 	sh	v0,68(s2)
80105c18:	00020224 	li	v0,512
80105c1c:	64d1010c 	jal	0x80074590
80105c20:	500042a6 	sh	v0,80(s2)
80105c24:	f63a0408 	j	0x8010ebd8
80105c28:	00000000 	nop
80105c2c:	440042a6 	sh	v0,68(s2)
80105c30:	40000224 	li	v0,64
80105c34:	4a0040a6 	sh	zero,74(s2)
80105c38:	500042a6 	sh	v0,80(s2)
80105c3c:	07004292 	lbu	v0,7(s2)
80105c40:	10000324 	li	v1,16
80105c44:	400043a6 	sh	v1,64(s2)
80105c48:	01004224 	addiu	v0,v0,1
80105c4c:	b83b0408 	j	0x8010eee0
80105c50:	070042a2 	sb	v0,7(s2)
80105c54:	58004296 	lhu	v0,88(s2)
80105c58:	4a004396 	lhu	v1,74(s2)
80105c5c:	50004496 	lhu	a0,80(s2)
80105c60:	00fe4224 	addiu	v0,v0,-512
80105c64:	21186400 	addu	v1,v1,a0
80105c68:	4a0043a6 	sh	v1,74(s2)
80105c6c:	001c0300 	sll	v1,v1,0x10
80105c70:	39006018 	blez	v1,0x80105d58
80105c74:	580042a6 	sh	v0,88(s2)
80105c78:	80000224 	li	v0,128
80105c7c:	1a0042a2 	sb	v0,26(s2)
80105c80:	190042a2 	sb	v0,25(s2)
80105c84:	180042a2 	sb	v0,24(s2)
80105c88:	07004292 	lbu	v0,7(s2)
80105c8c:	0d004392 	lbu	v1,13(s2)
80105c90:	01004224 	addiu	v0,v0,1
80105c94:	02006334 	ori	v1,v1,0x2
80105c98:	070042a2 	sb	v0,7(s2)
80105c9c:	3d3b0408 	j	0x8010ecf4
80105ca0:	0d0043a2 	sb	v1,13(s2)
80105ca4:	18004292 	lbu	v0,24(s2)
80105ca8:	40004396 	lhu	v1,64(s2)
80105cac:	f8ff4224 	addiu	v0,v0,-8
80105cb0:	ffff6324 	addiu	v1,v1,-1
80105cb4:	400043a6 	sh	v1,64(s2)
80105cb8:	001c0300 	sll	v1,v1,0x10
80105cbc:	180042a2 	sb	v0,24(s2)
80105cc0:	1a0042a2 	sb	v0,26(s2)
80105cc4:	18006014 	bnez	v1,0x80105d28
80105cc8:	190042a2 	sb	v0,25(s2)
80105ccc:	06004292 	lbu	v0,6(s2)
80105cd0:	00000000 	nop
80105cd4:	12005014 	bne	v0,s0,0x80105d20
80105cd8:	05000224 	li	v0,5
80105cdc:	801f023c 	lui	v0,0x1f80
80105ce0:	460240a0 	sb	zero,582(v0)
80105ce4:	0c80023c 	lui	v0,0x800c
80105ce8:	70f84390 	lbu	v1,-1936(v0)
80105cec:	0e000224 	li	v0,14
80105cf0:	0a006214 	bne	v1,v0,0x80105d1c
80105cf4:	00000000 	nop
80105cf8:	6e004386 	lh	v1,110(s2)
80105cfc:	00000000 	nop
80105d00:	06006514 	bne	v1,a1,0x80105d1c
80105d04:	801f023c 	lui	v0,0x1f80
80105d08:	370144a0 	sb	a0,311(v0)
80105d0c:	0c80023c 	lui	v0,0x800c
80105d10:	50f843ac 	sw	v1,-1968(v0)
80105d14:	2f3b0408 	j	0x8010ecbc
80105d18:	09000224 	li	v0,9
80105d1c:	05000224 	li	v0,5
80105d20:	060042a2 	sb	v0,6(s2)
80105d24:	070040a2 	sb	zero,7(s2)
80105d28:	58004396 	lhu	v1,88(s2)
80105d2c:	4a004296 	lhu	v0,74(s2)
80105d30:	00fe6324 	addiu	v1,v1,-512
80105d34:	00024224 	addiu	v0,v0,512
80105d38:	4a0042a6 	sh	v0,74(s2)
80105d3c:	00140200 	sll	v0,v0,0x10
80105d40:	03140200 	sra	v0,v0,0x10
80105d44:	01204228 	slti	v0,v0,8193
80105d48:	03004014 	bnez	v0,0x80105d58
80105d4c:	580043a6 	sh	v1,88(s2)
80105d50:	00200224 	li	v0,8192
80105d54:	4a0042a6 	sh	v0,74(s2)
80105d58:	56004486 	lh	a0,86(s2)
80105d5c:	4a004286 	lh	v0,74(s2)
80105d60:	3000438e 	lw	v1,48(s2)
80105d64:	00120200 	sll	v0,v0,0x8
80105d68:	21186200 	addu	v1,v1,v0
80105d6c:	d40f020c 	jal	0x80083f50
80105d70:	300043ae 	sw	v1,48(s2)
80105d74:	44004386 	lh	v1,68(s2)
80105d78:	00000000 	nop
80105d7c:	18004300 	mult	v0,v1
80105d80:	56004486 	lh	a0,86(s2)
80105d84:	2c00428e 	lw	v0,44(s2)
80105d88:	12400000 	mflo	t0
80105d8c:	03190800 	sra	v1,t0,0x4
80105d90:	21104300 	addu	v0,v0,v1
80105d94:	a00f020c 	jal	0x80083e80
80105d98:	2c0042ae 	sw	v0,44(s2)
80105d9c:	44004386 	lh	v1,68(s2)
80105da0:	00000000 	nop
80105da4:	18004300 	mult	v0,v1
80105da8:	3400428e 	lw	v0,52(s2)
80105dac:	12400000 	mflo	t0
80105db0:	03190800 	sra	v1,t0,0x4
80105db4:	23104300 	subu	v0,v0,v1
80105db8:	b83b0408 	j	0x8010eee0
80105dbc:	340042ae 	sw	v0,52(s2)
80105dc0:	21204002 	move	a0,s2
80105dc4:	02001024 	li	s0,2
80105dc8:	2b0040a2 	sb	zero,43(s2)
80105dcc:	8d32040c 	jal	0x8010ca34
80105dd0:	010050a2 	sb	s0,1(s2)
80105dd4:	5a000224 	li	v0,90
80105dd8:	400042a6 	sh	v0,64(s2)
80105ddc:	01000224 	li	v0,1
80105de0:	040042a2 	sb	v0,4(s2)
80105de4:	050042a2 	sb	v0,5(s2)
80105de8:	03000224 	li	v0,3
80105dec:	000050a2 	sb	s0,0(s2)
80105df0:	060042a2 	sb	v0,6(s2)
80105df4:	070040a2 	sb	zero,7(s2)
80105df8:	540040a6 	sh	zero,84(s2)
80105dfc:	580040a6 	sh	zero,88(s2)
80105e00:	b83b0408 	j	0x8010eee0
80105e04:	560040a6 	sh	zero,86(s2)
80105e08:	eab2010c 	jal	0x8006cba8
80105e0c:	2c004426 	addiu	a0,s2,44
80105e10:	44004296 	lhu	v0,68(s2)
80105e14:	00000000 	nop
80105e18:	f8ff4224 	addiu	v0,v0,-8
80105e1c:	440042a6 	sh	v0,68(s2)
80105e20:	00140200 	sll	v0,v0,0x10
80105e24:	03140200 	sra	v0,v0,0x10
80105e28:	10004228 	slti	v0,v0,16
80105e2c:	02004010 	beqz	v0,0x80105e38
80105e30:	10000224 	li	v0,16
80105e34:	440042a6 	sh	v0,68(s2)
80105e38:	44004296 	lhu	v0,68(s2)
80105e3c:	58004396 	lhu	v1,88(s2)
80105e40:	c0100200 	sll	v0,v0,0x3
80105e44:	21186200 	addu	v1,v1,v0
80105e48:	ff0f6430 	andi	a0,v1,0xfff
80105e4c:	44004386 	lh	v1,68(s2)
80105e50:	10000224 	li	v0,16
80105e54:	0a006214 	bne	v1,v0,0x80105e80
80105e58:	580044a6 	sh	a0,88(s2)
80105e5c:	80008224 	addiu	v0,a0,128
80105e60:	ff0f4230 	andi	v0,v0,0xfff
80105e64:	0101422c 	sltiu	v0,v0,257
80105e68:	05004010 	beqz	v0,0x80105e80
80105e6c:	00000000 	nop
80105e70:	06004292 	lbu	v0,6(s2)
80105e74:	580040a6 	sh	zero,88(s2)
80105e78:	01004224 	addiu	v0,v0,1
80105e7c:	060042a2 	sb	v0,6(s2)
80105e80:	56004486 	lh	a0,86(s2)
80105e84:	d40f020c 	jal	0x80083f50
80105e88:	00000000 	nop
80105e8c:	44004386 	lh	v1,68(s2)
80105e90:	00000000 	nop
80105e94:	18004300 	mult	v0,v1
80105e98:	56004486 	lh	a0,86(s2)
80105e9c:	12400000 	mflo	t0
80105ea0:	a00f020c 	jal	0x80083e80
80105ea4:	03830800 	sra	s0,t0,0xc
80105ea8:	44004386 	lh	v1,68(s2)
80105eac:	00000000 	nop
80105eb0:	18004300 	mult	v0,v1
80105eb4:	2e004296 	lhu	v0,46(s2)
80105eb8:	36004396 	lhu	v1,54(s2)
80105ebc:	21105000 	addu	v0,v0,s0
80105ec0:	2e0042a6 	sh	v0,46(s2)
80105ec4:	12400000 	mflo	t0
80105ec8:	23100800 	negu	v0,t0
80105ecc:	03130200 	sra	v0,v0,0xc
80105ed0:	21186200 	addu	v1,v1,v0
80105ed4:	b83b0408 	j	0x8010eee0
80105ed8:	360043a6 	sh	v1,54(s2)
80105edc:	21204002 	move	a0,s2
80105ee0:	801f023c 	lui	v0,0x1f80
80105ee4:	460240a0 	sb	zero,582(v0)
80105ee8:	02000224 	li	v0,2
80105eec:	010042a2 	sb	v0,1(s2)
80105ef0:	0a000224 	li	v0,10
80105ef4:	2b0040a2 	sb	zero,43(s2)
80105ef8:	8d32040c 	jal	0x8010ca34
80105efc:	000042a2 	sb	v0,0(s2)
80105f00:	01000224 	li	v0,1
80105f04:	040042a2 	sb	v0,4(s2)
80105f08:	050042a2 	sb	v0,5(s2)
80105f0c:	060040a2 	sb	zero,6(s2)
80105f10:	070040a2 	sb	zero,7(s2)
80105f14:	540040a6 	sh	zero,84(s2)
80105f18:	b83b0408 	j	0x8010eee0
80105f1c:	580040a6 	sh	zero,88(s2)
80105f20:	02000224 	li	v0,2
80105f24:	010042a2 	sb	v0,1(s2)
80105f28:	0c80023c 	lui	v0,0x800c
80105f2c:	50f8438c 	lw	v1,-1968(v0)
80105f30:	80000224 	li	v0,128
80105f34:	03006214 	bne	v1,v0,0x80105f44
80105f38:	05000224 	li	v0,5
80105f3c:	060042a2 	sb	v0,6(s2)
80105f40:	070040a2 	sb	zero,7(s2)
80105f44:	01004292 	lbu	v0,1(s2)
80105f48:	5e0040a2 	sb	zero,94(s2)
80105f4c:	290040a2 	sb	zero,41(s2)
80105f50:	09004014 	bnez	v0,0x80105f78
80105f54:	5f0040a2 	sb	zero,95(s2)
80105f58:	9fdf010c 	jal	0x80077e7c
80105f5c:	21204002 	move	a0,s2
80105f60:	01000224 	li	v0,1
80105f64:	010042a2 	sb	v0,1(s2)
80105f68:	4306010c 	jal	0x8004190c
80105f6c:	21204002 	move	a0,s2
80105f70:	3f46010c 	jal	0x800518fc
80105f74:	21204002 	move	a0,s2
80105f78:	3000bf8f 	lw	ra,48(sp)
80105f7c:	2c00b38f 	lw	s3,44(sp)
80105f80:	2800b28f 	lw	s2,40(sp)
80105f84:	2400b18f 	lw	s1,36(sp)
80105f88:	2000b08f 	lw	s0,32(sp)
80105f8c:	0800e003 	jr	ra
80105f90:	3800bd27 	addiu	sp,sp,56
80105f94:	e0ffbd27 	addiu	sp,sp,-32
80105f98:	1000b0af 	sw	s0,16(sp)
80105f9c:	21808000 	move	s0,a0
80105fa0:	01000424 	li	a0,1
80105fa4:	1800bfaf 	sw	ra,24(sp)
80105fa8:	1400b1af 	sw	s1,20(sp)
80105fac:	04000392 	lbu	v1,4(s0)
80105fb0:	1000118e 	lw	s1,16(s0)
80105fb4:	1c006410 	beq	v1,a0,0x80106028
80105fb8:	02006228 	slti	v0,v1,2
80105fbc:	05004010 	beqz	v0,0x80105fd4
80105fc0:	04006228 	slti	v0,v1,4
80105fc4:	07006010 	beqz	v1,0x80105fe4
80105fc8:	00080224 	li	v0,2048
80105fcc:	4c3c0408 	j	0x8010f130
80105fd0:	00000000 	nop
80105fd4:	6f004010 	beqz	v0,0x80106194
80105fd8:	00000000 	nop
80105fdc:	4a3c0408 	j	0x8010f128
80105fe0:	00000000 	nop
80105fe4:	040004a2 	sb	a0,4(s0)
80105fe8:	540000a6 	sh	zero,84(s0)
80105fec:	b8002396 	lhu	v1,184(s1)
80105ff0:	00000000 	nop
80105ff4:	04006214 	bne	v1,v0,0x80106008
80105ff8:	50000224 	li	v0,80
80105ffc:	400002a6 	sh	v0,64(s0)
80106000:	ec3b0408 	j	0x8010efb0
80106004:	6e000224 	li	v0,110
80106008:	a0000224 	li	v0,160
8010600c:	400002a6 	sh	v0,64(s0)
80106010:	dc000224 	li	v0,220
80106014:	420002a6 	sh	v0,66(s0)
80106018:	0e0000a6 	sh	zero,14(s0)
8010601c:	2b0000a2 	sb	zero,43(s0)
80106020:	4c3c0408 	j	0x8010f130
80106024:	460000a2 	sb	zero,70(s0)
80106028:	801f023c 	lui	v0,0x1f80
8010602c:	4c02428c 	lw	v0,588(v0)
80106030:	00000000 	nop
80106034:	07005110 	beq	v0,s1,0x80106054
80106038:	801f023c 	lui	v0,0x1f80
8010603c:	6002428c 	lw	v0,608(v0)
80106040:	00000000 	nop
80106044:	03004014 	bnez	v0,0x80106054
80106048:	03000224 	li	v0,3
8010604c:	4c3c0408 	j	0x8010f130
80106050:	040002a2 	sb	v0,4(s0)
80106054:	0000228e 	lw	v0,0(s1)
80106058:	00010324 	li	v1,256
8010605c:	0cff4230 	andi	v0,v0,0xff0c
80106060:	4c004314 	bne	v0,v1,0x80106194
80106064:	00000000 	nop
80106068:	2c00228e 	lw	v0,44(s1)
8010606c:	00000000 	nop
80106070:	2c0002ae 	sw	v0,44(s0)
80106074:	3000228e 	lw	v0,48(s1)
80106078:	00000000 	nop
8010607c:	300002ae 	sw	v0,48(s0)
80106080:	3400228e 	lw	v0,52(s1)
80106084:	32000586 	lh	a1,50(s0)
80106088:	340002ae 	sw	v0,52(s0)
8010608c:	2a002292 	lbu	v0,42(s1)
80106090:	21200002 	move	a0,s0
80106094:	7922010c 	jal	0x800489e4
80106098:	2a0002a2 	sb	v0,42(s0)
8010609c:	21384000 	move	a3,v0
801060a0:	01000224 	li	v0,1
801060a4:	1300e214 	bne	a3,v0,0x801060f4
801060a8:	801f043c 	lui	a0,0x1f80
801060ac:	32000386 	lh	v1,50(s0)
801060b0:	a4018284 	lh	v0,420(a0)
801060b4:	a4018694 	lhu	a2,420(a0)
801060b8:	2a104300 	slt	v0,v0,v1
801060bc:	0d004014 	bnez	v0,0x801060f4
801060c0:	801f023c 	lui	v0,0x1f80
801060c4:	801f033c 	lui	v1,0x1f80
801060c8:	2e000496 	lhu	a0,46(s0)
801060cc:	36000596 	lhu	a1,54(s0)
801060d0:	a0014294 	lhu	v0,416(v0)
801060d4:	a2016394 	lhu	v1,418(v1)
801060d8:	4a0006a6 	sh	a2,74(s0)
801060dc:	010007a2 	sb	a3,1(s0)
801060e0:	480004a6 	sh	a0,72(s0)
801060e4:	4c0005a6 	sh	a1,76(s0)
801060e8:	560002a6 	sh	v0,86(s0)
801060ec:	253c0408 	j	0x8010f094
801060f0:	580003a6 	sh	v1,88(s0)
801060f4:	010000a2 	sb	zero,1(s0)
801060f8:	01000292 	lbu	v0,1(s0)
801060fc:	00000000 	nop
80106100:	24004010 	beqz	v0,0x80106194
80106104:	00000000 	nop
80106108:	4a000286 	lh	v0,74(s0)
8010610c:	32002386 	lh	v1,50(s1)
80106110:	00000000 	nop
80106114:	23104300 	subu	v0,v0,v1
80106118:	03110200 	sra	v0,v0,0x4
8010611c:	80000324 	li	v1,128
80106120:	23106200 	subu	v0,v1,v0
80106124:	04004104 	bgez	v0,0x80106138
80106128:	4e0002a6 	sh	v0,78(s0)
8010612c:	4e0000a6 	sh	zero,78(s0)
80106130:	393c0408 	j	0x8010f0e4
80106134:	010000a2 	sb	zero,1(s0)
80106138:	81004228 	slti	v0,v0,129
8010613c:	02004014 	bnez	v0,0x80106148
80106140:	00000000 	nop
80106144:	4e0003a6 	sh	v1,78(s0)
80106148:	4a000286 	lh	v0,74(s0)
8010614c:	32002386 	lh	v1,50(s1)
80106150:	00000000 	nop
80106154:	23104300 	subu	v0,v0,v1
80106158:	03110200 	sra	v0,v0,0x4
8010615c:	00010324 	li	v1,256
80106160:	23106200 	subu	v0,v1,v0
80106164:	04004104 	bgez	v0,0x80106178
80106168:	500002a6 	sh	v0,80(s0)
8010616c:	500000a6 	sh	zero,80(s0)
80106170:	4c3c0408 	j	0x8010f130
80106174:	010000a2 	sb	zero,1(s0)
80106178:	01014228 	slti	v0,v0,257
8010617c:	05004014 	bnez	v0,0x80106194
80106180:	00000000 	nop
80106184:	4c3c0408 	j	0x8010f130
80106188:	500003a6 	sh	v1,80(s0)
8010618c:	89e9010c 	jal	0x8007a624
80106190:	21200002 	move	a0,s0
80106194:	1800bf8f 	lw	ra,24(sp)
80106198:	1400b18f 	lw	s1,20(sp)
8010619c:	1000b08f 	lw	s0,16(sp)
801061a0:	0800e003 	jr	ra
801061a4:	2000bd27 	addiu	sp,sp,32
801061a8:	e0ffbd27 	addiu	sp,sp,-32
801061ac:	1000b0af 	sw	s0,16(sp)
801061b0:	21808000 	move	s0,a0
801061b4:	0e80023c 	lui	v0,0x800e
801061b8:	1800bfaf 	sw	ra,24(sp)
801061bc:	1400b1af 	sw	s1,20(sp)
801061c0:	06000392 	lbu	v1,6(s0)
801061c4:	807e5124 	addiu	s1,v0,32384
801061c8:	0900622c 	sltiu	v0,v1,9
801061cc:	af004010 	beqz	v0,0x8010648c
801061d0:	1180023c 	lui	v0,0x8011
801061d4:	38914224 	addiu	v0,v0,-28360
801061d8:	80180300 	sll	v1,v1,0x2
801061dc:	21186200 	addu	v1,v1,v0
801061e0:	0000628c 	lw	v0,0(v1)
801061e4:	00000000 	nop
801061e8:	08004000 	jr	v0
801061ec:	00000000 	nop
801061f0:	21202002 	move	a0,s1
801061f4:	73000524 	li	a1,115
801061f8:	21300000 	move	a2,zero
801061fc:	22000224 	li	v0,34
80106200:	050082a0 	sb	v0,5(a0)
80106204:	02000224 	li	v0,2
80106208:	4553010c 	jal	0x80054d14
8010620c:	060082a0 	sb	v0,6(a0)
80106210:	21200000 	move	a0,zero
80106214:	01000524 	li	a1,1
80106218:	03000624 	li	a2,3
8010621c:	77cb010c 	jal	0x80072ddc
80106220:	21000724 	li	a3,33
80106224:	21184000 	move	v1,v0
80106228:	03006010 	beqz	v1,0x80106238
8010622c:	1180023c 	lui	v0,0x8011
80106230:	78c74224 	addiu	v0,v0,-14472
80106234:	1c0062ac 	sw	v0,28(v1)
80106238:	06000292 	lbu	v0,6(s0)
8010623c:	140003ae 	sw	v1,20(s0)
80106240:	01004224 	addiu	v0,v0,1
80106244:	0a3d0408 	j	0x8010f428
80106248:	060002a2 	sb	v0,6(s0)
8010624c:	0c80023c 	lui	v0,0x800c
80106250:	0ff84290 	lbu	v0,-2033(v0)
80106254:	00000000 	nop
80106258:	8c004014 	bnez	v0,0x8010648c
8010625c:	1280033c 	lui	v1,0x8012
80106260:	06000292 	lbu	v0,6(s0)
80106264:	00000000 	nop
80106268:	01004224 	addiu	v0,v0,1
8010626c:	060002a2 	sb	v0,6(s0)
80106270:	0c80023c 	lui	v0,0x800c
80106274:	060020a2 	sb	zero,6(s1)
80106278:	70f84290 	lbu	v0,-1936(v0)
8010627c:	44a56324 	addiu	v1,v1,-23228
80106280:	f6ff4224 	addiu	v0,v0,-10
80106284:	80100200 	sll	v0,v0,0x2
80106288:	21104300 	addu	v0,v0,v1
8010628c:	0000448c 	lw	a0,0(v0)
80106290:	8135010c 	jal	0x8004d604
80106294:	01000524 	li	a1,1
80106298:	0a3d0408 	j	0x8010f428
8010629c:	00000000 	nop
801062a0:	0c80023c 	lui	v0,0x800c
801062a4:	0ef84290 	lbu	v0,-2034(v0)
801062a8:	00000000 	nop
801062ac:	77004010 	beqz	v0,0x8010648c
801062b0:	21202002 	move	a0,s1
801062b4:	ea000524 	li	a1,234
801062b8:	06000292 	lbu	v0,6(s0)
801062bc:	02000624 	li	a2,2
801062c0:	01004224 	addiu	v0,v0,1
801062c4:	4553010c 	jal	0x80054d14
801062c8:	060002a2 	sb	v0,6(s0)
801062cc:	0a3d0408 	j	0x8010f428
801062d0:	060020a2 	sb	zero,6(s1)
801062d4:	0c80023c 	lui	v0,0x800c
801062d8:	0ef84290 	lbu	v0,-2034(v0)
801062dc:	00000000 	nop
801062e0:	6a004010 	beqz	v0,0x8010648c
801062e4:	00000000 	nop
801062e8:	06000292 	lbu	v0,6(s0)
801062ec:	1400038e 	lw	v1,20(s0)
801062f0:	01004224 	addiu	v0,v0,1
801062f4:	060002a2 	sb	v0,6(s0)
801062f8:	01000224 	li	v0,1
801062fc:	050062a0 	sb	v0,5(v1)
80106300:	0a000224 	li	v0,10
80106304:	0a3d0408 	j	0x8010f428
80106308:	400002a6 	sh	v0,64(s0)
8010630c:	40000296 	lhu	v0,64(s0)
80106310:	00000000 	nop
80106314:	ffff4224 	addiu	v0,v0,-1
80106318:	400002a6 	sh	v0,64(s0)
8010631c:	00140200 	sll	v0,v0,0x10
80106320:	5a004014 	bnez	v0,0x8010648c
80106324:	21202002 	move	a0,s1
80106328:	02000524 	li	a1,2
8010632c:	06000292 	lbu	v0,6(s0)
80106330:	05000624 	li	a2,5
80106334:	01004224 	addiu	v0,v0,1
80106338:	060002a2 	sb	v0,6(s0)
8010633c:	4553010c 	jal	0x80054d14
80106340:	060080a0 	sb	zero,6(a0)
80106344:	0a3d0408 	j	0x8010f428
80106348:	00000000 	nop
8010634c:	0c80023c 	lui	v0,0x800c
80106350:	0ef84290 	lbu	v0,-2034(v0)
80106354:	00000000 	nop
80106358:	4c004010 	beqz	v0,0x8010648c
8010635c:	00000000 	nop
80106360:	06000292 	lbu	v0,6(s0)
80106364:	00000000 	nop
80106368:	01004224 	addiu	v0,v0,1
8010636c:	060002a2 	sb	v0,6(s0)
80106370:	64000224 	li	v0,100
80106374:	060020a2 	sb	zero,6(s1)
80106378:	0a3d0408 	j	0x8010f428
8010637c:	400002a6 	sh	v0,64(s0)
80106380:	40000296 	lhu	v0,64(s0)
80106384:	00000000 	nop
80106388:	ffff4224 	addiu	v0,v0,-1
8010638c:	400002a6 	sh	v0,64(s0)
80106390:	00140200 	sll	v0,v0,0x10
80106394:	3d004014 	bnez	v0,0x8010648c
80106398:	21202002 	move	a0,s1
8010639c:	01000524 	li	a1,1
801063a0:	06000292 	lbu	v0,6(s0)
801063a4:	05000624 	li	a2,5
801063a8:	21104500 	addu	v0,v0,a1
801063ac:	060002a2 	sb	v0,6(s0)
801063b0:	4553010c 	jal	0x80054d14
801063b4:	060080a0 	sb	zero,6(a0)
801063b8:	14000224 	li	v0,20
801063bc:	0a3d0408 	j	0x8010f428
801063c0:	400002a6 	sh	v0,64(s0)
801063c4:	40000286 	lh	v0,64(s0)
801063c8:	40000396 	lhu	v1,64(s0)
801063cc:	0c004014 	bnez	v0,0x80106400
801063d0:	ffff6224 	addiu	v0,v1,-1
801063d4:	0c80023c 	lui	v0,0x800c
801063d8:	0ef84290 	lbu	v0,-2034(v0)
801063dc:	00000000 	nop
801063e0:	2a004010 	beqz	v0,0x8010648c
801063e4:	00000000 	nop
801063e8:	06000292 	lbu	v0,6(s0)
801063ec:	00000000 	nop
801063f0:	01004224 	addiu	v0,v0,1
801063f4:	060002a2 	sb	v0,6(s0)
801063f8:	0a3d0408 	j	0x8010f428
801063fc:	060020a2 	sb	zero,6(s1)
80106400:	0a3d0408 	j	0x8010f428
80106404:	400002a6 	sh	v0,64(s0)
80106408:	0f80023c 	lui	v0,0x800f
8010640c:	08804424 	addiu	a0,v0,-32760
80106410:	64008390 	lbu	v1,100(a0)
80106414:	07000224 	li	v0,7
80106418:	1c006210 	beq	v1,v0,0x8010648c
8010641c:	1280053c 	lui	a1,0x8012
80106420:	05000292 	lbu	v0,5(s0)
80106424:	bc82a524 	addiu	a1,a1,-32068
80106428:	060000a2 	sb	zero,6(s0)
8010642c:	6a0000a6 	sh	zero,106(s0)
80106430:	01004224 	addiu	v0,v0,1
80106434:	f4b2010c 	jal	0x8006cbd0
80106438:	050002a2 	sb	v0,5(s0)
8010643c:	6a000286 	lh	v0,106(s0)
80106440:	00000000 	nop
80106444:	40180200 	sll	v1,v0,0x1
80106448:	21186200 	addu	v1,v1,v0
8010644c:	40180300 	sll	v1,v1,0x1
80106450:	1280023c 	lui	v0,0x8012
80106454:	e0974224 	addiu	v0,v0,-26656
80106458:	21186200 	addu	v1,v1,v0
8010645c:	00006294 	lhu	v0,0(v1)
80106460:	00000000 	nop
80106464:	2e0002a6 	sh	v0,46(s0)
80106468:	02006294 	lhu	v0,2(v1)
8010646c:	07000424 	li	a0,7
80106470:	320002a6 	sh	v0,50(s0)
80106474:	6a000296 	lhu	v0,106(s0)
80106478:	04006394 	lhu	v1,4(v1)
8010647c:	01004224 	addiu	v0,v0,1
80106480:	6a0002a6 	sh	v0,106(s0)
80106484:	70b8010c 	jal	0x8006e1c0
80106488:	360003a6 	sh	v1,54(s0)
8010648c:	1800bf8f 	lw	ra,24(sp)
80106490:	1400b18f 	lw	s1,20(sp)
80106494:	1000b08f 	lw	s0,16(sp)
80106498:	0800e003 	jr	ra
8010649c:	2000bd27 	addiu	sp,sp,32
801064a0:	e0ffbd27 	addiu	sp,sp,-32
801064a4:	1400b1af 	sw	s1,20(sp)
801064a8:	21888000 	move	s1,a0
801064ac:	1c00bfaf 	sw	ra,28(sp)
801064b0:	1800b2af 	sw	s2,24(sp)
801064b4:	1000b0af 	sw	s0,16(sp)
801064b8:	72002296 	lhu	v0,114(s1)
801064bc:	00000000 	nop
801064c0:	feff5230 	andi	s2,v0,0xfffe
801064c4:	01004230 	andi	v0,v0,0x1
801064c8:	03004014 	bnez	v0,0x801064d8
801064cc:	801f023c 	lui	v0,0x1f80
801064d0:	1e3d0408 	j	0x8010f478
801064d4:	21802002 	move	s0,s1
801064d8:	1402508c 	lw	s0,532(v0)
801064dc:	801f023c 	lui	v0,0x1f80
801064e0:	78002392 	lbu	v1,120(s1)
801064e4:	4802428c 	lw	v0,584(v0)
801064e8:	06006010 	beqz	v1,0x80106504
801064ec:	00000000 	nop
801064f0:	01000224 	li	v0,1
801064f4:	1e006210 	beq	v1,v0,0x80106570
801064f8:	21100000 	move	v0,zero
801064fc:	4b3d0408 	j	0x8010f52c
80106500:	00000000 	nop
80106504:	36000386 	lh	v1,54(s0)
80106508:	36004484 	lh	a0,54(v0)
8010650c:	2e004284 	lh	v0,46(v0)
80106510:	2e000586 	lh	a1,46(s0)
80106514:	23206400 	subu	a0,v1,a0
80106518:	a415020c 	jal	0x80085690
8010651c:	23284500 	subu	a1,v0,a1
80106520:	ff0f4430 	andi	a0,v0,0xfff
80106524:	001c1200 	sll	v1,s2,0x10
80106528:	640024a6 	sh	a0,100(s1)
8010652c:	56000286 	lh	v0,86(s0)
80106530:	031c0300 	sra	v1,v1,0x10
80106534:	23108200 	subu	v0,a0,v0
80106538:	ff0f4230 	andi	v0,v0,0xfff
8010653c:	2a104300 	slt	v0,v0,v1
80106540:	03004014 	bnez	v0,0x80106550
80106544:	00000000 	nop
80106548:	0400601c 	bgtz	v1,0x8010655c
8010654c:	00000000 	nop
80106550:	560004a6 	sh	a0,86(s0)
80106554:	4b3d0408 	j	0x8010f52c
80106558:	01000224 	li	v0,1
8010655c:	78002292 	lbu	v0,120(s1)
80106560:	00000000 	nop
80106564:	01004224 	addiu	v0,v0,1
80106568:	4a3d0408 	j	0x8010f528
8010656c:	780022a2 	sb	v0,120(s1)
80106570:	21200002 	move	a0,s0
80106574:	64002586 	lh	a1,100(s1)
80106578:	00341200 	sll	a2,s2,0x10
8010657c:	0e05010c 	jal	0x80041438
80106580:	03340600 	sra	a2,a2,0x10
80106584:	4b3d0408 	j	0x8010f52c
80106588:	00000000 	nop
8010658c:	21100000 	move	v0,zero
80106590:	1c00bf8f 	lw	ra,28(sp)
80106594:	1800b28f 	lw	s2,24(sp)
80106598:	1400b18f 	lw	s1,20(sp)
8010659c:	1000b08f 	lw	s0,16(sp)
801065a0:	0800e003 	jr	ra
801065a4:	2000bd27 	addiu	sp,sp,32
801065a8:	0c80023c 	lui	v0,0x800c
801065ac:	09f84290 	lbu	v0,-2039(v0)
801065b0:	d8ffbd27 	addiu	sp,sp,-40
801065b4:	1400b1af 	sw	s1,20(sp)
801065b8:	21888000 	move	s1,a0
801065bc:	2000bfaf 	sw	ra,32(sp)
801065c0:	1c00b3af 	sw	s3,28(sp)
801065c4:	1800b2af 	sw	s2,24(sp)
801065c8:	15014014 	bnez	v0,0x80106a20
801065cc:	1000b0af 	sw	s0,16(sp)
801065d0:	06002392 	lbu	v1,6(s1)
801065d4:	00000000 	nop
801065d8:	0500622c 	sltiu	v0,v1,5
801065dc:	10014010 	beqz	v0,0x80106a20
801065e0:	1180023c 	lui	v0,0x8011
801065e4:	60914224 	addiu	v0,v0,-28320
801065e8:	80180300 	sll	v1,v1,0x2
801065ec:	21186200 	addu	v1,v1,v0
801065f0:	0000628c 	lw	v0,0(v1)
801065f4:	00000000 	nop
801065f8:	08004000 	jr	v0
801065fc:	00000000 	nop
80106600:	801f023c 	lui	v0,0x1f80
80106604:	60014584 	lh	a1,352(v0)
80106608:	801f023c 	lui	v0,0x1f80
8010660c:	64014684 	lh	a2,356(v0)
80106610:	ace0010c 	jal	0x800782b0
80106614:	2c002426 	addiu	a0,s1,44
80106618:	00140200 	sll	v0,v0,0x10
8010661c:	03240200 	sra	a0,v0,0x10
80106620:	60002586 	lh	a1,96(s1)
80106624:	dadd010c 	jal	0x80077768
80106628:	21300000 	move	a2,zero
8010662c:	03004010 	beqz	v0,0x8010663c
80106630:	01000224 	li	v0,1
80106634:	773d0408 	j	0x8010f5dc
80106638:	be0022a2 	sb	v0,190(s1)
8010663c:	be0020a2 	sb	zero,190(s1)
80106640:	801f023c 	lui	v0,0x1f80
80106644:	5a024290 	lbu	v0,602(v0)
80106648:	00000000 	nop
8010664c:	0200422c 	sltiu	v0,v0,2
80106650:	05004014 	bnez	v0,0x80106668
80106654:	01000224 	li	v0,1
80106658:	400022a6 	sh	v0,64(s1)
8010665c:	03000224 	li	v0,3
80106660:	6f3e0408 	j	0x8010f9bc
80106664:	060022a2 	sb	v0,6(s1)
80106668:	06002292 	lbu	v0,6(s1)
8010666c:	00000000 	nop
80106670:	01004224 	addiu	v0,v0,1
80106674:	060022a2 	sb	v0,6(s1)
80106678:	be002292 	lbu	v0,190(s1)
8010667c:	00000000 	nop
80106680:	04004014 	bnez	v0,0x80106694
80106684:	00000000 	nop
80106688:	60002296 	lhu	v0,96(s1)
8010668c:	903d0408 	j	0x8010f640
80106690:	ff0f5030 	andi	s0,v0,0xfff
80106694:	60002296 	lhu	v0,96(s1)
80106698:	00000000 	nop
8010669c:	00084224 	addiu	v0,v0,2048
801066a0:	ff0f5030 	andi	s0,v0,0xfff
801066a4:	21200002 	move	a0,s0
801066a8:	56002586 	lh	a1,86(s1)
801066ac:	bedd010c 	jal	0x800776f8
801066b0:	00010624 	li	a2,256
801066b4:	560022a6 	sh	v0,86(s1)
801066b8:	00140200 	sll	v0,v0,0x10
801066bc:	03140200 	sra	v0,v0,0x10
801066c0:	d7005014 	bne	v0,s0,0x80106a20
801066c4:	21202002 	move	a0,s1
801066c8:	0c000524 	li	a1,12
801066cc:	da05010c 	jal	0x80041768
801066d0:	05000624 	li	a2,5
801066d4:	06002292 	lbu	v0,6(s1)
801066d8:	00e00324 	li	v1,-8192
801066dc:	440023a6 	sh	v1,68(s1)
801066e0:	01004224 	addiu	v0,v0,1
801066e4:	6f3e0408 	j	0x8010f9bc
801066e8:	060022a2 	sb	v0,6(s1)
801066ec:	be002292 	lbu	v0,190(s1)
801066f0:	00000000 	nop
801066f4:	04004014 	bnez	v0,0x80106708
801066f8:	00000000 	nop
801066fc:	60002296 	lhu	v0,96(s1)
80106700:	ad3d0408 	j	0x8010f6b4
80106704:	ff0f5030 	andi	s0,v0,0xfff
80106708:	60002296 	lhu	v0,96(s1)
8010670c:	00000000 	nop
80106710:	00084224 	addiu	v0,v0,2048
80106714:	ff0f5030 	andi	s0,v0,0xfff
80106718:	44002296 	lhu	v0,68(s1)
8010671c:	00000000 	nop
80106720:	80004224 	addiu	v0,v0,128
80106724:	440022a6 	sh	v0,68(s1)
80106728:	00140200 	sll	v0,v0,0x10
8010672c:	02004018 	blez	v0,0x80106738
80106730:	00000000 	nop
80106734:	440020a6 	sh	zero,68(s1)
80106738:	d40f020c 	jal	0x80083f50
8010673c:	21200002 	move	a0,s0
80106740:	44002386 	lh	v1,68(s1)
80106744:	00000000 	nop
80106748:	18004300 	mult	v0,v1
8010674c:	21200002 	move	a0,s0
80106750:	2c00228e 	lw	v0,44(s1)
80106754:	12400000 	mflo	t0
80106758:	03190800 	sra	v1,t0,0x4
8010675c:	21104300 	addu	v0,v0,v1
80106760:	a00f020c 	jal	0x80083e80
80106764:	2c0022ae 	sw	v0,44(s1)
80106768:	44002386 	lh	v1,68(s1)
8010676c:	00000000 	nop
80106770:	18004300 	mult	v0,v1
80106774:	5f002492 	lbu	a0,95(s1)
80106778:	3400228e 	lw	v0,52(s1)
8010677c:	12400000 	mflo	t0
80106780:	03190800 	sra	v1,t0,0x4
80106784:	23104300 	subu	v0,v0,v1
80106788:	2d008014 	bnez	a0,0x80106840
8010678c:	340022ae 	sw	v0,52(s1)
80106790:	84002496 	lhu	a0,132(s1)
80106794:	86002286 	lh	v0,134(s1)
80106798:	00240400 	sll	a0,a0,0x10
8010679c:	032c0400 	sra	a1,a0,0x10
801067a0:	23104500 	subu	v0,v0,a1
801067a4:	c21f0200 	srl	v1,v0,0x1f
801067a8:	21104300 	addu	v0,v0,v1
801067ac:	42300200 	srl	a2,v0,0x1
801067b0:	c2270400 	srl	a0,a0,0x1f
801067b4:	2128a400 	addu	a1,a1,a0
801067b8:	42980500 	srl	s3,a1,0x1
801067bc:	be002292 	lbu	v0,190(s1)
801067c0:	80002596 	lhu	a1,128(s1)
801067c4:	04004014 	bnez	v0,0x801067d8
801067c8:	21202002 	move	a0,s1
801067cc:	60002396 	lhu	v1,96(s1)
801067d0:	e13d0408 	j	0x8010f784
801067d4:	00140500 	sll	v0,a1,0x10
801067d8:	60002296 	lhu	v0,96(s1)
801067dc:	00000000 	nop
801067e0:	00084324 	addiu	v1,v0,2048
801067e4:	00140500 	sll	v0,a1,0x10
801067e8:	03940200 	sra	s2,v0,0x10
801067ec:	21284002 	move	a1,s2
801067f0:	00340600 	sll	a2,a2,0x10
801067f4:	03340600 	sra	a2,a2,0x10
801067f8:	00140300 	sll	v0,v1,0x10
801067fc:	03840200 	sra	s0,v0,0x10
80106800:	2b17010c 	jal	0x80045cac
80106804:	21380002 	move	a3,s0
80106808:	09004014 	bnez	v0,0x80106830
8010680c:	21202002 	move	a0,s1
80106810:	21284002 	move	a1,s2
80106814:	23301300 	negu	a2,s3
80106818:	00340600 	sll	a2,a2,0x10
8010681c:	03340600 	sra	a2,a2,0x10
80106820:	2b17010c 	jal	0x80045cac
80106824:	21380002 	move	a3,s0
80106828:	05004010 	beqz	v0,0x80106840
8010682c:	00000000 	nop
80106830:	be002292 	lbu	v0,190(s1)
80106834:	00000000 	nop
80106838:	02004224 	addiu	v0,v0,2
8010683c:	5f0022a2 	sb	v0,95(s1)
80106840:	b006010c 	jal	0x80041ac0
80106844:	21202002 	move	a0,s1
80106848:	29002292 	lbu	v0,41(s1)
8010684c:	00000000 	nop
80106850:	1f004014 	bnez	v0,0x801068d0
80106854:	00000000 	nop
80106858:	be002292 	lbu	v0,190(s1)
8010685c:	00000000 	nop
80106860:	04004014 	bnez	v0,0x80106874
80106864:	21202002 	move	a0,s1
80106868:	60002296 	lhu	v0,96(s1)
8010686c:	083e0408 	j	0x8010f820
80106870:	21280000 	move	a1,zero
80106874:	60002296 	lhu	v0,96(s1)
80106878:	00000000 	nop
8010687c:	00084224 	addiu	v0,v0,2048
80106880:	21280000 	move	a1,zero
80106884:	003c0200 	sll	a3,v0,0x10
80106888:	86002696 	lhu	a2,134(s1)
8010688c:	84002296 	lhu	v0,132(s1)
80106890:	033c0700 	sra	a3,a3,0x10
80106894:	2330c200 	subu	a2,a2,v0
80106898:	5000c624 	addiu	a2,a2,80
8010689c:	00340600 	sll	a2,a2,0x10
801068a0:	7015010c 	jal	0x800455c0
801068a4:	03340600 	sra	a2,a2,0x10
801068a8:	21184000 	move	v1,v0
801068ac:	ff006230 	andi	v0,v1,0xff
801068b0:	07004010 	beqz	v0,0x801068d0
801068b4:	290023a2 	sb	v1,41(s1)
801068b8:	01006330 	andi	v1,v1,0x1
801068bc:	21106000 	move	v0,v1
801068c0:	03004010 	beqz	v0,0x801068d0
801068c4:	290023a2 	sb	v1,41(s1)
801068c8:	80006234 	ori	v0,v1,0x80
801068cc:	290022a2 	sb	v0,41(s1)
801068d0:	be002292 	lbu	v0,190(s1)
801068d4:	00000000 	nop
801068d8:	04004014 	bnez	v0,0x801068ec
801068dc:	00000000 	nop
801068e0:	60002296 	lhu	v0,96(s1)
801068e4:	263e0408 	j	0x8010f898
801068e8:	ff0f4430 	andi	a0,v0,0xfff
801068ec:	60002296 	lhu	v0,96(s1)
801068f0:	00000000 	nop
801068f4:	00084224 	addiu	v0,v0,2048
801068f8:	ff0f4430 	andi	a0,v0,0xfff
801068fc:	56002586 	lh	a1,86(s1)
80106900:	bedd010c 	jal	0x800776f8
80106904:	00010624 	li	a2,256
80106908:	3800238e 	lw	v1,56(s1)
8010690c:	560022a6 	sh	v0,86(s1)
80106910:	02006394 	lhu	v1,2(v1)
80106914:	09000224 	li	v0,9
80106918:	41006214 	bne	v1,v0,0x80106a20
8010691c:	86000424 	li	a0,134
80106920:	21280000 	move	a1,zero
80106924:	06002292 	lbu	v0,6(s1)
80106928:	2130a000 	move	a2,a1
8010692c:	01004224 	addiu	v0,v0,1
80106930:	64d1010c 	jal	0x80074590
80106934:	060022a2 	sb	v0,6(s1)
80106938:	21202002 	move	a0,s1
8010693c:	be002692 	lbu	a2,190(s1)
80106940:	6e5d040c 	jal	0x801175b8
80106944:	21280000 	move	a1,zero
80106948:	28000224 	li	v0,40
8010694c:	6f3e0408 	j	0x8010f9bc
80106950:	400022a6 	sh	v0,64(s1)
80106954:	40002296 	lhu	v0,64(s1)
80106958:	00000000 	nop
8010695c:	ffff4224 	addiu	v0,v0,-1
80106960:	400022a6 	sh	v0,64(s1)
80106964:	00140200 	sll	v0,v0,0x10
80106968:	2d004014 	bnez	v0,0x80106a20
8010696c:	21202002 	move	a0,s1
80106970:	21280000 	move	a1,zero
80106974:	06002292 	lbu	v0,6(s1)
80106978:	06000624 	li	a2,6
8010697c:	01004224 	addiu	v0,v0,1
80106980:	da05010c 	jal	0x80041768
80106984:	060022a2 	sb	v0,6(s1)
80106988:	3c000224 	li	v0,60
8010698c:	6f3e0408 	j	0x8010f9bc
80106990:	400022a6 	sh	v0,64(s1)
80106994:	40002286 	lh	v0,64(s1)
80106998:	00000000 	nop
8010699c:	0a004228 	slti	v0,v0,10
801069a0:	11004010 	beqz	v0,0x801069e8
801069a4:	00000000 	nop
801069a8:	5232040c 	jal	0x8010c948
801069ac:	21202002 	move	a0,s1
801069b0:	0d004010 	beqz	v0,0x801069e8
801069b4:	21202002 	move	a0,s1
801069b8:	03000524 	li	a1,3
801069bc:	04000624 	li	a2,4
801069c0:	02000224 	li	v0,2
801069c4:	da05010c 	jal	0x80041768
801069c8:	000022a2 	sb	v0,0(s1)
801069cc:	8d32040c 	jal	0x8010ca34
801069d0:	21202002 	move	a0,s1
801069d4:	01000224 	li	v0,1
801069d8:	050022a2 	sb	v0,5(s1)
801069dc:	060022a2 	sb	v0,6(s1)
801069e0:	6f3e0408 	j	0x8010f9bc
801069e4:	070020a2 	sb	zero,7(s1)
801069e8:	40002296 	lhu	v0,64(s1)
801069ec:	00000000 	nop
801069f0:	ffff4224 	addiu	v0,v0,-1
801069f4:	400022a6 	sh	v0,64(s1)
801069f8:	00140200 	sll	v0,v0,0x10
801069fc:	08004014 	bnez	v0,0x80106a20
80106a00:	02000224 	li	v0,2
80106a04:	64002386 	lh	v1,100(s1)
80106a08:	00000000 	nop
80106a0c:	02006210 	beq	v1,v0,0x80106a18
80106a10:	00000000 	nop
80106a14:	050020a2 	sb	zero,5(s1)
80106a18:	060020a2 	sb	zero,6(s1)
80106a1c:	640020a6 	sh	zero,100(s1)
80106a20:	2000bf8f 	lw	ra,32(sp)
80106a24:	1c00b38f 	lw	s3,28(sp)
80106a28:	1800b28f 	lw	s2,24(sp)
80106a2c:	1400b18f 	lw	s1,20(sp)
80106a30:	1000b08f 	lw	s0,16(sp)
80106a34:	0800e003 	jr	ra
80106a38:	2800bd27 	addiu	sp,sp,40
80106a3c:	0c80023c 	lui	v0,0x800c
80106a40:	09f84290 	lbu	v0,-2039(v0)
80106a44:	e0ffbd27 	addiu	sp,sp,-32
80106a48:	1400b1af 	sw	s1,20(sp)
80106a4c:	21888000 	move	s1,a0
80106a50:	1800bfaf 	sw	ra,24(sp)
80106a54:	85004014 	bnez	v0,0x80106c6c
80106a58:	1000b0af 	sw	s0,16(sp)
80106a5c:	06002392 	lbu	v1,6(s1)
80106a60:	00000000 	nop
80106a64:	0500622c 	sltiu	v0,v1,5
80106a68:	80004010 	beqz	v0,0x80106c6c
80106a6c:	1180023c 	lui	v0,0x8011
80106a70:	78914224 	addiu	v0,v0,-28296
80106a74:	80180300 	sll	v1,v1,0x2
80106a78:	21186200 	addu	v1,v1,v0
80106a7c:	0000628c 	lw	v0,0(v1)
80106a80:	00000000 	nop
80106a84:	08004000 	jr	v0
80106a88:	00000000 	nop
80106a8c:	801f023c 	lui	v0,0x1f80
80106a90:	60014584 	lh	a1,352(v0)
80106a94:	801f023c 	lui	v0,0x1f80
80106a98:	64014684 	lh	a2,356(v0)
80106a9c:	ace0010c 	jal	0x800782b0
80106aa0:	2c002426 	addiu	a0,s1,44
80106aa4:	00140200 	sll	v0,v0,0x10
80106aa8:	03240200 	sra	a0,v0,0x10
80106aac:	60002586 	lh	a1,96(s1)
80106ab0:	dadd010c 	jal	0x80077768
80106ab4:	21300000 	move	a2,zero
80106ab8:	03004010 	beqz	v0,0x80106ac8
80106abc:	01000224 	li	v0,1
80106ac0:	9a3e0408 	j	0x8010fa68
80106ac4:	be0022a2 	sb	v0,190(s1)
80106ac8:	be0020a2 	sb	zero,190(s1)
80106acc:	801f023c 	lui	v0,0x1f80
80106ad0:	5a024290 	lbu	v0,602(v0)
80106ad4:	00000000 	nop
80106ad8:	22004010 	beqz	v0,0x80106b64
80106adc:	03000224 	li	v0,3
80106ae0:	640022a6 	sh	v0,100(s1)
80106ae4:	02000224 	li	v0,2
80106ae8:	050022a2 	sb	v0,5(s1)
80106aec:	060020a2 	sb	zero,6(s1)
80106af0:	023f0408 	j	0x8010fc08
80106af4:	070020a2 	sb	zero,7(s1)
80106af8:	5232040c 	jal	0x8010c948
80106afc:	21202002 	move	a0,s1
80106b00:	44004014 	bnez	v0,0x80106c14
80106b04:	21202002 	move	a0,s1
80106b08:	be002292 	lbu	v0,190(s1)
80106b0c:	00000000 	nop
80106b10:	04004014 	bnez	v0,0x80106b24
80106b14:	00000000 	nop
80106b18:	60002296 	lhu	v0,96(s1)
80106b1c:	b43e0408 	j	0x8010fad0
80106b20:	ff0f5030 	andi	s0,v0,0xfff
80106b24:	60002296 	lhu	v0,96(s1)
80106b28:	00000000 	nop
80106b2c:	00084224 	addiu	v0,v0,2048
80106b30:	ff0f5030 	andi	s0,v0,0xfff
80106b34:	21200002 	move	a0,s0
80106b38:	56002586 	lh	a1,86(s1)
80106b3c:	bedd010c 	jal	0x800776f8
80106b40:	00010624 	li	a2,256
80106b44:	560022a6 	sh	v0,86(s1)
80106b48:	00140200 	sll	v0,v0,0x10
80106b4c:	03140200 	sra	v0,v0,0x10
80106b50:	46005014 	bne	v0,s0,0x80106c6c
80106b54:	21202002 	move	a0,s1
80106b58:	0d000524 	li	a1,13
80106b5c:	da05010c 	jal	0x80041768
80106b60:	05000624 	li	a2,5
80106b64:	06002292 	lbu	v0,6(s1)
80106b68:	00000000 	nop
80106b6c:	01004224 	addiu	v0,v0,1
80106b70:	023f0408 	j	0x8010fc08
80106b74:	060022a2 	sb	v0,6(s1)
80106b78:	79002392 	lbu	v1,121(s1)
80106b7c:	01000224 	li	v0,1
80106b80:	3a006214 	bne	v1,v0,0x80106c6c
80106b84:	8c000424 	li	a0,140
80106b88:	21280000 	move	a1,zero
80106b8c:	06002292 	lbu	v0,6(s1)
80106b90:	2130a000 	move	a2,a1
80106b94:	01004224 	addiu	v0,v0,1
80106b98:	64d1010c 	jal	0x80074590
80106b9c:	060022a2 	sb	v0,6(s1)
80106ba0:	f65f040c 	jal	0x80117fd8
80106ba4:	21202002 	move	a0,s1
80106ba8:	28000224 	li	v0,40
80106bac:	023f0408 	j	0x8010fc08
80106bb0:	400022a6 	sh	v0,64(s1)
80106bb4:	5232040c 	jal	0x8010c948
80106bb8:	21202002 	move	a0,s1
80106bbc:	15004014 	bnez	v0,0x80106c14
80106bc0:	21202002 	move	a0,s1
80106bc4:	40002296 	lhu	v0,64(s1)
80106bc8:	00000000 	nop
80106bcc:	ffff4224 	addiu	v0,v0,-1
80106bd0:	400022a6 	sh	v0,64(s1)
80106bd4:	00140200 	sll	v0,v0,0x10
80106bd8:	24004014 	bnez	v0,0x80106c6c
80106bdc:	00000000 	nop
80106be0:	21280000 	move	a1,zero
80106be4:	06002292 	lbu	v0,6(s1)
80106be8:	06000624 	li	a2,6
80106bec:	01004224 	addiu	v0,v0,1
80106bf0:	da05010c 	jal	0x80041768
80106bf4:	060022a2 	sb	v0,6(s1)
80106bf8:	1e000224 	li	v0,30
80106bfc:	023f0408 	j	0x8010fc08
80106c00:	400022a6 	sh	v0,64(s1)
80106c04:	5232040c 	jal	0x8010c948
80106c08:	21202002 	move	a0,s1
80106c0c:	0d004010 	beqz	v0,0x80106c44
80106c10:	21202002 	move	a0,s1
80106c14:	03000524 	li	a1,3
80106c18:	04000624 	li	a2,4
80106c1c:	02000224 	li	v0,2
80106c20:	da05010c 	jal	0x80041768
80106c24:	000022a2 	sb	v0,0(s1)
80106c28:	8d32040c 	jal	0x8010ca34
80106c2c:	21202002 	move	a0,s1
80106c30:	01000224 	li	v0,1
80106c34:	050022a2 	sb	v0,5(s1)
80106c38:	060022a2 	sb	v0,6(s1)
80106c3c:	023f0408 	j	0x8010fc08
80106c40:	070020a2 	sb	zero,7(s1)
80106c44:	40002296 	lhu	v0,64(s1)
80106c48:	00000000 	nop
80106c4c:	ffff4224 	addiu	v0,v0,-1
80106c50:	400022a6 	sh	v0,64(s1)
80106c54:	00140200 	sll	v0,v0,0x10
80106c58:	04004014 	bnez	v0,0x80106c6c
80106c5c:	00000000 	nop
80106c60:	050020a2 	sb	zero,5(s1)
80106c64:	060020a2 	sb	zero,6(s1)
80106c68:	640020a6 	sh	zero,100(s1)
80106c6c:	1800bf8f 	lw	ra,24(sp)
80106c70:	1400b18f 	lw	s1,20(sp)
80106c74:	1000b08f 	lw	s0,16(sp)
80106c78:	0800e003 	jr	ra
80106c7c:	2000bd27 	addiu	sp,sp,32
80106c80:	e0ffbd27 	addiu	sp,sp,-32
80106c84:	1000b0af 	sw	s0,16(sp)
80106c88:	21808000 	move	s0,a0
80106c8c:	0e80023c 	lui	v0,0x800e
80106c90:	1800bfaf 	sw	ra,24(sp)
80106c94:	1400b1af 	sw	s1,20(sp)
80106c98:	04000392 	lbu	v1,4(s0)
80106c9c:	01000424 	li	a0,1
80106ca0:	93006410 	beq	v1,a0,0x80106ef0
80106ca4:	807e4524 	addiu	a1,v0,32384
80106ca8:	02006228 	slti	v0,v1,2
80106cac:	05004010 	beqz	v0,0x80106cc4
80106cb0:	00000000 	nop
80106cb4:	0a006010 	beqz	v1,0x80106ce0
80106cb8:	00000000 	nop
80106cbc:	41400408 	j	0x80110104
80106cc0:	00000000 	nop
80106cc4:	02000224 	li	v0,2
80106cc8:	21016210 	beq	v1,v0,0x80107150
80106ccc:	03000224 	li	v0,3
80106cd0:	23016210 	beq	v1,v0,0x80107160
80106cd4:	00000000 	nop
80106cd8:	41400408 	j	0x80110104
80106cdc:	00000000 	nop
80106ce0:	05000292 	lbu	v0,5(s0)
80106ce4:	00000000 	nop
80106ce8:	05004010 	beqz	v0,0x80106d00
80106cec:	11000524 	li	a1,17
80106cf0:	66004410 	beq	v0,a0,0x80106e8c
80106cf4:	21200002 	move	a0,s0
80106cf8:	41400408 	j	0x80110104
80106cfc:	00000000 	nop
80106d00:	21200002 	move	a0,s0
80106d04:	0f80023c 	lui	v0,0x800f
80106d08:	58cf5124 	addiu	s1,v0,-12456
80106d0c:	4800268e 	lw	a2,72(s1)
80106d10:	1280073c 	lui	a3,0x8012
80106d14:	7846010c 	jal	0x800519e0
80106d18:	34a6e724 	addiu	a3,a3,-22988
80106d1c:	12014014 	bnez	v0,0x80107168
80106d20:	06000524 	li	a1,6
80106d24:	21200000 	move	a0,zero
80106d28:	01000624 	li	a2,1
80106d2c:	0d000392 	lbu	v1,13(s0)
80106d30:	5a000224 	li	v0,90
80106d34:	800002a6 	sh	v0,128(s0)
80106d38:	b4000224 	li	v0,180
80106d3c:	820002a6 	sh	v0,130(s0)
80106d40:	aa000224 	li	v0,170
80106d44:	840002a6 	sh	v0,132(s0)
80106d48:	0e010224 	li	v0,270
80106d4c:	860002a6 	sh	v0,134(s0)
80106d50:	80000224 	li	v0,128
80106d54:	1b0000a2 	sb	zero,27(s0)
80106d58:	580000a6 	sh	zero,88(s0)
80106d5c:	560000a6 	sh	zero,86(s0)
80106d60:	540000a6 	sh	zero,84(s0)
80106d64:	470000a2 	sb	zero,71(s0)
80106d68:	400000a6 	sh	zero,64(s0)
80106d6c:	290000a2 	sb	zero,41(s0)
80106d70:	5e0000a2 	sb	zero,94(s0)
80106d74:	010000a2 	sb	zero,1(s0)
80106d78:	1a0002a2 	sb	v0,26(s0)
80106d7c:	190002a2 	sb	v0,25(s0)
80106d80:	180002a2 	sb	v0,24(s0)
80106d84:	25186600 	or	v1,v1,a2
80106d88:	60ea010c 	jal	0x8007a980
80106d8c:	0d0003a2 	sb	v1,13(s0)
80106d90:	21204000 	move	a0,v0
80106d94:	0c008010 	beqz	a0,0x80106dc8
80106d98:	1180023c 	lui	v0,0x8011
80106d9c:	30ef4224 	addiu	v0,v0,-4304
80106da0:	1c0082ac 	sw	v0,28(a0)
80106da4:	20000224 	li	v0,32
80106da8:	0b0082a0 	sb	v0,11(a0)
80106dac:	0380023c 	lui	v0,0x8003
80106db0:	28008390 	lbu	v1,40(a0)
80106db4:	5cab4224 	addiu	v0,v0,-21668
80106db8:	100090ac 	sw	s0,16(a0)
80106dbc:	180082ac 	sw	v0,24(a0)
80106dc0:	80006334 	ori	v1,v1,0x80
80106dc4:	280083a0 	sb	v1,40(a0)
80106dc8:	4c00228e 	lw	v0,76(s1)
80106dcc:	00000000 	nop
80106dd0:	3c0002ae 	sw	v0,60(s0)
80106dd4:	0c80023c 	lui	v0,0x800c
80106dd8:	1afa4290 	lbu	v0,-1510(v0)
80106ddc:	801f033c 	lui	v1,0x1f80
80106de0:	02004230 	andi	v0,v0,0x2
80106de4:	08004010 	beqz	v0,0x80106e08
80106de8:	4c0270ac 	sw	s0,588(v1)
80106dec:	1280023c 	lui	v0,0x8012
80106df0:	05000392 	lbu	v1,5(s0)
80106df4:	204f4224 	addiu	v0,v0,20256
80106df8:	7c0002ae 	sw	v0,124(s0)
80106dfc:	01006324 	addiu	v1,v1,1
80106e00:	41400408 	j	0x80110104
80106e04:	050003a2 	sb	v1,5(s0)
80106e08:	21200002 	move	a0,s0
80106e0c:	1280053c 	lui	a1,0x8012
80106e10:	204fa524 	addiu	a1,a1,20256
80106e14:	1280063c 	lui	a2,0x8012
80106e18:	74a5c624 	addiu	a2,a2,-23180
80106e1c:	08000224 	li	v0,8
80106e20:	000002a2 	sb	v0,0(s0)
80106e24:	3703010c 	jal	0x80040cdc
80106e28:	be0000a2 	sb	zero,190(s0)
80106e2c:	21200002 	move	a0,s0
80106e30:	21280000 	move	a1,zero
80106e34:	2130a000 	move	a2,a1
80106e38:	1180023c 	lui	v0,0x8011
80106e3c:	18014224 	addiu	v0,v0,280
80106e40:	7b0000a2 	sb	zero,123(s0)
80106e44:	1c0002ae 	sw	v0,28(s0)
80106e48:	c605010c 	jal	0x80041718
80106e4c:	050000a2 	sb	zero,5(s0)
80106e50:	1280023c 	lui	v0,0x8012
80106e54:	21200002 	move	a0,s0
80106e58:	e0974394 	lhu	v1,-26656(v0)
80106e5c:	e0974224 	addiu	v0,v0,-26656
80106e60:	2e0083a4 	sh	v1,46(a0)
80106e64:	02004394 	lhu	v1,2(v0)
80106e68:	01000524 	li	a1,1
80106e6c:	320083a4 	sh	v1,50(a0)
80106e70:	04004294 	lhu	v0,4(v0)
80106e74:	21300000 	move	a2,zero
80106e78:	6e5d040c 	jal	0x801175b8
80106e7c:	360082a4 	sh	v0,54(a0)
80106e80:	801f033c 	lui	v1,0x1f80
80106e84:	41400408 	j	0x80110104
80106e88:	540262ac 	sw	v0,596(v1)
80106e8c:	21280000 	move	a1,zero
80106e90:	2130a000 	move	a2,a1
80106e94:	040002a2 	sb	v0,4(s0)
80106e98:	03000224 	li	v0,3
80106e9c:	050000a2 	sb	zero,5(s0)
80106ea0:	060000a2 	sb	zero,6(s0)
80106ea4:	070000a2 	sb	zero,7(s0)
80106ea8:	640000a6 	sh	zero,100(s0)
80106eac:	660000a6 	sh	zero,102(s0)
80106eb0:	680000a6 	sh	zero,104(s0)
80106eb4:	6a0000a6 	sh	zero,106(s0)
80106eb8:	6c0000a6 	sh	zero,108(s0)
80106ebc:	6e0002a6 	sh	v0,110(s0)
80106ec0:	c605010c 	jal	0x80041718
80106ec4:	2a0000a2 	sb	zero,42(s0)
80106ec8:	02000224 	li	v0,2
80106ecc:	000002a2 	sb	v0,0(s0)
80106ed0:	801f023c 	lui	v0,0x1f80
80106ed4:	60014584 	lh	a1,352(v0)
80106ed8:	801f023c 	lui	v0,0x1f80
80106edc:	64014684 	lh	a2,356(v0)
80106ee0:	ace0010c 	jal	0x800782b0
80106ee4:	2c000426 	addiu	a0,s0,44
80106ee8:	41400408 	j	0x80110104
80106eec:	560002a6 	sh	v0,86(s0)
80106ef0:	010003a2 	sb	v1,1(s0)
80106ef4:	2b000392 	lbu	v1,43(s0)
80106ef8:	5a000224 	li	v0,90
80106efc:	800002a6 	sh	v0,128(s0)
80106f00:	b4000224 	li	v0,180
80106f04:	820002a6 	sh	v0,130(s0)
80106f08:	aa000224 	li	v0,170
80106f0c:	840002a6 	sh	v0,132(s0)
80106f10:	0e010224 	li	v0,270
80106f14:	04006010 	beqz	v1,0x80106f28
80106f18:	860002a6 	sh	v0,134(s0)
80106f1c:	ffff6224 	addiu	v0,v1,-1
80106f20:	2f400408 	j	0x801100bc
80106f24:	2b0002a2 	sb	v0,43(s0)
80106f28:	0c80023c 	lui	v0,0x800c
80106f2c:	09f84290 	lbu	v0,-2039(v0)
80106f30:	00000000 	nop
80106f34:	03004014 	bnez	v0,0x80106f44
80106f38:	00000000 	nop
80106f3c:	4306010c 	jal	0x8004190c
80106f40:	21200002 	move	a0,s0
80106f44:	05000392 	lbu	v1,5(s0)
80106f48:	00000000 	nop
80106f4c:	0700622c 	sltiu	v0,v1,7
80106f50:	73004010 	beqz	v0,0x80107120
80106f54:	1180023c 	lui	v0,0x8011
80106f58:	90914224 	addiu	v0,v0,-28272
80106f5c:	80180300 	sll	v1,v1,0x2
80106f60:	21186200 	addu	v1,v1,v0
80106f64:	0000628c 	lw	v0,0(v1)
80106f68:	00000000 	nop
80106f6c:	08004000 	jr	v0
80106f70:	00000000 	nop
80106f74:	0c80023c 	lui	v0,0x800c
80106f78:	08f84324 	addiu	v1,v0,-2040
80106f7c:	05006280 	lb	v0,5(v1)
80106f80:	00000000 	nop
80106f84:	66004014 	bnez	v0,0x80107120
80106f88:	00000000 	nop
80106f8c:	01006290 	lbu	v0,1(v1)
80106f90:	00000000 	nop
80106f94:	62004014 	bnez	v0,0x80107120
80106f98:	00000000 	nop
80106f9c:	06000392 	lbu	v1,6(s0)
80106fa0:	00000000 	nop
80106fa4:	05006010 	beqz	v1,0x80106fbc
80106fa8:	01000224 	li	v0,1
80106fac:	04006210 	beq	v1,v0,0x80106fc0
80106fb0:	801f023c 	lui	v0,0x1f80
80106fb4:	1d400408 	j	0x80110074
80106fb8:	00000000 	nop
80106fbc:	060002a2 	sb	v0,6(s0)
80106fc0:	8d32040c 	jal	0x8010ca34
80106fc4:	21200002 	move	a0,s0
80106fc8:	5232040c 	jal	0x8010c948
80106fcc:	21200002 	move	a0,s0
80106fd0:	0a004010 	beqz	v0,0x80106ffc
80106fd4:	21200002 	move	a0,s0
80106fd8:	03000524 	li	a1,3
80106fdc:	04000624 	li	a2,4
80106fe0:	01000324 	li	v1,1
80106fe4:	02000224 	li	v0,2
80106fe8:	010003a2 	sb	v1,1(s0)
80106fec:	000002a2 	sb	v0,0(s0)
80106ff0:	050003a2 	sb	v1,5(s0)
80106ff4:	da05010c 	jal	0x80041768
80106ff8:	060003a2 	sb	v1,6(s0)
80106ffc:	1c400408 	j	0x80110070
80107000:	070000a2 	sb	zero,7(s0)
80107004:	7c34040c 	jal	0x8010d1f0
80107008:	21200002 	move	a0,s0
8010700c:	2f400408 	j	0x801100bc
80107010:	00000000 	nop
80107014:	2136040c 	jal	0x8010d884
80107018:	21200002 	move	a0,s0
8010701c:	2f400408 	j	0x801100bc
80107020:	00000000 	nop
80107024:	3a38040c 	jal	0x8010e0e8
80107028:	21200002 	move	a0,s0
8010702c:	2f400408 	j	0x801100bc
80107030:	00000000 	nop
80107034:	0c80023c 	lui	v0,0x800c
80107038:	09f84290 	lbu	v0,-2039(v0)
8010703c:	00000000 	nop
80107040:	37004014 	bnez	v0,0x80107120
80107044:	00000000 	nop
80107048:	06000392 	lbu	v1,6(s0)
8010704c:	00000000 	nop
80107050:	05006010 	beqz	v1,0x80107068
80107054:	01000224 	li	v0,1
80107058:	10006210 	beq	v1,v0,0x8010709c
8010705c:	00000000 	nop
80107060:	2f400408 	j	0x801100bc
80107064:	00000000 	nop
80107068:	21200002 	move	a0,s0
8010706c:	0a000524 	li	a1,10
80107070:	da05010c 	jal	0x80041768
80107074:	04000624 	li	a2,4
80107078:	1469020c 	jal	0x8009a450
8010707c:	00000000 	nop
80107080:	30004230 	andi	v0,v0,0x30
80107084:	06000392 	lbu	v1,6(s0)
80107088:	28004224 	addiu	v0,v0,40
8010708c:	400002a6 	sh	v0,64(s0)
80107090:	01006324 	addiu	v1,v1,1
80107094:	2f400408 	j	0x801100bc
80107098:	060003a2 	sb	v1,6(s0)
8010709c:	40000296 	lhu	v0,64(s0)
801070a0:	00000000 	nop
801070a4:	ffff4224 	addiu	v0,v0,-1
801070a8:	400002a6 	sh	v0,64(s0)
801070ac:	00140200 	sll	v0,v0,0x10
801070b0:	09004014 	bnez	v0,0x801070d8
801070b4:	801f023c 	lui	v0,0x1f80
801070b8:	21200002 	move	a0,s0
801070bc:	21280000 	move	a1,zero
801070c0:	da05010c 	jal	0x80041768
801070c4:	0a000624 	li	a2,10
801070c8:	050000a2 	sb	zero,5(s0)
801070cc:	060000a2 	sb	zero,6(s0)
801070d0:	640000a6 	sh	zero,100(s0)
801070d4:	801f023c 	lui	v0,0x1f80
801070d8:	60014584 	lh	a1,352(v0)
801070dc:	801f023c 	lui	v0,0x1f80
801070e0:	64014684 	lh	a2,356(v0)
801070e4:	ace0010c 	jal	0x800782b0
801070e8:	2c000426 	addiu	a0,s0,44
801070ec:	00140200 	sll	v0,v0,0x10
801070f0:	03240200 	sra	a0,v0,0x10
801070f4:	56000586 	lh	a1,86(s0)
801070f8:	bedd010c 	jal	0x800776f8
801070fc:	80000624 	li	a2,128
80107100:	2f400408 	j	0x801100bc
80107104:	560002a6 	sh	v0,86(s0)
80107108:	513d040c 	jal	0x8010f544
8010710c:	21200002 	move	a0,s0
80107110:	2f400408 	j	0x801100bc
80107114:	00000000 	nop
80107118:	763e040c 	jal	0x8010f9d8
8010711c:	21200002 	move	a0,s0
80107120:	01000292 	lbu	v0,1(s0)
80107124:	00000000 	nop
80107128:	05004010 	beqz	v0,0x80107140
8010712c:	00000000 	nop
80107130:	9fdf010c 	jal	0x80077e7c
80107134:	21200002 	move	a0,s0
80107138:	3f46010c 	jal	0x800518fc
8010713c:	21200002 	move	a0,s0
80107140:	5f0000a2 	sb	zero,95(s0)
80107144:	5e0000a2 	sb	zero,94(s0)
80107148:	41400408 	j	0x80110104
8010714c:	290000a2 	sb	zero,41(s0)
80107150:	8b38040c 	jal	0x8010e22c
80107154:	21200002 	move	a0,s0
80107158:	41400408 	j	0x80110104
8010715c:	00000000 	nop
80107160:	89e9010c 	jal	0x8007a624
80107164:	21200002 	move	a0,s0
80107168:	1800bf8f 	lw	ra,24(sp)
8010716c:	1400b18f 	lw	s1,20(sp)
80107170:	1000b08f 	lw	s0,16(sp)
80107174:	0800e003 	jr	ra
80107178:	2000bd27 	addiu	sp,sp,32
8010717c:	d0ffbd27 	addiu	sp,sp,-48
80107180:	2400b1af 	sw	s1,36(sp)
80107184:	21888000 	move	s1,a0
80107188:	2c00bfaf 	sw	ra,44(sp)
8010718c:	2800b2af 	sw	s2,40(sp)
80107190:	2000b0af 	sw	s0,32(sp)
80107194:	05002392 	lbu	v1,5(s1)
80107198:	00000000 	nop
8010719c:	05006010 	beqz	v1,0x801071b4
801071a0:	01000224 	li	v0,1
801071a4:	07006210 	beq	v1,v0,0x801071c4
801071a8:	ffff1224 	li	s2,-1
801071ac:	4a410408 	j	0x80110528
801071b0:	00000000 	nop
801071b4:	513c040c 	jal	0x8010f144
801071b8:	21202002 	move	a0,s1
801071bc:	4a410408 	j	0x80110528
801071c0:	00000000 	nop
801071c4:	6a002286 	lh	v0,106(s1)
801071c8:	00000000 	nop
801071cc:	26005210 	beq	v0,s2,0x80107268
801071d0:	0f80043c 	lui	a0,0x800f
801071d4:	08808424 	addiu	a0,a0,-32760
801071d8:	40280200 	sll	a1,v0,0x1
801071dc:	2128a200 	addu	a1,a1,v0
801071e0:	80280500 	sll	a1,a1,0x2
801071e4:	1280103c 	lui	s0,0x8012
801071e8:	bc821026 	addiu	s0,s0,-32068
801071ec:	f4b2010c 	jal	0x8006cbd0
801071f0:	2128b000 	addu	a1,a1,s0
801071f4:	6a002286 	lh	v0,106(s1)
801071f8:	6a002396 	lhu	v1,106(s1)
801071fc:	40200200 	sll	a0,v0,0x1
80107200:	21208200 	addu	a0,a0,v0
80107204:	40200400 	sll	a0,a0,0x1
80107208:	1280023c 	lui	v0,0x8012
8010720c:	e0974224 	addiu	v0,v0,-26656
80107210:	21208200 	addu	a0,a0,v0
80107214:	00008294 	lhu	v0,0(a0)
80107218:	00000000 	nop
8010721c:	2e0022a6 	sh	v0,46(s1)
80107220:	02008294 	lhu	v0,2(a0)
80107224:	00000000 	nop
80107228:	320022a6 	sh	v0,50(s1)
8010722c:	04008294 	lhu	v0,4(a0)
80107230:	01006324 	addiu	v1,v1,1
80107234:	6a0023a6 	sh	v1,106(s1)
80107238:	001c0300 	sll	v1,v1,0x10
8010723c:	031c0300 	sra	v1,v1,0x10
80107240:	360022a6 	sh	v0,54(s1)
80107244:	40100300 	sll	v0,v1,0x1
80107248:	21104300 	addu	v0,v0,v1
8010724c:	80100200 	sll	v0,v0,0x2
80107250:	21105000 	addu	v0,v0,s0
80107254:	00004284 	lh	v0,0(v0)
80107258:	00000000 	nop
8010725c:	03004014 	bnez	v0,0x8010726c
80107260:	801f023c 	lui	v0,0x1f80
80107264:	6a0032a6 	sh	s2,106(s1)
80107268:	801f023c 	lui	v0,0x1f80
8010726c:	06002492 	lbu	a0,6(s1)
80107270:	5402458c 	lw	a1,596(v0)
80107274:	0700832c 	sltiu	v1,a0,7
80107278:	ba006010 	beqz	v1,0x80107564
8010727c:	1180023c 	lui	v0,0x8011
80107280:	b0914224 	addiu	v0,v0,-28240
80107284:	80180400 	sll	v1,a0,0x2
80107288:	21186200 	addu	v1,v1,v0
8010728c:	0000628c 	lw	v0,0(v1)
80107290:	00000000 	nop
80107294:	08004000 	jr	v0
80107298:	00000000 	nop
8010729c:	02000324 	li	v1,2
801072a0:	010023a2 	sb	v1,1(s1)
801072a4:	2c00288e 	lw	t0,44(s1)
801072a8:	3000298e 	lw	t1,48(s1)
801072ac:	34002a8e 	lw	t2,52(s1)
801072b0:	2c00a8ac 	sw	t0,44(a1)
801072b4:	3000a9ac 	sw	t1,48(a1)
801072b8:	3400aaac 	sw	t2,52(a1)
801072bc:	6a002286 	lh	v0,106(s1)
801072c0:	00000000 	nop
801072c4:	68014228 	slti	v0,v0,360
801072c8:	a6004014 	bnez	v0,0x80107564
801072cc:	00000000 	nop
801072d0:	06002292 	lbu	v0,6(s1)
801072d4:	00000000 	nop
801072d8:	01004224 	addiu	v0,v0,1
801072dc:	060022a2 	sb	v0,6(s1)
801072e0:	40410408 	j	0x80110500
801072e4:	0400a3a0 	sb	v1,4(a1)
801072e8:	00c00224 	li	v0,-16384
801072ec:	4a0022a6 	sh	v0,74(s1)
801072f0:	00300224 	li	v0,12288
801072f4:	440022a6 	sh	v0,68(s1)
801072f8:	06002292 	lbu	v0,6(s1)
801072fc:	2e002396 	lhu	v1,46(s1)
80107300:	32002496 	lhu	a0,50(s1)
80107304:	36002596 	lhu	a1,54(s1)
80107308:	01004224 	addiu	v0,v0,1
8010730c:	060022a2 	sb	v0,6(s1)
80107310:	640023a6 	sh	v1,100(s1)
80107314:	660024a6 	sh	a0,102(s1)
80107318:	680025a6 	sh	a1,104(s1)
8010731c:	801f023c 	lui	v0,0x1f80
80107320:	60014584 	lh	a1,352(v0)
80107324:	801f023c 	lui	v0,0x1f80
80107328:	64014684 	lh	a2,356(v0)
8010732c:	64002296 	lhu	v0,100(s1)
80107330:	66002396 	lhu	v1,102(s1)
80107334:	68002796 	lhu	a3,104(s1)
80107338:	2c002426 	addiu	a0,s1,44
8010733c:	2e0022a6 	sh	v0,46(s1)
80107340:	320023a6 	sh	v1,50(s1)
80107344:	ace0010c 	jal	0x800782b0
80107348:	360027a6 	sh	a3,54(s1)
8010734c:	00240200 	sll	a0,v0,0x10
80107350:	03240400 	sra	a0,a0,0x10
80107354:	d40f020c 	jal	0x80083f50
80107358:	560022a6 	sh	v0,86(s1)
8010735c:	44002386 	lh	v1,68(s1)
80107360:	00000000 	nop
80107364:	18004300 	mult	v0,v1
80107368:	56002486 	lh	a0,86(s1)
8010736c:	12400000 	mflo	t0
80107370:	a00f020c 	jal	0x80083e80
80107374:	03810800 	sra	s0,t0,0x4
80107378:	44002386 	lh	v1,68(s1)
8010737c:	4a002496 	lhu	a0,74(s1)
80107380:	18004300 	mult	v0,v1
80107384:	2c00228e 	lw	v0,44(s1)
80107388:	4a002386 	lh	v1,74(s1)
8010738c:	00028424 	addiu	a0,a0,512
80107390:	4a0024a6 	sh	a0,74(s1)
80107394:	00240400 	sll	a0,a0,0x10
80107398:	21105000 	addu	v0,v0,s0
8010739c:	2c0022ae 	sw	v0,44(s1)
801073a0:	3000228e 	lw	v0,48(s1)
801073a4:	001a0300 	sll	v1,v1,0x8
801073a8:	21104300 	addu	v0,v0,v1
801073ac:	300022ae 	sw	v0,48(s1)
801073b0:	3400228e 	lw	v0,52(s1)
801073b4:	12400000 	mflo	t0
801073b8:	03190800 	sra	v1,t0,0x4
801073bc:	23104300 	subu	v0,v0,v1
801073c0:	05008018 	blez	a0,0x801073d8
801073c4:	340022ae 	sw	v0,52(s1)
801073c8:	06002292 	lbu	v0,6(s1)
801073cc:	00000000 	nop
801073d0:	01004224 	addiu	v0,v0,1
801073d4:	060022a2 	sb	v0,6(s1)
801073d8:	44002296 	lhu	v0,68(s1)
801073dc:	00000000 	nop
801073e0:	80ff4224 	addiu	v0,v0,-128
801073e4:	440022a6 	sh	v0,68(s1)
801073e8:	00140200 	sll	v0,v0,0x10
801073ec:	02004104 	bgez	v0,0x801073f8
801073f0:	00000000 	nop
801073f4:	440020a6 	sh	zero,68(s1)
801073f8:	2e002296 	lhu	v0,46(s1)
801073fc:	32002396 	lhu	v1,50(s1)
80107400:	36002496 	lhu	a0,54(s1)
80107404:	640022a6 	sh	v0,100(s1)
80107408:	660023a6 	sh	v1,102(s1)
8010740c:	40410408 	j	0x80110500
80107410:	680024a6 	sh	a0,104(s1)
80107414:	2c003026 	addiu	s0,s1,44
80107418:	21200002 	move	a0,s0
8010741c:	1000a527 	addiu	a1,sp,16
80107420:	64002296 	lhu	v0,100(s1)
80107424:	66002396 	lhu	v1,102(s1)
80107428:	68002796 	lhu	a3,104(s1)
8010742c:	e0000624 	li	a2,224
80107430:	2e0022a6 	sh	v0,46(s1)
80107434:	7e2c0224 	li	v0,11390
80107438:	320023a6 	sh	v1,50(s1)
8010743c:	360027a6 	sh	a3,54(s1)
80107440:	1200a2a7 	sh	v0,18(sp)
80107444:	ffde0224 	li	v0,-8449
80107448:	1600a2a7 	sh	v0,22(sp)
8010744c:	11200224 	li	v0,8209
80107450:	b1b3010c 	jal	0x8006cec4
80107454:	1a00a2a7 	sh	v0,26(sp)
80107458:	06004010 	beqz	v0,0x80107474
8010745c:	801f023c 	lui	v0,0x1f80
80107460:	06002292 	lbu	v0,6(s1)
80107464:	00000000 	nop
80107468:	01004224 	addiu	v0,v0,1
8010746c:	060022a2 	sb	v0,6(s1)
80107470:	801f023c 	lui	v0,0x1f80
80107474:	60014584 	lh	a1,352(v0)
80107478:	801f023c 	lui	v0,0x1f80
8010747c:	64014684 	lh	a2,356(v0)
80107480:	2e002296 	lhu	v0,46(s1)
80107484:	32002396 	lhu	v1,50(s1)
80107488:	36002796 	lhu	a3,54(s1)
8010748c:	21200002 	move	a0,s0
80107490:	640022a6 	sh	v0,100(s1)
80107494:	660023a6 	sh	v1,102(s1)
80107498:	ace0010c 	jal	0x800782b0
8010749c:	680027a6 	sh	a3,104(s1)
801074a0:	40410408 	j	0x80110500
801074a4:	560022a6 	sh	v0,86(s1)
801074a8:	66002396 	lhu	v1,102(s1)
801074ac:	64002296 	lhu	v0,100(s1)
801074b0:	68002496 	lhu	a0,104(s1)
801074b4:	320023a6 	sh	v1,50(s1)
801074b8:	6a002386 	lh	v1,106(s1)
801074bc:	2e0022a6 	sh	v0,46(s1)
801074c0:	ffff0224 	li	v0,-1
801074c4:	27006214 	bne	v1,v0,0x80107564
801074c8:	360024a6 	sh	a0,54(s1)
801074cc:	06002292 	lbu	v0,6(s1)
801074d0:	02000324 	li	v1,2
801074d4:	25410408 	j	0x80110494
801074d8:	700023a2 	sb	v1,112(s1)
801074dc:	2604010c 	jal	0x80041098
801074e0:	21202002 	move	a0,s1
801074e4:	70002282 	lb	v0,112(s1)
801074e8:	00000000 	nop
801074ec:	1d00401c 	bgtz	v0,0x80107564
801074f0:	00000000 	nop
801074f4:	06002292 	lbu	v0,6(s1)
801074f8:	00000000 	nop
801074fc:	01004224 	addiu	v0,v0,1
80107500:	40410408 	j	0x80110500
80107504:	060022a2 	sb	v0,6(s1)
80107508:	01000324 	li	v1,1
8010750c:	1180023c 	lui	v0,0x8011
80107510:	1cfc4224 	addiu	v0,v0,-996
80107514:	000023a2 	sb	v1,0(s1)
80107518:	1c0022ae 	sw	v0,28(s1)
8010751c:	050023a2 	sb	v1,5(s1)
80107520:	79b8010c 	jal	0x8006e1e4
80107524:	060020a2 	sb	zero,6(s1)
80107528:	c408010c 	jal	0x80042310
8010752c:	00000000 	nop
80107530:	c0090224 	li	v0,2496
80107534:	2e0022a6 	sh	v0,46(s1)
80107538:	88fa0224 	li	v0,-1400
8010753c:	320022a6 	sh	v0,50(s1)
80107540:	ed0e0224 	li	v0,3821
80107544:	0c80033c 	lui	v1,0x800c
80107548:	70f86324 	addiu	v1,v1,-1936
8010754c:	360022a6 	sh	v0,54(s1)
80107550:	580020a6 	sh	zero,88(s1)
80107554:	aa016290 	lbu	v0,426(v1)
80107558:	00000000 	nop
8010755c:	02004234 	ori	v0,v0,0x2
80107560:	aa0162a0 	sb	v0,426(v1)
80107564:	01002292 	lbu	v0,1(s1)
80107568:	00000000 	nop
8010756c:	07004014 	bnez	v0,0x8010758c
80107570:	00000000 	nop
80107574:	e3dd010c 	jal	0x8007778c
80107578:	21202002 	move	a0,s1
8010757c:	4306010c 	jal	0x8004190c
80107580:	21202002 	move	a0,s1
80107584:	3f46010c 	jal	0x800518fc
80107588:	21202002 	move	a0,s1
8010758c:	2c00bf8f 	lw	ra,44(sp)
80107590:	2800b28f 	lw	s2,40(sp)
80107594:	2400b18f 	lw	s1,36(sp)
80107598:	2000b08f 	lw	s0,32(sp)
8010759c:	0800e003 	jr	ra
801075a0:	3000bd27 	addiu	sp,sp,48
801075a4:	d0ffbd27 	addiu	sp,sp,-48
801075a8:	1c00b3af 	sw	s3,28(sp)
801075ac:	21988000 	move	s3,a0
801075b0:	1800b2af 	sw	s2,24(sp)
801075b4:	21900000 	move	s2,zero
801075b8:	2000b4af 	sw	s4,32(sp)
801075bc:	2800bfaf 	sw	ra,40(sp)
801075c0:	2400b5af 	sw	s5,36(sp)
801075c4:	1400b1af 	sw	s1,20(sp)
801075c8:	1000b0af 	sw	s0,16(sp)
801075cc:	04006392 	lbu	v1,4(s3)
801075d0:	01000224 	li	v0,1
801075d4:	1b006210 	beq	v1,v0,0x80107644
801075d8:	50007426 	addiu	s4,s3,80
801075dc:	02006228 	slti	v0,v1,2
801075e0:	05004010 	beqz	v0,0x801075f8
801075e4:	00000000 	nop
801075e8:	08006010 	beqz	v1,0x8010760c
801075ec:	21880000 	move	s1,zero
801075f0:	a0410408 	j	0x80110680
801075f4:	00000000 	nop
801075f8:	04006228 	slti	v0,v1,4
801075fc:	39004010 	beqz	v0,0x801076e4
80107600:	00000000 	nop
80107604:	9e410408 	j	0x80110678
80107608:	00000000 	nop
8010760c:	21808002 	move	s0,s4
80107610:	1469020c 	jal	0x8009a450
80107614:	01003126 	addiu	s1,s1,1
80107618:	1469020c 	jal	0x8009a450
8010761c:	000002a2 	sb	v0,0(s0)
80107620:	1469020c 	jal	0x8009a450
80107624:	010002a2 	sb	v0,1(s0)
80107628:	020002a2 	sb	v0,2(s0)
8010762c:	030000a2 	sb	zero,3(s0)
80107630:	0e00222a 	slti	v0,s1,14
80107634:	f6ff4014 	bnez	v0,0x80107610
80107638:	04001026 	addiu	s0,s0,4
8010763c:	01000224 	li	v0,1
80107640:	040062a2 	sb	v0,4(s3)
80107644:	21880000 	move	s1,zero
80107648:	ffff1524 	li	s5,-1
8010764c:	21808002 	move	s0,s4
80107650:	03000282 	lb	v0,3(s0)
80107654:	00000000 	nop
80107658:	14004004 	bltz	v0,0x801076ac
8010765c:	00000000 	nop
80107660:	1469020c 	jal	0x8009a450
80107664:	01001224 	li	s2,1
80107668:	00044230 	andi	v0,v0,0x400
8010766c:	05004010 	beqz	v0,0x80107684
80107670:	00000000 	nop
80107674:	03000292 	lbu	v0,3(s0)
80107678:	00000000 	nop
8010767c:	21105200 	addu	v0,v0,s2
80107680:	030002a2 	sb	v0,3(s0)
80107684:	03000292 	lbu	v0,3(s0)
80107688:	00000000 	nop
8010768c:	01004224 	addiu	v0,v0,1
80107690:	030002a2 	sb	v0,3(s0)
80107694:	00160200 	sll	v0,v0,0x18
80107698:	03160200 	sra	v0,v0,0x18
8010769c:	16004228 	slti	v0,v0,22
801076a0:	02004014 	bnez	v0,0x801076ac
801076a4:	00000000 	nop
801076a8:	030015a2 	sb	s5,3(s0)
801076ac:	01003126 	addiu	s1,s1,1
801076b0:	0e00222a 	slti	v0,s1,14
801076b4:	e6ff4014 	bnez	v0,0x80107650
801076b8:	04001026 	addiu	s0,s0,4
801076bc:	03004016 	bnez	s2,0x801076cc
801076c0:	02000224 	li	v0,2
801076c4:	a0410408 	j	0x80110680
801076c8:	040062a2 	sb	v0,4(s3)
801076cc:	9eac000c 	jal	0x8002b278
801076d0:	21206002 	move	a0,s3
801076d4:	a0410408 	j	0x80110680
801076d8:	00000000 	nop
801076dc:	89e9010c 	jal	0x8007a624
801076e0:	21206002 	move	a0,s3
801076e4:	2800bf8f 	lw	ra,40(sp)
801076e8:	2400b58f 	lw	s5,36(sp)
801076ec:	2000b48f 	lw	s4,32(sp)
801076f0:	1c00b38f 	lw	s3,28(sp)
801076f4:	1800b28f 	lw	s2,24(sp)
801076f8:	1400b18f 	lw	s1,20(sp)
801076fc:	1000b08f 	lw	s0,16(sp)
80107700:	0800e003 	jr	ra
80107704:	3000bd27 	addiu	sp,sp,48
80107708:	c8ffbd27 	addiu	sp,sp,-56
8010770c:	1c00b1af 	sw	s1,28(sp)
80107710:	21888000 	move	s1,a0
80107714:	06000424 	li	a0,6
80107718:	801f023c 	lui	v0,0x1f80
8010771c:	2800b4af 	sw	s4,40(sp)
80107720:	84005424 	addiu	s4,v0,132
80107724:	801f023c 	lui	v0,0x1f80
80107728:	3000b6af 	sw	s6,48(sp)
8010772c:	88005624 	addiu	s6,v0,136
80107730:	1280023c 	lui	v0,0x8012
80107734:	2c00b5af 	sw	s5,44(sp)
80107738:	dca85524 	addiu	s5,v0,-22308
8010773c:	3400bfaf 	sw	ra,52(sp)
80107740:	2400b3af 	sw	s3,36(sp)
80107744:	2000b2af 	sw	s2,32(sp)
80107748:	78ca000c 	jal	0x800329e0
8010774c:	1800b0af 	sw	s0,24(sp)
80107750:	801f023c 	lui	v0,0x1f80
80107754:	50002326 	addiu	v1,s1,80
80107758:	21300000 	move	a2,zero
8010775c:	2138c000 	move	a3,a2
80107760:	2140c000 	move	t0,a2
80107764:	00a8c648 	ctc2	a2,$21
80107768:	00b0c748 	ctc2	a3,$22
8010776c:	00b8c848 	ctc2	t0,$23
80107770:	2198c000 	move	s3,a2
80107774:	80001224 	li	s2,128
80107778:	21806000 	move	s0,v1
8010777c:	900040ac 	sw	zero,144(v0)
80107780:	03000282 	lb	v0,3(s0)
80107784:	00000000 	nop
80107788:	27004004 	bltz	v0,0x80107828
8010778c:	00000000 	nop
80107790:	00000292 	lbu	v0,0(s0)
80107794:	2c002396 	lhu	v1,44(s1)
80107798:	00160200 	sll	v0,v0,0x18
8010779c:	c3150200 	sra	v0,v0,0x17
801077a0:	21186200 	addu	v1,v1,v0
801077a4:	1000a3a7 	sh	v1,16(sp)
801077a8:	01000292 	lbu	v0,1(s0)
801077ac:	2e002396 	lhu	v1,46(s1)
801077b0:	00160200 	sll	v0,v0,0x18
801077b4:	c3150200 	sra	v0,v0,0x17
801077b8:	21186200 	addu	v1,v1,v0
801077bc:	1200a3a7 	sh	v1,18(sp)
801077c0:	02000292 	lbu	v0,2(s0)
801077c4:	30002396 	lhu	v1,48(s1)
801077c8:	00160200 	sll	v0,v0,0x18
801077cc:	c3150200 	sra	v0,v0,0x17
801077d0:	21186200 	addu	v1,v1,v0
801077d4:	1000a227 	addiu	v0,sp,16
801077d8:	1400a3a7 	sh	v1,20(sp)
801077dc:	000040c8 	lwc2	$0,0(v0)
801077e0:	040041c8 	lwc2	$1,4(v0)
801077e4:	32002486 	lh	a0,50(s1)
801077e8:	f3c5000c 	jal	0x800317cc
801077ec:	00000000 	nop
801077f0:	0d004014 	bnez	v0,0x80107828
801077f4:	21202002 	move	a0,s1
801077f8:	0000828e 	lw	v0,0(s4)
801077fc:	00000000 	nop
80107800:	18005200 	mult	v0,s2
80107804:	12300000 	mflo	a2
80107808:	03120600 	sra	v0,a2,0x8
8010780c:	0000c2ae 	sw	v0,0(s6)
80107810:	000082ae 	sw	v0,0(s4)
80107814:	03000582 	lb	a1,3(s0)
80107818:	00000000 	nop
8010781c:	c0280500 	sll	a1,a1,0x3
80107820:	2fca000c 	jal	0x800328bc
80107824:	2128a502 	addu	a1,s5,a1
80107828:	10005226 	addiu	s2,s2,16
8010782c:	01007326 	addiu	s3,s3,1
80107830:	0e00622a 	slti	v0,s3,14
80107834:	d2ff4014 	bnez	v0,0x80107780
80107838:	04001026 	addiu	s0,s0,4
8010783c:	3400bf8f 	lw	ra,52(sp)
80107840:	3000b68f 	lw	s6,48(sp)
80107844:	2c00b58f 	lw	s5,44(sp)
80107848:	2800b48f 	lw	s4,40(sp)
8010784c:	2400b38f 	lw	s3,36(sp)
80107850:	2000b28f 	lw	s2,32(sp)
80107854:	1c00b18f 	lw	s1,28(sp)
80107858:	1800b08f 	lw	s0,24(sp)
8010785c:	0800e003 	jr	ra
80107860:	3800bd27 	addiu	sp,sp,56
80107864:	d8ffbd27 	addiu	sp,sp,-40
80107868:	1800b0af 	sw	s0,24(sp)
8010786c:	21808000 	move	s0,a0
80107870:	01000224 	li	v0,1
80107874:	2000bfaf 	sw	ra,32(sp)
80107878:	1c00b1af 	sw	s1,28(sp)
8010787c:	04000392 	lbu	v1,4(s0)
80107880:	1000118e 	lw	s1,16(s0)
80107884:	33006210 	beq	v1,v0,0x80107954
80107888:	50000426 	addiu	a0,s0,80
8010788c:	02006228 	slti	v0,v1,2
80107890:	05004010 	beqz	v0,0x801078a8
80107894:	00000000 	nop
80107898:	0a006010 	beqz	v1,0x801078c4
8010789c:	21280000 	move	a1,zero
801078a0:	a1420408 	j	0x80110a84
801078a4:	00000000 	nop
801078a8:	02000224 	li	v0,2
801078ac:	17006210 	beq	v1,v0,0x8010790c
801078b0:	03000224 	li	v0,3
801078b4:	8a006210 	beq	v1,v0,0x80107ae0
801078b8:	00000000 	nop
801078bc:	a1420408 	j	0x80110a84
801078c0:	00000000 	nop
801078c4:	21188000 	move	v1,a0
801078c8:	2120a000 	move	a0,a1
801078cc:	000064a0 	sb	a0,0(v1)
801078d0:	010060a0 	sb	zero,1(v1)
801078d4:	040060ac 	sw	zero,4(v1)
801078d8:	08006324 	addiu	v1,v1,8
801078dc:	0100a524 	addiu	a1,a1,1
801078e0:	0400a228 	slti	v0,a1,4
801078e4:	f9ff4014 	bnez	v0,0x801078cc
801078e8:	22008424 	addiu	a0,a0,34
801078ec:	01000224 	li	v0,1
801078f0:	040002a2 	sb	v0,4(s0)
801078f4:	0a000224 	li	v0,10
801078f8:	050000a2 	sb	zero,5(s0)
801078fc:	060000a2 	sb	zero,6(s0)
80107900:	070002a2 	sb	v0,7(s0)
80107904:	a1420408 	j	0x80110a84
80107908:	4e0000a6 	sh	zero,78(s0)
8010790c:	05000392 	lbu	v1,5(s0)
80107910:	06000292 	lbu	v0,6(s0)
80107914:	feff6324 	addiu	v1,v1,-2
80107918:	fbff4224 	addiu	v0,v0,-5
8010791c:	060002a2 	sb	v0,6(s0)
80107920:	ff004230 	andi	v0,v0,0xff
80107924:	0a00422c 	sltiu	v0,v0,10
80107928:	03004010 	beqz	v0,0x80107938
8010792c:	050003a2 	sb	v1,5(s0)
80107930:	0a000224 	li	v0,10
80107934:	060002a2 	sb	v0,6(s0)
80107938:	05000292 	lbu	v0,5(s0)
8010793c:	00000000 	nop
80107940:	0300422c 	sltiu	v0,v0,3
80107944:	03004010 	beqz	v0,0x80107954
80107948:	03000224 	li	v0,3
8010794c:	a1420408 	j	0x80110a84
80107950:	040002a2 	sb	v0,4(s0)
80107954:	01000624 	li	a2,1
80107958:	20008524 	addiu	a1,a0,32
8010795c:	00008290 	lbu	v0,0(a0)
80107960:	00000000 	nop
80107964:	04004224 	addiu	v0,v0,4
80107968:	000082a0 	sb	v0,0(a0)
8010796c:	00160200 	sll	v0,v0,0x18
80107970:	19004104 	bgez	v0,0x801079d8
80107974:	00000000 	nop
80107978:	01008280 	lb	v0,1(a0)
8010797c:	01008390 	lbu	v1,1(a0)
80107980:	07004010 	beqz	v0,0x801079a0
80107984:	00000000 	nop
80107988:	08004004 	bltz	v0,0x801079ac
8010798c:	03004228 	slti	v0,v0,3
80107990:	06004010 	beqz	v0,0x801079ac
80107994:	00000000 	nop
80107998:	5e420408 	j	0x80110978
8010799c:	08008424 	addiu	a0,a0,8
801079a0:	01006224 	addiu	v0,v1,1
801079a4:	5d420408 	j	0x80110974
801079a8:	010082a0 	sb	v0,1(a0)
801079ac:	04000292 	lbu	v0,4(s0)
801079b0:	00000000 	nop
801079b4:	07004614 	bne	v0,a2,0x801079d4
801079b8:	00000000 	nop
801079bc:	00008290 	lbu	v0,0(a0)
801079c0:	010080a0 	sb	zero,1(a0)
801079c4:	040080ac 	sw	zero,4(a0)
801079c8:	80004224 	addiu	v0,v0,128
801079cc:	5d420408 	j	0x80110974
801079d0:	000082a0 	sb	v0,0(a0)
801079d4:	000080a0 	sb	zero,0(a0)
801079d8:	08008424 	addiu	a0,a0,8
801079dc:	2a108500 	slt	v0,a0,a1
801079e0:	deff4014 	bnez	v0,0x8010795c
801079e4:	00000000 	nop
801079e8:	4e000296 	lhu	v0,78(s0)
801079ec:	04000392 	lbu	v1,4(s0)
801079f0:	d3ff4224 	addiu	v0,v0,-45
801079f4:	4e0002a6 	sh	v0,78(s0)
801079f8:	01000224 	li	v0,1
801079fc:	36006214 	bne	v1,v0,0x80107ad8
80107a00:	01000224 	li	v0,1
80107a04:	07000292 	lbu	v0,7(s0)
80107a08:	00000000 	nop
80107a0c:	ff004324 	addiu	v1,v0,255
80107a10:	ff004230 	andi	v0,v0,0xff
80107a14:	1d004014 	bnez	v0,0x80107a8c
80107a18:	070003a2 	sb	v1,7(s0)
80107a1c:	1469020c 	jal	0x8009a450
80107a20:	00000000 	nop
80107a24:	2c000396 	lhu	v1,44(s0)
80107a28:	ff014230 	andi	v0,v0,0x1ff
80107a2c:	21186200 	addu	v1,v1,v0
80107a30:	00ff6324 	addiu	v1,v1,-256
80107a34:	1469020c 	jal	0x8009a450
80107a38:	1000a3a7 	sh	v1,16(sp)
80107a3c:	30000396 	lhu	v1,48(s0)
80107a40:	ff014230 	andi	v0,v0,0x1ff
80107a44:	21186200 	addu	v1,v1,v0
80107a48:	00ff6324 	addiu	v1,v1,-256
80107a4c:	1469020c 	jal	0x8009a450
80107a50:	1400a3a7 	sh	v1,20(sp)
80107a54:	030c0424 	li	a0,3075
80107a58:	ff014230 	andi	v0,v0,0x1ff
80107a5c:	1000a527 	addiu	a1,sp,16
80107a60:	2e000396 	lhu	v1,46(s0)
80107a64:	e2ff0624 	li	a2,-30
80107a68:	23186200 	subu	v1,v1,v0
80107a6c:	38ff6324 	addiu	v1,v1,-200
80107a70:	88c4000c 	jal	0x80031220
80107a74:	1200a3a7 	sh	v1,18(sp)
80107a78:	1469020c 	jal	0x8009a450
80107a7c:	00000000 	nop
80107a80:	03004230 	andi	v0,v0,0x3
80107a84:	03004224 	addiu	v0,v0,3
80107a88:	070002a2 	sb	v0,7(s0)
80107a8c:	06000282 	lb	v0,6(s0)
80107a90:	06000392 	lbu	v1,6(s0)
80107a94:	02004004 	bltz	v0,0x80107aa0
80107a98:	0c006224 	addiu	v0,v1,12
80107a9c:	060002a2 	sb	v0,6(s0)
80107aa0:	b8002296 	lhu	v0,184(s1)
80107aa4:	00000000 	nop
80107aa8:	82110200 	srl	v0,v0,0x6
80107aac:	050002a2 	sb	v0,5(s0)
80107ab0:	2e002296 	lhu	v0,46(s1)
80107ab4:	00000000 	nop
80107ab8:	2c0002a6 	sh	v0,44(s0)
80107abc:	32002296 	lhu	v0,50(s1)
80107ac0:	00000000 	nop
80107ac4:	2e0002a6 	sh	v0,46(s0)
80107ac8:	36002296 	lhu	v0,54(s1)
80107acc:	00000000 	nop
80107ad0:	300002a6 	sh	v0,48(s0)
80107ad4:	01000224 	li	v0,1
80107ad8:	a1420408 	j	0x80110a84
80107adc:	010002a2 	sb	v0,1(s0)
80107ae0:	89e9010c 	jal	0x8007a624
80107ae4:	21200002 	move	a0,s0
80107ae8:	2000bf8f 	lw	ra,32(sp)
80107aec:	1c00b18f 	lw	s1,28(sp)
80107af0:	1800b08f 	lw	s0,24(sp)
80107af4:	0800e003 	jr	ra
80107af8:	2800bd27 	addiu	sp,sp,40
80107afc:	18ffbd27 	addiu	sp,sp,-232
80107b00:	d400b5af 	sw	s5,212(sp)
80107b04:	21a88000 	move	s5,a0
80107b08:	801f023c 	lui	v0,0x1f80
80107b0c:	e000beaf 	sw	s8,224(sp)
80107b10:	84005e24 	addiu	s8,v0,132
80107b14:	801f023c 	lui	v0,0x1f80
80107b18:	dc00b7af 	sw	s7,220(sp)
80107b1c:	90005724 	addiu	s7,v0,144
80107b20:	d000b4af 	sw	s4,208(sp)
80107b24:	e400bfaf 	sw	ra,228(sp)
80107b28:	d800b6af 	sw	s6,216(sp)
80107b2c:	cc00b3af 	sw	s3,204(sp)
80107b30:	c800b2af 	sw	s2,200(sp)
80107b34:	c400b1af 	sw	s1,196(sp)
80107b38:	c000b0af 	sw	s0,192(sp)
80107b3c:	0400a392 	lbu	v1,4(s5)
80107b40:	01000224 	li	v0,1
80107b44:	18006214 	bne	v1,v0,0x80107ba8
80107b48:	5000b426 	addiu	s4,s5,80
80107b4c:	0500a392 	lbu	v1,5(s5)
80107b50:	00000000 	nop
80107b54:	04104300 	sllv	v0,v1,v0
80107b58:	21104300 	addu	v0,v0,v1
80107b5c:	c0100200 	sll	v0,v0,0x3
80107b60:	21104300 	addu	v0,v0,v1
80107b64:	40110200 	sll	v0,v0,0x5
80107b68:	02004104 	bgez	v0,0x80107b74
80107b6c:	c0980300 	sll	s3,v1,0x3
80107b70:	3f004224 	addiu	v0,v0,63
80107b74:	83b10200 	sra	s6,v0,0x6
80107b78:	80200300 	sll	a0,v1,0x2
80107b7c:	21188300 	addu	v1,a0,v1
80107b80:	00110300 	sll	v0,v1,0x4
80107b84:	23104300 	subu	v0,v0,v1
80107b88:	c0100200 	sll	v0,v0,0x3
80107b8c:	02004104 	bgez	v0,0x80107b98
80107b90:	00000000 	nop
80107b94:	3f004224 	addiu	v0,v0,63
80107b98:	83110200 	sra	v0,v0,0x6
80107b9c:	b800a2af 	sw	v0,184(sp)
80107ba0:	d8420408 	j	0x80110b60
80107ba4:	bc00a4af 	sw	a0,188(sp)
80107ba8:	00021324 	li	s3,512
80107bac:	20031624 	li	s6,800
80107bb0:	0500a292 	lbu	v0,5(s5)
80107bb4:	58020824 	li	t0,600
80107bb8:	b800a8af 	sw	t0,184(sp)
80107bbc:	80100200 	sll	v0,v0,0x2
80107bc0:	bc00a2af 	sw	v0,188(sp)
80107bc4:	78ca000c 	jal	0x800329e0
80107bc8:	06000424 	li	a0,6
80107bcc:	21480000 	move	t1,zero
80107bd0:	21502001 	move	t2,t1
80107bd4:	21402001 	move	t0,t1
80107bd8:	00a8c948 	ctc2	t1,$21
80107bdc:	00b0ca48 	ctc2	t2,$22
80107be0:	00b8c848 	ctc2	t0,$23
80107be4:	21888002 	move	s1,s4
80107be8:	00003092 	lbu	s0,0(s1)
80107bec:	00000000 	nop
80107bf0:	56000012 	beqz	s0,0x80107d4c
80107bf4:	40101000 	sll	v0,s0,0x1
80107bf8:	21105000 	addu	v0,v0,s0
80107bfc:	00810200 	sll	s0,v0,0x4
80107c00:	4e00a286 	lh	v0,78(s5)
80107c04:	0400328e 	lw	s2,4(s1)
80107c08:	00000000 	nop
80107c0c:	10004016 	bnez	s2,0x80107c50
80107c10:	21800202 	addu	s0,s0,v0
80107c14:	01002382 	lb	v1,1(s1)
80107c18:	00000000 	nop
80107c1c:	04006014 	bnez	v1,0x80107c30
80107c20:	01000224 	li	v0,1
80107c24:	1280023c 	lui	v0,0x8012
80107c28:	fb420408 	j	0x80110bec
80107c2c:	44aa5224 	addiu	s2,v0,-21948
80107c30:	03006210 	beq	v1,v0,0x80107c40
80107c34:	40000224 	li	v0,64
80107c38:	3a430408 	j	0x80110ce8
80107c3c:	010022a2 	sb	v0,1(s1)
80107c40:	1280023c 	lui	v0,0x8012
80107c44:	e4a95224 	addiu	s2,v0,-22044
80107c48:	02000224 	li	v0,2
80107c4c:	010022a2 	sb	v0,1(s1)
80107c50:	d40f020c 	jal	0x80083f50
80107c54:	21200002 	move	a0,s0
80107c58:	21200002 	move	a0,s0
80107c5c:	40110200 	sll	v0,v0,0x5
80107c60:	2c00a396 	lhu	v1,44(s5)
80107c64:	03130200 	sra	v0,v0,0xc
80107c68:	21186200 	addu	v1,v1,v0
80107c6c:	a00f020c 	jal	0x80083e80
80107c70:	1000a3a7 	sh	v1,16(sp)
80107c74:	40110200 	sll	v0,v0,0x5
80107c78:	3000a396 	lhu	v1,48(s5)
80107c7c:	03130200 	sra	v0,v0,0xc
80107c80:	21186200 	addu	v1,v1,v0
80107c84:	1400a3a7 	sh	v1,20(sp)
80107c88:	00002292 	lbu	v0,0(s1)
80107c8c:	00000000 	nop
80107c90:	18005300 	mult	v0,s3
80107c94:	2e00a296 	lhu	v0,46(s5)
80107c98:	12400000 	mflo	t0
80107c9c:	c3190800 	sra	v1,t0,0x7
80107ca0:	23104300 	subu	v0,v0,v1
80107ca4:	1200a2a7 	sh	v0,18(sp)
80107ca8:	1000a227 	addiu	v0,sp,16
80107cac:	000040c8 	lwc2	$0,0(v0)
80107cb0:	040041c8 	lwc2	$1,4(v0)
80107cb4:	3200a486 	lh	a0,50(s5)
80107cb8:	f3c5000c 	jal	0x800317cc
80107cbc:	00000000 	nop
80107cc0:	22004014 	bnez	v0,0x80107d4c
80107cc4:	00000000 	nop
80107cc8:	00002292 	lbu	v0,0(s1)
80107ccc:	00000000 	nop
80107cd0:	18004200 	mult	v0,v0
80107cd4:	0400a392 	lbu	v1,4(s5)
80107cd8:	12100000 	mflo	v0
80107cdc:	c3110200 	sra	v0,v0,0x7
80107ce0:	40100200 	sll	v0,v0,0x1
80107ce4:	40004424 	addiu	a0,v0,64
80107ce8:	02000224 	li	v0,2
80107cec:	08006214 	bne	v1,v0,0x80107d10
80107cf0:	40000224 	li	v0,64
80107cf4:	0500a392 	lbu	v1,5(s5)
80107cf8:	00000000 	nop
80107cfc:	23104300 	subu	v0,v0,v1
80107d00:	80110200 	sll	v0,v0,0x6
80107d04:	21108200 	addu	v0,a0,v0
80107d08:	2c430408 	j	0x80110cb0
80107d0c:	0000e2ae 	sw	v0,0(s7)
80107d10:	0000e4ae 	sw	a0,0(s7)
80107d14:	0000c28f 	lw	v0,0(s8)
80107d18:	00000000 	nop
80107d1c:	18004400 	mult	v0,a0
80107d20:	801f093c 	lui	t1,0x1f80
80107d24:	88002925 	addiu	t1,t1,136
80107d28:	21204002 	move	a0,s2
80107d2c:	1280023c 	lui	v0,0x8012
80107d30:	40aa458c 	lw	a1,-21952(v0)
80107d34:	12400000 	mflo	t0
80107d38:	03120800 	sra	v0,t0,0x8
80107d3c:	000022ad 	sw	v0,0(t1)
80107d40:	939e000c 	jal	0x80027a4c
80107d44:	0000c2af 	sw	v0,0(s8)
80107d48:	040022ae 	sw	v0,4(s1)
80107d4c:	08003126 	addiu	s1,s1,8
80107d50:	20008226 	addiu	v0,s4,32
80107d54:	2a102202 	slt	v0,s1,v0
80107d58:	a3ff4014 	bnez	v0,0x80107be8
80107d5c:	7800b227 	addiu	s2,sp,120
80107d60:	4e00b386 	lh	s3,78(s5)
80107d64:	21880000 	move	s1,zero
80107d68:	21a02002 	move	s4,s1
80107d6c:	d40f020c 	jal	0x80083f50
80107d70:	21206002 	move	a0,s3
80107d74:	21206002 	move	a0,s3
80107d78:	c0181100 	sll	v1,s1,0x3
80107d7c:	1800b027 	addiu	s0,sp,24
80107d80:	21800302 	addu	s0,s0,v1
80107d84:	40110200 	sll	v0,v0,0x5
80107d88:	2c00a396 	lhu	v1,44(s5)
80107d8c:	03130200 	sra	v0,v0,0xc
80107d90:	21186200 	addu	v1,v1,v0
80107d94:	a00f020c 	jal	0x80083e80
80107d98:	000003a6 	sh	v1,0(s0)
80107d9c:	aa2a033c 	lui	v1,0x2aaa
80107da0:	abaa6334 	ori	v1,v1,0xaaab
80107da4:	18008302 	mult	s4,v1
80107da8:	40110200 	sll	v0,v0,0x5
80107dac:	03130200 	sra	v0,v0,0xc
80107db0:	3000a396 	lhu	v1,48(s5)
80107db4:	c3271400 	sra	a0,s4,0x1f
80107db8:	21186200 	addu	v1,v1,v0
80107dbc:	040003a6 	sh	v1,4(s0)
80107dc0:	2e00a296 	lhu	v0,46(s5)
80107dc4:	10400000 	mfhi	t0
80107dc8:	43180800 	sra	v1,t0,0x1
80107dcc:	23186400 	subu	v1,v1,a0
80107dd0:	23104300 	subu	v0,v0,v1
80107dd4:	04002012 	beqz	s1,0x80107de8
80107dd8:	020002a6 	sh	v0,2(s0)
80107ddc:	0b000224 	li	v0,11
80107de0:	03002216 	bne	s1,v0,0x80107df0
80107de4:	01000224 	li	v0,1
80107de8:	7d430408 	j	0x80110df4
80107dec:	000040ae 	sw	zero,0(s2)
80107df0:	03002212 	beq	s1,v0,0x80107e00
80107df4:	0a000224 	li	v0,10
80107df8:	05002216 	bne	s1,v0,0x80107e10
80107dfc:	02000224 	li	v0,2
80107e00:	3000023c 	lui	v0,0x30
80107e04:	30304234 	ori	v0,v0,0x3030
80107e08:	7d430408 	j	0x80110df4
80107e0c:	000042ae 	sw	v0,0(s2)
80107e10:	03002212 	beq	s1,v0,0x80107e20
80107e14:	09000224 	li	v0,9
80107e18:	05002216 	bne	s1,v0,0x80107e30
80107e1c:	00000000 	nop
80107e20:	6000023c 	lui	v0,0x60
80107e24:	60604234 	ori	v0,v0,0x6060
80107e28:	7d430408 	j	0x80110df4
80107e2c:	000042ae 	sw	v0,0(s2)
80107e30:	d40f020c 	jal	0x80083f50
80107e34:	21206002 	move	a0,s3
80107e38:	03110200 	sra	v0,v0,0x4
80107e3c:	7f004230 	andi	v0,v0,0x7f
80107e40:	80004224 	addiu	v0,v0,128
80107e44:	001c0200 	sll	v1,v0,0x10
80107e48:	00220200 	sll	a0,v0,0x8
80107e4c:	25186400 	or	v1,v1,a0
80107e50:	25186200 	or	v1,v1,v0
80107e54:	000043ae 	sw	v1,0(s2)
80107e58:	18003102 	mult	s1,s1
80107e5c:	a800a727 	addiu	a3,sp,168
80107e60:	12100000 	mflo	v0
80107e64:	02004104 	bgez	v0,0x80107e70
80107e68:	2120f100 	addu	a0,a3,s1
80107e6c:	07004224 	addiu	v0,v0,7
80107e70:	c3100200 	sra	v0,v0,0x3
80107e74:	0600a392 	lbu	v1,6(s5)
80107e78:	06004224 	addiu	v0,v0,6
80107e7c:	18004300 	mult	v0,v1
80107e80:	04005226 	addiu	s2,s2,4
80107e84:	21a09602 	addu	s4,s4,s6
80107e88:	01003126 	addiu	s1,s1,1
80107e8c:	12400000 	mflo	t0
80107e90:	c3110800 	sra	v0,t0,0x7
80107e94:	000082a0 	sb	v0,0(a0)
80107e98:	0c00222a 	slti	v0,s1,12
80107e9c:	b3ff4014 	bnez	v0,0x80107d6c
80107ea0:	00027326 	addiu	s3,s3,512
80107ea4:	1800a427 	addiu	a0,sp,24
80107ea8:	0c000524 	li	a1,12
80107eac:	99a5000c 	jal	0x80029664
80107eb0:	7800a627 	addiu	a2,sp,120
80107eb4:	0c80023c 	lui	v0,0x800c
80107eb8:	44f5538c 	lw	s3,-2748(v0)
80107ebc:	78ca000c 	jal	0x800329e0
80107ec0:	06000424 	li	a0,6
80107ec4:	2c00a0ca 	lwc2	$0,44(s5)
80107ec8:	3000a1ca 	lwc2	$1,48(s5)
80107ecc:	f3c5000c 	jal	0x800317cc
80107ed0:	ecff0424 	li	a0,-20
80107ed4:	86004014 	bnez	v0,0x801080f0
80107ed8:	21b80000 	move	s7,zero
80107edc:	0600a292 	lbu	v0,6(s5)
80107ee0:	21f0e002 	move	s8,s7
80107ee4:	80180200 	sll	v1,v0,0x2
80107ee8:	21186200 	addu	v1,v1,v0
80107eec:	00110300 	sll	v0,v1,0x4
80107ef0:	23104300 	subu	v0,v0,v1
80107ef4:	83a10200 	sra	s4,v0,0x6
80107ef8:	21208002 	move	a0,s4
80107efc:	ffff9426 	addiu	s4,s4,-1
80107f00:	4800a296 	lhu	v0,72(s5)
80107f04:	4a00a396 	lhu	v1,74(s5)
80107f08:	14004224 	addiu	v0,v0,20
80107f0c:	01006324 	addiu	v1,v1,1
80107f10:	4800a2a6 	sh	v0,72(s5)
80107f14:	74008018 	blez	a0,0x801080e8
80107f18:	4a00a3a6 	sh	v1,74(s5)
80107f1c:	08007626 	addiu	s6,s3,8
80107f20:	00141700 	sll	v0,s7,0x10
80107f24:	03140200 	sra	v0,v0,0x10
80107f28:	80180200 	sll	v1,v0,0x2
80107f2c:	21186200 	addu	v1,v1,v0
80107f30:	01006324 	addiu	v1,v1,1
80107f34:	00140300 	sll	v0,v1,0x10
80107f38:	4800a486 	lh	a0,72(s5)
80107f3c:	03140200 	sra	v0,v0,0x10
80107f40:	21104400 	addu	v0,v0,a0
80107f44:	ff035230 	andi	s2,v0,0x3ff
80107f48:	18005202 	mult	s2,s2
80107f4c:	12580000 	mflo	t3
80107f50:	bc00a88f 	lw	t0,188(sp)
80107f54:	00000000 	nop
80107f58:	18006801 	mult	t3,t0
80107f5c:	21b86000 	move	s7,v1
80107f60:	001c1e00 	sll	v1,s8,0x10
80107f64:	031c0300 	sra	v1,v1,0x10
80107f68:	40110300 	sll	v0,v1,0x5
80107f6c:	23104300 	subu	v0,v0,v1
80107f70:	80100200 	sll	v0,v0,0x2
80107f74:	23104300 	subu	v0,v0,v1
80107f78:	01004324 	addiu	v1,v0,1
80107f7c:	12880000 	mflo	s1
80107f80:	04002106 	bgez	s1,0x80107f94
80107f84:	21f06000 	move	s8,v1
80107f88:	0f00023c 	lui	v0,0xf
80107f8c:	ffff4234 	ori	v0,v0,0xffff
80107f90:	21882202 	addu	s1,s1,v0
80107f94:	038d1100 	sra	s1,s1,0x14
80107f98:	3c003126 	addiu	s1,s1,60
80107f9c:	00140300 	sll	v0,v1,0x10
80107fa0:	4e00b086 	lh	s0,78(s5)
80107fa4:	03140200 	sra	v0,v0,0x10
80107fa8:	21801202 	addu	s0,s0,s2
80107fac:	80801000 	sll	s0,s0,0x2
80107fb0:	21800202 	addu	s0,s0,v0
80107fb4:	d40f020c 	jal	0x80083f50
80107fb8:	21200002 	move	a0,s0
80107fbc:	18005100 	mult	v0,s1
80107fc0:	21200002 	move	a0,s0
80107fc4:	12180000 	mflo	v1
80107fc8:	a00f020c 	jal	0x80083e80
80107fcc:	03830300 	sra	s0,v1,0xc
80107fd0:	18005100 	mult	v0,s1
80107fd4:	12180000 	mflo	v1
80107fd8:	b800a88f 	lw	t0,184(sp)
80107fdc:	00000000 	nop
80107fe0:	18004802 	mult	s2,t0
80107fe4:	4e1b023c 	lui	v0,0x1b4e
80107fe8:	b5814234 	ori	v0,v0,0x81b5
80107fec:	40201200 	sll	a0,s2,0x1
80107ff0:	12280000 	mflo	a1
80107ff4:	21209200 	addu	a0,a0,s2
80107ff8:	c0220400 	sll	a0,a0,0xb
80107ffc:	18008200 	mult	a0,v0
80108000:	2c00a296 	lhu	v0,44(s5)
80108004:	031b0300 	sra	v1,v1,0xc
80108008:	21105000 	addu	v0,v0,s0
8010800c:	1000a2a7 	sh	v0,16(sp)
80108010:	3000a296 	lhu	v0,48(s5)
80108014:	c3270400 	sra	a0,a0,0x1f
80108018:	21104300 	addu	v0,v0,v1
8010801c:	1400a2a7 	sh	v0,20(sp)
80108020:	2e00a296 	lhu	v0,46(s5)
80108024:	831a0500 	sra	v1,a1,0xa
80108028:	23104300 	subu	v0,v0,v1
8010802c:	1200a2a7 	sh	v0,18(sp)
80108030:	4e00a286 	lh	v0,78(s5)
80108034:	10580000 	mfhi	t3
80108038:	83810b00 	sra	s0,t3,0x6
8010803c:	23800402 	subu	s0,s0,a0
80108040:	21800202 	addu	s0,s0,v0
80108044:	d40f020c 	jal	0x80083f50
80108048:	21200002 	move	a0,s0
8010804c:	21200002 	move	a0,s0
80108050:	40110200 	sll	v0,v0,0x5
80108054:	1000a397 	lhu	v1,16(sp)
80108058:	03130200 	sra	v0,v0,0xc
8010805c:	21186200 	addu	v1,v1,v0
80108060:	a00f020c 	jal	0x80083e80
80108064:	1000a3a7 	sh	v1,16(sp)
80108068:	40110200 	sll	v0,v0,0x5
8010806c:	1400a397 	lhu	v1,20(sp)
80108070:	03130200 	sra	v0,v0,0xc
80108074:	21186200 	addu	v1,v1,v0
80108078:	1000a227 	addiu	v0,sp,16
8010807c:	1400a3a7 	sh	v1,20(sp)
80108080:	000040c8 	lwc2	$0,0(v0)
80108084:	040041c8 	lwc2	$1,4(v0)
	...
80108090:	0100184a 	c2	0x180001
80108094:	0000ceea 	swc2	$14,0(s6)
80108098:	ff68023c 	lui	v0,0x68ff
8010809c:	ffff4234 	ori	v0,v0,0xffff
801080a0:	fcffc2ae 	sw	v0,-4(s6)
801080a4:	0f80033c 	lui	v1,0x800f
801080a8:	801f083c 	lui	t0,0x1f80
801080ac:	80000825 	addiu	t0,t0,128
801080b0:	0000028d 	lw	v0,0(t0)
801080b4:	c8d8648c 	lw	a0,-10040(v1)
801080b8:	80100200 	sll	v0,v0,0x2
801080bc:	21208200 	addu	a0,a0,v0
801080c0:	0000828c 	lw	v0,0(a0)
801080c4:	0002033c 	lui	v1,0x200
801080c8:	25104300 	or	v0,v0,v1
801080cc:	000062ae 	sw	v0,0(s3)
801080d0:	000093ac 	sw	s3,0(a0)
801080d4:	0c00d626 	addiu	s6,s6,12
801080d8:	0c007326 	addiu	s3,s3,12
801080dc:	21108002 	move	v0,s4
801080e0:	8fff401c 	bgtz	v0,0x80107f20
801080e4:	ffff9426 	addiu	s4,s4,-1
801080e8:	0c80023c 	lui	v0,0x800c
801080ec:	44f553ac 	sw	s3,-2748(v0)
801080f0:	e400bf8f 	lw	ra,228(sp)
801080f4:	e000be8f 	lw	s8,224(sp)
801080f8:	dc00b78f 	lw	s7,220(sp)
801080fc:	d800b68f 	lw	s6,216(sp)
80108100:	d400b58f 	lw	s5,212(sp)
80108104:	d000b48f 	lw	s4,208(sp)
80108108:	cc00b38f 	lw	s3,204(sp)
8010810c:	c800b28f 	lw	s2,200(sp)
80108110:	c400b18f 	lw	s1,196(sp)
80108114:	c000b08f 	lw	s0,192(sp)
80108118:	0800e003 	jr	ra
8010811c:	e800bd27 	addiu	sp,sp,232
80108120:	c0ffbd27 	addiu	sp,sp,-64
80108124:	21388000 	move	a3,a0
80108128:	1c00b1af 	sw	s1,28(sp)
8010812c:	801f113c 	lui	s1,0x1f80
80108130:	d0003126 	addiu	s1,s1,208
80108134:	0c80023c 	lui	v0,0x800c
80108138:	2400b3af 	sw	s3,36(sp)
8010813c:	44f5538c 	lw	s3,-2748(v0)
80108140:	28002426 	addiu	a0,s1,40
80108144:	3800bfaf 	sw	ra,56(sp)
80108148:	3400b7af 	sw	s7,52(sp)
8010814c:	3000b6af 	sw	s6,48(sp)
80108150:	2c00b5af 	sw	s5,44(sp)
80108154:	2800b4af 	sw	s4,40(sp)
80108158:	2000b2af 	sw	s2,32(sp)
8010815c:	1800b0af 	sw	s0,24(sp)
80108160:	5000f28c 	lw	s2,80(a3)
80108164:	34003686 	lh	s6,52(s1)
80108168:	36003586 	lh	s5,54(s1)
8010816c:	38003486 	lh	s4,56(s1)
80108170:	02002296 	lhu	v0,2(s1)
80108174:	c0b21600 	sll	s6,s6,0xb
80108178:	c0aa1500 	sll	s5,s5,0xb
8010817c:	c0a21400 	sll	s4,s4,0xb
80108180:	03b31600 	sra	s6,s6,0xc
80108184:	03ab1500 	sra	s5,s5,0xc
80108188:	03a31400 	sra	s4,s4,0xc
8010818c:	00fc4224 	addiu	v0,v0,-1024
80108190:	1000a2a7 	sh	v0,16(sp)
80108194:	06002396 	lhu	v1,6(s1)
80108198:	0a002596 	lhu	a1,10(s1)
8010819c:	21105600 	addu	v0,v0,s6
801081a0:	1000a2a7 	sh	v0,16(sp)
801081a4:	00140200 	sll	v0,v0,0x10
801081a8:	03140200 	sra	v0,v0,0x10
801081ac:	00fc6324 	addiu	v1,v1,-1024
801081b0:	00fca524 	addiu	a1,a1,-1024
801081b4:	1400a5a7 	sh	a1,20(sp)
801081b8:	2128b400 	addu	a1,a1,s4
801081bc:	1200a3a7 	sh	v1,18(sp)
801081c0:	21187500 	addu	v1,v1,s5
801081c4:	1200a3a7 	sh	v1,18(sp)
801081c8:	001c0300 	sll	v1,v1,0x10
801081cc:	1400a5a7 	sh	a1,20(sp)
801081d0:	2c00e684 	lh	a2,44(a3)
801081d4:	031c0300 	sra	v1,v1,0x10
801081d8:	23b0c200 	subu	s6,a2,v0
801081dc:	2e00e284 	lh	v0,46(a3)
801081e0:	002c0500 	sll	a1,a1,0x10
801081e4:	23a84300 	subu	s5,v0,v1
801081e8:	3000e284 	lh	v0,48(a3)
801081ec:	032c0500 	sra	a1,a1,0x10
801081f0:	23a04500 	subu	s4,v0,a1
801081f4:	801f023c 	lui	v0,0x1f80
801081f8:	9811020c 	jal	0x80084660
801081fc:	80005724 	addiu	s7,v0,128
80108200:	1000a427 	addiu	a0,sp,16
80108204:	801f103c 	lui	s0,0x1f80
80108208:	14001026 	addiu	s0,s0,20
8010820c:	8810020c 	jal	0x80084220
80108210:	21280002 	move	a1,s0
80108214:	ecff1026 	addiu	s0,s0,-20
80108218:	1400028e 	lw	v0,20(s0)
8010821c:	3c00238e 	lw	v1,60(s1)
80108220:	21200002 	move	a0,s0
80108224:	21104300 	addu	v0,v0,v1
80108228:	140082ac 	sw	v0,20(a0)
8010822c:	1800828c 	lw	v0,24(a0)
80108230:	4000258e 	lw	a1,64(s1)
80108234:	1c00838c 	lw	v1,28(a0)
80108238:	4400268e 	lw	a2,68(s1)
8010823c:	21104500 	addu	v0,v0,a1
80108240:	21186600 	addu	v1,v1,a2
80108244:	180082ac 	sw	v0,24(a0)
80108248:	a411020c 	jal	0x80084690
8010824c:	1c0083ac 	sw	v1,28(a0)
80108250:	1280023c 	lui	v0,0x8012
80108254:	30c0448c 	lw	a0,-16336(v0)
80108258:	00000000 	nop
8010825c:	18004402 	mult	s2,a0
80108260:	12500000 	mflo	t2
80108264:	031c1200 	sra	v1,s2,0x10
80108268:	01005225 	addiu	s2,t2,1
8010826c:	18004402 	mult	s2,a0
80108270:	2180e002 	move	s0,s7
80108274:	00020624 	li	a2,512
80108278:	21484000 	move	t1,v0
8010827c:	801f023c 	lui	v0,0x1f80
80108280:	21404000 	move	t0,v0
80108284:	c0000225 	addiu	v0,t0,192
80108288:	21384000 	move	a3,v0
8010828c:	12500000 	mflo	t2
80108290:	03141200 	sra	v0,s2,0x10
80108294:	01005225 	addiu	s2,t2,1
80108298:	18004402 	mult	s2,a0
8010829c:	04006526 	addiu	a1,s3,4
801082a0:	21187600 	addu	v1,v1,s6
801082a4:	ff076330 	andi	v1,v1,0x7ff
801082a8:	c00003a5 	sh	v1,192(t0)
801082ac:	21105500 	addu	v0,v0,s5
801082b0:	ff074230 	andi	v0,v0,0x7ff
801082b4:	0200e2a4 	sh	v0,2(a3)
801082b8:	03141200 	sra	v0,s2,0x10
801082bc:	21105400 	addu	v0,v0,s4
801082c0:	ff074230 	andi	v0,v0,0x7ff
801082c4:	0400e2a4 	sh	v0,4(a3)
801082c8:	12500000 	mflo	t2
801082cc:	01005225 	addiu	s2,t2,1
801082d0:	801f0a3c 	lui	t2,0x1f80
801082d4:	c0004a25 	addiu	t2,t2,192
801082d8:	000040c9 	lwc2	$0,0(t2)
801082dc:	040041c9 	lwc2	$1,4(t2)
801082e0:	30c0238d 	lw	v1,-16336(t1)
801082e4:	00000000 	nop
801082e8:	18004302 	mult	s2,v1
801082ec:	12500000 	mflo	t2
801082f0:	01005225 	addiu	s2,t2,1
801082f4:	0100184a 	c2	0x180001
801082f8:	00000000 	nop
801082fc:	18004302 	mult	s2,v1
80108300:	12500000 	mflo	t2
80108304:	03141200 	sra	v0,s2,0x10
80108308:	01005225 	addiu	s2,t2,1
8010830c:	18004302 	mult	s2,v1
80108310:	21105600 	addu	v0,v0,s6
80108314:	ff074230 	andi	v0,v0,0x7ff
80108318:	c00002a5 	sh	v0,192(t0)
8010831c:	03141200 	sra	v0,s2,0x10
80108320:	21105500 	addu	v0,v0,s5
80108324:	ff074230 	andi	v0,v0,0x7ff
80108328:	0200e2a4 	sh	v0,2(a3)
8010832c:	12500000 	mflo	t2
80108330:	01005225 	addiu	s2,t2,1
80108334:	03141200 	sra	v0,s2,0x10
80108338:	21105400 	addu	v0,v0,s4
8010833c:	ff074230 	andi	v0,v0,0x7ff
80108340:	0400e2a4 	sh	v0,4(a3)
80108344:	00f84c48 	cfc2	t4,$31
80108348:	00000000 	nop
8010834c:	00000cae 	sw	t4,0(s0)
80108350:	0000028e 	lw	v0,0(s0)
80108354:	00000000 	nop
80108358:	1f004004 	bltz	v0,0x801083d8
8010835c:	08006226 	addiu	v0,s3,8
80108360:	00004ee8 	swc2	$14,0(v0)
80108364:	0000f3ea 	swc2	$19,0(s7)
80108368:	0400a294 	lhu	v0,4(a1)
8010836c:	00000000 	nop
80108370:	4001422c 	sltiu	v0,v0,320
80108374:	18004010 	beqz	v0,0x801083d8
80108378:	00000000 	nop
8010837c:	0000e28e 	lw	v0,0(s7)
80108380:	00000000 	nop
80108384:	00064228 	slti	v0,v0,1536
80108388:	03004010 	beqz	v0,0x80108398
8010838c:	0200023c 	lui	v0,0x2
80108390:	cf440408 	j	0x8011133c
80108394:	02004234 	ori	v0,v0,0x2
80108398:	0100023c 	lui	v0,0x1
8010839c:	01004234 	ori	v0,v0,0x1
801083a0:	0800a2ac 	sw	v0,8(a1)
801083a4:	ff60023c 	lui	v0,0x60ff
801083a8:	ffff4234 	ori	v0,v0,0xffff
801083ac:	0000a2ac 	sw	v0,0(a1)
801083b0:	0f80023c 	lui	v0,0x800f
801083b4:	c8d8448c 	lw	a0,-10040(v0)
801083b8:	00000000 	nop
801083bc:	0004828c 	lw	v0,1024(a0)
801083c0:	0003033c 	lui	v1,0x300
801083c4:	25104300 	or	v0,v0,v1
801083c8:	000062ae 	sw	v0,0(s3)
801083cc:	000493ac 	sw	s3,1024(a0)
801083d0:	1000a524 	addiu	a1,a1,16
801083d4:	10007326 	addiu	s3,s3,16
801083d8:	ffffc624 	addiu	a2,a2,-1
801083dc:	bdffc104 	bgez	a2,0x801082d4
801083e0:	801f0a3c 	lui	t2,0x1f80
801083e4:	3800bf8f 	lw	ra,56(sp)
801083e8:	3400b78f 	lw	s7,52(sp)
801083ec:	3000b68f 	lw	s6,48(sp)
801083f0:	2c00b58f 	lw	s5,44(sp)
801083f4:	2800b48f 	lw	s4,40(sp)
801083f8:	0c80023c 	lui	v0,0x800c
801083fc:	44f553ac 	sw	s3,-2748(v0)
80108400:	2400b38f 	lw	s3,36(sp)
80108404:	2000b28f 	lw	s2,32(sp)
80108408:	1c00b18f 	lw	s1,28(sp)
8010840c:	1800b08f 	lw	s0,24(sp)
80108410:	0800e003 	jr	ra
80108414:	4000bd27 	addiu	sp,sp,64
80108418:	d8ffbd27 	addiu	sp,sp,-40
8010841c:	1c00b3af 	sw	s3,28(sp)
80108420:	21988000 	move	s3,a0
80108424:	2000b4af 	sw	s4,32(sp)
80108428:	2400bfaf 	sw	ra,36(sp)
8010842c:	1800b2af 	sw	s2,24(sp)
80108430:	1400b1af 	sw	s1,20(sp)
80108434:	1000b0af 	sw	s0,16(sp)
80108438:	04006392 	lbu	v1,4(s3)
8010843c:	01000224 	li	v0,1
80108440:	45006210 	beq	v1,v0,0x80108558
80108444:	50007426 	addiu	s4,s3,80
80108448:	02006228 	slti	v0,v1,2
8010844c:	05004010 	beqz	v0,0x80108464
80108450:	00000000 	nop
80108454:	08006010 	beqz	v1,0x80108478
80108458:	21880000 	move	s1,zero
8010845c:	5f450408 	j	0x8011157c
80108460:	00000000 	nop
80108464:	04006228 	slti	v0,v1,4
80108468:	5d004010 	beqz	v0,0x801085e0
8010846c:	00000000 	nop
80108470:	5d450408 	j	0x80111574
80108474:	00000000 	nop
80108478:	21908002 	move	s2,s4
8010847c:	1469020c 	jal	0x8009a450
80108480:	03003032 	andi	s0,s1,0x3
80108484:	1469020c 	jal	0x8009a450
80108488:	010042a2 	sb	v0,1(s2)
8010848c:	1f004230 	andi	v0,v0,0x1f
80108490:	05000016 	bnez	s0,0x801084a8
80108494:	020042a2 	sb	v0,2(s2)
80108498:	1469020c 	jal	0x8009a450
8010849c:	00000000 	nop
801084a0:	1d450408 	j	0x80111474
801084a4:	7f004230 	andi	v0,v0,0x7f
801084a8:	01000224 	li	v0,1
801084ac:	06000216 	bne	s0,v0,0x801084c8
801084b0:	00000000 	nop
801084b4:	1469020c 	jal	0x8009a450
801084b8:	00000000 	nop
801084bc:	7f004230 	andi	v0,v0,0x7f
801084c0:	1d450408 	j	0x80111474
801084c4:	30004224 	addiu	v0,v0,48
801084c8:	1469020c 	jal	0x8009a450
801084cc:	00000000 	nop
801084d0:	7f004230 	andi	v0,v0,0x7f
801084d4:	60004224 	addiu	v0,v0,96
801084d8:	000042a2 	sb	v0,0(s2)
801084dc:	01003126 	addiu	s1,s1,1
801084e0:	0e00222a 	slti	v0,s1,14
801084e4:	e5ff4014 	bnez	v0,0x8010847c
801084e8:	04005226 	addiu	s2,s2,4
801084ec:	01000224 	li	v0,1
801084f0:	040062a2 	sb	v0,4(s3)
801084f4:	19000224 	li	v0,25
801084f8:	050060a2 	sb	zero,5(s3)
801084fc:	1469020c 	jal	0x8009a450
80108500:	070062a2 	sb	v0,7(s3)
80108504:	1469020c 	jal	0x8009a450
80108508:	480062a6 	sh	v0,72(s3)
8010850c:	1469020c 	jal	0x8009a450
80108510:	4a0062a6 	sh	v0,74(s3)
80108514:	4c0062a6 	sh	v0,76(s3)
80108518:	0f80023c 	lui	v0,0x800f
8010851c:	88cf438c 	lw	v1,-12408(v0)
80108520:	00000000 	nop
80108524:	04006424 	addiu	a0,v1,4
80108528:	1000828c 	lw	v0,16(a0)
8010852c:	00000000 	nop
80108530:	21106200 	addu	v0,v1,v0
80108534:	3c0062ae 	sw	v0,60(s3)
80108538:	1400828c 	lw	v0,20(a0)
8010853c:	00000000 	nop
80108540:	21106200 	addu	v0,v1,v0
80108544:	340062ae 	sw	v0,52(s3)
80108548:	1800828c 	lw	v0,24(a0)
8010854c:	00000000 	nop
80108550:	21186200 	addu	v1,v1,v0
80108554:	380063ae 	sw	v1,56(s3)
80108558:	07006292 	lbu	v0,7(s3)
8010855c:	00000000 	nop
80108560:	ffff4224 	addiu	v0,v0,-1
80108564:	070062a2 	sb	v0,7(s3)
80108568:	ff004230 	andi	v0,v0,0xff
8010856c:	04004014 	bnez	v0,0x80108580
80108570:	21880000 	move	s1,zero
80108574:	02000224 	li	v0,2
80108578:	5f450408 	j	0x8011157c
8010857c:	040062a2 	sb	v0,4(s3)
80108580:	21188002 	move	v1,s4
80108584:	02006290 	lbu	v0,2(v1)
80108588:	01003126 	addiu	s1,s1,1
8010858c:	04004224 	addiu	v0,v0,4
80108590:	020062a0 	sb	v0,2(v1)
80108594:	0e00222a 	slti	v0,s1,14
80108598:	faff4014 	bnez	v0,0x80108584
8010859c:	04006324 	addiu	v1,v1,4
801085a0:	1469020c 	jal	0x8009a450
801085a4:	00000000 	nop
801085a8:	48006396 	lhu	v1,72(s3)
801085ac:	c3110200 	sra	v0,v0,0x7
801085b0:	21186200 	addu	v1,v1,v0
801085b4:	1469020c 	jal	0x8009a450
801085b8:	480063a6 	sh	v1,72(s3)
801085bc:	01000324 	li	v1,1
801085c0:	010063a2 	sb	v1,1(s3)
801085c4:	4a006396 	lhu	v1,74(s3)
801085c8:	03120200 	sra	v0,v0,0x8
801085cc:	21186200 	addu	v1,v1,v0
801085d0:	5f450408 	j	0x8011157c
801085d4:	4a0063a6 	sh	v1,74(s3)
801085d8:	89e9010c 	jal	0x8007a624
801085dc:	21206002 	move	a0,s3
801085e0:	2400bf8f 	lw	ra,36(sp)
801085e4:	2000b48f 	lw	s4,32(sp)
801085e8:	1c00b38f 	lw	s3,28(sp)
801085ec:	1800b28f 	lw	s2,24(sp)
801085f0:	1400b18f 	lw	s1,20(sp)
801085f4:	1000b08f 	lw	s0,16(sp)
801085f8:	0800e003 	jr	ra
801085fc:	2800bd27 	addiu	sp,sp,40
80108600:	b8ffbd27 	addiu	sp,sp,-72
80108604:	3000b2af 	sw	s2,48(sp)
80108608:	21908000 	move	s2,a0
8010860c:	3800b4af 	sw	s4,56(sp)
80108610:	21a00000 	move	s4,zero
80108614:	4000b6af 	sw	s6,64(sp)
80108618:	0f80163c 	lui	s6,0x800f
8010861c:	3400b3af 	sw	s3,52(sp)
80108620:	50005326 	addiu	s3,s2,80
80108624:	1180023c 	lui	v0,0x8011
80108628:	4400bfaf 	sw	ra,68(sp)
8010862c:	3c00b5af 	sw	s5,60(sp)
80108630:	2c00b1af 	sw	s1,44(sp)
80108634:	2800b0af 	sw	s0,40(sp)
80108638:	cc914a24 	addiu	t2,v0,-28212
8010863c:	03004789 	lwl	a3,3(t2)
80108640:	00004799 	lwr	a3,0(t2)
80108644:	00000000 	nop
80108648:	1300a7ab 	swl	a3,19(sp)
8010864c:	1000a7bb 	swr	a3,16(sp)
80108650:	4c005586 	lh	s5,76(s2)
80108654:	02007092 	lbu	s0,2(s3)
80108658:	2120a002 	move	a0,s5
8010865c:	d40f020c 	jal	0x80083f50
80108660:	00811000 	sll	s0,s0,0x4
80108664:	01006392 	lbu	v1,1(s3)
80108668:	00000000 	nop
8010866c:	18004300 	mult	v0,v1
80108670:	12880000 	mflo	s1
80108674:	a00f020c 	jal	0x80083e80
80108678:	2120a002 	move	a0,s5
8010867c:	01006392 	lbu	v1,1(s3)
80108680:	00000000 	nop
80108684:	18004300 	mult	v0,v1
80108688:	12580000 	mflo	t3
	...
80108694:	18003002 	mult	s1,s0
80108698:	12180000 	mflo	v1
	...
801086a4:	18007001 	mult	t3,s0
801086a8:	21200002 	move	a0,s0
801086ac:	2c004296 	lhu	v0,44(s2)
801086b0:	031d0300 	sra	v1,v1,0x14
801086b4:	21104300 	addu	v0,v0,v1
801086b8:	1800a2a7 	sh	v0,24(sp)
801086bc:	30004296 	lhu	v0,48(s2)
801086c0:	12580000 	mflo	t3
801086c4:	031d0b00 	sra	v1,t3,0x14
801086c8:	21104300 	addu	v0,v0,v1
801086cc:	a00f020c 	jal	0x80083e80
801086d0:	1c00a2a7 	sh	v0,28(sp)
801086d4:	00006392 	lbu	v1,0(s3)
801086d8:	00000000 	nop
801086dc:	18004300 	mult	v0,v1
801086e0:	2e004296 	lhu	v0,46(s2)
801086e4:	12180000 	mflo	v1
801086e8:	831a0300 	sra	v1,v1,0xa
801086ec:	23104300 	subu	v0,v0,v1
801086f0:	1a00a2a7 	sh	v0,26(sp)
801086f4:	01008232 	andi	v0,s4,0x1
801086f8:	0c004010 	beqz	v0,0x8010872c
801086fc:	03009032 	andi	s0,s4,0x3
80108700:	48004296 	lhu	v0,72(s2)
80108704:	00000000 	nop
80108708:	23100200 	negu	v0,v0
8010870c:	2000a2a7 	sh	v0,32(sp)
80108710:	4a004296 	lhu	v0,74(s2)
80108714:	00000000 	nop
80108718:	23100200 	negu	v0,v0
8010871c:	2200a2a7 	sh	v0,34(sp)
80108720:	4c004296 	lhu	v0,76(s2)
80108724:	b9450408 	j	0x801116e4
80108728:	23100200 	negu	v0,v0
8010872c:	48004296 	lhu	v0,72(s2)
80108730:	00000000 	nop
80108734:	2000a2a7 	sh	v0,32(sp)
80108738:	4a004296 	lhu	v0,74(s2)
8010873c:	00000000 	nop
80108740:	2200a2a7 	sh	v0,34(sp)
80108744:	4c004296 	lhu	v0,76(s2)
80108748:	00000000 	nop
8010874c:	2400a2a7 	sh	v0,36(sp)
80108750:	1800a427 	addiu	a0,sp,24
80108754:	1000a527 	addiu	a1,sp,16
80108758:	28c6000c 	jal	0x800318a0
8010875c:	2000a627 	addiu	a2,sp,32
80108760:	04000016 	bnez	s0,0x80108774
80108764:	01000224 	li	v0,1
80108768:	3c00448e 	lw	a0,60(s2)
8010876c:	ca450408 	j	0x80111728
80108770:	00000000 	nop
80108774:	04000216 	bne	s0,v0,0x80108788
80108778:	00000000 	nop
8010877c:	3400448e 	lw	a0,52(s2)
80108780:	ca450408 	j	0x80111728
80108784:	00000000 	nop
80108788:	3800448e 	lw	a0,56(s2)
8010878c:	c8d8c58e 	lw	a1,-10040(s6)
80108790:	a6fd000c 	jal	0x8003f698
80108794:	21300000 	move	a2,zero
80108798:	04007326 	addiu	s3,s3,4
8010879c:	01009426 	addiu	s4,s4,1
801087a0:	0e00822a 	slti	v0,s4,14
801087a4:	abff4014 	bnez	v0,0x80108654
801087a8:	2401b526 	addiu	s5,s5,292
801087ac:	4400bf8f 	lw	ra,68(sp)
801087b0:	4000b68f 	lw	s6,64(sp)
801087b4:	3c00b58f 	lw	s5,60(sp)
801087b8:	3800b48f 	lw	s4,56(sp)
801087bc:	3400b38f 	lw	s3,52(sp)
801087c0:	3000b28f 	lw	s2,48(sp)
801087c4:	2c00b18f 	lw	s1,44(sp)
801087c8:	2800b08f 	lw	s0,40(sp)
801087cc:	0800e003 	jr	ra
801087d0:	4800bd27 	addiu	sp,sp,72
801087d4:	d8ffbd27 	addiu	sp,sp,-40
801087d8:	1800b2af 	sw	s2,24(sp)
801087dc:	21908000 	move	s2,a0
801087e0:	1c00b3af 	sw	s3,28(sp)
801087e4:	2000bfaf 	sw	ra,32(sp)
801087e8:	1400b1af 	sw	s1,20(sp)
801087ec:	1000b0af 	sw	s0,16(sp)
801087f0:	04004392 	lbu	v1,4(s2)
801087f4:	01000224 	li	v0,1
801087f8:	22006210 	beq	v1,v0,0x80108884
801087fc:	50005326 	addiu	s3,s2,80
80108800:	02006228 	slti	v0,v1,2
80108804:	05004010 	beqz	v0,0x8010881c
80108808:	00000000 	nop
8010880c:	08006010 	beqz	v1,0x80108830
80108810:	21880000 	move	s1,zero
80108814:	60460408 	j	0x80111980
80108818:	00000000 	nop
8010881c:	04006228 	slti	v0,v1,4
80108820:	70004010 	beqz	v0,0x801089e4
80108824:	00000000 	nop
80108828:	5e460408 	j	0x80111978
8010882c:	00000000 	nop
80108830:	21806002 	move	s0,s3
80108834:	1469020c 	jal	0x8009a450
80108838:	01003126 	addiu	s1,s1,1
8010883c:	1469020c 	jal	0x8009a450
80108840:	000002a2 	sb	v0,0(s0)
80108844:	010002a2 	sb	v0,1(s0)
80108848:	1469020c 	jal	0x8009a450
8010884c:	020000a2 	sb	zero,2(s0)
80108850:	0f004230 	andi	v0,v0,0xf
80108854:	030002a2 	sb	v0,3(s0)
80108858:	0a00222a 	slti	v0,s1,10
8010885c:	f5ff4014 	bnez	v0,0x80108834
80108860:	04001026 	addiu	s0,s0,4
80108864:	01000224 	li	v0,1
80108868:	040042a2 	sb	v0,4(s2)
8010886c:	0e000224 	li	v0,14
80108870:	480040a6 	sh	zero,72(s2)
80108874:	4e0040a6 	sh	zero,78(s2)
80108878:	050040a2 	sb	zero,5(s2)
8010887c:	060042a2 	sb	v0,6(s2)
80108880:	070040a2 	sb	zero,7(s2)
80108884:	48004286 	lh	v0,72(s2)
80108888:	48004396 	lhu	v1,72(s2)
8010888c:	00044228 	slti	v0,v0,1024
80108890:	0e004010 	beqz	v0,0x801088cc
80108894:	28006224 	addiu	v0,v1,40
80108898:	4e004296 	lhu	v0,78(s2)
8010889c:	05004392 	lbu	v1,5(s2)
801088a0:	99014224 	addiu	v0,v0,409
801088a4:	4e0042a6 	sh	v0,78(s2)
801088a8:	06004292 	lbu	v0,6(s2)
801088ac:	0a006324 	addiu	v1,v1,10
801088b0:	050043a2 	sb	v1,5(s2)
801088b4:	48004396 	lhu	v1,72(s2)
801088b8:	0a004224 	addiu	v0,v0,10
801088bc:	66006324 	addiu	v1,v1,102
801088c0:	060042a2 	sb	v0,6(s2)
801088c4:	1b460408 	j	0x8011186c
801088c8:	480043a6 	sh	v1,72(s2)
801088cc:	480042a6 	sh	v0,72(s2)
801088d0:	48004286 	lh	v0,72(s2)
801088d4:	00000000 	nop
801088d8:	00084228 	slti	v0,v0,2048
801088dc:	02004014 	bnez	v0,0x801088e8
801088e0:	00000000 	nop
801088e4:	480040a6 	sh	zero,72(s2)
801088e8:	05004292 	lbu	v0,5(s2)
801088ec:	00000000 	nop
801088f0:	01004224 	addiu	v0,v0,1
801088f4:	050042a2 	sb	v0,5(s2)
801088f8:	ff004230 	andi	v0,v0,0xff
801088fc:	1c00422c 	sltiu	v0,v0,28
80108900:	02004014 	bnez	v0,0x8010890c
80108904:	00000000 	nop
80108908:	050040a2 	sb	zero,5(s2)
8010890c:	06004292 	lbu	v0,6(s2)
80108910:	00000000 	nop
80108914:	01004224 	addiu	v0,v0,1
80108918:	060042a2 	sb	v0,6(s2)
8010891c:	ff004230 	andi	v0,v0,0xff
80108920:	1c00422c 	sltiu	v0,v0,28
80108924:	02004014 	bnez	v0,0x80108930
80108928:	00000000 	nop
8010892c:	060040a2 	sb	zero,6(s2)
80108930:	07004292 	lbu	v0,7(s2)
80108934:	00000000 	nop
80108938:	04004224 	addiu	v0,v0,4
8010893c:	070042a2 	sb	v0,7(s2)
80108940:	00160200 	sll	v0,v0,0x18
80108944:	04004104 	bgez	v0,0x80108958
80108948:	21880000 	move	s1,zero
8010894c:	02000224 	li	v0,2
80108950:	60460408 	j	0x80111980
80108954:	040042a2 	sb	v0,4(s2)
80108958:	21806002 	move	s0,s3
8010895c:	03000282 	lb	v0,3(s0)
80108960:	03000392 	lbu	v1,3(s0)
80108964:	16004018 	blez	v0,0x801089c0
80108968:	0a006224 	addiu	v0,v1,10
8010896c:	030002a2 	sb	v0,3(s0)
80108970:	00160200 	sll	v0,v0,0x18
80108974:	03160200 	sra	v0,v0,0x18
80108978:	48004228 	slti	v0,v0,72
8010897c:	10004014 	bnez	v0,0x801089c0
80108980:	00000000 	nop
80108984:	48004286 	lh	v0,72(s2)
80108988:	00000000 	nop
8010898c:	00044228 	slti	v0,v0,1024
80108990:	0a004010 	beqz	v0,0x801089bc
80108994:	ffff0224 	li	v0,-1
80108998:	1469020c 	jal	0x8009a450
8010899c:	00000000 	nop
801089a0:	0f004230 	andi	v0,v0,0xf
801089a4:	1469020c 	jal	0x8009a450
801089a8:	030002a2 	sb	v0,3(s0)
801089ac:	1469020c 	jal	0x8009a450
801089b0:	000002a2 	sb	v0,0(s0)
801089b4:	57460408 	j	0x8011195c
801089b8:	010002a2 	sb	v0,1(s0)
801089bc:	030002a2 	sb	v0,3(s0)
801089c0:	01003126 	addiu	s1,s1,1
801089c4:	0a00222a 	slti	v0,s1,10
801089c8:	e4ff4014 	bnez	v0,0x8010895c
801089cc:	04001026 	addiu	s0,s0,4
801089d0:	01000224 	li	v0,1
801089d4:	60460408 	j	0x80111980
801089d8:	010042a2 	sb	v0,1(s2)
801089dc:	89e9010c 	jal	0x8007a624
801089e0:	21204002 	move	a0,s2
801089e4:	2000bf8f 	lw	ra,32(sp)
801089e8:	1c00b38f 	lw	s3,28(sp)
801089ec:	1800b28f 	lw	s2,24(sp)
801089f0:	1400b18f 	lw	s1,20(sp)
801089f4:	1000b08f 	lw	s0,16(sp)
801089f8:	0800e003 	jr	ra
801089fc:	2800bd27 	addiu	sp,sp,40
80108a00:	e0ffbd27 	addiu	sp,sp,-32
80108a04:	1000b0af 	sw	s0,16(sp)
80108a08:	21808000 	move	s0,a0
80108a0c:	1400b1af 	sw	s1,20(sp)
80108a10:	21880002 	move	s1,s0
80108a14:	1800b2af 	sw	s2,24(sp)
80108a18:	801f123c 	lui	s2,0x1f80
80108a1c:	801f023c 	lui	v0,0x1f80
80108a20:	21380000 	move	a3,zero
80108a24:	2140e000 	move	t0,a3
80108a28:	2148e000 	move	t1,a3
80108a2c:	1c00bfaf 	sw	ra,28(sp)
80108a30:	00a8c748 	ctc2	a3,$21
80108a34:	00b0c848 	ctc2	t0,$22
80108a38:	00b8c948 	ctc2	t1,$23
80108a3c:	06000424 	li	a0,6
80108a40:	78ca000c 	jal	0x800329e0
80108a44:	900040ac 	sw	zero,144(v0)
80108a48:	2c0020ca 	lwc2	$0,44(s1)
80108a4c:	300021ca 	lwc2	$1,48(s1)
80108a50:	32000486 	lh	a0,50(s0)
80108a54:	f3c5000c 	jal	0x800317cc
80108a58:	00000000 	nop
80108a5c:	27004014 	bnez	v0,0x80108afc
80108a60:	00000000 	nop
80108a64:	48000486 	lh	a0,72(s0)
80108a68:	a00f020c 	jal	0x80083e80
80108a6c:	00000000 	nop
80108a70:	4e000486 	lh	a0,78(s0)
80108a74:	a00f020c 	jal	0x80083e80
80108a78:	c3800200 	sra	s0,v0,0x3
80108a7c:	03120200 	sra	v0,v0,0x8
80108a80:	21800202 	addu	s0,s0,v0
80108a84:	1000022a 	slti	v0,s0,16
80108a88:	02004010 	beqz	v0,0x80108a94
80108a8c:	00000000 	nop
80108a90:	10001024 	li	s0,16
80108a94:	8400428e 	lw	v0,132(s2)
80108a98:	00000000 	nop
80108a9c:	18005000 	mult	v0,s0
80108aa0:	1280043c 	lui	a0,0x8012
80108aa4:	a0bf8424 	addiu	a0,a0,-16480
80108aa8:	801f023c 	lui	v0,0x1f80
80108aac:	1280103c 	lui	s0,0x8012
80108ab0:	12380000 	mflo	a3
80108ab4:	031a0700 	sra	v1,a3,0x8
80108ab8:	840043ae 	sw	v1,132(s2)
80108abc:	880043ac 	sw	v1,136(v0)
80108ac0:	05002292 	lbu	v0,5(s1)
80108ac4:	34c01026 	addiu	s0,s0,-16332
80108ac8:	42100200 	srl	v0,v0,0x1
80108acc:	21105000 	addu	v0,v0,s0
80108ad0:	00004590 	lbu	a1,0(v0)
80108ad4:	1fa1000c 	jal	0x8002847c
80108ad8:	21300000 	move	a2,zero
80108adc:	1280043c 	lui	a0,0x8012
80108ae0:	06002292 	lbu	v0,6(s1)
80108ae4:	58bf8424 	addiu	a0,a0,-16552
80108ae8:	42100200 	srl	v0,v0,0x1
80108aec:	21105000 	addu	v0,v0,s0
80108af0:	00004590 	lbu	a1,0(v0)
80108af4:	1fa1000c 	jal	0x8002847c
80108af8:	21300000 	move	a2,zero
80108afc:	1c00bf8f 	lw	ra,28(sp)
80108b00:	1800b28f 	lw	s2,24(sp)
80108b04:	1400b18f 	lw	s1,20(sp)
80108b08:	1000b08f 	lw	s0,16(sp)
80108b0c:	0800e003 	jr	ra
80108b10:	2000bd27 	addiu	sp,sp,32
80108b14:	a0ffbd27 	addiu	sp,sp,-96
80108b18:	4800b0af 	sw	s0,72(sp)
80108b1c:	21808000 	move	s0,a0
80108b20:	1180023c 	lui	v0,0x8011
80108b24:	5800bfaf 	sw	ra,88(sp)
80108b28:	5400b3af 	sw	s3,84(sp)
80108b2c:	5000b2af 	sw	s2,80(sp)
80108b30:	4c00b1af 	sw	s1,76(sp)
80108b34:	d0914a24 	addiu	t2,v0,-28208
80108b38:	0000438d 	lw	v1,0(t2)
80108b3c:	0400488d 	lw	t0,4(t2)
80108b40:	0800498d 	lw	t1,8(t2)
80108b44:	1000a3af 	sw	v1,16(sp)
80108b48:	1400a8af 	sw	t0,20(sp)
80108b4c:	1800a9af 	sw	t1,24(sp)
80108b50:	0c00438d 	lw	v1,12(t2)
80108b54:	1000488d 	lw	t0,16(t2)
80108b58:	1400498d 	lw	t1,20(t2)
80108b5c:	1c00a3af 	sw	v1,28(sp)
80108b60:	2000a8af 	sw	t0,32(sp)
80108b64:	2400a9af 	sw	t1,36(sp)
80108b68:	1180023c 	lui	v0,0x8011
80108b6c:	21880002 	move	s1,s0
80108b70:	e8914a24 	addiu	t2,v0,-28184
80108b74:	03004389 	lwl	v1,3(t2)
80108b78:	00004399 	lwr	v1,0(t2)
80108b7c:	07004889 	lwl	t0,7(t2)
80108b80:	04004899 	lwr	t0,4(t2)
80108b84:	0b004989 	lwl	t1,11(t2)
80108b88:	08004999 	lwr	t1,8(t2)
80108b8c:	2b00a3ab 	swl	v1,43(sp)
80108b90:	2800a3bb 	swr	v1,40(sp)
80108b94:	2f00a8ab 	swl	t0,47(sp)
80108b98:	2c00a8bb 	swr	t0,44(sp)
80108b9c:	3300a9ab 	swl	t1,51(sp)
80108ba0:	3000a9bb 	swr	t1,48(sp)
80108ba4:	0f004389 	lwl	v1,15(t2)
80108ba8:	0c004399 	lwr	v1,12(t2)
80108bac:	13004889 	lwl	t0,19(t2)
80108bb0:	10004899 	lwr	t0,16(t2)
80108bb4:	17004989 	lwl	t1,23(t2)
80108bb8:	14004999 	lwr	t1,20(t2)
80108bbc:	3700a3ab 	swl	v1,55(sp)
80108bc0:	3400a3bb 	swr	v1,52(sp)
80108bc4:	3b00a8ab 	swl	t0,59(sp)
80108bc8:	3800a8bb 	swr	t0,56(sp)
80108bcc:	3f00a9ab 	swl	t1,63(sp)
80108bd0:	3c00a9bb 	swr	t1,60(sp)
80108bd4:	1b004389 	lwl	v1,27(t2)
80108bd8:	18004399 	lwr	v1,24(t2)
80108bdc:	1f004889 	lwl	t0,31(t2)
80108be0:	1c004899 	lwr	t0,28(t2)
80108be4:	4300a3ab 	swl	v1,67(sp)
80108be8:	4000a3bb 	swr	v1,64(sp)
80108bec:	4700a8ab 	swl	t0,71(sp)
80108bf0:	4400a8bb 	swr	t0,68(sp)
80108bf4:	801f023c 	lui	v0,0x1f80
80108bf8:	1000b227 	addiu	s2,sp,16
80108bfc:	2800b327 	addiu	s3,sp,40
80108c00:	21180000 	move	v1,zero
80108c04:	21406000 	move	t0,v1
80108c08:	21486000 	move	t1,v1
80108c0c:	00a8c348 	ctc2	v1,$21
80108c10:	00b0c848 	ctc2	t0,$22
80108c14:	00b8c948 	ctc2	t1,$23
80108c18:	900040ac 	sw	zero,144(v0)
80108c1c:	07000292 	lbu	v0,7(s0)
80108c20:	00000000 	nop
80108c24:	0c00422c 	sltiu	v0,v0,12
80108c28:	0d004010 	beqz	v0,0x80108c60
80108c2c:	2c000426 	addiu	a0,s0,44
80108c30:	21286002 	move	a1,s3
80108c34:	b1c6000c 	jal	0x80031ac4
80108c38:	48000626 	addiu	a2,s0,72
80108c3c:	21280000 	move	a1,zero
80108c40:	07000292 	lbu	v0,7(s0)
80108c44:	2130a000 	move	a2,a1
80108c48:	42100200 	srl	v0,v0,0x1
80108c4c:	80100200 	sll	v0,v0,0x2
80108c50:	21104202 	addu	v0,s2,v0
80108c54:	0000448c 	lw	a0,0(v0)
80108c58:	da9d000c 	jal	0x80027768
80108c5c:	2138a000 	move	a3,a1
80108c60:	07003092 	lbu	s0,7(s1)
80108c64:	00000000 	nop
80108c68:	1000022e 	sltiu	v0,s0,16
80108c6c:	0d004010 	beqz	v0,0x80108ca4
80108c70:	2c002426 	addiu	a0,s1,44
80108c74:	42801000 	srl	s0,s0,0x1
80108c78:	80801000 	sll	s0,s0,0x2
80108c7c:	21807002 	addu	s0,s3,s0
80108c80:	21280002 	move	a1,s0
80108c84:	b1c6000c 	jal	0x80031ac4
80108c88:	48002626 	addiu	a2,s1,72
80108c8c:	1280043c 	lui	a0,0x8012
80108c90:	34bf8424 	addiu	a0,a0,-16588
80108c94:	21300000 	move	a2,zero
80108c98:	03000592 	lbu	a1,3(s0)
80108c9c:	da9d000c 	jal	0x80027768
80108ca0:	2138c000 	move	a3,a2
80108ca4:	5800bf8f 	lw	ra,88(sp)
80108ca8:	5400b38f 	lw	s3,84(sp)
80108cac:	5000b28f 	lw	s2,80(sp)
80108cb0:	4c00b18f 	lw	s1,76(sp)
80108cb4:	4800b08f 	lw	s0,72(sp)
80108cb8:	0800e003 	jr	ra
80108cbc:	6000bd27 	addiu	sp,sp,96
80108cc0:	801f023c 	lui	v0,0x1f80
80108cc4:	4c02438c 	lw	v1,588(v0)
80108cc8:	e8ffbd27 	addiu	sp,sp,-24
80108ccc:	1000bfaf 	sw	ra,16(sp)
80108cd0:	2e006294 	lhu	v0,46(v1)
80108cd4:	21308000 	move	a2,a0
80108cd8:	2c00c2a4 	sh	v0,44(a2)
80108cdc:	32006294 	lhu	v0,50(v1)
80108ce0:	00000000 	nop
80108ce4:	2e00c2a4 	sh	v0,46(a2)
80108ce8:	36006294 	lhu	v0,54(v1)
80108cec:	0400c390 	lbu	v1,4(a2)
80108cf0:	01000424 	li	a0,1
80108cf4:	21006410 	beq	v1,a0,0x80108d7c
80108cf8:	3000c2a4 	sh	v0,48(a2)
80108cfc:	02006228 	slti	v0,v1,2
80108d00:	05004010 	beqz	v0,0x80108d18
80108d04:	00000000 	nop
80108d08:	0a006010 	beqz	v1,0x80108d34
80108d0c:	21280000 	move	a1,zero
80108d10:	7c470408 	j	0x80111df0
80108d14:	00000000 	nop
80108d18:	02000224 	li	v0,2
80108d1c:	42006210 	beq	v1,v0,0x80108e28
80108d20:	03000224 	li	v0,3
80108d24:	49006210 	beq	v1,v0,0x80108e4c
80108d28:	00000000 	nop
80108d2c:	7c470408 	j	0x80111df0
80108d30:	00000000 	nop
80108d34:	1280023c 	lui	v0,0x8012
80108d38:	204e4324 	addiu	v1,v0,20000
80108d3c:	2c00c294 	lhu	v0,44(a2)
80108d40:	00000000 	nop
80108d44:	000062a4 	sh	v0,0(v1)
80108d48:	2e00c294 	lhu	v0,46(a2)
80108d4c:	00000000 	nop
80108d50:	020062a4 	sh	v0,2(v1)
80108d54:	3000c294 	lhu	v0,48(a2)
80108d58:	0100a524 	addiu	a1,a1,1
80108d5c:	060060a4 	sh	zero,6(v1)
80108d60:	040062a4 	sh	v0,4(v1)
80108d64:	2000a228 	slti	v0,a1,32
80108d68:	f4ff4014 	bnez	v0,0x80108d3c
80108d6c:	08006324 	addiu	v1,v1,8
80108d70:	01000224 	li	v0,1
80108d74:	0400c2a0 	sb	v0,4(a2)
80108d78:	0500c0a0 	sb	zero,5(a2)
80108d7c:	801f023c 	lui	v0,0x1f80
80108d80:	50024290 	lbu	v0,592(v0)
80108d84:	00000000 	nop
80108d88:	03004014 	bnez	v0,0x80108d98
80108d8c:	1f000524 	li	a1,31
80108d90:	02000224 	li	v0,2
80108d94:	0400c2a0 	sb	v0,4(a2)
80108d98:	1280023c 	lui	v0,0x8012
80108d9c:	204e4724 	addiu	a3,v0,20000
80108da0:	c0200500 	sll	a0,a1,0x3
80108da4:	ffffa524 	addiu	a1,a1,-1
80108da8:	c0180500 	sll	v1,a1,0x3
80108dac:	21186700 	addu	v1,v1,a3
80108db0:	00006294 	lhu	v0,0(v1)
80108db4:	21208700 	addu	a0,a0,a3
80108db8:	000082a4 	sh	v0,0(a0)
80108dbc:	02006294 	lhu	v0,2(v1)
80108dc0:	00000000 	nop
80108dc4:	020082a4 	sh	v0,2(a0)
80108dc8:	04006294 	lhu	v0,4(v1)
80108dcc:	00000000 	nop
80108dd0:	040082a4 	sh	v0,4(a0)
80108dd4:	06006294 	lhu	v0,6(v1)
80108dd8:	f1ffa01c 	bgtz	a1,0x80108da0
80108ddc:	060082a4 	sh	v0,6(a0)
80108de0:	2c00c394 	lhu	v1,44(a2)
80108de4:	1280023c 	lui	v0,0x8012
80108de8:	204e43a4 	sh	v1,20000(v0)
80108dec:	2e00c394 	lhu	v1,46(a2)
80108df0:	204e4224 	addiu	v0,v0,20000
80108df4:	020043a4 	sh	v1,2(v0)
80108df8:	3000c494 	lhu	a0,48(a2)
80108dfc:	01000324 	li	v1,1
80108e00:	060043a4 	sh	v1,6(v0)
80108e04:	040044a4 	sh	a0,4(v0)
80108e08:	0100c3a0 	sb	v1,1(a2)
80108e0c:	0500c390 	lbu	v1,5(a2)
80108e10:	ff000224 	li	v0,255
80108e14:	23104300 	subu	v0,v0,v1
80108e18:	c3100200 	sra	v0,v0,0x3
80108e1c:	21186200 	addu	v1,v1,v0
80108e20:	7c470408 	j	0x80111df0
80108e24:	0500c3a0 	sb	v1,5(a2)
80108e28:	0500c290 	lbu	v0,5(a2)
80108e2c:	0100c4a0 	sb	a0,1(a2)
80108e30:	42100200 	srl	v0,v0,0x1
80108e34:	0500c2a0 	sb	v0,5(a2)
80108e38:	1100422c 	sltiu	v0,v0,17
80108e3c:	05004010 	beqz	v0,0x80108e54
80108e40:	03000224 	li	v0,3
80108e44:	7c470408 	j	0x80111df0
80108e48:	0400c2a0 	sb	v0,4(a2)
80108e4c:	89e9010c 	jal	0x8007a624
80108e50:	2120c000 	move	a0,a2
80108e54:	1000bf8f 	lw	ra,16(sp)
80108e58:	00000000 	nop
80108e5c:	0800e003 	jr	ra
80108e60:	1800bd27 	addiu	sp,sp,24
80108e64:	e8ffbd27 	addiu	sp,sp,-24
80108e68:	1000bfaf 	sw	ra,16(sp)
80108e6c:	21280000 	move	a1,zero
80108e70:	1280023c 	lui	v0,0x8012
80108e74:	004e4a24 	addiu	t2,v0,19968
80108e78:	1280023c 	lui	v0,0x8012
80108e7c:	804d4e24 	addiu	t6,v0,19840
80108e80:	2148c001 	move	t1,t6
80108e84:	04000d24 	li	t5,4
80108e88:	fcff0c24 	li	t4,-4
80108e8c:	1280023c 	lui	v0,0x8012
80108e90:	204e4b24 	addiu	t3,v0,20000
80108e94:	20000224 	li	v0,32
80108e98:	05008390 	lbu	v1,5(a0)
80108e9c:	23104500 	subu	v0,v0,a1
80108ea0:	18004300 	mult	v0,v1
80108ea4:	12100000 	mflo	v0
80108ea8:	02004104 	bgez	v0,0x80108eb4
80108eac:	00000000 	nop
80108eb0:	1f004224 	addiu	v0,v0,31
80108eb4:	43110200 	sra	v0,v0,0x5
80108eb8:	01004624 	addiu	a2,v0,1
80108ebc:	03110600 	sra	v0,a2,0x4
80108ec0:	2340c200 	subu	t0,a2,v0
80108ec4:	c3100600 	sra	v0,a2,0x3
80108ec8:	06006385 	lh	v1,6(t3)
80108ecc:	00000000 	nop
80108ed0:	0a006014 	bnez	v1,0x80108efc
80108ed4:	2338c200 	subu	a3,a2,v0
80108ed8:	0300a010 	beqz	a1,0x80108ee8
80108edc:	000020ad 	sw	zero,0(t1)
80108ee0:	21108e01 	addu	v0,t4,t6
80108ee4:	000040ac 	sw	zero,0(v0)
80108ee8:	1f000224 	li	v0,31
80108eec:	1800a210 	beq	a1,v0,0x80108f50
80108ef0:	2110ae01 	addu	v0,t5,t6
80108ef4:	bb470408 	j	0x80111eec
80108ef8:	000040ac 	sw	zero,0(v0)
80108efc:	0200a228 	slti	v0,a1,2
80108f00:	03004010 	beqz	v0,0x80108f10
80108f04:	10000224 	li	v0,16
80108f08:	b2470408 	j	0x80111ec8
80108f0c:	000020ad 	sw	zero,0(t1)
80108f10:	00140700 	sll	v0,a3,0x10
80108f14:	001a0800 	sll	v1,t0,0x8
80108f18:	25104300 	or	v0,v0,v1
80108f1c:	25104600 	or	v0,v0,a2
80108f20:	000022ad 	sw	v0,0(t1)
80108f24:	21000224 	li	v0,33
80108f28:	23104500 	subu	v0,v0,a1
80108f2c:	000042a1 	sb	v0,0(t2)
80108f30:	01004a25 	addiu	t2,t2,1
80108f34:	04002925 	addiu	t1,t1,4
80108f38:	0400ad25 	addiu	t5,t5,4
80108f3c:	04008c25 	addiu	t4,t4,4
80108f40:	0100a524 	addiu	a1,a1,1
80108f44:	2000a228 	slti	v0,a1,32
80108f48:	d2ff4014 	bnez	v0,0x80108e94
80108f4c:	08006b25 	addiu	t3,t3,8
80108f50:	1280043c 	lui	a0,0x8012
80108f54:	1280063c 	lui	a2,0x8012
80108f58:	1280073c 	lui	a3,0x8012
80108f5c:	204e8424 	addiu	a0,a0,20000
80108f60:	804dc624 	addiu	a2,a2,19840
80108f64:	99a5000c 	jal	0x80029664
80108f68:	004ee724 	addiu	a3,a3,19968
80108f6c:	1000bf8f 	lw	ra,16(sp)
80108f70:	00000000 	nop
80108f74:	0800e003 	jr	ra
80108f78:	1800bd27 	addiu	sp,sp,24
80108f7c:	e0ffbd27 	addiu	sp,sp,-32
80108f80:	1400b1af 	sw	s1,20(sp)
80108f84:	21888000 	move	s1,a0
80108f88:	1800bfaf 	sw	ra,24(sp)
80108f8c:	1000b0af 	sw	s0,16(sp)
80108f90:	04002392 	lbu	v1,4(s1)
80108f94:	01000424 	li	a0,1
80108f98:	19006410 	beq	v1,a0,0x80109000
80108f9c:	02006228 	slti	v0,v1,2
80108fa0:	05004010 	beqz	v0,0x80108fb8
80108fa4:	00000000 	nop
80108fa8:	0a006010 	beqz	v1,0x80108fd4
80108fac:	00010224 	li	v0,256
80108fb0:	26480408 	j	0x80112098
80108fb4:	00000000 	nop
80108fb8:	02000224 	li	v0,2
80108fbc:	30006210 	beq	v1,v0,0x80109080
80108fc0:	03000224 	li	v0,3
80108fc4:	4b006210 	beq	v1,v0,0x801090f4
80108fc8:	00000000 	nop
80108fcc:	26480408 	j	0x80112098
80108fd0:	00000000 	nop
80108fd4:	500022ae 	sw	v0,80(s1)
80108fd8:	540022ae 	sw	v0,84(s1)
80108fdc:	f0000224 	li	v0,240
80108fe0:	4e0022a6 	sh	v0,78(s1)
80108fe4:	b0ff0224 	li	v0,-80
80108fe8:	010024a2 	sb	a0,1(s1)
80108fec:	040024a2 	sb	a0,4(s1)
80108ff0:	480020a6 	sh	zero,72(s1)
80108ff4:	4a0020a6 	sh	zero,74(s1)
80108ff8:	4c0020a6 	sh	zero,76(s1)
80108ffc:	320022a6 	sh	v0,50(s1)
80109000:	3800228e 	lw	v0,56(s1)
80109004:	00000000 	nop
80109008:	04004014 	bnez	v0,0x8010901c
8010900c:	340022ae 	sw	v0,52(s1)
80109010:	1280023c 	lui	v0,0x8012
80109014:	48c04224 	addiu	v0,v0,-16312
80109018:	340022ae 	sw	v0,52(s1)
8010901c:	801f103c 	lui	s0,0x1f80
80109020:	7c010496 	lhu	a0,380(s0)
80109024:	d40f020c 	jal	0x80083f50
80109028:	c2210400 	srl	a0,a0,0x7
8010902c:	43110200 	sra	v0,v0,0x5
80109030:	7c010496 	lhu	a0,380(s0)
80109034:	48002396 	lhu	v1,72(s1)
80109038:	02210400 	srl	a0,a0,0x4
8010903c:	21186200 	addu	v1,v1,v0
80109040:	d40f020c 	jal	0x80083f50
80109044:	480023a6 	sh	v1,72(s1)
80109048:	c3110200 	sra	v0,v0,0x7
8010904c:	7c010496 	lhu	a0,380(s0)
80109050:	4a002396 	lhu	v1,74(s1)
80109054:	40200400 	sll	a0,a0,0x1
80109058:	21186200 	addu	v1,v1,v0
8010905c:	d40f020c 	jal	0x80083f50
80109060:	4a0023a6 	sh	v1,74(s1)
80109064:	01000324 	li	v1,1
80109068:	010023a2 	sb	v1,1(s1)
8010906c:	4c002396 	lhu	v1,76(s1)
80109070:	83110200 	sra	v0,v0,0x6
80109074:	21186200 	addu	v1,v1,v0
80109078:	26480408 	j	0x80112098
8010907c:	4c0023a6 	sh	v1,76(s1)
80109080:	05002292 	lbu	v0,5(s1)
80109084:	00000000 	nop
80109088:	05004010 	beqz	v0,0x801090a0
8010908c:	00000000 	nop
80109090:	04004410 	beq	v0,a0,0x801090a4
80109094:	00000000 	nop
80109098:	26480408 	j	0x80112098
8010909c:	00000000 	nop
801090a0:	050024a2 	sb	a0,5(s1)
801090a4:	5000228e 	lw	v0,80(s1)
801090a8:	00000000 	nop
801090ac:	f0ff4224 	addiu	v0,v0,-16
801090b0:	02004104 	bgez	v0,0x801090bc
801090b4:	500022ae 	sw	v0,80(s1)
801090b8:	500020ae 	sw	zero,80(s1)
801090bc:	5400238e 	lw	v1,84(s1)
801090c0:	06002292 	lbu	v0,6(s1)
801090c4:	80006324 	addiu	v1,v1,128
801090c8:	01004224 	addiu	v0,v0,1
801090cc:	060022a2 	sb	v0,6(s1)
801090d0:	ff004230 	andi	v0,v0,0xff
801090d4:	1100422c 	sltiu	v0,v0,17
801090d8:	03004014 	bnez	v0,0x801090e8
801090dc:	540023ae 	sw	v1,84(s1)
801090e0:	03000224 	li	v0,3
801090e4:	040022a2 	sb	v0,4(s1)
801090e8:	01000224 	li	v0,1
801090ec:	26480408 	j	0x80112098
801090f0:	010022a2 	sb	v0,1(s1)
801090f4:	89e9010c 	jal	0x8007a624
801090f8:	21202002 	move	a0,s1
801090fc:	1800bf8f 	lw	ra,24(sp)
80109100:	1400b18f 	lw	s1,20(sp)
80109104:	1000b08f 	lw	s0,16(sp)
80109108:	0800e003 	jr	ra
8010910c:	2000bd27 	addiu	sp,sp,32
80109110:	21788000 	move	t7,a0
80109114:	21c0c000 	move	t8,a2
80109118:	1000b98f 	lw	t9,16(sp)
8010911c:	1800a38f 	lw	v1,24(sp)
80109120:	1400a687 	lh	a2,20(sp)
80109124:	1400a48f 	lw	a0,20(sp)
80109128:	4600c018 	blez	a2,0x80109244
8010912c:	b9000a24 	li	t2,185
80109130:	e7000924 	li	t1,231
80109134:	51000b24 	li	t3,81
80109138:	67000824 	li	t0,103
8010913c:	002e8434 	ori	a0,a0,0x2e00
80109140:	00240400 	sll	a0,a0,0x10
80109144:	00120600 	sll	v0,a2,0x8
80109148:	25104600 	or	v0,v0,a2
8010914c:	25208200 	or	a0,a0,v0
80109150:	35000e24 	li	t6,53
80109154:	f0016324 	addiu	v1,v1,496
80109158:	80190300 	sll	v1,v1,0x6
8010915c:	17006334 	ori	v1,v1,0x17
80109160:	2330a700 	subu	a2,a1,a3
80109164:	2128a700 	addu	a1,a1,a3
80109168:	0f800d3c 	lui	t5,0x800f
8010916c:	1c00eaa1 	sb	t2,28(t7)
80109170:	0c00eaa1 	sb	t2,12(t7)
80109174:	2400e9a1 	sb	t1,36(t7)
80109178:	1400e9a1 	sb	t1,20(t7)
8010917c:	1500eba1 	sb	t3,21(t7)
80109180:	0d00eba1 	sb	t3,13(t7)
80109184:	2500e8a1 	sb	t0,37(t7)
80109188:	1d00e8a1 	sb	t0,29(t7)
8010918c:	0400e4ad 	sw	a0,4(t7)
80109190:	c8d8a78d 	lw	a3,-10040(t5)
80109194:	23101903 	subu	v0,t8,t9
80109198:	1600eea5 	sh	t6,22(t7)
8010919c:	0e00e3a5 	sh	v1,14(t7)
801091a0:	1800e6a5 	sh	a2,24(t7)
801091a4:	0800e6a5 	sh	a2,8(t7)
801091a8:	2000e5a5 	sh	a1,32(t7)
801091ac:	1000e5a5 	sh	a1,16(t7)
801091b0:	1200e2a5 	sh	v0,18(t7)
801091b4:	0a00e2a5 	sh	v0,10(t7)
801091b8:	2200f8a5 	sh	t8,34(t7)
801091bc:	1a00f8a5 	sh	t8,26(t7)
801091c0:	1000e28c 	lw	v0,16(a3)
801091c4:	00090c3c 	lui	t4,0x900
801091c8:	25104c00 	or	v0,v0,t4
801091cc:	0000e2ad 	sw	v0,0(t7)
801091d0:	1000efac 	sw	t7,16(a3)
801091d4:	2800ef25 	addiu	t7,t7,40
801091d8:	1c00eaa1 	sb	t2,28(t7)
801091dc:	0c00eaa1 	sb	t2,12(t7)
801091e0:	2400e9a1 	sb	t1,36(t7)
801091e4:	1400e9a1 	sb	t1,20(t7)
801091e8:	1500e8a1 	sb	t0,21(t7)
801091ec:	0d00e8a1 	sb	t0,13(t7)
801091f0:	2500eba1 	sb	t3,37(t7)
801091f4:	1d00eba1 	sb	t3,29(t7)
801091f8:	0400e4ad 	sw	a0,4(t7)
801091fc:	1600eea5 	sh	t6,22(t7)
80109200:	0e00e3a5 	sh	v1,14(t7)
80109204:	c8d8a48d 	lw	a0,-10040(t5)
80109208:	21101903 	addu	v0,t8,t9
8010920c:	1800e6a5 	sh	a2,24(t7)
80109210:	0800e6a5 	sh	a2,8(t7)
80109214:	2000e5a5 	sh	a1,32(t7)
80109218:	1000e5a5 	sh	a1,16(t7)
8010921c:	1200f8a5 	sh	t8,18(t7)
80109220:	0a00f8a5 	sh	t8,10(t7)
80109224:	2200e2a5 	sh	v0,34(t7)
80109228:	1a00e2a5 	sh	v0,26(t7)
8010922c:	1000838c 	lw	v1,16(a0)
80109230:	2800e225 	addiu	v0,t7,40
80109234:	25186c00 	or	v1,v1,t4
80109238:	0000e3ad 	sw	v1,0(t7)
8010923c:	0800e003 	jr	ra
80109240:	10008fac 	sw	t7,16(a0)
80109244:	0800e003 	jr	ra
80109248:	2110e001 	move	v0,t7
8010924c:	98ffbd27 	addiu	sp,sp,-104
80109250:	5c00b7af 	sw	s7,92(sp)
80109254:	21b88000 	move	s7,a0
80109258:	6400bfaf 	sw	ra,100(sp)
8010925c:	6000beaf 	sw	s8,96(sp)
80109260:	5800b6af 	sw	s6,88(sp)
80109264:	5400b5af 	sw	s5,84(sp)
80109268:	5000b4af 	sw	s4,80(sp)
8010926c:	4c00b3af 	sw	s3,76(sp)
80109270:	4800b2af 	sw	s2,72(sp)
80109274:	4400b1af 	sw	s1,68(sp)
80109278:	4000b0af 	sw	s0,64(sp)
8010927c:	2c00e296 	lhu	v0,44(s7)
80109280:	00000000 	nop
80109284:	2000a2a7 	sh	v0,32(sp)
80109288:	2e00e296 	lhu	v0,46(s7)
8010928c:	21a00000 	move	s4,zero
80109290:	2200a2a7 	sh	v0,34(sp)
80109294:	3000e296 	lhu	v0,48(s7)
80109298:	06000424 	li	a0,6
8010929c:	78ca000c 	jal	0x800329e0
801092a0:	2400a2a7 	sh	v0,36(sp)
801092a4:	801f1e3c 	lui	s8,0x1f80
801092a8:	2000a227 	addiu	v0,sp,32
801092ac:	000040c8 	lwc2	$0,0(v0)
801092b0:	040041c8 	lwc2	$1,4(v0)
	...
801092bc:	0100184a 	c2	0x180001
801092c0:	3800a227 	addiu	v0,sp,56
801092c4:	00f84c48 	cfc2	t4,$31
801092c8:	00000000 	nop
801092cc:	00004cac 	sw	t4,0(v0)
801092d0:	3800a28f 	lw	v0,56(sp)
801092d4:	00000000 	nop
801092d8:	17014004 	bltz	v0,0x80109738
801092dc:	2800a227 	addiu	v0,sp,40
801092e0:	00004ee8 	swc2	$14,0(v0)
801092e4:	2800b187 	lh	s1,40(sp)
801092e8:	00000000 	nop
801092ec:	02002106 	bgez	s1,0x801092f8
801092f0:	00000000 	nop
801092f4:	21a02002 	move	s4,s1
801092f8:	2a00b087 	lh	s0,42(sp)
801092fc:	00000000 	nop
80109300:	02000106 	bgez	s0,0x8010930c
80109304:	4001222a 	slti	v0,s1,320
80109308:	21a09002 	addu	s4,s4,s0
8010930c:	04004014 	bnez	v0,0x80109320
80109310:	f000022a 	slti	v0,s0,240
80109314:	40018226 	addiu	v0,s4,320
80109318:	23a05100 	subu	s4,v0,s1
8010931c:	f000022a 	slti	v0,s0,240
80109320:	04004014 	bnez	v0,0x80109334
80109324:	ceff822a 	slti	v0,s4,-50
80109328:	f0008226 	addiu	v0,s4,240
8010932c:	23a05000 	subu	s4,v0,s0
80109330:	ceff822a 	slti	v0,s4,-50
80109334:	00014014 	bnez	v0,0x80109738
80109338:	a0000224 	li	v0,160
8010933c:	23a85100 	subu	s5,v0,s1
80109340:	78000224 	li	v0,120
80109344:	23b05000 	subu	s6,v0,s0
80109348:	0400e392 	lbu	v1,4(s7)
8010934c:	01000224 	li	v0,1
80109350:	4b006214 	bne	v1,v0,0x80109480
80109354:	2180e002 	move	s0,s7
80109358:	0c80133c 	lui	s3,0x800c
8010935c:	44f5708e 	lw	s0,-2748(s3)
80109360:	1469020c 	jal	0x8009a450
80109364:	06001224 	li	s2,6
80109368:	1f004230 	andi	v0,v0,0x1f
8010936c:	21a08202 	addu	s4,s4,v0
80109370:	0c000724 	li	a3,12
80109374:	2110e000 	move	v0,a3
80109378:	30009126 	addiu	s1,s4,48
8010937c:	008c1100 	sll	s1,s1,0x10
80109380:	038c1100 	sra	s1,s1,0x10
80109384:	2800a387 	lh	v1,40(sp)
80109388:	2a00a487 	lh	a0,42(sp)
8010938c:	1000a2af 	sw	v0,16(sp)
80109390:	c0101500 	sll	v0,s5,0x3
80109394:	23105500 	subu	v0,v0,s5
80109398:	c3100200 	sra	v0,v0,0x3
8010939c:	1400b1af 	sw	s1,20(sp)
801093a0:	1800b2af 	sw	s2,24(sp)
801093a4:	21184300 	addu	v1,v0,v1
801093a8:	c0101600 	sll	v0,s6,0x3
801093ac:	23105600 	subu	v0,v0,s6
801093b0:	c3100200 	sra	v0,v0,0x3
801093b4:	21104400 	addu	v0,v0,a0
801093b8:	21200002 	move	a0,s0
801093bc:	002c0300 	sll	a1,v1,0x10
801093c0:	032c0500 	sra	a1,a1,0x10
801093c4:	00340200 	sll	a2,v0,0x10
801093c8:	2b48040c 	jal	0x801120ac
801093cc:	03340600 	sra	a2,a2,0x10
801093d0:	21204000 	move	a0,v0
801093d4:	20000724 	li	a3,32
801093d8:	2800a387 	lh	v1,40(sp)
801093dc:	2a00a587 	lh	a1,42(sp)
801093e0:	2110e000 	move	v0,a3
801093e4:	1400b1af 	sw	s1,20(sp)
801093e8:	40881500 	sll	s1,s5,0x1
801093ec:	21883502 	addu	s1,s1,s5
801093f0:	1000a2af 	sw	v0,16(sp)
801093f4:	c3101100 	sra	v0,s1,0x3
801093f8:	40801600 	sll	s0,s6,0x1
801093fc:	21801602 	addu	s0,s0,s6
80109400:	1800b2af 	sw	s2,24(sp)
80109404:	21184300 	addu	v1,v0,v1
80109408:	c3101000 	sra	v0,s0,0x3
8010940c:	21104500 	addu	v0,v0,a1
80109410:	002c0300 	sll	a1,v1,0x10
80109414:	032c0500 	sra	a1,a1,0x10
80109418:	00340200 	sll	a2,v0,0x10
8010941c:	2b48040c 	jal	0x801120ac
80109420:	03340600 	sra	a2,a2,0x10
80109424:	21204000 	move	a0,v0
80109428:	30000724 	li	a3,48
8010942c:	2800a387 	lh	v1,40(sp)
80109430:	2a00a587 	lh	a1,42(sp)
80109434:	2110e000 	move	v0,a3
80109438:	1000a2af 	sw	v0,16(sp)
8010943c:	28008226 	addiu	v0,s4,40
80109440:	00140200 	sll	v0,v0,0x10
80109444:	03140200 	sra	v0,v0,0x10
80109448:	1400a2af 	sw	v0,20(sp)
8010944c:	07000224 	li	v0,7
80109450:	43881100 	sra	s1,s1,0x1
80109454:	43801000 	sra	s0,s0,0x1
80109458:	1800a2af 	sw	v0,24(sp)
8010945c:	21182302 	addu	v1,s1,v1
80109460:	21100502 	addu	v0,s0,a1
80109464:	002c0300 	sll	a1,v1,0x10
80109468:	032c0500 	sra	a1,a1,0x10
8010946c:	00340200 	sll	a2,v0,0x10
80109470:	2b48040c 	jal	0x801120ac
80109474:	03340600 	sra	a2,a2,0x10
80109478:	44f562ae 	sw	v0,-2748(s3)
8010947c:	2180e002 	move	s0,s7
80109480:	801f113c 	lui	s1,0x1f80
80109484:	84003426 	addiu	s4,s1,132
80109488:	801f123c 	lui	s2,0x1f80
8010948c:	3400e28e 	lw	v0,52(s7)
80109490:	00000000 	nop
80109494:	a8004010 	beqz	v0,0x80109738
80109498:	88005326 	addiu	s3,s2,136
8010949c:	78ca000c 	jal	0x800329e0
801094a0:	06000424 	li	a0,6
801094a4:	21400000 	move	t0,zero
801094a8:	21480001 	move	t1,t0
801094ac:	21500001 	move	t2,t0
801094b0:	00a8c848 	ctc2	t0,$21
801094b4:	00b0c948 	ctc2	t1,$22
801094b8:	00b8ca48 	ctc2	t2,$23
801094bc:	2c0000ca 	lwc2	$0,44(s0)
801094c0:	300001ca 	lwc2	$1,48(s0)
801094c4:	3200e486 	lh	a0,50(s7)
801094c8:	f3c5000c 	jal	0x800317cc
801094cc:	00000000 	nop
801094d0:	05004010 	beqz	v0,0x801094e8
801094d4:	00000000 	nop
801094d8:	e0c5000c 	jal	0x80031780
801094dc:	2120e002 	move	a0,s7
801094e0:	b5490408 	j	0x801126d4
801094e4:	00000000 	nop
801094e8:	8400238e 	lw	v1,132(s1)
801094ec:	5400e28e 	lw	v0,84(s7)
801094f0:	00000000 	nop
801094f4:	18006200 	mult	v1,v0
801094f8:	12580000 	mflo	t3
801094fc:	5000e28e 	lw	v0,80(s7)
80109500:	00000000 	nop
80109504:	18006200 	mult	v1,v0
80109508:	40100b00 	sll	v0,t3,0x1
8010950c:	02120200 	srl	v0,v0,0x8
80109510:	880042ae 	sw	v0,136(s2)
80109514:	12180000 	mflo	v1
80109518:	40100300 	sll	v0,v1,0x1
8010951c:	02120200 	srl	v0,v0,0x8
80109520:	1469020c 	jal	0x8009a450
80109524:	840022ae 	sw	v0,132(s1)
80109528:	2120e002 	move	a0,s7
8010952c:	ff034230 	andi	v0,v0,0x3ff
80109530:	3400e58e 	lw	a1,52(s7)
80109534:	00044224 	addiu	v0,v0,1024
80109538:	2fca000c 	jal	0x800328bc
8010953c:	9000c2af 	sw	v0,144(s8)
80109540:	2190e002 	move	s2,s7
80109544:	21400000 	move	t0,zero
80109548:	21480001 	move	t1,t0
8010954c:	fc030a24 	li	t2,1020
80109550:	3800e2ae 	sw	v0,56(s7)
80109554:	00a8c848 	ctc2	t0,$21
80109558:	00b0c948 	ctc2	t1,$22
8010955c:	00b8ca48 	ctc2	t2,$23
80109560:	78ca000c 	jal	0x800329e0
80109564:	06000424 	li	a0,6
80109568:	21a80000 	move	s5,zero
8010956c:	00101724 	li	s7,4096
80109570:	801f023c 	lui	v0,0x1f80
80109574:	7c014294 	lhu	v0,380(v0)
80109578:	1280033c 	lui	v1,0x8012
8010957c:	40f10200 	sll	s8,v0,0x5
80109580:	801f023c 	lui	v0,0x1f80
80109584:	7c014494 	lhu	a0,380(v0)
80109588:	d40f020c 	jal	0x80083f50
8010958c:	80210400 	sll	a0,a0,0x6
80109590:	c0810200 	sll	s0,v0,0x7
80109594:	03831000 	sra	s0,s0,0xc
80109598:	21801502 	addu	s0,s0,s5
8010959c:	d40f020c 	jal	0x80083f50
801095a0:	21200002 	move	a0,s0
801095a4:	21200002 	move	a0,s0
801095a8:	a00f020c 	jal	0x80083e80
801095ac:	21b04000 	move	s6,v0
801095b0:	21a04000 	move	s4,v0
801095b4:	43121400 	sra	v0,s4,0x9
801095b8:	0300401c 	bgtz	v0,0x801095c8
801095bc:	03121400 	sra	v0,s4,0x8
801095c0:	64490408 	j	0x80112590
801095c4:	00101324 	li	s3,4096
801095c8:	1a00e202 	div	zero,s7,v0
801095cc:	02004014 	bnez	v0,0x801095d8
801095d0:	00000000 	nop
801095d4:	0d000700 	break	0x7
801095d8:	ffff0124 	li	at,-1
801095dc:	04004114 	bne	v0,at,0x801095f0
801095e0:	0080013c 	lui	at,0x8000
801095e4:	0200e116 	bne	s7,at,0x801095f0
801095e8:	00000000 	nop
801095ec:	0d000600 	break	0x6
801095f0:	12980000 	mflo	s3
801095f4:	00000000 	nop
801095f8:	0110622a 	slti	v0,s3,4097
801095fc:	4a004010 	beqz	v0,0x80109728
80109600:	21880000 	move	s1,zero
80109604:	21803e02 	addu	s0,s1,s8
80109608:	d40f020c 	jal	0x80083f50
8010960c:	21200002 	move	a0,s0
80109610:	21200002 	move	a0,s0
80109614:	a00f020c 	jal	0x80083e80
80109618:	21804000 	move	s0,v0
8010961c:	4e004386 	lh	v1,78(s2)
80109620:	00000000 	nop
80109624:	18008302 	mult	s4,v1
80109628:	12580000 	mflo	t3
	...
80109634:	1800c302 	mult	s6,v1
80109638:	12200000 	mflo	a0
8010963c:	031b0b00 	sra	v1,t3,0xc
80109640:	00000000 	nop
80109644:	18000302 	mult	s0,v1
80109648:	12580000 	mflo	t3
	...
80109654:	18004300 	mult	v0,v1
80109658:	032b0400 	sra	a1,a0,0xc
8010965c:	3200a5a7 	sh	a1,50(sp)
80109660:	031b0b00 	sra	v1,t3,0xc
80109664:	3000a3a7 	sh	v1,48(sp)
80109668:	12100000 	mflo	v0
8010966c:	03230200 	sra	a0,v0,0xc
80109670:	3400a4a7 	sh	a0,52(sp)
80109674:	2c004296 	lhu	v0,44(s2)
80109678:	00000000 	nop
8010967c:	21186200 	addu	v1,v1,v0
80109680:	3000a3a7 	sh	v1,48(sp)
80109684:	2e004296 	lhu	v0,46(s2)
80109688:	00000000 	nop
8010968c:	2128a200 	addu	a1,a1,v0
80109690:	3200a5a7 	sh	a1,50(sp)
80109694:	30004296 	lhu	v0,48(s2)
80109698:	00000000 	nop
8010969c:	21208200 	addu	a0,a0,v0
801096a0:	3400a4a7 	sh	a0,52(sp)
801096a4:	5000428e 	lw	v0,80(s2)
801096a8:	00000000 	nop
801096ac:	00110200 	sll	v0,v0,0x4
801096b0:	2380e202 	subu	s0,s7,v0
801096b4:	3000a227 	addiu	v0,sp,48
801096b8:	000040c8 	lwc2	$0,0(v0)
801096bc:	040041c8 	lwc2	$1,4(v0)
801096c0:	f3c5000c 	jal	0x800317cc
801096c4:	21200000 	move	a0,zero
801096c8:	12004014 	bnez	v0,0x80109714
801096cc:	801f083c 	lui	t0,0x1f80
801096d0:	84000825 	addiu	t0,t0,132
801096d4:	801f093c 	lui	t1,0x1f80
801096d8:	0000028d 	lw	v0,0(t0)
801096dc:	88002925 	addiu	t1,t1,136
801096e0:	83100200 	sra	v0,v0,0x2
801096e4:	000002ad 	sw	v0,0(t0)
801096e8:	1469020c 	jal	0x8009a450
801096ec:	000022ad 	sw	v0,0(t1)
801096f0:	1280043c 	lui	a0,0x8012
801096f4:	7cc08424 	addiu	a0,a0,-16260
801096f8:	ff074230 	andi	v0,v0,0x7ff
801096fc:	21100202 	addu	v0,s0,v0
80109700:	801f0a3c 	lui	t2,0x1f80
80109704:	fcff858c 	lw	a1,-4(a0)
80109708:	90004a25 	addiu	t2,t2,144
8010970c:	939e000c 	jal	0x80027a4c
80109710:	000042ad 	sw	v0,0(t2)
80109714:	21883302 	addu	s1,s1,s3
80109718:	21103302 	addu	v0,s1,s3
8010971c:	01104228 	slti	v0,v0,4097
80109720:	b9ff4014 	bnez	v0,0x80109608
80109724:	21803e02 	addu	s0,s1,s8
80109728:	0002b526 	addiu	s5,s5,512
8010972c:	0010a22a 	slti	v0,s5,4096
80109730:	94ff4014 	bnez	v0,0x80109584
80109734:	801f023c 	lui	v0,0x1f80
80109738:	6400bf8f 	lw	ra,100(sp)
8010973c:	6000be8f 	lw	s8,96(sp)
80109740:	5c00b78f 	lw	s7,92(sp)
80109744:	5800b68f 	lw	s6,88(sp)
80109748:	5400b58f 	lw	s5,84(sp)
8010974c:	5000b48f 	lw	s4,80(sp)
80109750:	4c00b38f 	lw	s3,76(sp)
80109754:	4800b28f 	lw	s2,72(sp)
80109758:	4400b18f 	lw	s1,68(sp)
8010975c:	4000b08f 	lw	s0,64(sp)
80109760:	0800e003 	jr	ra
80109764:	6800bd27 	addiu	sp,sp,104
80109768:	e8ffbd27 	addiu	sp,sp,-24
8010976c:	1000b0af 	sw	s0,16(sp)
80109770:	21808000 	move	s0,a0
80109774:	1400bfaf 	sw	ra,20(sp)
80109778:	04000392 	lbu	v1,4(s0)
8010977c:	01000424 	li	a0,1
80109780:	12006410 	beq	v1,a0,0x801097cc
80109784:	02006228 	slti	v0,v1,2
80109788:	05004010 	beqz	v0,0x801097a0
8010978c:	00000000 	nop
80109790:	08006010 	beqz	v1,0x801097b4
80109794:	00000000 	nop
80109798:	eb490408 	j	0x801127ac
8010979c:	00000000 	nop
801097a0:	04006228 	slti	v0,v1,4
801097a4:	1a004010 	beqz	v0,0x80109810
801097a8:	00000000 	nop
801097ac:	e9490408 	j	0x801127a4
801097b0:	00000000 	nop
801097b4:	1469020c 	jal	0x8009a450
801097b8:	040004a2 	sb	a0,4(s0)
801097bc:	ff014230 	andi	v0,v0,0x1ff
801097c0:	80014224 	addiu	v0,v0,384
801097c4:	4a0002a6 	sh	v0,74(s0)
801097c8:	480002a6 	sh	v0,72(s0)
801097cc:	3800028e 	lw	v0,56(s0)
801097d0:	00000000 	nop
801097d4:	04004014 	bnez	v0,0x801097e8
801097d8:	340002ae 	sw	v0,52(s0)
801097dc:	02000224 	li	v0,2
801097e0:	eb490408 	j	0x801127ac
801097e4:	040002a2 	sb	v0,4(s0)
801097e8:	9eac000c 	jal	0x8002b278
801097ec:	21200002 	move	a0,s0
801097f0:	07004014 	bnez	v0,0x80109810
801097f4:	00000000 	nop
801097f8:	e0c5000c 	jal	0x80031780
801097fc:	21200002 	move	a0,s0
80109800:	eb490408 	j	0x801127ac
80109804:	00000000 	nop
80109808:	89e9010c 	jal	0x8007a624
8010980c:	21200002 	move	a0,s0
80109810:	1400bf8f 	lw	ra,20(sp)
80109814:	1000b08f 	lw	s0,16(sp)
80109818:	0800e003 	jr	ra
8010981c:	1800bd27 	addiu	sp,sp,24
80109820:	d8ffbd27 	addiu	sp,sp,-40
80109824:	1000b0af 	sw	s0,16(sp)
80109828:	21808000 	move	s0,a0
8010982c:	1800b2af 	sw	s2,24(sp)
80109830:	21900002 	move	s2,s0
80109834:	2000bfaf 	sw	ra,32(sp)
80109838:	1c00b3af 	sw	s3,28(sp)
8010983c:	1400b1af 	sw	s1,20(sp)
80109840:	3400118e 	lw	s1,52(s0)
80109844:	00000000 	nop
80109848:	1f002012 	beqz	s1,0x801098c8
8010984c:	801f133c 	lui	s3,0x1f80
80109850:	78ca000c 	jal	0x800329e0
80109854:	06000424 	li	a0,6
80109858:	2c0040ca 	lwc2	$0,44(s2)
8010985c:	300041ca 	lwc2	$1,48(s2)
80109860:	32000486 	lh	a0,50(s0)
80109864:	f3c5000c 	jal	0x800317cc
80109868:	00000000 	nop
8010986c:	05004010 	beqz	v0,0x80109884
80109870:	21204002 	move	a0,s2
80109874:	e0c5000c 	jal	0x80031780
80109878:	21200002 	move	a0,s0
8010987c:	194a0408 	j	0x80112864
80109880:	00000000 	nop
80109884:	8400628e 	lw	v0,132(s3)
80109888:	4a004386 	lh	v1,74(s2)
8010988c:	03120200 	sra	v0,v0,0x8
80109890:	18004300 	mult	v0,v1
80109894:	12280000 	mflo	a1
80109898:	48004386 	lh	v1,72(s2)
8010989c:	00000000 	nop
801098a0:	18004300 	mult	v0,v1
801098a4:	801f023c 	lui	v0,0x1f80
801098a8:	900040ac 	sw	zero,144(v0)
801098ac:	801f023c 	lui	v0,0x1f80
801098b0:	880045ac 	sw	a1,136(v0)
801098b4:	21282002 	move	a1,s1
801098b8:	12180000 	mflo	v1
801098bc:	2fca000c 	jal	0x800328bc
801098c0:	840063ae 	sw	v1,132(s3)
801098c4:	380042ae 	sw	v0,56(s2)
801098c8:	2000bf8f 	lw	ra,32(sp)
801098cc:	1c00b38f 	lw	s3,28(sp)
801098d0:	1800b28f 	lw	s2,24(sp)
801098d4:	1400b18f 	lw	s1,20(sp)
801098d8:	1000b08f 	lw	s0,16(sp)
801098dc:	0800e003 	jr	ra
801098e0:	2800bd27 	addiu	sp,sp,40
801098e4:	e8ffbd27 	addiu	sp,sp,-24
801098e8:	1000b0af 	sw	s0,16(sp)
801098ec:	21808000 	move	s0,a0
801098f0:	1400bfaf 	sw	ra,20(sp)
801098f4:	04000392 	lbu	v1,4(s0)
801098f8:	01000424 	li	a0,1
801098fc:	10006410 	beq	v1,a0,0x80109940
80109900:	02006228 	slti	v0,v1,2
80109904:	05004010 	beqz	v0,0x8010991c
80109908:	00000000 	nop
8010990c:	08006010 	beqz	v1,0x80109930
80109910:	ed0f023c 	lui	v0,0xfed
80109914:	594a0408 	j	0x80112964
80109918:	00000000 	nop
8010991c:	04006228 	slti	v0,v1,4
80109920:	29004010 	beqz	v0,0x801099c8
80109924:	00000000 	nop
80109928:	574a0408 	j	0x8011295c
8010992c:	00000000 	nop
80109930:	a7cb4234 	ori	v0,v0,0xcba7
80109934:	040004a2 	sb	a0,4(s0)
80109938:	500002ae 	sw	v0,80(s0)
8010993c:	540004ae 	sw	a0,84(s0)
80109940:	5400038e 	lw	v1,84(s0)
80109944:	01000224 	li	v0,1
80109948:	010002a2 	sb	v0,1(s0)
8010994c:	2e000296 	lhu	v0,46(s0)
80109950:	21206000 	move	a0,v1
80109954:	ffff6324 	addiu	v1,v1,-1
80109958:	08004224 	addiu	v0,v0,8
8010995c:	2e0002a6 	sh	v0,46(s0)
80109960:	19008014 	bnez	a0,0x801099c8
80109964:	540003ae 	sw	v1,84(s0)
80109968:	1469020c 	jal	0x8009a450
8010996c:	00000000 	nop
80109970:	83120200 	sra	v0,v0,0xa
80109974:	0f004330 	andi	v1,v0,0xf
80109978:	04006228 	slti	v0,v1,4
8010997c:	05004014 	bnez	v0,0x80109994
80109980:	3c000224 	li	v0,60
80109984:	0a006228 	slti	v0,v1,10
80109988:	02004014 	bnez	v0,0x80109994
8010998c:	78000224 	li	v0,120
80109990:	b4000224 	li	v0,180
80109994:	1469020c 	jal	0x8009a450
80109998:	540002ae 	sw	v0,84(s0)
8010999c:	8b000424 	li	a0,139
801099a0:	0f004230 	andi	v0,v0,0xf
801099a4:	f9ff4224 	addiu	v0,v0,-7
801099a8:	00160200 	sll	v0,v0,0x18
801099ac:	032e0200 	sra	a1,v0,0x18
801099b0:	64d1010c 	jal	0x80074590
801099b4:	f6ff0624 	li	a2,-10
801099b8:	594a0408 	j	0x80112964
801099bc:	00000000 	nop
801099c0:	89e9010c 	jal	0x8007a624
801099c4:	21200002 	move	a0,s0
801099c8:	1400bf8f 	lw	ra,20(sp)
801099cc:	1000b08f 	lw	s0,16(sp)
801099d0:	0800e003 	jr	ra
801099d4:	1800bd27 	addiu	sp,sp,24
801099d8:	e8ffbd27 	addiu	sp,sp,-24
801099dc:	1000b0af 	sw	s0,16(sp)
801099e0:	21808000 	move	s0,a0
801099e4:	1400bfaf 	sw	ra,20(sp)
801099e8:	04000392 	lbu	v1,4(s0)
801099ec:	01000424 	li	a0,1
801099f0:	12006410 	beq	v1,a0,0x80109a3c
801099f4:	02006228 	slti	v0,v1,2
801099f8:	05004010 	beqz	v0,0x80109a10
801099fc:	00000000 	nop
80109a00:	08006010 	beqz	v1,0x80109a24
80109a04:	00000000 	nop
80109a08:	854a0408 	j	0x80112a14
80109a0c:	00000000 	nop
80109a10:	04006228 	slti	v0,v1,4
80109a14:	18004010 	beqz	v0,0x80109a78
80109a18:	00000000 	nop
80109a1c:	834a0408 	j	0x80112a0c
80109a20:	00000000 	nop
80109a24:	040004a2 	sb	a0,4(s0)
80109a28:	1469020c 	jal	0x8009a450
80109a2c:	070000a2 	sb	zero,7(s0)
80109a30:	1469020c 	jal	0x8009a450
80109a34:	480002ae 	sw	v0,72(s0)
80109a38:	4c0002ae 	sw	v0,76(s0)
80109a3c:	07000292 	lbu	v0,7(s0)
80109a40:	00000000 	nop
80109a44:	01004224 	addiu	v0,v0,1
80109a48:	070002a2 	sb	v0,7(s0)
80109a4c:	ff004230 	andi	v0,v0,0xff
80109a50:	1000422c 	sltiu	v0,v0,16
80109a54:	04004014 	bnez	v0,0x80109a68
80109a58:	01000224 	li	v0,1
80109a5c:	02000224 	li	v0,2
80109a60:	854a0408 	j	0x80112a14
80109a64:	040002a2 	sb	v0,4(s0)
80109a68:	854a0408 	j	0x80112a14
80109a6c:	010002a2 	sb	v0,1(s0)
80109a70:	89e9010c 	jal	0x8007a624
80109a74:	21200002 	move	a0,s0
80109a78:	1400bf8f 	lw	ra,20(sp)
80109a7c:	1000b08f 	lw	s0,16(sp)
80109a80:	0800e003 	jr	ra
80109a84:	1800bd27 	addiu	sp,sp,24
80109a88:	e8ffbd27 	addiu	sp,sp,-24
80109a8c:	21688000 	move	t5,a0
80109a90:	801f093c 	lui	t1,0x1f80
80109a94:	04002935 	ori	t1,t1,0x4
80109a98:	0c80023c 	lui	v0,0x800c
80109a9c:	44f54a8c 	lw	t2,-2748(v0)
80109aa0:	2110c000 	move	v0,a2
80109aa4:	ffffc624 	addiu	a2,a2,-1
80109aa8:	a5004010 	beqz	v0,0x80109d40
80109aac:	801f0e3c 	lui	t6,0x1f80
80109ab0:	f0000f3c 	lui	t7,0xf0
80109ab4:	f0f0ef35 	ori	t7,t7,0xf0f0
80109ab8:	22008b24 	addiu	t3,a0,34
80109abc:	24004825 	addiu	t0,t2,36
80109ac0:	1000a0c9 	lwc2	$0,16(t5)
80109ac4:	1400ac8d 	lw	t4,20(t5)
80109ac8:	1800a2c9 	lwc2	$2,24(t5)
80109acc:	00088c48 	mtc2	t4,$1
80109ad0:	1c00a4c9 	lwc2	$4,28(t5)
80109ad4:	02640c00 	srl	t4,t4,0x10
80109ad8:	00188c48 	mtc2	t4,$3
80109adc:	2000a5c9 	lwc2	$5,32(t5)
80109ae0:	0000a28d 	lw	v0,0(t5)
80109ae4:	00000000 	nop
80109ae8:	e0ff02ad 	sw	v0,-32(t0)
80109aec:	3000284a 	c2	0x280030
80109af0:	e6ff628d 	lw	v0,-26(t3)
80109af4:	00000000 	nop
80109af8:	e8ff02ad 	sw	v0,-24(t0)
80109afc:	eaff628d 	lw	v0,-22(t3)
80109b00:	00000000 	nop
80109b04:	f4ff02ad 	sw	v0,-12(t0)
80109b08:	e2ff638d 	lw	v1,-30(t3)
80109b0c:	00f84c48 	cfc2	t4,$31
80109b10:	00000000 	nop
80109b14:	0000ccad 	sw	t4,0(t6)
80109b18:	0000c28d 	lw	v0,0(t6)
80109b1c:	00000000 	nop
80109b20:	82004004 	bltz	v0,0x80109d2c
80109b24:	00000000 	nop
80109b28:	0600404b 	c2	0x1400006
80109b2c:	24106f00 	and	v0,v1,t7
80109b30:	ecff02ad 	sw	v0,-20(t0)
80109b34:	0000d8e9 	swc2	$24,0(t6)
80109b38:	0000c28d 	lw	v0,0(t6)
80109b3c:	00000000 	nop
80109b40:	7a004018 	blez	v0,0x80109d2c
80109b44:	00000000 	nop
80109b48:	08004ce9 	swc2	$12,8(t2)
80109b4c:	14004de9 	swc2	$13,20(t2)
80109b50:	20004ee9 	swc2	$14,32(t2)
80109b54:	e4ff0295 	lhu	v0,-28(t0)
80109b58:	00000000 	nop
80109b5c:	4001422c 	sltiu	v0,v0,320
80109b60:	0b004014 	bnez	v0,0x80109b90
80109b64:	00000000 	nop
80109b68:	f0ff0295 	lhu	v0,-16(t0)
80109b6c:	00000000 	nop
80109b70:	4001422c 	sltiu	v0,v0,320
80109b74:	06004014 	bnez	v0,0x80109b90
80109b78:	00000000 	nop
80109b7c:	fcff0295 	lhu	v0,-4(t0)
80109b80:	00000000 	nop
80109b84:	4001422c 	sltiu	v0,v0,320
80109b88:	68004010 	beqz	v0,0x80109d2c
80109b8c:	00000000 	nop
80109b90:	e6ff0295 	lhu	v0,-26(t0)
80109b94:	00000000 	nop
80109b98:	f000422c 	sltiu	v0,v0,240
80109b9c:	0b004014 	bnez	v0,0x80109bcc
80109ba0:	00000000 	nop
80109ba4:	f2ff0295 	lhu	v0,-14(t0)
80109ba8:	00000000 	nop
80109bac:	f000422c 	sltiu	v0,v0,240
80109bb0:	06004014 	bnez	v0,0x80109bcc
80109bb4:	00000000 	nop
80109bb8:	feff0295 	lhu	v0,-2(t0)
80109bbc:	00000000 	nop
80109bc0:	f000422c 	sltiu	v0,v0,240
80109bc4:	59004010 	beqz	v0,0x80109d2c
80109bc8:	00000000 	nop
80109bcc:	00000000 	nop
80109bd0:	00110300 	sll	v0,v1,0x4
80109bd4:	24104f00 	and	v0,v0,t7
80109bd8:	f8ff02ad 	sw	v0,-8(t0)
80109bdc:	021e0300 	srl	v1,v1,0x18
80109be0:	01000224 	li	v0,1
80109be4:	05006210 	beq	v1,v0,0x80109bfc
80109be8:	02000224 	li	v0,2
80109bec:	18006210 	beq	v1,v0,0x80109c50
80109bf0:	0c00a227 	addiu	v0,sp,12
80109bf4:	124b0408 	j	0x80112c48
80109bf8:	00000000 	nop
80109bfc:	0000b1eb 	swc2	$17,0(sp)
80109c00:	0400a227 	addiu	v0,sp,4
80109c04:	000052e8 	swc2	$18,0(v0)
80109c08:	0800a227 	addiu	v0,sp,8
80109c0c:	000053e8 	swc2	$19,0(v0)
80109c10:	0000a78f 	lw	a3,0(sp)
80109c14:	0400a48f 	lw	a0,4(sp)
80109c18:	00000000 	nop
80109c1c:	2a108700 	slt	v0,a0,a3
80109c20:	08004010 	beqz	v0,0x80109c44
80109c24:	00000000 	nop
80109c28:	0800a38f 	lw	v1,8(sp)
80109c2c:	00000000 	nop
80109c30:	2a106700 	slt	v0,v1,a3
80109c34:	1b004010 	beqz	v0,0x80109ca4
80109c38:	83100300 	sra	v0,v1,0x2
80109c3c:	0f4b0408 	j	0x80112c3c
80109c40:	2118e000 	move	v1,a3
80109c44:	0800a38f 	lw	v1,8(sp)
80109c48:	0c4b0408 	j	0x80112c30
80109c4c:	2a106400 	slt	v0,v1,a0
80109c50:	000051e8 	swc2	$17,0(v0)
80109c54:	1000a227 	addiu	v0,sp,16
80109c58:	000052e8 	swc2	$18,0(v0)
80109c5c:	1400a227 	addiu	v0,sp,20
80109c60:	000053e8 	swc2	$19,0(v0)
80109c64:	0c00a78f 	lw	a3,12(sp)
80109c68:	1000a48f 	lw	a0,16(sp)
80109c6c:	00000000 	nop
80109c70:	2a10e400 	slt	v0,a3,a0
80109c74:	04004010 	beqz	v0,0x80109c88
80109c78:	00000000 	nop
80109c7c:	1400a38f 	lw	v1,20(sp)
80109c80:	f44a0408 	j	0x80112bd0
80109c84:	2a10e300 	slt	v0,a3,v1
80109c88:	1400a38f 	lw	v1,20(sp)
80109c8c:	00000000 	nop
80109c90:	2a108300 	slt	v0,a0,v1
80109c94:	03004010 	beqz	v0,0x80109ca4
80109c98:	83100300 	sra	v0,v1,0x2
80109c9c:	21188000 	move	v1,a0
80109ca0:	83100300 	sra	v0,v1,0x2
80109ca4:	144b0408 	j	0x80112c50
80109ca8:	000022ad 	sw	v0,0(t1)
80109cac:	2d00584b 	c2	0x158002d
80109cb0:	000027e9 	swc2	$7,0(t1)
80109cb4:	0000228d 	lw	v0,0(t1)
80109cb8:	00000000 	nop
80109cbc:	831a0200 	sra	v1,v0,0xa
80109cc0:	07106200 	srav	v0,v0,v1
80109cc4:	401a0300 	sll	v1,v1,0x9
80109cc8:	21104300 	addu	v0,v0,v1
80109ccc:	000022ad 	sw	v0,0(t1)
80109cd0:	fcff4224 	addiu	v0,v0,-4
80109cd4:	fc07422c 	sltiu	v0,v0,2044
80109cd8:	02004014 	bnez	v0,0x80109ce4
80109cdc:	ffff0224 	li	v0,-1
80109ce0:	000022ad 	sw	v0,0(t1)
80109ce4:	0000228d 	lw	v0,0(t1)
80109ce8:	00000000 	nop
80109cec:	0f004004 	bltz	v0,0x80109d2c
80109cf0:	0009043c 	lui	a0,0x900
80109cf4:	00006295 	lhu	v0,0(t3)
80109cf8:	00000000 	nop
80109cfc:	000002a5 	sh	v0,0(t0)
80109d00:	0000228d 	lw	v0,0(t1)
80109d04:	00000000 	nop
80109d08:	80100200 	sll	v0,v0,0x2
80109d0c:	2110a200 	addu	v0,a1,v0
80109d10:	0000438c 	lw	v1,0(v0)
80109d14:	00000000 	nop
80109d18:	25186400 	or	v1,v1,a0
80109d1c:	000043ad 	sw	v1,0(t2)
80109d20:	00004aac 	sw	t2,0(v0)
80109d24:	28000825 	addiu	t0,t0,40
80109d28:	28004a25 	addiu	t2,t2,40
80109d2c:	24006b25 	addiu	t3,t3,36
80109d30:	2400ad25 	addiu	t5,t5,36
80109d34:	2110c000 	move	v0,a2
80109d38:	61ff4014 	bnez	v0,0x80109ac0
80109d3c:	ffffc624 	addiu	a2,a2,-1
80109d40:	0c80023c 	lui	v0,0x800c
80109d44:	44f54aac 	sw	t2,-2748(v0)
80109d48:	2110a001 	move	v0,t5
80109d4c:	0800e003 	jr	ra
80109d50:	1800bd27 	addiu	sp,sp,24
80109d54:	e0ffbd27 	addiu	sp,sp,-32
80109d58:	21688000 	move	t5,a0
80109d5c:	801f093c 	lui	t1,0x1f80
80109d60:	04002935 	ori	t1,t1,0x4
80109d64:	0c80023c 	lui	v0,0x800c
80109d68:	44f54a8c 	lw	t2,-2748(v0)
80109d6c:	2110c000 	move	v0,a2
80109d70:	ffffc624 	addiu	a2,a2,-1
80109d74:	ca004010 	beqz	v0,0x8010a0a0
80109d78:	801f0e3c 	lui	t6,0x1f80
80109d7c:	f0000f3c 	lui	t7,0xf0
80109d80:	f0f0ef35 	ori	t7,t7,0xf0f0
80109d84:	10008b24 	addiu	t3,a0,16
80109d88:	30004825 	addiu	t0,t2,48
80109d8c:	1800ac8d 	lw	t4,24(t5)
80109d90:	1400a0c9 	lwc2	$0,20(t5)
80109d94:	00088c48 	mtc2	t4,$1
80109d98:	02640c00 	srl	t4,t4,0x10
80109d9c:	00188c48 	mtc2	t4,$3
80109da0:	1c00a2c9 	lwc2	$2,28(t5)
80109da4:	2400ac8d 	lw	t4,36(t5)
80109da8:	2000a4c9 	lwc2	$4,32(t5)
80109dac:	00288c48 	mtc2	t4,$5
80109db0:	f0ff023c 	lui	v0,0xfff0
80109db4:	0000a38d 	lw	v1,0(t5)
80109db8:	f0f04234 	ori	v0,v0,0xf0f0
80109dbc:	24106200 	and	v0,v1,v0
80109dc0:	d4ff02ad 	sw	v0,-44(t0)
80109dc4:	3000284a 	c2	0x280030
80109dc8:	00190300 	sll	v1,v1,0x4
80109dcc:	24186f00 	and	v1,v1,t7
80109dd0:	e0ff03ad 	sw	v1,-32(t0)
80109dd4:	f4ff638d 	lw	v1,-12(t3)
80109dd8:	00f84c48 	cfc2	t4,$31
80109ddc:	00000000 	nop
80109de0:	0000ccad 	sw	t4,0(t6)
80109de4:	0000c28d 	lw	v0,0(t6)
80109de8:	00000000 	nop
80109dec:	a7004004 	bltz	v0,0x8010a08c
80109df0:	00000000 	nop
80109df4:	0600404b 	c2	0x1400006
80109df8:	f8ff628d 	lw	v0,-8(t3)
80109dfc:	00000000 	nop
80109e00:	dcff02ad 	sw	v0,-36(t0)
80109e04:	0000d8e9 	swc2	$24,0(t6)
80109e08:	0000c28d 	lw	v0,0(t6)
80109e0c:	00000000 	nop
80109e10:	9e004018 	blez	v0,0x8010a08c
80109e14:	00000000 	nop
80109e18:	08004ce9 	swc2	$12,8(t2)
80109e1c:	14004de9 	swc2	$13,20(t2)
80109e20:	20004ee9 	swc2	$14,32(t2)
80109e24:	2400ac8d 	lw	t4,36(t5)
80109e28:	2800a0c9 	lwc2	$0,40(t5)
80109e2c:	02640c00 	srl	t4,t4,0x10
80109e30:	00088c48 	mtc2	t4,$1
80109e34:	24106f00 	and	v0,v1,t7
80109e38:	ecff02ad 	sw	v0,-20(t0)
80109e3c:	0100184a 	c2	0x180001
80109e40:	00110300 	sll	v0,v1,0x4
80109e44:	24104f00 	and	v0,v0,t7
80109e48:	f8ff02ad 	sw	v0,-8(t0)
80109e4c:	fcff628d 	lw	v0,-4(t3)
80109e50:	00000000 	nop
80109e54:	e8ff02ad 	sw	v0,-24(t0)
80109e58:	00f84c48 	cfc2	t4,$31
80109e5c:	00000000 	nop
80109e60:	0000ccad 	sw	t4,0(t6)
80109e64:	0000c28d 	lw	v0,0(t6)
80109e68:	00000000 	nop
80109e6c:	87004004 	bltz	v0,0x8010a08c
80109e70:	2c004225 	addiu	v0,t2,44
80109e74:	00004ee8 	swc2	$14,0(v0)
80109e78:	d8ff0295 	lhu	v0,-40(t0)
80109e7c:	00000000 	nop
80109e80:	4001422c 	sltiu	v0,v0,320
80109e84:	10004014 	bnez	v0,0x80109ec8
80109e88:	00000000 	nop
80109e8c:	e4ff0295 	lhu	v0,-28(t0)
80109e90:	00000000 	nop
80109e94:	4001422c 	sltiu	v0,v0,320
80109e98:	0b004014 	bnez	v0,0x80109ec8
80109e9c:	00000000 	nop
80109ea0:	f0ff0295 	lhu	v0,-16(t0)
80109ea4:	00000000 	nop
80109ea8:	4001422c 	sltiu	v0,v0,320
80109eac:	06004014 	bnez	v0,0x80109ec8
80109eb0:	00000000 	nop
80109eb4:	fcff0295 	lhu	v0,-4(t0)
80109eb8:	00000000 	nop
80109ebc:	4001422c 	sltiu	v0,v0,320
80109ec0:	72004010 	beqz	v0,0x8010a08c
80109ec4:	00000000 	nop
80109ec8:	daff0295 	lhu	v0,-38(t0)
80109ecc:	00000000 	nop
80109ed0:	f000422c 	sltiu	v0,v0,240
80109ed4:	10004014 	bnez	v0,0x80109f18
80109ed8:	00000000 	nop
80109edc:	e6ff0295 	lhu	v0,-26(t0)
80109ee0:	00000000 	nop
80109ee4:	f000422c 	sltiu	v0,v0,240
80109ee8:	0b004014 	bnez	v0,0x80109f18
80109eec:	00000000 	nop
80109ef0:	f2ff0295 	lhu	v0,-14(t0)
80109ef4:	00000000 	nop
80109ef8:	f000422c 	sltiu	v0,v0,240
80109efc:	06004014 	bnez	v0,0x80109f18
80109f00:	00000000 	nop
80109f04:	feff0295 	lhu	v0,-2(t0)
80109f08:	00000000 	nop
80109f0c:	f000422c 	sltiu	v0,v0,240
80109f10:	5e004010 	beqz	v0,0x8010a08c
80109f14:	00000000 	nop
80109f18:	021e0300 	srl	v1,v1,0x18
80109f1c:	01000224 	li	v0,1
80109f20:	05006210 	beq	v1,v0,0x80109f38
80109f24:	02000224 	li	v0,2
80109f28:	1a006210 	beq	v1,v0,0x80109f94
80109f2c:	1000a227 	addiu	v0,sp,16
80109f30:	e84b0408 	j	0x80112fa0
80109f34:	00000000 	nop
80109f38:	0000b0eb 	swc2	$16,0(sp)
80109f3c:	0400a227 	addiu	v0,sp,4
80109f40:	000051e8 	swc2	$17,0(v0)
80109f44:	0800a227 	addiu	v0,sp,8
80109f48:	000052e8 	swc2	$18,0(v0)
80109f4c:	0c00a227 	addiu	v0,sp,12
80109f50:	000053e8 	swc2	$19,0(v0)
80109f54:	0400a78f 	lw	a3,4(sp)
80109f58:	0000a38f 	lw	v1,0(sp)
80109f5c:	00000000 	nop
80109f60:	2a10e300 	slt	v0,a3,v1
80109f64:	02004010 	beqz	v0,0x80109f70
80109f68:	00000000 	nop
80109f6c:	21386000 	move	a3,v1
80109f70:	0c00a38f 	lw	v1,12(sp)
80109f74:	0800a48f 	lw	a0,8(sp)
80109f78:	00000000 	nop
80109f7c:	2a106400 	slt	v0,v1,a0
80109f80:	1a004010 	beqz	v0,0x80109fec
80109f84:	2a106700 	slt	v0,v1,a3
80109f88:	21188000 	move	v1,a0
80109f8c:	e24b0408 	j	0x80112f88
80109f90:	2a106700 	slt	v0,v1,a3
80109f94:	000050e8 	swc2	$16,0(v0)
80109f98:	1400a227 	addiu	v0,sp,20
80109f9c:	000051e8 	swc2	$17,0(v0)
80109fa0:	1800a227 	addiu	v0,sp,24
80109fa4:	000052e8 	swc2	$18,0(v0)
80109fa8:	1c00a227 	addiu	v0,sp,28
80109fac:	000053e8 	swc2	$19,0(v0)
80109fb0:	1400a78f 	lw	a3,20(sp)
80109fb4:	1000a38f 	lw	v1,16(sp)
80109fb8:	00000000 	nop
80109fbc:	2a106700 	slt	v0,v1,a3
80109fc0:	02004010 	beqz	v0,0x80109fcc
80109fc4:	00000000 	nop
80109fc8:	21386000 	move	a3,v1
80109fcc:	1c00a38f 	lw	v1,28(sp)
80109fd0:	1800a48f 	lw	a0,24(sp)
80109fd4:	00000000 	nop
80109fd8:	2a108300 	slt	v0,a0,v1
80109fdc:	03004010 	beqz	v0,0x80109fec
80109fe0:	2a10e300 	slt	v0,a3,v1
80109fe4:	21188000 	move	v1,a0
80109fe8:	2a10e300 	slt	v0,a3,v1
80109fec:	03004010 	beqz	v0,0x80109ffc
80109ff0:	83100300 	sra	v0,v1,0x2
80109ff4:	2118e000 	move	v1,a3
80109ff8:	83100300 	sra	v0,v1,0x2
80109ffc:	ea4b0408 	j	0x80112fa8
8010a000:	000022ad 	sw	v0,0(t1)
8010a004:	2e00684b 	c2	0x168002e
8010a008:	000027e9 	swc2	$7,0(t1)
8010a00c:	0000228d 	lw	v0,0(t1)
8010a010:	00000000 	nop
8010a014:	831a0200 	sra	v1,v0,0xa
8010a018:	07106200 	srav	v0,v0,v1
8010a01c:	401a0300 	sll	v1,v1,0x9
8010a020:	21104300 	addu	v0,v0,v1
8010a024:	000022ad 	sw	v0,0(t1)
8010a028:	fcff4224 	addiu	v0,v0,-4
8010a02c:	fc07422c 	sltiu	v0,v0,2044
8010a030:	02004014 	bnez	v0,0x8010a03c
8010a034:	ffff0224 	li	v0,-1
8010a038:	000022ad 	sw	v0,0(t1)
8010a03c:	0000228d 	lw	v0,0(t1)
8010a040:	00000000 	nop
8010a044:	11004004 	bltz	v0,0x8010a08c
8010a048:	000c043c 	lui	a0,0xc00
8010a04c:	0000628d 	lw	v0,0(t3)
8010a050:	00000000 	nop
8010a054:	f4ff02ad 	sw	v0,-12(t0)
8010a058:	02140200 	srl	v0,v0,0x10
8010a05c:	000002ad 	sw	v0,0(t0)
8010a060:	0000228d 	lw	v0,0(t1)
8010a064:	00000000 	nop
8010a068:	80100200 	sll	v0,v0,0x2
8010a06c:	2110a200 	addu	v0,a1,v0
8010a070:	0000438c 	lw	v1,0(v0)
8010a074:	00000000 	nop
8010a078:	25186400 	or	v1,v1,a0
8010a07c:	000043ad 	sw	v1,0(t2)
8010a080:	00004aac 	sw	t2,0(v0)
8010a084:	34000825 	addiu	t0,t0,52
8010a088:	34004a25 	addiu	t2,t2,52
8010a08c:	2c006b25 	addiu	t3,t3,44
8010a090:	2c00ad25 	addiu	t5,t5,44
8010a094:	2110c000 	move	v0,a2
8010a098:	3cff4014 	bnez	v0,0x80109d8c
8010a09c:	ffffc624 	addiu	a2,a2,-1
8010a0a0:	0c80023c 	lui	v0,0x800c
8010a0a4:	44f54aac 	sw	t2,-2748(v0)
8010a0a8:	2110a001 	move	v0,t5
8010a0ac:	0800e003 	jr	ra
8010a0b0:	2000bd27 	addiu	sp,sp,32
8010a0b4:	d8ffbd27 	addiu	sp,sp,-40
8010a0b8:	2400bfaf 	sw	ra,36(sp)
8010a0bc:	2000b4af 	sw	s4,32(sp)
8010a0c0:	1c00b3af 	sw	s3,28(sp)
8010a0c4:	1800b2af 	sw	s2,24(sp)
8010a0c8:	1400b1af 	sw	s1,20(sp)
8010a0cc:	1000b0af 	sw	s0,16(sp)
8010a0d0:	06008290 	lbu	v0,6(a0)
8010a0d4:	00000000 	nop
8010a0d8:	2e004010 	beqz	v0,0x8010a194
8010a0dc:	10009124 	addiu	s1,a0,16
8010a0e0:	40100200 	sll	v0,v0,0x1
8010a0e4:	10004224 	addiu	v0,v0,16
8010a0e8:	21988200 	addu	s3,a0,v0
8010a0ec:	0f80023c 	lui	v0,0x800f
8010a0f0:	801f033c 	lui	v1,0x1f80
8010a0f4:	f8006324 	addiu	v1,v1,248
8010a0f8:	c8d8528c 	lw	s2,-10040(v0)
8010a0fc:	0c00948c 	lw	s4,12(a0)
8010a100:	00006c8c 	lw	t4,0(v1)
8010a104:	04006d8c 	lw	t5,4(v1)
8010a108:	0000cc48 	ctc2	t4,$0
8010a10c:	0008cd48 	ctc2	t5,$1
8010a110:	08006c8c 	lw	t4,8(v1)
8010a114:	0c006d8c 	lw	t5,12(v1)
8010a118:	10006e8c 	lw	t6,16(v1)
8010a11c:	0010cc48 	ctc2	t4,$2
8010a120:	0018cd48 	ctc2	t5,$3
8010a124:	0020ce48 	ctc2	t6,$4
8010a128:	801f033c 	lui	v1,0x1f80
8010a12c:	f8006324 	addiu	v1,v1,248
8010a130:	14006c8c 	lw	t4,20(v1)
8010a134:	18006d8c 	lw	t5,24(v1)
8010a138:	0028cc48 	ctc2	t4,$5
8010a13c:	1c006e8c 	lw	t6,28(v1)
8010a140:	0030cd48 	ctc2	t5,$6
8010a144:	0038ce48 	ctc2	t6,$7
8010a148:	2b103302 	sltu	v0,s1,s3
8010a14c:	11004010 	beqz	v0,0x8010a194
8010a150:	21284002 	move	a1,s2
8010a154:	00002496 	lhu	a0,0(s1)
8010a158:	02003126 	addiu	s1,s1,2
8010a15c:	80200400 	sll	a0,a0,0x2
8010a160:	21208402 	addu	a0,s4,a0
8010a164:	0000908c 	lw	s0,0(a0)
8010a168:	04008424 	addiu	a0,a0,4
8010a16c:	894a040c 	jal	0x80112a24
8010a170:	ff000632 	andi	a2,s0,0xff
8010a174:	02841000 	srl	s0,s0,0x10
8010a178:	21204000 	move	a0,v0
8010a17c:	21284002 	move	a1,s2
8010a180:	3c4b040c 	jal	0x80112cf0
8010a184:	ff000632 	andi	a2,s0,0xff
8010a188:	2b103302 	sltu	v0,s1,s3
8010a18c:	f1ff4014 	bnez	v0,0x8010a154
8010a190:	21284002 	move	a1,s2
8010a194:	2400bf8f 	lw	ra,36(sp)
8010a198:	2000b48f 	lw	s4,32(sp)
8010a19c:	1c00b38f 	lw	s3,28(sp)
8010a1a0:	1800b28f 	lw	s2,24(sp)
8010a1a4:	1400b18f 	lw	s1,20(sp)
8010a1a8:	1000b08f 	lw	s0,16(sp)
8010a1ac:	0800e003 	jr	ra
8010a1b0:	2800bd27 	addiu	sp,sp,40
8010a1b4:	f0ffbd27 	addiu	sp,sp,-16
8010a1b8:	21688000 	move	t5,a0
8010a1bc:	801f093c 	lui	t1,0x1f80
8010a1c0:	04002935 	ori	t1,t1,0x4
8010a1c4:	0c80023c 	lui	v0,0x800c
8010a1c8:	44f54a8c 	lw	t2,-2748(v0)
8010a1cc:	2110c000 	move	v0,a2
8010a1d0:	ffffc624 	addiu	a2,a2,-1
8010a1d4:	9b004010 	beqz	v0,0x8010a444
8010a1d8:	801f0e3c 	lui	t6,0x1f80
8010a1dc:	f0000f3c 	lui	t7,0xf0
8010a1e0:	f0f0ef35 	ori	t7,t7,0xf0f0
8010a1e4:	22008b24 	addiu	t3,a0,34
8010a1e8:	24004825 	addiu	t0,t2,36
8010a1ec:	1000a0c9 	lwc2	$0,16(t5)
8010a1f0:	1400ac8d 	lw	t4,20(t5)
8010a1f4:	1800a2c9 	lwc2	$2,24(t5)
8010a1f8:	00088c48 	mtc2	t4,$1
8010a1fc:	1c00a4c9 	lwc2	$4,28(t5)
8010a200:	02640c00 	srl	t4,t4,0x10
8010a204:	00188c48 	mtc2	t4,$3
8010a208:	2000a5c9 	lwc2	$5,32(t5)
8010a20c:	0000a28d 	lw	v0,0(t5)
8010a210:	00000000 	nop
8010a214:	e0ff02ad 	sw	v0,-32(t0)
8010a218:	3000284a 	c2	0x280030
8010a21c:	e6ff628d 	lw	v0,-26(t3)
8010a220:	00000000 	nop
8010a224:	e8ff02ad 	sw	v0,-24(t0)
8010a228:	eaff628d 	lw	v0,-22(t3)
8010a22c:	00000000 	nop
8010a230:	f4ff02ad 	sw	v0,-12(t0)
8010a234:	e2ff638d 	lw	v1,-30(t3)
8010a238:	00f84c48 	cfc2	t4,$31
8010a23c:	00000000 	nop
8010a240:	0000ccad 	sw	t4,0(t6)
8010a244:	0000c28d 	lw	v0,0(t6)
8010a248:	00000000 	nop
8010a24c:	78004004 	bltz	v0,0x8010a430
8010a250:	00000000 	nop
8010a254:	0600404b 	c2	0x1400006
8010a258:	24106f00 	and	v0,v1,t7
8010a25c:	ecff02ad 	sw	v0,-20(t0)
8010a260:	0000d8e9 	swc2	$24,0(t6)
8010a264:	0000c28d 	lw	v0,0(t6)
8010a268:	00000000 	nop
8010a26c:	70004018 	blez	v0,0x8010a430
8010a270:	00000000 	nop
8010a274:	08004ce9 	swc2	$12,8(t2)
8010a278:	14004de9 	swc2	$13,20(t2)
8010a27c:	20004ee9 	swc2	$14,32(t2)
8010a280:	e4ff0295 	lhu	v0,-28(t0)
8010a284:	00000000 	nop
8010a288:	4001422c 	sltiu	v0,v0,320
8010a28c:	0b004014 	bnez	v0,0x8010a2bc
8010a290:	00000000 	nop
8010a294:	f0ff0295 	lhu	v0,-16(t0)
8010a298:	00000000 	nop
8010a29c:	4001422c 	sltiu	v0,v0,320
8010a2a0:	06004014 	bnez	v0,0x8010a2bc
8010a2a4:	00000000 	nop
8010a2a8:	fcff0295 	lhu	v0,-4(t0)
8010a2ac:	00000000 	nop
8010a2b0:	4001422c 	sltiu	v0,v0,320
8010a2b4:	5e004010 	beqz	v0,0x8010a430
8010a2b8:	00000000 	nop
8010a2bc:	e6ff0295 	lhu	v0,-26(t0)
8010a2c0:	00000000 	nop
8010a2c4:	f000422c 	sltiu	v0,v0,240
8010a2c8:	0b004014 	bnez	v0,0x8010a2f8
8010a2cc:	00110300 	sll	v0,v1,0x4
8010a2d0:	f2ff0295 	lhu	v0,-14(t0)
8010a2d4:	00000000 	nop
8010a2d8:	f000422c 	sltiu	v0,v0,240
8010a2dc:	06004014 	bnez	v0,0x8010a2f8
8010a2e0:	00110300 	sll	v0,v1,0x4
8010a2e4:	feff0295 	lhu	v0,-2(t0)
8010a2e8:	00000000 	nop
8010a2ec:	f000422c 	sltiu	v0,v0,240
8010a2f0:	4f004010 	beqz	v0,0x8010a430
8010a2f4:	00110300 	sll	v0,v1,0x4
8010a2f8:	24104f00 	and	v0,v0,t7
8010a2fc:	021e0300 	srl	v1,v1,0x18
8010a300:	2b006010 	beqz	v1,0x8010a3b0
8010a304:	f8ff02ad 	sw	v0,-8(t0)
8010a308:	0000b1eb 	swc2	$17,0(sp)
8010a30c:	0400a227 	addiu	v0,sp,4
8010a310:	000052e8 	swc2	$18,0(v0)
8010a314:	0800a227 	addiu	v0,sp,8
8010a318:	000053e8 	swc2	$19,0(v0)
8010a31c:	01000224 	li	v0,1
8010a320:	11006214 	bne	v1,v0,0x8010a368
8010a324:	00000000 	nop
8010a328:	0000a78f 	lw	a3,0(sp)
8010a32c:	0400a48f 	lw	a0,4(sp)
8010a330:	00000000 	nop
8010a334:	2a108700 	slt	v0,a0,a3
8010a338:	08004010 	beqz	v0,0x8010a35c
8010a33c:	00000000 	nop
8010a340:	0800a38f 	lw	v1,8(sp)
8010a344:	00000000 	nop
8010a348:	2a106700 	slt	v0,v1,a3
8010a34c:	16004010 	beqz	v0,0x8010a3a8
8010a350:	83100300 	sra	v0,v1,0x2
8010a354:	d04c0408 	j	0x80113340
8010a358:	2118e000 	move	v1,a3
8010a35c:	0800a38f 	lw	v1,8(sp)
8010a360:	cd4c0408 	j	0x80113334
8010a364:	2a106400 	slt	v0,v1,a0
8010a368:	0000a78f 	lw	a3,0(sp)
8010a36c:	0400a48f 	lw	a0,4(sp)
8010a370:	00000000 	nop
8010a374:	2a10e400 	slt	v0,a3,a0
8010a378:	04004010 	beqz	v0,0x8010a38c
8010a37c:	00000000 	nop
8010a380:	0800a38f 	lw	v1,8(sp)
8010a384:	ba4c0408 	j	0x801132e8
8010a388:	2a10e300 	slt	v0,a3,v1
8010a38c:	0800a38f 	lw	v1,8(sp)
8010a390:	00000000 	nop
8010a394:	2a108300 	slt	v0,a0,v1
8010a398:	03004010 	beqz	v0,0x8010a3a8
8010a39c:	83100300 	sra	v0,v1,0x2
8010a3a0:	21188000 	move	v1,a0
8010a3a4:	83100300 	sra	v0,v1,0x2
8010a3a8:	d54c0408 	j	0x80113354
8010a3ac:	000022ad 	sw	v0,0(t1)
8010a3b0:	2d00584b 	c2	0x158002d
8010a3b4:	000027e9 	swc2	$7,0(t1)
8010a3b8:	0000228d 	lw	v0,0(t1)
8010a3bc:	00000000 	nop
8010a3c0:	831a0200 	sra	v1,v0,0xa
8010a3c4:	07106200 	srav	v0,v0,v1
8010a3c8:	401a0300 	sll	v1,v1,0x9
8010a3cc:	21104300 	addu	v0,v0,v1
8010a3d0:	000022ad 	sw	v0,0(t1)
8010a3d4:	fcff4224 	addiu	v0,v0,-4
8010a3d8:	fc07422c 	sltiu	v0,v0,2044
8010a3dc:	02004014 	bnez	v0,0x8010a3e8
8010a3e0:	ffff0224 	li	v0,-1
8010a3e4:	000022ad 	sw	v0,0(t1)
8010a3e8:	0000228d 	lw	v0,0(t1)
8010a3ec:	00000000 	nop
8010a3f0:	0f004004 	bltz	v0,0x8010a430
8010a3f4:	0009043c 	lui	a0,0x900
8010a3f8:	00006295 	lhu	v0,0(t3)
8010a3fc:	00000000 	nop
8010a400:	000002a5 	sh	v0,0(t0)
8010a404:	0000228d 	lw	v0,0(t1)
8010a408:	00000000 	nop
8010a40c:	80100200 	sll	v0,v0,0x2
8010a410:	2110a200 	addu	v0,a1,v0
8010a414:	0000438c 	lw	v1,0(v0)
8010a418:	00000000 	nop
8010a41c:	25186400 	or	v1,v1,a0
8010a420:	000043ad 	sw	v1,0(t2)
8010a424:	00004aac 	sw	t2,0(v0)
8010a428:	28000825 	addiu	t0,t0,40
8010a42c:	28004a25 	addiu	t2,t2,40
8010a430:	24006b25 	addiu	t3,t3,36
8010a434:	2400ad25 	addiu	t5,t5,36
8010a438:	2110c000 	move	v0,a2
8010a43c:	6bff4014 	bnez	v0,0x8010a1ec
8010a440:	ffffc624 	addiu	a2,a2,-1
8010a444:	0c80023c 	lui	v0,0x800c
8010a448:	44f54aac 	sw	t2,-2748(v0)
8010a44c:	2110a001 	move	v0,t5
8010a450:	0800e003 	jr	ra
8010a454:	1000bd27 	addiu	sp,sp,16
8010a458:	f0ffbd27 	addiu	sp,sp,-16
8010a45c:	21688000 	move	t5,a0
8010a460:	801f093c 	lui	t1,0x1f80
8010a464:	04002935 	ori	t1,t1,0x4
8010a468:	0c80023c 	lui	v0,0x800c
8010a46c:	44f54a8c 	lw	t2,-2748(v0)
8010a470:	2110c000 	move	v0,a2
8010a474:	ffffc624 	addiu	a2,a2,-1
8010a478:	bf004010 	beqz	v0,0x8010a778
8010a47c:	801f0e3c 	lui	t6,0x1f80
8010a480:	f0000f3c 	lui	t7,0xf0
8010a484:	f0f0ef35 	ori	t7,t7,0xf0f0
8010a488:	10008b24 	addiu	t3,a0,16
8010a48c:	30004825 	addiu	t0,t2,48
8010a490:	1800ac8d 	lw	t4,24(t5)
8010a494:	1400a0c9 	lwc2	$0,20(t5)
8010a498:	00088c48 	mtc2	t4,$1
8010a49c:	02640c00 	srl	t4,t4,0x10
8010a4a0:	00188c48 	mtc2	t4,$3
8010a4a4:	1c00a2c9 	lwc2	$2,28(t5)
8010a4a8:	2400ac8d 	lw	t4,36(t5)
8010a4ac:	2000a4c9 	lwc2	$4,32(t5)
8010a4b0:	00288c48 	mtc2	t4,$5
8010a4b4:	f0ff023c 	lui	v0,0xfff0
8010a4b8:	0000a38d 	lw	v1,0(t5)
8010a4bc:	f0f04234 	ori	v0,v0,0xf0f0
8010a4c0:	24106200 	and	v0,v1,v0
8010a4c4:	d4ff02ad 	sw	v0,-44(t0)
8010a4c8:	3000284a 	c2	0x280030
8010a4cc:	00110300 	sll	v0,v1,0x4
8010a4d0:	24104f00 	and	v0,v0,t7
8010a4d4:	e0ff02ad 	sw	v0,-32(t0)
8010a4d8:	f4ff638d 	lw	v1,-12(t3)
8010a4dc:	00f84c48 	cfc2	t4,$31
8010a4e0:	00000000 	nop
8010a4e4:	0000ccad 	sw	t4,0(t6)
8010a4e8:	0000c28d 	lw	v0,0(t6)
8010a4ec:	00000000 	nop
8010a4f0:	9c004004 	bltz	v0,0x8010a764
8010a4f4:	00000000 	nop
8010a4f8:	0600404b 	c2	0x1400006
8010a4fc:	f8ff628d 	lw	v0,-8(t3)
8010a500:	00000000 	nop
8010a504:	dcff02ad 	sw	v0,-36(t0)
8010a508:	0000d8e9 	swc2	$24,0(t6)
8010a50c:	0000c28d 	lw	v0,0(t6)
8010a510:	00000000 	nop
8010a514:	93004018 	blez	v0,0x8010a764
8010a518:	00000000 	nop
8010a51c:	08004ce9 	swc2	$12,8(t2)
8010a520:	14004de9 	swc2	$13,20(t2)
8010a524:	20004ee9 	swc2	$14,32(t2)
8010a528:	2400ac8d 	lw	t4,36(t5)
8010a52c:	2800a0c9 	lwc2	$0,40(t5)
8010a530:	02640c00 	srl	t4,t4,0x10
8010a534:	00088c48 	mtc2	t4,$1
8010a538:	24106f00 	and	v0,v1,t7
8010a53c:	ecff02ad 	sw	v0,-20(t0)
8010a540:	0100184a 	c2	0x180001
8010a544:	00110300 	sll	v0,v1,0x4
8010a548:	24104f00 	and	v0,v0,t7
8010a54c:	f8ff02ad 	sw	v0,-8(t0)
8010a550:	fcff628d 	lw	v0,-4(t3)
8010a554:	00000000 	nop
8010a558:	e8ff02ad 	sw	v0,-24(t0)
8010a55c:	00f84c48 	cfc2	t4,$31
8010a560:	00000000 	nop
8010a564:	0000ccad 	sw	t4,0(t6)
8010a568:	0000c28d 	lw	v0,0(t6)
8010a56c:	00000000 	nop
8010a570:	7c004004 	bltz	v0,0x8010a764
8010a574:	2c004225 	addiu	v0,t2,44
8010a578:	00004ee8 	swc2	$14,0(v0)
8010a57c:	d8ff0295 	lhu	v0,-40(t0)
8010a580:	00000000 	nop
8010a584:	4001422c 	sltiu	v0,v0,320
8010a588:	10004014 	bnez	v0,0x8010a5cc
8010a58c:	00000000 	nop
8010a590:	e4ff0295 	lhu	v0,-28(t0)
8010a594:	00000000 	nop
8010a598:	4001422c 	sltiu	v0,v0,320
8010a59c:	0b004014 	bnez	v0,0x8010a5cc
8010a5a0:	00000000 	nop
8010a5a4:	f0ff0295 	lhu	v0,-16(t0)
8010a5a8:	00000000 	nop
8010a5ac:	4001422c 	sltiu	v0,v0,320
8010a5b0:	06004014 	bnez	v0,0x8010a5cc
8010a5b4:	00000000 	nop
8010a5b8:	fcff0295 	lhu	v0,-4(t0)
8010a5bc:	00000000 	nop
8010a5c0:	4001422c 	sltiu	v0,v0,320
8010a5c4:	67004010 	beqz	v0,0x8010a764
8010a5c8:	00000000 	nop
8010a5cc:	daff0295 	lhu	v0,-38(t0)
8010a5d0:	00000000 	nop
8010a5d4:	f000422c 	sltiu	v0,v0,240
8010a5d8:	10004014 	bnez	v0,0x8010a61c
8010a5dc:	00000000 	nop
8010a5e0:	e6ff0295 	lhu	v0,-26(t0)
8010a5e4:	00000000 	nop
8010a5e8:	f000422c 	sltiu	v0,v0,240
8010a5ec:	0b004014 	bnez	v0,0x8010a61c
8010a5f0:	00000000 	nop
8010a5f4:	f2ff0295 	lhu	v0,-14(t0)
8010a5f8:	00000000 	nop
8010a5fc:	f000422c 	sltiu	v0,v0,240
8010a600:	06004014 	bnez	v0,0x8010a61c
8010a604:	00000000 	nop
8010a608:	feff0295 	lhu	v0,-2(t0)
8010a60c:	00000000 	nop
8010a610:	f000422c 	sltiu	v0,v0,240
8010a614:	53004010 	beqz	v0,0x8010a764
8010a618:	00000000 	nop
8010a61c:	fcff628d 	lw	v0,-4(t3)
8010a620:	021e0300 	srl	v1,v1,0x18
8010a624:	30006010 	beqz	v1,0x8010a6e8
8010a628:	e8ff02ad 	sw	v0,-24(t0)
8010a62c:	0000b0eb 	swc2	$16,0(sp)
8010a630:	0400a227 	addiu	v0,sp,4
8010a634:	000051e8 	swc2	$17,0(v0)
8010a638:	0800a227 	addiu	v0,sp,8
8010a63c:	000052e8 	swc2	$18,0(v0)
8010a640:	0c00a227 	addiu	v0,sp,12
8010a644:	000053e8 	swc2	$19,0(v0)
8010a648:	01000224 	li	v0,1
8010a64c:	11006214 	bne	v1,v0,0x8010a694
8010a650:	00000000 	nop
8010a654:	0400a78f 	lw	a3,4(sp)
8010a658:	0000a38f 	lw	v1,0(sp)
8010a65c:	00000000 	nop
8010a660:	2a10e300 	slt	v0,a3,v1
8010a664:	02004010 	beqz	v0,0x8010a670
8010a668:	00000000 	nop
8010a66c:	21386000 	move	a3,v1
8010a670:	0c00a38f 	lw	v1,12(sp)
8010a674:	0800a48f 	lw	a0,8(sp)
8010a678:	00000000 	nop
8010a67c:	2a106400 	slt	v0,v1,a0
8010a680:	13004010 	beqz	v0,0x8010a6d0
8010a684:	2a106700 	slt	v0,v1,a3
8010a688:	21188000 	move	v1,a0
8010a68c:	9b4d0408 	j	0x8011366c
8010a690:	2a106700 	slt	v0,v1,a3
8010a694:	0400a78f 	lw	a3,4(sp)
8010a698:	0000a38f 	lw	v1,0(sp)
8010a69c:	00000000 	nop
8010a6a0:	2a106700 	slt	v0,v1,a3
8010a6a4:	02004010 	beqz	v0,0x8010a6b0
8010a6a8:	00000000 	nop
8010a6ac:	21386000 	move	a3,v1
8010a6b0:	0c00a38f 	lw	v1,12(sp)
8010a6b4:	0800a48f 	lw	a0,8(sp)
8010a6b8:	00000000 	nop
8010a6bc:	2a108300 	slt	v0,a0,v1
8010a6c0:	03004010 	beqz	v0,0x8010a6d0
8010a6c4:	2a10e300 	slt	v0,a3,v1
8010a6c8:	21188000 	move	v1,a0
8010a6cc:	2a10e300 	slt	v0,a3,v1
8010a6d0:	03004010 	beqz	v0,0x8010a6e0
8010a6d4:	83100300 	sra	v0,v1,0x2
8010a6d8:	2118e000 	move	v1,a3
8010a6dc:	83100300 	sra	v0,v1,0x2
8010a6e0:	c04d0408 	j	0x80113700
8010a6e4:	000022ad 	sw	v0,0(t1)
8010a6e8:	2e00684b 	c2	0x168002e
8010a6ec:	000027e9 	swc2	$7,0(t1)
8010a6f0:	0000228d 	lw	v0,0(t1)
8010a6f4:	00000000 	nop
8010a6f8:	831a0200 	sra	v1,v0,0xa
8010a6fc:	07106200 	srav	v0,v0,v1
8010a700:	401a0300 	sll	v1,v1,0x9
8010a704:	21104300 	addu	v0,v0,v1
8010a708:	000022ad 	sw	v0,0(t1)
8010a70c:	fcff4224 	addiu	v0,v0,-4
8010a710:	fc07422c 	sltiu	v0,v0,2044
8010a714:	02004014 	bnez	v0,0x8010a720
8010a718:	ffff0224 	li	v0,-1
8010a71c:	000022ad 	sw	v0,0(t1)
8010a720:	0000248d 	lw	a0,0(t1)
8010a724:	00000000 	nop
8010a728:	0e008004 	bltz	a0,0x8010a764
8010a72c:	80200400 	sll	a0,a0,0x2
8010a730:	2120a400 	addu	a0,a1,a0
8010a734:	0000828c 	lw	v0,0(a0)
8010a738:	000c033c 	lui	v1,0xc00
8010a73c:	25104300 	or	v0,v0,v1
8010a740:	000042ad 	sw	v0,0(t2)
8010a744:	00008aac 	sw	t2,0(a0)
8010a748:	0000628d 	lw	v0,0(t3)
8010a74c:	00000000 	nop
8010a750:	f4ff02ad 	sw	v0,-12(t0)
8010a754:	02140200 	srl	v0,v0,0x10
8010a758:	000002ad 	sw	v0,0(t0)
8010a75c:	34000825 	addiu	t0,t0,52
8010a760:	34004a25 	addiu	t2,t2,52
8010a764:	2c006b25 	addiu	t3,t3,44
8010a768:	2c00ad25 	addiu	t5,t5,44
8010a76c:	2110c000 	move	v0,a2
8010a770:	47ff4014 	bnez	v0,0x8010a490
8010a774:	ffffc624 	addiu	a2,a2,-1
8010a778:	0c80023c 	lui	v0,0x800c
8010a77c:	44f54aac 	sw	t2,-2748(v0)
8010a780:	2110a001 	move	v0,t5
8010a784:	0800e003 	jr	ra
8010a788:	1000bd27 	addiu	sp,sp,16
8010a78c:	e0ffbd27 	addiu	sp,sp,-32
8010a790:	1400b1af 	sw	s1,20(sp)
8010a794:	2188a000 	move	s1,a1
8010a798:	1800bfaf 	sw	ra,24(sp)
8010a79c:	1000b0af 	sw	s0,16(sp)
8010a7a0:	0000908c 	lw	s0,0(a0)
8010a7a4:	10008424 	addiu	a0,a0,16
8010a7a8:	544c040c 	jal	0x80113150
8010a7ac:	ffff0632 	andi	a2,s0,0xffff
8010a7b0:	21204000 	move	a0,v0
8010a7b4:	21282002 	move	a1,s1
8010a7b8:	fd4c040c 	jal	0x801133f4
8010a7bc:	02341000 	srl	a2,s0,0x10
8010a7c0:	1800bf8f 	lw	ra,24(sp)
8010a7c4:	1400b18f 	lw	s1,20(sp)
8010a7c8:	1000b08f 	lw	s0,16(sp)
8010a7cc:	0800e003 	jr	ra
8010a7d0:	2000bd27 	addiu	sp,sp,32
8010a7d4:	c0ffbd27 	addiu	sp,sp,-64
8010a7d8:	3400b3af 	sw	s3,52(sp)
8010a7dc:	21988000 	move	s3,a0
8010a7e0:	3000b2af 	sw	s2,48(sp)
8010a7e4:	0a80123c 	lui	s2,0x800a
8010a7e8:	00500224 	li	v0,20480
8010a7ec:	2800b0af 	sw	s0,40(sp)
8010a7f0:	801f103c 	lui	s0,0x1f80
8010a7f4:	d0001026 	addiu	s0,s0,208
8010a7f8:	2c00b1af 	sw	s1,44(sp)
8010a7fc:	0a80113c 	lui	s1,0x800a
8010a800:	3c00bfaf 	sw	ra,60(sp)
8010a804:	3800b4af 	sw	s4,56(sp)
8010a808:	903f42ae 	sw	v0,16272(s2)
8010a80c:	22000296 	lhu	v0,34(s0)
8010a810:	5e020324 	li	v1,606
8010a814:	943f23ae 	sw	v1,16276(s1)
8010a818:	0a000386 	lh	v1,10(s0)
8010a81c:	00140200 	sll	v0,v0,0x10
8010a820:	03140200 	sra	v0,v0,0x10
8010a824:	23100200 	negu	v0,v0
8010a828:	a2fd4224 	addiu	v0,v0,-606
8010a82c:	ff0f5430 	andi	s4,v0,0xfff
8010a830:	02000286 	lh	v0,2(s0)
8010a834:	21208002 	move	a0,s4
8010a838:	1400a3af 	sw	v1,20(sp)
8010a83c:	a00f020c 	jal	0x80083e80
8010a840:	1000a2af 	sw	v0,16(sp)
8010a844:	903f438e 	lw	v1,16272(s2)
8010a848:	00000000 	nop
8010a84c:	18004300 	mult	v0,v1
8010a850:	21208002 	move	a0,s4
8010a854:	1000a28f 	lw	v0,16(sp)
8010a858:	12180000 	mflo	v1
8010a85c:	031b0300 	sra	v1,v1,0xc
8010a860:	21104300 	addu	v0,v0,v1
8010a864:	d40f020c 	jal	0x80083f50
8010a868:	1800a2af 	sw	v0,24(sp)
8010a86c:	903f438e 	lw	v1,16272(s2)
8010a870:	00000000 	nop
8010a874:	18004300 	mult	v0,v1
8010a878:	22000386 	lh	v1,34(s0)
8010a87c:	943f228e 	lw	v0,16276(s1)
8010a880:	00000000 	nop
8010a884:	23104300 	subu	v0,v0,v1
8010a888:	ff0f5430 	andi	s4,v0,0xfff
8010a88c:	21208002 	move	a0,s4
8010a890:	1400a28f 	lw	v0,20(sp)
8010a894:	12400000 	mflo	t0
8010a898:	031b0800 	sra	v1,t0,0xc
8010a89c:	21104300 	addu	v0,v0,v1
8010a8a0:	a00f020c 	jal	0x80083e80
8010a8a4:	1c00a2af 	sw	v0,28(sp)
8010a8a8:	903f438e 	lw	v1,16272(s2)
8010a8ac:	00000000 	nop
8010a8b0:	18004300 	mult	v0,v1
8010a8b4:	21208002 	move	a0,s4
8010a8b8:	1000a28f 	lw	v0,16(sp)
8010a8bc:	12180000 	mflo	v1
8010a8c0:	031b0300 	sra	v1,v1,0xc
8010a8c4:	21104300 	addu	v0,v0,v1
8010a8c8:	d40f020c 	jal	0x80083f50
8010a8cc:	2000a2af 	sw	v0,32(sp)
8010a8d0:	903f438e 	lw	v1,16272(s2)
8010a8d4:	00000000 	nop
8010a8d8:	18004300 	mult	v0,v1
8010a8dc:	20000486 	lh	a0,32(s0)
8010a8e0:	1400a28f 	lw	v0,20(sp)
8010a8e4:	12180000 	mflo	v1
8010a8e8:	031b0300 	sra	v1,v1,0xc
8010a8ec:	21104300 	addu	v0,v0,v1
8010a8f0:	a00f020c 	jal	0x80083e80
8010a8f4:	2400a2af 	sw	v0,36(sp)
8010a8f8:	22000486 	lh	a0,34(s0)
8010a8fc:	02004104 	bgez	v0,0x8010a908
8010a900:	21884000 	move	s1,v0
8010a904:	23881100 	negu	s1,s1
8010a908:	a00f020c 	jal	0x80083e80
8010a90c:	23200400 	negu	a0,a0
8010a910:	18005100 	mult	v0,s1
8010a914:	22000486 	lh	a0,34(s0)
8010a918:	00000000 	nop
8010a91c:	23200400 	negu	a0,a0
8010a920:	12180000 	mflo	v1
8010a924:	d40f020c 	jal	0x80083f50
8010a928:	03830300 	sra	s0,v1,0xc
8010a92c:	18005100 	mult	v0,s1
8010a930:	12400000 	mflo	t0
8010a934:	903f438e 	lw	v1,16272(s2)
8010a938:	00000000 	nop
8010a93c:	18000302 	mult	s0,v1
8010a940:	12200000 	mflo	a0
8010a944:	03130800 	sra	v0,t0,0xc
8010a948:	00000000 	nop
8010a94c:	18004300 	mult	v0,v1
8010a950:	66660a3c 	lui	t2,0x6666
8010a954:	67664a35 	ori	t2,t2,0x6667
8010a958:	1000a78f 	lw	a3,16(sp)
8010a95c:	80100400 	sll	v0,a0,0x2
8010a960:	21104400 	addu	v0,v0,a0
8010a964:	12180000 	mflo	v1
8010a968:	03840200 	sra	s0,v0,0x10
8010a96c:	2338f000 	subu	a3,a3,s0
8010a970:	1800ea00 	mult	a3,t2
8010a974:	1400a98f 	lw	t1,20(sp)
8010a978:	80100300 	sll	v0,v1,0x2
8010a97c:	21104300 	addu	v0,v0,v1
8010a980:	10680000 	mfhi	t5
8010a984:	03140200 	sra	v0,v0,0x10
8010a988:	23482201 	subu	t1,t1,v0
8010a98c:	18002a01 	mult	t1,t2
8010a990:	1800a38f 	lw	v1,24(sp)
8010a994:	10700000 	mfhi	t6
8010a998:	23187000 	subu	v1,v1,s0
8010a99c:	00000000 	nop
8010a9a0:	18006a00 	mult	v1,t2
8010a9a4:	2000a58f 	lw	a1,32(sp)
8010a9a8:	10880000 	mfhi	s1
8010a9ac:	2328b000 	subu	a1,a1,s0
8010a9b0:	00000000 	nop
8010a9b4:	1800aa00 	mult	a1,t2
8010a9b8:	1c00a68f 	lw	a2,28(sp)
8010a9bc:	2400a88f 	lw	t0,36(sp)
8010a9c0:	21206002 	move	a0,s3
8010a9c4:	2000a5af 	sw	a1,32(sp)
8010a9c8:	1000a7af 	sw	a3,16(sp)
8010a9cc:	2330c200 	subu	a2,a2,v0
8010a9d0:	23400201 	subu	t0,t0,v0
8010a9d4:	c33f0700 	sra	a3,a3,0x1f
8010a9d8:	1c00a6af 	sw	a2,28(sp)
8010a9dc:	10600000 	mfhi	t4
8010a9e0:	2400a8af 	sw	t0,36(sp)
8010a9e4:	1400a9af 	sw	t1,20(sp)
8010a9e8:	1800ca00 	mult	a2,t2
8010a9ec:	1800a3af 	sw	v1,24(sp)
8010a9f0:	03120d00 	sra	v0,t5,0x8
8010a9f4:	23104700 	subu	v0,v0,a3
8010a9f8:	c34f0900 	sra	t1,t1,0x1f
8010a9fc:	2000a727 	addiu	a3,sp,32
8010aa00:	1000a2af 	sw	v0,16(sp)
8010aa04:	c31f0300 	sra	v1,v1,0x1f
8010aa08:	03121100 	sra	v0,s1,0x8
8010aa0c:	23104300 	subu	v0,v0,v1
8010aa10:	c32f0500 	sra	a1,a1,0x1f
8010aa14:	1800a2af 	sw	v0,24(sp)
8010aa18:	10580000 	mfhi	t3
8010aa1c:	03120c00 	sra	v0,t4,0x8
8010aa20:	23104500 	subu	v0,v0,a1
8010aa24:	18000a01 	mult	t0,t2
8010aa28:	2000a2af 	sw	v0,32(sp)
8010aa2c:	03120e00 	sra	v0,t6,0x8
8010aa30:	23104900 	subu	v0,v0,t1
8010aa34:	c3370600 	sra	a2,a2,0x1f
8010aa38:	1000a527 	addiu	a1,sp,16
8010aa3c:	1400a2af 	sw	v0,20(sp)
8010aa40:	03120b00 	sra	v0,t3,0x8
8010aa44:	23104600 	subu	v0,v0,a2
8010aa48:	c3470800 	sra	t0,t0,0x1f
8010aa4c:	1800a627 	addiu	a2,sp,24
8010aa50:	1c00a2af 	sw	v0,28(sp)
8010aa54:	10180000 	mfhi	v1
8010aa58:	03120300 	sra	v0,v1,0x8
8010aa5c:	23104800 	subu	v0,v0,t0
8010aa60:	2400a2af 	sw	v0,36(sp)
8010aa64:	8a4e040c 	jal	0x80113a28
8010aa68:	060080a0 	sb	zero,6(a0)
8010aa6c:	3c00bf8f 	lw	ra,60(sp)
8010aa70:	3800b48f 	lw	s4,56(sp)
8010aa74:	3400b38f 	lw	s3,52(sp)
8010aa78:	3000b28f 	lw	s2,48(sp)
8010aa7c:	2c00b18f 	lw	s1,44(sp)
8010aa80:	2800b08f 	lw	s0,40(sp)
8010aa84:	0800e003 	jr	ra
8010aa88:	4000bd27 	addiu	sp,sp,64
8010aa8c:	f8ffbd27 	addiu	sp,sp,-8
8010aa90:	0400b1af 	sw	s1,4(sp)
8010aa94:	0000b0af 	sw	s0,0(sp)
8010aa98:	0000a38c 	lw	v1,0(a1)
8010aa9c:	0400a88c 	lw	t0,4(a1)
8010aaa0:	0000c98c 	lw	t1,0(a2)
8010aaa4:	0400cc8c 	lw	t4,4(a2)
8010aaa8:	0000ea8c 	lw	t2,0(a3)
8010aaac:	0400ed8c 	lw	t5,4(a3)
8010aab0:	03008815 	bne	t4,t0,0x8010aac0
8010aab4:	2a108801 	slt	v0,t4,t0
8010aab8:	40018d11 	beq	t4,t5,0x8010afbc
8010aabc:	00000000 	nop
8010aac0:	06004010 	beqz	v0,0x8010aadc
8010aac4:	21106000 	move	v0,v1
8010aac8:	21182001 	move	v1,t1
8010aacc:	21484000 	move	t1,v0
8010aad0:	21100001 	move	v0,t0
8010aad4:	21408001 	move	t0,t4
8010aad8:	21604000 	move	t4,v0
8010aadc:	2a10a801 	slt	v0,t5,t0
8010aae0:	06004010 	beqz	v0,0x8010aafc
8010aae4:	21106000 	move	v0,v1
8010aae8:	21184001 	move	v1,t2
8010aaec:	21504000 	move	t2,v0
8010aaf0:	21100001 	move	v0,t0
8010aaf4:	2140a001 	move	t0,t5
8010aaf8:	21684000 	move	t5,v0
8010aafc:	2a10ac01 	slt	v0,t5,t4
8010ab00:	06004010 	beqz	v0,0x8010ab1c
8010ab04:	21102001 	move	v0,t1
8010ab08:	21484001 	move	t1,t2
8010ab0c:	21504000 	move	t2,v0
8010ab10:	21108001 	move	v0,t4
8010ab14:	2160a001 	move	t4,t5
8010ab18:	21684000 	move	t5,v0
8010ab1c:	23702301 	subu	t6,t1,v1
8010ab20:	23c04301 	subu	t8,t2,v1
8010ab24:	23308801 	subu	a2,t4,t0
8010ab28:	0a008815 	bne	t4,t0,0x8010ab54
8010ab2c:	2338a801 	subu	a3,t5,t0
8010ab30:	2a106900 	slt	v0,v1,t1
8010ab34:	03004010 	beqz	v0,0x8010ab44
8010ab38:	005c0300 	sll	t3,v1,0x10
8010ab3c:	ba4e0408 	j	0x80113ae8
8010ab40:	002c0900 	sll	a1,t1,0x10
8010ab44:	005c0900 	sll	t3,t1,0x10
8010ab48:	002c0300 	sll	a1,v1,0x10
8010ab4c:	ca4e0408 	j	0x80113b28
8010ab50:	21780000 	move	t7,zero
8010ab54:	002c0300 	sll	a1,v1,0x10
8010ab58:	2158a000 	move	t3,a1
8010ab5c:	00140e00 	sll	v0,t6,0x10
8010ab60:	1a004600 	div	zero,v0,a2
8010ab64:	0200c014 	bnez	a2,0x8010ab70
8010ab68:	00000000 	nop
8010ab6c:	0d000700 	break	0x7
8010ab70:	ffff0124 	li	at,-1
8010ab74:	0400c114 	bne	a2,at,0x8010ab88
8010ab78:	0080013c 	lui	at,0x8000
8010ab7c:	02004114 	bne	v0,at,0x8010ab88
8010ab80:	00000000 	nop
8010ab84:	0d000600 	break	0x6
8010ab88:	12780000 	mflo	t7
8010ab8c:	0100023c 	lui	v0,0x1
8010ab90:	03008d15 	bne	t4,t5,0x8010aba0
8010ab94:	2128a200 	addu	a1,a1,v0
8010ab98:	dd4e0408 	j	0x80113b74
8010ab9c:	21c80000 	move	t9,zero
8010aba0:	23104901 	subu	v0,t2,t1
8010aba4:	00140200 	sll	v0,v0,0x10
8010aba8:	2318ac01 	subu	v1,t5,t4
8010abac:	1a004300 	div	zero,v0,v1
8010abb0:	02006014 	bnez	v1,0x8010abbc
8010abb4:	00000000 	nop
8010abb8:	0d000700 	break	0x7
8010abbc:	ffff0124 	li	at,-1
8010abc0:	04006114 	bne	v1,at,0x8010abd4
8010abc4:	0080013c 	lui	at,0x8000
8010abc8:	02004114 	bne	v0,at,0x8010abd4
8010abcc:	00000000 	nop
8010abd0:	0d000600 	break	0x6
8010abd4:	12c80000 	mflo	t9
8010abd8:	23100700 	negu	v0,a3
8010abdc:	00000000 	nop
8010abe0:	18004e00 	mult	v0,t6
8010abe4:	12180000 	mflo	v1
	...
8010abf0:	18000603 	mult	t8,a2
8010abf4:	12480000 	mflo	t1
8010abf8:	00141800 	sll	v0,t8,0x10
8010abfc:	21186900 	addu	v1,v1,t1
8010ac00:	1a004700 	div	zero,v0,a3
8010ac04:	0200e014 	bnez	a3,0x8010ac10
8010ac08:	00000000 	nop
8010ac0c:	0d000700 	break	0x7
8010ac10:	ffff0124 	li	at,-1
8010ac14:	0400e114 	bne	a3,at,0x8010ac28
8010ac18:	0080013c 	lui	at,0x8000
8010ac1c:	02004114 	bne	v0,at,0x8010ac28
8010ac20:	00000000 	nop
8010ac24:	0d000600 	break	0x6
8010ac28:	12700000 	mflo	t6
8010ac2c:	73006018 	blez	v1,0x8010adfc
8010ac30:	21480001 	move	t1,t0
8010ac34:	2a102c01 	slt	v0,t1,t4
8010ac38:	36004010 	beqz	v0,0x8010ad14
8010ac3c:	0f80023c 	lui	v0,0x800f
8010ac40:	58cf5024 	addiu	s0,v0,-12456
8010ac44:	ffff1824 	li	t8,-1
8010ac48:	03540500 	sra	t2,a1,0x10
8010ac4c:	2c002005 	bltz	t1,0x8010ad00
8010ac50:	033c0b00 	sra	a3,t3,0x10
8010ac54:	0a008684 	lh	a2,10(a0)
8010ac58:	00000000 	nop
8010ac5c:	2a102601 	slt	v0,t1,a2
8010ac60:	27004010 	beqz	v0,0x8010ad00
8010ac64:	00000000 	nop
8010ac68:	08008384 	lh	v1,8(a0)
8010ac6c:	00000000 	nop
8010ac70:	2a104301 	slt	v0,t2,v1
8010ac74:	02004014 	bnez	v0,0x8010ac80
8010ac78:	2140e000 	move	t0,a3
8010ac7c:	ffff6a24 	addiu	t2,v1,-1
8010ac80:	03000105 	bgez	t0,0x8010ac90
8010ac84:	18000601 	mult	t0,a2
8010ac88:	21400000 	move	t0,zero
8010ac8c:	18000601 	mult	t0,a2
8010ac90:	2000078e 	lw	a3,32(s0)
8010ac94:	00000000 	nop
8010ac98:	0400e724 	addiu	a3,a3,4
8010ac9c:	12880000 	mflo	s1
8010aca0:	224f0408 	j	0x80113c88
8010aca4:	21102902 	addu	v0,s1,t1
8010aca8:	0000e284 	lh	v0,0(a3)
8010acac:	00000000 	nop
8010acb0:	0c005810 	beq	v0,t8,0x8010ace4
8010acb4:	00000000 	nop
8010acb8:	06008390 	lbu	v1,6(a0)
8010acbc:	00000000 	nop
8010acc0:	ff006630 	andi	a2,v1,0xff
8010acc4:	fe00c22c 	sltiu	v0,a2,254
8010acc8:	06004010 	beqz	v0,0x8010ace4
8010accc:	01006224 	addiu	v0,v1,1
8010acd0:	060082a0 	sb	v0,6(a0)
8010acd4:	40100600 	sll	v0,a2,0x1
8010acd8:	0000e394 	lhu	v1,0(a3)
8010acdc:	21108200 	addu	v0,a0,v0
8010ace0:	100043a4 	sh	v1,16(v0)
8010ace4:	0a008284 	lh	v0,10(a0)
8010ace8:	01000825 	addiu	t0,t0,1
8010acec:	40100200 	sll	v0,v0,0x1
8010acf0:	2138e200 	addu	a3,a3,v0
8010acf4:	2a104801 	slt	v0,t2,t0
8010acf8:	ebff4010 	beqz	v0,0x8010aca8
8010acfc:	00000000 	nop
8010ad00:	21586f01 	addu	t3,t3,t7
8010ad04:	01002925 	addiu	t1,t1,1
8010ad08:	2a102c01 	slt	v0,t1,t4
8010ad0c:	ceff4014 	bnez	v0,0x8010ac48
8010ad10:	2128ae00 	addu	a1,a1,t6
8010ad14:	2a10a901 	slt	v0,t5,t1
8010ad18:	a8004014 	bnez	v0,0x8010afbc
8010ad1c:	0f80023c 	lui	v0,0x800f
8010ad20:	58cf4f24 	addiu	t7,v0,-12456
8010ad24:	ffff0c24 	li	t4,-1
8010ad28:	03540500 	sra	t2,a1,0x10
8010ad2c:	2c002005 	bltz	t1,0x8010ade0
8010ad30:	033c0b00 	sra	a3,t3,0x10
8010ad34:	0a008684 	lh	a2,10(a0)
8010ad38:	00000000 	nop
8010ad3c:	2a102601 	slt	v0,t1,a2
8010ad40:	27004010 	beqz	v0,0x8010ade0
8010ad44:	00000000 	nop
8010ad48:	08008384 	lh	v1,8(a0)
8010ad4c:	00000000 	nop
8010ad50:	2a104301 	slt	v0,t2,v1
8010ad54:	02004014 	bnez	v0,0x8010ad60
8010ad58:	2140e000 	move	t0,a3
8010ad5c:	ffff6a24 	addiu	t2,v1,-1
8010ad60:	03000105 	bgez	t0,0x8010ad70
8010ad64:	18000601 	mult	t0,a2
8010ad68:	21400000 	move	t0,zero
8010ad6c:	18000601 	mult	t0,a2
8010ad70:	2000e78d 	lw	a3,32(t7)
8010ad74:	00000000 	nop
8010ad78:	0400e724 	addiu	a3,a3,4
8010ad7c:	12880000 	mflo	s1
8010ad80:	5a4f0408 	j	0x80113d68
8010ad84:	21102902 	addu	v0,s1,t1
8010ad88:	0000e284 	lh	v0,0(a3)
8010ad8c:	00000000 	nop
8010ad90:	0c004c10 	beq	v0,t4,0x8010adc4
8010ad94:	00000000 	nop
8010ad98:	06008390 	lbu	v1,6(a0)
8010ad9c:	00000000 	nop
8010ada0:	ff006630 	andi	a2,v1,0xff
8010ada4:	fe00c22c 	sltiu	v0,a2,254
8010ada8:	06004010 	beqz	v0,0x8010adc4
8010adac:	01006224 	addiu	v0,v1,1
8010adb0:	060082a0 	sb	v0,6(a0)
8010adb4:	40100600 	sll	v0,a2,0x1
8010adb8:	0000e394 	lhu	v1,0(a3)
8010adbc:	21108200 	addu	v0,a0,v0
8010adc0:	100043a4 	sh	v1,16(v0)
8010adc4:	0a008284 	lh	v0,10(a0)
8010adc8:	01000825 	addiu	t0,t0,1
8010adcc:	40100200 	sll	v0,v0,0x1
8010add0:	2138e200 	addu	a3,a3,v0
8010add4:	2a104801 	slt	v0,t2,t0
8010add8:	ebff4010 	beqz	v0,0x8010ad88
8010addc:	00000000 	nop
8010ade0:	21587901 	addu	t3,t3,t9
8010ade4:	01002925 	addiu	t1,t1,1
8010ade8:	2a10a901 	slt	v0,t5,t1
8010adec:	ceff4010 	beqz	v0,0x8010ad28
8010adf0:	2128ae00 	addu	a1,a1,t6
8010adf4:	d64f0408 	j	0x80113f58
8010adf8:	00000000 	nop
8010adfc:	2a102c01 	slt	v0,t1,t4
8010ae00:	36004010 	beqz	v0,0x8010aedc
8010ae04:	0f80023c 	lui	v0,0x800f
8010ae08:	58cf5024 	addiu	s0,v0,-12456
8010ae0c:	ffff1824 	li	t8,-1
8010ae10:	03540500 	sra	t2,a1,0x10
8010ae14:	2c002005 	bltz	t1,0x8010aec8
8010ae18:	033c0b00 	sra	a3,t3,0x10
8010ae1c:	0a008684 	lh	a2,10(a0)
8010ae20:	00000000 	nop
8010ae24:	2a102601 	slt	v0,t1,a2
8010ae28:	27004010 	beqz	v0,0x8010aec8
8010ae2c:	00000000 	nop
8010ae30:	08008384 	lh	v1,8(a0)
8010ae34:	00000000 	nop
8010ae38:	2a104301 	slt	v0,t2,v1
8010ae3c:	02004014 	bnez	v0,0x8010ae48
8010ae40:	2140e000 	move	t0,a3
8010ae44:	ffff6a24 	addiu	t2,v1,-1
8010ae48:	03000105 	bgez	t0,0x8010ae58
8010ae4c:	18000601 	mult	t0,a2
8010ae50:	21400000 	move	t0,zero
8010ae54:	18000601 	mult	t0,a2
8010ae58:	2000078e 	lw	a3,32(s0)
8010ae5c:	00000000 	nop
8010ae60:	0400e724 	addiu	a3,a3,4
8010ae64:	12880000 	mflo	s1
8010ae68:	944f0408 	j	0x80113e50
8010ae6c:	21102902 	addu	v0,s1,t1
8010ae70:	0000e284 	lh	v0,0(a3)
8010ae74:	00000000 	nop
8010ae78:	0c005810 	beq	v0,t8,0x8010aeac
8010ae7c:	00000000 	nop
8010ae80:	06008390 	lbu	v1,6(a0)
8010ae84:	00000000 	nop
8010ae88:	ff006630 	andi	a2,v1,0xff
8010ae8c:	fe00c22c 	sltiu	v0,a2,254
8010ae90:	06004010 	beqz	v0,0x8010aeac
8010ae94:	01006224 	addiu	v0,v1,1
8010ae98:	060082a0 	sb	v0,6(a0)
8010ae9c:	40100600 	sll	v0,a2,0x1
8010aea0:	0000e394 	lhu	v1,0(a3)
8010aea4:	21108200 	addu	v0,a0,v0
8010aea8:	100043a4 	sh	v1,16(v0)
8010aeac:	0a008284 	lh	v0,10(a0)
8010aeb0:	01000825 	addiu	t0,t0,1
8010aeb4:	40100200 	sll	v0,v0,0x1
8010aeb8:	2138e200 	addu	a3,a3,v0
8010aebc:	2a104801 	slt	v0,t2,t0
8010aec0:	ebff4010 	beqz	v0,0x8010ae70
8010aec4:	00000000 	nop
8010aec8:	2128af00 	addu	a1,a1,t7
8010aecc:	01002925 	addiu	t1,t1,1
8010aed0:	2a102c01 	slt	v0,t1,t4
8010aed4:	ceff4014 	bnez	v0,0x8010ae10
8010aed8:	21586e01 	addu	t3,t3,t6
8010aedc:	2a10a901 	slt	v0,t5,t1
8010aee0:	36004014 	bnez	v0,0x8010afbc
8010aee4:	0f80023c 	lui	v0,0x800f
8010aee8:	58cf4f24 	addiu	t7,v0,-12456
8010aeec:	ffff0c24 	li	t4,-1
8010aef0:	03540500 	sra	t2,a1,0x10
8010aef4:	2c002005 	bltz	t1,0x8010afa8
8010aef8:	033c0b00 	sra	a3,t3,0x10
8010aefc:	0a008684 	lh	a2,10(a0)
8010af00:	00000000 	nop
8010af04:	2a102601 	slt	v0,t1,a2
8010af08:	27004010 	beqz	v0,0x8010afa8
8010af0c:	00000000 	nop
8010af10:	08008384 	lh	v1,8(a0)
8010af14:	00000000 	nop
8010af18:	2a104301 	slt	v0,t2,v1
8010af1c:	02004014 	bnez	v0,0x8010af28
8010af20:	2140e000 	move	t0,a3
8010af24:	ffff6a24 	addiu	t2,v1,-1
8010af28:	03000105 	bgez	t0,0x8010af38
8010af2c:	18000601 	mult	t0,a2
8010af30:	21400000 	move	t0,zero
8010af34:	18000601 	mult	t0,a2
8010af38:	2000e78d 	lw	a3,32(t7)
8010af3c:	00000000 	nop
8010af40:	0400e724 	addiu	a3,a3,4
8010af44:	12880000 	mflo	s1
8010af48:	cc4f0408 	j	0x80113f30
8010af4c:	21102902 	addu	v0,s1,t1
8010af50:	0000e284 	lh	v0,0(a3)
8010af54:	00000000 	nop
8010af58:	0c004c10 	beq	v0,t4,0x8010af8c
8010af5c:	00000000 	nop
8010af60:	06008390 	lbu	v1,6(a0)
8010af64:	00000000 	nop
8010af68:	ff006630 	andi	a2,v1,0xff
8010af6c:	fe00c22c 	sltiu	v0,a2,254
8010af70:	06004010 	beqz	v0,0x8010af8c
8010af74:	01006224 	addiu	v0,v1,1
8010af78:	060082a0 	sb	v0,6(a0)
8010af7c:	40100600 	sll	v0,a2,0x1
8010af80:	0000e394 	lhu	v1,0(a3)
8010af84:	21108200 	addu	v0,a0,v0
8010af88:	100043a4 	sh	v1,16(v0)
8010af8c:	0a008284 	lh	v0,10(a0)
8010af90:	01000825 	addiu	t0,t0,1
8010af94:	40100200 	sll	v0,v0,0x1
8010af98:	2138e200 	addu	a3,a3,v0
8010af9c:	2a104801 	slt	v0,t2,t0
8010afa0:	ebff4010 	beqz	v0,0x8010af50
8010afa4:	00000000 	nop
8010afa8:	21586e01 	addu	t3,t3,t6
8010afac:	01002925 	addiu	t1,t1,1
8010afb0:	2a10a901 	slt	v0,t5,t1
8010afb4:	ceff4010 	beqz	v0,0x8010aef0
8010afb8:	2128b900 	addu	a1,a1,t9
8010afbc:	0400b18f 	lw	s1,4(sp)
8010afc0:	0000b08f 	lw	s0,0(sp)
8010afc4:	0800e003 	jr	ra
8010afc8:	0800bd27 	addiu	sp,sp,8
8010afcc:	0f80023c 	lui	v0,0x800f
8010afd0:	78cf428c 	lw	v0,-12424(v0)
8010afd4:	00000000 	nop
8010afd8:	0c0082ac 	sw	v0,12(a0)
8010afdc:	00004394 	lhu	v1,0(v0)
8010afe0:	00000000 	nop
8010afe4:	080083a4 	sh	v1,8(a0)
8010afe8:	02004294 	lhu	v0,2(v0)
8010afec:	070080a0 	sb	zero,7(a0)
8010aff0:	0800e003 	jr	ra
8010aff4:	0a0082a4 	sh	v0,10(a0)
8010aff8:	21388000 	move	a3,a0
8010affc:	0f80023c 	lui	v0,0x800f
8010b000:	01000824 	li	t0,1
8010b004:	0000e390 	lbu	v1,0(a3)
8010b008:	84cf458c 	lw	a1,-12412(v0)
8010b00c:	3b006810 	beq	v1,t0,0x8010b0fc
8010b010:	f8ffbd27 	addiu	sp,sp,-8
8010b014:	02006228 	slti	v0,v1,2
8010b018:	7c004010 	beqz	v0,0x8010b20c
8010b01c:	00000000 	nop
8010b020:	7a006014 	bnez	v1,0x8010b20c
8010b024:	e338063c 	lui	a2,0x38e3
8010b028:	0000e8a0 	sb	t0,0(a3)
8010b02c:	0300e0a0 	sb	zero,3(a3)
8010b030:	0000a294 	lhu	v0,0(a1)
8010b034:	00000000 	nop
8010b038:	0400e2a4 	sh	v0,4(a3)
8010b03c:	0200a294 	lhu	v0,2(a1)
8010b040:	00000000 	nop
8010b044:	0600e2a4 	sh	v0,6(a3)
8010b048:	0400a294 	lhu	v0,4(a1)
8010b04c:	00000000 	nop
8010b050:	0800e2a4 	sh	v0,8(a3)
8010b054:	0600a294 	lhu	v0,6(a1)
8010b058:	00000000 	nop
8010b05c:	0a00e2a4 	sh	v0,10(a3)
8010b060:	0800a294 	lhu	v0,8(a1)
8010b064:	00000000 	nop
8010b068:	0c00e2a4 	sh	v0,12(a3)
8010b06c:	0a00a294 	lhu	v0,10(a1)
8010b070:	00000000 	nop
8010b074:	0e00e2a4 	sh	v0,14(a3)
8010b078:	0c00a290 	lbu	v0,12(a1)
8010b07c:	00000000 	nop
8010b080:	1000e2a0 	sb	v0,16(a3)
8010b084:	0d00a290 	lbu	v0,13(a1)
8010b088:	00000000 	nop
8010b08c:	1100e2a0 	sb	v0,17(a3)
8010b090:	ff004330 	andi	v1,v0,0xff
8010b094:	e8080224 	li	v0,2280
8010b098:	18006200 	mult	v1,v0
8010b09c:	398ec634 	ori	a2,a2,0x8e39
8010b0a0:	0e00a394 	lhu	v1,14(a1)
8010b0a4:	1000a494 	lhu	a0,16(a1)
8010b0a8:	1400a524 	addiu	a1,a1,20
8010b0ac:	80020224 	li	v0,640
8010b0b0:	12500000 	mflo	t2
8010b0b4:	2c00e2a4 	sh	v0,44(a3)
8010b0b8:	3000e2a4 	sh	v0,48(a3)
8010b0bc:	18004601 	mult	t2,a2
8010b0c0:	e8080224 	li	v0,2280
8010b0c4:	1800e5ac 	sw	a1,24(a3)
8010b0c8:	2e00e2a4 	sh	v0,46(a3)
8010b0cc:	3800e8a0 	sb	t0,56(a3)
8010b0d0:	ffff8430 	andi	a0,a0,0xffff
8010b0d4:	2128a400 	addu	a1,a1,a0
8010b0d8:	ffff6330 	andi	v1,v1,0xffff
8010b0dc:	2118a300 	addu	v1,a1,v1
8010b0e0:	1c00e3ac 	sw	v1,28(a3)
8010b0e4:	1400e5ac 	sw	a1,20(a3)
8010b0e8:	3400e3ac 	sw	v1,52(a3)
8010b0ec:	10300000 	mfhi	a2
8010b0f0:	43110600 	sra	v0,a2,0x5
8010b0f4:	6a500408 	j	0x801141a8
8010b0f8:	3200e2a4 	sh	v0,50(a3)
8010b0fc:	801f023c 	lui	v0,0x1f80
8010b100:	f2004384 	lh	v1,242(v0)
8010b104:	2c00e294 	lhu	v0,44(a3)
8010b108:	00000000 	nop
8010b10c:	18006200 	mult	v1,v0
8010b110:	40014224 	addiu	v0,v0,320
8010b114:	43100200 	sra	v0,v0,0x1
8010b118:	12480000 	mflo	t1
8010b11c:	031b0900 	sra	v1,t1,0xc
8010b120:	23284300 	subu	a1,v0,v1
8010b124:	0700a104 	bgez	a1,0x8010b144
8010b128:	00000000 	nop
8010b12c:	3000e294 	lhu	v0,48(a3)
8010b130:	00000000 	nop
8010b134:	2128a200 	addu	a1,a1,v0
8010b138:	ffffa004 	bltz	a1,0x8010b138
8010b13c:	2128a200 	addu	a1,a1,v0
8010b140:	2328a200 	subu	a1,a1,v0
8010b144:	3000e394 	lhu	v1,48(a3)
8010b148:	00000000 	nop
8010b14c:	2a10a300 	slt	v0,a1,v1
8010b150:	07004014 	bnez	v0,0x8010b170
8010b154:	801f023c 	lui	v0,0x1f80
8010b158:	2328a300 	subu	a1,a1,v1
8010b15c:	2a10a300 	slt	v0,a1,v1
8010b160:	feff4010 	beqz	v0,0x8010b15c
8010b164:	2328a300 	subu	a1,a1,v1
8010b168:	2128a300 	addu	a1,a1,v1
8010b16c:	801f023c 	lui	v0,0x1f80
8010b170:	f0004384 	lh	v1,240(v0)
8010b174:	2e00e294 	lhu	v0,46(a3)
8010b178:	00000000 	nop
8010b17c:	18006200 	mult	v1,v0
8010b180:	1100e290 	lbu	v0,17(a3)
8010b184:	00000000 	nop
8010b188:	c0100200 	sll	v0,v0,0x3
8010b18c:	12480000 	mflo	t1
8010b190:	031b0900 	sra	v1,t1,0xc
8010b194:	21186200 	addu	v1,v1,v0
8010b198:	e0ff6324 	addiu	v1,v1,-32
8010b19c:	07006104 	bgez	v1,0x8010b1bc
8010b1a0:	00000000 	nop
8010b1a4:	3200e294 	lhu	v0,50(a3)
8010b1a8:	00000000 	nop
8010b1ac:	21186200 	addu	v1,v1,v0
8010b1b0:	ffff6004 	bltz	v1,0x8010b1b0
8010b1b4:	21186200 	addu	v1,v1,v0
8010b1b8:	23186200 	subu	v1,v1,v0
8010b1bc:	3200e494 	lhu	a0,50(a3)
8010b1c0:	00000000 	nop
8010b1c4:	2a106400 	slt	v0,v1,a0
8010b1c8:	06004014 	bnez	v0,0x8010b1e4
8010b1cc:	00000000 	nop
8010b1d0:	23186400 	subu	v1,v1,a0
8010b1d4:	2a106400 	slt	v0,v1,a0
8010b1d8:	feff4010 	beqz	v0,0x8010b1d4
8010b1dc:	23186400 	subu	v1,v1,a0
8010b1e0:	21186400 	addu	v1,v1,a0
8010b1e4:	3800e290 	lbu	v0,56(a3)
8010b1e8:	00000000 	nop
8010b1ec:	ffff4224 	addiu	v0,v0,-1
8010b1f0:	3800e2a0 	sb	v0,56(a3)
8010b1f4:	00160200 	sll	v0,v0,0x18
8010b1f8:	0200401c 	bgtz	v0,0x8010b204
8010b1fc:	01000224 	li	v0,1
8010b200:	0300e2a0 	sb	v0,3(a3)
8010b204:	2800e5a4 	sh	a1,40(a3)
8010b208:	2a00e3a4 	sh	v1,42(a3)
8010b20c:	0800e003 	jr	ra
8010b210:	0800bd27 	addiu	sp,sp,8
8010b214:	b0ffbd27 	addiu	sp,sp,-80
8010b218:	21608000 	move	t4,a0
8010b21c:	4c00bfaf 	sw	ra,76(sp)
8010b220:	4800beaf 	sw	s8,72(sp)
8010b224:	4400b7af 	sw	s7,68(sp)
8010b228:	4000b6af 	sw	s6,64(sp)
8010b22c:	3c00b5af 	sw	s5,60(sp)
8010b230:	3800b4af 	sw	s4,56(sp)
8010b234:	3400b3af 	sw	s3,52(sp)
8010b238:	3000b2af 	sw	s2,48(sp)
8010b23c:	2c00b1af 	sw	s1,44(sp)
8010b240:	2800b0af 	sw	s0,40(sp)
8010b244:	10008391 	lbu	v1,16(t4)
8010b248:	00000000 	nop
8010b24c:	40800300 	sll	s0,v1,0x1
8010b250:	11008391 	lbu	v1,17(t4)
8010b254:	00000000 	nop
8010b258:	18000302 	mult	s0,v1
8010b25c:	21900000 	move	s2,zero
8010b260:	28008695 	lhu	a2,40(t4)
8010b264:	2a008595 	lhu	a1,42(t4)
8010b268:	60ffd524 	addiu	s5,a2,-160
8010b26c:	88ffa424 	addiu	a0,a1,-120
8010b270:	00140400 	sll	v0,a0,0x10
8010b274:	03150200 	sra	v0,v0,0x14
8010b278:	21504000 	move	t2,v0
8010b27c:	12980000 	mflo	s3
8010b280:	08004104 	bgez	v0,0x8010b2a4
8010b284:	21a08000 	move	s4,a0
8010b288:	11008391 	lbu	v1,17(t4)
8010b28c:	00000000 	nop
8010b290:	21104301 	addu	v0,t2,v1
8010b294:	21504000 	move	t2,v0
8010b298:	00140200 	sll	v0,v0,0x10
8010b29c:	fdff4004 	bltz	v0,0x8010b294
8010b2a0:	21104301 	addu	v0,t2,v1
8010b2a4:	00140a00 	sll	v0,t2,0x10
8010b2a8:	11008391 	lbu	v1,17(t4)
8010b2ac:	03140200 	sra	v0,v0,0x10
8010b2b0:	2a104300 	slt	v0,v0,v1
8010b2b4:	0b004014 	bnez	v0,0x8010b2e4
8010b2b8:	23100600 	negu	v0,a2
8010b2bc:	11008491 	lbu	a0,17(t4)
8010b2c0:	00000000 	nop
8010b2c4:	23104401 	subu	v0,t2,a0
8010b2c8:	21504000 	move	t2,v0
8010b2cc:	00140200 	sll	v0,v0,0x10
8010b2d0:	03140200 	sra	v0,v0,0x10
8010b2d4:	2a104300 	slt	v0,v0,v1
8010b2d8:	fbff4010 	beqz	v0,0x8010b2c8
8010b2dc:	23104401 	subu	v0,t2,a0
8010b2e0:	23100600 	negu	v0,a2
8010b2e4:	98004624 	addiu	a2,v0,152
8010b2e8:	23100500 	negu	v0,a1
8010b2ec:	70004524 	addiu	a1,v0,112
8010b2f0:	00140a00 	sll	v0,t2,0x10
8010b2f4:	03140200 	sra	v0,v0,0x10
8010b2f8:	18005000 	mult	v0,s0
8010b2fc:	001c1500 	sll	v1,s5,0x10
8010b300:	031d0300 	sra	v1,v1,0x14
8010b304:	12500000 	mflo	t2
8010b308:	08006104 	bgez	v1,0x8010b32c
8010b30c:	21586000 	move	t3,v1
8010b310:	10008391 	lbu	v1,16(t4)
8010b314:	00000000 	nop
8010b318:	21106301 	addu	v0,t3,v1
8010b31c:	21584000 	move	t3,v0
8010b320:	00140200 	sll	v0,v0,0x10
8010b324:	fdff4004 	bltz	v0,0x8010b31c
8010b328:	21106301 	addu	v0,t3,v1
8010b32c:	00140b00 	sll	v0,t3,0x10
8010b330:	10008391 	lbu	v1,16(t4)
8010b334:	03140200 	sra	v0,v0,0x10
8010b338:	2a104300 	slt	v0,v0,v1
8010b33c:	0a004014 	bnez	v0,0x8010b368
8010b340:	00000000 	nop
8010b344:	10008491 	lbu	a0,16(t4)
8010b348:	00000000 	nop
8010b34c:	23106401 	subu	v0,t3,a0
8010b350:	21584000 	move	t3,v0
8010b354:	00140200 	sll	v0,v0,0x10
8010b358:	03140200 	sra	v0,v0,0x10
8010b35c:	2a104300 	slt	v0,v0,v1
8010b360:	fbff4010 	beqz	v0,0x8010b350
8010b364:	23106401 	subu	v0,t3,a0
8010b368:	40580b00 	sll	t3,t3,0x1
8010b36c:	0c80023c 	lui	v0,0x800c
8010b370:	44f5518c 	lw	s1,-2748(v0)
8010b374:	21c08002 	move	t8,s4
8010b378:	01000224 	li	v0,1
8010b37c:	53004010 	beqz	v0,0x8010b4cc
8010b380:	21f02002 	move	s8,s1
8010b384:	00140500 	sll	v0,a1,0x10
8010b388:	03bc0200 	sra	s7,v0,0x10
8010b38c:	01001624 	li	s6,1
8010b390:	00140600 	sll	v0,a2,0x10
8010b394:	03cc0200 	sra	t9,v0,0x10
8010b398:	21406001 	move	t0,t3
8010b39c:	2148a002 	move	t1,s5
8010b3a0:	f0ff0233 	andi	v0,t8,0xfff0
8010b3a4:	3800c012 	beqz	s6,0x8010b488
8010b3a8:	21785700 	addu	t7,v0,s7
8010b3ac:	00140a00 	sll	v0,t2,0x10
8010b3b0:	03740200 	sra	t6,v0,0x10
8010b3b4:	00140900 	sll	v0,t1,0x10
8010b3b8:	03140200 	sra	v0,v0,0x10
8010b3bc:	60014d24 	addiu	t5,v0,352
8010b3c0:	f0ff2626 	addiu	a2,s1,-16
8010b3c4:	00140800 	sll	v0,t0,0x10
8010b3c8:	02000325 	addiu	v1,t0,2
8010b3cc:	21406000 	move	t0,v1
8010b3d0:	03140200 	sra	v0,v0,0x10
8010b3d4:	2110c201 	addu	v0,t6,v0
8010b3d8:	001c0300 	sll	v1,v1,0x10
8010b3dc:	031c0300 	sra	v1,v1,0x10
8010b3e0:	1400848d 	lw	a0,20(t4)
8010b3e4:	2a187000 	slt	v1,v1,s0
8010b3e8:	21208200 	addu	a0,a0,v0
8010b3ec:	00008794 	lhu	a3,0(a0)
8010b3f0:	02006014 	bnez	v1,0x8010b3fc
8010b3f4:	21902002 	move	s2,s1
8010b3f8:	21400000 	move	t0,zero
8010b3fc:	807d053c 	lui	a1,0x7d80
8010b400:	8080a534 	ori	a1,a1,0x8080
8010b404:	10003126 	addiu	s1,s1,16
8010b408:	f0ff2231 	andi	v0,t1,0xfff0
8010b40c:	21105900 	addu	v0,v0,t9
8010b410:	ffff4230 	andi	v0,v0,0xffff
8010b414:	001c0f00 	sll	v1,t7,0x10
8010b418:	25104300 	or	v0,v0,v1
8010b41c:	00190700 	sll	v1,a3,0x4
8010b420:	f0006330 	andi	v1,v1,0xf0
8010b424:	1800c2ac 	sw	v0,24(a2)
8010b428:	f000e230 	andi	v0,a3,0xf0
8010b42c:	00120200 	sll	v0,v0,0x8
8010b430:	25186200 	or	v1,v1,v0
8010b434:	1c00c3a4 	sh	v1,28(a2)
8010b438:	10002325 	addiu	v1,t1,16
8010b43c:	21486000 	move	t1,v1
8010b440:	06008495 	lhu	a0,6(t4)
8010b444:	03000224 	li	v0,3
8010b448:	1300c2a0 	sb	v0,19(a2)
8010b44c:	7c000224 	li	v0,124
8010b450:	1400c5ac 	sw	a1,20(a2)
8010b454:	1700c2a0 	sb	v0,23(a2)
8010b458:	000fe230 	andi	v0,a3,0xf00
8010b45c:	82100200 	srl	v0,v0,0x2
8010b460:	001c0300 	sll	v1,v1,0x10
8010b464:	031c0300 	sra	v1,v1,0x10
8010b468:	2a186d00 	slt	v1,v1,t5
8010b46c:	21208200 	addu	a0,a0,v0
8010b470:	1e00c4a4 	sh	a0,30(a2)
8010b474:	1000c624 	addiu	a2,a2,16
8010b478:	0003023c 	lui	v0,0x300
8010b47c:	25102202 	or	v0,s1,v0
8010b480:	d0ff6014 	bnez	v1,0x8010b3c4
8010b484:	0000c2ac 	sw	v0,0(a2)
8010b488:	21185001 	addu	v1,t2,s0
8010b48c:	00140300 	sll	v0,v1,0x10
8010b490:	03140200 	sra	v0,v0,0x10
8010b494:	2a105300 	slt	v0,v0,s3
8010b498:	02004014 	bnez	v0,0x8010b4a4
8010b49c:	21506000 	move	t2,v1
8010b4a0:	23507300 	subu	t2,v1,s3
8010b4a4:	10000327 	addiu	v1,t8,16
8010b4a8:	21c06000 	move	t8,v1
8010b4ac:	001c0300 	sll	v1,v1,0x10
8010b4b0:	031c0300 	sra	v1,v1,0x10
8010b4b4:	00141400 	sll	v0,s4,0x10
8010b4b8:	03140200 	sra	v0,v0,0x10
8010b4bc:	00014224 	addiu	v0,v0,256
8010b4c0:	2a186200 	slt	v1,v1,v0
8010b4c4:	b5ff6014 	bnez	v1,0x8010b39c
8010b4c8:	21406001 	move	t0,t3
8010b4cc:	00ff043c 	lui	a0,0xff00
8010b4d0:	0f80103c 	lui	s0,0x800f
8010b4d4:	21280000 	move	a1,zero
8010b4d8:	2130a000 	move	a2,a1
8010b4dc:	c8d8038e 	lw	v1,-10040(s0)
8010b4e0:	0000428e 	lw	v0,0(s2)
8010b4e4:	fc1f638c 	lw	v1,8188(v1)
8010b4e8:	24104400 	and	v0,v0,a0
8010b4ec:	25104300 	or	v0,v0,v1
8010b4f0:	000042ae 	sw	v0,0(s2)
8010b4f4:	04008795 	lhu	a3,4(t4)
8010b4f8:	21202002 	move	a0,s1
8010b4fc:	780f020c 	jal	0x80083de0
8010b500:	1000a0af 	sw	zero,16(sp)
8010b504:	0002023c 	lui	v0,0x200
8010b508:	2510c203 	or	v0,s8,v0
8010b50c:	21182002 	move	v1,s1
8010b510:	000022ae 	sw	v0,0(s1)
8010b514:	c8d8028e 	lw	v0,-10040(s0)
8010b518:	0c003126 	addiu	s1,s1,12
8010b51c:	fc1f43ac 	sw	v1,8188(v0)
8010b520:	4c00bf8f 	lw	ra,76(sp)
8010b524:	4800be8f 	lw	s8,72(sp)
8010b528:	4400b78f 	lw	s7,68(sp)
8010b52c:	4000b68f 	lw	s6,64(sp)
8010b530:	3c00b58f 	lw	s5,60(sp)
8010b534:	3800b48f 	lw	s4,56(sp)
8010b538:	3400b38f 	lw	s3,52(sp)
8010b53c:	3000b28f 	lw	s2,48(sp)
8010b540:	0c80023c 	lui	v0,0x800c
8010b544:	44f551ac 	sw	s1,-2748(v0)
8010b548:	2c00b18f 	lw	s1,44(sp)
8010b54c:	2800b08f 	lw	s0,40(sp)
8010b550:	0800e003 	jr	ra
8010b554:	5000bd27 	addiu	sp,sp,80
8010b558:	e0ffbd27 	addiu	sp,sp,-32
8010b55c:	1400b1af 	sw	s1,20(sp)
8010b560:	21888000 	move	s1,a0
8010b564:	1000b0af 	sw	s0,16(sp)
8010b568:	1800bfaf 	sw	ra,24(sp)
8010b56c:	baea010c 	jal	0x8007aae8
8010b570:	2180a000 	move	s0,a1
8010b574:	21204000 	move	a0,v0
8010b578:	80101000 	sll	v0,s0,0x2
8010b57c:	21302202 	addu	a2,s1,v0
8010b580:	33008010 	beqz	a0,0x8010b650
8010b584:	c000c4ac 	sw	a0,192(a2)
8010b588:	1280033c 	lui	v1,0x8012
8010b58c:	20c16324 	addiu	v1,v1,-16096
8010b590:	c0101000 	sll	v0,s0,0x3
8010b594:	23105000 	subu	v0,v0,s0
8010b598:	40100200 	sll	v0,v0,0x1
8010b59c:	21104300 	addu	v0,v0,v1
8010b5a0:	00004394 	lhu	v1,0(v0)
8010b5a4:	00000000 	nop
8010b5a8:	060083a4 	sh	v1,6(a0)
8010b5ac:	c000c48c 	lw	a0,192(a2)
8010b5b0:	02004394 	lhu	v1,2(v0)
8010b5b4:	00000000 	nop
8010b5b8:	000083a4 	sh	v1,0(a0)
8010b5bc:	c000c48c 	lw	a0,192(a2)
8010b5c0:	04004394 	lhu	v1,4(v0)
8010b5c4:	00000000 	nop
8010b5c8:	020083a4 	sh	v1,2(a0)
8010b5cc:	c000c38c 	lw	v1,192(a2)
8010b5d0:	06004294 	lhu	v0,6(v0)
8010b5d4:	00000000 	nop
8010b5d8:	040062a4 	sh	v0,4(v1)
8010b5dc:	c000c28c 	lw	v0,192(a2)
8010b5e0:	00000000 	nop
8010b5e4:	080040a4 	sh	zero,8(v0)
8010b5e8:	c000c28c 	lw	v0,192(a2)
8010b5ec:	00000000 	nop
8010b5f0:	0a0040a4 	sh	zero,10(v0)
8010b5f4:	c000c28c 	lw	v0,192(a2)
8010b5f8:	00000000 	nop
8010b5fc:	0c0040a4 	sh	zero,12(v0)
8010b600:	c000c28c 	lw	v0,192(a2)
8010b604:	00100324 	li	v1,4096
8010b608:	380043a4 	sh	v1,56(v0)
8010b60c:	c000c28c 	lw	v0,192(a2)
8010b610:	16000524 	li	a1,22
8010b614:	3a0040a4 	sh	zero,58(v0)
8010b618:	c000c28c 	lw	v0,192(a2)
8010b61c:	01001026 	addiu	s0,s0,1
8010b620:	3c0043a4 	sh	v1,60(v0)
8010b624:	c000c48c 	lw	a0,192(a2)
8010b628:	c146010c 	jal	0x80051b04
8010b62c:	21300002 	move	a2,s0
8010b630:	91000424 	li	a0,145
8010b634:	21280000 	move	a1,zero
8010b638:	2130a000 	move	a2,a1
8010b63c:	090030a2 	sb	s0,9(s1)
8010b640:	64d1010c 	jal	0x80074590
8010b644:	080030a2 	sb	s0,8(s1)
8010b648:	7d510408 	j	0x801145f4
8010b64c:	00000000 	nop
8010b650:	03000224 	li	v0,3
8010b654:	040022a2 	sb	v0,4(s1)
8010b658:	1800bf8f 	lw	ra,24(sp)
8010b65c:	1400b18f 	lw	s1,20(sp)
8010b660:	1000b08f 	lw	s0,16(sp)
8010b664:	0800e003 	jr	ra
8010b668:	2000bd27 	addiu	sp,sp,32
8010b66c:	d0ffbd27 	addiu	sp,sp,-48
8010b670:	1800b2af 	sw	s2,24(sp)
8010b674:	21908000 	move	s2,a0
8010b678:	0e80023c 	lui	v0,0x800e
8010b67c:	1c00b3af 	sw	s3,28(sp)
8010b680:	2c00bfaf 	sw	ra,44(sp)
8010b684:	2800b6af 	sw	s6,40(sp)
8010b688:	2400b5af 	sw	s5,36(sp)
8010b68c:	2000b4af 	sw	s4,32(sp)
8010b690:	1400b1af 	sw	s1,20(sp)
8010b694:	1000b0af 	sw	s0,16(sp)
8010b698:	04004392 	lbu	v1,4(s2)
8010b69c:	01001024 	li	s0,1
8010b6a0:	2c007010 	beq	v1,s0,0x8010b754
8010b6a4:	807e5324 	addiu	s3,v0,32384
8010b6a8:	02006228 	slti	v0,v1,2
8010b6ac:	05004010 	beqz	v0,0x8010b6c4
8010b6b0:	00000000 	nop
8010b6b4:	0a006010 	beqz	v1,0x8010b6e0
8010b6b8:	801f023c 	lui	v0,0x1f80
8010b6bc:	a0520408 	j	0x80114a80
8010b6c0:	00000000 	nop
8010b6c4:	02000224 	li	v0,2
8010b6c8:	8e006210 	beq	v1,v0,0x8010b904
8010b6cc:	03000224 	li	v0,3
8010b6d0:	02016210 	beq	v1,v0,0x8010badc
8010b6d4:	00000000 	nop
8010b6d8:	a0520408 	j	0x80114a80
8010b6dc:	00000000 	nop
8010b6e0:	37014290 	lbu	v0,311(v0)
8010b6e4:	00000000 	nop
8010b6e8:	0b004014 	bnez	v0,0x8010b718
8010b6ec:	03000224 	li	v0,3
8010b6f0:	77016292 	lbu	v0,375(s3)
8010b6f4:	00000000 	nop
8010b6f8:	02004230 	andi	v0,v0,0x2
8010b6fc:	06004010 	beqz	v0,0x8010b718
8010b700:	03000224 	li	v0,3
8010b704:	7e016296 	lhu	v0,382(s3)
8010b708:	00000000 	nop
8010b70c:	00044230 	andi	v0,v0,0x400
8010b710:	03004010 	beqz	v0,0x8010b720
8010b714:	03000224 	li	v0,3
8010b718:	a0520408 	j	0x80114a80
8010b71c:	040042a2 	sb	v0,4(s2)
8010b720:	21204002 	move	a0,s2
8010b724:	21280000 	move	a1,zero
8010b728:	040050a2 	sb	s0,4(s2)
8010b72c:	0b0040a2 	sb	zero,11(s2)
8010b730:	3d51040c 	jal	0x801144f4
8010b734:	0d0040a2 	sb	zero,13(s2)
8010b738:	00100224 	li	v0,4096
8010b73c:	460050a2 	sb	s0,70(s2)
8010b740:	bc0042a6 	sh	v0,188(s2)
8010b744:	ba0042a6 	sh	v0,186(s2)
8010b748:	b80042a6 	sh	v0,184(s2)
8010b74c:	a0520408 	j	0x80114a80
8010b750:	420040a6 	sh	zero,66(s2)
8010b754:	05004392 	lbu	v1,5(s2)
8010b758:	00000000 	nop
8010b75c:	3a007010 	beq	v1,s0,0x8010b848
8010b760:	02006228 	slti	v0,v1,2
8010b764:	56004010 	beqz	v0,0x8010b8c0
8010b768:	801f023c 	lui	v0,0x1f80
8010b76c:	54006014 	bnez	v1,0x8010b8c0
8010b770:	00000000 	nop
8010b774:	46004292 	lbu	v0,70(s2)
8010b778:	00000000 	nop
8010b77c:	ffff4224 	addiu	v0,v0,-1
8010b780:	80100200 	sll	v0,v0,0x2
8010b784:	21104202 	addu	v0,s2,v0
8010b788:	c000438c 	lw	v1,192(v0)
8010b78c:	00000000 	nop
8010b790:	3a006294 	lhu	v0,58(v1)
8010b794:	00000000 	nop
8010b798:	00084224 	addiu	v0,v0,2048
8010b79c:	3a0062a4 	sh	v0,58(v1)
8010b7a0:	46004292 	lbu	v0,70(s2)
8010b7a4:	00000000 	nop
8010b7a8:	ffff4224 	addiu	v0,v0,-1
8010b7ac:	80100200 	sll	v0,v0,0x2
8010b7b0:	21104202 	addu	v0,s2,v0
8010b7b4:	c000438c 	lw	v1,192(v0)
8010b7b8:	00000000 	nop
8010b7bc:	3a006294 	lhu	v0,58(v1)
8010b7c0:	00000000 	nop
8010b7c4:	0010422c 	sltiu	v0,v0,4096
8010b7c8:	02004014 	bnez	v0,0x8010b7d4
8010b7cc:	00100224 	li	v0,4096
8010b7d0:	3a0062a4 	sh	v0,58(v1)
8010b7d4:	42004296 	lhu	v0,66(s2)
8010b7d8:	46004492 	lbu	a0,70(s2)
8010b7dc:	01004224 	addiu	v0,v0,1
8010b7e0:	420042a6 	sh	v0,66(s2)
8010b7e4:	00140200 	sll	v0,v0,0x10
8010b7e8:	03140200 	sra	v0,v0,0x10
8010b7ec:	40180400 	sll	v1,a0,0x1
8010b7f0:	2a104300 	slt	v0,v0,v1
8010b7f4:	32004014 	bnez	v0,0x8010b8c0
8010b7f8:	801f023c 	lui	v0,0x1f80
8010b7fc:	ffff8224 	addiu	v0,a0,-1
8010b800:	80100200 	sll	v0,v0,0x2
8010b804:	21104202 	addu	v0,s2,v0
8010b808:	c000438c 	lw	v1,192(v0)
8010b80c:	00100224 	li	v0,4096
8010b810:	3a0062a4 	sh	v0,58(v1)
8010b814:	46004592 	lbu	a1,70(s2)
8010b818:	3d51040c 	jal	0x801144f4
8010b81c:	21204002 	move	a0,s2
8010b820:	46004292 	lbu	v0,70(s2)
8010b824:	00000000 	nop
8010b828:	01004224 	addiu	v0,v0,1
8010b82c:	460042a2 	sb	v0,70(s2)
8010b830:	ff004230 	andi	v0,v0,0xff
8010b834:	0400422c 	sltiu	v0,v0,4
8010b838:	21004014 	bnez	v0,0x8010b8c0
8010b83c:	801f023c 	lui	v0,0x1f80
8010b840:	12520408 	j	0x80114848
8010b844:	00000000 	nop
8010b848:	46004292 	lbu	v0,70(s2)
8010b84c:	00000000 	nop
8010b850:	ffff4224 	addiu	v0,v0,-1
8010b854:	80100200 	sll	v0,v0,0x2
8010b858:	21104202 	addu	v0,s2,v0
8010b85c:	c000438c 	lw	v1,192(v0)
8010b860:	00000000 	nop
8010b864:	3a006294 	lhu	v0,58(v1)
8010b868:	00000000 	nop
8010b86c:	00084224 	addiu	v0,v0,2048
8010b870:	3a0062a4 	sh	v0,58(v1)
8010b874:	46004292 	lbu	v0,70(s2)
8010b878:	00000000 	nop
8010b87c:	ffff4224 	addiu	v0,v0,-1
8010b880:	80100200 	sll	v0,v0,0x2
8010b884:	21104202 	addu	v0,s2,v0
8010b888:	c000438c 	lw	v1,192(v0)
8010b88c:	00000000 	nop
8010b890:	3a006294 	lhu	v0,58(v1)
8010b894:	00000000 	nop
8010b898:	0010422c 	sltiu	v0,v0,4096
8010b89c:	08004014 	bnez	v0,0x8010b8c0
8010b8a0:	801f023c 	lui	v0,0x1f80
8010b8a4:	00100224 	li	v0,4096
8010b8a8:	3a0062a4 	sh	v0,58(v1)
8010b8ac:	05004292 	lbu	v0,5(s2)
8010b8b0:	00000000 	nop
8010b8b4:	01004224 	addiu	v0,v0,1
8010b8b8:	050042a2 	sb	v0,5(s2)
8010b8bc:	801f023c 	lui	v0,0x1f80
8010b8c0:	37014290 	lbu	v0,311(v0)
8010b8c4:	00000000 	nop
8010b8c8:	0b004014 	bnez	v0,0x8010b8f8
8010b8cc:	02000224 	li	v0,2
8010b8d0:	77016292 	lbu	v0,375(s3)
8010b8d4:	00000000 	nop
8010b8d8:	02004230 	andi	v0,v0,0x2
8010b8dc:	06004010 	beqz	v0,0x8010b8f8
8010b8e0:	02000224 	li	v0,2
8010b8e4:	7e016296 	lhu	v0,382(s3)
8010b8e8:	00000000 	nop
8010b8ec:	00044230 	andi	v0,v0,0x400
8010b8f0:	64004010 	beqz	v0,0x8010ba84
8010b8f4:	02000224 	li	v0,2
8010b8f8:	040042a2 	sb	v0,4(s2)
8010b8fc:	88520408 	j	0x80114a20
8010b900:	050040a2 	sb	zero,5(s2)
8010b904:	05004292 	lbu	v0,5(s2)
8010b908:	00000000 	nop
8010b90c:	05004010 	beqz	v0,0x8010b924
8010b910:	2d000424 	li	a0,45
8010b914:	50005010 	beq	v0,s0,0x8010ba58
8010b918:	00000000 	nop
8010b91c:	88520408 	j	0x80114a20
8010b920:	00000000 	nop
8010b924:	0b000524 	li	a1,11
8010b928:	64d1010c 	jal	0x80074590
8010b92c:	ceff0624 	li	a2,-50
8010b930:	46004292 	lbu	v0,70(s2)
8010b934:	21800000 	move	s0,zero
8010b938:	ffff5524 	addiu	s5,v0,-1
8010b93c:	80101500 	sll	v0,s5,0x2
8010b940:	21104202 	addu	v0,s2,v0
8010b944:	c000438c 	lw	v1,192(v0)
8010b948:	01001624 	li	s6,1
8010b94c:	4000648c 	lw	a0,64(v1)
8010b950:	3e9c000c 	jal	0x800270f8
8010b954:	21884000 	move	s1,v0
8010b958:	21a04000 	move	s4,v0
8010b95c:	2a101402 	slt	v0,s0,s4
8010b960:	22004010 	beqz	v0,0x8010b9ec
8010b964:	0f80033c 	lui	v1,0x800f
8010b968:	9bec010c 	jal	0x8007b26c
8010b96c:	00000000 	nop
8010b970:	21204000 	move	a0,v0
8010b974:	18008010 	beqz	a0,0x8010b9d8
8010b978:	00080224 	li	v0,2048
8010b97c:	010096a0 	sb	s6,1(a0)
8010b980:	0c0082a4 	sh	v0,12(a0)
8010b984:	020090a0 	sb	s0,2(a0)
8010b988:	c000228e 	lw	v0,192(s1)
8010b98c:	00000000 	nop
8010b990:	2c004294 	lhu	v0,44(v0)
8010b994:	00000000 	nop
8010b998:	1e0082a4 	sh	v0,30(a0)
8010b99c:	c000228e 	lw	v0,192(s1)
8010b9a0:	00000000 	nop
8010b9a4:	30004294 	lhu	v0,48(v0)
8010b9a8:	00000000 	nop
8010b9ac:	220082a4 	sh	v0,34(a0)
8010b9b0:	c000228e 	lw	v0,192(s1)
8010b9b4:	00000000 	nop
8010b9b8:	34004294 	lhu	v0,52(v0)
8010b9bc:	00000000 	nop
8010b9c0:	260082a4 	sh	v0,38(a0)
8010b9c4:	c000228e 	lw	v0,192(s1)
8010b9c8:	00000000 	nop
8010b9cc:	4000458c 	lw	a1,64(v0)
8010b9d0:	169c000c 	jal	0x80027058
8010b9d4:	21300002 	move	a2,s0
8010b9d8:	01001026 	addiu	s0,s0,1
8010b9dc:	0600022a 	slti	v0,s0,6
8010b9e0:	dfff4014 	bnez	v0,0x8010b960
8010b9e4:	2a101402 	slt	v0,s0,s4
8010b9e8:	0f80033c 	lui	v1,0x800f
8010b9ec:	98d06294 	lhu	v0,-12136(v1)
8010b9f0:	0e80053c 	lui	a1,0x800e
8010b9f4:	01004224 	addiu	v0,v0,1
8010b9f8:	98d062a4 	sh	v0,-12136(v1)
8010b9fc:	80101500 	sll	v0,s5,0x2
8010ba00:	21104202 	addu	v0,s2,v0
8010ba04:	747ea38c 	lw	v1,32372(a1)
8010ba08:	c000448c 	lw	a0,192(v0)
8010ba0c:	fcff6224 	addiu	v0,v1,-4
8010ba10:	747ea2ac 	sw	v0,32372(a1)
8010ba14:	fcff64ac 	sw	a0,-4(v1)
8010ba18:	09004292 	lbu	v0,9(s2)
8010ba1c:	46004392 	lbu	v1,70(s2)
8010ba20:	ffff4224 	addiu	v0,v0,-1
8010ba24:	ffff6324 	addiu	v1,v1,-1
8010ba28:	460043a2 	sb	v1,70(s2)
8010ba2c:	ff006330 	andi	v1,v1,0xff
8010ba30:	04006014 	bnez	v1,0x8010ba44
8010ba34:	090042a2 	sb	v0,9(s2)
8010ba38:	03000224 	li	v0,3
8010ba3c:	88520408 	j	0x80114a20
8010ba40:	040042a2 	sb	v0,4(s2)
8010ba44:	05004292 	lbu	v0,5(s2)
8010ba48:	03000324 	li	v1,3
8010ba4c:	400043a6 	sh	v1,64(s2)
8010ba50:	87520408 	j	0x80114a1c
8010ba54:	01004224 	addiu	v0,v0,1
8010ba58:	40004296 	lhu	v0,64(s2)
8010ba5c:	00000000 	nop
8010ba60:	ffff4224 	addiu	v0,v0,-1
8010ba64:	400042a6 	sh	v0,64(s2)
8010ba68:	00140200 	sll	v0,v0,0x10
8010ba6c:	05004014 	bnez	v0,0x8010ba84
8010ba70:	00000000 	nop
8010ba74:	05004292 	lbu	v0,5(s2)
8010ba78:	00000000 	nop
8010ba7c:	ffff4224 	addiu	v0,v0,-1
8010ba80:	050042a2 	sb	v0,5(s2)
8010ba84:	2e006296 	lhu	v0,46(s3)
8010ba88:	00000000 	nop
8010ba8c:	2e0042a6 	sh	v0,46(s2)
8010ba90:	32006296 	lhu	v0,50(s3)
8010ba94:	00000000 	nop
8010ba98:	320042a6 	sh	v0,50(s2)
8010ba9c:	36006296 	lhu	v0,54(s3)
8010baa0:	00000000 	nop
8010baa4:	360042a6 	sh	v0,54(s2)
8010baa8:	54006296 	lhu	v0,84(s3)
8010baac:	00000000 	nop
8010bab0:	540042a6 	sh	v0,84(s2)
8010bab4:	56006296 	lhu	v0,86(s3)
8010bab8:	00000000 	nop
8010babc:	560042a6 	sh	v0,86(s2)
8010bac0:	58006296 	lhu	v0,88(s3)
8010bac4:	21204002 	move	a0,s2
8010bac8:	1146010c 	jal	0x80051844
8010bacc:	580042a6 	sh	v0,88(s2)
8010bad0:	01006292 	lbu	v0,1(s3)
8010bad4:	a0520408 	j	0x80114a80
8010bad8:	010042a2 	sb	v0,1(s2)
8010badc:	89e9010c 	jal	0x8007a624
8010bae0:	21204002 	move	a0,s2
8010bae4:	2c00bf8f 	lw	ra,44(sp)
8010bae8:	2800b68f 	lw	s6,40(sp)
8010baec:	2400b58f 	lw	s5,36(sp)
8010baf0:	2000b48f 	lw	s4,32(sp)
8010baf4:	1c00b38f 	lw	s3,28(sp)
8010baf8:	1800b28f 	lw	s2,24(sp)
8010bafc:	1400b18f 	lw	s1,20(sp)
8010bb00:	1000b08f 	lw	s0,16(sp)
8010bb04:	0800e003 	jr	ra
8010bb08:	3000bd27 	addiu	sp,sp,48
8010bb0c:	e0ffbd27 	addiu	sp,sp,-32
8010bb10:	1000b0af 	sw	s0,16(sp)
8010bb14:	21808000 	move	s0,a0
8010bb18:	1400b1af 	sw	s1,20(sp)
8010bb1c:	1c00bfaf 	sw	ra,28(sp)
8010bb20:	1800b2af 	sw	s2,24(sp)
8010bb24:	04000392 	lbu	v1,4(s0)
8010bb28:	01001224 	li	s2,1
8010bb2c:	25007210 	beq	v1,s2,0x8010bbc4
8010bb30:	21880000 	move	s1,zero
8010bb34:	02006228 	slti	v0,v1,2
8010bb38:	05004010 	beqz	v0,0x8010bb50
8010bb3c:	00000000 	nop
8010bb40:	0a006010 	beqz	v1,0x8010bb6c
8010bb44:	21200002 	move	a0,s0
8010bb48:	35530408 	j	0x80114cd4
8010bb4c:	00000000 	nop
8010bb50:	02000224 	li	v0,2
8010bb54:	78006210 	beq	v1,v0,0x8010bd38
8010bb58:	03000224 	li	v0,3
8010bb5c:	74006210 	beq	v1,v0,0x8010bd30
8010bb60:	00000000 	nop
8010bb64:	35530408 	j	0x80114cd4
8010bb68:	00000000 	nop
8010bb6c:	0c000524 	li	a1,12
8010bb70:	dc46010c 	jal	0x80051b70
8010bb74:	01000624 	li	a2,1
8010bb78:	6f004014 	bnez	v0,0x8010bd38
8010bb7c:	e9020224 	li	v0,745
8010bb80:	04000392 	lbu	v1,4(s0)
8010bb84:	800002a6 	sh	v0,128(s0)
8010bb88:	d2050224 	li	v0,1490
8010bb8c:	820002a6 	sh	v0,130(s0)
8010bb90:	96000224 	li	v0,150
8010bb94:	000012a2 	sb	s2,0(s0)
8010bb98:	840000a6 	sh	zero,132(s0)
8010bb9c:	860002a6 	sh	v0,134(s0)
8010bba0:	2b0000a2 	sb	zero,43(s0)
8010bba4:	290000a2 	sb	zero,41(s0)
8010bba8:	600000a6 	sh	zero,96(s0)
8010bbac:	960000a6 	sh	zero,150(s0)
8010bbb0:	bf0000a2 	sb	zero,191(s0)
8010bbb4:	460000a2 	sb	zero,70(s0)
8010bbb8:	01006324 	addiu	v1,v1,1
8010bbbc:	35530408 	j	0x80114cd4
8010bbc0:	040003a2 	sb	v1,4(s0)
8010bbc4:	21200002 	move	a0,s0
8010bbc8:	afdf010c 	jal	0x80077ebc
8010bbcc:	010003a2 	sb	v1,1(s0)
8010bbd0:	44000496 	lhu	a0,68(s0)
8010bbd4:	00000000 	nop
8010bbd8:	00140400 	sll	v0,a0,0x10
8010bbdc:	031c0200 	sra	v1,v0,0x10
8010bbe0:	0d006010 	beqz	v1,0x8010bc18
8010bbe4:	00000000 	nop
8010bbe8:	038e0200 	sra	s1,v0,0x18
8010bbec:	e0ff6228 	slti	v0,v1,-32
8010bbf0:	03004010 	beqz	v0,0x8010bc00
8010bbf4:	20008224 	addiu	v0,a0,32
8010bbf8:	ed520408 	j	0x80114bb4
8010bbfc:	440002a6 	sh	v0,68(s0)
8010bc00:	21006228 	slti	v0,v1,33
8010bc04:	03004014 	bnez	v0,0x8010bc14
8010bc08:	e0ff8224 	addiu	v0,a0,-32
8010bc0c:	ed520408 	j	0x80114bb4
8010bc10:	440002a6 	sh	v0,68(s0)
8010bc14:	440000a6 	sh	zero,68(s0)
8010bc18:	29000292 	lbu	v0,41(s0)
8010bc1c:	00000000 	nop
8010bc20:	15004010 	beqz	v0,0x8010bc78
8010bc24:	00000000 	nop
8010bc28:	60000386 	lh	v1,96(s0)
8010bc2c:	00000000 	nop
8010bc30:	40100300 	sll	v0,v1,0x1
8010bc34:	21104300 	addu	v0,v0,v1
8010bc38:	80000386 	lh	v1,128(s0)
8010bc3c:	00110200 	sll	v0,v0,0x4
8010bc40:	1a004300 	div	zero,v0,v1
8010bc44:	02006014 	bnez	v1,0x8010bc50
8010bc48:	00000000 	nop
8010bc4c:	0d000700 	break	0x7
8010bc50:	ffff0124 	li	at,-1
8010bc54:	04006114 	bne	v1,at,0x8010bc68
8010bc58:	0080013c 	lui	at,0x8000
8010bc5c:	02004114 	bne	v0,at,0x8010bc68
8010bc60:	00000000 	nop
8010bc64:	0d000600 	break	0x6
8010bc68:	12100000 	mflo	v0
8010bc6c:	00000000 	nop
8010bc70:	21882202 	addu	s1,s1,v0
8010bc74:	83881100 	sra	s1,s1,0x2
8010bc78:	27002012 	beqz	s1,0x8010bd18
8010bc7c:	00000000 	nop
8010bc80:	c000038e 	lw	v1,192(s0)
8010bc84:	00000000 	nop
8010bc88:	0c006294 	lhu	v0,12(v1)
8010bc8c:	00000000 	nop
8010bc90:	21105100 	addu	v0,v0,s1
8010bc94:	0c00201a 	blez	s1,0x8010bcc8
8010bc98:	0c0062a4 	sh	v0,12(v1)
8010bc9c:	c000038e 	lw	v1,192(s0)
8010bca0:	00000000 	nop
8010bca4:	0c006284 	lh	v0,12(v1)
8010bca8:	00000000 	nop
8010bcac:	00024228 	slti	v0,v0,512
8010bcb0:	02004014 	bnez	v0,0x8010bcbc
8010bcb4:	ff010224 	li	v0,511
8010bcb8:	0c0062a4 	sh	v0,12(v1)
8010bcbc:	46000292 	lbu	v0,70(s0)
8010bcc0:	23530408 	j	0x80114c8c
8010bcc4:	01000324 	li	v1,1
8010bcc8:	c000038e 	lw	v1,192(s0)
8010bccc:	00000000 	nop
8010bcd0:	0c006284 	lh	v0,12(v1)
8010bcd4:	00000000 	nop
8010bcd8:	01fe4228 	slti	v0,v0,-511
8010bcdc:	02004010 	beqz	v0,0x8010bce8
8010bce0:	01fe0224 	li	v0,-511
8010bce4:	0c0062a4 	sh	v0,12(v1)
8010bce8:	46000292 	lbu	v0,70(s0)
8010bcec:	ff000324 	li	v1,255
8010bcf0:	03004310 	beq	v0,v1,0x8010bd00
8010bcf4:	00000000 	nop
8010bcf8:	bf0000a2 	sb	zero,191(s0)
8010bcfc:	460003a2 	sb	v1,70(s0)
8010bd00:	bf000292 	lbu	v0,191(s0)
8010bd04:	00000000 	nop
8010bd08:	04004014 	bnez	v0,0x8010bd1c
8010bd0c:	01000224 	li	v0,1
8010bd10:	2e530408 	j	0x80114cb8
8010bd14:	bf0002a2 	sb	v0,191(s0)
8010bd18:	bf0000a2 	sb	zero,191(s0)
8010bd1c:	fe45010c 	jal	0x800517f8
8010bd20:	21200002 	move	a0,s0
8010bd24:	290000a2 	sb	zero,41(s0)
8010bd28:	35530408 	j	0x80114cd4
8010bd2c:	2b0000a2 	sb	zero,43(s0)
8010bd30:	89e9010c 	jal	0x8007a624
8010bd34:	21200002 	move	a0,s0
8010bd38:	1c00bf8f 	lw	ra,28(sp)
8010bd3c:	1800b28f 	lw	s2,24(sp)
8010bd40:	1400b18f 	lw	s1,20(sp)
8010bd44:	1000b08f 	lw	s0,16(sp)
8010bd48:	0800e003 	jr	ra
8010bd4c:	2000bd27 	addiu	sp,sp,32
8010bd50:	e8ffbd27 	addiu	sp,sp,-24
8010bd54:	21288000 	move	a1,a0
8010bd58:	1000bfaf 	sw	ra,16(sp)
8010bd5c:	0400a390 	lbu	v1,4(a1)
8010bd60:	01000624 	li	a2,1
8010bd64:	2f006610 	beq	v1,a2,0x8010be24
8010bd68:	02006228 	slti	v0,v1,2
8010bd6c:	05004010 	beqz	v0,0x8010bd84
8010bd70:	00000000 	nop
8010bd74:	08006010 	beqz	v1,0x8010bd98
8010bd78:	1280043c 	lui	a0,0x8012
8010bd7c:	76530408 	j	0x80114dd8
8010bd80:	00000000 	nop
8010bd84:	04006228 	slti	v0,v1,4
8010bd88:	2c004010 	beqz	v0,0x8010be3c
8010bd8c:	00000000 	nop
8010bd90:	74530408 	j	0x80114dd0
8010bd94:	00000000 	nop
8010bd98:	0300a290 	lbu	v0,3(a1)
8010bd9c:	58c18424 	addiu	a0,a0,-16040
8010bda0:	c0100200 	sll	v0,v0,0x3
8010bda4:	21104400 	addu	v0,v0,a0
8010bda8:	00004394 	lhu	v1,0(v0)
8010bdac:	0300a290 	lbu	v0,3(a1)
8010bdb0:	00000000 	nop
8010bdb4:	c0100200 	sll	v0,v0,0x3
8010bdb8:	21104400 	addu	v0,v0,a0
8010bdbc:	8000a3a4 	sh	v1,128(a1)
8010bdc0:	02004394 	lhu	v1,2(v0)
8010bdc4:	0300a290 	lbu	v0,3(a1)
8010bdc8:	00000000 	nop
8010bdcc:	c0100200 	sll	v0,v0,0x3
8010bdd0:	21104400 	addu	v0,v0,a0
8010bdd4:	8200a3a4 	sh	v1,130(a1)
8010bdd8:	04004394 	lhu	v1,4(v0)
8010bddc:	0300a290 	lbu	v0,3(a1)
8010bde0:	00000000 	nop
8010bde4:	c0100200 	sll	v0,v0,0x3
8010bde8:	21104400 	addu	v0,v0,a0
8010bdec:	8400a3a4 	sh	v1,132(a1)
8010bdf0:	06004394 	lhu	v1,6(v0)
8010bdf4:	0400a290 	lbu	v0,4(a1)
8010bdf8:	0800a0a0 	sb	zero,8(a1)
8010bdfc:	0900a0a0 	sb	zero,9(a1)
8010be00:	0000a6a0 	sb	a2,0(a1)
8010be04:	0b00a0a0 	sb	zero,11(a1)
8010be08:	2b00a0a0 	sb	zero,43(a1)
8010be0c:	7c00a0a4 	sh	zero,124(a1)
8010be10:	7e00a0a4 	sh	zero,126(a1)
8010be14:	01004224 	addiu	v0,v0,1
8010be18:	0400a2a0 	sb	v0,4(a1)
8010be1c:	76530408 	j	0x80114dd8
8010be20:	8600a3a4 	sh	v1,134(a1)
8010be24:	e3dd010c 	jal	0x8007778c
8010be28:	2120a000 	move	a0,a1
8010be2c:	76530408 	j	0x80114dd8
8010be30:	00000000 	nop
8010be34:	89e9010c 	jal	0x8007a624
8010be38:	2120a000 	move	a0,a1
8010be3c:	1000bf8f 	lw	ra,16(sp)
8010be40:	00000000 	nop
8010be44:	0800e003 	jr	ra
8010be48:	1800bd27 	addiu	sp,sp,24
8010be4c:	00008894 	lhu	t0,0(a0)
8010be50:	00000000 	nop
8010be54:	34000011 	beqz	t0,0x8010bf28
8010be58:	21380000 	move	a3,zero
8010be5c:	1280023c 	lui	v0,0x8012
8010be60:	f83e4624 	addiu	a2,v0,16120
8010be64:	30008424 	addiu	a0,a0,48
8010be68:	0000c384 	lh	v1,0(a2)
8010be6c:	00000000 	nop
8010be70:	40100300 	sll	v0,v1,0x1
8010be74:	21104300 	addu	v0,v0,v1
8010be78:	40100200 	sll	v0,v0,0x1
8010be7c:	2118a200 	addu	v1,a1,v0
8010be80:	00006294 	lhu	v0,0(v1)
8010be84:	02006324 	addiu	v1,v1,2
8010be88:	f0ff82a4 	sh	v0,-16(a0)
8010be8c:	00006294 	lhu	v0,0(v1)
8010be90:	00000000 	nop
8010be94:	f2ff82a4 	sh	v0,-14(a0)
8010be98:	02006294 	lhu	v0,2(v1)
8010be9c:	00000000 	nop
8010bea0:	f4ff82a4 	sh	v0,-12(a0)
8010bea4:	0200c384 	lh	v1,2(a2)
8010bea8:	00000000 	nop
8010beac:	40100300 	sll	v0,v1,0x1
8010beb0:	21104300 	addu	v0,v0,v1
8010beb4:	40100200 	sll	v0,v0,0x1
8010beb8:	2118a200 	addu	v1,a1,v0
8010bebc:	00006294 	lhu	v0,0(v1)
8010bec0:	02006324 	addiu	v1,v1,2
8010bec4:	f8ff82a4 	sh	v0,-8(a0)
8010bec8:	00006294 	lhu	v0,0(v1)
8010becc:	00000000 	nop
8010bed0:	faff82a4 	sh	v0,-6(a0)
8010bed4:	02006294 	lhu	v0,2(v1)
8010bed8:	00000000 	nop
8010bedc:	f6ff82a4 	sh	v0,-10(a0)
8010bee0:	0400c384 	lh	v1,4(a2)
8010bee4:	00000000 	nop
8010bee8:	40100300 	sll	v0,v1,0x1
8010beec:	21104300 	addu	v0,v0,v1
8010bef0:	40100200 	sll	v0,v0,0x1
8010bef4:	2118a200 	addu	v1,a1,v0
8010bef8:	00006294 	lhu	v0,0(v1)
8010befc:	02006324 	addiu	v1,v1,2
8010bf00:	fcff82a4 	sh	v0,-4(a0)
8010bf04:	00006294 	lhu	v0,0(v1)
8010bf08:	0100e724 	addiu	a3,a3,1
8010bf0c:	feff82a4 	sh	v0,-2(a0)
8010bf10:	02006294 	lhu	v0,2(v1)
8010bf14:	0600c624 	addiu	a2,a2,6
8010bf18:	000082a4 	sh	v0,0(a0)
8010bf1c:	2a10e800 	slt	v0,a3,t0
8010bf20:	d1ff4014 	bnez	v0,0x8010be68
8010bf24:	24008424 	addiu	a0,a0,36
8010bf28:	0800e003 	jr	ra
8010bf2c:	00000000 	nop
8010bf30:	e8ffbd27 	addiu	sp,sp,-24
8010bf34:	1000b0af 	sw	s0,16(sp)
8010bf38:	21808000 	move	s0,a0
8010bf3c:	1400bfaf 	sw	ra,20(sp)
8010bf40:	07000392 	lbu	v1,7(s0)
8010bf44:	00000000 	nop
8010bf48:	0a00622c 	sltiu	v0,v1,10
8010bf4c:	a5004010 	beqz	v0,0x8010c1e4
8010bf50:	1180023c 	lui	v0,0x8011
8010bf54:	08924224 	addiu	v0,v0,-28152
8010bf58:	80180300 	sll	v1,v1,0x2
8010bf5c:	21186200 	addu	v1,v1,v0
8010bf60:	0000628c 	lw	v0,0(v1)
8010bf64:	00000000 	nop
8010bf68:	08004000 	jr	v0
8010bf6c:	00000000 	nop
8010bf70:	c000028e 	lw	v0,192(s0)
8010bf74:	1280033c 	lui	v1,0x8012
8010bf78:	4000448c 	lw	a0,64(v0)
8010bf7c:	64000286 	lh	v0,100(s0)
8010bf80:	28d16324 	addiu	v1,v1,-11992
8010bf84:	80100200 	sll	v0,v0,0x2
8010bf88:	21104300 	addu	v0,v0,v1
8010bf8c:	0000458c 	lw	a1,0(v0)
8010bf90:	7a53040c 	jal	0x80114de8
8010bf94:	00000000 	nop
8010bf98:	64000296 	lhu	v0,100(s0)
8010bf9c:	00000000 	nop
8010bfa0:	01004224 	addiu	v0,v0,1
8010bfa4:	640002a6 	sh	v0,100(s0)
8010bfa8:	00140200 	sll	v0,v0,0x10
8010bfac:	03140200 	sra	v0,v0,0x10
8010bfb0:	08004228 	slti	v0,v0,8
8010bfb4:	8b004014 	bnez	v0,0x8010c1e4
8010bfb8:	07000224 	li	v0,7
8010bfbc:	5e540408 	j	0x80115178
8010bfc0:	640002a6 	sh	v0,100(s0)
8010bfc4:	c000028e 	lw	v0,192(s0)
8010bfc8:	1280033c 	lui	v1,0x8012
8010bfcc:	4000448c 	lw	a0,64(v0)
8010bfd0:	64000286 	lh	v0,100(s0)
8010bfd4:	bcde6324 	addiu	v1,v1,-8516
8010bfd8:	80100200 	sll	v0,v0,0x2
8010bfdc:	21104300 	addu	v0,v0,v1
8010bfe0:	0000458c 	lw	a1,0(v0)
8010bfe4:	7a53040c 	jal	0x80114de8
8010bfe8:	00000000 	nop
8010bfec:	64000296 	lhu	v0,100(s0)
8010bff0:	00000000 	nop
8010bff4:	01004224 	addiu	v0,v0,1
8010bff8:	640002a6 	sh	v0,100(s0)
8010bffc:	00140200 	sll	v0,v0,0x10
8010c000:	03140200 	sra	v0,v0,0x10
8010c004:	07004228 	slti	v0,v0,7
8010c008:	77004014 	bnez	v0,0x8010c1e8
8010c00c:	21100000 	move	v0,zero
8010c010:	01000224 	li	v0,1
8010c014:	640000a6 	sh	zero,100(s0)
8010c018:	61540408 	j	0x80115184
8010c01c:	070000a2 	sb	zero,7(s0)
8010c020:	c000028e 	lw	v0,192(s0)
8010c024:	1280033c 	lui	v1,0x8012
8010c028:	4000448c 	lw	a0,64(v0)
8010c02c:	64000286 	lh	v0,100(s0)
8010c030:	c0f96324 	addiu	v1,v1,-1600
8010c034:	80100200 	sll	v0,v0,0x2
8010c038:	21104300 	addu	v0,v0,v1
8010c03c:	0000458c 	lw	a1,0(v0)
8010c040:	7a53040c 	jal	0x80114de8
8010c044:	00000000 	nop
8010c048:	64000296 	lhu	v0,100(s0)
8010c04c:	00000000 	nop
8010c050:	01004224 	addiu	v0,v0,1
8010c054:	640002a6 	sh	v0,100(s0)
8010c058:	00140200 	sll	v0,v0,0x10
8010c05c:	03140200 	sra	v0,v0,0x10
8010c060:	06004228 	slti	v0,v0,6
8010c064:	5f004014 	bnez	v0,0x8010c1e4
8010c068:	05000224 	li	v0,5
8010c06c:	5e540408 	j	0x80115178
8010c070:	640002a6 	sh	v0,100(s0)
8010c074:	c000028e 	lw	v0,192(s0)
8010c078:	1280033c 	lui	v1,0x8012
8010c07c:	4000448c 	lw	a0,64(v0)
8010c080:	64000286 	lh	v0,100(s0)
8010c084:	c0f96324 	addiu	v1,v1,-1600
8010c088:	80100200 	sll	v0,v0,0x2
8010c08c:	21104300 	addu	v0,v0,v1
8010c090:	0000458c 	lw	a1,0(v0)
8010c094:	7a53040c 	jal	0x80114de8
8010c098:	00000000 	nop
8010c09c:	64000296 	lhu	v0,100(s0)
8010c0a0:	00000000 	nop
8010c0a4:	01004224 	addiu	v0,v0,1
8010c0a8:	640002a6 	sh	v0,100(s0)
8010c0ac:	00140200 	sll	v0,v0,0x10
8010c0b0:	03140200 	sra	v0,v0,0x10
8010c0b4:	0e004228 	slti	v0,v0,14
8010c0b8:	4a004014 	bnez	v0,0x8010c1e4
8010c0bc:	0d000224 	li	v0,13
8010c0c0:	5e540408 	j	0x80115178
8010c0c4:	640002a6 	sh	v0,100(s0)
8010c0c8:	c000028e 	lw	v0,192(s0)
8010c0cc:	1280033c 	lui	v1,0x8012
8010c0d0:	4000448c 	lw	a0,64(v0)
8010c0d4:	64000286 	lh	v0,100(s0)
8010c0d8:	e03e6324 	addiu	v1,v1,16096
8010c0dc:	80100200 	sll	v0,v0,0x2
8010c0e0:	21104300 	addu	v0,v0,v1
8010c0e4:	0000458c 	lw	a1,0(v0)
8010c0e8:	7a53040c 	jal	0x80114de8
8010c0ec:	00000000 	nop
8010c0f0:	64000296 	lhu	v0,100(s0)
8010c0f4:	00000000 	nop
8010c0f8:	01004224 	addiu	v0,v0,1
8010c0fc:	640002a6 	sh	v0,100(s0)
8010c100:	00140200 	sll	v0,v0,0x10
8010c104:	03140200 	sra	v0,v0,0x10
8010c108:	06004228 	slti	v0,v0,6
8010c10c:	35004014 	bnez	v0,0x8010c1e4
8010c110:	05000224 	li	v0,5
8010c114:	5e540408 	j	0x80115178
8010c118:	640002a6 	sh	v0,100(s0)
8010c11c:	c000028e 	lw	v0,192(s0)
8010c120:	1280033c 	lui	v1,0x8012
8010c124:	4000448c 	lw	a0,64(v0)
8010c128:	64000286 	lh	v0,100(s0)
8010c12c:	042a6324 	addiu	v1,v1,10756
8010c130:	80100200 	sll	v0,v0,0x2
8010c134:	21104300 	addu	v0,v0,v1
8010c138:	0000458c 	lw	a1,0(v0)
8010c13c:	7a53040c 	jal	0x80114de8
8010c140:	00000000 	nop
8010c144:	64000296 	lhu	v0,100(s0)
8010c148:	00000000 	nop
8010c14c:	01004224 	addiu	v0,v0,1
8010c150:	640002a6 	sh	v0,100(s0)
8010c154:	00140200 	sll	v0,v0,0x10
8010c158:	03140200 	sra	v0,v0,0x10
8010c15c:	19004228 	slti	v0,v0,25
8010c160:	21004014 	bnez	v0,0x8010c1e8
8010c164:	21100000 	move	v0,zero
8010c168:	07000392 	lbu	v1,7(s0)
8010c16c:	08000224 	li	v0,8
8010c170:	19006210 	beq	v1,v0,0x8010c1d8
8010c174:	18000224 	li	v0,24
8010c178:	07000292 	lbu	v0,7(s0)
8010c17c:	640000a6 	sh	zero,100(s0)
8010c180:	01004224 	addiu	v0,v0,1
8010c184:	60540408 	j	0x80115180
8010c188:	070002a2 	sb	v0,7(s0)
8010c18c:	c000028e 	lw	v0,192(s0)
8010c190:	1280033c 	lui	v1,0x8012
8010c194:	4000448c 	lw	a0,64(v0)
8010c198:	64000286 	lh	v0,100(s0)
8010c19c:	a03d6324 	addiu	v1,v1,15776
8010c1a0:	80100200 	sll	v0,v0,0x2
8010c1a4:	21104300 	addu	v0,v0,v1
8010c1a8:	0000458c 	lw	a1,0(v0)
8010c1ac:	7a53040c 	jal	0x80114de8
8010c1b0:	00000000 	nop
8010c1b4:	64000296 	lhu	v0,100(s0)
8010c1b8:	00000000 	nop
8010c1bc:	01004224 	addiu	v0,v0,1
8010c1c0:	640002a6 	sh	v0,100(s0)
8010c1c4:	00140200 	sll	v0,v0,0x10
8010c1c8:	03140200 	sra	v0,v0,0x10
8010c1cc:	0a004228 	slti	v0,v0,10
8010c1d0:	04004014 	bnez	v0,0x8010c1e4
8010c1d4:	09000224 	li	v0,9
8010c1d8:	640002a6 	sh	v0,100(s0)
8010c1dc:	61540408 	j	0x80115184
8010c1e0:	01000224 	li	v0,1
8010c1e4:	21100000 	move	v0,zero
8010c1e8:	1400bf8f 	lw	ra,20(sp)
8010c1ec:	1000b08f 	lw	s0,16(sp)
8010c1f0:	0800e003 	jr	ra
8010c1f4:	1800bd27 	addiu	sp,sp,24
8010c1f8:	d8ffbd27 	addiu	sp,sp,-40
8010c1fc:	2000b2af 	sw	s2,32(sp)
8010c200:	21908000 	move	s2,a0
8010c204:	2400bfaf 	sw	ra,36(sp)
8010c208:	1c00b1af 	sw	s1,28(sp)
8010c20c:	1800b0af 	sw	s0,24(sp)
8010c210:	06005092 	lbu	s0,6(s2)
8010c214:	01001124 	li	s1,1
8010c218:	15001112 	beq	s0,s1,0x8010c270
8010c21c:	0200022a 	slti	v0,s0,2
8010c220:	05004010 	beqz	v0,0x8010c238
8010c224:	02000224 	li	v0,2
8010c228:	09000012 	beqz	s0,0x8010c250
8010c22c:	21100000 	move	v0,zero
8010c230:	ef540408 	j	0x801153bc
8010c234:	00000000 	nop
8010c238:	23000212 	beq	s0,v0,0x8010c2c8
8010c23c:	03000224 	li	v0,3
8010c240:	48000212 	beq	s0,v0,0x8010c364
8010c244:	21100000 	move	v0,zero
8010c248:	ef540408 	j	0x801153bc
8010c24c:	00000000 	nop
8010c250:	21204002 	move	a0,s2
8010c254:	21280000 	move	a1,zero
8010c258:	1280063c 	lui	a2,0x8012
8010c25c:	6442c624 	addiu	a2,a2,16996
8010c260:	3703010c 	jal	0x80040cdc
8010c264:	060051a2 	sb	s1,6(s2)
8010c268:	ee540408 	j	0x801153b8
8010c26c:	700051a2 	sb	s1,112(s2)
8010c270:	2604010c 	jal	0x80041098
8010c274:	21204002 	move	a0,s2
8010c278:	70004392 	lbu	v1,112(s2)
8010c27c:	ff000224 	li	v0,255
8010c280:	67006214 	bne	v1,v0,0x8010c420
8010c284:	21100000 	move	v0,zero
8010c288:	21204002 	move	a0,s2
8010c28c:	06004292 	lbu	v0,6(s2)
8010c290:	1280033c 	lui	v1,0x8012
8010c294:	01004224 	addiu	v0,v0,1
8010c298:	060042a2 	sb	v0,6(s2)
8010c29c:	0c80023c 	lui	v0,0x800c
8010c2a0:	70f84290 	lbu	v0,-1936(v0)
8010c2a4:	ec426324 	addiu	v1,v1,17132
8010c2a8:	f6ff4224 	addiu	v0,v0,-10
8010c2ac:	80100200 	sll	v0,v0,0x2
8010c2b0:	21104300 	addu	v0,v0,v1
8010c2b4:	0000468c 	lw	a2,0(v0)
8010c2b8:	3703010c 	jal	0x80040cdc
8010c2bc:	21280000 	move	a1,zero
8010c2c0:	ee540408 	j	0x801153b8
8010c2c4:	700050a2 	sb	s0,112(s2)
8010c2c8:	2604010c 	jal	0x80041098
8010c2cc:	21204002 	move	a0,s2
8010c2d0:	70004392 	lbu	v1,112(s2)
8010c2d4:	ff000224 	li	v0,255
8010c2d8:	51006214 	bne	v1,v0,0x8010c420
8010c2dc:	21100000 	move	v0,zero
8010c2e0:	06004292 	lbu	v0,6(s2)
8010c2e4:	0c80053c 	lui	a1,0x800c
8010c2e8:	01004224 	addiu	v0,v0,1
8010c2ec:	060042a2 	sb	v0,6(s2)
8010c2f0:	70f8a224 	addiu	v0,a1,-1936
8010c2f4:	a8014290 	lbu	v0,424(v0)
8010c2f8:	00000000 	nop
8010c2fc:	1f004230 	andi	v0,v0,0x1f
8010c300:	05004014 	bnez	v0,0x8010c318
8010c304:	21204002 	move	a0,s2
8010c308:	1280033c 	lui	v1,0x8012
8010c30c:	70f8a290 	lbu	v0,-1936(a1)
8010c310:	b0540408 	j	0x801152c0
8010c314:	34446324 	addiu	v1,v1,17460
8010c318:	1280033c 	lui	v1,0x8012
8010c31c:	70f8a290 	lbu	v0,-1936(a1)
8010c320:	20446324 	addiu	v1,v1,17440
8010c324:	f6ff4224 	addiu	v0,v0,-10
8010c328:	80100200 	sll	v0,v0,0x2
8010c32c:	21104300 	addu	v0,v0,v1
8010c330:	0000468c 	lw	a2,0(v0)
8010c334:	3703010c 	jal	0x80040cdc
8010c338:	21280000 	move	a1,zero
8010c33c:	01000224 	li	v0,1
8010c340:	700042a2 	sb	v0,112(s2)
8010c344:	0e80023c 	lui	v0,0x800e
8010c348:	d67e4394 	lhu	v1,32470(v0)
8010c34c:	00100224 	li	v0,4096
8010c350:	b80042a6 	sh	v0,184(s2)
8010c354:	ba0042a6 	sh	v0,186(s2)
8010c358:	bc0042a6 	sh	v0,188(s2)
8010c35c:	ee540408 	j	0x801153b8
8010c360:	560043a6 	sh	v1,86(s2)
8010c364:	2604010c 	jal	0x80041098
8010c368:	21204002 	move	a0,s2
8010c36c:	70004392 	lbu	v1,112(s2)
8010c370:	ff000224 	li	v0,255
8010c374:	03006214 	bne	v1,v0,0x8010c384
8010c378:	0e80023c 	lui	v0,0x800e
8010c37c:	ef540408 	j	0x801153bc
8010c380:	01000224 	li	v0,1
8010c384:	21204002 	move	a0,s2
8010c388:	807e4224 	addiu	v0,v0,32384
8010c38c:	dc00468c 	lw	a2,220(v0)
8010c390:	d000478c 	lw	a3,208(v0)
8010c394:	21280000 	move	a1,zero
8010c398:	592f010c 	jal	0x8004bd64
8010c39c:	1000a0af 	sw	zero,16(sp)
8010c3a0:	801f043c 	lui	a0,0x1f80
8010c3a4:	18018424 	addiu	a0,a0,280
8010c3a8:	801f033c 	lui	v1,0x1f80
8010c3ac:	c0006524 	addiu	a1,v1,192
8010c3b0:	801f113c 	lui	s1,0x1f80
8010c3b4:	a0003026 	addiu	s0,s1,160
8010c3b8:	21300002 	move	a2,s0
8010c3bc:	d8ff0224 	li	v0,-40
8010c3c0:	c00062a4 	sh	v0,192(v1)
8010c3c4:	d0ff0224 	li	v0,-48
8010c3c8:	0200a2a4 	sh	v0,2(a1)
8010c3cc:	1c11020c 	jal	0x80084470
8010c3d0:	0400a0a4 	sh	zero,4(a1)
8010c3d4:	2e004296 	lhu	v0,46(s2)
8010c3d8:	a0002396 	lhu	v1,160(s1)
8010c3dc:	00000000 	nop
8010c3e0:	21104300 	addu	v0,v0,v1
8010c3e4:	2e0042a6 	sh	v0,46(s2)
8010c3e8:	32004296 	lhu	v0,50(s2)
8010c3ec:	04000396 	lhu	v1,4(s0)
8010c3f0:	00000000 	nop
8010c3f4:	21104300 	addu	v0,v0,v1
8010c3f8:	320042a6 	sh	v0,50(s2)
8010c3fc:	36004296 	lhu	v0,54(s2)
8010c400:	08000396 	lhu	v1,8(s0)
8010c404:	21204002 	move	a0,s2
8010c408:	21104300 	addu	v0,v0,v1
8010c40c:	e3dd010c 	jal	0x8007778c
8010c410:	360042a6 	sh	v0,54(s2)
8010c414:	3f46010c 	jal	0x800518fc
8010c418:	21204002 	move	a0,s2
8010c41c:	21100000 	move	v0,zero
8010c420:	2400bf8f 	lw	ra,36(sp)
8010c424:	2000b28f 	lw	s2,32(sp)
8010c428:	1c00b18f 	lw	s1,28(sp)
8010c42c:	1800b08f 	lw	s0,24(sp)
8010c430:	0800e003 	jr	ra
8010c434:	2800bd27 	addiu	sp,sp,40
8010c438:	d8ffbd27 	addiu	sp,sp,-40
8010c43c:	1c00b3af 	sw	s3,28(sp)
8010c440:	21988000 	move	s3,a0
8010c444:	2000bfaf 	sw	ra,32(sp)
8010c448:	1800b2af 	sw	s2,24(sp)
8010c44c:	1400b1af 	sw	s1,20(sp)
8010c450:	1000b0af 	sw	s0,16(sp)
8010c454:	06006392 	lbu	v1,6(s3)
8010c458:	00000000 	nop
8010c45c:	05006010 	beqz	v1,0x8010c474
8010c460:	01000224 	li	v0,1
8010c464:	2f006210 	beq	v1,v0,0x8010c524
8010c468:	21100000 	move	v0,zero
8010c46c:	37550408 	j	0x801154dc
8010c470:	00000000 	nop
8010c474:	801f103c 	lui	s0,0x1f80
8010c478:	18011026 	addiu	s0,s0,280
8010c47c:	21200002 	move	a0,s0
8010c480:	801f033c 	lui	v1,0x1f80
8010c484:	c0006524 	addiu	a1,v1,192
8010c488:	801f123c 	lui	s2,0x1f80
8010c48c:	a0005126 	addiu	s1,s2,160
8010c490:	21302002 	move	a2,s1
8010c494:	060062a2 	sb	v0,6(s3)
8010c498:	70f90224 	li	v0,-1680
8010c49c:	c00060a4 	sh	zero,192(v1)
8010c4a0:	0200a2a4 	sh	v0,2(a1)
8010c4a4:	e8030224 	li	v0,1000
8010c4a8:	1c11020c 	jal	0x80084470
8010c4ac:	0400a2a4 	sh	v0,4(a1)
8010c4b0:	b8ff1026 	addiu	s0,s0,-72
8010c4b4:	0e000296 	lhu	v0,14(s0)
8010c4b8:	a0004396 	lhu	v1,160(s2)
8010c4bc:	00000000 	nop
8010c4c0:	21104300 	addu	v0,v0,v1
8010c4c4:	2e0062a6 	sh	v0,46(s3)
8010c4c8:	12000296 	lhu	v0,18(s0)
8010c4cc:	04002396 	lhu	v1,4(s1)
8010c4d0:	00000000 	nop
8010c4d4:	21104300 	addu	v0,v0,v1
8010c4d8:	320062a6 	sh	v0,50(s3)
8010c4dc:	16000296 	lhu	v0,22(s0)
8010c4e0:	08002396 	lhu	v1,8(s1)
8010c4e4:	21206002 	move	a0,s3
8010c4e8:	21104300 	addu	v0,v0,v1
8010c4ec:	1280033c 	lui	v1,0x8012
8010c4f0:	360062a6 	sh	v0,54(s3)
8010c4f4:	0c80023c 	lui	v0,0x800c
8010c4f8:	70f84290 	lbu	v0,-1936(v0)
8010c4fc:	bc456324 	addiu	v1,v1,17852
8010c500:	f6ff4224 	addiu	v0,v0,-10
8010c504:	80100200 	sll	v0,v0,0x2
8010c508:	21104300 	addu	v0,v0,v1
8010c50c:	0000468c 	lw	a2,0(v0)
8010c510:	3703010c 	jal	0x80040cdc
8010c514:	21280000 	move	a1,zero
8010c518:	01000224 	li	v0,1
8010c51c:	36550408 	j	0x801154d8
8010c520:	700062a2 	sb	v0,112(s3)
8010c524:	2604010c 	jal	0x80041098
8010c528:	21206002 	move	a0,s3
8010c52c:	70006492 	lbu	a0,112(s3)
8010c530:	ff000324 	li	v1,255
8010c534:	02008310 	beq	a0,v1,0x8010c540
8010c538:	01000224 	li	v0,1
8010c53c:	21100000 	move	v0,zero
8010c540:	2000bf8f 	lw	ra,32(sp)
8010c544:	1c00b38f 	lw	s3,28(sp)
8010c548:	1800b28f 	lw	s2,24(sp)
8010c54c:	1400b18f 	lw	s1,20(sp)
8010c550:	1000b08f 	lw	s0,16(sp)
8010c554:	0800e003 	jr	ra
8010c558:	2800bd27 	addiu	sp,sp,40
8010c55c:	d8ffbd27 	addiu	sp,sp,-40
8010c560:	1000b0af 	sw	s0,16(sp)
8010c564:	21808000 	move	s0,a0
8010c568:	2000bfaf 	sw	ra,32(sp)
8010c56c:	1c00b3af 	sw	s3,28(sp)
8010c570:	1800b2af 	sw	s2,24(sp)
8010c574:	1400b1af 	sw	s1,20(sp)
8010c578:	04000392 	lbu	v1,4(s0)
8010c57c:	01001324 	li	s3,1
8010c580:	3e007310 	beq	v1,s3,0x8010c67c
8010c584:	02006228 	slti	v0,v1,2
8010c588:	05004010 	beqz	v0,0x8010c5a0
8010c58c:	00000000 	nop
8010c590:	0a006010 	beqz	v1,0x8010c5bc
8010c594:	21200002 	move	a0,s0
8010c598:	27560408 	j	0x8011589c
8010c59c:	00000000 	nop
8010c5a0:	02000224 	li	v0,2
8010c5a4:	43006210 	beq	v1,v0,0x8010c6b4
8010c5a8:	03000224 	li	v0,3
8010c5ac:	d2006210 	beq	v1,v0,0x8010c8f8
8010c5b0:	00000000 	nop
8010c5b4:	27560408 	j	0x8011589c
8010c5b8:	00000000 	nop
8010c5bc:	05000524 	li	a1,5
8010c5c0:	0f80063c 	lui	a2,0x800f
8010c5c4:	1280033c 	lui	v1,0x8012
8010c5c8:	0c80113c 	lui	s1,0x800c
8010c5cc:	28426324 	addiu	v1,v1,16936
8010c5d0:	70f82292 	lbu	v0,-1936(s1)
8010c5d4:	58cfd224 	addiu	s2,a2,-12456
8010c5d8:	f6ff4224 	addiu	v0,v0,-10
8010c5dc:	80100200 	sll	v0,v0,0x2
8010c5e0:	21104300 	addu	v0,v0,v1
8010c5e4:	0000428c 	lw	v0,0(v0)
8010c5e8:	1280073c 	lui	a3,0x8012
8010c5ec:	80100200 	sll	v0,v0,0x2
8010c5f0:	21105200 	addu	v0,v0,s2
8010c5f4:	0000468c 	lw	a2,0(v0)
8010c5f8:	7846010c 	jal	0x800519e0
8010c5fc:	b83ee724 	addiu	a3,a3,16056
8010c600:	bf004014 	bnez	v0,0x8010c900
8010c604:	1280033c 	lui	v1,0x8012
8010c608:	21200002 	move	a0,s0
8010c60c:	3c426324 	addiu	v1,v1,16956
8010c610:	70f82292 	lbu	v0,-1936(s1)
8010c614:	0180053c 	lui	a1,0x8001
8010c618:	f6ff4224 	addiu	v0,v0,-10
8010c61c:	80100200 	sll	v0,v0,0x2
8010c620:	21104300 	addu	v0,v0,v1
8010c624:	0000428c 	lw	v0,0(v0)
8010c628:	c07fa524 	addiu	a1,a1,32704
8010c62c:	80100200 	sll	v0,v0,0x2
8010c630:	21105200 	addu	v0,v0,s2
8010c634:	0000428c 	lw	v0,0(v0)
8010c638:	21300000 	move	a2,zero
8010c63c:	10df010c 	jal	0x80077c40
8010c640:	3c0002ae 	sw	v0,60(s0)
8010c644:	32000424 	li	a0,50
8010c648:	04000292 	lbu	v0,4(s0)
8010c64c:	64000324 	li	v1,100
8010c650:	540000a6 	sh	zero,84(s0)
8010c654:	560000a6 	sh	zero,86(s0)
8010c658:	580000a6 	sh	zero,88(s0)
8010c65c:	000013a2 	sb	s3,0(s0)
8010c660:	800004a6 	sh	a0,128(s0)
8010c664:	820003a6 	sh	v1,130(s0)
8010c668:	840004a6 	sh	a0,132(s0)
8010c66c:	860003a6 	sh	v1,134(s0)
8010c670:	01004224 	addiu	v0,v0,1
8010c674:	27560408 	j	0x8011589c
8010c678:	040002a2 	sb	v0,4(s0)
8010c67c:	21200002 	move	a0,s0
8010c680:	32000296 	lhu	v0,50(s0)
8010c684:	56000396 	lhu	v1,86(s0)
8010c688:	08004224 	addiu	v0,v0,8
8010c68c:	40006324 	addiu	v1,v1,64
8010c690:	320002a6 	sh	v0,50(s0)
8010c694:	e3dd010c 	jal	0x8007778c
8010c698:	560003a6 	sh	v1,86(s0)
8010c69c:	4306010c 	jal	0x8004190c
8010c6a0:	21200002 	move	a0,s0
8010c6a4:	3f46010c 	jal	0x800518fc
8010c6a8:	21200002 	move	a0,s0
8010c6ac:	27560408 	j	0x8011589c
8010c6b0:	00000000 	nop
8010c6b4:	05000392 	lbu	v1,5(s0)
8010c6b8:	00000000 	nop
8010c6bc:	0600622c 	sltiu	v0,v1,6
8010c6c0:	8f004010 	beqz	v0,0x8010c900
8010c6c4:	1180023c 	lui	v0,0x8011
8010c6c8:	30924224 	addiu	v0,v0,-28112
8010c6cc:	80180300 	sll	v1,v1,0x2
8010c6d0:	21186200 	addu	v1,v1,v0
8010c6d4:	0000628c 	lw	v0,0(v1)
8010c6d8:	00000000 	nop
8010c6dc:	08004000 	jr	v0
8010c6e0:	00000000 	nop
8010c6e4:	1280033c 	lui	v1,0x8012
8010c6e8:	0c80023c 	lui	v0,0x800c
8010c6ec:	70f84290 	lbu	v0,-1936(v0)
8010c6f0:	50426324 	addiu	v1,v1,16976
8010c6f4:	f6ff4224 	addiu	v0,v0,-10
8010c6f8:	80100200 	sll	v0,v0,0x2
8010c6fc:	21104300 	addu	v0,v0,v1
8010c700:	0000448c 	lw	a0,0(v0)
8010c704:	3135010c 	jal	0x8004d4c4
8010c708:	01000524 	li	a1,1
8010c70c:	362c010c 	jal	0x8004b0d8
8010c710:	21200002 	move	a0,s0
8010c714:	05000292 	lbu	v0,5(s0)
8010c718:	3c000324 	li	v1,60
8010c71c:	dd550408 	j	0x80115774
8010c720:	400003a6 	sh	v1,64(s0)
8010c724:	40000296 	lhu	v0,64(s0)
8010c728:	00000000 	nop
8010c72c:	ffff4224 	addiu	v0,v0,-1
8010c730:	400002a6 	sh	v0,64(s0)
8010c734:	00140200 	sll	v0,v0,0x10
8010c738:	71004014 	bnez	v0,0x8010c900
8010c73c:	03000524 	li	a1,3
8010c740:	01000424 	li	a0,1
8010c744:	05000292 	lbu	v0,5(s0)
8010c748:	060000a2 	sb	zero,6(s0)
8010c74c:	21104400 	addu	v0,v0,a0
8010c750:	d508010c 	jal	0x80042354
8010c754:	050002a2 	sb	v0,5(s0)
8010c758:	27560408 	j	0x8011589c
8010c75c:	00000000 	nop
8010c760:	6554040c 	jal	0x80115194
8010c764:	21200002 	move	a0,s0
8010c768:	da550408 	j	0x80115768
8010c76c:	00000000 	nop
8010c770:	0c80053c 	lui	a1,0x800c
8010c774:	70f8a490 	lbu	a0,-1936(a1)
8010c778:	70f8a524 	addiu	a1,a1,-1936
8010c77c:	01000224 	li	v0,1
8010c780:	a801a390 	lbu	v1,424(a1)
8010c784:	f6ff8424 	addiu	a0,a0,-10
8010c788:	04108200 	sllv	v0,v0,a0
8010c78c:	25186200 	or	v1,v1,v0
8010c790:	a801a3a0 	sb	v1,424(a1)
8010c794:	1f006330 	andi	v1,v1,0x1f
8010c798:	1f000224 	li	v0,31
8010c79c:	04006214 	bne	v1,v0,0x8010c7b0
8010c7a0:	00000000 	nop
8010c7a4:	05000292 	lbu	v0,5(s0)
8010c7a8:	dd550408 	j	0x80115774
8010c7ac:	060000a2 	sb	zero,6(s0)
8010c7b0:	05000292 	lbu	v0,5(s0)
8010c7b4:	00000000 	nop
8010c7b8:	02004224 	addiu	v0,v0,2
8010c7bc:	27560408 	j	0x8011589c
8010c7c0:	050002a2 	sb	v0,5(s0)
8010c7c4:	f554040c 	jal	0x801153d4
8010c7c8:	21200002 	move	a0,s0
8010c7cc:	4c004010 	beqz	v0,0x8010c900
8010c7d0:	00000000 	nop
8010c7d4:	05000292 	lbu	v0,5(s0)
8010c7d8:	00000000 	nop
8010c7dc:	01004224 	addiu	v0,v0,1
8010c7e0:	27560408 	j	0x8011589c
8010c7e4:	050002a2 	sb	v0,5(s0)
8010c7e8:	03000224 	li	v0,3
8010c7ec:	0c80033c 	lui	v1,0x800c
8010c7f0:	08f86324 	addiu	v1,v1,-2040
8010c7f4:	040002a2 	sb	v0,4(s0)
8010c7f8:	0c80023c 	lui	v0,0x800c
8010c7fc:	70f84490 	lbu	a0,-1936(v0)
8010c800:	01000224 	li	v0,1
8010c804:	310062a0 	sb	v0,49(v1)
8010c808:	070060a0 	sb	zero,7(v1)
8010c80c:	f6ff8324 	addiu	v1,a0,-10
8010c810:	0500622c 	sltiu	v0,v1,5
8010c814:	30004010 	beqz	v0,0x8010c8d8
8010c818:	1180023c 	lui	v0,0x8011
8010c81c:	48924224 	addiu	v0,v0,-28088
8010c820:	80180300 	sll	v1,v1,0x2
8010c824:	21186200 	addu	v1,v1,v0
8010c828:	0000628c 	lw	v0,0(v1)
8010c82c:	00000000 	nop
8010c830:	08004000 	jr	v0
8010c834:	00000000 	nop
8010c838:	0c80053c 	lui	a1,0x800c
8010c83c:	0c80043c 	lui	a0,0x800c
8010c840:	70f88424 	addiu	a0,a0,-1936
8010c844:	e6058294 	lhu	v0,1510(a0)
8010c848:	07060324 	li	v1,1543
8010c84c:	3af8a3a4 	sh	v1,-1990(a1)
8010c850:	1c560408 	j	0x80115870
8010c854:	06004234 	ori	v0,v0,0x6
8010c858:	0c80053c 	lui	a1,0x800c
8010c85c:	0c80043c 	lui	a0,0x800c
8010c860:	70f88424 	addiu	a0,a0,-1936
8010c864:	e6058294 	lhu	v0,1510(a0)
8010c868:	0c080324 	li	v1,2060
8010c86c:	3af8a3a4 	sh	v1,-1990(a1)
8010c870:	1c560408 	j	0x80115870
8010c874:	30004234 	ori	v0,v0,0x30
8010c878:	0c80053c 	lui	a1,0x800c
8010c87c:	0c80043c 	lui	a0,0x800c
8010c880:	70f88424 	addiu	a0,a0,-1936
8010c884:	e6058294 	lhu	v0,1510(a0)
8010c888:	05010324 	li	v1,261
8010c88c:	3af8a3a4 	sh	v1,-1990(a1)
8010c890:	1c560408 	j	0x80115870
8010c894:	40004234 	ori	v0,v0,0x40
8010c898:	0c80053c 	lui	a1,0x800c
8010c89c:	0c80043c 	lui	a0,0x800c
8010c8a0:	70f88424 	addiu	a0,a0,-1936
8010c8a4:	e6058294 	lhu	v0,1510(a0)
8010c8a8:	04040324 	li	v1,1028
8010c8ac:	3af8a3a4 	sh	v1,-1990(a1)
8010c8b0:	1c560408 	j	0x80115870
8010c8b4:	80004234 	ori	v0,v0,0x80
8010c8b8:	0c80053c 	lui	a1,0x800c
8010c8bc:	0c80043c 	lui	a0,0x800c
8010c8c0:	70f88424 	addiu	a0,a0,-1936
8010c8c4:	e6058294 	lhu	v0,1510(a0)
8010c8c8:	0b000324 	li	v1,11
8010c8cc:	3af8a3a4 	sh	v1,-1990(a1)
8010c8d0:	00014234 	ori	v0,v0,0x100
8010c8d4:	e60582a4 	sh	v0,1510(a0)
8010c8d8:	801f033c 	lui	v1,0x1f80
8010c8dc:	08000224 	li	v0,8
8010c8e0:	360262a0 	sb	v0,566(v1)
8010c8e4:	0c80023c 	lui	v0,0x800c
8010c8e8:	70f84390 	lbu	v1,-1936(v0)
8010c8ec:	801f023c 	lui	v0,0x1f80
8010c8f0:	27560408 	j	0x8011589c
8010c8f4:	400243a4 	sh	v1,576(v0)
8010c8f8:	89e9010c 	jal	0x8007a624
8010c8fc:	21200002 	move	a0,s0
8010c900:	2000bf8f 	lw	ra,32(sp)
8010c904:	1c00b38f 	lw	s3,28(sp)
8010c908:	1800b28f 	lw	s2,24(sp)
8010c90c:	1400b18f 	lw	s1,20(sp)
8010c910:	1000b08f 	lw	s0,16(sp)
8010c914:	0800e003 	jr	ra
8010c918:	2800bd27 	addiu	sp,sp,40
8010c91c:	d8ffbd27 	addiu	sp,sp,-40
8010c920:	1800b2af 	sw	s2,24(sp)
8010c924:	2190a000 	move	s2,a1
8010c928:	2000bfaf 	sw	ra,32(sp)
8010c92c:	1c00b3af 	sw	s3,28(sp)
8010c930:	1400b1af 	sw	s1,20(sp)
8010c934:	1000b0af 	sw	s0,16(sp)
8010c938:	32008294 	lhu	v0,50(a0)
8010c93c:	32004596 	lhu	a1,50(s2)
8010c940:	00000000 	nop
8010c944:	23104500 	subu	v0,v0,a1
8010c948:	00140200 	sll	v0,v0,0x10
8010c94c:	03340200 	sra	a2,v0,0x10
8010c950:	0200c104 	bgez	a2,0x8010c95c
8010c954:	2110c000 	move	v0,a2
8010c958:	23100200 	negu	v0,v0
8010c95c:	d0ff4224 	addiu	v0,v0,-48
8010c960:	21184000 	move	v1,v0
8010c964:	00140200 	sll	v0,v0,0x10
8010c968:	02004104 	bgez	v0,0x8010c974
8010c96c:	00000000 	nop
8010c970:	21180000 	move	v1,zero
8010c974:	0200c104 	bgez	a2,0x8010c980
8010c978:	2110a300 	addu	v0,a1,v1
8010c97c:	2310a300 	subu	v0,a1,v1
8010c980:	320042a6 	sh	v0,50(s2)
8010c984:	2e008294 	lhu	v0,46(a0)
8010c988:	2e004396 	lhu	v1,46(s2)
8010c98c:	00000000 	nop
8010c990:	23104300 	subu	v0,v0,v1
8010c994:	00140200 	sll	v0,v0,0x10
8010c998:	038c0200 	sra	s1,v0,0x10
8010c99c:	18003102 	mult	s1,s1
8010c9a0:	36008294 	lhu	v0,54(a0)
8010c9a4:	36004396 	lhu	v1,54(s2)
8010c9a8:	00000000 	nop
8010c9ac:	23104300 	subu	v0,v0,v1
8010c9b0:	12280000 	mflo	a1
8010c9b4:	00140200 	sll	v0,v0,0x10
8010c9b8:	03840200 	sra	s0,v0,0x10
8010c9bc:	18001002 	mult	s0,s0
8010c9c0:	01001324 	li	s3,1
8010c9c4:	12180000 	mflo	v1
8010c9c8:	2010020c 	jal	0x80084080
8010c9cc:	2120a300 	addu	a0,a1,v1
8010c9d0:	40004228 	slti	v0,v0,64
8010c9d4:	1b004014 	bnez	v0,0x8010ca44
8010c9d8:	21106002 	move	v0,s3
8010c9dc:	23201000 	negu	a0,s0
8010c9e0:	a415020c 	jal	0x80085690
8010c9e4:	21282002 	move	a1,s1
8010c9e8:	00840200 	sll	s0,v0,0x10
8010c9ec:	03841000 	sra	s0,s0,0x10
8010c9f0:	d40f020c 	jal	0x80083f50
8010c9f4:	21200002 	move	a0,s0
8010c9f8:	21200002 	move	a0,s0
8010c9fc:	04806202 	sllv	s0,v0,s3
8010ca00:	21800202 	addu	s0,s0,v0
8010ca04:	00811000 	sll	s0,s0,0x4
8010ca08:	a00f020c 	jal	0x80083e80
8010ca0c:	03831000 	sra	s0,s0,0xc
8010ca10:	2e004396 	lhu	v1,46(s2)
8010ca14:	21980000 	move	s3,zero
8010ca18:	21187000 	addu	v1,v1,s0
8010ca1c:	2e0043a6 	sh	v1,46(s2)
8010ca20:	40180200 	sll	v1,v0,0x1
8010ca24:	21186200 	addu	v1,v1,v0
8010ca28:	00190300 	sll	v1,v1,0x4
8010ca2c:	23180300 	negu	v1,v1
8010ca30:	36004296 	lhu	v0,54(s2)
8010ca34:	031b0300 	sra	v1,v1,0xc
8010ca38:	21104300 	addu	v0,v0,v1
8010ca3c:	360042a6 	sh	v0,54(s2)
8010ca40:	21106002 	move	v0,s3
8010ca44:	2000bf8f 	lw	ra,32(sp)
8010ca48:	1c00b38f 	lw	s3,28(sp)
8010ca4c:	1800b28f 	lw	s2,24(sp)
8010ca50:	1400b18f 	lw	s1,20(sp)
8010ca54:	1000b08f 	lw	s0,16(sp)
8010ca58:	0800e003 	jr	ra
8010ca5c:	2800bd27 	addiu	sp,sp,40
8010ca60:	e0ffbd27 	addiu	sp,sp,-32
8010ca64:	801f033c 	lui	v1,0x1f80
8010ca68:	46026390 	lbu	v1,582(v1)
8010ca6c:	801f023c 	lui	v0,0x1f80
8010ca70:	1400b1af 	sw	s1,20(sp)
8010ca74:	4c02518c 	lw	s1,588(v0)
8010ca78:	1000b0af 	sw	s0,16(sp)
8010ca7c:	21808000 	move	s0,a0
8010ca80:	09006014 	bnez	v1,0x8010caa8
8010ca84:	1800bfaf 	sw	ra,24(sp)
8010ca88:	62000396 	lhu	v1,98(s0)
8010ca8c:	02000224 	li	v0,2
8010ca90:	050000a2 	sb	zero,5(s0)
8010ca94:	060000a2 	sb	zero,6(s0)
8010ca98:	070002a2 	sb	v0,7(s0)
8010ca9c:	640000a6 	sh	zero,100(s0)
8010caa0:	ba560408 	j	0x80115ae8
8010caa4:	560003a6 	sh	v1,86(s0)
8010caa8:	801f023c 	lui	v0,0x1f80
8010caac:	60014584 	lh	a1,352(v0)
8010cab0:	801f023c 	lui	v0,0x1f80
8010cab4:	64014684 	lh	a2,356(v0)
8010cab8:	ace0010c 	jal	0x800782b0
8010cabc:	2c000426 	addiu	a0,s0,44
8010cac0:	00fc4224 	addiu	v0,v0,-1024
8010cac4:	00140200 	sll	v0,v0,0x10
8010cac8:	03240200 	sra	a0,v0,0x10
8010cacc:	56000586 	lh	a1,86(s0)
8010cad0:	bedd010c 	jal	0x800776f8
8010cad4:	80000624 	li	a2,128
8010cad8:	c000038e 	lw	v1,192(s0)
8010cadc:	21200000 	move	a0,zero
8010cae0:	560002a6 	sh	v0,86(s0)
8010cae4:	08006584 	lh	a1,8(v1)
8010cae8:	bedd010c 	jal	0x800776f8
8010caec:	80000624 	li	a2,128
8010caf0:	c000038e 	lw	v1,192(s0)
8010caf4:	21200002 	move	a0,s0
8010caf8:	b353040c 	jal	0x80114ecc
8010cafc:	080062a4 	sh	v0,8(v1)
8010cb00:	29000292 	lbu	v0,41(s0)
8010cb04:	00000000 	nop
8010cb08:	10004010 	beqz	v0,0x8010cb4c
8010cb0c:	01000224 	li	v0,1
8010cb10:	6e002386 	lh	v1,110(s1)
8010cb14:	00000000 	nop
8010cb18:	02006214 	bne	v1,v0,0x8010cb24
8010cb1c:	88000424 	li	a0,136
8010cb20:	89000424 	li	a0,137
8010cb24:	21280000 	move	a1,zero
8010cb28:	64d1010c 	jal	0x80074590
8010cb2c:	2130a000 	move	a2,a1
8010cb30:	05000292 	lbu	v0,5(s0)
8010cb34:	03000324 	li	v1,3
8010cb38:	060000a2 	sb	zero,6(s0)
8010cb3c:	640000a6 	sh	zero,100(s0)
8010cb40:	070003a2 	sb	v1,7(s0)
8010cb44:	01004224 	addiu	v0,v0,1
8010cb48:	050002a2 	sb	v0,5(s0)
8010cb4c:	60000486 	lh	a0,96(s0)
8010cb50:	a00f020c 	jal	0x80083e80
8010cb54:	00000000 	nop
8010cb58:	03110200 	sra	v0,v0,0x4
8010cb5c:	7c000396 	lhu	v1,124(s0)
8010cb60:	60000496 	lhu	a0,96(s0)
8010cb64:	21186200 	addu	v1,v1,v0
8010cb68:	40008424 	addiu	a0,a0,64
8010cb6c:	ff0f8430 	andi	a0,a0,0xfff
8010cb70:	320003a6 	sh	v1,50(s0)
8010cb74:	600004a6 	sh	a0,96(s0)
8010cb78:	1800bf8f 	lw	ra,24(sp)
8010cb7c:	1400b18f 	lw	s1,20(sp)
8010cb80:	1000b08f 	lw	s0,16(sp)
8010cb84:	0800e003 	jr	ra
8010cb88:	2000bd27 	addiu	sp,sp,32
8010cb8c:	d8ffbd27 	addiu	sp,sp,-40
8010cb90:	1400b1af 	sw	s1,20(sp)
8010cb94:	21888000 	move	s1,a0
8010cb98:	801f023c 	lui	v0,0x1f80
8010cb9c:	2000bfaf 	sw	ra,32(sp)
8010cba0:	1c00b3af 	sw	s3,28(sp)
8010cba4:	1800b2af 	sw	s2,24(sp)
8010cba8:	1000b0af 	sw	s0,16(sp)
8010cbac:	06002492 	lbu	a0,6(s1)
8010cbb0:	4c02528c 	lw	s2,588(v0)
8010cbb4:	0500832c 	sltiu	v1,a0,5
8010cbb8:	de006010 	beqz	v1,0x8010cf34
8010cbbc:	1180023c 	lui	v0,0x8011
8010cbc0:	60924224 	addiu	v0,v0,-28064
8010cbc4:	80180400 	sll	v1,a0,0x2
8010cbc8:	21186200 	addu	v1,v1,v0
8010cbcc:	0000628c 	lw	v0,0(v1)
8010cbd0:	00000000 	nop
8010cbd4:	08004000 	jr	v0
8010cbd8:	00000000 	nop
8010cbdc:	21200000 	move	a0,zero
8010cbe0:	21288000 	move	a1,a0
8010cbe4:	81000624 	li	a2,129
8010cbe8:	7d48010c 	jal	0x800521f4
8010cbec:	02000724 	li	a3,2
8010cbf0:	b353040c 	jal	0x80114ecc
8010cbf4:	21202002 	move	a0,s1
8010cbf8:	21202002 	move	a0,s1
8010cbfc:	2e56040c 	jal	0x801158b8
8010cc00:	21284002 	move	a1,s2
8010cc04:	cb004010 	beqz	v0,0x8010cf34
8010cc08:	04000324 	li	v1,4
8010cc0c:	06002292 	lbu	v0,6(s1)
8010cc10:	070023a2 	sb	v1,7(s1)
8010cc14:	01004224 	addiu	v0,v0,1
8010cc18:	060022a2 	sb	v0,6(s1)
8010cc1c:	03000224 	li	v0,3
8010cc20:	060042a2 	sb	v0,6(s2)
8010cc24:	2e002396 	lhu	v1,46(s1)
8010cc28:	32002496 	lhu	a0,50(s1)
8010cc2c:	36002596 	lhu	a1,54(s1)
8010cc30:	00d00224 	li	v0,-12288
8010cc34:	440022a6 	sh	v0,68(s1)
8010cc38:	660023a6 	sh	v1,102(s1)
8010cc3c:	680024a6 	sh	a0,104(s1)
8010cc40:	b4570408 	j	0x80115ed0
8010cc44:	6a0025a6 	sh	a1,106(s1)
8010cc48:	b353040c 	jal	0x80114ecc
8010cc4c:	21202002 	move	a0,s1
8010cc50:	44002386 	lh	v1,68(s1)
8010cc54:	00000000 	nop
8010cc58:	01306328 	slti	v1,v1,12289
8010cc5c:	03006014 	bnez	v1,0x8010cc6c
8010cc60:	21984000 	move	s3,v0
8010cc64:	20570408 	j	0x80115c80
8010cc68:	01000524 	li	a1,1
8010cc6c:	56002486 	lh	a0,86(s1)
8010cc70:	d40f020c 	jal	0x80083f50
8010cc74:	00048424 	addiu	a0,a0,1024
8010cc78:	44002386 	lh	v1,68(s1)
8010cc7c:	00000000 	nop
8010cc80:	18004300 	mult	v0,v1
8010cc84:	56002486 	lh	a0,86(s1)
8010cc88:	00000000 	nop
8010cc8c:	00048424 	addiu	a0,a0,1024
8010cc90:	12400000 	mflo	t0
8010cc94:	a00f020c 	jal	0x80083e80
8010cc98:	03810800 	sra	s0,t0,0x4
8010cc9c:	44002386 	lh	v1,68(s1)
8010cca0:	00000000 	nop
8010cca4:	18004300 	mult	v0,v1
8010cca8:	0030043c 	lui	a0,0x3000
8010ccac:	44002396 	lhu	v1,68(s1)
8010ccb0:	2c00228e 	lw	v0,44(s1)
8010ccb4:	00056324 	addiu	v1,v1,1280
8010ccb8:	002c0300 	sll	a1,v1,0x10
8010ccbc:	2a288500 	slt	a1,a0,a1
8010ccc0:	440023a6 	sh	v1,68(s1)
8010ccc4:	3400238e 	lw	v1,52(s1)
8010ccc8:	21105000 	addu	v0,v0,s0
8010cccc:	2c0022ae 	sw	v0,44(s1)
8010ccd0:	12400000 	mflo	t0
8010ccd4:	23100800 	negu	v0,t0
8010ccd8:	03110200 	sra	v0,v0,0x4
8010ccdc:	21186200 	addu	v1,v1,v0
8010cce0:	340023ae 	sw	v1,52(s1)
8010cce4:	9300a010 	beqz	a1,0x8010cf34
8010cce8:	00000000 	nop
8010ccec:	91006012 	beqz	s3,0x8010cf34
8010ccf0:	00000000 	nop
8010ccf4:	66002296 	lhu	v0,102(s1)
8010ccf8:	6a002396 	lhu	v1,106(s1)
8010ccfc:	2e0022a6 	sh	v0,46(s1)
8010cd00:	360023a6 	sh	v1,54(s1)
8010cd04:	6e004296 	lhu	v0,110(s2)
8010cd08:	00000000 	nop
8010cd0c:	ffff4224 	addiu	v0,v0,-1
8010cd10:	6e0042a6 	sh	v0,110(s2)
8010cd14:	06002392 	lbu	v1,6(s1)
8010cd18:	06000224 	li	v0,6
8010cd1c:	070022a2 	sb	v0,7(s1)
8010cd20:	640020a6 	sh	zero,100(s1)
8010cd24:	01006324 	addiu	v1,v1,1
8010cd28:	b4570408 	j	0x80115ed0
8010cd2c:	060023a2 	sb	v1,6(s1)
8010cd30:	1469020c 	jal	0x8009a450
8010cd34:	00000000 	nop
8010cd38:	21202002 	move	a0,s1
8010cd3c:	68002396 	lhu	v1,104(s1)
8010cd40:	3f004230 	andi	v0,v0,0x3f
8010cd44:	e0ff6324 	addiu	v1,v1,-32
8010cd48:	21186200 	addu	v1,v1,v0
8010cd4c:	b353040c 	jal	0x80114ecc
8010cd50:	320023a6 	sh	v1,50(s1)
8010cd54:	77004010 	beqz	v0,0x8010cf34
8010cd58:	00000000 	nop
8010cd5c:	6e004286 	lh	v0,110(s2)
8010cd60:	00000000 	nop
8010cd64:	0c004014 	bnez	v0,0x8010cd98
8010cd68:	83000424 	li	a0,131
8010cd6c:	fe000424 	li	a0,254
8010cd70:	0c80023c 	lui	v0,0x800c
8010cd74:	01001024 	li	s0,1
8010cd78:	1cd4010c 	jal	0x80075070
8010cd7c:	4cf850a0 	sb	s0,-1972(v0)
8010cd80:	801f023c 	lui	v0,0x1f80
8010cd84:	590250a0 	sb	s0,601(v0)
8010cd88:	03000224 	li	v0,3
8010cd8c:	050022a2 	sb	v0,5(s1)
8010cd90:	b1570408 	j	0x80115ec4
8010cd94:	09000224 	li	v0,9
8010cd98:	21280000 	move	a1,zero
8010cd9c:	64d1010c 	jal	0x80074590
8010cda0:	2130a000 	move	a2,a1
8010cda4:	05000224 	li	v0,5
8010cda8:	070022a2 	sb	v0,7(s1)
8010cdac:	06002292 	lbu	v0,6(s1)
8010cdb0:	66002396 	lhu	v1,102(s1)
8010cdb4:	68002496 	lhu	a0,104(s1)
8010cdb8:	6a002596 	lhu	a1,106(s1)
8010cdbc:	640020a6 	sh	zero,100(s1)
8010cdc0:	01004224 	addiu	v0,v0,1
8010cdc4:	060022a2 	sb	v0,6(s1)
8010cdc8:	2e0023a6 	sh	v1,46(s1)
8010cdcc:	320024a6 	sh	a0,50(s1)
8010cdd0:	b4570408 	j	0x80115ed0
8010cdd4:	360025a6 	sh	a1,54(s1)
8010cdd8:	b353040c 	jal	0x80114ecc
8010cddc:	21202002 	move	a0,s1
8010cde0:	54004010 	beqz	v0,0x8010cf34
8010cde4:	01000424 	li	a0,1
8010cde8:	06002292 	lbu	v0,6(s1)
8010cdec:	0c80053c 	lui	a1,0x800c
8010cdf0:	21104400 	addu	v0,v0,a0
8010cdf4:	060022a2 	sb	v0,6(s1)
8010cdf8:	06000224 	li	v0,6
8010cdfc:	060042a2 	sb	v0,6(s2)
8010ce00:	070040a2 	sb	zero,7(s2)
8010ce04:	70f8a390 	lbu	v1,-1936(a1)
8010ce08:	0f000224 	li	v0,15
8010ce0c:	02006214 	bne	v1,v0,0x8010ce18
8010ce10:	00000000 	nop
8010ce14:	02000424 	li	a0,2
8010ce18:	6e004286 	lh	v0,110(s2)
8010ce1c:	00000000 	nop
8010ce20:	36004414 	bne	v0,a0,0x8010cefc
8010ce24:	14000224 	li	v0,20
8010ce28:	70f8a290 	lbu	v0,-1936(a1)
8010ce2c:	00000000 	nop
8010ce30:	f6ff4324 	addiu	v1,v0,-10
8010ce34:	0600622c 	sltiu	v0,v1,6
8010ce38:	2f004010 	beqz	v0,0x8010cef8
8010ce3c:	1180023c 	lui	v0,0x8011
8010ce40:	78924224 	addiu	v0,v0,-28040
8010ce44:	80180300 	sll	v1,v1,0x2
8010ce48:	21186200 	addu	v1,v1,v0
8010ce4c:	0000628c 	lw	v0,0(v1)
8010ce50:	00000000 	nop
8010ce54:	08004000 	jr	v0
8010ce58:	00000000 	nop
8010ce5c:	e000428e 	lw	v0,224(s2)
8010ce60:	00000000 	nop
8010ce64:	400040ac 	sw	zero,64(v0)
8010ce68:	e400428e 	lw	v0,228(s2)
8010ce6c:	a5570408 	j	0x80115e94
8010ce70:	400040ac 	sw	zero,64(v0)
8010ce74:	e400428e 	lw	v0,228(s2)
8010ce78:	00000000 	nop
8010ce7c:	400040ac 	sw	zero,64(v0)
8010ce80:	e800428e 	lw	v0,232(s2)
8010ce84:	00000000 	nop
8010ce88:	400040ac 	sw	zero,64(v0)
8010ce8c:	ec00428e 	lw	v0,236(s2)
8010ce90:	00000000 	nop
8010ce94:	400040ac 	sw	zero,64(v0)
8010ce98:	f000428e 	lw	v0,240(s2)
8010ce9c:	00000000 	nop
8010cea0:	400040ac 	sw	zero,64(v0)
8010cea4:	f400428e 	lw	v0,244(s2)
8010cea8:	00000000 	nop
8010ceac:	400040ac 	sw	zero,64(v0)
8010ceb0:	f800428e 	lw	v0,248(s2)
8010ceb4:	00000000 	nop
8010ceb8:	400040ac 	sw	zero,64(v0)
8010cebc:	fc00428e 	lw	v0,252(s2)
8010cec0:	00000000 	nop
8010cec4:	400040ac 	sw	zero,64(v0)
8010cec8:	0001428e 	lw	v0,256(s2)
8010cecc:	a5570408 	j	0x80115e94
8010ced0:	400040ac 	sw	zero,64(v0)
8010ced4:	e000428e 	lw	v0,224(s2)
8010ced8:	00000000 	nop
8010cedc:	400040ac 	sw	zero,64(v0)
8010cee0:	e400428e 	lw	v0,228(s2)
8010cee4:	00000000 	nop
8010cee8:	400040ac 	sw	zero,64(v0)
8010ceec:	e800428e 	lw	v0,232(s2)
8010cef0:	00000000 	nop
8010cef4:	400040ac 	sw	zero,64(v0)
8010cef8:	14000224 	li	v0,20
8010cefc:	b4570408 	j	0x80115ed0
8010cf00:	400022a6 	sh	v0,64(s1)
8010cf04:	40002296 	lhu	v0,64(s1)
8010cf08:	00000000 	nop
8010cf0c:	ffff4224 	addiu	v0,v0,-1
8010cf10:	400022a6 	sh	v0,64(s1)
8010cf14:	00140200 	sll	v0,v0,0x10
8010cf18:	06004014 	bnez	v0,0x8010cf34
8010cf1c:	02000224 	li	v0,2
8010cf20:	290020a2 	sb	zero,41(s1)
8010cf24:	050020a2 	sb	zero,5(s1)
8010cf28:	060020a2 	sb	zero,6(s1)
8010cf2c:	070022a2 	sb	v0,7(s1)
8010cf30:	640020a6 	sh	zero,100(s1)
8010cf34:	2000bf8f 	lw	ra,32(sp)
8010cf38:	1c00b38f 	lw	s3,28(sp)
8010cf3c:	1800b28f 	lw	s2,24(sp)
8010cf40:	1400b18f 	lw	s1,20(sp)
8010cf44:	1000b08f 	lw	s0,16(sp)
8010cf48:	0800e003 	jr	ra
8010cf4c:	2800bd27 	addiu	sp,sp,40
8010cf50:	e0ffbd27 	addiu	sp,sp,-32
8010cf54:	1000b0af 	sw	s0,16(sp)
8010cf58:	21808000 	move	s0,a0
8010cf5c:	0e80023c 	lui	v0,0x800e
8010cf60:	1400b1af 	sw	s1,20(sp)
8010cf64:	807e5124 	addiu	s1,v0,32384
8010cf68:	801f023c 	lui	v0,0x1f80
8010cf6c:	1c00bfaf 	sw	ra,28(sp)
8010cf70:	1800b2af 	sw	s2,24(sp)
8010cf74:	06000492 	lbu	a0,6(s0)
8010cf78:	4c02528c 	lw	s2,588(v0)
8010cf7c:	0b00832c 	sltiu	v1,a0,11
8010cf80:	23016010 	beqz	v1,0x8010d410
8010cf84:	1180023c 	lui	v0,0x8011
8010cf88:	90924224 	addiu	v0,v0,-28016
8010cf8c:	80180400 	sll	v1,a0,0x2
8010cf90:	21186200 	addu	v1,v1,v0
8010cf94:	0000628c 	lw	v0,0(v1)
8010cf98:	00000000 	nop
8010cf9c:	08004000 	jr	v0
8010cfa0:	00000000 	nop
8010cfa4:	b353040c 	jal	0x80114ecc
8010cfa8:	21200002 	move	a0,s0
8010cfac:	18014010 	beqz	v0,0x8010d410
8010cfb0:	0c80023c 	lui	v0,0x800c
8010cfb4:	70f84490 	lbu	a0,-1936(v0)
8010cfb8:	a634010c 	jal	0x8004d298
8010cfbc:	f6ff8424 	addiu	a0,a0,-10
8010cfc0:	03000224 	li	v0,3
8010cfc4:	040042a2 	sb	v0,4(s2)
8010cfc8:	06000292 	lbu	v0,6(s0)
8010cfcc:	1e000324 	li	v1,30
8010cfd0:	400003a6 	sh	v1,64(s0)
8010cfd4:	ea580408 	j	0x801163a8
8010cfd8:	01004224 	addiu	v0,v0,1
8010cfdc:	40000296 	lhu	v0,64(s0)
8010cfe0:	00000000 	nop
8010cfe4:	ffff4224 	addiu	v0,v0,-1
8010cfe8:	400002a6 	sh	v0,64(s0)
8010cfec:	00140200 	sll	v0,v0,0x10
8010cff0:	07014014 	bnez	v0,0x8010d410
8010cff4:	2c000526 	addiu	a1,s0,44
8010cff8:	3c000224 	li	v0,60
8010cffc:	1280033c 	lui	v1,0x8012
8010d000:	400002a6 	sh	v0,64(s0)
8010d004:	0c80023c 	lui	v0,0x800c
8010d008:	70f84290 	lbu	v0,-1936(v0)
8010d00c:	d0456324 	addiu	v1,v1,17872
8010d010:	f6ff4224 	addiu	v0,v0,-10
8010d014:	80100200 	sll	v0,v0,0x2
8010d018:	21104300 	addu	v0,v0,v1
8010d01c:	0000448c 	lw	a0,0(v0)
8010d020:	5bc4000c 	jal	0x8003116c
8010d024:	b0ff0624 	li	a2,-80
8010d028:	84000424 	li	a0,132
8010d02c:	21280000 	move	a1,zero
8010d030:	06000292 	lbu	v0,6(s0)
8010d034:	2130a000 	move	a2,a1
8010d038:	01004224 	addiu	v0,v0,1
8010d03c:	64d1010c 	jal	0x80074590
8010d040:	060002a2 	sb	v0,6(s0)
8010d044:	eb580408 	j	0x801163ac
8010d048:	00000000 	nop
8010d04c:	b8000296 	lhu	v0,184(s0)
8010d050:	00000000 	nop
8010d054:	80ff4224 	addiu	v0,v0,-128
8010d058:	b80002a6 	sh	v0,184(s0)
8010d05c:	00140200 	sll	v0,v0,0x10
8010d060:	02004104 	bgez	v0,0x8010d06c
8010d064:	00000000 	nop
8010d068:	b80000a6 	sh	zero,184(s0)
8010d06c:	40000296 	lhu	v0,64(s0)
8010d070:	b8000396 	lhu	v1,184(s0)
8010d074:	ffff4224 	addiu	v0,v0,-1
8010d078:	400002a6 	sh	v0,64(s0)
8010d07c:	00140200 	sll	v0,v0,0x10
8010d080:	bc0003a6 	sh	v1,188(s0)
8010d084:	e2004014 	bnez	v0,0x8010d410
8010d088:	ba0003a6 	sh	v1,186(s0)
8010d08c:	06000292 	lbu	v0,6(s0)
8010d090:	1280033c 	lui	v1,0x8012
8010d094:	01004224 	addiu	v0,v0,1
8010d098:	060002a2 	sb	v0,6(s0)
8010d09c:	0c80103c 	lui	s0,0x800c
8010d0a0:	70f80292 	lbu	v0,-1936(s0)
8010d0a4:	00466324 	addiu	v1,v1,17920
8010d0a8:	f6ff4224 	addiu	v0,v0,-10
8010d0ac:	40100200 	sll	v0,v0,0x1
8010d0b0:	21104300 	addu	v0,v0,v1
8010d0b4:	00004484 	lh	a0,0(v0)
8010d0b8:	0003010c 	jal	0x80040c00
8010d0bc:	70f81126 	addiu	s1,s0,-1936
8010d0c0:	70f80392 	lbu	v1,-1936(s0)
8010d0c4:	0a000224 	li	v0,10
8010d0c8:	05006210 	beq	v1,v0,0x8010d0e0
8010d0cc:	0d000224 	li	v0,13
8010d0d0:	06006210 	beq	v1,v0,0x8010d0ec
8010d0d4:	801f033c 	lui	v1,0x1f80
8010d0d8:	26580408 	j	0x80116098
8010d0dc:	02000224 	li	v0,2
8010d0e0:	06000224 	li	v0,6
8010d0e4:	24580408 	j	0x80116090
8010d0e8:	890122a2 	sb	v0,393(s1)
8010d0ec:	05000224 	li	v0,5
8010d0f0:	670122a2 	sb	v0,359(s1)
8010d0f4:	801f033c 	lui	v1,0x1f80
8010d0f8:	02000224 	li	v0,2
8010d0fc:	eb580408 	j	0x801163ac
8010d100:	370162a0 	sb	v0,311(v1)
8010d104:	ca09010c 	jal	0x80042728
8010d108:	00000000 	nop
8010d10c:	c0004010 	beqz	v0,0x8010d410
8010d110:	801f023c 	lui	v0,0x1f80
8010d114:	460240a0 	sb	zero,582(v0)
8010d118:	0c80023c 	lui	v0,0x800c
8010d11c:	0a80033c 	lui	v1,0x800a
8010d120:	41f840a0 	sb	zero,-1983(v0)
8010d124:	0c80023c 	lui	v0,0x800c
8010d128:	70f84490 	lbu	a0,-1936(v0)
8010d12c:	a8546324 	addiu	v1,v1,21672
8010d130:	80100400 	sll	v0,a0,0x2
8010d134:	21104300 	addu	v0,v0,v1
8010d138:	0000478c 	lw	a3,0(v0)
8010d13c:	0e000224 	li	v0,14
8010d140:	02008214 	bne	a0,v0,0x8010d14c
8010d144:	00000000 	nop
8010d148:	1000e724 	addiu	a3,a3,16
8010d14c:	0000e284 	lh	v0,0(a3)
8010d150:	7e012386 	lh	v1,382(s1)
8010d154:	00140200 	sll	v0,v0,0x10
8010d158:	0a006104 	bgez	v1,0x8010d184
8010d15c:	2c0022ae 	sw	v0,44(s1)
8010d160:	0200e284 	lh	v0,2(a3)
8010d164:	00000000 	nop
8010d168:	00140200 	sll	v0,v0,0x10
8010d16c:	300022ae 	sw	v0,48(s1)
8010d170:	32002296 	lhu	v0,50(s1)
8010d174:	00000000 	nop
8010d178:	46004224 	addiu	v0,v0,70
8010d17c:	4c580408 	j	0x80116130
8010d180:	320022a6 	sh	v0,50(s1)
8010d184:	0200e284 	lh	v0,2(a3)
8010d188:	00000000 	nop
8010d18c:	00140200 	sll	v0,v0,0x10
8010d190:	300022ae 	sw	v0,48(s1)
8010d194:	21202002 	move	a0,s1
8010d198:	c4000524 	li	a1,196
8010d19c:	0400e284 	lh	v0,4(a3)
8010d1a0:	21300000 	move	a2,zero
8010d1a4:	00140200 	sll	v0,v0,0x10
8010d1a8:	340022ae 	sw	v0,52(s1)
8010d1ac:	0600e394 	lhu	v1,6(a3)
8010d1b0:	04000224 	li	v0,4
8010d1b4:	040022a2 	sb	v0,4(s1)
8010d1b8:	21000224 	li	v0,33
8010d1bc:	050022a2 	sb	v0,5(s1)
8010d1c0:	060020a2 	sb	zero,6(s1)
8010d1c4:	070020a2 	sb	zero,7(s1)
8010d1c8:	7f006230 	andi	v0,v1,0x7f
8010d1cc:	021a0300 	srl	v1,v1,0x8
8010d1d0:	01006330 	andi	v1,v1,0x1
8010d1d4:	2a0022a2 	sb	v0,42(s1)
8010d1d8:	4553010c 	jal	0x80054d14
8010d1dc:	470123a2 	sb	v1,327(s1)
8010d1e0:	5757010c 	jal	0x80055d5c
8010d1e4:	21202002 	move	a0,s1
8010d1e8:	a154010c 	jal	0x80055284
8010d1ec:	21202002 	move	a0,s1
8010d1f0:	2e002296 	lhu	v0,46(s1)
8010d1f4:	06000392 	lbu	v1,6(s0)
8010d1f8:	2e0002a6 	sh	v0,46(s0)
8010d1fc:	32002296 	lhu	v0,50(s1)
8010d200:	01006324 	addiu	v1,v1,1
8010d204:	18fc4224 	addiu	v0,v0,-1000
8010d208:	320002a6 	sh	v0,50(s0)
8010d20c:	36002496 	lhu	a0,54(s1)
8010d210:	00300224 	li	v0,12288
8010d214:	4a0002a6 	sh	v0,74(s0)
8010d218:	00080224 	li	v0,2048
8010d21c:	b80002a6 	sh	v0,184(s0)
8010d220:	bc0002a6 	sh	v0,188(s0)
8010d224:	ba0002a6 	sh	v0,186(s0)
8010d228:	060003a2 	sb	v1,6(s0)
8010d22c:	eb580408 	j	0x801163ac
8010d230:	360004a6 	sh	a0,54(s0)
8010d234:	4a000296 	lhu	v0,74(s0)
8010d238:	00000000 	nop
8010d23c:	00fe4224 	addiu	v0,v0,-512
8010d240:	4a0002a6 	sh	v0,74(s0)
8010d244:	00140200 	sll	v0,v0,0x10
8010d248:	16004104 	bgez	v0,0x8010d2a4
8010d24c:	0c80023c 	lui	v0,0x800c
8010d250:	4a0000a6 	sh	zero,74(s0)
8010d254:	70f84390 	lbu	v1,-1936(v0)
8010d258:	0f000224 	li	v0,15
8010d25c:	0d006214 	bne	v1,v0,0x8010d294
8010d260:	14000324 	li	v1,20
8010d264:	21200002 	move	a0,s0
8010d268:	21280000 	move	a1,zero
8010d26c:	1280063c 	lui	a2,0x8012
8010d270:	f043c624 	addiu	a2,a2,17392
8010d274:	801f033c 	lui	v1,0x1f80
8010d278:	01000224 	li	v0,1
8010d27c:	3703010c 	jal	0x80040cdc
8010d280:	370162a0 	sb	v0,311(v1)
8010d284:	02000224 	li	v0,2
8010d288:	700002a2 	sb	v0,112(s0)
8010d28c:	8f580408 	j	0x8011623c
8010d290:	0a000224 	li	v0,10
8010d294:	06000292 	lbu	v0,6(s0)
8010d298:	400003a6 	sh	v1,64(s0)
8010d29c:	01004224 	addiu	v0,v0,1
8010d2a0:	060002a2 	sb	v0,6(s0)
8010d2a4:	4a000286 	lh	v0,74(s0)
8010d2a8:	3000038e 	lw	v1,48(s0)
8010d2ac:	00120200 	sll	v0,v0,0x8
8010d2b0:	21186200 	addu	v1,v1,v0
8010d2b4:	eb580408 	j	0x801163ac
8010d2b8:	300003ae 	sw	v1,48(s0)
8010d2bc:	40000296 	lhu	v0,64(s0)
8010d2c0:	00000000 	nop
8010d2c4:	ffff4224 	addiu	v0,v0,-1
8010d2c8:	400002a6 	sh	v0,64(s0)
8010d2cc:	00140200 	sll	v0,v0,0x10
8010d2d0:	4f004014 	bnez	v0,0x8010d410
8010d2d4:	2c000526 	addiu	a1,s0,44
8010d2d8:	1280033c 	lui	v1,0x8012
8010d2dc:	0c80023c 	lui	v0,0x800c
8010d2e0:	70f84290 	lbu	v0,-1936(v0)
8010d2e4:	e8456324 	addiu	v1,v1,17896
8010d2e8:	f6ff4224 	addiu	v0,v0,-10
8010d2ec:	80100200 	sll	v0,v0,0x2
8010d2f0:	21104300 	addu	v0,v0,v1
8010d2f4:	0000448c 	lw	a0,0(v0)
8010d2f8:	5bc4000c 	jal	0x8003116c
8010d2fc:	e2ff0624 	li	a2,-30
8010d300:	85000424 	li	a0,133
8010d304:	21280000 	move	a1,zero
8010d308:	64d1010c 	jal	0x80074590
8010d30c:	2130a000 	move	a2,a1
8010d310:	06000292 	lbu	v0,6(s0)
8010d314:	05000324 	li	v1,5
8010d318:	400003a6 	sh	v1,64(s0)
8010d31c:	ea580408 	j	0x801163a8
8010d320:	01004224 	addiu	v0,v0,1
8010d324:	40000296 	lhu	v0,64(s0)
8010d328:	01000324 	li	v1,1
8010d32c:	010003a2 	sb	v1,1(s0)
8010d330:	ffff4224 	addiu	v0,v0,-1
8010d334:	400002a6 	sh	v0,64(s0)
8010d338:	00140200 	sll	v0,v0,0x10
8010d33c:	34004014 	bnez	v0,0x8010d410
8010d340:	00000000 	nop
8010d344:	06000292 	lbu	v0,6(s0)
8010d348:	00000000 	nop
8010d34c:	01004224 	addiu	v0,v0,1
8010d350:	060002a2 	sb	v0,6(s0)
8010d354:	0c80023c 	lui	v0,0x800c
8010d358:	70f84390 	lbu	v1,-1936(v0)
8010d35c:	0f000224 	li	v0,15
8010d360:	13006210 	beq	v1,v0,0x8010d3b0
8010d364:	21200000 	move	a0,zero
8010d368:	03000524 	li	a1,3
8010d36c:	05000624 	li	a2,5
8010d370:	77cb010c 	jal	0x80072ddc
8010d374:	2138a000 	move	a3,a1
8010d378:	21184000 	move	v1,v0
8010d37c:	24006010 	beqz	v1,0x8010d410
8010d380:	1180023c 	lui	v0,0x8011
8010d384:	f8544224 	addiu	v0,v0,21752
8010d388:	1c0062ac 	sw	v0,28(v1)
8010d38c:	2e000296 	lhu	v0,46(s0)
8010d390:	00000000 	nop
8010d394:	2e0062a4 	sh	v0,46(v1)
8010d398:	32000296 	lhu	v0,50(s0)
8010d39c:	00000000 	nop
8010d3a0:	320062a4 	sh	v0,50(v1)
8010d3a4:	36000296 	lhu	v0,54(s0)
8010d3a8:	eb580408 	j	0x801163ac
8010d3ac:	360062a4 	sh	v0,54(v1)
8010d3b0:	03000524 	li	a1,3
8010d3b4:	2130a000 	move	a2,a1
8010d3b8:	77cb010c 	jal	0x80072ddc
8010d3bc:	24000724 	li	a3,36
8010d3c0:	21184000 	move	v1,v0
8010d3c4:	12006010 	beqz	v1,0x8010d410
8010d3c8:	1180023c 	lui	v0,0x8011
8010d3cc:	a47f4224 	addiu	v0,v0,32676
8010d3d0:	eb580408 	j	0x801163ac
8010d3d4:	1c0062ac 	sw	v0,28(v1)
8010d3d8:	01000224 	li	v0,1
8010d3dc:	010002a2 	sb	v0,1(s0)
8010d3e0:	03000224 	li	v0,3
8010d3e4:	eb580408 	j	0x801163ac
8010d3e8:	040002a2 	sb	v0,4(s0)
8010d3ec:	2604010c 	jal	0x80041098
8010d3f0:	21200002 	move	a0,s0
8010d3f4:	70000392 	lbu	v1,112(s0)
8010d3f8:	ff000224 	li	v0,255
8010d3fc:	04006214 	bne	v1,v0,0x8010d410
8010d400:	14000224 	li	v0,20
8010d404:	400002a6 	sh	v0,64(s0)
8010d408:	05000224 	li	v0,5
8010d40c:	060002a2 	sb	v0,6(s0)
8010d410:	1c00bf8f 	lw	ra,28(sp)
8010d414:	1800b28f 	lw	s2,24(sp)
8010d418:	1400b18f 	lw	s1,20(sp)
8010d41c:	1000b08f 	lw	s0,16(sp)
8010d420:	0800e003 	jr	ra
8010d424:	2000bd27 	addiu	sp,sp,32
8010d428:	d8ffbd27 	addiu	sp,sp,-40
8010d42c:	1000b0af 	sw	s0,16(sp)
8010d430:	21808000 	move	s0,a0
8010d434:	801f023c 	lui	v0,0x1f80
8010d438:	2000b4af 	sw	s4,32(sp)
8010d43c:	d0005424 	addiu	s4,v0,208
8010d440:	2400bfaf 	sw	ra,36(sp)
8010d444:	1c00b3af 	sw	s3,28(sp)
8010d448:	1800b2af 	sw	s2,24(sp)
8010d44c:	1400b1af 	sw	s1,20(sp)
8010d450:	2e000296 	lhu	v0,46(s0)
8010d454:	02008396 	lhu	v1,2(s4)
8010d458:	00000000 	nop
8010d45c:	23104300 	subu	v0,v0,v1
8010d460:	00140200 	sll	v0,v0,0x10
8010d464:	039c0200 	sra	s3,v0,0x10
8010d468:	18007302 	mult	s3,s3
8010d46c:	32000296 	lhu	v0,50(s0)
8010d470:	06008396 	lhu	v1,6(s4)
8010d474:	00000000 	nop
8010d478:	23104300 	subu	v0,v0,v1
8010d47c:	12280000 	mflo	a1
8010d480:	00140200 	sll	v0,v0,0x10
8010d484:	03940200 	sra	s2,v0,0x10
8010d488:	18005202 	mult	s2,s2
8010d48c:	36000296 	lhu	v0,54(s0)
8010d490:	0a008396 	lhu	v1,10(s4)
8010d494:	00000000 	nop
8010d498:	23104300 	subu	v0,v0,v1
8010d49c:	12200000 	mflo	a0
8010d4a0:	00140200 	sll	v0,v0,0x10
8010d4a4:	038c0200 	sra	s1,v0,0x10
8010d4a8:	18003102 	mult	s1,s1
8010d4ac:	2120a400 	addu	a0,a1,a0
8010d4b0:	12180000 	mflo	v1
8010d4b4:	ecdf010c 	jal	0x80077fb0
8010d4b8:	21208300 	addu	a0,a0,v1
8010d4bc:	ffff4330 	andi	v1,v0,0xffff
8010d4c0:	00026228 	slti	v0,v1,512
8010d4c4:	26004014 	bnez	v0,0x8010d560
8010d4c8:	010000a2 	sb	zero,1(s0)
8010d4cc:	01236228 	slti	v0,v1,8961
8010d4d0:	23004010 	beqz	v0,0x8010d560
8010d4d4:	80180300 	sll	v1,v1,0x2
8010d4d8:	18008286 	lh	v0,24(s4)
8010d4dc:	00000000 	nop
8010d4e0:	18005300 	mult	v0,s3
8010d4e4:	12280000 	mflo	a1
8010d4e8:	1a008286 	lh	v0,26(s4)
8010d4ec:	00000000 	nop
8010d4f0:	18005200 	mult	v0,s2
8010d4f4:	12200000 	mflo	a0
8010d4f8:	1c008286 	lh	v0,28(s4)
8010d4fc:	00000000 	nop
8010d500:	18005100 	mult	v0,s1
8010d504:	12380000 	mflo	a3
8010d508:	2110a400 	addu	v0,a1,a0
8010d50c:	21104700 	addu	v0,v0,a3
8010d510:	1a004300 	div	zero,v0,v1
8010d514:	02006014 	bnez	v1,0x8010d520
8010d518:	00000000 	nop
8010d51c:	0d000700 	break	0x7
8010d520:	ffff0124 	li	at,-1
8010d524:	04006114 	bne	v1,at,0x8010d538
8010d528:	0080013c 	lui	at,0x8000
8010d52c:	02004114 	bne	v0,at,0x8010d538
8010d530:	00000000 	nop
8010d534:	0d000600 	break	0x6
8010d538:	12100000 	mflo	v0
8010d53c:	00000000 	nop
8010d540:	58034228 	slti	v0,v0,856
8010d544:	06004014 	bnez	v0,0x8010d560
8010d548:	01000224 	li	v0,1
8010d54c:	010002a2 	sb	v0,1(s0)
8010d550:	afdf010c 	jal	0x80077ebc
8010d554:	21200002 	move	a0,s0
8010d558:	40590408 	j	0x80116500
8010d55c:	01000224 	li	v0,1
8010d560:	21100000 	move	v0,zero
8010d564:	2400bf8f 	lw	ra,36(sp)
8010d568:	2000b48f 	lw	s4,32(sp)
8010d56c:	1c00b38f 	lw	s3,28(sp)
8010d570:	1800b28f 	lw	s2,24(sp)
8010d574:	1400b18f 	lw	s1,20(sp)
8010d578:	1000b08f 	lw	s0,16(sp)
8010d57c:	0800e003 	jr	ra
8010d580:	2800bd27 	addiu	sp,sp,40
8010d584:	e0ffbd27 	addiu	sp,sp,-32
8010d588:	1000b0af 	sw	s0,16(sp)
8010d58c:	21808000 	move	s0,a0
8010d590:	1c00bfaf 	sw	ra,28(sp)
8010d594:	1800b2af 	sw	s2,24(sp)
8010d598:	1400b1af 	sw	s1,20(sp)
8010d59c:	04001192 	lbu	s1,4(s0)
8010d5a0:	01001224 	li	s2,1
8010d5a4:	84003212 	beq	s1,s2,0x8010d7b8
8010d5a8:	0200222a 	slti	v0,s1,2
8010d5ac:	05004010 	beqz	v0,0x8010d5c4
8010d5b0:	00000000 	nop
8010d5b4:	08002012 	beqz	s1,0x8010d5d8
8010d5b8:	00000000 	nop
8010d5bc:	725a0408 	j	0x801169c8
8010d5c0:	00000000 	nop
8010d5c4:	0400222a 	slti	v0,s1,4
8010d5c8:	18014010 	beqz	v0,0x8010da2c
8010d5cc:	00000000 	nop
8010d5d0:	705a0408 	j	0x801169c0
8010d5d4:	00000000 	nop
8010d5d8:	05000392 	lbu	v1,5(s0)
8010d5dc:	00000000 	nop
8010d5e0:	12017210 	beq	v1,s2,0x8010da2c
8010d5e4:	02006228 	slti	v0,v1,2
8010d5e8:	05004010 	beqz	v0,0x8010d600
8010d5ec:	00000000 	nop
8010d5f0:	0a006010 	beqz	v1,0x8010d61c
8010d5f4:	21200002 	move	a0,s0
8010d5f8:	725a0408 	j	0x801169c8
8010d5fc:	00000000 	nop
8010d600:	02000224 	li	v0,2
8010d604:	3d006210 	beq	v1,v0,0x8010d6fc
8010d608:	03000224 	li	v0,3
8010d60c:	50006210 	beq	v1,v0,0x8010d750
8010d610:	801f023c 	lui	v0,0x1f80
8010d614:	725a0408 	j	0x801169c8
8010d618:	00000000 	nop
8010d61c:	0c000524 	li	a1,12
8010d620:	dc46010c 	jal	0x80051b70
8010d624:	03000624 	li	a2,3
8010d628:	00014014 	bnez	v0,0x8010da2c
8010d62c:	90010224 	li	v0,400
8010d630:	800002a6 	sh	v0,128(s0)
8010d634:	20030224 	li	v0,800
8010d638:	820002a6 	sh	v0,130(s0)
8010d63c:	64000224 	li	v0,100
8010d640:	840002a6 	sh	v0,132(s0)
8010d644:	c8000224 	li	v0,200
8010d648:	860002a6 	sh	v0,134(s0)
8010d64c:	00040224 	li	v0,1024
8010d650:	620002a6 	sh	v0,98(s0)
8010d654:	bc020224 	li	v0,700
8010d658:	8c230424 	li	a0,9100
8010d65c:	62000596 	lhu	a1,98(s0)
8010d660:	88e10324 	li	v1,-7800
8010d664:	780002a6 	sh	v0,120(s0)
8010d668:	002f0224 	li	v0,12032
8010d66c:	7e0002a6 	sh	v0,126(s0)
8010d670:	360002a6 	sh	v0,54(s0)
8010d674:	0c80023c 	lui	v0,0x800c
8010d678:	000012a2 	sb	s2,0(s0)
8010d67c:	290000a2 	sb	zero,41(s0)
8010d680:	600000a6 	sh	zero,96(s0)
8010d684:	640000a6 	sh	zero,100(s0)
8010d688:	540000a6 	sh	zero,84(s0)
8010d68c:	580000a6 	sh	zero,88(s0)
8010d690:	760000a6 	sh	zero,118(s0)
8010d694:	7a0004a6 	sh	a0,122(s0)
8010d698:	7c0003a6 	sh	v1,124(s0)
8010d69c:	400000a6 	sh	zero,64(s0)
8010d6a0:	320003a6 	sh	v1,50(s0)
8010d6a4:	2e0004a6 	sh	a0,46(s0)
8010d6a8:	560005a6 	sh	a1,86(s0)
8010d6ac:	1afa4290 	lbu	v0,-1510(v0)
8010d6b0:	801f033c 	lui	v1,0x1f80
8010d6b4:	02004230 	andi	v0,v0,0x2
8010d6b8:	06004010 	beqz	v0,0x8010d6d4
8010d6bc:	480270ac 	sw	s0,584(v1)
8010d6c0:	04000292 	lbu	v0,4(s0)
8010d6c4:	00000000 	nop
8010d6c8:	01004224 	addiu	v0,v0,1
8010d6cc:	a2590408 	j	0x80116688
8010d6d0:	040002a2 	sb	v0,4(s0)
8010d6d4:	05000292 	lbu	v0,5(s0)
8010d6d8:	32000396 	lhu	v1,50(s0)
8010d6dc:	01004224 	addiu	v0,v0,1
8010d6e0:	30f86324 	addiu	v1,v1,-2000
8010d6e4:	050002a2 	sb	v0,5(s0)
8010d6e8:	320003a6 	sh	v1,50(s0)
8010d6ec:	eab2010c 	jal	0x8006cba8
8010d6f0:	2c000426 	addiu	a0,s0,44
8010d6f4:	725a0408 	j	0x801169c8
8010d6f8:	00000000 	nop
8010d6fc:	32000296 	lhu	v0,50(s0)
8010d700:	7c000386 	lh	v1,124(s0)
8010d704:	10004224 	addiu	v0,v0,16
8010d708:	320002a6 	sh	v0,50(s0)
8010d70c:	00140200 	sll	v0,v0,0x10
8010d710:	03140200 	sra	v0,v0,0x10
8010d714:	2a186200 	slt	v1,v1,v0
8010d718:	7c000296 	lhu	v0,124(s0)
8010d71c:	08006010 	beqz	v1,0x8010d740
8010d720:	00000000 	nop
8010d724:	79b8010c 	jal	0x8006e1e4
8010d728:	320002a6 	sh	v0,50(s0)
8010d72c:	05000292 	lbu	v0,5(s0)
8010d730:	00000000 	nop
8010d734:	01004224 	addiu	v0,v0,1
8010d738:	b9590408 	j	0x801166e4
8010d73c:	050002a2 	sb	v0,5(s0)
8010d740:	eab2010c 	jal	0x8006cba8
8010d744:	2c000426 	addiu	a0,s0,44
8010d748:	cd590408 	j	0x80116734
8010d74c:	21200002 	move	a0,s0
8010d750:	37014290 	lbu	v0,311(v0)
8010d754:	00000000 	nop
8010d758:	03004014 	bnez	v0,0x8010d768
8010d75c:	00000000 	nop
8010d760:	040012a2 	sb	s2,4(s0)
8010d764:	050000a2 	sb	zero,5(s0)
8010d768:	60000486 	lh	a0,96(s0)
8010d76c:	a00f020c 	jal	0x80083e80
8010d770:	00000000 	nop
8010d774:	21200002 	move	a0,s0
8010d778:	03110200 	sra	v0,v0,0x4
8010d77c:	7c000396 	lhu	v1,124(s0)
8010d780:	60000596 	lhu	a1,96(s0)
8010d784:	21186200 	addu	v1,v1,v0
8010d788:	4000a524 	addiu	a1,a1,64
8010d78c:	ff0fa530 	andi	a1,a1,0xfff
8010d790:	320003a6 	sh	v1,50(s0)
8010d794:	600005a6 	sh	a1,96(s0)
8010d798:	e3dd010c 	jal	0x8007778c
8010d79c:	00000000 	nop
8010d7a0:	a2004010 	beqz	v0,0x8010da2c
8010d7a4:	00000000 	nop
8010d7a8:	fe45010c 	jal	0x800517f8
8010d7ac:	21200002 	move	a0,s0
8010d7b0:	725a0408 	j	0x801169c8
8010d7b4:	00000000 	nop
8010d7b8:	05000392 	lbu	v1,5(s0)
8010d7bc:	00000000 	nop
8010d7c0:	6a007110 	beq	v1,s1,0x8010d96c
8010d7c4:	02006228 	slti	v0,v1,2
8010d7c8:	05004010 	beqz	v0,0x8010d7e0
8010d7cc:	02000224 	li	v0,2
8010d7d0:	09006010 	beqz	v1,0x8010d7f8
8010d7d4:	21200002 	move	a0,s0
8010d7d8:	5c5a0408 	j	0x80116970
8010d7dc:	00000000 	nop
8010d7e0:	76006210 	beq	v1,v0,0x8010d9bc
8010d7e4:	03000224 	li	v0,3
8010d7e8:	78006210 	beq	v1,v0,0x8010d9cc
8010d7ec:	00000000 	nop
8010d7f0:	5c5a0408 	j	0x80116970
8010d7f4:	00000000 	nop
8010d7f8:	76000396 	lhu	v1,118(s0)
8010d7fc:	8c230224 	li	v0,9100
8010d800:	2e0002a6 	sh	v0,46(s0)
8010d804:	002f0224 	li	v0,12032
8010d808:	360002a6 	sh	v0,54(s0)
8010d80c:	62000296 	lhu	v0,98(s0)
8010d810:	10006324 	addiu	v1,v1,16
8010d814:	ff0f6330 	andi	v1,v1,0xfff
8010d818:	08004224 	addiu	v0,v0,8
8010d81c:	ff0f4230 	andi	v0,v0,0xfff
8010d820:	760003a6 	sh	v1,118(s0)
8010d824:	b353040c 	jal	0x80114ecc
8010d828:	620002a6 	sh	v0,98(s0)
8010d82c:	801f023c 	lui	v0,0x1f80
8010d830:	46024290 	lbu	v0,582(v0)
8010d834:	00000000 	nop
8010d838:	04004014 	bnez	v0,0x8010d84c
8010d83c:	00000000 	nop
8010d840:	62000296 	lhu	v0,98(s0)
8010d844:	0b5a0408 	j	0x8011682c
8010d848:	560002a6 	sh	v0,86(s0)
8010d84c:	05000292 	lbu	v0,5(s0)
8010d850:	070011a2 	sb	s1,7(s0)
8010d854:	01004224 	addiu	v0,v0,1
8010d858:	050002a2 	sb	v0,5(s0)
8010d85c:	801f023c 	lui	v0,0x1f80
8010d860:	60014584 	lh	a1,352(v0)
8010d864:	801f023c 	lui	v0,0x1f80
8010d868:	64014684 	lh	a2,356(v0)
8010d86c:	ace0010c 	jal	0x800782b0
8010d870:	2c000426 	addiu	a0,s0,44
8010d874:	00fc4224 	addiu	v0,v0,-1024
8010d878:	00140200 	sll	v0,v0,0x10
8010d87c:	03240200 	sra	a0,v0,0x10
8010d880:	56000586 	lh	a1,86(s0)
8010d884:	bedd010c 	jal	0x800776f8
8010d888:	80000624 	li	a2,128
8010d88c:	560002a6 	sh	v0,86(s0)
8010d890:	c000038e 	lw	v1,192(s0)
8010d894:	00000000 	nop
8010d898:	08006294 	lhu	v0,8(v1)
8010d89c:	00000000 	nop
8010d8a0:	40004224 	addiu	v0,v0,64
8010d8a4:	080062a4 	sh	v0,8(v1)
8010d8a8:	c000038e 	lw	v1,192(s0)
8010d8ac:	00000000 	nop
8010d8b0:	08006294 	lhu	v0,8(v1)
8010d8b4:	00000000 	nop
8010d8b8:	ff0f4230 	andi	v0,v0,0xfff
8010d8bc:	080062a4 	sh	v0,8(v1)
8010d8c0:	60000486 	lh	a0,96(s0)
8010d8c4:	a00f020c 	jal	0x80083e80
8010d8c8:	00000000 	nop
8010d8cc:	03110200 	sra	v0,v0,0x4
8010d8d0:	7c000396 	lhu	v1,124(s0)
8010d8d4:	60000496 	lhu	a0,96(s0)
8010d8d8:	21186200 	addu	v1,v1,v0
8010d8dc:	40008424 	addiu	a0,a0,64
8010d8e0:	ff0f8430 	andi	a0,a0,0xfff
8010d8e4:	0e80023c 	lui	v0,0x800e
8010d8e8:	320003a6 	sh	v1,50(s0)
8010d8ec:	600004a6 	sh	a0,96(s0)
8010d8f0:	b27e4494 	lhu	a0,32434(v0)
8010d8f4:	7c000296 	lhu	v0,124(s0)
8010d8f8:	00000000 	nop
8010d8fc:	23188200 	subu	v1,a0,v0
8010d900:	20006224 	addiu	v0,v1,32
8010d904:	ffff4230 	andi	v0,v0,0xffff
8010d908:	4100422c 	sltiu	v0,v0,65
8010d90c:	15004014 	bnez	v0,0x8010d964
8010d910:	00140300 	sll	v0,v1,0x10
8010d914:	03240200 	sra	a0,v0,0x10
8010d918:	02008104 	bgez	a0,0x8010d924
8010d91c:	21108000 	move	v0,a0
8010d920:	23100200 	negu	v0,v0
8010d924:	21184000 	move	v1,v0
8010d928:	00140200 	sll	v0,v0,0x10
8010d92c:	03140200 	sra	v0,v0,0x10
8010d930:	01024228 	slti	v0,v0,513
8010d934:	02004014 	bnez	v0,0x8010d940
8010d938:	00000000 	nop
8010d93c:	00020324 	li	v1,512
8010d940:	02008104 	bgez	a0,0x8010d94c
8010d944:	21106000 	move	v0,v1
8010d948:	23100300 	negu	v0,v1
8010d94c:	00140200 	sll	v0,v0,0x10
8010d950:	7c000396 	lhu	v1,124(s0)
8010d954:	03150200 	sra	v0,v0,0x14
8010d958:	21186200 	addu	v1,v1,v0
8010d95c:	5c5a0408 	j	0x80116970
8010d960:	7c0003a6 	sh	v1,124(s0)
8010d964:	5c5a0408 	j	0x80116970
8010d968:	7c0004a6 	sh	a0,124(s0)
8010d96c:	0c80023c 	lui	v0,0x800c
8010d970:	41f84290 	lbu	v0,-1983(v0)
8010d974:	00000000 	nop
8010d978:	0c004014 	bnez	v0,0x8010d9ac
8010d97c:	8c230224 	li	v0,9100
8010d980:	76000396 	lhu	v1,118(s0)
8010d984:	2e0002a6 	sh	v0,46(s0)
8010d988:	002f0224 	li	v0,12032
8010d98c:	360002a6 	sh	v0,54(s0)
8010d990:	62000296 	lhu	v0,98(s0)
8010d994:	10006324 	addiu	v1,v1,16
8010d998:	ff0f6330 	andi	v1,v1,0xfff
8010d99c:	08004224 	addiu	v0,v0,8
8010d9a0:	ff0f4230 	andi	v0,v0,0xfff
8010d9a4:	760003a6 	sh	v1,118(s0)
8010d9a8:	620002a6 	sh	v0,98(s0)
8010d9ac:	7f56040c 	jal	0x801159fc
8010d9b0:	21200002 	move	a0,s0
8010d9b4:	5c5a0408 	j	0x80116970
8010d9b8:	00000000 	nop
8010d9bc:	ca56040c 	jal	0x80115b28
8010d9c0:	21200002 	move	a0,s0
8010d9c4:	5c5a0408 	j	0x80116970
8010d9c8:	00000000 	nop
8010d9cc:	bb57040c 	jal	0x80115eec
8010d9d0:	21200002 	move	a0,s0
8010d9d4:	01000292 	lbu	v0,1(s0)
8010d9d8:	00000000 	nop
8010d9dc:	07004014 	bnez	v0,0x8010d9fc
8010d9e0:	00000000 	nop
8010d9e4:	f158040c 	jal	0x801163c4
8010d9e8:	21200002 	move	a0,s0
8010d9ec:	03004010 	beqz	v0,0x8010d9fc
8010d9f0:	00000000 	nop
8010d9f4:	1146010c 	jal	0x80051844
8010d9f8:	21200002 	move	a0,s0
8010d9fc:	2e000396 	lhu	v1,46(s0)
8010da00:	801f023c 	lui	v0,0x1f80
8010da04:	400243a4 	sh	v1,576(v0)
8010da08:	32000396 	lhu	v1,50(s0)
8010da0c:	801f023c 	lui	v0,0x1f80
8010da10:	420243a4 	sh	v1,578(v0)
8010da14:	36000396 	lhu	v1,54(s0)
8010da18:	801f023c 	lui	v0,0x1f80
8010da1c:	725a0408 	j	0x801169c8
8010da20:	440243a4 	sh	v1,580(v0)
8010da24:	89e9010c 	jal	0x8007a624
8010da28:	21200002 	move	a0,s0
8010da2c:	1c00bf8f 	lw	ra,28(sp)
8010da30:	1800b28f 	lw	s2,24(sp)
8010da34:	1400b18f 	lw	s1,20(sp)
8010da38:	1000b08f 	lw	s0,16(sp)
8010da3c:	0800e003 	jr	ra
8010da40:	2000bd27 	addiu	sp,sp,32
8010da44:	e8ffbd27 	addiu	sp,sp,-24
8010da48:	1000b0af 	sw	s0,16(sp)
8010da4c:	21808000 	move	s0,a0
8010da50:	1400bfaf 	sw	ra,20(sp)
8010da54:	78000392 	lbu	v1,120(s0)
8010da58:	00000000 	nop
8010da5c:	05006010 	beqz	v1,0x8010da74
8010da60:	01000224 	li	v0,1
8010da64:	11006210 	beq	v1,v0,0x8010daac
8010da68:	21100000 	move	v0,zero
8010da6c:	985a0408 	j	0x80116a60
8010da70:	00000000 	nop
8010da74:	08000424 	li	a0,8
8010da78:	70b8010c 	jal	0x8006e1c0
8010da7c:	780002a2 	sb	v0,120(s0)
8010da80:	0f80033c 	lui	v1,0x800f
8010da84:	2e000296 	lhu	v0,46(s0)
8010da88:	08806324 	addiu	v1,v1,-32760
8010da8c:	3a0062a4 	sh	v0,58(v1)
8010da90:	32000296 	lhu	v0,50(s0)
8010da94:	00000000 	nop
8010da98:	b0044224 	addiu	v0,v0,1200
8010da9c:	3e0062a4 	sh	v0,62(v1)
8010daa0:	36000296 	lhu	v0,54(s0)
8010daa4:	975a0408 	j	0x80116a5c
8010daa8:	420062a4 	sh	v0,66(v1)
8010daac:	0f80033c 	lui	v1,0x800f
8010dab0:	6e806490 	lbu	a0,-32658(v1)
8010dab4:	03000324 	li	v1,3
8010dab8:	02008310 	beq	a0,v1,0x8010dac4
8010dabc:	01000224 	li	v0,1
8010dac0:	21100000 	move	v0,zero
8010dac4:	1400bf8f 	lw	ra,20(sp)
8010dac8:	1000b08f 	lw	s0,16(sp)
8010dacc:	0800e003 	jr	ra
8010dad0:	1800bd27 	addiu	sp,sp,24
8010dad4:	e8ffbd27 	addiu	sp,sp,-24
8010dad8:	1000b0af 	sw	s0,16(sp)
8010dadc:	21808000 	move	s0,a0
8010dae0:	1400bfaf 	sw	ra,20(sp)
8010dae4:	78000392 	lbu	v1,120(s0)
8010dae8:	00000000 	nop
8010daec:	05006010 	beqz	v1,0x8010db04
8010daf0:	01000224 	li	v0,1
8010daf4:	11006210 	beq	v1,v0,0x8010db3c
8010daf8:	21100000 	move	v0,zero
8010dafc:	c35a0408 	j	0x80116b0c
8010db00:	00000000 	nop
8010db04:	1280033c 	lui	v1,0x8012
8010db08:	780002a2 	sb	v0,120(s0)
8010db0c:	0c80023c 	lui	v0,0x800c
8010db10:	48446324 	addiu	v1,v1,17480
8010db14:	70f84290 	lbu	v0,-1936(v0)
8010db18:	2c000526 	addiu	a1,s0,44
8010db1c:	f6ff4224 	addiu	v0,v0,-10
8010db20:	40100200 	sll	v0,v0,0x1
8010db24:	21104300 	addu	v0,v0,v1
8010db28:	00004484 	lh	a0,0(v0)
8010db2c:	5bc4000c 	jal	0x8003116c
8010db30:	ceff0624 	li	a2,-50
8010db34:	c25a0408 	j	0x80116b08
8010db38:	380002ae 	sw	v0,56(s0)
8010db3c:	32000396 	lhu	v1,50(s0)
8010db40:	3800048e 	lw	a0,56(s0)
8010db44:	10006324 	addiu	v1,v1,16
8010db48:	320003a6 	sh	v1,50(s0)
8010db4c:	2e0083a4 	sh	v1,46(a0)
8010db50:	0f80033c 	lui	v1,0x800f
8010db54:	46806384 	lh	v1,-32698(v1)
8010db58:	32000486 	lh	a0,50(s0)
8010db5c:	10ff6324 	addiu	v1,v1,-240
8010db60:	2a208300 	slt	a0,a0,v1
8010db64:	02008010 	beqz	a0,0x8010db70
8010db68:	01000224 	li	v0,1
8010db6c:	21100000 	move	v0,zero
8010db70:	1400bf8f 	lw	ra,20(sp)
8010db74:	1000b08f 	lw	s0,16(sp)
8010db78:	0800e003 	jr	ra
8010db7c:	1800bd27 	addiu	sp,sp,24
8010db80:	e8ffbd27 	addiu	sp,sp,-24
8010db84:	02000224 	li	v0,2
8010db88:	1000bfaf 	sw	ra,16(sp)
8010db8c:	3800838c 	lw	v1,56(a0)
8010db90:	37000424 	li	a0,55
8010db94:	16000524 	li	a1,22
8010db98:	21300000 	move	a2,zero
8010db9c:	64d1010c 	jal	0x80074590
8010dba0:	040062a0 	sb	v0,4(v1)
8010dba4:	1000bf8f 	lw	ra,16(sp)
8010dba8:	01000224 	li	v0,1
8010dbac:	0800e003 	jr	ra
8010dbb0:	1800bd27 	addiu	sp,sp,24
8010dbb4:	e0ffbd27 	addiu	sp,sp,-32
8010dbb8:	1000b0af 	sw	s0,16(sp)
8010dbbc:	21808000 	move	s0,a0
8010dbc0:	1400b1af 	sw	s1,20(sp)
8010dbc4:	60001126 	addiu	s1,s0,96
8010dbc8:	0c000524 	li	a1,12
8010dbcc:	1800bfaf 	sw	ra,24(sp)
8010dbd0:	dc46010c 	jal	0x80051b70
8010dbd4:	07000624 	li	a2,7
8010dbd8:	49004014 	bnez	v0,0x8010dd00
8010dbdc:	04000224 	li	v0,4
8010dbe0:	290000a2 	sb	zero,41(s0)
8010dbe4:	5f0000a2 	sb	zero,95(s0)
8010dbe8:	2b0000a2 	sb	zero,43(s0)
8010dbec:	5e0002a2 	sb	v0,94(s0)
8010dbf0:	400000a6 	sh	zero,64(s0)
8010dbf4:	bf0000a2 	sb	zero,191(s0)
8010dbf8:	540000a6 	sh	zero,84(s0)
8010dbfc:	560000a6 	sh	zero,86(s0)
8010dc00:	580000a6 	sh	zero,88(s0)
8010dc04:	500000a6 	sh	zero,80(s0)
8010dc08:	0c0020a6 	sh	zero,12(s1)
8010dc0c:	03000292 	lbu	v0,3(s0)
8010dc10:	00000000 	nop
8010dc14:	1d004014 	bnez	v0,0x8010dc8c
8010dc18:	21200002 	move	a0,s0
8010dc1c:	9b1d010c 	jal	0x8004766c
8010dc20:	21200002 	move	a0,s0
8010dc24:	04004014 	bnez	v0,0x8010dc38
8010dc28:	21200002 	move	a0,s0
8010dc2c:	03000224 	li	v0,3
8010dc30:	1e5b0408 	j	0x80116c78
8010dc34:	040002a2 	sb	v0,4(s0)
8010dc38:	01000224 	li	v0,1
8010dc3c:	000002a2 	sb	v0,0(s0)
8010dc40:	d825010c 	jal	0x80049760
8010dc44:	040002a2 	sb	v0,4(s0)
8010dc48:	801f023c 	lui	v0,0x1f80
8010dc4c:	a0014294 	lhu	v0,416(v0)
8010dc50:	00000000 	nop
8010dc54:	560002a6 	sh	v0,86(s0)
8010dc58:	600002a6 	sh	v0,96(s0)
8010dc5c:	2c010224 	li	v0,300
8010dc60:	040022a6 	sh	v0,4(s1)
8010dc64:	8d000224 	li	v0,141
8010dc68:	020020a6 	sh	zero,2(s1)
8010dc6c:	840002a6 	sh	v0,132(s0)
8010dc70:	21184000 	move	v1,v0
8010dc74:	800002a6 	sh	v0,128(s0)
8010dc78:	1a010224 	li	v0,282
8010dc7c:	820002a6 	sh	v0,130(s0)
8010dc80:	860002a6 	sh	v0,134(s0)
8010dc84:	1e5b0408 	j	0x80116c78
8010dc88:	0e0023a6 	sh	v1,14(s1)
8010dc8c:	5e010324 	li	v1,350
8010dc90:	800003a6 	sh	v1,128(s0)
8010dc94:	840003a6 	sh	v1,132(s0)
8010dc98:	84000386 	lh	v1,132(s0)
8010dc9c:	01000224 	li	v0,1
8010dca0:	040002a2 	sb	v0,4(s0)
8010dca4:	bc020224 	li	v0,700
8010dca8:	820002a6 	sh	v0,130(s0)
8010dcac:	860002a6 	sh	v0,134(s0)
8010dcb0:	00040224 	li	v0,1024
8010dcb4:	560002a6 	sh	v0,86(s0)
8010dcb8:	c0100300 	sll	v0,v1,0x3
8010dcbc:	23104300 	subu	v0,v0,v1
8010dcc0:	80100200 	sll	v0,v0,0x2
8010dcc4:	21104300 	addu	v0,v0,v1
8010dcc8:	bc0002a6 	sh	v0,188(s0)
8010dccc:	ba0002a6 	sh	v0,186(s0)
8010dcd0:	3f46010c 	jal	0x800518fc
8010dcd4:	b80002a6 	sh	v0,184(s0)
8010dcd8:	100020a6 	sh	zero,16(s1)
8010dcdc:	2e000296 	lhu	v0,46(s0)
8010dce0:	00000000 	nop
8010dce4:	060022a6 	sh	v0,6(s1)
8010dce8:	32000296 	lhu	v0,50(s0)
8010dcec:	00000000 	nop
8010dcf0:	080022a6 	sh	v0,8(s1)
8010dcf4:	36000296 	lhu	v0,54(s0)
8010dcf8:	00000000 	nop
8010dcfc:	0a0022a6 	sh	v0,10(s1)
8010dd00:	1800bf8f 	lw	ra,24(sp)
8010dd04:	1400b18f 	lw	s1,20(sp)
8010dd08:	1000b08f 	lw	s0,16(sp)
8010dd0c:	0800e003 	jr	ra
8010dd10:	2000bd27 	addiu	sp,sp,32
8010dd14:	d8ffbd27 	addiu	sp,sp,-40
8010dd18:	1c00b1af 	sw	s1,28(sp)
8010dd1c:	21888000 	move	s1,a0
8010dd20:	2000bfaf 	sw	ra,32(sp)
8010dd24:	1800b0af 	sw	s0,24(sp)
8010dd28:	29002292 	lbu	v0,41(s1)
8010dd2c:	00000000 	nop
8010dd30:	29004014 	bnez	v0,0x8010ddd8
8010dd34:	60003026 	addiu	s0,s1,96
8010dd38:	21280000 	move	a1,zero
8010dd3c:	86002696 	lhu	a2,134(s1)
8010dd40:	84002296 	lhu	v0,132(s1)
8010dd44:	60002786 	lh	a3,96(s1)
8010dd48:	2330c200 	subu	a2,a2,v0
8010dd4c:	00340600 	sll	a2,a2,0x10
8010dd50:	7015010c 	jal	0x800455c0
8010dd54:	03340600 	sra	a2,a2,0x10
8010dd58:	290022a2 	sb	v0,41(s1)
8010dd5c:	ff004230 	andi	v0,v0,0xff
8010dd60:	0e004010 	beqz	v0,0x8010dd9c
8010dd64:	00000000 	nop
8010dd68:	9d25010c 	jal	0x80049674
8010dd6c:	21202002 	move	a0,s1
8010dd70:	801f023c 	lui	v0,0x1f80
8010dd74:	801f033c 	lui	v1,0x1f80
8010dd78:	801f043c 	lui	a0,0x1f80
8010dd7c:	a0014594 	lhu	a1,416(v0)
8010dd80:	a6018284 	lh	v0,422(a0)
8010dd84:	a2016394 	lhu	v1,418(v1)
8010dd88:	00804230 	andi	v0,v0,0x8000
8010dd8c:	600025a6 	sh	a1,96(s1)
8010dd90:	02004010 	beqz	v0,0x8010dd9c
8010dd94:	020003a6 	sh	v1,2(s0)
8010dd98:	040000a6 	sh	zero,4(s0)
8010dd9c:	29002292 	lbu	v0,41(s1)
8010dda0:	00000000 	nop
8010dda4:	0c004014 	bnez	v0,0x8010ddd8
8010dda8:	00000000 	nop
8010ddac:	50002296 	lhu	v0,80(s1)
8010ddb0:	00000000 	nop
8010ddb4:	30004224 	addiu	v0,v0,48
8010ddb8:	500022a6 	sh	v0,80(s1)
8010ddbc:	00140200 	sll	v0,v0,0x10
8010ddc0:	03140200 	sra	v0,v0,0x10
8010ddc4:	01034228 	slti	v0,v0,769
8010ddc8:	60004014 	bnez	v0,0x8010df4c
8010ddcc:	00030224 	li	v0,768
8010ddd0:	ba5b0408 	j	0x80116ee8
8010ddd4:	500022a6 	sh	v0,80(s1)
8010ddd8:	02000486 	lh	a0,2(s0)
8010dddc:	a00f020c 	jal	0x80083e80
8010dde0:	00000000 	nop
8010dde4:	c3190200 	sra	v1,v0,0x7
8010dde8:	02006104 	bgez	v1,0x8010ddf4
8010ddec:	21106000 	move	v0,v1
8010ddf0:	23100200 	negu	v0,v0
8010ddf4:	11004228 	slti	v0,v0,17
8010ddf8:	04004014 	bnez	v0,0x8010de0c
8010ddfc:	00000000 	nop
8010de00:	02006104 	bgez	v1,0x8010de0c
8010de04:	10000324 	li	v1,16
8010de08:	f0ff0324 	li	v1,-16
8010de0c:	06006014 	bnez	v1,0x8010de28
8010de10:	00000000 	nop
8010de14:	be002292 	lbu	v0,190(s1)
8010de18:	00000000 	nop
8010de1c:	03004014 	bnez	v0,0x8010de2c
8010de20:	fcff0324 	li	v1,-4
8010de24:	04000324 	li	v1,4
8010de28:	be002292 	lbu	v0,190(s1)
8010de2c:	00000000 	nop
8010de30:	0e004014 	bnez	v0,0x8010de6c
8010de34:	00000000 	nop
8010de38:	44002286 	lh	v0,68(s1)
8010de3c:	44002496 	lhu	a0,68(s1)
8010de40:	21184300 	addu	v1,v0,v1
8010de44:	00026228 	slti	v0,v1,512
8010de48:	15004014 	bnez	v0,0x8010dea0
8010de4c:	04008224 	addiu	v0,a0,4
8010de50:	00140300 	sll	v0,v1,0x10
8010de54:	03140200 	sra	v0,v0,0x10
8010de58:	01034228 	slti	v0,v0,769
8010de5c:	11004014 	bnez	v0,0x8010dea4
8010de60:	440023a6 	sh	v1,68(s1)
8010de64:	8f5b0408 	j	0x80116e3c
8010de68:	00030224 	li	v0,768
8010de6c:	44002286 	lh	v0,68(s1)
8010de70:	44002496 	lhu	a0,68(s1)
8010de74:	21184300 	addu	v1,v0,v1
8010de78:	01fe6228 	slti	v0,v1,-511
8010de7c:	03004014 	bnez	v0,0x8010de8c
8010de80:	00140300 	sll	v0,v1,0x10
8010de84:	8f5b0408 	j	0x80116e3c
8010de88:	fcff8224 	addiu	v0,a0,-4
8010de8c:	03140200 	sra	v0,v0,0x10
8010de90:	00fd4228 	slti	v0,v0,-768
8010de94:	03004010 	beqz	v0,0x8010dea4
8010de98:	440023a6 	sh	v1,68(s1)
8010de9c:	00fd0224 	li	v0,-768
8010dea0:	440022a6 	sh	v0,68(s1)
8010dea4:	801f023c 	lui	v0,0x1f80
8010dea8:	7c014294 	lhu	v0,380(v0)
8010deac:	00020324 	li	v1,512
8010deb0:	03004230 	andi	v0,v0,0x3
8010deb4:	25004014 	bnez	v0,0x8010df4c
8010deb8:	500023a6 	sh	v1,80(s1)
8010debc:	2e002296 	lhu	v0,46(s1)
8010dec0:	00000000 	nop
8010dec4:	1000a2a7 	sh	v0,16(sp)
8010dec8:	32002296 	lhu	v0,50(s1)
8010decc:	84002396 	lhu	v1,132(s1)
8010ded0:	00000000 	nop
8010ded4:	21104300 	addu	v0,v0,v1
8010ded8:	1200a2a7 	sh	v0,18(sp)
8010dedc:	36002296 	lhu	v0,54(s1)
8010dee0:	00000000 	nop
8010dee4:	1400a2a7 	sh	v0,20(sp)
8010dee8:	00001086 	lh	s0,0(s0)
8010deec:	d40f020c 	jal	0x80083f50
8010def0:	21200002 	move	a0,s0
8010def4:	80002386 	lh	v1,128(s1)
8010def8:	00000000 	nop
8010defc:	18004300 	mult	v0,v1
8010df00:	21200002 	move	a0,s0
8010df04:	12400000 	mflo	t0
8010df08:	a00f020c 	jal	0x80083e80
8010df0c:	83830800 	sra	s0,t0,0xe
8010df10:	80002386 	lh	v1,128(s1)
8010df14:	23100200 	negu	v0,v0
8010df18:	18004300 	mult	v0,v1
8010df1c:	000c0424 	li	a0,3072
8010df20:	1000a527 	addiu	a1,sp,16
8010df24:	1000a297 	lhu	v0,16(sp)
8010df28:	b0ff0624 	li	a2,-80
8010df2c:	21105000 	addu	v0,v0,s0
8010df30:	1000a2a7 	sh	v0,16(sp)
8010df34:	1400a297 	lhu	v0,20(sp)
8010df38:	12400000 	mflo	t0
8010df3c:	831b0800 	sra	v1,t0,0xe
8010df40:	21104300 	addu	v0,v0,v1
8010df44:	88c4000c 	jal	0x80031220
8010df48:	1400a2a7 	sh	v0,20(sp)
8010df4c:	29002292 	lbu	v0,41(s1)
8010df50:	2000bf8f 	lw	ra,32(sp)
8010df54:	1c00b18f 	lw	s1,28(sp)
8010df58:	1800b08f 	lw	s0,24(sp)
8010df5c:	0800e003 	jr	ra
8010df60:	2800bd27 	addiu	sp,sp,40
8010df64:	c8ffbd27 	addiu	sp,sp,-56
8010df68:	2400b1af 	sw	s1,36(sp)
8010df6c:	21888000 	move	s1,a0
8010df70:	2800b2af 	sw	s2,40(sp)
8010df74:	3400bfaf 	sw	ra,52(sp)
8010df78:	3000b4af 	sw	s4,48(sp)
8010df7c:	2c00b3af 	sw	s3,44(sp)
8010df80:	2000b0af 	sw	s0,32(sp)
8010df84:	04002592 	lbu	a1,4(s1)
8010df88:	01000224 	li	v0,1
8010df8c:	1300a210 	beq	a1,v0,0x8010dfdc
8010df90:	60003226 	addiu	s2,s1,96
8010df94:	0200a228 	slti	v0,a1,2
8010df98:	05004010 	beqz	v0,0x8010dfb0
8010df9c:	00000000 	nop
8010dfa0:	0a00a010 	beqz	a1,0x8010dfcc
8010dfa4:	00000000 	nop
8010dfa8:	665d0408 	j	0x80117598
8010dfac:	00000000 	nop
8010dfb0:	02000224 	li	v0,2
8010dfb4:	5901a210 	beq	a1,v0,0x8010e51c
8010dfb8:	03000224 	li	v0,3
8010dfbc:	8501a210 	beq	a1,v0,0x8010e5d4
8010dfc0:	00000000 	nop
8010dfc4:	665d0408 	j	0x80117598
8010dfc8:	00000000 	nop
8010dfcc:	d45a040c 	jal	0x80116b50
8010dfd0:	21202002 	move	a0,s1
8010dfd4:	665d0408 	j	0x80117598
8010dfd8:	00000000 	nop
8010dfdc:	03002292 	lbu	v0,3(s1)
8010dfe0:	00000000 	nop
8010dfe4:	f2004014 	bnez	v0,0x8010e3b0
8010dfe8:	21202002 	move	a0,s1
8010dfec:	0c80023c 	lui	v0,0x800c
8010dff0:	09f84290 	lbu	v0,-2039(v0)
8010dff4:	00000000 	nop
8010dff8:	e9004014 	bnez	v0,0x8010e3a0
8010dffc:	01000224 	li	v0,1
8010e000:	0e80023c 	lui	v0,0x800e
8010e004:	ee7f4284 	lh	v0,32750(v0)
8010e008:	00000000 	nop
8010e00c:	e4004010 	beqz	v0,0x8010e3a0
8010e010:	01000224 	li	v0,1
8010e014:	05002392 	lbu	v1,5(s1)
8010e018:	00000000 	nop
8010e01c:	d3006510 	beq	v1,a1,0x8010e36c
8010e020:	02006228 	slti	v0,v1,2
8010e024:	05004010 	beqz	v0,0x8010e03c
8010e028:	02000224 	li	v0,2
8010e02c:	1b006010 	beqz	v1,0x8010e09c
8010e030:	01000224 	li	v0,1
8010e034:	cf5c0408 	j	0x8011733c
8010e038:	00000000 	nop
8010e03c:	d7006214 	bne	v1,v0,0x8010e39c
8010e040:	21202002 	move	a0,s1
8010e044:	40002296 	lhu	v0,64(s1)
8010e048:	00000000 	nop
8010e04c:	ffff4224 	addiu	v0,v0,-1
8010e050:	400022a6 	sh	v0,64(s1)
8010e054:	00140200 	sll	v0,v0,0x10
8010e058:	10004014 	bnez	v0,0x8010e09c
8010e05c:	00000000 	nop
8010e060:	46002292 	lbu	v0,70(s1)
8010e064:	000025a2 	sb	a1,0(s1)
8010e068:	0c004010 	beqz	v0,0x8010e09c
8010e06c:	050020a2 	sb	zero,5(s1)
8010e070:	be002292 	lbu	v0,190(s1)
8010e074:	00000000 	nop
8010e078:	04004014 	bnez	v0,0x8010e08c
8010e07c:	00000000 	nop
8010e080:	44002296 	lhu	v0,68(s1)
8010e084:	0d5c0408 	j	0x80117034
8010e088:	80004224 	addiu	v0,v0,128
8010e08c:	44002296 	lhu	v0,68(s1)
8010e090:	00000000 	nop
8010e094:	80ff4224 	addiu	v0,v0,-128
8010e098:	440022a6 	sh	v0,68(s1)
8010e09c:	0e004286 	lh	v0,14(s2)
8010e0a0:	0e004396 	lhu	v1,14(s2)
8010e0a4:	5e014228 	slti	v0,v0,350
8010e0a8:	02004010 	beqz	v0,0x8010e0b4
8010e0ac:	02006224 	addiu	v0,v1,2
8010e0b0:	0e0042a6 	sh	v0,14(s2)
8010e0b4:	84002286 	lh	v0,132(s1)
8010e0b8:	84002396 	lhu	v1,132(s1)
8010e0bc:	18014228 	slti	v0,v0,280
8010e0c0:	03004010 	beqz	v0,0x8010e0d0
8010e0c4:	02006224 	addiu	v0,v1,2
8010e0c8:	840022a6 	sh	v0,132(s1)
8010e0cc:	800022a6 	sh	v0,128(s1)
8010e0d0:	80002286 	lh	v0,128(s1)
8010e0d4:	80002396 	lhu	v1,128(s1)
8010e0d8:	c8004228 	slti	v0,v0,200
8010e0dc:	02004010 	beqz	v0,0x8010e0e8
8010e0e0:	01006224 	addiu	v0,v1,1
8010e0e4:	800022a6 	sh	v0,128(s1)
8010e0e8:	80002296 	lhu	v0,128(s1)
8010e0ec:	84002396 	lhu	v1,132(s1)
8010e0f0:	40100200 	sll	v0,v0,0x1
8010e0f4:	40180300 	sll	v1,v1,0x1
8010e0f8:	820022a6 	sh	v0,130(s1)
8010e0fc:	860023a6 	sh	v1,134(s1)
8010e100:	0e004386 	lh	v1,14(s2)
8010e104:	2e002496 	lhu	a0,46(s1)
8010e108:	c0100300 	sll	v0,v1,0x3
8010e10c:	23104300 	subu	v0,v0,v1
8010e110:	80100200 	sll	v0,v0,0x2
8010e114:	21104300 	addu	v0,v0,v1
8010e118:	bc0022a6 	sh	v0,188(s1)
8010e11c:	ba0022a6 	sh	v0,186(s1)
8010e120:	b80022a6 	sh	v0,184(s1)
8010e124:	060044a6 	sh	a0,6(s2)
8010e128:	32002296 	lhu	v0,50(s1)
8010e12c:	00000000 	nop
8010e130:	080042a6 	sh	v0,8(s2)
8010e134:	36002296 	lhu	v0,54(s1)
8010e138:	00000000 	nop
8010e13c:	0a0042a6 	sh	v0,10(s2)
8010e140:	5f002292 	lbu	v0,95(s1)
8010e144:	00000000 	nop
8010e148:	14004014 	bnez	v0,0x8010e19c
8010e14c:	60003426 	addiu	s4,s1,96
8010e150:	60003086 	lh	s0,96(s1)
8010e154:	d40f020c 	jal	0x80083f50
8010e158:	21200002 	move	a0,s0
8010e15c:	44002386 	lh	v1,68(s1)
8010e160:	00000000 	nop
8010e164:	18004300 	mult	v0,v1
8010e168:	12980000 	mflo	s3
8010e16c:	a00f020c 	jal	0x80083e80
8010e170:	21200002 	move	a0,s0
8010e174:	44002386 	lh	v1,68(s1)
8010e178:	23100200 	negu	v0,v0
8010e17c:	18004300 	mult	v0,v1
8010e180:	2c00228e 	lw	v0,44(s1)
8010e184:	3400238e 	lw	v1,52(s1)
8010e188:	21105300 	addu	v0,v0,s3
8010e18c:	2c0022ae 	sw	v0,44(s1)
8010e190:	12480000 	mflo	t1
8010e194:	21186900 	addu	v1,v1,t1
8010e198:	340023ae 	sw	v1,52(s1)
8010e19c:	50002286 	lh	v0,80(s1)
8010e1a0:	3000238e 	lw	v1,48(s1)
8010e1a4:	00130200 	sll	v0,v0,0xc
8010e1a8:	21186200 	addu	v1,v1,v0
8010e1ac:	5f002292 	lbu	v0,95(s1)
8010e1b0:	300023ae 	sw	v1,48(s1)
8010e1b4:	16004014 	bnez	v0,0x8010e210
8010e1b8:	21188002 	move	v1,s4
8010e1bc:	44002286 	lh	v0,68(s1)
8010e1c0:	00000000 	nop
8010e1c4:	04004004 	bltz	v0,0x8010e1d8
8010e1c8:	21202002 	move	a0,s1
8010e1cc:	80002296 	lhu	v0,128(s1)
8010e1d0:	615c0408 	j	0x80117184
8010e1d4:	002c0200 	sll	a1,v0,0x10
8010e1d8:	80002296 	lhu	v0,128(s1)
8010e1dc:	00000000 	nop
8010e1e0:	23100200 	negu	v0,v0
8010e1e4:	002c0200 	sll	a1,v0,0x10
8010e1e8:	032c0500 	sra	a1,a1,0x10
8010e1ec:	00006784 	lh	a3,0(v1)
8010e1f0:	2b17010c 	jal	0x80045cac
8010e1f4:	21300000 	move	a2,zero
8010e1f8:	05004010 	beqz	v0,0x8010e210
8010e1fc:	00000000 	nop
8010e200:	be002292 	lbu	v0,190(s1)
8010e204:	00000000 	nop
8010e208:	04004234 	ori	v0,v0,0x4
8010e20c:	5f0022a2 	sb	v0,95(s1)
8010e210:	2c5b040c 	jal	0x80116cb0
8010e214:	21202002 	move	a0,s1
8010e218:	9b1d010c 	jal	0x8004766c
8010e21c:	21202002 	move	a0,s1
8010e220:	02004104 	bgez	v0,0x8010e22c
8010e224:	00000000 	nop
8010e228:	040040a6 	sh	zero,4(s2)
8010e22c:	00004486 	lh	a0,0(s2)
8010e230:	56002586 	lh	a1,86(s1)
8010e234:	bedd010c 	jal	0x800776f8
8010e238:	20000624 	li	a2,32
8010e23c:	560022a6 	sh	v0,86(s1)
8010e240:	06004286 	lh	v0,6(s2)
8010e244:	2e002386 	lh	v1,46(s1)
8010e248:	00000000 	nop
8010e24c:	23104300 	subu	v0,v0,v1
8010e250:	18004200 	mult	v0,v0
8010e254:	08004286 	lh	v0,8(s2)
8010e258:	32002386 	lh	v1,50(s1)
8010e25c:	12280000 	mflo	a1
8010e260:	23104300 	subu	v0,v0,v1
8010e264:	00000000 	nop
8010e268:	18004200 	mult	v0,v0
8010e26c:	36002386 	lh	v1,54(s1)
8010e270:	0a004286 	lh	v0,10(s2)
8010e274:	12200000 	mflo	a0
8010e278:	23104300 	subu	v0,v0,v1
8010e27c:	00000000 	nop
8010e280:	18004200 	mult	v0,v0
8010e284:	2120a400 	addu	a0,a1,a0
8010e288:	12180000 	mflo	v1
8010e28c:	ecdf010c 	jal	0x80077fb0
8010e290:	21208300 	addu	a0,a0,v1
8010e294:	ffff4230 	andi	v0,v0,0xffff
8010e298:	80120200 	sll	v0,v0,0xa
8010e29c:	84002386 	lh	v1,132(s1)
8010e2a0:	be002492 	lbu	a0,190(s1)
8010e2a4:	1a004300 	div	zero,v0,v1
8010e2a8:	02006014 	bnez	v1,0x8010e2b4
8010e2ac:	00000000 	nop
8010e2b0:	0d000700 	break	0x7
8010e2b4:	ffff0124 	li	at,-1
8010e2b8:	04006114 	bne	v1,at,0x8010e2cc
8010e2bc:	0080013c 	lui	at,0x8000
8010e2c0:	02004114 	bne	v0,at,0x8010e2cc
8010e2c4:	00000000 	nop
8010e2c8:	0d000600 	break	0x6
8010e2cc:	12180000 	mflo	v1
8010e2d0:	04008010 	beqz	a0,0x8010e2e4
8010e2d4:	00000000 	nop
8010e2d8:	58002296 	lhu	v0,88(s1)
8010e2dc:	a35c0408 	j	0x8011728c
8010e2e0:	23104300 	subu	v0,v0,v1
8010e2e4:	58002296 	lhu	v0,88(s1)
8010e2e8:	00000000 	nop
8010e2ec:	21104300 	addu	v0,v0,v1
8010e2f0:	0e006010 	beqz	v1,0x8010e32c
8010e2f4:	580022a6 	sh	v0,88(s1)
8010e2f8:	0c004296 	lhu	v0,12(s2)
8010e2fc:	00000000 	nop
8010e300:	21104300 	addu	v0,v0,v1
8010e304:	0c0042a6 	sh	v0,12(s2)
8010e308:	00140200 	sll	v0,v0,0x10
8010e30c:	03140200 	sra	v0,v0,0x10
8010e310:	010c4228 	slti	v0,v0,3073
8010e314:	05004014 	bnez	v0,0x8010e32c
8010e318:	8e000424 	li	a0,142
8010e31c:	21280000 	move	a1,zero
8010e320:	64d1010c 	jal	0x80074590
8010e324:	2130a000 	move	a2,a1
8010e328:	0c0040a6 	sh	zero,12(s2)
8010e32c:	5f002292 	lbu	v0,95(s1)
8010e330:	00000000 	nop
8010e334:	04004230 	andi	v0,v0,0x4
8010e338:	06004014 	bnez	v0,0x8010e354
8010e33c:	02000224 	li	v0,2
8010e340:	04004286 	lh	v0,4(s2)
8010e344:	04004396 	lhu	v1,4(s2)
8010e348:	06004014 	bnez	v0,0x8010e364
8010e34c:	ffff6224 	addiu	v0,v1,-1
8010e350:	02000224 	li	v0,2
8010e354:	000022a2 	sb	v0,0(s1)
8010e358:	040022a2 	sb	v0,4(s1)
8010e35c:	cd5c0408 	j	0x80117334
8010e360:	060020a2 	sb	zero,6(s1)
8010e364:	cd5c0408 	j	0x80117334
8010e368:	040042a6 	sh	v0,4(s2)
8010e36c:	14000224 	li	v0,20
8010e370:	400022a6 	sh	v0,64(s1)
8010e374:	05002292 	lbu	v0,5(s1)
8010e378:	2b002392 	lbu	v1,43(s1)
8010e37c:	01004224 	addiu	v0,v0,1
8010e380:	02006010 	beqz	v1,0x8010e38c
8010e384:	050022a2 	sb	v0,5(s1)
8010e388:	440020a6 	sh	zero,68(s1)
8010e38c:	2b002292 	lbu	v0,43(s1)
8010e390:	00000000 	nop
8010e394:	460022a2 	sb	v0,70(s1)
8010e398:	21202002 	move	a0,s1
8010e39c:	01000224 	li	v0,1
8010e3a0:	290020a2 	sb	zero,41(s1)
8010e3a4:	5f0020a2 	sb	zero,95(s1)
8010e3a8:	565d0408 	j	0x80117558
8010e3ac:	010022a2 	sb	v0,1(s1)
8010e3b0:	9fdf010c 	jal	0x80077e7c
8010e3b4:	010025a2 	sb	a1,1(s1)
8010e3b8:	3f46010c 	jal	0x800518fc
8010e3bc:	21202002 	move	a0,s1
8010e3c0:	06004286 	lh	v0,6(s2)
8010e3c4:	2e002386 	lh	v1,46(s1)
8010e3c8:	00000000 	nop
8010e3cc:	23104300 	subu	v0,v0,v1
8010e3d0:	18004200 	mult	v0,v0
8010e3d4:	08004286 	lh	v0,8(s2)
8010e3d8:	32002386 	lh	v1,50(s1)
8010e3dc:	12280000 	mflo	a1
8010e3e0:	23104300 	subu	v0,v0,v1
8010e3e4:	00000000 	nop
8010e3e8:	18004200 	mult	v0,v0
8010e3ec:	36002386 	lh	v1,54(s1)
8010e3f0:	0a004286 	lh	v0,10(s2)
8010e3f4:	12200000 	mflo	a0
8010e3f8:	23104300 	subu	v0,v0,v1
8010e3fc:	00000000 	nop
8010e400:	18004200 	mult	v0,v0
8010e404:	2120a400 	addu	a0,a1,a0
8010e408:	12180000 	mflo	v1
8010e40c:	ecdf010c 	jal	0x80077fb0
8010e410:	21208300 	addu	a0,a0,v1
8010e414:	ffff4230 	andi	v0,v0,0xffff
8010e418:	84002386 	lh	v1,132(s1)
8010e41c:	80120200 	sll	v0,v0,0xa
8010e420:	1a004300 	div	zero,v0,v1
8010e424:	02006014 	bnez	v1,0x8010e430
8010e428:	00000000 	nop
8010e42c:	0d000700 	break	0x7
8010e430:	ffff0124 	li	at,-1
8010e434:	04006114 	bne	v1,at,0x8010e448
8010e438:	0080013c 	lui	at,0x8000
8010e43c:	02004114 	bne	v0,at,0x8010e448
8010e440:	00000000 	nop
8010e444:	0d000600 	break	0x6
8010e448:	12200000 	mflo	a0
8010e44c:	58002296 	lhu	v0,88(s1)
8010e450:	00000000 	nop
8010e454:	23104400 	subu	v0,v0,a0
8010e458:	27008010 	beqz	a0,0x8010e4f8
8010e45c:	580022a6 	sh	v0,88(s1)
8010e460:	0c004296 	lhu	v0,12(s2)
8010e464:	00000000 	nop
8010e468:	21104400 	addu	v0,v0,a0
8010e46c:	0c0042a6 	sh	v0,12(s2)
8010e470:	10004296 	lhu	v0,16(s2)
8010e474:	0c004386 	lh	v1,12(s2)
8010e478:	21104400 	addu	v0,v0,a0
8010e47c:	010c6328 	slti	v1,v1,3073
8010e480:	06006014 	bnez	v1,0x8010e49c
8010e484:	100042a6 	sh	v0,16(s2)
8010e488:	8e000424 	li	a0,142
8010e48c:	21280000 	move	a1,zero
8010e490:	64d1010c 	jal	0x80074590
8010e494:	2130a000 	move	a2,a1
8010e498:	0c0040a6 	sh	zero,12(s2)
8010e49c:	10004286 	lh	v0,16(s2)
8010e4a0:	00000000 	nop
8010e4a4:	01044228 	slti	v0,v0,1025
8010e4a8:	0e004014 	bnez	v0,0x8010e4e4
8010e4ac:	000c0424 	li	a0,3072
8010e4b0:	100040a6 	sh	zero,16(s2)
8010e4b4:	2e002296 	lhu	v0,46(s1)
8010e4b8:	00000000 	nop
8010e4bc:	1200a2a7 	sh	v0,18(sp)
8010e4c0:	32002296 	lhu	v0,50(s1)
8010e4c4:	84002396 	lhu	v1,132(s1)
8010e4c8:	1000a527 	addiu	a1,sp,16
8010e4cc:	21104300 	addu	v0,v0,v1
8010e4d0:	1600a2a7 	sh	v0,22(sp)
8010e4d4:	36002296 	lhu	v0,54(s1)
8010e4d8:	b0ff0624 	li	a2,-80
8010e4dc:	5bc4000c 	jal	0x8003116c
8010e4e0:	1a00a2a7 	sh	v0,26(sp)
8010e4e4:	06004586 	lh	a1,6(s2)
8010e4e8:	0a004686 	lh	a2,10(s2)
8010e4ec:	ace0010c 	jal	0x800782b0
8010e4f0:	2c002426 	addiu	a0,s1,44
8010e4f4:	560022a6 	sh	v0,86(s1)
8010e4f8:	2e002296 	lhu	v0,46(s1)
8010e4fc:	00000000 	nop
8010e500:	060042a6 	sh	v0,6(s2)
8010e504:	32002296 	lhu	v0,50(s1)
8010e508:	00000000 	nop
8010e50c:	080042a6 	sh	v0,8(s2)
8010e510:	36002296 	lhu	v0,54(s1)
8010e514:	665d0408 	j	0x80117598
8010e518:	0a0042a6 	sh	v0,10(s2)
8010e51c:	06002392 	lbu	v1,6(s1)
8010e520:	00000000 	nop
8010e524:	03006228 	slti	v0,v1,3
8010e528:	07004010 	beqz	v0,0x8010e548
8010e52c:	00000000 	nop
8010e530:	1c006014 	bnez	v1,0x8010e5a4
8010e534:	01006224 	addiu	v0,v1,1
8010e538:	08006010 	beqz	v1,0x8010e55c
8010e53c:	01000224 	li	v0,1
8010e540:	555d0408 	j	0x80117554
8010e544:	010022a2 	sb	v0,1(s1)
8010e548:	03000224 	li	v0,3
8010e54c:	17006210 	beq	v1,v0,0x8010e5ac
8010e550:	01000224 	li	v0,1
8010e554:	555d0408 	j	0x80117554
8010e558:	010022a2 	sb	v0,1(s1)
8010e55c:	010c0424 	li	a0,3073
8010e560:	2c003026 	addiu	s0,s1,44
8010e564:	21280002 	move	a1,s0
8010e568:	5bc4000c 	jal	0x8003116c
8010e56c:	b0ff0624 	li	a2,-80
8010e570:	060c0424 	li	a0,3078
8010e574:	21280002 	move	a1,s0
8010e578:	5bc4000c 	jal	0x8003116c
8010e57c:	b0ff0624 	li	a2,-80
8010e580:	8d000424 	li	a0,141
8010e584:	21280000 	move	a1,zero
8010e588:	64d1010c 	jal	0x80074590
8010e58c:	2130a000 	move	a2,a1
8010e590:	06002292 	lbu	v0,6(s1)
8010e594:	00000000 	nop
8010e598:	01004224 	addiu	v0,v0,1
8010e59c:	535d0408 	j	0x8011754c
8010e5a0:	060022a2 	sb	v0,6(s1)
8010e5a4:	535d0408 	j	0x8011754c
8010e5a8:	060022a2 	sb	v0,6(s1)
8010e5ac:	040023a2 	sb	v1,4(s1)
8010e5b0:	01000224 	li	v0,1
8010e5b4:	010022a2 	sb	v0,1(s1)
8010e5b8:	21202002 	move	a0,s1
8010e5bc:	9fdf010c 	jal	0x80077e7c
8010e5c0:	00000000 	nop
8010e5c4:	3f46010c 	jal	0x800518fc
8010e5c8:	21202002 	move	a0,s1
8010e5cc:	665d0408 	j	0x80117598
8010e5d0:	00000000 	nop
8010e5d4:	03002292 	lbu	v0,3(s1)
8010e5d8:	00000000 	nop
8010e5dc:	05004014 	bnez	v0,0x8010e5f4
8010e5e0:	801f033c 	lui	v1,0x1f80
8010e5e4:	5a026290 	lbu	v0,602(v1)
8010e5e8:	00000000 	nop
8010e5ec:	ffff4224 	addiu	v0,v0,-1
8010e5f0:	5a0262a0 	sb	v0,602(v1)
8010e5f4:	89e9010c 	jal	0x8007a624
8010e5f8:	21202002 	move	a0,s1
8010e5fc:	3400bf8f 	lw	ra,52(sp)
8010e600:	3000b48f 	lw	s4,48(sp)
8010e604:	2c00b38f 	lw	s3,44(sp)
8010e608:	2800b28f 	lw	s2,40(sp)
8010e60c:	2400b18f 	lw	s1,36(sp)
8010e610:	2000b08f 	lw	s0,32(sp)
8010e614:	0800e003 	jr	ra
8010e618:	3800bd27 	addiu	sp,sp,56
8010e61c:	d8ffbd27 	addiu	sp,sp,-40
8010e620:	1c00b3af 	sw	s3,28(sp)
8010e624:	21988000 	move	s3,a0
8010e628:	1000b0af 	sw	s0,16(sp)
8010e62c:	2180a000 	move	s0,a1
8010e630:	2000b4af 	sw	s4,32(sp)
8010e634:	21a0c000 	move	s4,a2
8010e638:	01000424 	li	a0,1
8010e63c:	02000524 	li	a1,2
8010e640:	21300000 	move	a2,zero
8010e644:	2400bfaf 	sw	ra,36(sp)
8010e648:	1800b2af 	sw	s2,24(sp)
8010e64c:	60ea010c 	jal	0x8007a980
8010e650:	1400b1af 	sw	s1,20(sp)
8010e654:	21904000 	move	s2,v0
8010e658:	42004012 	beqz	s2,0x8010e764
8010e65c:	21100000 	move	v0,zero
8010e660:	1180023c 	lui	v0,0x8011
8010e664:	006f4224 	addiu	v0,v0,28416
8010e668:	1c0042ae 	sw	v0,28(s2)
8010e66c:	4f000224 	li	v0,79
8010e670:	020042a2 	sb	v0,2(s2)
8010e674:	ff000232 	andi	v0,s0,0xff
8010e678:	2e004014 	bnez	v0,0x8010e734
8010e67c:	030050a2 	sb	s0,3(s2)
8010e680:	801f033c 	lui	v1,0x1f80
8010e684:	c0006524 	addiu	a1,v1,192
8010e688:	0cfe0224 	li	v0,-500
8010e68c:	801f113c 	lui	s1,0x1f80
8010e690:	c8003026 	addiu	s0,s1,200
8010e694:	c00062a4 	sh	v0,192(v1)
8010e698:	0200a0a4 	sh	zero,2(a1)
8010e69c:	0400a0a4 	sh	zero,4(a1)
8010e6a0:	e400648e 	lw	a0,228(s3)
8010e6a4:	21300002 	move	a2,s0
8010e6a8:	3011020c 	jal	0x800844c0
8010e6ac:	18008424 	addiu	a0,a0,24
8010e6b0:	e400628e 	lw	v0,228(s3)
8010e6b4:	c8002396 	lhu	v1,200(s1)
8010e6b8:	2c004294 	lhu	v0,44(v0)
8010e6bc:	00000000 	nop
8010e6c0:	21104300 	addu	v0,v0,v1
8010e6c4:	2e0042a6 	sh	v0,46(s2)
8010e6c8:	e400628e 	lw	v0,228(s3)
8010e6cc:	02000396 	lhu	v1,2(s0)
8010e6d0:	30004294 	lhu	v0,48(v0)
8010e6d4:	00000000 	nop
8010e6d8:	21104300 	addu	v0,v0,v1
8010e6dc:	320042a6 	sh	v0,50(s2)
8010e6e0:	e400628e 	lw	v0,228(s3)
8010e6e4:	04000396 	lhu	v1,4(s0)
8010e6e8:	34004294 	lhu	v0,52(v0)
8010e6ec:	00000000 	nop
8010e6f0:	21104300 	addu	v0,v0,v1
8010e6f4:	06008012 	beqz	s4,0x8010e710
8010e6f8:	360042a6 	sh	v0,54(s2)
8010e6fc:	00ff0224 	li	v0,-256
8010e700:	440042a6 	sh	v0,68(s2)
8010e704:	01000224 	li	v0,1
8010e708:	ae5d0408 	j	0x801176b8
8010e70c:	be0042a2 	sb	v0,190(s2)
8010e710:	00010224 	li	v0,256
8010e714:	440042a6 	sh	v0,68(s2)
8010e718:	be0040a2 	sb	zero,190(s2)
8010e71c:	801f033c 	lui	v1,0x1f80
8010e720:	5a026290 	lbu	v0,602(v1)
8010e724:	00000000 	nop
8010e728:	01004224 	addiu	v0,v0,1
8010e72c:	bd5d0408 	j	0x801176f4
8010e730:	5a0262a0 	sb	v0,602(v1)
8010e734:	2e006296 	lhu	v0,46(s3)
8010e738:	00000000 	nop
8010e73c:	2e0042a6 	sh	v0,46(s2)
8010e740:	32006296 	lhu	v0,50(s3)
8010e744:	00000000 	nop
8010e748:	320042a6 	sh	v0,50(s2)
8010e74c:	36006296 	lhu	v0,54(s3)
8010e750:	00000000 	nop
8010e754:	360042a6 	sh	v0,54(s2)
8010e758:	2a006392 	lbu	v1,42(s3)
8010e75c:	21104002 	move	v0,s2
8010e760:	2a0043a0 	sb	v1,42(v0)
8010e764:	2400bf8f 	lw	ra,36(sp)
8010e768:	2000b48f 	lw	s4,32(sp)
8010e76c:	1c00b38f 	lw	s3,28(sp)
8010e770:	1800b28f 	lw	s2,24(sp)
8010e774:	1400b18f 	lw	s1,20(sp)
8010e778:	1000b08f 	lw	s0,16(sp)
8010e77c:	0800e003 	jr	ra
8010e780:	2800bd27 	addiu	sp,sp,40
8010e784:	e8ffbd27 	addiu	sp,sp,-24
8010e788:	21108000 	move	v0,a0
8010e78c:	1280033c 	lui	v1,0x8012
8010e790:	1000bfaf 	sw	ra,16(sp)
8010e794:	c000448c 	lw	a0,192(v0)
8010e798:	5e004290 	lbu	v0,94(v0)
8010e79c:	0c466324 	addiu	v1,v1,17932
8010e7a0:	ffff4224 	addiu	v0,v0,-1
8010e7a4:	80100200 	sll	v0,v0,0x2
8010e7a8:	21104300 	addu	v0,v0,v1
8010e7ac:	0000468c 	lw	a2,0(v0)
8010e7b0:	c146010c 	jal	0x80051b04
8010e7b4:	0c000524 	li	a1,12
8010e7b8:	8d000424 	li	a0,141
8010e7bc:	21280000 	move	a1,zero
8010e7c0:	64d1010c 	jal	0x80074590
8010e7c4:	2130a000 	move	a2,a1
8010e7c8:	1000bf8f 	lw	ra,16(sp)
8010e7cc:	00000000 	nop
8010e7d0:	0800e003 	jr	ra
8010e7d4:	1800bd27 	addiu	sp,sp,24
8010e7d8:	e8ffbd27 	addiu	sp,sp,-24
8010e7dc:	1000b0af 	sw	s0,16(sp)
8010e7e0:	21808000 	move	s0,a0
8010e7e4:	1400bfaf 	sw	ra,20(sp)
8010e7e8:	5f000292 	lbu	v0,95(s0)
8010e7ec:	00000000 	nop
8010e7f0:	18004014 	bnez	v0,0x8010e854
8010e7f4:	60000326 	addiu	v1,s0,96
8010e7f8:	44000286 	lh	v0,68(s0)
8010e7fc:	00000000 	nop
8010e800:	04004004 	bltz	v0,0x8010e814
8010e804:	00000000 	nop
8010e808:	80000296 	lhu	v0,128(s0)
8010e80c:	f05d0408 	j	0x801177c0
8010e810:	002c0200 	sll	a1,v0,0x10
8010e814:	80000296 	lhu	v0,128(s0)
8010e818:	00000000 	nop
8010e81c:	23100200 	negu	v0,v0
8010e820:	002c0200 	sll	a1,v0,0x10
8010e824:	21200002 	move	a0,s0
8010e828:	032c0500 	sra	a1,a1,0x10
8010e82c:	00006784 	lh	a3,0(v1)
8010e830:	2b17010c 	jal	0x80045cac
8010e834:	21300000 	move	a2,zero
8010e838:	05004010 	beqz	v0,0x8010e850
8010e83c:	00000000 	nop
8010e840:	be000292 	lbu	v0,190(s0)
8010e844:	00000000 	nop
8010e848:	04004234 	ori	v0,v0,0x4
8010e84c:	5f0002a2 	sb	v0,95(s0)
8010e850:	5f000292 	lbu	v0,95(s0)
8010e854:	1400bf8f 	lw	ra,20(sp)
8010e858:	1000b08f 	lw	s0,16(sp)
8010e85c:	0800e003 	jr	ra
8010e860:	1800bd27 	addiu	sp,sp,24
8010e864:	e0ffbd27 	addiu	sp,sp,-32
8010e868:	1400b1af 	sw	s1,20(sp)
8010e86c:	21888000 	move	s1,a0
8010e870:	1c00bfaf 	sw	ra,28(sp)
8010e874:	1800b2af 	sw	s2,24(sp)
8010e878:	1000b0af 	sw	s0,16(sp)
8010e87c:	5f002292 	lbu	v0,95(s1)
8010e880:	00000000 	nop
8010e884:	14004014 	bnez	v0,0x8010e8d8
8010e888:	00000000 	nop
8010e88c:	60003086 	lh	s0,96(s1)
8010e890:	d40f020c 	jal	0x80083f50
8010e894:	21200002 	move	a0,s0
8010e898:	44002386 	lh	v1,68(s1)
8010e89c:	00000000 	nop
8010e8a0:	18004300 	mult	v0,v1
8010e8a4:	12900000 	mflo	s2
8010e8a8:	a00f020c 	jal	0x80083e80
8010e8ac:	21200002 	move	a0,s0
8010e8b0:	44002386 	lh	v1,68(s1)
8010e8b4:	23100200 	negu	v0,v0
8010e8b8:	18004300 	mult	v0,v1
8010e8bc:	2c00228e 	lw	v0,44(s1)
8010e8c0:	3400238e 	lw	v1,52(s1)
8010e8c4:	21105200 	addu	v0,v0,s2
8010e8c8:	2c0022ae 	sw	v0,44(s1)
8010e8cc:	12300000 	mflo	a2
8010e8d0:	21186600 	addu	v1,v1,a2
8010e8d4:	340023ae 	sw	v1,52(s1)
8010e8d8:	50002286 	lh	v0,80(s1)
8010e8dc:	3000238e 	lw	v1,48(s1)
8010e8e0:	00130200 	sll	v0,v0,0xc
8010e8e4:	21186200 	addu	v1,v1,v0
8010e8e8:	300023ae 	sw	v1,48(s1)
8010e8ec:	1c00bf8f 	lw	ra,28(sp)
8010e8f0:	1800b28f 	lw	s2,24(sp)
8010e8f4:	1400b18f 	lw	s1,20(sp)
8010e8f8:	1000b08f 	lw	s0,16(sp)
8010e8fc:	0800e003 	jr	ra
8010e900:	2000bd27 	addiu	sp,sp,32
8010e904:	e8ffbd27 	addiu	sp,sp,-24
8010e908:	00240400 	sll	a0,a0,0x10
8010e90c:	03240400 	sra	a0,a0,0x10
8010e910:	01000224 	li	v0,1
8010e914:	13008210 	beq	a0,v0,0x8010e964
8010e918:	1000bfaf 	sw	ra,16(sp)
8010e91c:	02008228 	slti	v0,a0,2
8010e920:	05004010 	beqz	v0,0x8010e938
8010e924:	00000000 	nop
8010e928:	0a008010 	beqz	a0,0x8010e954
8010e92c:	1280023c 	lui	v0,0x8012
8010e930:	5e5e0408 	j	0x80117978
8010e934:	00000000 	nop
8010e938:	02000224 	li	v0,2
8010e93c:	0e008210 	beq	a0,v0,0x8010e978
8010e940:	03000224 	li	v0,3
8010e944:	11008210 	beq	a0,v0,0x8010e98c
8010e948:	1280023c 	lui	v0,0x8012
8010e94c:	5e5e0408 	j	0x80117978
8010e950:	00000000 	nop
8010e954:	944c4224 	addiu	v0,v0,19604
8010e958:	03000724 	li	a3,3
8010e95c:	4d5e0408 	j	0x80117934
8010e960:	21300000 	move	a2,zero
8010e964:	1280023c 	lui	v0,0x8012
8010e968:	ac4c4224 	addiu	v0,v0,19628
8010e96c:	1b000724 	li	a3,27
8010e970:	4d5e0408 	j	0x80117934
8010e974:	00030624 	li	a2,768
8010e978:	1280023c 	lui	v0,0x8012
8010e97c:	d04c4224 	addiu	v0,v0,19664
8010e980:	1f000724 	li	a3,31
8010e984:	4d5e0408 	j	0x80117934
8010e988:	c8010624 	li	a2,456
8010e98c:	084d4224 	addiu	v0,v0,19720
8010e990:	09000724 	li	a3,9
8010e994:	72020624 	li	a2,626
8010e998:	801f043c 	lui	a0,0x1f80
8010e99c:	001c0500 	sll	v1,a1,0x10
8010e9a0:	831b0300 	sra	v1,v1,0xe
8010e9a4:	21186200 	addu	v1,v1,v0
8010e9a8:	1c02858c 	lw	a1,540(a0)
8010e9ac:	2120e000 	move	a0,a3
8010e9b0:	00006294 	lhu	v0,0(v1)
8010e9b4:	21380000 	move	a3,zero
8010e9b8:	40110200 	sll	v0,v0,0x5
8010e9bc:	2128a200 	addu	a1,a1,v0
8010e9c0:	40110600 	sll	v0,a2,0x5
8010e9c4:	02006694 	lhu	a2,2(v1)
8010e9c8:	2128a200 	addu	a1,a1,v0
8010e9cc:	0100c624 	addiu	a2,a2,1
8010e9d0:	40310600 	sll	a2,a2,0x5
8010e9d4:	aa74000c 	jal	0x8001d2a8
8010e9d8:	2130a600 	addu	a2,a1,a2
8010e9dc:	1000bf8f 	lw	ra,16(sp)
8010e9e0:	00000000 	nop
8010e9e4:	0800e003 	jr	ra
8010e9e8:	1800bd27 	addiu	sp,sp,24
8010e9ec:	e8ffbd27 	addiu	sp,sp,-24
8010e9f0:	1280053c 	lui	a1,0x8012
8010e9f4:	0c80023c 	lui	v0,0x800c
8010e9f8:	0a000424 	li	a0,10
8010e9fc:	ac46a524 	addiu	a1,a1,18092
8010ea00:	82ed4784 	lh	a3,-4734(v0)
8010ea04:	1000bfaf 	sw	ra,16(sp)
8010ea08:	12d5010c 	jal	0x80075448
8010ea0c:	10000624 	li	a2,16
8010ea10:	1000bf8f 	lw	ra,16(sp)
8010ea14:	00000000 	nop
8010ea18:	0800e003 	jr	ra
8010ea1c:	1800bd27 	addiu	sp,sp,24
8010ea20:	d8ffbd27 	addiu	sp,sp,-40
8010ea24:	1000b0af 	sw	s0,16(sp)
8010ea28:	21808000 	move	s0,a0
8010ea2c:	2000bfaf 	sw	ra,32(sp)
8010ea30:	1c00b3af 	sw	s3,28(sp)
8010ea34:	1800b2af 	sw	s2,24(sp)
8010ea38:	1400b1af 	sw	s1,20(sp)
8010ea3c:	04000392 	lbu	v1,4(s0)
8010ea40:	01001124 	li	s1,1
8010ea44:	33007110 	beq	v1,s1,0x8010eb14
8010ea48:	02006228 	slti	v0,v1,2
8010ea4c:	05004010 	beqz	v0,0x8010ea64
8010ea50:	00000000 	nop
8010ea54:	0a006010 	beqz	v1,0x8010ea80
8010ea58:	21200002 	move	a0,s0
8010ea5c:	ef5f0408 	j	0x80117fbc
8010ea60:	00000000 	nop
8010ea64:	02000224 	li	v0,2
8010ea68:	60016210 	beq	v1,v0,0x8010efec
8010ea6c:	03000224 	li	v0,3
8010ea70:	66016210 	beq	v1,v0,0x8010f00c
8010ea74:	801f033c 	lui	v1,0x1f80
8010ea78:	ef5f0408 	j	0x80117fbc
8010ea7c:	00000000 	nop
8010ea80:	ff000224 	li	v0,255
8010ea84:	0b0002a2 	sb	v0,11(s0)
8010ea88:	00020224 	li	v0,512
8010ea8c:	b80002a6 	sh	v0,184(s0)
8010ea90:	b8000396 	lhu	v1,184(s0)
8010ea94:	0f000224 	li	v0,15
8010ea98:	800002a6 	sh	v0,128(s0)
8010ea9c:	1e000224 	li	v0,30
8010eaa0:	820002a6 	sh	v0,130(s0)
8010eaa4:	40010224 	li	v0,320
8010eaa8:	290000a2 	sb	zero,41(s0)
8010eaac:	5f0000a2 	sb	zero,95(s0)
8010eab0:	5e0000a2 	sb	zero,94(s0)
8010eab4:	000011a2 	sb	s1,0(s0)
8010eab8:	640000a6 	sh	zero,100(s0)
8010eabc:	660000a6 	sh	zero,102(s0)
8010eac0:	400002a6 	sh	v0,64(s0)
8010eac4:	80100300 	sll	v0,v1,0x2
8010eac8:	21104300 	addu	v0,v0,v1
8010eacc:	42110200 	srl	v0,v0,0x5
8010ead0:	860002a6 	sh	v0,134(s0)
8010ead4:	b006010c 	jal	0x80041ac0
8010ead8:	840002a6 	sh	v0,132(s0)
8010eadc:	020c0424 	li	a0,3074
8010eae0:	21280000 	move	a1,zero
8010eae4:	3dc4000c 	jal	0x800310f4
8010eae8:	4a0000a6 	sh	zero,74(s0)
8010eaec:	05004010 	beqz	v0,0x8010eb04
8010eaf0:	00000000 	nop
8010eaf4:	100050ac 	sw	s0,16(v0)
8010eaf8:	100002ae 	sw	v0,16(s0)
8010eafc:	ef5f0408 	j	0x80117fbc
8010eb00:	040011a2 	sb	s1,4(s0)
8010eb04:	03000224 	li	v0,3
8010eb08:	100000ae 	sw	zero,16(s0)
8010eb0c:	ef5f0408 	j	0x80117fbc
8010eb10:	040002a2 	sb	v0,4(s0)
8010eb14:	801f023c 	lui	v0,0x1f80
8010eb18:	59024290 	lbu	v0,601(v0)
8010eb1c:	00000000 	nop
8010eb20:	04004010 	beqz	v0,0x8010eb34
8010eb24:	02000224 	li	v0,2
8010eb28:	000002a2 	sb	v0,0(s0)
8010eb2c:	da5f0408 	j	0x80117f68
8010eb30:	040002a2 	sb	v0,4(s0)
8010eb34:	0c80023c 	lui	v0,0x800c
8010eb38:	09f84290 	lbu	v0,-2039(v0)
8010eb3c:	00000000 	nop
8010eb40:	23014014 	bnez	v0,0x8010efd0
8010eb44:	21200002 	move	a0,s0
8010eb48:	05000292 	lbu	v0,5(s0)
8010eb4c:	00000000 	nop
8010eb50:	05004010 	beqz	v0,0x8010eb68
8010eb54:	00000000 	nop
8010eb58:	84004310 	beq	v0,v1,0x8010ed6c
8010eb5c:	00000000 	nop
8010eb60:	b55f0408 	j	0x80117ed4
8010eb64:	00000000 	nop
8010eb68:	44000286 	lh	v0,68(s0)
8010eb6c:	00000000 	nop
8010eb70:	02004104 	bgez	v0,0x8010eb7c
8010eb74:	00000000 	nop
8010eb78:	23100200 	negu	v0,v0
8010eb7c:	80004224 	addiu	v0,v0,128
8010eb80:	21184000 	move	v1,v0
8010eb84:	00140200 	sll	v0,v0,0x10
8010eb88:	03140200 	sra	v0,v0,0x10
8010eb8c:	01034228 	slti	v0,v0,769
8010eb90:	02004014 	bnez	v0,0x8010eb9c
8010eb94:	00000000 	nop
8010eb98:	00030324 	li	v1,768
8010eb9c:	be000292 	lbu	v0,190(s0)
8010eba0:	00000000 	nop
8010eba4:	03004014 	bnez	v0,0x8010ebb4
8010eba8:	23100300 	negu	v0,v1
8010ebac:	d55e0408 	j	0x80117b54
8010ebb0:	440003a6 	sh	v1,68(s0)
8010ebb4:	440002a6 	sh	v0,68(s0)
8010ebb8:	4a000296 	lhu	v0,74(s0)
8010ebbc:	00000000 	nop
8010ebc0:	00034224 	addiu	v0,v0,768
8010ebc4:	4a0002a6 	sh	v0,74(s0)
8010ebc8:	00140200 	sll	v0,v0,0x10
8010ebcc:	03140200 	sra	v0,v0,0x10
8010ebd0:	01204228 	slti	v0,v0,8193
8010ebd4:	02004014 	bnez	v0,0x8010ebe0
8010ebd8:	00200224 	li	v0,8192
8010ebdc:	4a0002a6 	sh	v0,74(s0)
8010ebe0:	4a000286 	lh	v0,74(s0)
8010ebe4:	3000038e 	lw	v1,48(s0)
8010ebe8:	00120200 	sll	v0,v0,0x8
8010ebec:	21186200 	addu	v1,v1,v0
8010ebf0:	be000292 	lbu	v0,190(s0)
8010ebf4:	e2ff1324 	li	s3,-30
8010ebf8:	04004014 	bnez	v0,0x8010ec0c
8010ebfc:	300003ae 	sw	v1,48(s0)
8010ec00:	60000396 	lhu	v1,96(s0)
8010ec04:	ee5e0408 	j	0x80117bb8
8010ec08:	21200002 	move	a0,s0
8010ec0c:	60000296 	lhu	v0,96(s0)
8010ec10:	00000000 	nop
8010ec14:	00084324 	addiu	v1,v0,2048
8010ec18:	21200002 	move	a0,s0
8010ec1c:	3c000224 	li	v0,60
8010ec20:	21884000 	move	s1,v0
8010ec24:	21282002 	move	a1,s1
8010ec28:	00341300 	sll	a2,s3,0x10
8010ec2c:	03340600 	sra	a2,a2,0x10
8010ec30:	00140300 	sll	v0,v1,0x10
8010ec34:	03940200 	sra	s2,v0,0x10
8010ec38:	2b17010c 	jal	0x80045cac
8010ec3c:	21384002 	move	a3,s2
8010ec40:	0b004014 	bnez	v0,0x8010ec70
8010ec44:	01000224 	li	v0,1
8010ec48:	21200002 	move	a0,s0
8010ec4c:	21282002 	move	a1,s1
8010ec50:	64000624 	li	a2,100
8010ec54:	2330d300 	subu	a2,a2,s3
8010ec58:	00340600 	sll	a2,a2,0x10
8010ec5c:	03340600 	sra	a2,a2,0x10
8010ec60:	2b17010c 	jal	0x80045cac
8010ec64:	21384002 	move	a3,s2
8010ec68:	02004010 	beqz	v0,0x8010ec74
8010ec6c:	01000224 	li	v0,1
8010ec70:	5f0002a2 	sb	v0,95(s0)
8010ec74:	5f000292 	lbu	v0,95(s0)
8010ec78:	5e000392 	lbu	v1,94(s0)
8010ec7c:	00000000 	nop
8010ec80:	25104300 	or	v0,v0,v1
8010ec84:	03004014 	bnez	v0,0x8010ec94
8010ec88:	21200002 	move	a0,s0
8010ec8c:	8706010c 	jal	0x80041a1c
8010ec90:	01000524 	li	a1,1
8010ec94:	b006010c 	jal	0x80041ac0
8010ec98:	21200002 	move	a0,s0
8010ec9c:	02004104 	bgez	v0,0x8010eca8
8010eca0:	00000000 	nop
8010eca4:	400000a6 	sh	zero,64(s0)
8010eca8:	29000292 	lbu	v0,41(s0)
8010ecac:	00000000 	nop
8010ecb0:	26004014 	bnez	v0,0x8010ed4c
8010ecb4:	00000000 	nop
8010ecb8:	be000292 	lbu	v0,190(s0)
8010ecbc:	00000000 	nop
8010ecc0:	04004014 	bnez	v0,0x8010ecd4
8010ecc4:	21200002 	move	a0,s0
8010ecc8:	60000296 	lhu	v0,96(s0)
8010eccc:	205f0408 	j	0x80117c80
8010ecd0:	21280000 	move	a1,zero
8010ecd4:	60000296 	lhu	v0,96(s0)
8010ecd8:	00000000 	nop
8010ecdc:	00084224 	addiu	v0,v0,2048
8010ece0:	21280000 	move	a1,zero
8010ece4:	2130a000 	move	a2,a1
8010ece8:	003c0200 	sll	a3,v0,0x10
8010ecec:	7015010c 	jal	0x800455c0
8010ecf0:	033c0700 	sra	a3,a3,0x10
8010ecf4:	290002a2 	sb	v0,41(s0)
8010ecf8:	ff004230 	andi	v0,v0,0xff
8010ecfc:	12004010 	beqz	v0,0x8010ed48
8010ed00:	801f023c 	lui	v0,0x1f80
8010ed04:	a6014284 	lh	v0,422(v0)
8010ed08:	00000000 	nop
8010ed0c:	00804230 	andi	v0,v0,0x8000
8010ed10:	02004010 	beqz	v0,0x8010ed1c
8010ed14:	00000000 	nop
8010ed18:	400000a6 	sh	zero,64(s0)
8010ed1c:	29000292 	lbu	v0,41(s0)
8010ed20:	00000000 	nop
8010ed24:	01004230 	andi	v0,v0,0x1
8010ed28:	07004010 	beqz	v0,0x8010ed48
8010ed2c:	290002a2 	sb	v0,41(s0)
8010ed30:	9d25010c 	jal	0x80049674
8010ed34:	21200002 	move	a0,s0
8010ed38:	801f023c 	lui	v0,0x1f80
8010ed3c:	a0014294 	lhu	v0,416(v0)
8010ed40:	00000000 	nop
8010ed44:	600002a6 	sh	v0,96(s0)
8010ed48:	29000292 	lbu	v0,41(s0)
8010ed4c:	00000000 	nop
8010ed50:	79004010 	beqz	v0,0x8010ef38
8010ed54:	00000000 	nop
8010ed58:	05000292 	lbu	v0,5(s0)
8010ed5c:	4a0000a6 	sh	zero,74(s0)
8010ed60:	01004224 	addiu	v0,v0,1
8010ed64:	b55f0408 	j	0x80117ed4
8010ed68:	050002a2 	sb	v0,5(s0)
8010ed6c:	44000286 	lh	v0,68(s0)
8010ed70:	00000000 	nop
8010ed74:	02004104 	bgez	v0,0x8010ed80
8010ed78:	00000000 	nop
8010ed7c:	23100200 	negu	v0,v0
8010ed80:	00024224 	addiu	v0,v0,512
8010ed84:	21184000 	move	v1,v0
8010ed88:	00140200 	sll	v0,v0,0x10
8010ed8c:	03140200 	sra	v0,v0,0x10
8010ed90:	011c4228 	slti	v0,v0,7169
8010ed94:	02004014 	bnez	v0,0x8010eda0
8010ed98:	00000000 	nop
8010ed9c:	001c0324 	li	v1,7168
8010eda0:	be000292 	lbu	v0,190(s0)
8010eda4:	00000000 	nop
8010eda8:	03004014 	bnez	v0,0x8010edb8
8010edac:	23100300 	negu	v0,v1
8010edb0:	565f0408 	j	0x80117d58
8010edb4:	440003a6 	sh	v1,68(s0)
8010edb8:	440002a6 	sh	v0,68(s0)
8010edbc:	be000292 	lbu	v0,190(s0)
8010edc0:	00000000 	nop
8010edc4:	04004014 	bnez	v0,0x8010edd8
8010edc8:	e2ff1324 	li	s3,-30
8010edcc:	60000396 	lhu	v1,96(s0)
8010edd0:	615f0408 	j	0x80117d84
8010edd4:	21200002 	move	a0,s0
8010edd8:	60000296 	lhu	v0,96(s0)
8010eddc:	00000000 	nop
8010ede0:	00084324 	addiu	v1,v0,2048
8010ede4:	21200002 	move	a0,s0
8010ede8:	3c000224 	li	v0,60
8010edec:	21884000 	move	s1,v0
8010edf0:	21282002 	move	a1,s1
8010edf4:	00341300 	sll	a2,s3,0x10
8010edf8:	03340600 	sra	a2,a2,0x10
8010edfc:	00140300 	sll	v0,v1,0x10
8010ee00:	03940200 	sra	s2,v0,0x10
8010ee04:	2b17010c 	jal	0x80045cac
8010ee08:	21384002 	move	a3,s2
8010ee0c:	0b004014 	bnez	v0,0x8010ee3c
8010ee10:	01000224 	li	v0,1
8010ee14:	21200002 	move	a0,s0
8010ee18:	21282002 	move	a1,s1
8010ee1c:	64000624 	li	a2,100
8010ee20:	2330d300 	subu	a2,a2,s3
8010ee24:	00340600 	sll	a2,a2,0x10
8010ee28:	03340600 	sra	a2,a2,0x10
8010ee2c:	2b17010c 	jal	0x80045cac
8010ee30:	21384002 	move	a3,s2
8010ee34:	02004010 	beqz	v0,0x8010ee40
8010ee38:	01000224 	li	v0,1
8010ee3c:	5f0002a2 	sb	v0,95(s0)
8010ee40:	5f000292 	lbu	v0,95(s0)
8010ee44:	5e000392 	lbu	v1,94(s0)
8010ee48:	00000000 	nop
8010ee4c:	25104300 	or	v0,v0,v1
8010ee50:	03004014 	bnez	v0,0x8010ee60
8010ee54:	21200002 	move	a0,s0
8010ee58:	8706010c 	jal	0x80041a1c
8010ee5c:	21280000 	move	a1,zero
8010ee60:	b006010c 	jal	0x80041ac0
8010ee64:	21200002 	move	a0,s0
8010ee68:	02004104 	bgez	v0,0x8010ee74
8010ee6c:	00000000 	nop
8010ee70:	400000a6 	sh	zero,64(s0)
8010ee74:	32000296 	lhu	v0,50(s0)
8010ee78:	29000392 	lbu	v1,41(s0)
8010ee7c:	0a004224 	addiu	v0,v0,10
8010ee80:	25006014 	bnez	v1,0x8010ef18
8010ee84:	320002a6 	sh	v0,50(s0)
8010ee88:	be000292 	lbu	v0,190(s0)
8010ee8c:	00000000 	nop
8010ee90:	04004014 	bnez	v0,0x8010eea4
8010ee94:	21200002 	move	a0,s0
8010ee98:	60000296 	lhu	v0,96(s0)
8010ee9c:	945f0408 	j	0x80117e50
8010eea0:	21280000 	move	a1,zero
8010eea4:	60000296 	lhu	v0,96(s0)
8010eea8:	00000000 	nop
8010eeac:	00084224 	addiu	v0,v0,2048
8010eeb0:	21280000 	move	a1,zero
8010eeb4:	2130a000 	move	a2,a1
8010eeb8:	003c0200 	sll	a3,v0,0x10
8010eebc:	7015010c 	jal	0x800455c0
8010eec0:	033c0700 	sra	a3,a3,0x10
8010eec4:	290002a2 	sb	v0,41(s0)
8010eec8:	ff004230 	andi	v0,v0,0xff
8010eecc:	12004010 	beqz	v0,0x8010ef18
8010eed0:	801f023c 	lui	v0,0x1f80
8010eed4:	a6014284 	lh	v0,422(v0)
8010eed8:	00000000 	nop
8010eedc:	00804230 	andi	v0,v0,0x8000
8010eee0:	02004010 	beqz	v0,0x8010eeec
8010eee4:	00000000 	nop
8010eee8:	400000a6 	sh	zero,64(s0)
8010eeec:	29000292 	lbu	v0,41(s0)
8010eef0:	00000000 	nop
8010eef4:	01004230 	andi	v0,v0,0x1
8010eef8:	07004010 	beqz	v0,0x8010ef18
8010eefc:	290002a2 	sb	v0,41(s0)
8010ef00:	9d25010c 	jal	0x80049674
8010ef04:	21200002 	move	a0,s0
8010ef08:	801f023c 	lui	v0,0x1f80
8010ef0c:	a0014294 	lhu	v0,416(v0)
8010ef10:	00000000 	nop
8010ef14:	600002a6 	sh	v0,96(s0)
8010ef18:	29000292 	lbu	v0,41(s0)
8010ef1c:	00000000 	nop
8010ef20:	05004014 	bnez	v0,0x8010ef38
8010ef24:	00000000 	nop
8010ef28:	32000296 	lhu	v0,50(s0)
8010ef2c:	00000000 	nop
8010ef30:	14004224 	addiu	v0,v0,20
8010ef34:	320002a6 	sh	v0,50(s0)
8010ef38:	40000286 	lh	v0,64(s0)
8010ef3c:	40000396 	lhu	v1,64(s0)
8010ef40:	05004014 	bnez	v0,0x8010ef58
8010ef44:	ffff6224 	addiu	v0,v1,-1
8010ef48:	02000224 	li	v0,2
8010ef4c:	000002a2 	sb	v0,0(s0)
8010ef50:	cd5f0408 	j	0x80117f34
8010ef54:	040002a2 	sb	v0,4(s0)
8010ef58:	400002a6 	sh	v0,64(s0)
8010ef5c:	1f004230 	andi	v0,v0,0x1f
8010ef60:	04004014 	bnez	v0,0x8010ef74
8010ef64:	8c000424 	li	a0,140
8010ef68:	21280000 	move	a1,zero
8010ef6c:	64d1010c 	jal	0x80074590
8010ef70:	2130a000 	move	a2,a1
8010ef74:	b8000296 	lhu	v0,184(s0)
8010ef78:	00000000 	nop
8010ef7c:	20004224 	addiu	v0,v0,32
8010ef80:	b80002a6 	sh	v0,184(s0)
8010ef84:	ffff4230 	andi	v0,v0,0xffff
8010ef88:	0114422c 	sltiu	v0,v0,5121
8010ef8c:	02004014 	bnez	v0,0x8010ef98
8010ef90:	00140224 	li	v0,5120
8010ef94:	b80002a6 	sh	v0,184(s0)
8010ef98:	b8000396 	lhu	v1,184(s0)
8010ef9c:	00000000 	nop
8010efa0:	00110300 	sll	v0,v1,0x4
8010efa4:	23104300 	subu	v0,v0,v1
8010efa8:	43120200 	sra	v0,v0,0x9
8010efac:	800002a6 	sh	v0,128(s0)
8010efb0:	40100200 	sll	v0,v0,0x1
8010efb4:	820002a6 	sh	v0,130(s0)
8010efb8:	80100300 	sll	v0,v1,0x2
8010efbc:	21104300 	addu	v0,v0,v1
8010efc0:	42110200 	srl	v0,v0,0x5
8010efc4:	860002a6 	sh	v0,134(s0)
8010efc8:	840002a6 	sh	v0,132(s0)
8010efcc:	21200002 	move	a0,s0
8010efd0:	01000224 	li	v0,1
8010efd4:	290080a0 	sb	zero,41(a0)
8010efd8:	5f0080a0 	sb	zero,95(a0)
8010efdc:	9fdf010c 	jal	0x80077e7c
8010efe0:	010082a0 	sb	v0,1(a0)
8010efe4:	ef5f0408 	j	0x80117fbc
8010efe8:	00000000 	nop
8010efec:	1000028e 	lw	v0,16(s0)
8010eff0:	00000000 	nop
8010eff4:	04004010 	beqz	v0,0x8010f008
8010eff8:	00000000 	nop
8010effc:	040043a0 	sb	v1,4(v0)
8010f000:	ef5f0408 	j	0x80117fbc
8010f004:	100000ae 	sw	zero,16(s0)
8010f008:	801f033c 	lui	v1,0x1f80
8010f00c:	5a026290 	lbu	v0,602(v1)
8010f010:	21200002 	move	a0,s0
8010f014:	ffff4224 	addiu	v0,v0,-1
8010f018:	89e9010c 	jal	0x8007a624
8010f01c:	5a0262a0 	sb	v0,602(v1)
8010f020:	2000bf8f 	lw	ra,32(sp)
8010f024:	1c00b38f 	lw	s3,28(sp)
8010f028:	1800b28f 	lw	s2,24(sp)
8010f02c:	1400b18f 	lw	s1,20(sp)
8010f030:	1000b08f 	lw	s0,16(sp)
8010f034:	0800e003 	jr	ra
8010f038:	2800bd27 	addiu	sp,sp,40
8010f03c:	d8ffbd27 	addiu	sp,sp,-40
8010f040:	1c00b3af 	sw	s3,28(sp)
8010f044:	21988000 	move	s3,a0
8010f048:	01000424 	li	a0,1
8010f04c:	02000524 	li	a1,2
8010f050:	21300000 	move	a2,zero
8010f054:	2000bfaf 	sw	ra,32(sp)
8010f058:	1800b2af 	sw	s2,24(sp)
8010f05c:	1400b1af 	sw	s1,20(sp)
8010f060:	60ea010c 	jal	0x8007a980
8010f064:	1000b0af 	sw	s0,16(sp)
8010f068:	21904000 	move	s2,v0
8010f06c:	2f004012 	beqz	s2,0x8010f12c
8010f070:	801f033c 	lui	v1,0x1f80
8010f074:	c0006524 	addiu	a1,v1,192
8010f078:	1180023c 	lui	v0,0x8011
8010f07c:	bc794224 	addiu	v0,v0,31164
8010f080:	1c0042ae 	sw	v0,28(s2)
8010f084:	55000224 	li	v0,85
8010f088:	020042a2 	sb	v0,2(s2)
8010f08c:	2c010224 	li	v0,300
8010f090:	801f113c 	lui	s1,0x1f80
8010f094:	c8003026 	addiu	s0,s1,200
8010f098:	030040a2 	sb	zero,3(s2)
8010f09c:	c00062a4 	sh	v0,192(v1)
8010f0a0:	0200a0a4 	sh	zero,2(a1)
8010f0a4:	0400a0a4 	sh	zero,4(a1)
8010f0a8:	c400648e 	lw	a0,196(s3)
8010f0ac:	21300002 	move	a2,s0
8010f0b0:	3011020c 	jal	0x800844c0
8010f0b4:	18008424 	addiu	a0,a0,24
8010f0b8:	c400628e 	lw	v0,196(s3)
8010f0bc:	c8002396 	lhu	v1,200(s1)
8010f0c0:	2c004294 	lhu	v0,44(v0)
8010f0c4:	00000000 	nop
8010f0c8:	21104300 	addu	v0,v0,v1
8010f0cc:	2e0042a6 	sh	v0,46(s2)
8010f0d0:	c400628e 	lw	v0,196(s3)
8010f0d4:	02000396 	lhu	v1,2(s0)
8010f0d8:	30004294 	lhu	v0,48(v0)
8010f0dc:	00000000 	nop
8010f0e0:	21104300 	addu	v0,v0,v1
8010f0e4:	320042a6 	sh	v0,50(s2)
8010f0e8:	c400628e 	lw	v0,196(s3)
8010f0ec:	04000396 	lhu	v1,4(s0)
8010f0f0:	34004294 	lhu	v0,52(v0)
8010f0f4:	00000000 	nop
8010f0f8:	21104300 	addu	v0,v0,v1
8010f0fc:	360042a6 	sh	v0,54(s2)
8010f100:	2a006292 	lbu	v0,42(s3)
8010f104:	00000000 	nop
8010f108:	2a0042a2 	sb	v0,42(s2)
8010f10c:	be006292 	lbu	v0,190(s3)
8010f110:	801f043c 	lui	a0,0x1f80
8010f114:	be0042a2 	sb	v0,190(s2)
8010f118:	5a028390 	lbu	v1,602(a0)
8010f11c:	21104002 	move	v0,s2
8010f120:	01006324 	addiu	v1,v1,1
8010f124:	33600408 	j	0x801180cc
8010f128:	5a0283a0 	sb	v1,602(a0)
8010f12c:	21100000 	move	v0,zero
8010f130:	2000bf8f 	lw	ra,32(sp)
8010f134:	1c00b38f 	lw	s3,28(sp)
8010f138:	1800b28f 	lw	s2,24(sp)
8010f13c:	1400b18f 	lw	s1,20(sp)
8010f140:	1000b08f 	lw	s0,16(sp)
8010f144:	0800e003 	jr	ra
8010f148:	2800bd27 	addiu	sp,sp,40
8010f14c:	e8ffbd27 	addiu	sp,sp,-24
8010f150:	1000b0af 	sw	s0,16(sp)
8010f154:	21808000 	move	s0,a0
8010f158:	1400bfaf 	sw	ra,20(sp)
8010f15c:	29000292 	lbu	v0,41(s0)
8010f160:	00000000 	nop
8010f164:	26004014 	bnez	v0,0x8010f200
8010f168:	00000000 	nop
8010f16c:	be000292 	lbu	v0,190(s0)
8010f170:	00000000 	nop
8010f174:	04004014 	bnez	v0,0x8010f188
8010f178:	21200002 	move	a0,s0
8010f17c:	60000296 	lhu	v0,96(s0)
8010f180:	4d600408 	j	0x80118134
8010f184:	003c0200 	sll	a3,v0,0x10
8010f188:	60000296 	lhu	v0,96(s0)
8010f18c:	00000000 	nop
8010f190:	00084224 	addiu	v0,v0,2048
8010f194:	003c0200 	sll	a3,v0,0x10
8010f198:	21280000 	move	a1,zero
8010f19c:	2130a000 	move	a2,a1
8010f1a0:	7015010c 	jal	0x800455c0
8010f1a4:	033c0700 	sra	a3,a3,0x10
8010f1a8:	290002a2 	sb	v0,41(s0)
8010f1ac:	ff004230 	andi	v0,v0,0xff
8010f1b0:	12004010 	beqz	v0,0x8010f1fc
8010f1b4:	801f023c 	lui	v0,0x1f80
8010f1b8:	a6014284 	lh	v0,422(v0)
8010f1bc:	00000000 	nop
8010f1c0:	00804230 	andi	v0,v0,0x8000
8010f1c4:	02004010 	beqz	v0,0x8010f1d0
8010f1c8:	00000000 	nop
8010f1cc:	400000a6 	sh	zero,64(s0)
8010f1d0:	29000292 	lbu	v0,41(s0)
8010f1d4:	00000000 	nop
8010f1d8:	01004230 	andi	v0,v0,0x1
8010f1dc:	07004010 	beqz	v0,0x8010f1fc
8010f1e0:	290002a2 	sb	v0,41(s0)
8010f1e4:	9d25010c 	jal	0x80049674
8010f1e8:	21200002 	move	a0,s0
8010f1ec:	801f023c 	lui	v0,0x1f80
8010f1f0:	a0014294 	lhu	v0,416(v0)
8010f1f4:	00000000 	nop
8010f1f8:	600002a6 	sh	v0,96(s0)
8010f1fc:	29000292 	lbu	v0,41(s0)
8010f200:	1400bf8f 	lw	ra,20(sp)
8010f204:	1000b08f 	lw	s0,16(sp)
8010f208:	0800e003 	jr	ra
8010f20c:	1800bd27 	addiu	sp,sp,24
8010f210:	d8ffbd27 	addiu	sp,sp,-40
8010f214:	1800b2af 	sw	s2,24(sp)
8010f218:	21908000 	move	s2,a0
8010f21c:	2000bfaf 	sw	ra,32(sp)
8010f220:	1c00b3af 	sw	s3,28(sp)
8010f224:	1400b1af 	sw	s1,20(sp)
8010f228:	1000b0af 	sw	s0,16(sp)
8010f22c:	be004292 	lbu	v0,190(s2)
8010f230:	00000000 	nop
8010f234:	04004014 	bnez	v0,0x8010f248
8010f238:	e2ff1324 	li	s3,-30
8010f23c:	60004396 	lhu	v1,96(s2)
8010f240:	7d600408 	j	0x801181f4
8010f244:	21204002 	move	a0,s2
8010f248:	60004296 	lhu	v0,96(s2)
8010f24c:	00000000 	nop
8010f250:	00084324 	addiu	v1,v0,2048
8010f254:	21204002 	move	a0,s2
8010f258:	3c000224 	li	v0,60
8010f25c:	21804000 	move	s0,v0
8010f260:	21280002 	move	a1,s0
8010f264:	00341300 	sll	a2,s3,0x10
8010f268:	03340600 	sra	a2,a2,0x10
8010f26c:	00140300 	sll	v0,v1,0x10
8010f270:	038c0200 	sra	s1,v0,0x10
8010f274:	2b17010c 	jal	0x80045cac
8010f278:	21382002 	move	a3,s1
8010f27c:	0d004014 	bnez	v0,0x8010f2b4
8010f280:	01000224 	li	v0,1
8010f284:	21204002 	move	a0,s2
8010f288:	21280002 	move	a1,s0
8010f28c:	64000624 	li	a2,100
8010f290:	2330d300 	subu	a2,a2,s3
8010f294:	00340600 	sll	a2,a2,0x10
8010f298:	03340600 	sra	a2,a2,0x10
8010f29c:	2b17010c 	jal	0x80045cac
8010f2a0:	21382002 	move	a3,s1
8010f2a4:	03004014 	bnez	v0,0x8010f2b4
8010f2a8:	01000224 	li	v0,1
8010f2ac:	96600408 	j	0x80118258
8010f2b0:	21100000 	move	v0,zero
8010f2b4:	5f0042a2 	sb	v0,95(s2)
8010f2b8:	01000224 	li	v0,1
8010f2bc:	2000bf8f 	lw	ra,32(sp)
8010f2c0:	1c00b38f 	lw	s3,28(sp)
8010f2c4:	1800b28f 	lw	s2,24(sp)
8010f2c8:	1400b18f 	lw	s1,20(sp)
8010f2cc:	1000b08f 	lw	s0,16(sp)
8010f2d0:	0800e003 	jr	ra
8010f2d4:	2800bd27 	addiu	sp,sp,40
8010f2d8:	00800080 	lb	zero,-32768(zero)
8010f2dc:	e0a0c0c0 	lwc0	c0_index,-24352(a2)
8010f2e0:	0a0a0807 	.word	0x7080a0a
8010f2e4:	06050403 	.word	0x3040506
8010f2e8:	83030600 	sra	zero,a2,0xe
	...
8010f2f4:	3c1a0780 	lb	a3,6716(zero)
8010f2f8:	ff000000 	.word	0xff
	...
8010f308:	ff000000 	.word	0xff
	...
8010f318:	84821180 	lb	s1,-32124(zero)
8010f31c:	a4821180 	lb	s1,-32092(zero)
8010f320:	922733e0 	swc0	$19,10130(at)
8010f324:	fa287a17 	bne	k1,k0,0x80119710
8010f328:	f2e06e1e 	.word	0x1e6ee0f2
8010f32c:	932733e0 	swc0	$19,10131(at)
8010f330:	f8287a17 	bne	k1,k0,0x80119714
8010f334:	f2e06e1e 	.word	0x1e6ee0f2
8010f338:	942734e0 	swc0	$20,10132(at)
8010f33c:	f3287a17 	bne	k1,k0,0x8011970c
8010f340:	f2e06e1e 	.word	0x1e6ee0f2
8010f344:	962735e0 	swc0	$21,10134(at)
8010f348:	eb287a17 	bne	k1,k0,0x801196f8
8010f34c:	f2e06e1e 	.word	0x1e6ee0f2
8010f350:	992735e0 	swc0	$21,10137(at)
8010f354:	e0287a17 	bne	k1,k0,0x801196d8
8010f358:	f2e06e1e 	.word	0x1e6ee0f2
8010f35c:	9c2736e0 	swc0	$22,10140(at)
8010f360:	d2287a17 	bne	k1,k0,0x801196ac
8010f364:	f2e06e1e 	.word	0x1e6ee0f2
8010f368:	a02737e0 	swc0	$23,10144(at)
8010f36c:	c1287a17 	bne	k1,k0,0x80119674
8010f370:	f2e06e1e 	.word	0x1e6ee0f2
8010f374:	a42738e0 	swc0	$24,10148(at)
8010f378:	ad287a17 	bne	k1,k0,0x80119630
8010f37c:	f2e06e1e 	.word	0x1e6ee0f2
8010f380:	a92739e0 	swc0	$25,10153(at)
8010f384:	96287a17 	bne	k1,k0,0x801195e0
8010f388:	f2e06e1e 	.word	0x1e6ee0f2
8010f38c:	ae273ae0 	swc0	$26,10158(at)
8010f390:	7d287a17 	bne	k1,k0,0x80119588
8010f394:	f2e06e1e 	.word	0x1e6ee0f2
8010f398:	b3273ae0 	swc0	$26,10163(at)
8010f39c:	60287a17 	bne	k1,k0,0x80119520
8010f3a0:	f2e06e1e 	.word	0x1e6ee0f2
8010f3a4:	b8273ae0 	swc0	$26,10168(at)
8010f3a8:	40287a17 	bne	k1,k0,0x801194ac
8010f3ac:	f2e06e1e 	.word	0x1e6ee0f2
8010f3b0:	bd273ae0 	swc0	$26,10173(at)
8010f3b4:	1e287a17 	bne	k1,k0,0x80119430
8010f3b8:	f2e06e1e 	.word	0x1e6ee0f2
8010f3bc:	c22739e0 	swc0	$25,10178(at)
8010f3c0:	fa277a17 	bne	k1,k0,0x801193ac
8010f3c4:	f2e06e1e 	.word	0x1e6ee0f2
8010f3c8:	c62737e0 	swc0	$23,10182(at)
8010f3cc:	d2277a17 	bne	k1,k0,0x80119318
8010f3d0:	f2e06e1e 	.word	0x1e6ee0f2
8010f3d4:	ca2734e0 	swc0	$20,10186(at)
8010f3d8:	a9277a17 	bne	k1,k0,0x80119280
8010f3dc:	f2e06e1e 	.word	0x1e6ee0f2
8010f3e0:	ce2731e0 	swc0	$17,10190(at)
8010f3e4:	7c277a17 	bne	k1,k0,0x801191d8
8010f3e8:	f2e06e1e 	.word	0x1e6ee0f2
8010f3ec:	d1272de0 	swc0	c0_cause,10193(at)
8010f3f0:	4e277a17 	bne	k1,k0,0x8011912c
8010f3f4:	f2e06e1e 	.word	0x1e6ee0f2
8010f3f8:	d42728e0 	swc0	c0_badvaddr,10196(at)
8010f3fc:	1d277a17 	bne	k1,k0,0x80119074
8010f400:	f2e06e1e 	.word	0x1e6ee0f2
8010f404:	d52722e0 	swc0	c0_entrylo,10197(at)
8010f408:	ea267a17 	bne	k1,k0,0x80118fb4
8010f40c:	f2e06e1e 	.word	0x1e6ee0f2
8010f410:	d7271be0 	swc0	$27,10199(zero)
8010f414:	b6267a17 	bne	k1,k0,0x80118ef0
8010f418:	f2e06e1e 	.word	0x1e6ee0f2
8010f41c:	d72713e0 	swc0	$19,10199(zero)
8010f420:	7f267a17 	bne	k1,k0,0x80118e20
8010f424:	f2e06e1e 	.word	0x1e6ee0f2
8010f428:	d6270ae0 	swc0	c0_entryhi,10198(zero)
8010f42c:	46267a17 	bne	k1,k0,0x80118d48
8010f430:	f2e06e1e 	.word	0x1e6ee0f2
8010f434:	d527ffdf 	.word	0xdfff27d5
8010f438:	0b267a17 	bne	k1,k0,0x80118c68
8010f43c:	f2e06e1e 	.word	0x1e6ee0f2
8010f440:	d327f4df 	.word	0xdff427d3
8010f444:	cf257a17 	bne	k1,k0,0x80118b84
8010f448:	f2e06e1e 	.word	0x1e6ee0f2
8010f44c:	d027e8df 	.word	0xdfe827d0
8010f450:	91257a17 	bne	k1,k0,0x80118a98
8010f454:	f2e06e1e 	.word	0x1e6ee0f2
8010f458:	cc27dbdf 	.word	0xdfdb27cc
8010f45c:	52257a17 	bne	k1,k0,0x801189a8
8010f460:	f2e06e1e 	.word	0x1e6ee0f2
8010f464:	c727ccdf 	.word	0xdfcc27c7
8010f468:	11257a17 	bne	k1,k0,0x801188b0
8010f46c:	f2e06e1e 	.word	0x1e6ee0f2
8010f470:	c127bddf 	.word	0xdfbd27c1
8010f474:	cf247a17 	bne	k1,k0,0x801187b4
8010f478:	f2e06e1e 	.word	0x1e6ee0f2
8010f47c:	ba27acdf 	.word	0xdfac27ba
8010f480:	8c247a17 	bne	k1,k0,0x801186b4
8010f484:	f2e06e1e 	.word	0x1e6ee0f2
8010f488:	b2279adf 	.word	0xdf9a27b2
8010f48c:	48247a17 	bne	k1,k0,0x801185b0
8010f490:	f2e06e1e 	.word	0x1e6ee0f2
8010f494:	a92787df 	.word	0xdf8727a9
8010f498:	02247a17 	bne	k1,k0,0x801184a4
8010f49c:	f2e06e1e 	.word	0x1e6ee0f2
8010f4a0:	9f2773df 	.word	0xdf73279f
8010f4a4:	bc237a17 	bne	k1,k0,0x80118398
8010f4a8:	f2e06e1e 	.word	0x1e6ee0f2
8010f4ac:	93275ddf 	.word	0xdf5d2793
8010f4b0:	75237a17 	bne	k1,k0,0x80118288
8010f4b4:	f2e06e1e 	.word	0x1e6ee0f2
8010f4b8:	872747df 	.word	0xdf472787
8010f4bc:	2d237a17 	bne	k1,k0,0x80118174
8010f4c0:	f2e06e1e 	.word	0x1e6ee0f2
8010f4c4:	79272fdf 	.word	0xdf2f2779
8010f4c8:	e4227a17 	bne	k1,k0,0x8011805c
8010f4cc:	f2e06e1e 	.word	0x1e6ee0f2
8010f4d0:	6a2716df 	.word	0xdf16276a
8010f4d4:	9b227a17 	bne	k1,k0,0x80117f44
8010f4d8:	f2e06e1e 	.word	0x1e6ee0f2
8010f4dc:	5a27fcde 	.word	0xdefc275a
8010f4e0:	51227a17 	bne	k1,k0,0x80117e28
8010f4e4:	f2e06e1e 	.word	0x1e6ee0f2
8010f4e8:	4927e1de 	.word	0xdee12749
8010f4ec:	07227a17 	bne	k1,k0,0x80117d0c
8010f4f0:	f2e06e1e 	.word	0x1e6ee0f2
8010f4f4:	3727c4de 	.word	0xdec42737
8010f4f8:	bd217a17 	bne	k1,k0,0x80117bf0
8010f4fc:	f2e06e1e 	.word	0x1e6ee0f2
8010f500:	2327a7de 	.word	0xdea72723
8010f504:	72217a17 	bne	k1,k0,0x80117ad0
8010f508:	f2e06e1e 	.word	0x1e6ee0f2
8010f50c:	0d2788de 	.word	0xde88270d
8010f510:	28217a17 	bne	k1,k0,0x801179b4
8010f514:	f2e06e1e 	.word	0x1e6ee0f2
8010f518:	f72667de 	.word	0xde6726f7
8010f51c:	de207a17 	bne	k1,k0,0x80117898
8010f520:	f2e06e1e 	.word	0x1e6ee0f2
8010f524:	df2646de 	.word	0xde4626df
8010f528:	94207a17 	bne	k1,k0,0x8011777c
8010f52c:	f2e06e1e 	.word	0x1e6ee0f2
8010f530:	c52622de 	.word	0xde2226c5
8010f534:	4b207a17 	bne	k1,k0,0x80117664
8010f538:	f2e06e1e 	.word	0x1e6ee0f2
8010f53c:	aa26fedd 	.word	0xddfe26aa
8010f540:	02207a17 	bne	k1,k0,0x8011754c
8010f544:	f2e06e1e 	.word	0x1e6ee0f2
8010f548:	8d26d8dd 	.word	0xddd8268d
8010f54c:	bb1f7a17 	bne	k1,k0,0x8011743c
8010f550:	f2e06e1e 	.word	0x1e6ee0f2
8010f554:	6e26b1dd 	.word	0xddb1266e
8010f558:	741f7a17 	bne	k1,k0,0x8011732c
8010f55c:	f2e06e1e 	.word	0x1e6ee0f2
8010f560:	4d2688dd 	.word	0xdd88264d
8010f564:	2f1f7a17 	bne	k1,k0,0x80117224
8010f568:	f2e06e1e 	.word	0x1e6ee0f2
8010f56c:	2b265ddd 	.word	0xdd5d262b
8010f570:	eb1e7a17 	bne	k1,k0,0x80117120
8010f574:	f2e06e1e 	.word	0x1e6ee0f2
8010f578:	062631dd 	.word	0xdd312606
8010f57c:	a91e7a17 	bne	k1,k0,0x80117024
8010f580:	f2e06e1e 	.word	0x1e6ee0f2
8010f584:	df2503dd 	.word	0xdd0325df
8010f588:	6a1e7a17 	bne	k1,k0,0x80116f34
8010f58c:	f2e06e1e 	.word	0x1e6ee0f2
8010f590:	b625d1dc 	.word	0xdcd125b6
8010f594:	2f1e7a17 	bne	k1,k0,0x80116e54
8010f598:	f2e06e1e 	.word	0x1e6ee0f2
8010f59c:	8b259cdc 	.word	0xdc9c258b
8010f5a0:	f81d7a17 	bne	k1,k0,0x80116d84
8010f5a4:	f2e06e1e 	.word	0x1e6ee0f2
8010f5a8:	602565dc 	.word	0xdc652560
8010f5ac:	c31d7a17 	bne	k1,k0,0x80116cbc
8010f5b0:	f2e06e1e 	.word	0x1e6ee0f2
8010f5b4:	33252cdc 	.word	0xdc2c2533
8010f5b8:	921d7a17 	bne	k1,k0,0x80116c04
8010f5bc:	f2e06e1e 	.word	0x1e6ee0f2
8010f5c0:	0625f2db 	.word	0xdbf22506
8010f5c4:	641d7a17 	bne	k1,k0,0x80116b58
8010f5c8:	f2e06e1e 	.word	0x1e6ee0f2
8010f5cc:	d924b6db 	.word	0xdbb624d9
8010f5d0:	381d7a17 	bne	k1,k0,0x80116ab4
8010f5d4:	f2e06e1e 	.word	0x1e6ee0f2
8010f5d8:	ab247adb 	.word	0xdb7a24ab
8010f5dc:	0e1d7a17 	bne	k1,k0,0x80116a18
8010f5e0:	f2e06e1e 	.word	0x1e6ee0f2
8010f5e4:	7c243edb 	.word	0xdb3e247c
8010f5e8:	e61c7a17 	bne	k1,k0,0x80116984
8010f5ec:	f2e06e1e 	.word	0x1e6ee0f2
8010f5f0:	4d2401db 	.word	0xdb01244d
8010f5f4:	c01c7a17 	bne	k1,k0,0x801168f8
8010f5f8:	f2e06e1e 	.word	0x1e6ee0f2
8010f5fc:	1e24c4da 	.word	0xdac4241e
8010f600:	9c1c7a17 	bne	k1,k0,0x80116874
8010f604:	f2e06e1e 	.word	0x1e6ee0f2
8010f608:	ef2387da 	.word	0xda8723ef
8010f60c:	791c7a17 	bne	k1,k0,0x801167f4
8010f610:	f2e06e1e 	.word	0x1e6ee0f2
8010f614:	c0234ada 	.word	0xda4a23c0
8010f618:	571c7a17 	bne	k1,k0,0x80116778
8010f61c:	f2e06e1e 	.word	0x1e6ee0f2
8010f620:	91230eda 	.word	0xda0e2391
8010f624:	371c7a17 	bne	k1,k0,0x80116704
8010f628:	f2e06e1e 	.word	0x1e6ee0f2
8010f62c:	6123d2d9 	.word	0xd9d22361
8010f630:	191c7a17 	bne	k1,k0,0x80116698
8010f634:	f2e06e1e 	.word	0x1e6ee0f2
8010f638:	322396d9 	.word	0xd9962332
8010f63c:	fb1b7a17 	bne	k1,k0,0x8011662c
8010f640:	f2e06e1e 	.word	0x1e6ee0f2
8010f644:	02235bd9 	.word	0xd95b2302
8010f648:	df1b7a17 	bne	k1,k0,0x801165c8
8010f64c:	f2e06e1e 	.word	0x1e6ee0f2
8010f650:	d32221d9 	.word	0xd92122d3
8010f654:	c41b7a17 	bne	k1,k0,0x80116568
8010f658:	f2e06e1e 	.word	0x1e6ee0f2
8010f65c:	a422e8d8 	.word	0xd8e822a4
8010f660:	aa1b7a17 	bne	k1,k0,0x8011650c
8010f664:	f2e06e1e 	.word	0x1e6ee0f2
8010f668:	7422b0d8 	.word	0xd8b02274
8010f66c:	911b7a17 	bne	k1,k0,0x801164b4
8010f670:	f2e06e1e 	.word	0x1e6ee0f2
8010f674:	452279d8 	.word	0xd8792245
8010f678:	791b7a17 	bne	k1,k0,0x80116460
8010f67c:	f2e06e1e 	.word	0x1e6ee0f2
8010f680:	172242d8 	.word	0xd8422217
8010f684:	621b7a17 	bne	k1,k0,0x80116410
8010f688:	f2e06e1e 	.word	0x1e6ee0f2
8010f68c:	e8210ed8 	.word	0xd80e21e8
8010f690:	4b1b7a17 	bne	k1,k0,0x801163c0
8010f694:	f2e06e1e 	.word	0x1e6ee0f2
8010f698:	ba21dad7 	.word	0xd7da21ba
8010f69c:	361b7a17 	bne	k1,k0,0x80116378
8010f6a0:	f2e06e1e 	.word	0x1e6ee0f2
8010f6a4:	8c21a8d7 	.word	0xd7a8218c
8010f6a8:	221b7a17 	bne	k1,k0,0x80116334
8010f6ac:	f2e06e1e 	.word	0x1e6ee0f2
8010f6b0:	5e2177d7 	.word	0xd777215e
8010f6b4:	0e1b7a17 	bne	k1,k0,0x801162f0
8010f6b8:	f2e06e1e 	.word	0x1e6ee0f2
8010f6bc:	312148d7 	.word	0xd7482131
8010f6c0:	fc1a7a17 	bne	k1,k0,0x801162b4
8010f6c4:	f2e06e1e 	.word	0x1e6ee0f2
8010f6c8:	04211ad7 	.word	0xd71a2104
8010f6cc:	ea1a7a17 	bne	k1,k0,0x80116278
8010f6d0:	f2e06e1e 	.word	0x1e6ee0f2
8010f6d4:	d720efd6 	.word	0xd6ef20d7
8010f6d8:	d91a7a17 	bne	k1,k0,0x80116240
8010f6dc:	f2e06e1e 	.word	0x1e6ee0f2
8010f6e0:	ab20c5d6 	.word	0xd6c520ab
8010f6e4:	c91a7a17 	bne	k1,k0,0x8011620c
8010f6e8:	f2e06e1e 	.word	0x1e6ee0f2
8010f6ec:	80209cd6 	.word	0xd69c2080
8010f6f0:	ba1a7a17 	bne	k1,k0,0x801161dc
8010f6f4:	f2e06e1e 	.word	0x1e6ee0f2
8010f6f8:	552076d6 	.word	0xd6762055
8010f6fc:	ab1a7a17 	bne	k1,k0,0x801161ac
8010f700:	f2e06e1e 	.word	0x1e6ee0f2
8010f704:	2a2052d6 	.word	0xd652202a
8010f708:	9d1a7a17 	bne	k1,k0,0x80116180
8010f70c:	f2e06e1e 	.word	0x1e6ee0f2
8010f710:	012030d6 	.word	0xd6302001
8010f714:	901a7a17 	bne	k1,k0,0x80116158
8010f718:	f2e06e1e 	.word	0x1e6ee0f2
8010f71c:	d81f10d6 	.word	0xd6101fd8
8010f720:	841a7a17 	bne	k1,k0,0x80116134
8010f724:	f2e06e1e 	.word	0x1e6ee0f2
8010f728:	b01ff3d5 	.word	0xd5f31fb0
8010f72c:	791a7a17 	bne	k1,k0,0x80116114
8010f730:	f2e06e1e 	.word	0x1e6ee0f2
8010f734:	891fd8d5 	.word	0xd5d81f89
8010f738:	6e1a7a17 	bne	k1,k0,0x801160f4
8010f73c:	f2e06e1e 	.word	0x1e6ee0f2
8010f740:	621fbfd5 	.word	0xd5bf1f62
8010f744:	641a7a17 	bne	k1,k0,0x801160d8
8010f748:	f2e06e1e 	.word	0x1e6ee0f2
8010f74c:	3d1fa9d5 	.word	0xd5a91f3d
8010f750:	5b1a7a17 	bne	k1,k0,0x801160c0
8010f754:	f2e06e1e 	.word	0x1e6ee0f2
8010f758:	191f95d5 	.word	0xd5951f19
8010f75c:	531a7a17 	bne	k1,k0,0x801160ac
8010f760:	f2e06e1e 	.word	0x1e6ee0f2
8010f764:	f71e84d5 	.word	0xd5841ef7
8010f768:	4b1a7a17 	bne	k1,k0,0x80116098
8010f76c:	f2e06e1e 	.word	0x1e6ee0f2
8010f770:	d61e75d5 	.word	0xd5751ed6
8010f774:	441a7a17 	bne	k1,k0,0x80116088
8010f778:	f2e06e1e 	.word	0x1e6ee0f2
8010f77c:	b61e69d5 	.word	0xd5691eb6
8010f780:	3e1a7a17 	bne	k1,k0,0x8011607c
8010f784:	f2e06e1e 	.word	0x1e6ee0f2
8010f788:	991e5fd5 	.word	0xd55f1e99
8010f78c:	391a7a17 	bne	k1,k0,0x80116074
8010f790:	f2e06e1e 	.word	0x1e6ee0f2
8010f794:	7d1e57d5 	.word	0xd5571e7d
8010f798:	341a7a17 	bne	k1,k0,0x8011606c
8010f79c:	f2e06e1e 	.word	0x1e6ee0f2
8010f7a0:	641e52d5 	.word	0xd5521e64
8010f7a4:	301a7a17 	bne	k1,k0,0x80116068
8010f7a8:	f2e06e1e 	.word	0x1e6ee0f2
8010f7ac:	4d1e4ed5 	.word	0xd54e1e4d
8010f7b0:	2d1a7a17 	bne	k1,k0,0x80116068
8010f7b4:	f2e06e1e 	.word	0x1e6ee0f2
8010f7b8:	391e4cd5 	.word	0xd54c1e39
8010f7bc:	2a1a7a17 	bne	k1,k0,0x80116068
8010f7c0:	f2e06e1e 	.word	0x1e6ee0f2
8010f7c4:	281e4bd5 	.word	0xd54b1e28
8010f7c8:	281a7a17 	bne	k1,k0,0x8011606c
8010f7cc:	f2e06e1e 	.word	0x1e6ee0f2
8010f7d0:	1a1e4ad5 	.word	0xd54a1e1a
8010f7d4:	271a7a17 	bne	k1,k0,0x80116074
8010f7d8:	f2e06e1e 	.word	0x1e6ee0f2
8010f7dc:	0f1e4ad5 	.word	0xd54a1e0f
8010f7e0:	261a7a17 	bne	k1,k0,0x8011607c
8010f7e4:	f2e06e1e 	.word	0x1e6ee0f2
8010f7e8:	071e4bd5 	.word	0xd54b1e07
8010f7ec:	251a7a17 	bne	k1,k0,0x80116084
8010f7f0:	f2e06e1e 	.word	0x1e6ee0f2
8010f7f4:	021e4bd5 	.word	0xd54b1e02
8010f7f8:	251a7a17 	bne	k1,k0,0x80116090
8010f7fc:	f2e06e1e 	.word	0x1e6ee0f2
8010f800:	011e4bd5 	.word	0xd54b1e01
8010f804:	241a7a17 	bne	k1,k0,0x80116098
8010f808:	f2e06e1e 	.word	0x1e6ee0f2
8010f80c:	011e4bd5 	.word	0xd54b1e01
8010f810:	241a7a17 	bne	k1,k0,0x801160a4
8010f814:	f2e06e1e 	.word	0x1e6ee0f2
8010f818:	011e4bd5 	.word	0xd54b1e01
8010f81c:	241a7a17 	bne	k1,k0,0x801160b0
8010f820:	f2e06e1e 	.word	0x1e6ee0f2
8010f824:	001e4bd5 	.word	0xd54b1e00
8010f828:	241a7a17 	bne	k1,k0,0x801160bc
8010f82c:	f2e06e1e 	.word	0x1e6ee0f2
8010f830:	001e4bd5 	.word	0xd54b1e00
8010f834:	241a7a17 	bne	k1,k0,0x801160c8
8010f838:	f2e06e1e 	.word	0x1e6ee0f2
8010f83c:	001e4bd5 	.word	0xd54b1e00
8010f840:	241a7a17 	bne	k1,k0,0x801160d4
8010f844:	f2e06e1e 	.word	0x1e6ee0f2
8010f848:	ff1d4bd5 	.word	0xd54b1dff
8010f84c:	241a7a17 	bne	k1,k0,0x801160e0
8010f850:	f2e06e1e 	.word	0x1e6ee0f2
8010f854:	ff1d4bd5 	.word	0xd54b1dff
8010f858:	241a7a17 	bne	k1,k0,0x801160ec
8010f85c:	f2e06e1e 	.word	0x1e6ee0f2
8010f860:	fe1d4bd5 	.word	0xd54b1dfe
8010f864:	241a7a17 	bne	k1,k0,0x801160f8
8010f868:	f2e06e1e 	.word	0x1e6ee0f2
8010f86c:	fe1d4bd5 	.word	0xd54b1dfe
8010f870:	241a7a17 	bne	k1,k0,0x80116104
8010f874:	f2e06e1e 	.word	0x1e6ee0f2
8010f878:	fd1d4bd5 	.word	0xd54b1dfd
8010f87c:	241a7a17 	bne	k1,k0,0x80116110
8010f880:	f2e06e1e 	.word	0x1e6ee0f2
8010f884:	fd1d4bd5 	.word	0xd54b1dfd
8010f888:	241a7a17 	bne	k1,k0,0x8011611c
8010f88c:	f2e06e1e 	.word	0x1e6ee0f2
8010f890:	fc1d4bd5 	.word	0xd54b1dfc
8010f894:	241a7a17 	bne	k1,k0,0x80116128
8010f898:	f2e06e1e 	.word	0x1e6ee0f2
8010f89c:	fc1d4bd5 	.word	0xd54b1dfc
8010f8a0:	241a7a17 	bne	k1,k0,0x80116134
8010f8a4:	f2e06e1e 	.word	0x1e6ee0f2
8010f8a8:	fc1d4bd5 	.word	0xd54b1dfc
8010f8ac:	241a7a17 	bne	k1,k0,0x80116140
8010f8b0:	f2e06e1e 	.word	0x1e6ee0f2
8010f8b4:	fc1d4bd5 	.word	0xd54b1dfc
8010f8b8:	241a7a17 	bne	k1,k0,0x8011614c
8010f8bc:	f2e06e1e 	.word	0x1e6ee0f2
8010f8c0:	f51d4bd5 	.word	0xd54b1df5
8010f8c4:	241a7a17 	bne	k1,k0,0x80116158
8010f8c8:	f2e06e1e 	.word	0x1e6ee0f2
8010f8cc:	df1d4ed5 	.word	0xd54e1ddf
8010f8d0:	221a7a17 	bne	k1,k0,0x8011615c
8010f8d4:	f2e06e1e 	.word	0x1e6ee0f2
8010f8d8:	bc1d53d5 	.word	0xd5531dbc
8010f8dc:	211a7a17 	bne	k1,k0,0x80116164
8010f8e0:	f2e06e1e 	.word	0x1e6ee0f2
8010f8e4:	8e1d5ed5 	.word	0xd55e1d8e
8010f8e8:	211a7a17 	bne	k1,k0,0x80116170
8010f8ec:	f2e06e1e 	.word	0x1e6ee0f2
8010f8f0:	571d70d5 	.word	0xd5701d57
8010f8f4:	231a7a17 	bne	k1,k0,0x80116184
8010f8f8:	f2e06e1e 	.word	0x1e6ee0f2
8010f8fc:	191d8ad5 	.word	0xd58a1d19
8010f900:	281a7a17 	bne	k1,k0,0x801161a4
8010f904:	f2e06e1e 	.word	0x1e6ee0f2
8010f908:	d81cadd5 	.word	0xd5ad1cd8
8010f90c:	301a7a17 	bne	k1,k0,0x801161d0
8010f910:	f2e06e1e 	.word	0x1e6ee0f2
8010f914:	941cd8d5 	.word	0xd5d81c94
8010f918:	3c1a7a17 	bne	k1,k0,0x8011620c
8010f91c:	f2e06e1e 	.word	0x1e6ee0f2
8010f920:	4e1c0bd6 	.word	0xd60b1c4e
8010f924:	4a1a7a17 	bne	k1,k0,0x80116250
8010f928:	f2e06e1e 	.word	0x1e6ee0f2
8010f92c:	0a1c43d6 	.word	0xd6431c0a
8010f930:	5b1a7a17 	bne	k1,k0,0x801162a0
8010f934:	f4e0701e 	.word	0x1e70e0f4
8010f938:	c61b80d6 	.word	0xd6801bc6
8010f93c:	6e1a7a17 	bne	k1,k0,0x801162f8
8010f940:	fce07e1e 	.word	0x1e7ee0fc
8010f944:	841bc0d6 	.word	0xd6c01b84
8010f948:	831a7a17 	bne	k1,k0,0x80116358
8010f94c:	05e18f1e 	.word	0x1e8fe105
8010f950:	451b02d7 	.word	0xd7021b45
8010f954:	9a1a7a17 	bne	k1,k0,0x801163c0
8010f958:	0ee1a21e 	.word	0x1ea2e10e
8010f95c:	091b45d7 	.word	0xd7451b09
8010f960:	b11a7b17 	bne	k1,k1,0x80116428
8010f964:	18e1b91e 	.word	0x1eb9e118
8010f968:	d01a86d7 	.word	0xd7861ad0
8010f96c:	c81a7b17 	bne	k1,k1,0x80116490
8010f970:	23e1d21e 	.word	0x1ed2e123
8010f974:	9c1ac5d7 	.word	0xd7c51a9c
8010f978:	e01a7c17 	bne	k1,gp,0x801164fc
8010f97c:	2ee1ef1e 	.word	0x1eefe12e
8010f980:	6c1a01d8 	.word	0xd8011a6c
8010f984:	f61a7c17 	bne	k1,gp,0x80116560
8010f988:	39e10f1f 	.word	0x1f0fe139
8010f98c:	411a38d8 	.word	0xd8381a41
8010f990:	0c1b7c17 	bne	k1,gp,0x801165c4
8010f994:	45e1321f 	.word	0x1f32e145
8010f998:	1b1a6ad8 	.word	0xd86a1a1b
8010f99c:	1f1b7d17 	bne	k1,sp,0x8011661c
8010f9a0:	51e1591f 	.word	0x1f59e151
8010f9a4:	fb1994d8 	.word	0xd89419fb
8010f9a8:	301b7d17 	bne	k1,sp,0x8011666c
8010f9ac:	5ce1841f 	.word	0x1f84e15c
8010f9b0:	df19bbd8 	.word	0xd8bb19df
8010f9b4:	3f1b7e17 	bne	k1,s8,0x801166b4
8010f9b8:	68e1b31f 	.word	0x1fb3e168
8010f9bc:	c319e1d8 	.word	0xd8e119c3
8010f9c0:	4f1b7f17 	bne	k1,ra,0x80116700
8010f9c4:	74e1e61f 	.word	0x1fe6e174
8010f9c8:	a61908d9 	.word	0xd90819a6
8010f9cc:	5f1b7f17 	bne	k1,ra,0x8011674c
8010f9d0:	80e11d20 	addi	sp,zero,-7808
8010f9d4:	8a1930d9 	.word	0xd930198a
8010f9d8:	701b8017 	bnez	gp,0x8011679c
8010f9dc:	8ae15920 	addi	t9,v0,-7798
8010f9e0:	6e1958d9 	.word	0xd958196e
8010f9e4:	811b8117 	bne	gp,at,0x801167ec
8010f9e8:	95e19a20 	addi	k0,a0,-7787
8010f9ec:	521980d9 	.word	0xd9801952
8010f9f0:	921b8117 	bne	gp,at,0x8011683c
8010f9f4:	9de1df20 	addi	ra,a2,-7779
8010f9f8:	3619a8d9 	.word	0xd9a81936
8010f9fc:	a41b8217 	bne	gp,v0,0x80116890
8010fa00:	a4e12921 	addi	t1,t1,-7772
8010fa04:	1a19d0d9 	.word	0xd9d0191a
8010fa08:	b71b8317 	bne	gp,v1,0x801168e8
8010fa0c:	a9e17621 	addi	s6,t3,-7767
8010fa10:	fe18f9d9 	.word	0xd9f918fe
8010fa14:	ca1b8317 	bne	gp,v1,0x80116940
8010fa18:	a9e1c221 	addi	v0,t6,-7767
8010fa1c:	e31822da 	.word	0xda2218e3
8010fa20:	dd1b8417 	bne	gp,a0,0x80116998
8010fa24:	a3e10f22 	addi	t7,s0,-7773
8010fa28:	c7184bda 	.word	0xda4b18c7
8010fa2c:	f11b8317 	bne	gp,v1,0x801169f4
8010fa30:	93e15922 	addi	t9,s2,-7789
8010fa34:	ab1874da 	.word	0xda7418ab
8010fa38:	051c8117 	bne	gp,at,0x80116a50
8010fa3c:	77e1a022 	addi	zero,s5,-7817
8010fa40:	8f189dda 	.word	0xda9d188f
8010fa44:	1a1c7e17 	bne	k1,s8,0x80116ab0
8010fa48:	55e1e422 	addi	a0,s7,-7851
8010fa4c:	7318c6da 	.word	0xdac61873
8010fa50:	301c7b17 	bne	k1,k1,0x80116b14
8010fa54:	2de12523 	addi	a1,t9,-7891
8010fa58:	5718efda 	.word	0xdaef1857
8010fa5c:	471c7917 	bne	k1,t9,0x80116b7c
8010fa60:	05e16523 	addi	a1,k1,-7931
8010fa64:	3b1818db 	.word	0xdb18183b
8010fa68:	5f1c7817 	bne	k1,t8,0x80116be8
8010fa6c:	dde0a523 	addi	a1,sp,-7971
8010fa70:	1e1840db 	.word	0xdb40181e
8010fa74:	781c7817 	bne	k1,t8,0x80116c58
8010fa78:	b8e0e623 	addi	a2,ra,-8008
8010fa7c:	011868db 	.word	0xdb681801
8010fa80:	921c7b17 	bne	k1,k1,0x80116ccc
8010fa84:	99e02b24 	addiu	t3,at,-8039
8010fa88:	e51790db 	.word	0xdb9017e5
8010fa8c:	ad1c7f17 	bne	k1,ra,0x80116d44
8010fa90:	83e07224 	addiu	s2,v1,-8061
8010fa94:	ca17b8db 	.word	0xdbb817ca
8010fa98:	ca1c8617 	bne	gp,a2,0x80116dc4
8010fa9c:	78e0bc24 	addiu	gp,a1,-8072
8010faa0:	b017e2db 	.word	0xdbe217b0
8010faa4:	e81c8e17 	bne	gp,t6,0x80116e48
8010faa8:	72e00625 	addiu	a2,t0,-8078
8010faac:	98170bdc 	.word	0xdc0b1798
8010fab0:	061d9617 	bne	gp,s6,0x80116ecc
8010fab4:	70e04f25 	addiu	t7,t2,-8080
8010fab8:	821736dc 	.word	0xdc361782
8010fabc:	261d9e17 	bne	gp,s8,0x80116f58
8010fac0:	71e09925 	addiu	t9,t4,-8079
8010fac4:	6d1760dc 	.word	0xdc60176d
8010fac8:	471da817 	bne	sp,t0,0x80116fe8
8010facc:	75e0e225 	addiu	v0,t7,-8075
8010fad0:	5a178cdc 	.word	0xdc8c175a
8010fad4:	691db217 	bne	sp,s2,0x8011707c
8010fad8:	7be02a26 	addiu	t2,s1,-8069
8010fadc:	4917b7dc 	.word	0xdcb71749
8010fae0:	8c1dbd17 	bne	sp,sp,0x80117114
8010fae4:	83e07226 	addiu	s2,s3,-8061
8010fae8:	3a17e3dc 	.word	0xdce3173a
8010faec:	b11dc917 	bne	s8,t1,0x801171b4
8010faf0:	8ce0b926 	addiu	t9,s5,-8052
8010faf4:	2c170edd 	.word	0xdd0e172c
8010faf8:	d71dd617 	bne	s8,s6,0x80117258
8010fafc:	97e00027 	addiu	zero,t8,-8041
8010fb00:	201739dd 	.word	0xdd391720
8010fb04:	fe1de417 	bne	ra,a0,0x80117300
8010fb08:	a3e04627 	addiu	a2,k0,-8029
8010fb0c:	161764dd 	.word	0xdd641716
8010fb10:	271ef417 	bne	ra,s4,0x801173b0
8010fb14:	b0e08b27 	addiu	t3,gp,-8016
8010fb18:	0d178fdd 	.word	0xdd8f170d
8010fb1c:	511e0518 	.word	0x18051e51
8010fb20:	bde0cf27 	addiu	t7,s8,-8003
8010fb24:	0617b9dd 	.word	0xddb91706
8010fb28:	7d1e1718 	.word	0x18171e7d
8010fb2c:	cce01228 	slti	s2,zero,-7988
8010fb30:	0017e2dd 	.word	0xdde21700
8010fb34:	aa1e2b18 	.word	0x182b1eaa
8010fb38:	dae05528 	slti	s5,v0,-7974
8010fb3c:	fb160ade 	.word	0xde0a16fb
8010fb40:	d81e4018 	blez	v0,0x801176a4
8010fb44:	ebe09628 	slti	s6,a0,-7957
8010fb48:	f71631de 	.word	0xde3116f7
8010fb4c:	081f5418 	.word	0x18541f08
8010fb50:	fce0d728 	slti	s7,a2,-7940
8010fb54:	f41657de 	.word	0xde5716f4
8010fb58:	3a1f6918 	.word	0x18691f3a
8010fb5c:	0fe11729 	slti	s7,t0,-7921
8010fb60:	f2167cde 	.word	0xde7c16f2
8010fb64:	6d1f7e18 	.word	0x187e1f6d
8010fb68:	23e15729 	slti	s7,t2,-7901
8010fb6c:	f0169fde 	.word	0xde9f16f0
8010fb70:	a11f9418 	.word	0x18941fa1
8010fb74:	38e19529 	slti	s5,t4,-7880
8010fb78:	ef16c1de 	.word	0xdec116ef
8010fb7c:	d71fab18 	.word	0x18ab1fd7
8010fb80:	4de1d329 	slti	s3,t6,-7859
8010fb84:	ed16e1de 	.word	0xdee116ed
8010fb88:	0e20c218 	.word	0x18c2200e
8010fb8c:	63e10f2a 	slti	t7,s0,-7837
8010fb90:	ec16ffde 	.word	0xdeff16ec
8010fb94:	4720db18 	.word	0x18db2047
8010fb98:	79e14b2a 	slti	t3,s2,-7815
8010fb9c:	eb161cdf 	.word	0xdf1c16eb
8010fba0:	8120f518 	.word	0x18f52081
8010fba4:	8fe1852a 	slti	a1,s4,-7793
8010fba8:	e91637df 	.word	0xdf3716e9
8010fbac:	bc201119 	.word	0x191120bc
8010fbb0:	a5e1be2a 	slti	s8,s5,-7771
8010fbb4:	e61650df 	.word	0xdf5016e6
8010fbb8:	f9202e19 	.word	0x192e20f9
8010fbbc:	bce1f52a 	slti	s5,s7,-7748
8010fbc0:	e31667df 	.word	0xdf6716e3
8010fbc4:	37214f19 	.word	0x194f2137
8010fbc8:	d2e12b2b 	slti	t3,t9,-7726
8010fbcc:	df167cdf 	.word	0xdf7c16df
8010fbd0:	76217219 	.word	0x19722176
8010fbd4:	e8e15e2b 	slti	s8,k0,-7704
8010fbd8:	dc168ddf 	.word	0xdf8d16dc
8010fbdc:	b7219919 	.word	0x199921b7
8010fbe0:	fde18f2b 	slti	t7,gp,-7683
8010fbe4:	d9169cdf 	.word	0xdf9c16d9
8010fbe8:	f921c419 	.word	0x19c421f9
8010fbec:	12e2bb2b 	slti	k1,sp,-7662
8010fbf0:	d716a9df 	.word	0xdfa916d7
8010fbf4:	3b22f219 	.word	0x19f2223b
8010fbf8:	25e2e42b 	slti	a0,ra,-7643
8010fbfc:	d416b4df 	.word	0xdfb416d4
8010fc00:	7f22231a 	.word	0x1a23227f
8010fc04:	38e2082c 	sltiu	t0,zero,-7624
8010fc08:	d216bddf 	.word	0xdfbd16d2
8010fc0c:	c322571a 	.word	0x1a5722c3
8010fc10:	4ae2292c 	sltiu	t1,at,-7606
8010fc14:	d016c5df 	.word	0xdfc516d0
8010fc18:	07238c1a 	.word	0x1a8c2307
8010fc1c:	5be2462c 	sltiu	a2,v0,-7589
8010fc20:	cf16ccdf 	.word	0xdfcc16cf
8010fc24:	4d23c31a 	.word	0x1ac3234d
8010fc28:	6be25f2c 	sltiu	ra,v0,-7573
8010fc2c:	cd16d2df 	.word	0xdfd216cd
8010fc30:	9323fb1a 	.word	0x1afb2393
8010fc34:	7be2752c 	sltiu	s5,v1,-7557
8010fc38:	cd16d6df 	.word	0xdfd616cd
8010fc3c:	d923351b 	.word	0x1b3523d9
8010fc40:	8ae2862c 	sltiu	a2,a0,-7542
8010fc44:	cc16dadf 	.word	0xdfda16cc
8010fc48:	20246e1b 	.word	0x1b6e2420
8010fc4c:	99e2942c 	sltiu	s4,a0,-7527
8010fc50:	cc16dedf 	.word	0xdfde16cc
8010fc54:	6724a81b 	.word	0x1ba82467
8010fc58:	a7e29f2c 	sltiu	ra,a0,-7513
8010fc5c:	cd16e0df 	.word	0xdfe016cd
8010fc60:	af24e21b 	.word	0x1be224af
8010fc64:	b5e2a62c 	sltiu	a2,a1,-7499
8010fc68:	ce16e2df 	.word	0xdfe216ce
8010fc6c:	f8241c1c 	.word	0x1c1c24f8
8010fc70:	c2e2a92c 	sltiu	t1,a1,-7486
8010fc74:	cf16e4df 	.word	0xdfe416cf
8010fc78:	4025561c 	.word	0x1c562540
8010fc7c:	d0e2a92c 	sltiu	t1,a1,-7472
8010fc80:	d116e5df 	.word	0xdfe516d1
8010fc84:	8a258f1c 	.word	0x1c8f258a
8010fc88:	dde2a52c 	sltiu	a1,a1,-7459
8010fc8c:	d416e6df 	.word	0xdfe616d4
8010fc90:	d425c71c 	.word	0x1cc725d4
8010fc94:	e9e29e2c 	sltiu	s8,a0,-7447
8010fc98:	d716e7df 	.word	0xdfe716d7
8010fc9c:	1e26fe1c 	.word	0x1cfe261e
8010fca0:	f3e2922c 	sltiu	s2,a0,-7437
8010fca4:	db16e8df 	.word	0xdfe816db
8010fca8:	6926341d 	.word	0x1d342669
8010fcac:	fce2842c 	sltiu	a0,a0,-7428
8010fcb0:	e016e9df 	.word	0xdfe916e0
8010fcb4:	b426691d 	.word	0x1d6926b4
8010fcb8:	05e3722c 	sltiu	s2,v1,-7419
8010fcbc:	e616eadf 	.word	0xdfea16e6
8010fcc0:	ff269d1d 	.word	0x1d9d26ff
8010fcc4:	0de35f2c 	sltiu	ra,v0,-7411
8010fcc8:	ee16ecdf 	.word	0xdfec16ee
8010fccc:	4b27cf1d 	.word	0x1dcf274b
8010fcd0:	14e34b2c 	sltiu	t3,v0,-7404
8010fcd4:	f616eedf 	.word	0xdfee16f6
8010fcd8:	9727001e 	bgtz	s0,0x80119b38
8010fcdc:	1be3352c 	sltiu	s5,at,-7397
8010fce0:	0017f0df 	.word	0xdff01700
8010fce4:	e427311e 	.word	0x1e3127e4
8010fce8:	22e31e2c 	sltiu	s8,zero,-7390
8010fcec:	0b17f4df 	.word	0xdff4170b
8010fcf0:	3128601e 	bgtz	s3,0x80119db8
8010fcf4:	28e3072c 	sltiu	a3,zero,-7384
8010fcf8:	1917f8df 	.word	0xdff81719
8010fcfc:	7e288f1e 	.word	0x1e8f287e
8010fd00:	2fe3ee2b 	slti	t6,ra,-7377
8010fd04:	2917ffdf 	.word	0xdfff1729
8010fd08:	cb28be1e 	.word	0x1ebe28cb
8010fd0c:	37e3d32b 	slti	s3,s8,-7369
8010fd10:	3c1707e0 	swc0	$7,5948(zero)
8010fd14:	1729ee1e 	.word	0x1eee2917
8010fd18:	3fe3b72b 	slti	s7,sp,-7361
8010fd1c:	531712e0 	swc0	$18,5971(zero)
8010fd20:	63291f1f 	.word	0x1f1f2963
8010fd24:	47e39a2b 	slti	k0,gp,-7353
8010fd28:	6c171ee0 	swc0	$30,5996(zero)
8010fd2c:	ae29501f 	.word	0x1f5029ae
8010fd30:	51e37b2b 	slti	k1,k1,-7343
8010fd34:	89172ce0 	swc0	c0_sr,6025(at)
8010fd38:	f929821f 	.word	0x1f8229f9
8010fd3c:	5ce35a2b 	slti	k0,k0,-7332
8010fd40:	aa173ae0 	swc0	$26,6058(at)
8010fd44:	422ab31f 	.word	0x1fb32a42
8010fd48:	68e3382b 	slti	t8,t9,-7320
8010fd4c:	cd1749e0 	swc0	$9,6093(v0)
8010fd50:	8a2ae51f 	.word	0x1fe52a8a
8010fd54:	77e3142b 	slti	s4,t8,-7305
8010fd58:	f41759e0 	swc0	$25,6132(v0)
8010fd5c:	d12a1720 	addi	s7,zero,10961
8010fd60:	87e3f02a 	slti	s0,s7,-7289
8010fd64:	1d186ae0 	swc0	c0_entryhi,6173(v1)
8010fd68:	172b4920 	addi	t1,v0,11031
8010fd6c:	99e3cb2a 	slti	t3,s6,-7271
8010fd70:	4a187ce0 	swc0	$28,6218(v1)
8010fd74:	5c2b7c20 	addi	gp,v1,11100
8010fd78:	abe3a42a 	slti	a0,s5,-7253
8010fd7c:	79188fe0 	swc0	c0_prid,6265(a0)
8010fd80:	9e2bae20 	addi	t6,a1,11166
8010fd84:	bfe37b2a 	slti	k1,s3,-7233
8010fd88:	ac18a2e0 	swc0	c0_entrylo,6316(a1)
8010fd8c:	df2bdf20 	addi	ra,a2,11231
8010fd90:	d4e3502a 	slti	s0,s2,-7212
8010fd94:	e218b5e0 	swc0	$21,6370(a1)
8010fd98:	1e2c0e21 	addi	t6,t0,11294
8010fd9c:	eae3212a 	slti	at,s1,-7190
8010fda0:	1b19c9e0 	swc0	$9,6427(a2)
8010fda4:	5b2c3a21 	addi	k0,t1,11355
8010fda8:	02e4ef29 	slti	t7,t7,-7166
8010fdac:	5719dde0 	swc0	$29,6487(a2)
8010fdb0:	962c6321 	addi	v1,t3,11414
8010fdb4:	1be4ba29 	slti	k0,t5,-7141
8010fdb8:	9619f1e0 	swc0	$17,6550(a3)
8010fdbc:	ce2c8721 	addi	a3,t4,11470
8010fdc0:	35e48029 	slti	zero,t4,-7115
8010fdc4:	d81905e1 	swc0	$5,6616(t0)
8010fdc8:	042da721 	addi	a3,t5,11524
8010fdcc:	50e44329 	slti	v1,t2,-7088
8010fdd0:	1e1a19e1 	swc0	$25,6686(t0)
8010fdd4:	362dc221 	addi	v0,t6,11574
8010fdd8:	6ce40329 	slti	v1,t0,-7060
8010fddc:	671a2ce1 	swc0	c0_sr,6759(t1)
8010fde0:	642dd921 	addi	t9,t6,11620
8010fde4:	88e4c028 	slti	zero,a2,-7032
8010fde8:	b31a3ee1 	swc0	$30,6835(t1)
8010fdec:	8f2dea21 	addi	t2,t7,11663
8010fdf0:	a6e47c28 	slti	gp,v1,-7002
8010fdf4:	041b4fe1 	swc0	c0_prid,6916(t2)
8010fdf8:	b12df721 	addi	s7,t7,11697
8010fdfc:	c8e43828 	slti	t8,at,-6968
8010fe00:	581b5de1 	swc0	$29,7000(t2)
8010fe04:	ca2d0022 	addi	zero,s0,11722
8010fe08:	ece4f227 	addiu	s2,ra,-6932
8010fe0c:	af1b6ae1 	swc0	c0_entryhi,7087(t3)
8010fe10:	dd2d0622 	addi	a2,s0,11741
8010fe14:	10e5ac27 	addiu	t4,sp,-6896
8010fe18:	071c76e1 	swc0	$22,7175(t3)
8010fe1c:	e92d0a22 	addi	t2,s0,11753
8010fe20:	35e56527 	addiu	a1,k1,-6859
8010fe24:	601c81e1 	swc0	c0_random,7264(t4)
8010fe28:	ee2d0b22 	addi	t3,s0,11758
8010fe2c:	59e51c27 	addiu	gp,t8,-6823
8010fe30:	b81c8be1 	swc0	$11,7352(t4)
8010fe34:	ef2d0b22 	addi	t3,s0,11759
8010fe38:	7ce5d226 	addiu	s2,s6,-6788
8010fe3c:	101d95e1 	swc0	$21,7440(t4)
8010fe40:	eb2d0a22 	addi	t2,s0,11755
8010fe44:	9ee58726 	addiu	a3,s4,-6754
8010fe48:	671da0e1 	swc0	c0_index,7527(t5)
8010fe4c:	e32d0922 	addi	t1,s0,11747
8010fe50:	bee53a26 	addiu	k0,s1,-6722
8010fe54:	bd1daae1 	swc0	c0_entryhi,7613(t5)
8010fe58:	d72d0722 	addi	a3,s0,11735
8010fe5c:	dce5ec25 	addiu	t4,t7,-6692
8010fe60:	111eb5e1 	swc0	$21,7697(t5)
8010fe64:	c72d0522 	addi	a1,s0,11719
8010fe68:	f8e59c25 	addiu	gp,t4,-6664
8010fe6c:	631ec1e1 	swc0	c0_random,7779(t6)
8010fe70:	b32d0422 	addi	a0,s0,11699
8010fe74:	11e64a25 	addiu	t2,t2,-6639
8010fe78:	b31ecee1 	swc0	c0_epc,7859(t6)
8010fe7c:	9c2d0422 	addi	a0,s0,11676
8010fe80:	27e6f724 	addiu	s7,a3,-6617
8010fe84:	ff1edde1 	swc0	$29,7935(t6)
8010fe88:	812d0422 	addi	a0,s0,11649
8010fe8c:	3ae6a324 	addiu	v1,a1,-6598
8010fe90:	491feee1 	swc0	c0_epc,8009(t7)
8010fe94:	622d0522 	addi	a1,s0,11618
8010fe98:	4ae64d24 	addiu	t5,v0,-6582
8010fe9c:	8d1fffe1 	swc0	$31,8077(t7)
8010fea0:	3d2d0722 	addi	a3,s0,11581
8010fea4:	58e6f623 	addi	s6,ra,-6568
8010fea8:	cd1f0fe2 	swc0	c0_prid,8141(s0)
8010feac:	142d0822 	addi	t0,s0,11540
8010feb0:	63e69f23 	addi	ra,gp,-6557
8010feb4:	09201fe2 	swc0	$31,8201(s0)
8010feb8:	e72c0a22 	addi	t2,s0,11495
8010febc:	6de64623 	addi	a2,k0,-6547
8010fec0:	3f202ee2 	swc0	c0_epc,8255(s1)
8010fec4:	b72c0b22 	addi	t3,s0,11447
8010fec8:	75e6ed22 	addi	t5,s7,-6539
8010fecc:	71203ee2 	swc0	$30,8305(s1)
8010fed0:	852c0c22 	addi	t4,s0,11397
8010fed4:	7de69422 	addi	s4,s4,-6531
8010fed8:	9e204de2 	swc0	c0_cause,8350(s2)
8010fedc:	532c0d22 	addi	t5,s0,11347
8010fee0:	84e63a22 	addi	k0,s1,-6524
8010fee4:	c7205de2 	swc0	$29,8391(s2)
8010fee8:	202c0e22 	addi	t6,s0,11296
8010feec:	8ae6e021 	addi	zero,t7,-6518
8010fef0:	ec206de2 	swc0	c0_cause,8428(s3)
8010fef4:	ed2b0f22 	addi	t7,s0,11245
8010fef8:	90e68521 	addi	a1,t4,-6512
8010fefc:	0d217ce2 	swc0	$28,8461(s3)
8010ff00:	bb2b1022 	addi	s0,s0,11195
8010ff04:	95e62921 	addi	t1,t1,-6507
8010ff08:	2a218ce2 	swc0	c0_sr,8490(s4)
8010ff0c:	8b2b1022 	addi	s0,s0,11147
8010ff10:	9ae6ce20 	addi	t6,a2,-6502
8010ff14:	45219ce2 	swc0	$28,8517(s4)
8010ff18:	5c2b1122 	addi	s1,s0,11100
8010ff1c:	9ee67220 	addi	s2,v1,-6498
8010ff20:	5c21abe2 	swc0	$11,8540(s5)
8010ff24:	2f2b1222 	addi	s2,s0,11055
8010ff28:	a2e61620 	addi	s6,zero,-6494
8010ff2c:	7021bae2 	swc0	$26,8560(s5)
8010ff30:	042b1322 	addi	s3,s0,11012
8010ff34:	a5e6b91f 	.word	0x1fb9e6a5
8010ff38:	8221c9e2 	swc0	$9,8578(s6)
8010ff3c:	dc2a1322 	addi	s3,s0,10972
8010ff40:	a8e65c1f 	.word	0x1f5ce6a8
8010ff44:	9221d7e2 	swc0	$23,8594(s6)
8010ff48:	b62a1422 	addi	s4,s0,10934
8010ff4c:	abe6ff1e 	.word	0x1effe6ab
8010ff50:	9f21e5e2 	swc0	$5,8607(s7)
8010ff54:	942a1422 	addi	s4,s0,10900
8010ff58:	ade6a21e 	.word	0x1ea2e6ad
8010ff5c:	a721f5e2 	swc0	$21,8615(s7)
8010ff60:	762a1522 	addi	s5,s0,10870
8010ff64:	aee6441e 	.word	0x1e44e6ae
8010ff68:	ad2106e3 	swc0	$6,8621(t8)
8010ff6c:	5d2a1622 	addi	s6,s0,10845
8010ff70:	afe6e61d 	.word	0x1de6e6af
8010ff74:	af2117e3 	swc0	$23,8623(t8)
8010ff78:	482a1622 	addi	s6,s0,10824
8010ff7c:	aee6891d 	.word	0x1d89e6ae
8010ff80:	af2127e3 	swc0	$7,8623(t9)
8010ff84:	372a1722 	addi	s7,s0,10807
8010ff88:	aee62b1d 	.word	0x1d2be6ae
8010ff8c:	ae2134e3 	swc0	$20,8622(t9)
8010ff90:	2b2a1822 	addi	t8,s0,10795
8010ff94:	abe6cd1c 	.word	0x1ccde6ab
8010ff98:	ad213fe3 	swc0	$31,8621(t9)
8010ff9c:	212a1822 	addi	t8,s0,10785
8010ffa0:	a7e66f1c 	.word	0x1c6fe6a7
8010ffa4:	ac2146e3 	swc0	$6,8620(k0)
8010ffa8:	1b2a1922 	addi	t9,s0,10779
8010ffac:	9fe6111c 	.word	0x1c11e69f
8010ffb0:	ab2149e3 	swc0	$9,8619(k0)
8010ffb4:	182a1922 	addi	t9,s0,10776
8010ffb8:	76e6fb1b 	.word	0x1bfbe676
8010ffbc:	ab2149e3 	swc0	$9,8619(k0)
8010ffc0:	192a1822 	addi	t8,s0,10777
8010ffc4:	56e6531c 	.word	0x1c53e656
8010ffc8:	eb2b7edf 	.word	0xdf7e2beb
8010ffcc:	b8120a22 	addi	t2,s0,4792
8010ffd0:	01e5f81d 	.word	0x1df8e501
8010ffd4:	ea2b7edf 	.word	0xdf7e2bea
8010ffd8:	b7120922 	addi	t1,s0,4791
8010ffdc:	fee4f21d 	.word	0x1df2e4fe
8010ffe0:	e92b7edf 	.word	0xdf7e2be9
8010ffe4:	b7120622 	addi	a2,s0,4791
8010ffe8:	f7e4dc1d 	.word	0x1ddce4f7
8010ffec:	e92b7edf 	.word	0xdf7e2be9
8010fff0:	b7120122 	addi	at,s0,4791
8010fff4:	ece4b81d 	.word	0x1db8e4ec
8010fff8:	e92b7edf 	.word	0xdf7e2be9
8010fffc:	b712fb21 	addi	k1,t7,4791
80110000:	dde4861d 	.word	0x1d86e4dd
80110004:	e82b7edf 	.word	0xdf7e2be8
80110008:	b612f321 	addi	s3,t7,4790
8011000c:	cbe4471d 	.word	0x1d47e4cb
80110010:	e82b7edf 	.word	0xdf7e2be8
80110014:	b612ea21 	addi	t2,t7,4790
80110018:	b7e4fb1c 	.word	0x1cfbe4b7
8011001c:	e82b7edf 	.word	0xdf7e2be8
80110020:	b612e021 	addi	zero,t7,4790
80110024:	a0e4a41c 	.word	0x1ca4e4a0
80110028:	e82b7fdf 	.word	0xdf7f2be8
8011002c:	b612d821 	addi	t8,t6,4790
80110030:	88e4431c 	.word	0x1c43e488
80110034:	e82b7fdf 	.word	0xdf7f2be8
80110038:	b612d121 	addi	s1,t6,4790
8011003c:	6ee4d71b 	.word	0x1bd7e46e
80110040:	e82b7edf 	.word	0xdf7e2be8
80110044:	b612cd21 	addi	t5,t6,4790
80110048:	52e4631b 	.word	0x1b63e452
8011004c:	e82b7edf 	.word	0xdf7e2be8
80110050:	b612cf21 	addi	t7,t6,4790
80110054:	34e4e61a 	.word	0x1ae6e434
80110058:	e82b7edf 	.word	0xdf7e2be8
8011005c:	b612d921 	addi	t9,t6,4790
80110060:	15e4631a 	.word	0x1a63e415
80110064:	e92b7edf 	.word	0xdf7e2be9
80110068:	b712f121 	addi	s1,t7,4791
8011006c:	f3e3dc19 	.word	0x19dce3f3
80110070:	e92b7edf 	.word	0xdf7e2be9
80110074:	b7121f22 	addi	ra,s0,4791
80110078:	cfe35519 	.word	0x1955e3cf
8011007c:	ea2b7edf 	.word	0xdf7e2bea
80110080:	b7126f22 	addi	t7,s3,4791
80110084:	aae3dc18 	.word	0x18dce3aa
80110088:	ea2b7edf 	.word	0xdf7e2bea
8011008c:	b812e622 	addi	a2,s7,4792
80110090:	88e37f18 	.word	0x187fe388
80110094:	eb2b7edf 	.word	0xdf7e2beb
80110098:	b8127023 	addi	s0,k1,4792
8011009c:	6de33718 	.word	0x1837e36d
801100a0:	eb2b7edf 	.word	0xdf7e2beb
801100a4:	b8120224 	li	v0,4792
801100a8:	55e3fb17 	bne	ra,k1,0x80108e00
801100ac:	ec2b7edf 	.word	0xdf7e2bec
801100b0:	b9129824 	addiu	t8,a0,4793
801100b4:	40e3c917 	bne	s8,t1,0x80108db8
801100b8:	ec2b7edf 	.word	0xdf7e2bec
801100bc:	b9123225 	addiu	s2,t1,4793
801100c0:	2de39e17 	bne	gp,s8,0x80108d78
801100c4:	ed2b7ddf 	.word	0xdf7d2bed
801100c8:	ba12cc25 	addiu	t4,t6,4794
801100cc:	1ce37917 	bne	k1,t9,0x80108d40
801100d0:	ee2b7ddf 	.word	0xdf7d2bee
801100d4:	ba126626 	addiu	a2,s3,4794
801100d8:	0be35b17 	bne	k0,k1,0x80108d08
801100dc:	ef2b7ddf 	.word	0xdf7d2bef
801100e0:	bb12ff26 	addiu	ra,s7,4795
801100e4:	fbe24317 	bne	k0,v1,0x80108cd4
801100e8:	f02b7ddf 	.word	0xdf7d2bf0
801100ec:	bb129427 	addiu	s4,gp,4795
801100f0:	ebe23117 	bne	t9,s1,0x80108ca0
801100f4:	f02b7ddf 	.word	0xdf7d2bf0
801100f8:	bc122728 	slti	a3,at,4796
801100fc:	dce22517 	bne	t9,a1,0x80108c70
80110100:	f12b7cdf 	.word	0xdf7c2bf1
80110104:	bd12b328 	slti	s3,a1,4797
80110108:	cde22017 	bnez	t9,0x80108c40
8011010c:	f22b7cdf 	.word	0xdf7c2bf2
80110110:	bd123929 	slti	t9,t1,4797
80110114:	bee22317 	bne	t9,v1,0x80108c10
80110118:	f32b7cdf 	.word	0xdf7c2bf3
8011011c:	be12b829 	slti	t8,t5,4798
80110120:	ade23317 	bne	t9,s3,0x80108bd8
80110124:	f42b7cdf 	.word	0xdf7c2bf4
80110128:	bf122b2a 	slti	t3,s1,4799
8011012c:	9ae25717 	bne	k0,s7,0x80108b98
80110130:	f52b7cdf 	.word	0xdf7c2bf5
80110134:	c012832a 	slti	v1,s4,4800
80110138:	88e2a017 	bnez	sp,0x80108b5c
8011013c:	f62b7bdf 	.word	0xdf7b2bf6
80110140:	c012bb2a 	slti	k1,s5,4800
80110144:	7ae2fd17 	bne	ra,sp,0x80108b30
80110148:	f72b7bdf 	.word	0xdf7b2bf7
8011014c:	c112de2a 	slti	s8,s6,4801
80110150:	6fe26018 	blez	v1,0x80108b10
80110154:	f82b7bdf 	.word	0xdf7b2bf8
80110158:	c212f22a 	slti	s2,s7,4802
8011015c:	66e2c018 	blez	a2,0x80108af8
80110160:	f92b7bdf 	.word	0xdf7b2bf9
80110164:	c312fd2a 	slti	sp,s7,4803
80110168:	5fe21d19 	.word	0x191de25f
8011016c:	fa2b7bdf 	.word	0xdf7b2bfa
80110170:	c312042b 	slti	a0,t8,4803
80110174:	58e27519 	.word	0x1975e258
80110178:	fb2b7adf 	.word	0xdf7a2bfb
8011017c:	c412062b 	slti	a2,t8,4804
80110180:	52e2c819 	.word	0x19c8e252
80110184:	fc2b7adf 	.word	0xdf7a2bfc
80110188:	c512072b 	slti	a3,t8,4805
8011018c:	4ce2161a 	.word	0x1a16e24c
80110190:	fe2b7adf 	.word	0xdf7a2bfe
80110194:	c612072b 	slti	a3,t8,4806
80110198:	47e25f1a 	.word	0x1a5fe247
8011019c:	ff2b7adf 	.word	0xdf7a2bff
801101a0:	c612052b 	slti	a1,t8,4806
801101a4:	41e2a31a 	.word	0x1aa3e241
801101a8:	002c7adf 	.word	0xdf7a2c00
801101ac:	c712042b 	slti	a0,t8,4807
801101b0:	3ce2e31a 	.word	0x1ae3e23c
801101b4:	012c79df 	.word	0xdf792c01
801101b8:	c812032b 	slti	v1,t8,4808
801101bc:	37e21e1b 	.word	0x1b1ee237
801101c0:	022c79df 	.word	0xdf792c02
801101c4:	c912032b 	slti	v1,t8,4809
801101c8:	31e2541b 	.word	0x1b54e231
801101cc:	032c79df 	.word	0xdf792c03
801101d0:	c912042b 	slti	a0,t8,4809
801101d4:	2be2861b 	.word	0x1b86e22b
801101d8:	032c79df 	.word	0xdf792c03
801101dc:	ca12072b 	slti	a3,t8,4810
801101e0:	25e2b51b 	.word	0x1bb5e225
801101e4:	042c79df 	.word	0xdf792c04
801101e8:	cb120c2b 	slti	t4,t8,4811
801101ec:	1ee2de1b 	.word	0x1bdee21e
801101f0:	052c78df 	.word	0xdf782c05
801101f4:	cc12122b 	slti	s2,t8,4812
801101f8:	15e2041c 	.word	0x1c04e215
801101fc:	062c78df 	.word	0xdf782c06
80110200:	cc12152b 	slti	s5,t8,4812
80110204:	0de2261c 	.word	0x1c26e20d
80110208:	072c78df 	.word	0xdf782c07
8011020c:	cd12172b 	slti	s7,t8,4813
80110210:	04e2441c 	.word	0x1c44e204
80110214:	082c78df 	.word	0xdf782c08
80110218:	ce12182b 	slti	t8,t8,4814
8011021c:	fbe15f1c 	.word	0x1c5fe1fb
80110220:	092c78df 	.word	0xdf782c09
80110224:	ce12172b 	slti	s7,t8,4814
80110228:	f2e1761c 	.word	0x1c76e1f2
8011022c:	092c77df 	.word	0xdf772c09
80110230:	cf12162b 	slti	s6,t8,4815
80110234:	e9e18a1c 	.word	0x1c8ae1e9
80110238:	0a2c77df 	.word	0xdf772c0a
8011023c:	cf12142b 	slti	s4,t8,4815
80110240:	e1e19b1c 	.word	0x1c9be1e1
80110244:	0b2c77df 	.word	0xdf772c0b
80110248:	d012122b 	slti	s2,t8,4816
8011024c:	d9e1aa1c 	.word	0x1caae1d9
80110250:	0c2c77df 	.word	0xdf772c0c
80110254:	d012102b 	slti	s0,t8,4816
80110258:	d2e1b51c 	.word	0x1cb5e1d2
8011025c:	0c2c77df 	.word	0xdf772c0c
80110260:	d1120d2b 	slti	t5,t8,4817
80110264:	cce1be1c 	.word	0x1cbee1cc
80110268:	0d2c77df 	.word	0xdf772c0d
8011026c:	d1120c2b 	slti	t4,t8,4817
80110270:	c8e1c51c 	.word	0x1cc5e1c8
80110274:	0d2c77df 	.word	0xdf772c0d
80110278:	d2120a2b 	slti	t2,t8,4818
8011027c:	c4e1ca1c 	.word	0x1ccae1c4
80110280:	0e2c77df 	.word	0xdf772c0e
80110284:	d212092b 	slti	t1,t8,4818
80110288:	c2e1cd1c 	.word	0x1ccde1c2
8011028c:	0e2c76df 	.word	0xdf762c0e
80110290:	d212092b 	slti	t1,t8,4818
80110294:	c0e1cf1c 	.word	0x1ccfe1c0
80110298:	953589df 	.word	0xdf893595
8011029c:	a424402f 	sltiu	zero,k0,9380
801102a0:	3ce14820 	addi	t0,v0,-7876
801102a4:	94358adf 	.word	0xdf8a3594
801102a8:	a3242b2f 	sltiu	t3,t9,9379
801102ac:	47e16820 	addi	t0,v1,-7865
801102b0:	94358bdf 	.word	0xdf8b3594
801102b4:	a124152f 	sltiu	s5,t8,9377
801102b8:	51e18420 	addi	a0,a0,-7855
801102bc:	94358cdf 	.word	0xdf8c3594
801102c0:	a024fe2e 	sltiu	s8,s7,9376
801102c4:	5ae19d20 	addi	sp,a0,-7846
801102c8:	94358cdf 	.word	0xdf8c3594
801102cc:	9f24e62e 	sltiu	a2,s7,9375
801102d0:	64e1b220 	addi	s2,a1,-7836
801102d4:	93358cdf 	.word	0xdf8c3593
801102d8:	9e24ce2e 	sltiu	t6,s6,9374
801102dc:	6ee1c520 	addi	a1,a2,-7826
801102e0:	93358ddf 	.word	0xdf8d3593
801102e4:	9e24b62e 	sltiu	s6,s5,9374
801102e8:	78e1d520 	addi	s5,a2,-7816
801102ec:	93358ddf 	.word	0xdf8d3593
801102f0:	9d249f2e 	sltiu	ra,s4,9373
801102f4:	81e1e320 	addi	v1,a3,-7807
801102f8:	93358ddf 	.word	0xdf8d3593
801102fc:	9d24892e 	sltiu	t1,s4,9373
80110300:	8ae1f120 	addi	s1,a3,-7798
80110304:	93358ddf 	.word	0xdf8d3593
80110308:	9e24732e 	sltiu	s3,s3,9374
8011030c:	93e1fd20 	addi	sp,a3,-7789
80110310:	93358ddf 	.word	0xdf8d3593
80110314:	9e245d2e 	sltiu	sp,s2,9374
80110318:	9be10921 	addi	t1,t0,-7781
8011031c:	94358cdf 	.word	0xdf8c3594
80110320:	9e24482e 	sltiu	t0,s2,9374
80110324:	a3e11421 	addi	s4,t0,-7773
80110328:	94358cdf 	.word	0xdf8c3594
8011032c:	9f24332e 	sltiu	s3,s1,9375
80110330:	abe11e21 	addi	s8,t0,-7765
80110334:	94358cdf 	.word	0xdf8c3594
80110338:	a0241e2e 	sltiu	s8,s0,9376
8011033c:	b3e12921 	addi	t1,t1,-7757
80110340:	94358bdf 	.word	0xdf8b3594
80110344:	a0240a2e 	sltiu	t2,s0,9376
80110348:	bbe13321 	addi	s3,t1,-7749
8011034c:	94358bdf 	.word	0xdf8b3594
80110350:	a124f52d 	sltiu	s5,t7,9377
80110354:	c3e13d21 	addi	sp,t1,-7741
80110358:	94358adf 	.word	0xdf8a3594
8011035c:	a224df2d 	sltiu	ra,t6,9378
80110360:	cae14721 	addi	a3,t2,-7734
80110364:	94358adf 	.word	0xdf8a3594
80110368:	a324ca2d 	sltiu	t2,t6,9379
8011036c:	d2e15221 	addi	s2,t2,-7726
80110370:	95358adf 	.word	0xdf8a3595
80110374:	a424b42d 	sltiu	s4,t5,9380
80110378:	d9e15c21 	addi	gp,t2,-7719
8011037c:	953589df 	.word	0xdf893595
80110380:	a4249d2d 	sltiu	sp,t4,9380
80110384:	e1e16721 	addi	a3,t3,-7711
80110388:	953589df 	.word	0xdf893595
8011038c:	a524852d 	sltiu	a1,t4,9381
80110390:	e8e17221 	addi	s2,t3,-7704
80110394:	953589df 	.word	0xdf893595
80110398:	a6246c2d 	sltiu	t4,t3,9382
8011039c:	f0e17e21 	addi	s8,t3,-7696
801103a0:	953588df 	.word	0xdf883595
801103a4:	a624522d 	sltiu	s2,t2,9382
801103a8:	f8e18a21 	addi	t2,t4,-7688
801103ac:	953588df 	.word	0xdf883595
801103b0:	a624362d 	sltiu	s6,t1,9382
801103b4:	ffe19821 	addi	t8,t4,-7681
801103b8:	953588df 	.word	0xdf883595
801103bc:	a7241a2d 	sltiu	k0,t0,9383
801103c0:	06e2a621 	addi	a2,t5,-7674
801103c4:	953588df 	.word	0xdf883595
801103c8:	a724fb2c 	sltiu	k1,a3,9383
801103cc:	0ce2b621 	addi	s6,t5,-7668
801103d0:	953588df 	.word	0xdf883595
801103d4:	a624db2c 	sltiu	k1,a2,9382
801103d8:	12e2c721 	addi	a3,t6,-7662
801103dc:	953588df 	.word	0xdf883595
801103e0:	a624ba2c 	sltiu	k0,a1,9382
801103e4:	16e2db21 	addi	k1,t6,-7658
801103e8:	953589df 	.word	0xdf893595
801103ec:	a524972c 	sltiu	s7,a0,9381
801103f0:	17e2f221 	addi	s2,t7,-7657
801103f4:	953589df 	.word	0xdf893595
801103f8:	a424752c 	sltiu	s5,v1,9380
801103fc:	13e20d22 	addi	t5,s0,-7661
80110400:	94358adf 	.word	0xdf8a3594
80110404:	a2244a2c 	sltiu	t2,v0,9378
80110408:	ffe13322 	addi	s3,s1,-7681
8011040c:	94358cdf 	.word	0xdf8c3594
80110410:	9f24222c 	sltiu	v0,at,9375
80110414:	c1e16122 	addi	at,s3,-7743
80110418:	92358fdf 	.word	0xdf8f3592
8011041c:	9924092c 	sltiu	t1,zero,9369
80110420:	69e19722 	addi	s7,s4,-7831
80110424:	913592df 	.word	0xdf923591
80110428:	9224e72b 	slti	a3,ra,9362
8011042c:	15e1e122 	addi	at,s7,-7915
80110430:	8f3597df 	.word	0xdf97358f
80110434:	8924b72b 	slti	s7,sp,9353
80110438:	d5e03c23 	addi	gp,t9,-7979
8011043c:	8c359bdf 	.word	0xdf9b358c
80110440:	7f24812b 	slti	at,gp,9343
80110444:	a9e09923 	addi	t9,gp,-8023
80110448:	8935a1df 	.word	0xdfa13589
8011044c:	73244f2b 	slti	t7,k0,9331
80110450:	86e0ee23 	addi	t6,ra,-8058
80110454:	8635a7df 	.word	0xdfa73586
80110458:	6624272b 	slti	a3,t9,9318
8011045c:	6be03324 	addiu	s3,at,-8085
80110460:	8135addf 	.word	0xdfad3581
80110464:	57240c2b 	slti	t4,t8,9303
80110468:	59e06224 	addiu	v0,v1,-8103
8011046c:	7d35b4df 	.word	0xdfb4357d
80110470:	4624022b 	slti	v0,t8,9286
80110474:	53e07324 	addiu	s3,v1,-8109
80110478:	7735bbdf 	.word	0xdfbb3577
8011047c:	3424012b 	slti	at,t8,9268
80110480:	53e07424 	addiu	s4,v1,-8109
80110484:	7135c2df 	.word	0xdfc23571
80110488:	2124012b 	slti	at,t8,9249
8011048c:	52e07524 	addiu	s5,v1,-8110
80110490:	6b35cadf 	.word	0xdfca356b
80110494:	0c24ff2a 	slti	ra,s7,9228
80110498:	51e07724 	addiu	s7,v1,-8111
8011049c:	6435d2df 	.word	0xdfd23564
801104a0:	f623fe2a 	slti	s8,s7,9206
801104a4:	50e07b24 	addiu	k1,v1,-8112
801104a8:	5c35dadf 	.word	0xdfda355c
801104ac:	de23fb2a 	slti	k1,s7,9182
801104b0:	4fe07e24 	addiu	s8,v1,-8113
801104b4:	5435e2df 	.word	0xdfe23554
801104b8:	c623f82a 	slti	t8,s7,9158
801104bc:	4de08324 	addiu	v1,a0,-8115
801104c0:	4b35ebdf 	.word	0xdfeb354b
801104c4:	ac23f52a 	slti	s5,s7,9132
801104c8:	4be08924 	addiu	t1,a0,-8117
801104cc:	4135f4df 	.word	0xdff43541
801104d0:	9123f22a 	slti	s2,s7,9105
801104d4:	49e08f24 	addiu	t7,a0,-8119
801104d8:	3735fcdf 	.word	0xdffc3537
801104dc:	7523ee2a 	slti	t6,s7,9077
801104e0:	46e09624 	addiu	s6,a0,-8122
801104e4:	2d3505e0 	swc0	$5,13613(zero)
801104e8:	5823e92a 	slti	t1,s7,9048
801104ec:	43e09e24 	addiu	s8,a0,-8125
801104f0:	21350fe0 	swc0	c0_prid,13601(zero)
801104f4:	3a23e42a 	slti	a0,s7,9018
801104f8:	40e0a624 	addiu	a2,a1,-8128
801104fc:	163518e0 	swc0	$24,13590(zero)
80110500:	1b23df2a 	slti	ra,s6,8987
80110504:	3de0af24 	addiu	t7,a1,-8131
80110508:	0a3521e0 	swc0	c0_random,13578(at)
8011050c:	fb22d92a 	slti	t9,s6,8955
80110510:	3ae0b924 	addiu	t9,a1,-8134
80110514:	fd342ae0 	swc0	c0_entryhi,13565(at)
80110518:	da22d32a 	slti	s3,s6,8922
8011051c:	36e0c324 	addiu	v1,a2,-8138
80110520:	f03434e0 	swc0	$20,13552(at)
80110524:	b822cd2a 	slti	t5,s6,8888
80110528:	32e0ce24 	addiu	t6,a2,-8142
8011052c:	e2343de0 	swc0	$29,13538(at)
80110530:	9622c62a 	slti	a2,s6,8854
80110534:	2ee0d924 	addiu	t9,a2,-8146
80110538:	d43446e0 	swc0	$6,13524(v0)
8011053c:	7222bf2a 	slti	ra,s5,8818
80110540:	2ae0e524 	addiu	a1,a3,-8150
80110544:	c5344fe0 	swc0	c0_prid,13509(v0)
80110548:	4e22b82a 	slti	t8,s5,8782
8011054c:	25e0f224 	addiu	s2,a3,-8155
80110550:	b63459e0 	swc0	$25,13494(v0)
80110554:	2a22b12a 	slti	s1,s5,8746
80110558:	21e0ff24 	addiu	ra,a3,-8159
8011055c:	a73462e0 	swc0	c0_entrylo,13479(v1)
80110560:	0422a92a 	slti	t1,s5,8708
80110564:	1ce00c25 	addiu	t4,t0,-8164
80110568:	97346be0 	swc0	$11,13463(v1)
8011056c:	df21a12a 	slti	at,s5,8671
80110570:	17e01a25 	addiu	k0,t0,-8169
80110574:	863474e0 	swc0	$20,13446(v1)
80110578:	b821982a 	slti	t8,s4,8632
8011057c:	12e02925 	addiu	t1,t1,-8174
80110580:	76347de0 	swc0	$29,13430(v1)
80110584:	9121902a 	slti	s0,s4,8593
80110588:	0de03825 	addiu	t8,t1,-8179
8011058c:	643486e0 	swc0	$6,13412(a0)
80110590:	6a21872a 	slti	a3,s4,8554
80110594:	08e04725 	addiu	a3,t2,-8184
80110598:	52348ee0 	swc0	c0_epc,13394(a0)
8011059c:	42217e2a 	slti	s8,s3,8514
801105a0:	03e05725 	addiu	s7,t2,-8189
801105a4:	403496e0 	swc0	$22,13376(a0)
801105a8:	1a21742a 	slti	s4,s3,8474
801105ac:	fddf6725 	addiu	a3,t3,-8195
801105b0:	2d349ee0 	swc0	$30,13357(a0)
801105b4:	f2206b2a 	slti	t3,s3,8434
801105b8:	f8df7725 	addiu	s7,t3,-8200
801105bc:	1a34a5e0 	swc0	$5,13338(a1)
801105c0:	ca20612a 	slti	at,s3,8394
801105c4:	f2df8725 	addiu	a3,t4,-8206
801105c8:	0634ace0 	swc0	c0_sr,13318(a1)
801105cc:	a120582a 	slti	t8,s2,8353
801105d0:	eddf9825 	addiu	t8,t4,-8211
801105d4:	f133b2e0 	swc0	$18,13297(a1)
801105d8:	78204e2a 	slti	t6,s2,8312
801105dc:	e7dfaa25 	addiu	t2,t5,-8217
801105e0:	db33b7e0 	swc0	$23,13275(a1)
801105e4:	5020442a 	slti	a0,s2,8272
801105e8:	e2dfbb25 	addiu	k1,t5,-8222
801105ec:	c533bbe0 	swc0	$27,13253(a1)
801105f0:	2820392a 	slti	t9,s1,8232
801105f4:	dcdfcd25 	addiu	t5,t6,-8228
801105f8:	ad33bee0 	swc0	$30,13229(a1)
801105fc:	00202f2a 	slti	t7,s1,8192
80110600:	d6dfde25 	addiu	s8,t6,-8234
80110604:	9533c0e0 	swc0	c0_index,13205(a2)
80110608:	d81f252a 	slti	a1,s1,8152
8011060c:	d0dff025 	addiu	s0,t7,-8240
80110610:	7c33c2e0 	swc0	c0_entrylo,13180(a2)
80110614:	b01f1a2a 	slti	k0,s0,8112
80110618:	cbdf0226 	addiu	v0,s0,-8245
8011061c:	6333c2e0 	swc0	c0_entrylo,13155(a2)
80110620:	891f102a 	slti	s0,s0,8073
80110624:	c5df1526 	addiu	s5,s0,-8251
80110628:	4a33c2e0 	swc0	c0_entrylo,13130(a2)
8011062c:	621f052a 	slti	a1,s0,8034
80110630:	bfdf2726 	addiu	a3,s1,-8257
80110634:	3133c2e0 	swc0	c0_entrylo,13105(a2)
80110638:	3b1ffa29 	slti	k0,t7,7995
8011063c:	b9df3926 	addiu	t9,s1,-8263
80110640:	1733c1e0 	swc0	c0_random,13079(a2)
80110644:	141ff029 	slti	s0,t7,7956
80110648:	b4df4c26 	addiu	t4,s2,-8268
8011064c:	fd32c0e0 	swc0	c0_index,13053(a2)
80110650:	ee1ee529 	slti	a1,t7,7918
80110654:	aedf5e26 	addiu	s8,s2,-8274
80110658:	e332bee0 	swc0	$30,13027(a1)
8011065c:	c91eda29 	slti	k0,t6,7881
80110660:	a8df7126 	addiu	s1,s3,-8280
80110664:	c932bce0 	swc0	$28,13001(a1)
80110668:	a31ed029 	slti	s0,t6,7843
8011066c:	a3df8326 	addiu	v1,s4,-8285
80110670:	af32b9e0 	swc0	$25,12975(a1)
80110674:	7e1ec529 	slti	a1,t6,7806
80110678:	9ddf9626 	addiu	s6,s4,-8291
8011067c:	9532b6e0 	swc0	$22,12949(a1)
80110680:	5a1ebb29 	slti	k1,t5,7770
80110684:	98dfa826 	addiu	t0,s5,-8296
80110688:	7b32b3e0 	swc0	$19,12923(a1)
8011068c:	361eb029 	slti	s0,t5,7734
80110690:	92dfba26 	addiu	k0,s5,-8302
80110694:	6132afe0 	swc0	c0_prid,12897(a1)
80110698:	131ea529 	slti	a1,t5,7699
8011069c:	8ddfcd26 	addiu	t5,s6,-8307
801106a0:	4732ace0 	swc0	c0_sr,12871(a1)
801106a4:	f01d9b29 	slti	k1,t4,7664
801106a8:	87dfdf26 	addiu	ra,s6,-8313
801106ac:	2d32a8e0 	swc0	c0_badvaddr,12845(a1)
801106b0:	ce1d9129 	slti	s1,t4,7630
801106b4:	82dff126 	addiu	s1,s7,-8318
801106b8:	1432a3e0 	swc0	$3,12820(a1)
801106bc:	ac1d8729 	slti	a3,t4,7596
801106c0:	7ddf0227 	addiu	v0,t8,-8323
801106c4:	fb319fe0 	swc0	$31,12795(a0)
801106c8:	8b1d7c29 	slti	gp,t3,7563
801106cc:	78df1427 	addiu	s4,t8,-8328
801106d0:	e2319ae0 	swc0	$26,12770(a0)
801106d4:	6b1d7229 	slti	s2,t3,7531
801106d8:	73df2527 	addiu	a1,t9,-8333
801106dc:	c93195e0 	swc0	$21,12745(a0)
801106e0:	4c1d6929 	slti	t1,t3,7500
801106e4:	6edf3627 	addiu	s6,t9,-8338
801106e8:	b13190e0 	swc0	$16,12721(a0)
801106ec:	2d1d5f29 	slti	ra,t2,7469
801106f0:	6adf4727 	addiu	a3,k0,-8342
801106f4:	99318be0 	swc0	$11,12697(a0)
801106f8:	0f1d5529 	slti	s5,t2,7439
801106fc:	65df5827 	addiu	t8,k0,-8347
80110700:	813186e0 	swc0	$6,12673(a0)
80110704:	f21c4c29 	slti	t4,t2,7410
80110708:	61df6827 	addiu	t0,k1,-8351
8011070c:	6a3180e0 	swc0	c0_index,12650(a0)
80110710:	d61c4329 	slti	v1,t2,7382
80110714:	5cdf7827 	addiu	t8,k1,-8356
80110718:	54317be0 	swc0	$27,12628(v1)
8011071c:	ba1c3a29 	slti	k0,t1,7354
80110720:	58df8727 	addiu	a3,gp,-8360
80110724:	3e3175e0 	swc0	$21,12606(v1)
80110728:	a01c3229 	slti	s2,t1,7328
8011072c:	54df9627 	addiu	s6,gp,-8364
80110730:	28316fe0 	swc0	c0_prid,12584(v1)
80110734:	871c2929 	slti	t1,t1,7303
80110738:	50dfa527 	addiu	a1,sp,-8368
8011073c:	143169e0 	swc0	$9,12564(v1)
80110740:	6e1c2129 	slti	at,t1,7278
80110744:	4cdfb327 	addiu	s3,sp,-8372
80110748:	ff3064e0 	swc0	c0_context,12543(v1)
8011074c:	571c1929 	slti	t9,t0,7255
80110750:	49dfc127 	addiu	at,s8,-8375
80110754:	ec305ee0 	swc0	$30,12524(v0)
80110758:	401c1129 	slti	s1,t0,7232
8011075c:	45dfce27 	addiu	t6,s8,-8379
80110760:	d93058e0 	swc0	$24,12505(v0)
80110764:	2b1c0a29 	slti	t2,t0,7211
80110768:	42dfdb27 	addiu	k1,s8,-8382
8011076c:	c73052e0 	swc0	$18,12487(v0)
80110770:	171c0329 	slti	v1,t0,7191
80110774:	3fdfe727 	addiu	a3,ra,-8385
80110778:	b5304ce0 	swc0	c0_sr,12469(v0)
8011077c:	041cfc28 	slti	gp,a3,7172
80110780:	3cdff327 	addiu	s3,ra,-8388
80110784:	a53046e0 	swc0	$6,12453(v0)
80110788:	f21bf628 	slti	s6,a3,7154
8011078c:	3adffe27 	addiu	s8,ra,-8390
80110790:	953041e0 	swc0	c0_random,12437(v0)
80110794:	e11bf028 	slti	s0,a3,7137
80110798:	37df0928 	slti	t1,zero,-8393
8011079c:	86303be0 	swc0	$27,12422(at)
801107a0:	d11bea28 	slti	t2,a3,7121
801107a4:	35df1328 	slti	s3,zero,-8395
801107a8:	783036e0 	swc0	$22,12408(at)
801107ac:	c31be528 	slti	a1,a3,7107
801107b0:	32df1c28 	slti	gp,zero,-8398
801107b4:	6c3031e0 	swc0	$17,12396(at)
801107b8:	b51be028 	slti	zero,a3,7093
801107bc:	30df2428 	slti	a0,at,-8400
801107c0:	60302ce0 	swc0	c0_sr,12384(at)
801107c4:	a91bdc28 	slti	gp,a2,7081
801107c8:	2fdf2c28 	slti	t4,at,-8401
801107cc:	553028e0 	swc0	c0_badvaddr,12373(at)
801107d0:	9f1bd828 	slti	t8,a2,7071
801107d4:	2ddf3328 	slti	s3,at,-8403
801107d8:	4b3024e0 	swc0	c0_context,12363(at)
801107dc:	951bd428 	slti	s4,a2,7061
801107e0:	2bdf3a28 	slti	k0,at,-8405
801107e4:	433020e0 	swc0	c0_index,12355(at)
801107e8:	8d1bd128 	slti	s1,a2,7053
801107ec:	2adf3f28 	slti	ra,at,-8406
801107f0:	3b301de0 	swc0	$29,12347(zero)
801107f4:	861bce28 	slti	t6,a2,7046
801107f8:	29df4428 	slti	a0,v0,-8407
801107fc:	35301ae0 	swc0	$26,12341(zero)
80110800:	801bcc28 	slti	t4,a2,7040
80110804:	28df4828 	slti	t0,v0,-8408
80110808:	313018e0 	swc0	$24,12337(zero)
8011080c:	7c1bca28 	slti	t2,a2,7036
80110810:	27df4b28 	slti	t3,v0,-8409
80110814:	2d3017e0 	swc0	$23,12333(zero)
80110818:	781bc928 	slti	t1,a2,7032
8011081c:	27df4e28 	slti	t6,v0,-8409
80110820:	2b3016e0 	swc0	$22,12331(zero)
80110824:	761bc828 	slti	t0,a2,7030
80110828:	27df4f28 	slti	t7,v0,-8409
8011082c:	2a3015e0 	swc0	$21,12330(zero)
80110830:	761bc828 	slti	t0,a2,7030
80110834:	27df5028 	slti	s0,v0,-8409
	...
80110844:	7a175ede 	.word	0xde5e177a
80110848:	e01a7a17 	bne	k1,k0,0x801173cc
8011084c:	5edee01a 	blez	s7,0x801081c8
80110850:	7a175ede 	.word	0xde5e177a
80110854:	e01a7a17 	bne	k1,k0,0x801173d8
80110858:	5edee01a 	blez	s7,0x801081d4
8011085c:	7a175ede 	.word	0xde5e177a
80110860:	e01a7a17 	bne	k1,k0,0x801173e4
80110864:	5edee01a 	blez	s7,0x801081e0
80110868:	7a175ede 	.word	0xde5e177a
8011086c:	e01a7a17 	bne	k1,k0,0x801173f0
80110870:	5edee01a 	blez	s7,0x801081ec
80110874:	7a175ede 	.word	0xde5e177a
80110878:	e01a7a17 	bne	k1,k0,0x801173fc
8011087c:	5edee01a 	blez	s7,0x801081f8
80110880:	7a175ede 	.word	0xde5e177a
80110884:	e01a7a17 	bne	k1,k0,0x80117408
80110888:	5edee01a 	blez	s7,0x80108204
8011088c:	7a175ede 	.word	0xde5e177a
80110890:	e01a7a17 	bne	k1,k0,0x80117414
80110894:	5edee01a 	blez	s7,0x80108210
80110898:	7a175ede 	.word	0xde5e177a
8011089c:	e01a7a17 	bne	k1,k0,0x80117420
801108a0:	5edee01a 	blez	s7,0x8010821c
801108a4:	7a175ede 	.word	0xde5e177a
801108a8:	e01a7a17 	bne	k1,k0,0x8011742c
801108ac:	5edee01a 	blez	s7,0x80108228
801108b0:	7a175ede 	.word	0xde5e177a
801108b4:	e01a7a17 	bne	k1,k0,0x80117438
801108b8:	5edee01a 	blez	s7,0x80108234
801108bc:	7a175ede 	.word	0xde5e177a
801108c0:	e01a7a17 	bne	k1,k0,0x80117444
801108c4:	5edee01a 	blez	s7,0x80108240
801108c8:	7a175ede 	.word	0xde5e177a
801108cc:	e01a7a17 	bne	k1,k0,0x80117450
801108d0:	5edee01a 	blez	s7,0x8010824c
801108d4:	7a175ede 	.word	0xde5e177a
801108d8:	e01a7a17 	bne	k1,k0,0x8011745c
801108dc:	5edee01a 	blez	s7,0x80108258
801108e0:	7a175ede 	.word	0xde5e177a
801108e4:	e01a7a17 	bne	k1,k0,0x80117468
801108e8:	5edee01a 	blez	s7,0x80108264
801108ec:	7a175ede 	.word	0xde5e177a
801108f0:	e01a7a17 	bne	k1,k0,0x80117474
801108f4:	5edee01a 	blez	s7,0x80108270
801108f8:	7a175ede 	.word	0xde5e177a
801108fc:	e01a7a17 	bne	k1,k0,0x80117480
80110900:	5edee01a 	blez	s7,0x8010827c
80110904:	7a175ede 	.word	0xde5e177a
80110908:	e01a7a17 	bne	k1,k0,0x8011748c
8011090c:	5edee01a 	blez	s7,0x80108288
80110910:	7a175ede 	.word	0xde5e177a
80110914:	e01a7a17 	bne	k1,k0,0x80117498
80110918:	5edee01a 	blez	s7,0x80108294
8011091c:	7a175ede 	.word	0xde5e177a
80110920:	e01a7a17 	bne	k1,k0,0x801174a4
80110924:	5edee01a 	blez	s7,0x801082a0
80110928:	7a175ede 	.word	0xde5e177a
8011092c:	e01a7a17 	bne	k1,k0,0x801174b0
80110930:	5edee01a 	blez	s7,0x801082ac
80110934:	7a175ede 	.word	0xde5e177a
80110938:	e01a7a17 	bne	k1,k0,0x801174bc
8011093c:	5edee01a 	blez	s7,0x801082b8
80110940:	7a175ede 	.word	0xde5e177a
80110944:	e01a7a17 	bne	k1,k0,0x801174c8
80110948:	5edee01a 	blez	s7,0x801082c4
8011094c:	7a175ede 	.word	0xde5e177a
80110950:	e01a7a17 	bne	k1,k0,0x801174d4
80110954:	5edee01a 	blez	s7,0x801082d0
80110958:	7a175ede 	.word	0xde5e177a
8011095c:	e01a7a17 	bne	k1,k0,0x801174e0
80110960:	5edee01a 	blez	s7,0x801082dc
80110964:	7a175ede 	.word	0xde5e177a
80110968:	e01a7a17 	bne	k1,k0,0x801174ec
8011096c:	5edee01a 	blez	s7,0x801082e8
80110970:	7a175ede 	.word	0xde5e177a
80110974:	e01a7a17 	bne	k1,k0,0x801174f8
80110978:	5edee01a 	blez	s7,0x801082f4
8011097c:	7a175ede 	.word	0xde5e177a
80110980:	e01a7a17 	bne	k1,k0,0x80117504
80110984:	5edee01a 	blez	s7,0x80108300
80110988:	7a175ede 	.word	0xde5e177a
8011098c:	e01a7a17 	bne	k1,k0,0x80117510
80110990:	5edee01a 	blez	s7,0x8010830c
80110994:	7a175ede 	.word	0xde5e177a
80110998:	e01a7a17 	bne	k1,k0,0x8011751c
8011099c:	5edee01a 	blez	s7,0x80108318
801109a0:	7a175ede 	.word	0xde5e177a
801109a4:	e01a7a17 	bne	k1,k0,0x80117528
801109a8:	5edee01a 	blez	s7,0x80108324
801109ac:	7a175ede 	.word	0xde5e177a
801109b0:	e01a7a17 	bne	k1,k0,0x80117534
801109b4:	5edee01a 	blez	s7,0x80108330
801109b8:	7a175ede 	.word	0xde5e177a
801109bc:	e01a7a17 	bne	k1,k0,0x80117540
801109c0:	5edee01a 	blez	s7,0x8010833c
801109c4:	7a175ede 	.word	0xde5e177a
801109c8:	e01a7a17 	bne	k1,k0,0x8011754c
801109cc:	5edee01a 	blez	s7,0x80108348
801109d0:	7a175ede 	.word	0xde5e177a
801109d4:	e01a7a17 	bne	k1,k0,0x80117558
801109d8:	5edee01a 	blez	s7,0x80108354
801109dc:	7a175ede 	.word	0xde5e177a
801109e0:	e01a7a17 	bne	k1,k0,0x80117564
801109e4:	5edee01a 	blez	s7,0x80108360
801109e8:	7a175ede 	.word	0xde5e177a
801109ec:	e01a7a17 	bne	k1,k0,0x80117570
801109f0:	5edee01a 	blez	s7,0x8010836c
801109f4:	7a175ede 	.word	0xde5e177a
801109f8:	e01a7a17 	bne	k1,k0,0x8011757c
801109fc:	5edee01a 	blez	s7,0x80108378
80110a00:	7a175ede 	.word	0xde5e177a
80110a04:	e01a7a17 	bne	k1,k0,0x80117588
80110a08:	5edee01a 	blez	s7,0x80108384
80110a0c:	7a175ede 	.word	0xde5e177a
80110a10:	e01a7a17 	bne	k1,k0,0x80117594
80110a14:	5edee01a 	blez	s7,0x80108390
80110a18:	7a175ede 	.word	0xde5e177a
80110a1c:	e01a7a17 	bne	k1,k0,0x801175a0
80110a20:	5edee01a 	blez	s7,0x8010839c
80110a24:	7a175ede 	.word	0xde5e177a
80110a28:	e01a7a17 	bne	k1,k0,0x801175ac
80110a2c:	5edee01a 	blez	s7,0x801083a8
80110a30:	7a175ede 	.word	0xde5e177a
80110a34:	e01a7a17 	bne	k1,k0,0x801175b8
80110a38:	5edee01a 	blez	s7,0x801083b4
80110a3c:	7a175ede 	.word	0xde5e177a
80110a40:	e01a7a17 	bne	k1,k0,0x801175c4
80110a44:	5edee01a 	blez	s7,0x801083c0
80110a48:	7a175ede 	.word	0xde5e177a
80110a4c:	e01a7a17 	bne	k1,k0,0x801175d0
80110a50:	5edee01a 	blez	s7,0x801083cc
80110a54:	7a175ede 	.word	0xde5e177a
80110a58:	e01a7a17 	bne	k1,k0,0x801175dc
80110a5c:	5edee01a 	blez	s7,0x801083d8
80110a60:	7a175ede 	.word	0xde5e177a
80110a64:	e01a7a17 	bne	k1,k0,0x801175e8
80110a68:	5edee01a 	blez	s7,0x801083e4
80110a6c:	7a175ede 	.word	0xde5e177a
80110a70:	e01a7a17 	bne	k1,k0,0x801175f4
80110a74:	5edee01a 	blez	s7,0x801083f0
80110a78:	7a175ede 	.word	0xde5e177a
80110a7c:	e01a7a17 	bne	k1,k0,0x80117600
80110a80:	5edee01a 	blez	s7,0x801083fc
80110a84:	7a175ede 	.word	0xde5e177a
80110a88:	e11a7a17 	bne	k1,k0,0x80117610
80110a8c:	5ddee31a 	.word	0x1ae3de5d
80110a90:	7a175cde 	.word	0xde5c177a
80110a94:	e61a7a17 	bne	k1,k0,0x80117630
80110a98:	5bdeea1a 	.word	0x1aeade5b
80110a9c:	7a1759de 	.word	0xde59177a
80110aa0:	ef1a7a17 	bne	k1,k0,0x80117660
80110aa4:	58def61a 	.word	0x1af6de58
80110aa8:	7a1756de 	.word	0xde56177a
80110aac:	fe1a7a17 	bne	k1,k0,0x801176a8
80110ab0:	54de071b 	.word	0x1b07de54
80110ab4:	7b1752de 	.word	0xde52177b
80110ab8:	131b7b17 	bne	k1,k1,0x80117708
80110abc:	50de201b 	blez	t9,0x80108400
80110ac0:	7b174ede 	.word	0xde4e177b
80110ac4:	301b7c17 	bne	k1,gp,0x80117788
80110ac8:	4ede411b 	.word	0x1b41de4e
80110acc:	7c174ede 	.word	0xde4e177c
80110ad0:	561b7d17 	bne	k1,sp,0x8011782c
80110ad4:	4fde6c1b 	.word	0x1b6cde4f
80110ad8:	7d1751de 	.word	0xde51177d
80110adc:	851b7e17 	bne	k1,s8,0x801178f4
80110ae0:	55dea11b 	.word	0x1ba1de55
80110ae4:	7f175bde 	.word	0xde5b177f
80110ae8:	c01b7f17 	bne	k1,ra,0x801179ec
80110aec:	64dee11b 	.word	0x1be1de64
80110af0:	80176fde 	.word	0xde6f1780
80110af4:	051c8117 	bne	gp,at,0x80117b0c
80110af8:	7ede2b1c 	.word	0x1c2bde7e
80110afc:	821792de 	.word	0xde921782
80110b00:	521c8217 	bne	gp,v0,0x80117c4c
80110b04:	acde7b1c 	.word	0x1c7bdeac
80110b08:	8317cdde 	.word	0xdecd1783
80110b0c:	a31c8417 	bne	gp,a0,0x80117d9c
80110b10:	f8dec51c 	.word	0x1cc5def8
80110b14:	841742df 	.word	0xdf421784
80110b18:	dd1c8417 	bne	gp,a0,0x80117e90
80110b1c:	addfe61c 	.word	0x1ce6dfad
80110b20:	841728e0 	swc0	c0_badvaddr,6020(at)
80110b24:	e81c8417 	bne	gp,a0,0x80117ec8
80110b28:	a6e0f41c 	.word	0x1cf4e0a6
80110b2c:	84170fe1 	swc0	c0_prid,6020(t0)
80110b30:	221d8317 	bne	gp,v1,0x80117fbc
80110b34:	40e16f1d 	.word	0x1d6fe140
80110b38:	83174ee1 	swc0	c0_epc,6019(t2)
80110b3c:	a31d8317 	bne	gp,v1,0x801181cc
80110b40:	53e1c11d 	.word	0x1dc1e153
80110b44:	821757e1 	swc0	$23,6018(t2)
80110b48:	e01d8217 	bne	gp,v0,0x801182cc
80110b4c:	5ae1001e 	bgtz	s0,0x801090b8
80110b50:	82175ce1 	swc0	$28,6018(t2)
80110b54:	201e8217 	bne	gp,v0,0x801183d8
80110b58:	5ee1411e 	.word	0x1e41e15e
80110b5c:	821760e1 	swc0	c0_index,6018(t3)
80110b60:	631e8217 	bne	gp,v0,0x801184f0
80110b64:	62e1861e 	.word	0x1e86e162
80110b68:	821766e1 	swc0	$6,6018(t3)
80110b6c:	a91e8217 	bne	gp,v0,0x80118614
80110b70:	6be1ce1e 	.word	0x1ecee16b
80110b74:	821771e1 	swc0	$17,6018(t3)
80110b78:	f31e8317 	bne	gp,v1,0x80118748
80110b7c:	7ae1191f 	.word	0x1f19e17a
80110b80:	831785e1 	swc0	$5,6019(t4)
80110b84:	401f8417 	bne	gp,a0,0x80118888
80110b88:	94e1681f 	.word	0x1f68e194
80110b8c:	8517a7e1 	swc0	$7,6021(t5)
80110b90:	901f8617 	bne	gp,a2,0x801189d4
80110b94:	bce1b81f 	.word	0x1fb8e1bc
80110b98:	8717d3e1 	swc0	$19,6023(t6)
80110b9c:	e11f8817 	bne	gp,t0,0x80118b24
80110ba0:	ede10b20 	addi	t3,zero,-7699
80110ba4:	891708e2 	swc0	c0_badvaddr,6025(s0)
80110ba8:	37208b17 	bne	gp,t3,0x80118c88
80110bac:	24e26420 	addi	a0,v1,-7644
80110bb0:	8c1741e2 	swc0	c0_random,6028(s2)
80110bb4:	93208e17 	bne	gp,t6,0x80118e04
80110bb8:	5fe2c520 	addi	a1,a2,-7585
80110bbc:	90177ce2 	swc0	$28,6032(s3)
80110bc0:	f9209117 	bne	gp,s1,0x80118fa8
80110bc4:	99e23121 	addi	s1,t1,-7527
80110bc8:	9317b2e2 	swc0	$18,6035(s5)
80110bcc:	6e219517 	bne	gp,s5,0x80119188
80110bd0:	c7e2ae21 	addi	t6,t5,-7481
80110bd4:	9717d2e2 	swc0	$18,6039(s6)
80110bd8:	f4219817 	bne	gp,t8,0x801193ac
80110bdc:	cee23e22 	addi	s8,s1,-7474
80110be0:	9a17b8e2 	swc0	$24,6042(s5)
80110be4:	87229b17 	bne	gp,k1,0x80119604
80110be8:	93e2ce22 	addi	t6,s6,-7533
80110bec:	9c1765e2 	swc0	$5,6044(s3)
80110bf0:	13239d17 	bne	gp,sp,0x80119840
80110bf4:	31e25923 	addi	t9,k0,-7631
80110bf8:	9e17fbe1 	swc0	$27,6046(t7)
80110bfc:	a1239f17 	bne	gp,ra,0x80119a84
80110c00:	c6e1ee23 	addi	t6,ra,-7738
80110c04:	a01796e1 	swc0	$22,6048(t4)
80110c08:	4224a117 	bne	sp,at,0x80119d14
80110c0c:	73e19924 	addiu	t9,a0,-7821
80110c10:	a1175ee1 	swc0	$30,6049(t2)
80110c14:	ea24a017 	bnez	sp,0x80119fc0
80110c18:	4ee13325 	addiu	s3,t1,-7858
80110c1c:	9d1740e1 	swc0	c0_index,6045(t2)
80110c20:	74259a17 	bne	gp,k0,0x8011a1f4
80110c24:	35e1ae25 	addiu	t6,t5,-7883
80110c28:	98172de1 	swc0	c0_cause,6040(t1)
80110c2c:	e0259517 	bne	gp,s5,0x8011a3b0
80110c30:	26e10d26 	addiu	t5,s0,-7898
80110c34:	931720e1 	swc0	c0_index,6035(t1)
80110c38:	34269117 	bne	gp,s1,0x8011a50c
80110c3c:	1be15726 	addiu	s7,s2,-7909
80110c40:	901718e1 	swc0	$24,6032(t0)
80110c44:	75268f17 	bne	gp,t7,0x8011a61c
80110c48:	15e19026 	addiu	s0,s4,-7915
80110c4c:	8e1712e1 	swc0	$18,6030(t0)
80110c50:	a8268d17 	bne	gp,t5,0x8011a6f4
80110c54:	10e1be26 	addiu	s8,s5,-7920
80110c58:	8c170ee1 	swc0	c0_epc,6028(t0)
80110c5c:	d3268c17 	bne	gp,t4,0x8011a7ac
80110c60:	0ce1e726 	addiu	a3,s7,-7924
80110c64:	8b170be1 	swc0	$11,6027(t0)
80110c68:	fb268b17 	bne	gp,t3,0x8011a858
80110c6c:	0ae11027 	addiu	s0,t8,-7926
80110c70:	8b1708e1 	swc0	c0_badvaddr,6027(t0)
80110c74:	26278a17 	bne	gp,t2,0x8011a910
80110c78:	07e13f27 	addiu	ra,t9,-7929
80110c7c:	8a1706e1 	swc0	$6,6026(t0)
80110c80:	5a278b17 	bne	gp,t3,0x8011a9ec
80110c84:	06e17927 	addiu	t9,k1,-7930
80110c88:	8c1706e1 	swc0	$6,6028(t0)
80110c8c:	9c278d17 	bne	gp,t5,0x8011ab00
80110c90:	07e1c427 	addiu	a0,s8,-7929
80110c94:	901709e1 	swc0	$9,6032(t0)
80110c98:	f2279417 	bne	gp,s4,0x8011ac64
80110c9c:	0de12628 	slti	a2,at,-7923
80110ca0:	9b1713e1 	swc0	$19,6043(t0)
80110ca4:	5c28a417 	bne	sp,a0,0x8011ae18
80110ca8:	1de19128 	slti	s1,a0,-7907
80110cac:	af1729e1 	swc0	$9,6063(t1)
80110cb0:	c328bc17 	bne	sp,gp,0x8011afc0
80110cb4:	38e1f428 	slti	s4,a3,-7880
80110cb8:	c9174be1 	swc0	$11,6089(t2)
80110cbc:	2229d717 	bne	s8,s7,0x8011b148
80110cc0:	5fe14e29 	slti	t6,t2,-7841
80110cc4:	e51776e1 	swc0	$22,6117(t3)
80110cc8:	7829f417 	bne	ra,s4,0x8011b2ac
80110ccc:	8ee1a029 	slti	zero,t5,-7794
80110cd0:	0318a6e1 	swc0	$6,6147(t5)
80110cd4:	c7291318 	.word	0x181329c7
80110cd8:	c0e1ec29 	slti	t4,t7,-7744
80110cdc:	2318dae1 	swc0	$26,6179(t6)
80110ce0:	102a3418 	.word	0x18342a10
80110ce4:	f4e1332a 	slti	s3,s1,-7692
80110ce8:	45180fe2 	swc0	c0_prid,6213(s0)
80110cec:	552a5718 	.word	0x18572a55
80110cf0:	2ae2772a 	slti	s7,s3,-7638
80110cf4:	6a1845e2 	swc0	$5,6250(s2)
80110cf8:	972a7d18 	.word	0x187d2a97
80110cfc:	5fe2b72a 	slti	s7,s5,-7585
80110d00:	92187ae2 	swc0	$26,6290(s3)
80110d04:	d52aa718 	.word	0x18a72ad5
80110d08:	94e2f42a 	slti	s4,s7,-7532
80110d0c:	bd18aee2 	swc0	c0_epc,6333(s5)
80110d10:	122bd518 	.word	0x18d52b12
80110d14:	c7e22f2b 	slti	t7,t9,-7481
80110d18:	ee18dfe2 	swc0	$31,6382(s6)
80110d1c:	4c2b0819 	.word	0x19082b4c
80110d20:	f7e2682b 	slti	t0,k1,-7433
80110d24:	25190de3 	swc0	c0_cause,6437(t8)
80110d28:	842b4319 	.word	0x19432b84
80110d2c:	21e3a02b 	slti	zero,sp,-7391
80110d30:	641934e3 	swc0	$20,6500(t9)
80110d34:	ba2b8719 	.word	0x19872bba
80110d38:	46e3d32b 	slti	s3,s8,-7354
80110d3c:	ac1957e3 	swc0	$23,6572(k0)
80110d40:	ea2bd219 	.word	0x19d22bea
80110d44:	67e3002c 	sltiu	zero,zero,-7321
80110d48:	fa1977e3 	swc0	$23,6650(k1)
80110d4c:	142c241a 	.word	0x1a242c14
80110d50:	86e3272c 	sltiu	a3,at,-7290
80110d54:	4f1a94e3 	swc0	$20,6735(gp)
80110d58:	392c7c1a 	.word	0x1a7c2c39
80110d5c:	a2e34a2c 	sltiu	t2,v0,-7262
80110d60:	aa1aaee3 	swc0	c0_epc,6826(sp)
80110d64:	592cda1a 	.word	0x1ada2c59
80110d68:	bae3672c 	sltiu	a3,v1,-7238
80110d6c:	0b1bc4e3 	swc0	c0_context,6923(s8)
80110d70:	742c3d1b 	.word	0x1b3d2c74
80110d74:	cee37f2c 	sltiu	ra,v1,-7218
80110d78:	711bd7e3 	swc0	$23,7025(s8)
80110d7c:	8a2ca61b 	.word	0x1ba62c8a
80110d80:	dee3932c 	sltiu	s3,a0,-7202
80110d84:	dd1be4e3 	swc0	c0_context,7133(ra)
80110d88:	9a2c161c 	.word	0x1c162c9a
80110d8c:	e8e3a02c 	sltiu	zero,a1,-7192
80110d90:	4f1ceae3 	swc0	c0_entryhi,7247(ra)
80110d94:	a52c8a1c 	.word	0x1c8a2ca5
80110d98:	e9e3a72c 	sltiu	a3,a1,-7191
80110d9c:	c61ce2e3 	swc0	c0_entrylo,7366(ra)
80110da0:	a72c031d 	.word	0x1d032ca7
80110da4:	d6e3a52c 	sltiu	a1,a1,-7210
80110da8:	401dc6e3 	swc0	$6,7488(s8)
80110dac:	a02c7d1d 	.word	0x1d7d2ca0
80110db0:	b3e3992c 	sltiu	t9,a0,-7245
80110db4:	bc1d9ee3 	swc0	$30,7612(gp)
80110db8:	902cfb1d 	.word	0x1dfb2c90
80110dbc:	88e3842c 	sltiu	a0,a0,-7288
80110dc0:	3b1e72e3 	swc0	$18,7739(k1)
80110dc4:	762c7c1e 	.word	0x1e7c2c76
80110dc8:	5de3642c 	sltiu	a0,v1,-7331
80110dcc:	bf1e4ae3 	swc0	c0_entryhi,7871(k0)
80110dd0:	4f2c041f 	.word	0x1f042c4f
80110dd4:	3be3372c 	sltiu	s7,at,-7365
80110dd8:	4a1f34e3 	swc0	$20,8010(t9)
80110ddc:	192c8f1f 	.word	0x1f8f2c19
80110de0:	38e3f62b 	slti	s6,ra,-7368
80110de4:	d41f49e3 	swc0	$9,8148(k0)
80110de8:	d02b1620 	addi	s6,zero,11216
80110dec:	65e3a82b 	slti	t0,sp,-7323
80110df0:	552089e3 	swc0	$9,8277(gp)
80110df4:	7d2b9120 	addi	s1,a0,11133
80110df8:	b2e34f2b 	slti	t7,k0,-7246
80110dfc:	c920e0e3 	swc0	c0_index,8393(ra)
80110e00:	1b2bfd20 	addi	sp,a3,11035
80110e04:	0fe4e22a 	slti	v0,s7,-7153
80110e08:	2d213fe4 	swc1	$f31,8493(at)
80110e0c:	a22a5721 	addi	s7,t2,10914
80110e10:	6ce45a2a 	slti	k0,s2,-7060
80110e14:	7d2196e4 	swc1	$f22,8573(a0)
80110e18:	0a2a9c21 	addi	gp,t4,10762
80110e1c:	bae4b229 	slti	s2,t5,-6982
80110e20:	b421dde4 	swc1	$f29,8628(a2)
80110e24:	5429c621 	addi	a2,t6,10580
80110e28:	fee4f128 	slti	s1,a3,-6914
80110e2c:	d4211ee5 	swc1	$f30,8660(t0)
80110e30:	8b28df21 	addi	ra,t6,10379
80110e34:	3de52228 	slti	v0,at,-6851
80110e38:	e7215ce5 	swc1	$f28,8679(t2)
80110e3c:	b527ee21 	addi	t6,t7,10165
80110e40:	7be54527 	addiu	a1,k0,-6789
80110e44:	f4219ae5 	swc1	$f26,8692(t4)
80110e48:	d226f821 	addi	t8,t7,9938
80110e4c:	b8e55c26 	addiu	gp,s2,-6728
80110e50:	fd21d7e5 	swc1	$f23,8701(t6)
80110e54:	e3250222 	addi	v0,s0,9699
80110e58:	f5e56725 	addiu	a3,t3,-6667
80110e5c:	082212e6 	swc1	$f18,8712(s0)
80110e60:	e7240d22 	addi	t5,s0,9447
80110e64:	2fe66424 	addiu	a0,v1,-6609
80110e68:	0e2249e6 	swc1	$f9,8718(s2)
80110e6c:	dd230c22 	addi	t4,s0,9181
80110e70:	5fe65323 	addi	s3,k0,-6561
80110e74:	08226ee6 	swc1	$f14,8712(s3)
80110e78:	c4220622 	addi	a2,s0,8900
80110e7c:	74e63122 	addi	s1,s1,-6540
80110e80:	042271e6 	swc1	$f17,8708(s3)
80110e84:	9a21fe21 	addi	s8,t7,8602
80110e88:	5be60221 	addi	v0,t0,-6565
80110e8c:	fe2136e6 	swc1	$f22,8702(s1)
80110e90:	68200422 	addi	a0,s0,8296
80110e94:	0ee6cc1f 	.word	0x1fcce60e
80110e98:	0a22e6e5 	swc1	$f6,8714(t7)
80110e9c:	2f1f0d22 	addi	t5,s0,7983
80110ea0:	bde5931e 	.word	0x1e93e5bd
80110ea4:	0f2294e5 	swc1	$f20,8719(t4)
80110ea8:	fa1d1222 	addi	s2,s0,7674
80110eac:	6ae5621d 	.word	0x1d62e56a
80110eb0:	172240e5 	swc1	$f0,8727(t2)
80110eb4:	cc1c1f22 	addi	ra,s0,7372
80110eb8:	17e5391c 	.word	0x1c39e517
80110ebc:	2b22ede4 	swc1	$f13,8747(a3)
80110ec0:	a81b3e22 	addi	s8,s1,7080
80110ec4:	c3e41b1b 	.word	0x1b1be4c3
80110ec8:	5a229ae4 	swc1	$f26,8794(a0)
80110ecc:	921a8622 	addi	a2,s4,6802
80110ed0:	71e4101a 	.word	0x1a10e471
80110ed4:	c0224ae4 	swc1	$f10,8896(v0)
80110ed8:	97190823 	addi	t0,t8,6551
80110edc:	24e42819 	.word	0x1928e424
80110ee0:	5b2301e4 	swc1	$f1,9051(zero)
80110ee4:	c618b923 	addi	t9,sp,6342
80110ee8:	dfe37218 	.word	0x1872e3df
80110eec:	1e24bfe3 	swc0	$31,9246(sp)
80110ef0:	2d188724 	addiu	a3,a0,6189
80110ef4:	a1e3f417 	bne	ra,s4,0x80109d7c
80110ef8:	f12484e3 	swc0	c0_context,9457(gp)
80110efc:	c6175d25 	addiu	sp,t2,6086
80110f00:	6be3a617 	bne	sp,a2,0x80109cb0
80110f04:	c72555e3 	swc0	$21,9671(k0)
80110f08:	91172f26 	addiu	t7,s1,6033
80110f0c:	42e38317 	bne	gp,v1,0x80109c18
80110f10:	932630e3 	swc0	$16,9875(t9)
80110f14:	7b17f326 	addiu	s3,s7,6011
80110f18:	20e37717 	bne	k1,s7,0x80109b9c
80110f1c:	4e2710e3 	swc0	$16,10062(t8)
80110f20:	7617a627 	addiu	a2,sp,6006
80110f24:	01e37817 	bne	k1,t8,0x80109b2c
80110f28:	fe27f2e2 	swc0	$18,10238(s7)
80110f2c:	7d175428 	slti	s4,v0,6013
80110f30:	e2e28417 	bne	gp,a0,0x80109abc
80110f34:	aa28d0e2 	swc0	$16,10410(s6)
80110f38:	8d17ff28 	slti	ra,a3,6029
80110f3c:	bde29b17 	bne	gp,k1,0x80109a34
80110f40:	5029a8e2 	swc0	c0_badvaddr,10576(s5)
80110f44:	ad179e29 	slti	s8,t4,6061
80110f48:	90e2c817 	bne	s8,t0,0x8010998c
80110f4c:	e72977e2 	swc0	$23,10727(s3)
80110f50:	eb172b2a 	slti	t3,s1,6123
80110f54:	5ce21418 	.word	0x1814e25c
80110f58:	692a42e2 	swc0	c0_entrylo,10857(s2)
80110f5c:	4418a32a 	slti	v1,s5,6212
80110f60:	27e27718 	.word	0x1877e227
80110f64:	da2a0de2 	swc0	c0_cause,10970(s0)
80110f68:	ac180d2b 	slti	t5,t8,6316
80110f6c:	f4e1e218 	.word	0x18e2e1f4
80110f70:	412bdce1 	swc0	$28,11073(t6)
80110f74:	1619732b 	slti	s3,k1,6422
80110f78:	c5e14b19 	.word	0x194be1c5
80110f7c:	a12baee1 	swc0	c0_epc,11169(t5)
80110f80:	8019ca2b 	slti	t2,s8,6528
80110f84:	99e1b819 	.word	0x19b8e199
80110f88:	ee2b85e1 	swc0	$5,11246(t4)
80110f8c:	f2190c2c 	sltiu	t4,zero,6642
80110f90:	73e12d1a 	.word	0x1a2de173
80110f94:	252c62e1 	swc0	c0_entrylo,11301(t3)
80110f98:	691a392c 	sltiu	t9,at,6761
80110f9c:	53e1a51a 	.word	0x1aa5e153
80110fa0:	492c45e1 	swc0	$5,11337(t2)
80110fa4:	e01a562c 	sltiu	s6,v0,6880
80110fa8:	38e1191b 	.word	0x1b19e138
80110fac:	5e2c2be1 	swc0	$11,11358(t1)
80110fb0:	511b652c 	sltiu	a1,v1,6993
80110fb4:	1fe1871b 	.word	0x1b87e11f
80110fb8:	6a2c14e1 	swc0	$20,11370(t0)
80110fbc:	bb1b6e2c 	sltiu	t6,v1,7099
80110fc0:	0ae1ed1b 	.word	0x1bede10a
80110fc4:	712c01e1 	swc0	c0_random,11377(t0)
80110fc8:	1c1c732c 	sltiu	s3,v1,7196
80110fcc:	f9e0491c 	.word	0x1c49e0f9
80110fd0:	752cf2e0 	swc0	$18,11381(a3)
80110fd4:	731c762c 	sltiu	s6,v1,7283
80110fd8:	ece09a1c 	.word	0x1c9ae0ec
80110fdc:	782ce8e0 	swc0	c0_badvaddr,11384(a3)
80110fe0:	be1c792c 	sltiu	t9,v1,7358
80110fe4:	e4e0e01c 	bgtz	a3,0x80109378
80110fe8:	7a2ce2e0 	swc0	c0_entrylo,11386(a3)
80110fec:	fe1c7b2c 	sltiu	k1,v1,7422
80110ff0:	e0e0191d 	.word	0x1d19e0e0
80110ff4:	7c2cdfe0 	swc0	$31,11388(a2)
80110ff8:	311d7d2c 	sltiu	sp,v1,7473
80110ffc:	dfe0451d 	.word	0x1d45e0df
80111000:	7e2cdfe0 	swc0	$31,11390(a2)
80111004:	571d7f2c 	sltiu	ra,v1,7511
80111008:	dfe0661d 	.word	0x1d66e0df
8011100c:	7f2cdfe0 	swc0	$31,11391(a2)
80111010:	751d802c 	sltiu	zero,a0,7541
80111014:	e0e0811d 	.word	0x1d81e0e0
80111018:	802ce0e0 	swc0	c0_index,11392(a3)
8011101c:	8e1d812c 	sltiu	at,a0,7566
80111020:	e1e09a1d 	.word	0x1d9ae0e1
80111024:	812ce2e0 	swc0	c0_entrylo,11393(a3)
80111028:	a51d812c 	sltiu	at,a0,7589
8011102c:	e3e0b21d 	.word	0x1db2e0e3
80111030:	812ce4e0 	swc0	c0_context,11393(a3)
80111034:	bf1d822c 	sltiu	v0,a0,7615
80111038:	e5e0cd1d 	.word	0x1dcde0e5
8011103c:	822ce7e0 	swc0	$7,11394(a3)
80111040:	dd1d822c 	sltiu	v0,a0,7645
80111044:	e9e0ef1d 	.word	0x1defe0e9
80111048:	822cece0 	swc0	c0_sr,11394(a3)
8011104c:	031e822c 	sltiu	v0,a0,7683
80111050:	f0e0191e 	.word	0x1e19e0f0
80111054:	822cf4e0 	swc0	$20,11394(a3)
80111058:	331e812c 	sltiu	at,a0,7731
8011105c:	fbe0501e 	.word	0x1e50e0fb
80111060:	812c02e1 	swc0	c0_entrylo,11393(t0)
80111064:	711e802c 	sltiu	zero,a0,7793
80111068:	0ce1951e 	.word	0x1e95e10c
8011106c:	7f2c19e1 	swc0	$25,11391(t0)
80111070:	be1e7e2c 	sltiu	s8,v1,7870
80111074:	29e1eb1e 	.word	0x1eebe129
80111078:	7e2c3de1 	swc0	$29,11390(t1)
8011107c:	1d1f7e2c 	sltiu	s8,v1,7965
80111080:	57e1541f 	.word	0x1f54e157
80111084:	7d2c7ae1 	swc0	$26,11389(t3)
80111088:	8f1f7d2c 	sltiu	sp,v1,8079
8011108c:	a9e1cc1f 	.word	0x1fcce1a9
80111090:	7d2ce1e1 	swc0	c0_random,11389(t7)
80111094:	0c207d2c 	sltiu	sp,v1,8204
80111098:	20e25220 	addi	s2,v0,-7648
8011109c:	7e2c62e2 	swc0	c0_entrylo,11390(s3)
801110a0:	a3207e2c 	sltiu	s8,v1,8355
801110a4:	9be20521 	addi	a1,t0,-7525
801110a8:	7e2ccce2 	swc0	c0_sr,11390(s6)
801110ac:	78217e2c 	sltiu	s8,v1,8568
801110b0:	e6e2fc21 	addi	gp,t7,-7450
801110b4:	7e2ce6e2 	swc0	$6,11390(s7)
801110b8:	fc217e2c 	sltiu	s8,v1,8700
801110bc:	e6e2fc21 	addi	gp,t7,-7450
801110c0:	7e2ce6e2 	swc0	$6,11390(s7)
801110c4:	fc217e2c 	sltiu	s8,v1,8700
801110c8:	e6e2fc21 	addi	gp,t7,-7450
801110cc:	7e2ce6e2 	swc0	$6,11390(s7)
801110d0:	fc217e2c 	sltiu	s8,v1,8700
801110d4:	e6e2fc21 	addi	gp,t7,-7450
801110d8:	7e2ce6e2 	swc0	$6,11390(s7)
801110dc:	fc217e2c 	sltiu	s8,v1,8700
801110e0:	e6e2fc21 	addi	gp,t7,-7450
801110e4:	7e2ce6e2 	swc0	$6,11390(s7)
801110e8:	fc217e2c 	sltiu	s8,v1,8700
801110ec:	e6e2fc21 	addi	gp,t7,-7450
801110f0:	7e2ce6e2 	swc0	$6,11390(s7)
801110f4:	fc217e2c 	sltiu	s8,v1,8700
801110f8:	e6e2fc21 	addi	gp,t7,-7450
801110fc:	7e2ce6e2 	swc0	$6,11390(s7)
80111100:	fc217e2c 	sltiu	s8,v1,8700
80111104:	e6e2fc21 	addi	gp,t7,-7450
80111108:	7e2ce6e2 	swc0	$6,11390(s7)
8011110c:	fc217e2c 	sltiu	s8,v1,8700
80111110:	e6e2fc21 	addi	gp,t7,-7450
80111114:	7e2ce6e2 	swc0	$6,11390(s7)
80111118:	fc217e2c 	sltiu	s8,v1,8700
8011111c:	e6e2fc21 	addi	gp,t7,-7450
80111120:	7e2ce6e2 	swc0	$6,11390(s7)
80111124:	fc217e2c 	sltiu	s8,v1,8700
80111128:	e6e2fc21 	addi	gp,t7,-7450
8011112c:	7e2ce6e2 	swc0	$6,11390(s7)
80111130:	fc217e2c 	sltiu	s8,v1,8700
80111134:	e6e2fc21 	addi	gp,t7,-7450
80111138:	7e2ce6e2 	swc0	$6,11390(s7)
8011113c:	fc217e2c 	sltiu	s8,v1,8700
80111140:	e6e2fc21 	addi	gp,t7,-7450
80111144:	7e2ce6e2 	swc0	$6,11390(s7)
80111148:	fc217e2c 	sltiu	s8,v1,8700
8011114c:	e6e2fc21 	addi	gp,t7,-7450
80111150:	7e2ce6e2 	swc0	$6,11390(s7)
80111154:	fc217e2c 	sltiu	s8,v1,8700
80111158:	e6e2fc21 	addi	gp,t7,-7450
8011115c:	7e2ce6e2 	swc0	$6,11390(s7)
80111160:	fc217e2c 	sltiu	s8,v1,8700
80111164:	e6e2fc21 	addi	gp,t7,-7450
80111168:	7e2ce6e2 	swc0	$6,11390(s7)
8011116c:	fc217e2c 	sltiu	s8,v1,8700
80111170:	e6e2fc21 	addi	gp,t7,-7450
80111174:	7e2ce6e2 	swc0	$6,11390(s7)
80111178:	fc217e2c 	sltiu	s8,v1,8700
8011117c:	e6e2fc21 	addi	gp,t7,-7450
80111180:	7e2ce6e2 	swc0	$6,11390(s7)
80111184:	fc217e2c 	sltiu	s8,v1,8700
80111188:	e6e2fc21 	addi	gp,t7,-7450
8011118c:	7e2ce6e2 	swc0	$6,11390(s7)
80111190:	fc217e2c 	sltiu	s8,v1,8700
80111194:	e6e2fc21 	addi	gp,t7,-7450
80111198:	7e2ce6e2 	swc0	$6,11390(s7)
8011119c:	fc217e2c 	sltiu	s8,v1,8700
801111a0:	e6e2fc21 	addi	gp,t7,-7450
801111a4:	7e2ce6e2 	swc0	$6,11390(s7)
801111a8:	fc217e2c 	sltiu	s8,v1,8700
801111ac:	e6e2fc21 	addi	gp,t7,-7450
801111b0:	7e2ce6e2 	swc0	$6,11390(s7)
801111b4:	fc217e2c 	sltiu	s8,v1,8700
801111b8:	e6e2fc21 	addi	gp,t7,-7450
801111bc:	7e2ce6e2 	swc0	$6,11390(s7)
801111c0:	fc217e2c 	sltiu	s8,v1,8700
801111c4:	e6e2fc21 	addi	gp,t7,-7450
801111c8:	7e2ce6e2 	swc0	$6,11390(s7)
801111cc:	fc217e2c 	sltiu	s8,v1,8700
801111d0:	e6e2fc21 	addi	gp,t7,-7450
801111d4:	7e2ce6e2 	swc0	$6,11390(s7)
801111d8:	fc217e2c 	sltiu	s8,v1,8700
801111dc:	e6e2fc21 	addi	gp,t7,-7450
801111e0:	7e2ce6e2 	swc0	$6,11390(s7)
801111e4:	fc217e2c 	sltiu	s8,v1,8700
801111e8:	e6e2fc21 	addi	gp,t7,-7450
801111ec:	7e2ce6e2 	swc0	$6,11390(s7)
801111f0:	fc217e2c 	sltiu	s8,v1,8700
801111f4:	e6e2fc21 	addi	gp,t7,-7450
801111f8:	7e2ce6e2 	swc0	$6,11390(s7)
801111fc:	fc217e2c 	sltiu	s8,v1,8700
80111200:	e6e2fc21 	addi	gp,t7,-7450
80111204:	7e2ce6e2 	swc0	$6,11390(s7)
80111208:	fc217e2c 	sltiu	s8,v1,8700
8011120c:	e6e2fc21 	addi	gp,t7,-7450
80111210:	7e2ce6e2 	swc0	$6,11390(s7)
80111214:	fc217e2c 	sltiu	s8,v1,8700
80111218:	e6e2fc21 	addi	gp,t7,-7450
8011121c:	7e2ce6e2 	swc0	$6,11390(s7)
80111220:	fc217e2c 	sltiu	s8,v1,8700
80111224:	e6e2fc21 	addi	gp,t7,-7450
80111228:	7e2ce6e2 	swc0	$6,11390(s7)
8011122c:	fc217e2c 	sltiu	s8,v1,8700
80111230:	e6e2fc21 	addi	gp,t7,-7450
80111234:	7e2ce6e2 	swc0	$6,11390(s7)
80111238:	fc217e2c 	sltiu	s8,v1,8700
8011123c:	e6e2fc21 	addi	gp,t7,-7450
80111240:	7e2ce6e2 	swc0	$6,11390(s7)
80111244:	fc217e2c 	sltiu	s8,v1,8700
80111248:	e6e2fc21 	addi	gp,t7,-7450
8011124c:	7e2ce6e2 	swc0	$6,11390(s7)
80111250:	fc217e2c 	sltiu	s8,v1,8700
80111254:	e6e2fc21 	addi	gp,t7,-7450
80111258:	7e2ce6e2 	swc0	$6,11390(s7)
8011125c:	fc217e2c 	sltiu	s8,v1,8700
80111260:	e6e2fc21 	addi	gp,t7,-7450
80111264:	7e2ce6e2 	swc0	$6,11390(s7)
80111268:	fc217e2c 	sltiu	s8,v1,8700
8011126c:	e6e2fc21 	addi	gp,t7,-7450
80111270:	7e2ce6e2 	swc0	$6,11390(s7)
80111274:	fc217e2c 	sltiu	s8,v1,8700
80111278:	e6e2fc21 	addi	gp,t7,-7450
8011127c:	7e2ce6e2 	swc0	$6,11390(s7)
80111280:	fc217e2c 	sltiu	s8,v1,8700
80111284:	e6e2fc21 	addi	gp,t7,-7450
80111288:	7e2ce6e2 	swc0	$6,11390(s7)
8011128c:	fc217e2c 	sltiu	s8,v1,8700
80111290:	e6e2fc21 	addi	gp,t7,-7450
80111294:	7e2ce6e2 	swc0	$6,11390(s7)
80111298:	fc217e2c 	sltiu	s8,v1,8700
8011129c:	e6e2fc21 	addi	gp,t7,-7450
801112a0:	7e2ce6e2 	swc0	$6,11390(s7)
801112a4:	fc217e2c 	sltiu	s8,v1,8700
801112a8:	e6e2fc21 	addi	gp,t7,-7450
801112ac:	7e2ce6e2 	swc0	$6,11390(s7)
801112b0:	fc217e2c 	sltiu	s8,v1,8700
801112b4:	e6e2fc21 	addi	gp,t7,-7450
801112b8:	7e2ce6e2 	swc0	$6,11390(s7)
801112bc:	fc217e2c 	sltiu	s8,v1,8700
801112c0:	e6e2fc21 	addi	gp,t7,-7450
801112c4:	7e2ce6e2 	swc0	$6,11390(s7)
801112c8:	fc217e2c 	sltiu	s8,v1,8700
801112cc:	e6e2fc21 	addi	gp,t7,-7450
801112d0:	802c74de 	.word	0xde742c80
801112d4:	bf280200 	.word	0x228bf
801112d8:	802c82e1 	swc0	c0_entrylo,11392(t4)
801112dc:	34270200 	.word	0x22734
801112e0:	802cf4e1 	swc0	$20,11392(t7)
801112e4:	92250200 	.word	0x22592
801112e8:	802cd1e2 	swc0	$17,11392(s6)
801112ec:	f1230200 	.word	0x223f1
801112f0:	802cb4e3 	swc0	$20,11392(sp)
801112f4:	56220200 	.word	0x22256
801112f8:	802c67e3 	swc0	$7,11392(k1)
801112fc:	c2200200 	srl	a0,v0,0x3
80111300:	802c2ce2 	swc0	c0_sr,11392(s1)
80111304:	2c1f0200 	.word	0x21f2c
80111308:	802cc4e1 	swc0	c0_context,11392(t6)
8011130c:	961d0200 	.word	0x21d96
80111310:	5f2cd5e1 	swc0	$21,11359(t6)
80111314:	fa1b0300 	.word	0x31bfa
80111318:	232c09e2 	swc0	$9,11299(s0)
8011131c:	6d1a0400 	.word	0x41a6d
80111320:	4f2bb2e2 	swc0	$18,11087(s5)
80111324:	0f190600 	.word	0x6190f
80111328:	112ac8e3 	swc0	c0_badvaddr,10769(s8)
8011132c:	08180700 	.word	0x71808
80111330:	98288ce4 	swc1	$f12,10392(a0)
80111334:	86170800 	.word	0x81786
80111338:	172789e4 	swc1	$f9,10007(a0)
8011133c:	80170900 	sll	v0,t1,0x1e
80111340:	7325fbe3 	swc0	$27,9587(ra)
80111344:	a4170a00 	.word	0xa17a4
80111348:	0e24ade4 	swc1	$f13,9230(a1)
8011134c:	39180b00 	.word	0xb1839
80111350:	f4223be5 	swc1	$f27,8948(t1)
80111354:	51190d00 	.word	0xd1951
80111358:	3f22e5e5 	swc1	$f5,8767(t7)
8011135c:	c11a0f00 	.word	0xf1ac1
80111360:	192262e6 	swc1	$f2,8729(s3)
80111364:	451c0f00 	.word	0xf1c45
80111368:	0022c6e6 	swc1	$f6,8704(s6)
8011136c:	d81d1000 	.word	0x101dd8
80111370:	0022fae6 	swc1	$f26,8704(s7)
80111374:	761f1000 	.word	0x101f76
80111378:	002229e7 	swc1	$f9,8704(t9)
8011137c:	f4201000 	.word	0x1020f4
80111380:	002234e7 	swc1	$f20,8704(t9)
80111384:	8d221000 	break	0x10,0x8a
80111388:	00220ae7 	swc1	$f10,8704(t8)
8011138c:	1a241000 	.word	0x10241a
80111390:	0022d7e6 	swc1	$f23,8704(s6)
80111394:	b5251000 	.word	0x1025b5
80111398:	f4218be6 	swc1	$f11,8692(s4)
8011139c:	3d271100 	.word	0x11273d
801113a0:	ca2103e6 	swc1	$f3,8650(s0)
801113a4:	dd281100 	.word	0x1128dd
801113a8:	482161e5 	swc1	$f1,8520(t3)
801113ac:	532a1300 	.word	0x132a53
801113b0:	4120d6e4 	swc1	$f22,8257(a2)
801113b4:	7e2b1400 	.word	0x142b7e
801113b8:	eb1e2ae4 	swc1	$f10,7915(at)
801113bc:	452c1600 	.word	0x162c45
801113c0:	5c1d4be4 	swc1	$f11,7516(v0)
801113c4:	802c1700 	sll	a1,s7,0x12
801113c8:	ba1b9ce4 	swc1	$f28,7098(a0)
801113cc:	802c1700 	sll	a1,s7,0x12
801113d0:	321af9e3 	swc0	$25,6706(ra)
801113d4:	192c1900 	.word	0x192c19
801113d8:	ed18eae2 	swc0	c0_entryhi,6381(s7)
801113dc:	2d2b1a00 	.word	0x1a2b2d
801113e0:	021825e2 	swc0	$5,6146(s1)
801113e4:	032a1b00 	sra	a1,k1,0x8
801113e8:	aa17dde1 	swc0	$29,6058(t6)
801113ec:	6f281d00 	.word	0x1d286f
801113f0:	8117b5e1 	swc0	$21,6017(t5)
801113f4:	d2261d00 	.word	0x1d26d2
801113f8:	801707e2 	swc0	$7,6016(s0)
801113fc:	4a251e00 	.word	0x1e254a
80111400:	80173ae3 	swc0	$26,6016(t9)
80111404:	b4231e00 	.word	0x1e23b4
80111408:	8017b4e3 	swc0	$20,6016(sp)
8011140c:	0c221e00 	syscall	0x7888
80111410:	801745e3 	swc0	$5,6016(k0)
80111414:	6d201e00 	.word	0x1e206d
80111418:	801719e2 	swc0	$25,6016(s0)
8011141c:	f41e1e00 	.word	0x1e1ef4
80111420:	8017c9e1 	swc0	$9,6016(t6)
80111424:	591d1e00 	.word	0x1e1d59
80111428:	801734df 	.word	0xdf341780
8011142c:	db1b1e00 	.word	0x1e1bdb
80111430:	801767dd 	.word	0xdd671780
80111434:	aa1a1e00 	.word	0x1e1aaa
80111438:	802c42dc 	.word	0xdc422c80
8011143c:	c5290200 	.word	0x229c5
80111440:	f32a74e2 	swc0	$20,10995(s3)
80111444:	00220100 	sll	a0,at,0x8
80111448:	6c29f4e1 	swc0	$20,10604(t7)
8011144c:	00220100 	sll	a0,at,0x8
80111450:	e727dbe0 	swc0	$27,10215(a2)
80111454:	00220100 	sll	a0,at,0x8
80111458:	4c266ce0 	swc0	c0_sr,9804(v1)
8011145c:	00220100 	sll	a0,at,0x8
80111460:	da249cdf 	.word	0xdf9c24da
80111464:	00220100 	sll	a0,at,0x8
80111468:	532365df 	.word	0xdf652353
8011146c:	00220100 	sll	a0,at,0x8
80111470:	b221bbdf 	.word	0xdfbb21b2
80111474:	00220100 	sll	a0,at,0x8
80111478:	252061df 	.word	0xdf612025
8011147c:	00220100 	sll	a0,at,0x8
80111480:	071ec0df 	.word	0xdfc01e07
80111484:	00220100 	sll	a0,at,0x8
80111488:	701cb4e0 	swc0	$20,7280(a1)
8011148c:	00220100 	sll	a0,at,0x8
80111490:	f91ad0e1 	swc0	$16,6905(t6)
80111494:	00220100 	sll	a0,at,0x8
80111498:	6a1965e2 	swc0	$5,6506(s3)
8011149c:	00220100 	sll	a0,at,0x8
801114a0:	00000200 	sll	zero,v0,0x0
801114a4:	04010403 	.word	0x3040104
801114a8:	00040401 	.word	0x1040400
801114ac:	02030404 	.word	0x4040302
801114b0:	00000402 	.word	0x2040000
801114b4:	01000402 	.word	0x2040001
801114b8:	00010402 	.word	0x2040100
801114bc:	03010400 	sra	zero,a0,0x4
801114c0:	00000200 	sll	zero,v0,0x0
801114c4:	04010403 	.word	0x3040104
801114c8:	00040401 	.word	0x1040400
801114cc:	02030404 	.word	0x4040302
801114d0:	00000402 	.word	0x2040000
801114d4:	01000402 	.word	0x2040001
801114d8:	00010402 	.word	0x2040100
801114dc:	03010400 	sra	zero,a0,0x4
801114e0:	00000200 	sll	zero,v0,0x0
801114e4:	04010403 	.word	0x3040104
801114e8:	00040401 	.word	0x1040400
801114ec:	02030404 	.word	0x4040302
801114f0:	00000402 	.word	0x2040000
801114f4:	01000402 	.word	0x2040001
801114f8:	00010402 	.word	0x2040100
801114fc:	03010400 	sra	zero,a0,0x4
80111500:	00000200 	sll	zero,v0,0x0
80111504:	04010403 	.word	0x3040104
80111508:	00040401 	.word	0x1040400
8011150c:	02030404 	.word	0x4040302
80111510:	00000402 	.word	0x2040000
80111514:	01000402 	.word	0x2040001
80111518:	00010402 	.word	0x2040100
8011151c:	03010400 	sra	zero,a0,0x4
80111520:	00000200 	sll	zero,v0,0x0
80111524:	04010403 	.word	0x3040104
80111528:	00040401 	.word	0x1040400
8011152c:	02030404 	.word	0x4040302
80111530:	00000402 	.word	0x2040000
80111534:	01000402 	.word	0x2040001
80111538:	00010402 	.word	0x2040100
8011153c:	03010400 	sra	zero,a0,0x4
80111540:	00000200 	sll	zero,v0,0x0
80111544:	04010403 	.word	0x3040104
80111548:	00040401 	.word	0x1040400
8011154c:	02030404 	.word	0x4040302
80111550:	00000402 	.word	0x2040000
80111554:	01000402 	.word	0x2040001
80111558:	00010402 	.word	0x2040100
8011155c:	03010400 	sra	zero,a0,0x4
80111560:	3ca41180 	lb	s1,-23492(zero)
80111564:	4ca41180 	lb	s1,-23476(zero)
80111568:	5ca41180 	lb	s1,-23460(zero)
8011156c:	6ca41180 	lb	s1,-23444(zero)
80111570:	7ca41180 	lb	s1,-23428(zero)
80111574:	8ca41180 	lb	s1,-23412(zero)
80111578:	9ca41180 	lb	s1,-23396(zero)
8011157c:	aca41180 	lb	s1,-23380(zero)
80111580:	bca41180 	lb	s1,-23364(zero)
80111584:	cca41180 	lb	s1,-23348(zero)
80111588:	dca41180 	lb	s1,-23332(zero)
8011158c:	eca41180 	lb	s1,-23316(zero)
80111590:	08000000 	jr	zero
80111594:	02000000 	srl	zero,zero,0x0
80111598:	04000000 	sllv	zero,zero,zero
8011159c:	0b000000 	.word	0xb
801115a0:	02000000 	srl	zero,zero,0x0
801115a4:	04000000 	sllv	zero,zero,zero
801115a8:	17000000 	.word	0x17
801115ac:	18000000 	mult	zero,zero
801115b0:	19000000 	multu	zero,zero
801115b4:	1a000000 	div	zero,zero,zero
801115b8:	1b000000 	divu	zero,zero,zero
801115bc:	1c000000 	.word	0x1c
801115c0:	0e0b0000 	.word	0xb0e
801115c4:	090c0000 	.word	0xc09
801115c8:	050d0000 	.word	0xd05
801115cc:	090e0000 	.word	0xe09
801115d0:	090f0000 	.word	0xf09
801115d4:	02100000 	srl	v0,zero,0x0
801115d8:	34000100 	.word	0x10034
801115dc:	00000000 	nop
801115e0:	0d000100 	break	0x1
801115e4:	00008b00 	.word	0x8b0000
801115e8:	1f000380 	lb	v1,31(zero)
801115ec:	00010000 	sll	zero,zero,0x4
801115f0:	37000100 	.word	0x10037
801115f4:	d0000400 	.word	0x400d0
801115f8:	00000100 	sll	zero,at,0x0
801115fc:	00000000 	nop
80111600:	37000100 	.word	0x10037
80111604:	02000400 	srl	zero,a0,0x0
80111608:	00000100 	sll	zero,at,0x0
8011160c:	01000000 	.word	0x1
80111610:	3e000101 	.word	0x101003e
80111614:	3cf41080 	lb	s0,-3012(zero)
80111618:	1e000100 	.word	0x1001e
8011161c:	07000c00 	srav	zero,t4,zero
80111620:	1e000000 	.word	0x1e
80111624:	01000400 	.word	0x40001
80111628:	3e001000 	.word	0x10003e
8011162c:	3cf41080 	lb	s0,-3012(zero)
80111630:	01000140 	.word	0x40010001
80111634:	02000900 	srl	zero,t1,0x0
80111638:	1f000380 	lb	v1,31(zero)
8011163c:	00010000 	sll	zero,zero,0x4
80111640:	1e000100 	.word	0x1001e
80111644:	00000400 	sll	zero,a0,0x0
80111648:	01000140 	.word	0x40010001
8011164c:	03000a00 	sra	zero,t2,0x0
80111650:	1e000000 	.word	0x1e
80111654:	01000400 	.word	0x40001
80111658:	1f000100 	.word	0x1001f
8011165c:	00010000 	sll	zero,zero,0x4
80111660:	00000100 	sll	zero,at,0x0
80111664:	04000000 	sllv	zero,zero,zero
80111668:	39000080 	lb	zero,57(zero)
8011166c:	0600bc00 	srlv	zero,gp,a1
80111670:	05001800 	.word	0x180005
80111674:	00000000 	nop
80111678:	39000080 	lb	zero,57(zero)
8011167c:	00000200 	sll	zero,v0,0x0
80111680:	01000140 	.word	0x40010001
80111684:	05000b00 	.word	0xb0005
80111688:	01000120 	addi	at,zero,1
8011168c:	06000200 	srlv	zero,v0,zero
80111690:	0e800000 	.word	0x800e
80111694:	00000000 	nop
80111698:	ffff0000 	.word	0xffff
8011169c:	ffff0000 	.word	0xffff
801116a0:	00000900 	sll	zero,t1,0x0
801116a4:	8bff0000 	.word	0xff8b
801116a8:	00000400 	sll	zero,a0,0x0
801116ac:	b0ff5000 	.word	0x50ffb0
801116b0:	0200fdff 	.word	0xfffd0002
801116b4:	00004300 	.word	0x430000
801116b8:	0300fdff 	.word	0xfffd0003
801116bc:	00007800 	.word	0x780000
801116c0:	00000400 	sll	zero,a0,0x0
801116c4:	b0ffb0ff 	.word	0xffb0ffb0
801116c8:	0500fdff 	.word	0xfffd0005
801116cc:	0000bdff 	.word	0xffbd0000
801116d0:	0600fdff 	.word	0xfffd0006
801116d4:	000088ff 	.word	0xff880000
801116d8:	07001e00 	srav	zero,s8,zero
801116dc:	1e00d4ff 	.word	0xffd4001e
801116e0:	08000100 	.word	0x10008
801116e4:	5fff0000 	.word	0xff5f
801116e8:	ffff0000 	.word	0xffff
801116ec:	ffff0000 	.word	0xffff
801116f0:	0a000000 	.word	0xa
801116f4:	15001e00 	.word	0x1e0015
801116f8:	0b000200 	.word	0x2000b
801116fc:	47000300 	.word	0x30047
80111700:	0c00f4ff 	.word	0xfff4000c
80111704:	3b000000 	.word	0x3b
80111708:	0a000000 	.word	0xa
8011170c:	1500e2ff 	.word	0xffe20015
80111710:	0e000200 	.word	0x2000e
80111714:	4700fdff 	.word	0xfffd0047
80111718:	0f00f4ff 	.word	0xfff4000f
8011171c:	3b000000 	.word	0x3b
80111720:	01040022 	addi	zero,s0,1025
80111724:	3ee10022 	addi	zero,s0,-7874
80111728:	08000000 	jr	zero
8011172c:	00000000 	nop
80111730:	a84a1180 	lb	s1,19112(zero)
80111734:	0402802c 	sltiu	zero,a0,516
80111738:	d8dcc925 	addiu	t1,t6,-9000
8011173c:	66010000 	.word	0x166
80111740:	00000000 	nop
80111744:	1cfc1080 	lb	s0,-996(zero)
80111748:	01048c23 	addi	t4,gp,1025
8011174c:	88e1002f 	sltiu	zero,t8,-7800
80111750:	64010000 	.word	0x164
80111754:	00000000 	nop
80111758:	20651180 	lb	s1,25888(zero)
8011175c:	0004ae29 	slti	t6,t5,1024
80111760:	c2e30022 	addi	zero,s0,-7230
80111764:	18000000 	mult	zero,zero
80111768:	00000000 	nop
8011176c:	ec4c1180 	lb	s1,19692(zero)
80111770:	00048928 	slti	t1,a0,1024
80111774:	e4e20022 	addi	zero,s0,-7452
80111778:	18010000 	.word	0x118
8011177c:	00000000 	nop
80111780:	ec4c1180 	lb	s1,19692(zero)
80111784:	0004ad27 	addiu	t5,sp,1024
80111788:	1ce20022 	addi	zero,s0,-7652
8011178c:	18020000 	.word	0x218
80111790:	00000000 	nop
80111794:	ec4c1180 	lb	s1,19692(zero)
80111798:	00040222 	addi	v0,s0,1024
8011179c:	56e10022 	addi	zero,s0,-7850
801117a0:	18030000 	.word	0x318
801117a4:	00000000 	nop
801117a8:	ec4c1180 	lb	s1,19692(zero)
801117ac:	0004841c 	.word	0x1c840400
801117b0:	12e20022 	addi	zero,s0,-7662
801117b4:	18040000 	.word	0x418
801117b8:	00000000 	nop
801117bc:	ec4c1180 	lb	s1,19692(zero)
801117c0:	0004bc1b 	.word	0x1bbc0400
801117c4:	dae20022 	addi	zero,s0,-7462
801117c8:	18050000 	.word	0x518
801117cc:	00000000 	nop
801117d0:	ec4c1180 	lb	s1,19692(zero)
801117d4:	00047e1a 	.word	0x1a7e0400
801117d8:	96e30022 	addi	zero,s0,-7274
801117dc:	18060000 	.word	0x618
801117e0:	00000000 	nop
801117e4:	ec4c1180 	lb	s1,19692(zero)
801117e8:	00043a23 	addi	k0,t9,1024
801117ec:	02e40022 	addi	zero,s0,-7166
801117f0:	18070000 	.word	0x718
801117f4:	00000000 	nop
801117f8:	ec4c1180 	lb	s1,19692(zero)
801117fc:	0004ad20 	addi	t5,a1,1024
80111800:	02e40022 	addi	zero,s0,-7166
80111804:	18080000 	.word	0x818
80111808:	00000000 	nop
8011180c:	ec4c1180 	lb	s1,19692(zero)
80111810:	00045e18 	.word	0x185e0400
80111814:	68e37225 	addiu	s2,t3,-7320
80111818:	18090000 	.word	0x918
8011181c:	00000000 	nop
80111820:	ec4c1180 	lb	s1,19692(zero)
80111824:	0004d22a 	slti	s2,s6,1024
80111828:	46df942a 	slti	s4,s4,-8378
8011182c:	180a0000 	.word	0xa18
80111830:	00000000 	nop
80111834:	ec4c1180 	lb	s1,19692(zero)
80111838:	0004802c 	sltiu	zero,a0,1024
8011183c:	26e1d829 	slti	t8,t6,-7898
80111840:	180b0000 	.word	0xb18
80111844:	00000000 	nop
80111848:	ec4c1180 	lb	s1,19692(zero)
8011184c:	0004802c 	sltiu	zero,a0,1024
80111850:	14e42a26 	addiu	t2,s1,-7148
80111854:	180c0000 	.word	0xc18
80111858:	00000000 	nop
8011185c:	ec4c1180 	lb	s1,19692(zero)
80111860:	00040022 	addi	zero,s0,1024
80111864:	50e7ae29 	slti	t6,t5,-6320
80111868:	180d0000 	.word	0xd18
8011186c:	00000000 	nop
80111870:	ec4c1180 	lb	s1,19692(zero)
80111874:	ff000000 	.word	0xff
	...
80111888:	7e3f0e00 	.word	0xe3f7e
8011188c:	ec1cf313 	beq	ra,s3,0x80118c40
80111890:	cddb8380 	lb	v1,-9267(a0)
80111894:	ec1cf313 	beq	ra,s3,0x80118c48
80111898:	cddb8380 	lb	v1,-9267(a0)
8011189c:	ec1cf313 	beq	ra,s3,0x80118c50
801118a0:	cddb8380 	lb	v1,-9267(a0)
801118a4:	ec1cef17 	bne	ra,t7,0x80118c58
801118a8:	d5b48380 	lb	v1,-19243(a0)
801118ac:	ec1cef17 	bne	ra,t7,0x80118c60
801118b0:	d5b48380 	lb	v1,-19243(a0)
801118b4:	ec1cef17 	bne	ra,t7,0x80118c68
801118b8:	d5b48380 	lb	v1,-19243(a0)
801118bc:	ec1cee16 	bne	s7,t6,0x80118c70
801118c0:	a5b48380 	lb	v1,-19291(a0)
801118c4:	ec1cee16 	bne	s7,t6,0x80118c78
801118c8:	a5b48380 	lb	v1,-19291(a0)
801118cc:	ec1cee16 	bne	s7,t6,0x80118c80
801118d0:	a5b48380 	lb	v1,-19291(a0)
801118d4:	ef17ee16 	bne	s7,t6,0x80117894
801118d8:	7cdc8380 	lb	v1,-9092(a0)
801118dc:	ef17ee16 	bne	s7,t6,0x8011789c
801118e0:	7cdc8380 	lb	v1,-9092(a0)
801118e4:	ef17ee16 	bne	s7,t6,0x801178a4
801118e8:	7cdc8380 	lb	v1,-9092(a0)
801118ec:	ef17ee16 	bne	s7,t6,0x801178ac
801118f0:	54dc8380 	lb	v1,-9132(a0)
801118f4:	ef17ee16 	bne	s7,t6,0x801178b4
801118f8:	54dc8380 	lb	v1,-9132(a0)
801118fc:	ef17ee16 	bne	s7,t6,0x801178bc
80111900:	54dc8380 	lb	v1,-9132(a0)
80111904:	ef17ed15 	bne	t7,t5,0x801178c4
80111908:	7cb48380 	lb	v1,-19332(a0)
8011190c:	ef17ed15 	bne	t7,t5,0x801178cc
80111910:	7cb48380 	lb	v1,-19332(a0)
80111914:	ef17ec14 	bne	a3,t4,0x801178d4
80111918:	54b48380 	lb	v1,-19372(a0)
8011191c:	ef17ec14 	bne	a3,t4,0x801178dc
80111920:	54b48380 	lb	v1,-19372(a0)
80111924:	ee16f111 	beq	t7,s1,0x801174e0
80111928:	a4db8380 	lb	v1,-9308(a0)
8011192c:	f212f40e 	jal	0x8bd04bc8
80111930:	a4db8381 	lb	v1,-9308(t4)
80111934:	f40ff60c 	jal	0x83d83fd0
80111938:	a4db87c0 	lwc0	$7,-9308(a0)
8011193c:	7e3f0e00 	.word	0xe3f7e
80111940:	f40ff60c 	jal	0x83d83fd0
80111944:	a4db8380 	lb	v1,-9308(a0)
80111948:	f212f40e 	jal	0x8bd04bc8
8011194c:	a4db8380 	lb	v1,-9308(a0)
80111950:	ee16f111 	beq	t7,s1,0x8011750c
80111954:	a4db8380 	lb	v1,-9308(a0)
80111958:	ef17ec14 	bne	a3,t4,0x80117918
8011195c:	54b48380 	lb	v1,-19372(a0)
80111960:	ef17ec14 	bne	a3,t4,0x80117920
80111964:	54b48380 	lb	v1,-19372(a0)
80111968:	ef17ed15 	bne	t7,t5,0x80117928
8011196c:	7cb48380 	lb	v1,-19332(a0)
80111970:	ef17ed15 	bne	t7,t5,0x80117930
80111974:	7cb48380 	lb	v1,-19332(a0)
80111978:	ef17ee16 	bne	s7,t6,0x80117938
8011197c:	54dc8380 	lb	v1,-9132(a0)
80111980:	ef17ee16 	bne	s7,t6,0x80117940
80111984:	54dc8380 	lb	v1,-9132(a0)
80111988:	ef17ee16 	bne	s7,t6,0x80117948
8011198c:	54dc8380 	lb	v1,-9132(a0)
80111990:	ef17ee16 	bne	s7,t6,0x80117950
80111994:	7cdc8380 	lb	v1,-9092(a0)
80111998:	ef17ee16 	bne	s7,t6,0x80117958
8011199c:	7cdc8380 	lb	v1,-9092(a0)
801119a0:	ef17ee16 	bne	s7,t6,0x80117960
801119a4:	7cdc8380 	lb	v1,-9092(a0)
801119a8:	ec1cee16 	bne	s7,t6,0x80118d5c
801119ac:	a5b48380 	lb	v1,-19291(a0)
801119b0:	ec1cee16 	bne	s7,t6,0x80118d64
801119b4:	a5b48380 	lb	v1,-19291(a0)
801119b8:	ec1cee16 	bne	s7,t6,0x80118d6c
801119bc:	a5b48380 	lb	v1,-19291(a0)
801119c0:	ec1cef17 	bne	ra,t7,0x80118d74
801119c4:	d5b48380 	lb	v1,-19243(a0)
801119c8:	ec1cef17 	bne	ra,t7,0x80118d7c
801119cc:	d5b48380 	lb	v1,-19243(a0)
801119d0:	ec1cef17 	bne	ra,t7,0x80118d84
801119d4:	d5b48380 	lb	v1,-19243(a0)
801119d8:	ec1cf313 	beq	ra,s3,0x80118d8c
801119dc:	cddb8380 	lb	v1,-9267(a0)
801119e0:	ec1cf313 	beq	ra,s3,0x80118d94
801119e4:	cddb8380 	lb	v1,-9267(a0)
801119e8:	ec1cf313 	beq	ra,s3,0x80118d9c
801119ec:	cddb83c0 	lwc0	$3,-9267(a0)
801119f0:	7e3e0f00 	.word	0xf3e7e
801119f4:	f808f808 	j	0x83e023e0
801119f8:	01c18380 	lb	v1,-16127(a0)
801119fc:	f808f808 	j	0x83e023e0
80111a00:	11c18380 	lb	v1,-16111(a0)
80111a04:	f40cf40c 	jal	0x83d033d0
80111a08:	02d28380 	lb	v1,-11774(a0)
80111a0c:	f40cf40c 	jal	0x83d033d0
80111a10:	02ea8380 	lb	v1,-5630(a0)
80111a14:	f40cf40c 	jal	0x83d033d0
80111a18:	02d28380 	lb	v1,-11774(a0)
80111a1c:	f40cf40c 	jal	0x83d033d0
80111a20:	02d28380 	lb	v1,-11774(a0)
80111a24:	f808f808 	j	0x83e023e0
80111a28:	11c18380 	lb	v1,-16111(a0)
80111a2c:	f808f808 	j	0x83e023e0
80111a30:	11c18380 	lb	v1,-16111(a0)
80111a34:	f808f808 	j	0x83e023e0
80111a38:	01c18380 	lb	v1,-16127(a0)
80111a3c:	f808f808 	j	0x83e023e0
80111a40:	01c183c0 	lwc0	$3,-16127(a0)
80111a44:	fe3e0e00 	.word	0xe3efe
80111a48:	e020f010 	beq	a3,s0,0x80119dcc
80111a4c:	c7238380 	lb	v1,9159(a0)
80111a50:	e121ee0e 	jal	0x8bb88784
80111a54:	07438380 	lb	v1,17159(a0)
80111a58:	e820f008 	j	0x83c083a0
80111a5c:	46428380 	lb	v1,16966(a0)
80111a60:	ef17f101 	.word	0x1f117ef
80111a64:	7c4183c0 	lwc0	$3,16764(a0)
80111a68:	fe3e0e00 	.word	0xe3efe
80111a6c:	e919f810 	beq	a3,t8,0x80118214
80111a70:	05028381 	lb	v1,517(t4)
80111a74:	e41cf414 	bne	a3,s4,0x80118e08
80111a78:	36038381 	lb	v1,822(t4)
80111a7c:	e51df111 	beq	t7,s1,0x80119214
80111a80:	6e038380 	lb	v1,878(a0)
80111a84:	e020f111 	beq	t7,s1,0x80119e08
80111a88:	a7038380 	lb	v1,935(a0)
80111a8c:	e020f111 	beq	t7,s1,0x80119e10
80111a90:	07238380 	lb	v1,8967(a0)
80111a94:	e020f111 	beq	t7,s1,0x80119e18
80111a98:	47238380 	lb	v1,9031(a0)
80111a9c:	e020f010 	beq	a3,s0,0x80119e20
80111aa0:	872383c0 	lwc0	$3,9095(a0)
80111aa4:	fe3e0e00 	.word	0xe3efe
80111aa8:	e020f010 	beq	a3,s0,0x80119e2c
80111aac:	c7238300 	.word	0x8323c7
80111ab0:	e919f810 	beq	a3,t8,0x80118258
80111ab4:	05028381 	lb	v1,517(t4)
80111ab8:	e121ee0e 	jal	0x8bb88784
80111abc:	07438300 	.word	0x834307
80111ac0:	e41cf414 	bne	a3,s4,0x80118e54
80111ac4:	36038381 	lb	v1,822(t4)
80111ac8:	e820f008 	j	0x83c083a0
80111acc:	46428300 	.word	0x834246
80111ad0:	e51df111 	beq	t7,s1,0x80119268
80111ad4:	6e038380 	lb	v1,878(a0)
80111ad8:	ef17f101 	.word	0x1f117ef
80111adc:	7c418300 	.word	0x83417c
80111ae0:	e020f111 	beq	t7,s1,0x80119e64
80111ae4:	a7038380 	lb	v1,935(a0)
80111ae8:	e020f111 	beq	t7,s1,0x80119e6c
80111aec:	07238380 	lb	v1,8967(a0)
80111af0:	e020f111 	beq	t7,s1,0x80119e74
80111af4:	47238380 	lb	v1,9031(a0)
80111af8:	e020f010 	beq	a3,s0,0x80119e7c
80111afc:	87238380 	lb	v1,9095(a0)
80111b00:	e919f810 	beq	a3,t8,0x801182a8
80111b04:	05028301 	.word	0x1830205
80111b08:	e020f010 	beq	a3,s0,0x80119e8c
80111b0c:	c7238380 	lb	v1,9159(a0)
80111b10:	e41cf414 	bne	a3,s4,0x80118ea4
80111b14:	36038301 	.word	0x1830336
80111b18:	e121ee0e 	jal	0x8bb88784
80111b1c:	07438380 	lb	v1,17159(a0)
80111b20:	e51df111 	beq	t7,s1,0x801192b8
80111b24:	6e038300 	.word	0x83036e
80111b28:	e820f008 	j	0x83c083a0
80111b2c:	46428380 	lb	v1,16966(a0)
80111b30:	e020f111 	beq	t7,s1,0x80119eb4
80111b34:	a7038300 	.word	0x8303a7
80111b38:	ef17f101 	.word	0x1f117ef
80111b3c:	7c418380 	lb	v1,16764(a0)
80111b40:	e020f111 	beq	t7,s1,0x80119ec4
80111b44:	07238380 	lb	v1,8967(a0)
80111b48:	e020f111 	beq	t7,s1,0x80119ecc
80111b4c:	47238380 	lb	v1,9031(a0)
80111b50:	e020f010 	beq	a3,s0,0x80119ed4
80111b54:	872383c0 	lwc0	$3,9095(a0)
80111b58:	4057997f 	.word	0x7f995740
80111b5c:	5f573640 	.word	0x4036575f
80111b60:	40285f28 	slti	ra,v0,10304
80111b64:	373737e9 	swc2	$23,14135(t1)
80111b68:	373737e9 	swc2	$23,14135(t1)
80111b6c:	373737ce 	lwc3	$23,14135(s1)
80111b70:	373737ce 	lwc3	$23,14135(s1)
80111b74:	0ff1f9f9 	.word	0xf9f9f10f
80111b78:	0ff1f0f0 	.word	0xf0f0f10f
80111b7c:	4057997f 	.word	0x7f995740
80111b80:	40283640 	.word	0x40362840
80111b84:	5f575f28 	slti	ra,v0,22367
80111b88:	373737eb 	swc2	$23,14135(t9)
80111b8c:	373737d1 	.word	0xd1373737
80111b90:	373737eb 	swc2	$23,14135(t9)
80111b94:	373737d1 	.word	0xd1373737
80111b98:	0f0f0b17 	bne	t8,t3,0x801157d8
80111b9c:	f1f10b17 	bne	t8,t3,0x8010e364
80111ba0:	4057997f 	.word	0x7f995740
80111ba4:	40283640 	.word	0x40362840
80111ba8:	5f575f28 	slti	ra,v0,22367
80111bac:	373737f5 	.word	0xf5373737
80111bb0:	373737e0 	swc0	$23,14135(at)
80111bb4:	373737e7 	swc1	$f23,14135(t9)
80111bb8:	373737d2 	.word	0xd2373737
80111bbc:	1827fbfe 	.word	0xfefb2718
80111bc0:	02120b0e 	jal	0x882c4808
80111bc4:	4057997f 	.word	0x7f995740
80111bc8:	40283640 	.word	0x40362840
80111bcc:	5f575f28 	slti	ra,v0,22367
80111bd0:	373737e8 	swc2	$23,14135(at)
80111bd4:	373737d2 	.word	0xd2373737
80111bd8:	373737f5 	.word	0xf5373737
80111bdc:	373737e0 	swc0	$23,14135(at)
80111be0:	feee0b0d 	jal	0x842fbbf8
80111be4:	e8d8fbfd 	.word	0xfdfbd8e8
80111be8:	4057997f 	.word	0x7f995740
80111bec:	5f573640 	.word	0x4036575f
80111bf0:	40285f28 	slti	ra,v0,10304
80111bf4:	373737fc 	.word	0xfc373737
80111bf8:	373737e7 	swc1	$f23,14135(t9)
80111bfc:	373737eb 	swc2	$23,14135(t9)
80111c00:	373737d5 	.word	0xd5373737
80111c04:	1802f5f7 	.word	0xf7f50218
80111c08:	2712e7ea 	swc2	$7,4647(s7)
80111c0c:	4057997f 	.word	0x7f995740
80111c10:	5f573640 	.word	0x4036575f
80111c14:	40285f28 	slti	ra,v0,10304
80111c18:	373737e7 	swc1	$f23,14135(t9)
80111c1c:	373737fc 	.word	0xfc373737
80111c20:	373737d6 	.word	0xd6373737
80111c24:	373737ec 	swc3	$23,14135(at)
80111c28:	fee8f7f5 	.word	0xf5f7e8fe
80111c2c:	eed8eae7 	swc1	$f10,-10002(ra)
80111c30:	4057997f 	.word	0x7f995740
80111c34:	40283640 	.word	0x40362840
80111c38:	5f575f28 	slti	ra,v0,22367
80111c3c:	373737f4 	.word	0xf4373737
80111c40:	373737e3 	swc0	$23,14135(t9)
80111c44:	373737f2 	.word	0xf2373737
80111c48:	373737e1 	swc0	$23,14135(t1)
80111c4c:	e8d9fff1 	.word	0xf1ffd9e8
80111c50:	feeee9db 	.word	0xdbe9eefe
80111c54:	4057997f 	.word	0x7f995740
80111c58:	40283640 	.word	0x40362840
80111c5c:	5f575f28 	slti	ra,v0,22367
80111c60:	373737f2 	.word	0xf2373737
80111c64:	373737e1 	swc0	$23,14135(t1)
80111c68:	373737f4 	.word	0xf4373737
80111c6c:	373737e3 	swc0	$23,14135(t9)
80111c70:	0212e9dc 	.word	0xdce91202
80111c74:	1828fff1 	.word	0xf1ff2818
80111c78:	4057997f 	.word	0x7f995740
80111c7c:	40283640 	.word	0x40362840
80111c80:	5f575f28 	slti	ra,v0,22367
80111c84:	373737f5 	.word	0xf5373737
80111c88:	373737e6 	swc1	$f23,14135(s1)
80111c8c:	373737f5 	.word	0xf5373737
80111c90:	373737e6 	swc1	$f23,14135(s1)
80111c94:	f1f1ebd3 	.word	0xd3ebf1f1
80111c98:	0f0febd3 	.word	0xd3eb0f0f
80111c9c:	4057997f 	.word	0x7f995740
80111ca0:	40283640 	.word	0x40362840
80111ca4:	5f575f28 	slti	ra,v0,22367
80111ca8:	373737f7 	.word	0xf7373737
80111cac:	373737ea 	swc2	$23,14135(s1)
80111cb0:	373737f5 	.word	0xf5373737
80111cb4:	373737e7 	swc1	$f23,14135(t9)
80111cb8:	feee192a 	slti	t9,s0,-4354
80111cbc:	e8d80414 	bne	zero,a0,0x80108060
80111cc0:	4057997f 	.word	0x7f995740
80111cc4:	40283640 	.word	0x40362840
80111cc8:	5f575f28 	slti	ra,v0,22367
80111ccc:	373737f5 	.word	0xf5373737
80111cd0:	373737e7 	swc1	$f23,14135(t9)
80111cd4:	373737f7 	.word	0xf7373737
80111cd8:	373737ea 	swc2	$23,14135(s1)
80111cdc:	18270415 	bne	t0,a0,0x8011b940
80111ce0:	0212192b 	slti	t9,t8,4610
80111ce4:	4057997f 	.word	0x7f995740
80111ce8:	40283640 	.word	0x40362840
80111cec:	5f575f28 	slti	ra,v0,22367
80111cf0:	373737f5 	.word	0xf5373737
80111cf4:	373737e9 	swc2	$23,14135(t1)
80111cf8:	373737f9 	.word	0xf9373737
80111cfc:	373737ec 	swc3	$23,14135(at)
80111d00:	1630f2f4 	.word	0xf4f23016
80111d04:	16301011 	beq	t0,s0,0x8011dd60
80111d08:	4057997f 	.word	0x7f995740
80111d0c:	40283640 	.word	0x40362840
80111d10:	5f575f28 	slti	ra,v0,22367
80111d14:	373737f9 	.word	0xf9373737
80111d18:	373737ec 	swc3	$23,14135(at)
80111d1c:	373737f5 	.word	0xf5373737
80111d20:	373737e9 	swc2	$23,14135(t1)
80111d24:	ead01011 	beq	t0,s0,0x801060d0
80111d28:	ead0f2f4 	.word	0xf4f2d0ea
80111d2c:	4057997f 	.word	0x7f995740
80111d30:	40283640 	.word	0x40362840
80111d34:	5f575f28 	slti	ra,v0,22367
80111d38:	373737ef 	swc3	$23,14135(t9)
80111d3c:	373737e6 	swc1	$f23,14135(s1)
80111d40:	37373702 	.word	0x2373737
80111d44:	373737f9 	.word	0xf9373737
80111d48:	ead005ff 	.word	0xff05d0ea
80111d4c:	ead0eee7 	swc1	$f14,-12054(ra)
80111d50:	4057997f 	.word	0x7f995740
80111d54:	40283640 	.word	0x40362840
80111d58:	5f575f28 	slti	ra,v0,22367
80111d5c:	37373702 	.word	0x2373737
80111d60:	373737f9 	.word	0xf9373737
80111d64:	373737ef 	swc3	$23,14135(t9)
80111d68:	373737e6 	swc1	$f23,14135(s1)
80111d6c:	1630eee7 	swc1	$f14,12310(ra)
80111d70:	163005ff 	.word	0xff053016
80111d74:	4057997f 	.word	0x7f995740
80111d78:	40283640 	.word	0x40362840
80111d7c:	5f575f28 	slti	ra,v0,22367
80111d80:	373737f9 	.word	0xf9373737
80111d84:	373737f0 	.word	0xf0373737
80111d88:	373737f9 	.word	0xf9373737
80111d8c:	373737f0 	.word	0xf0373737
80111d90:	0f0f1732 	andi	s7,s0,0xf0f
80111d94:	f1f11732 	andi	s7,s0,0xf1f1
80111d98:	4057997f 	.word	0x7f995740
80111d9c:	40283640 	.word	0x40362840
80111da0:	5f575f28 	slti	ra,v0,22367
80111da4:	37373705 	.word	0x5373737
80111da8:	37373703 	.word	0x3373737
80111dac:	373737f9 	.word	0xf9373737
80111db0:	373737f7 	.word	0xf7373737
80111db4:	0212e6d0 	.word	0xd0e61202
80111db8:	1828f7e1 	swc0	$23,10264(t7)
80111dbc:	4057997f 	.word	0x7f995740
80111dc0:	40283640 	.word	0x40362840
80111dc4:	5f575f28 	slti	ra,v0,22367
80111dc8:	373737f9 	.word	0xf9373737
80111dcc:	373737f7 	.word	0xf7373737
80111dd0:	37373706 	.word	0x6373737
80111dd4:	37373704 	.word	0x4373737
80111dd8:	e8d9f7e1 	swc0	$23,-9752(t7)
80111ddc:	feeee6d0 	.word	0xd0e6eefe
80111de0:	4057997f 	.word	0x7f995740
80111de4:	40283640 	.word	0x40362840
80111de8:	5f575f28 	slti	ra,v0,22367
80111dec:	373737f0 	.word	0xf0373737
80111df0:	373737ef 	swc3	$23,14135(t9)
80111df4:	3737370e 	jal	0x88dcdcdc
80111df8:	3737370c 	jal	0x80dcdcdc
80111dfc:	ead0f9ec 	swc3	$25,-12054(a3)
80111e00:	ead0f5e9 	swc2	$21,-12054(t7)
80111e04:	4057997f 	.word	0x7f995740
80111e08:	40283640 	.word	0x40362840
80111e0c:	5f575f28 	slti	ra,v0,22367
80111e10:	3737370e 	jal	0x88dcdcdc
80111e14:	3737370c 	jal	0x80dcdcdc
80111e18:	373737f0 	.word	0xf0373737
80111e1c:	373737ef 	swc3	$23,14135(t9)
80111e20:	1630f5e9 	swc2	$21,12310(t7)
80111e24:	1630f9ec 	swc3	$25,12310(a3)
80111e28:	4057997f 	.word	0x7f995740
80111e2c:	40283640 	.word	0x40362840
80111e30:	5f575f28 	slti	ra,v0,22367
80111e34:	37373706 	.word	0x6373737
80111e38:	3737370d 	jal	0x84dcdcdc
80111e3c:	37373706 	.word	0x6373737
80111e40:	3737370d 	jal	0x84dcdcdc
80111e44:	f1f1e9cd 	lwc3	$9,-3599(t7)
80111e48:	0f0fe9cd 	lwc3	$9,3855(t7)
80111e4c:	4057997f 	.word	0x7f995740
80111e50:	40283640 	.word	0x40362840
80111e54:	5f575f28 	slti	ra,v0,22367
80111e58:	37373717 	bne	t9,s7,0x8011fb38
80111e5c:	37373724 	addiu	s7,at,14135
80111e60:	37373701 	.word	0x1373737
80111e64:	3737370f 	jal	0x8cdcdcdc
80111e68:	0212f2e1 	swc0	$18,4610(t7)
80111e6c:	1828f4e3 	swc0	$20,10264(ra)
80111e70:	4057997f 	.word	0x7f995740
80111e74:	40283640 	.word	0x40362840
80111e78:	5f575f28 	slti	ra,v0,22367
80111e7c:	37373701 	.word	0x1373737
80111e80:	3737370f 	jal	0x8cdcdcdc
80111e84:	37373717 	bne	t9,s7,0x8011fb64
80111e88:	37373725 	addiu	s7,t1,14135
80111e8c:	e8d9f4e3 	swc0	$20,-9752(ra)
80111e90:	feeef2e1 	swc0	$18,-4354(t7)
80111e94:	4057997f 	.word	0x7f995740
80111e98:	402836c0 	lwc0	$22,10304(at)
80111e9c:	5f575f28 	slti	ra,v0,22367
80111ea0:	37373715 	bne	t1,s7,0x8011fb80
80111ea4:	3737372d 	sltiu	s7,t1,14135
80111ea8:	37373715 	bne	t1,s7,0x8011fb88
80111eac:	3737372d 	sltiu	s7,t1,14135
80111eb0:	f1f1f5e6 	swc1	$f21,-3599(s7)
80111eb4:	0f0ff5e6 	swc1	$f21,3855(s7)
80111eb8:	5f57997f 	.word	0x7f99575f
80111ebc:	40573640 	.word	0x40365740
80111ec0:	5f284028 	slti	zero,v0,10335
80111ec4:	808080ee 	swc3	$0,-32640(s4)
80111ec8:	808080e5 	swc1	$f0,-32640(t4)
80111ecc:	808080d3 	.word	0xd3808080
80111ed0:	808080cb 	lwc2	$0,-32640(gp)
80111ed4:	11f6f4fe 	.word	0xfef4f611
80111ed8:	15fae9f4 	.word	0xf4e9fa15
80111edc:	4057997f 	.word	0x7f995740
80111ee0:	40283640 	.word	0x40362840
80111ee4:	5f575f28 	slti	ra,v0,22367
80111ee8:	808080eb 	swc2	$0,-32640(gp)
80111eec:	808080d1 	.word	0xd1808080
80111ef0:	808080eb 	swc2	$0,-32640(gp)
80111ef4:	808080d1 	.word	0xd1808080
80111ef8:	0f0f0b17 	bne	t8,t3,0x80115b38
80111efc:	f1f10b17 	bne	t8,t3,0x8010e6c4
80111f00:	5f57997f 	.word	0x7f99575f
80111f04:	40573640 	.word	0x40365740
80111f08:	5f284028 	slti	zero,v0,10335
80111f0c:	808080e7 	swc1	$f0,-32640(gp)
80111f10:	808080f5 	.word	0xf5808080
80111f14:	808080d2 	.word	0xd2808080
80111f18:	808080e0 	swc0	c0_index,-32640(a0)
80111f1c:	01e7f7fd 	.word	0xfdf7e701
80111f20:	f4d9eff5 	.word	0xf5efd9f4
80111f24:	4057997f 	.word	0x7f995740
80111f28:	40283640 	.word	0x40362840
80111f2c:	5f575f28 	slti	ra,v0,22367
80111f30:	808080f5 	.word	0xf5808080
80111f34:	808080e0 	swc0	c0_index,-32640(a0)
80111f38:	808080e7 	swc1	$f0,-32640(gp)
80111f3c:	808080d2 	.word	0xd2808080
80111f40:	1827fbfe 	.word	0xfefb2718
80111f44:	02120b0e 	jal	0x882c4808
80111f48:	4057997f 	.word	0x7f995740
80111f4c:	40283640 	.word	0x40362840
80111f50:	5f575f28 	slti	ra,v0,22367
80111f54:	808080e8 	swc2	$0,-32640(a0)
80111f58:	808080d2 	.word	0xd2808080
80111f5c:	808080f5 	.word	0xf5808080
80111f60:	808080e0 	swc0	c0_index,-32640(a0)
80111f64:	feee0b0d 	jal	0x842fbbf8
80111f68:	e8d8fbfd 	.word	0xfdfbd8e8
80111f6c:	4057997f 	.word	0x7f995740
80111f70:	40283640 	.word	0x40362840
80111f74:	5f575f28 	slti	ra,v0,22367
80111f78:	808080ee 	swc3	$0,-32640(s4)
80111f7c:	808080d9 	.word	0xd9808080
80111f80:	808080f1 	.word	0xf1808080
80111f84:	808080dc 	.word	0xdc808080
80111f88:	eddf06fe 	.word	0xfe06dfed
80111f8c:	faecebe2 	swc0	$11,-4870(s7)
80111f90:	4057997f 	.word	0x7f995740
80111f94:	40283640 	.word	0x40362840
80111f98:	5f575f28 	slti	ra,v0,22367
80111f9c:	808080f4 	.word	0xf4808080
80111fa0:	808080e1 	swc0	c0_index,-32640(t4)
80111fa4:	808080ef 	swc3	$0,-32640(gp)
80111fa8:	808080dd 	.word	0xdd808080
80111fac:	f3e0161f 	.word	0x1f16e0f3
80111fb0:	ead7fa02 	.word	0x2fad7ea
80111fb4:	4057997f 	.word	0x7f995740
80111fb8:	40283640 	.word	0x40362840
80111fbc:	5f575f28 	slti	ra,v0,22367
80111fc0:	808080f8 	.word	0xf8808080
80111fc4:	808080e8 	swc2	$0,-32640(a0)
80111fc8:	808080ef 	swc3	$0,-32640(gp)
80111fcc:	808080de 	.word	0xde808080
80111fd0:	0803182d 	sltiu	t8,t0,776
80111fd4:	eee90b1f 	.word	0x1f0be9ee
80111fd8:	4057997f 	.word	0x7f995740
80111fdc:	40283640 	.word	0x40362840
80111fe0:	5f575f28 	slti	ra,v0,22367
80111fe4:	808080f0 	.word	0xf0808080
80111fe8:	808080e0 	swc0	c0_index,-32640(a0)
80111fec:	808080f8 	.word	0xf8808080
80111ff0:	808080e9 	swc2	$0,-32640(t4)
80111ff4:	efebf1d9 	.word	0xd9f1ebef
80111ff8:	0a06e7cf 	lwc3	$7,1546(ra)
80111ffc:	4057997f 	.word	0x7f995740
80112000:	40283640 	.word	0x40362840
80112004:	5f575f28 	slti	ra,v0,22367
80112008:	80808002 	.word	0x2808080
8011200c:	808080e8 	swc2	$0,-32640(a0)
80112010:	808080f6 	.word	0xf6808080
80112014:	808080db 	.word	0xdb808080
80112018:	1306edf6 	.word	0xf6ed0613
8011201c:	2114dbe3 	swc0	$27,5153(s8)
80112020:	4057997f 	.word	0x7f995740
80112024:	40283640 	.word	0x40362840
80112028:	5f575f28 	slti	ra,v0,22367
8011202c:	808080f2 	.word	0xf2808080
80112030:	808080e5 	swc1	$f0,-32640(t4)
80112034:	808080fb 	.word	0xfb808080
80112038:	808080ef 	swc3	$0,-32640(gp)
8011203c:	ff0ce9d6 	.word	0xd6e90cff
80112040:	1927f6e4 	swc1	$f22,10009(a3)
80112044:	4057997f 	.word	0x7f995740
80112048:	40283640 	.word	0x40362840
8011204c:	5f575f28 	slti	ra,v0,22367
80112050:	808080ef 	swc3	$0,-32640(gp)
80112054:	808080e6 	swc1	$f0,-32640(s4)
80112058:	80808002 	.word	0x2808080
8011205c:	808080f9 	.word	0xf9808080
80112060:	ead005ff 	.word	0xff05d0ea
80112064:	ead0eee7 	swc1	$f14,-12054(ra)
80112068:	4057997f 	.word	0x7f995740
8011206c:	40283640 	.word	0x40362840
80112070:	5f575f28 	slti	ra,v0,22367
80112074:	80808002 	.word	0x2808080
80112078:	808080f9 	.word	0xf9808080
8011207c:	808080ef 	swc3	$0,-32640(gp)
80112080:	808080e6 	swc1	$f0,-32640(s4)
80112084:	1630eee7 	swc1	$f14,12310(ra)
80112088:	163005ff 	.word	0xff053016
8011208c:	4057997f 	.word	0x7f995740
80112090:	40283640 	.word	0x40362840
80112094:	5f575f28 	slti	ra,v0,22367
80112098:	808080ea 	swc2	$0,-32640(s4)
8011209c:	808080e2 	swc0	c0_index,-32640(s4)
801120a0:	80808007 	bltz	gp,0x800f22a4
801120a4:	808080ff 	.word	0xff808080
801120a8:	eed300fd 	.word	0xfd00d3ee
801120ac:	e5cafefb 	.word	0xfbfecae5
801120b0:	4057997f 	.word	0x7f995740
801120b4:	40283640 	.word	0x40362840
801120b8:	5f575f28 	slti	ra,v0,22367
801120bc:	808080fc 	.word	0xfc808080
801120c0:	808080f4 	.word	0xf4808080
801120c4:	808080f9 	.word	0xf9808080
801120c8:	808080f1 	.word	0xf1808080
801120cc:	1a31fc05 	.word	0x5fc311a
801120d0:	0d241721 	addi	s7,t0,9229
801120d4:	4057997f 	.word	0x7f995740
801120d8:	40283640 	.word	0x40362840
801120dc:	5f575f28 	slti	ra,v0,22367
801120e0:	808080ff 	.word	0xff808080
801120e4:	808080f7 	.word	0xf7808080
801120e8:	808080f7 	.word	0xf7808080
801120ec:	808080ef 	swc3	$0,-32640(gp)
801120f0:	17221029 	slti	s0,t0,8727
801120f4:	fc061a33 	andi	k0,t8,0x6fc
801120f8:	4057997f 	.word	0x7f995740
801120fc:	40283640 	.word	0x40362840
80112100:	5f575f28 	slti	ra,v0,22367
80112104:	808080fb 	.word	0xfb808080
80112108:	808080f6 	.word	0xf6808080
8011210c:	80808000 	.word	0x808080
80112110:	808080fb 	.word	0xfb808080
80112114:	122debe3 	swc0	$11,11538(ra)
80112118:	1b360700 	.word	0x7361b
8011211c:	4057997f 	.word	0x7f995740
80112120:	40283640 	.word	0x40362840
80112124:	5f575f28 	slti	ra,v0,22367
80112128:	80808005 	bltz	t4,0x800f232c
8011212c:	80808003 	.word	0x3808080
80112130:	808080f9 	.word	0xf9808080
80112134:	808080f7 	.word	0xf7808080
80112138:	0212e6d0 	.word	0xd0e61202
8011213c:	1828f7e1 	swc0	$23,10264(t7)
80112140:	4057997f 	.word	0x7f995740
80112144:	40283640 	.word	0x40362840
80112148:	5f575f28 	slti	ra,v0,22367
8011214c:	808080f9 	.word	0xf9808080
80112150:	808080f7 	.word	0xf7808080
80112154:	80808006 	bltz	s4,0x800f2358
80112158:	80808004 	bltz	a0,0x800f235c
8011215c:	e8d9f7e1 	swc0	$23,-9752(t7)
80112160:	feeee6d0 	.word	0xd0e6eefe
80112164:	4057997f 	.word	0x7f995740
80112168:	40283640 	.word	0x40362840
8011216c:	5f575f28 	slti	ra,v0,22367
80112170:	80808013 	beqz	gp,0x800f2374
80112174:	80808018 	blez	a0,0x800f2378
80112178:	808080f6 	.word	0xf6808080
8011217c:	808080fb 	.word	0xfb808080
80112180:	0d20efdb 	.word	0xdbef200d
80112184:	1629f1dd 	.word	0xddf12916
80112188:	4057997f 	.word	0x7f995740
8011218c:	40283640 	.word	0x40362840
80112190:	5f575f28 	slti	ra,v0,22367
80112194:	80808006 	bltz	s4,0x800f2398
80112198:	8080800d 	jal	0x86020200
8011219c:	80808006 	bltz	s4,0x800f23a0
801121a0:	8080800d 	jal	0x86020200
801121a4:	f1f1e9cd 	lwc3	$9,-3599(t7)
801121a8:	0f0fe9cd 	lwc3	$9,3855(t7)
801121ac:	4057997f 	.word	0x7f995740
801121b0:	40283640 	.word	0x40362840
801121b4:	5f575f28 	slti	ra,v0,22367
801121b8:	808080fb 	.word	0xfb808080
801121bc:	80808002 	.word	0x2808080
801121c0:	80808015 	bnez	t4,0x800f23c4
801121c4:	8080801d 	bgtz	t4,0x800f23c8
801121c8:	e6cffdf3 	.word	0xf3fdcfe6
801121cc:	f3dcf5eb 	swc2	$21,-8973(ra)
801121d0:	4057997f 	.word	0x7f995740
801121d4:	40283640 	.word	0x40362840
801121d8:	5f575f28 	slti	ra,v0,22367
801121dc:	80808016 	bnez	s4,0x800f23e0
801121e0:	80808026 	addiu	zero,s4,-32640
801121e4:	80808007 	bltz	gp,0x800f23e8
801121e8:	80808017 	bnez	gp,0x800f23ec
801121ec:	f8fdf3df 	.word	0xdff3fdf8
801121f0:	1217edd8 	.word	0xd8ed1712
801121f4:	4057997f 	.word	0x7f995740
801121f8:	402836c0 	lwc0	$22,10304(at)
801121fc:	5f575f28 	slti	ra,v0,22367
80112200:	80808010 	beqz	a0,0x800f2404
80112204:	80808026 	addiu	zero,s4,-32640
80112208:	80808018 	blez	a0,0x800f240c
8011220c:	8080802e 	sltiu	zero,s4,-32640
80112210:	e9defbee 	swc3	$27,-8471(s7)
80112214:	04faf1e4 	swc1	$f17,-1532(a3)
80112218:	5f57597f 	.word	0x7f59575f
8011221c:	40573640 	.word	0x40365740
80112220:	5f284028 	slti	zero,v0,10335
80112224:	808080f1 	.word	0xf1808080
80112228:	808080e8 	swc2	$0,-32640(a0)
8011222c:	808080d6 	.word	0xd6808080
80112230:	808080cd 	lwc3	$0,-32640(t4)
80112234:	11f6f5ff 	.word	0xfff5f611
80112238:	15faeaf5 	.word	0xf5eafa15
8011223c:	4057597f 	.word	0x7f595740
80112240:	40283640 	.word	0x40362840
80112244:	5f575f28 	slti	ra,v0,22367
80112248:	808080ee 	swc3	$0,-32640(s4)
8011224c:	808080d3 	.word	0xd3808080
80112250:	808080ee 	swc3	$0,-32640(s4)
80112254:	808080d3 	.word	0xd3808080
80112258:	0f0f0a16 	bne	s0,t2,0x80115e98
8011225c:	f1f10a16 	bne	s0,t2,0x8010ea24
80112260:	5f57597f 	.word	0x7f59575f
80112264:	40573640 	.word	0x40365740
80112268:	5f284028 	slti	zero,v0,10335
8011226c:	808080e9 	swc2	$0,-32640(t4)
80112270:	808080f8 	.word	0xf8808080
80112274:	808080d3 	.word	0xd3808080
80112278:	808080e2 	swc0	c0_index,-32640(s4)
8011227c:	03e8f8fe 	.word	0xfef8e803
80112280:	f5daf0f6 	.word	0xf6f0daf5
80112284:	4057597f 	.word	0x7f595740
80112288:	40283640 	.word	0x40362840
8011228c:	5f575f28 	slti	ra,v0,22367
80112290:	808080f8 	.word	0xf8808080
80112294:	808080e2 	swc0	c0_index,-32640(s4)
80112298:	808080ea 	swc2	$0,-32640(s4)
8011229c:	808080d3 	.word	0xd3808080
801122a0:	1726fbfd 	.word	0xfdfb2617
801122a4:	00100b0e 	jal	0x882c4000
801122a8:	4057597f 	.word	0x7f595740
801122ac:	40283640 	.word	0x40362840
801122b0:	5f575f28 	slti	ra,v0,22367
801122b4:	808080ea 	swc2	$0,-32640(s4)
801122b8:	808080d4 	.word	0xd4808080
801122bc:	808080f8 	.word	0xf8808080
801122c0:	808080e2 	swc0	c0_index,-32640(s4)
801122c4:	00f00b0d 	jal	0x842fc000
801122c8:	e9d9fbfd 	.word	0xfdfbd9e9
801122cc:	4057597f 	.word	0x7f595740
801122d0:	40283640 	.word	0x40362840
801122d4:	5f575f28 	slti	ra,v0,22367
801122d8:	808080f0 	.word	0xf0808080
801122dc:	808080db 	.word	0xdb808080
801122e0:	808080f3 	.word	0xf3808080
801122e4:	808080dd 	.word	0xdd808080
801122e8:	eee007ff 	.word	0xff07e0ee
801122ec:	fcedebe2 	swc0	$11,-4612(s7)
801122f0:	4057597f 	.word	0x7f595740
801122f4:	40283640 	.word	0x40362840
801122f8:	5f575f28 	slti	ra,v0,22367
801122fc:	808080f6 	.word	0xf6808080
80112300:	808080e3 	swc0	c0_index,-32640(gp)
80112304:	808080f1 	.word	0xf1808080
80112308:	808080de 	.word	0xde808080
8011230c:	f6e2151f 	.word	0x1f15e2f6
80112310:	ecd8f901 	.word	0x1f9d8ec
80112314:	4057597f 	.word	0x7f595740
80112318:	40283640 	.word	0x40362840
8011231c:	5f575f28 	slti	ra,v0,22367
80112320:	808080fa 	.word	0xfa808080
80112324:	808080e9 	swc2	$0,-32640(t4)
80112328:	808080f0 	.word	0xf0808080
8011232c:	808080e0 	swc0	c0_index,-32640(a0)
80112330:	0904162b 	slti	s6,t8,1033
80112334:	efe9081e 	.word	0x1e08e9ef
80112338:	4057597f 	.word	0x7f595740
8011233c:	40283640 	.word	0x40362840
80112340:	5f575f28 	slti	ra,v0,22367
80112344:	808080f2 	.word	0xf2808080
80112348:	808080e2 	swc0	c0_index,-32640(s4)
8011234c:	808080fa 	.word	0xfa808080
80112350:	808080ea 	swc2	$0,-32640(s4)
80112354:	efebf3db 	.word	0xdbf3ebef
80112358:	0a06e9d1 	.word	0xd1e9060a
8011235c:	5f57597f 	.word	0x7f59575f
80112360:	40573640 	.word	0x40365740
80112364:	5f284028 	slti	zero,v0,10335
80112368:	80808003 	.word	0x3808080
8011236c:	808080e9 	swc2	$0,-32640(t4)
80112370:	808080f7 	.word	0xf7808080
80112374:	808080db 	.word	0xdb808080
80112378:	1204eff8 	.word	0xf8ef0412
8011237c:	2013dce5 	swc1	$f28,4896(t6)
80112380:	4057597f 	.word	0x7f595740
80112384:	40283640 	.word	0x40362840
80112388:	5f575f28 	slti	ra,v0,22367
8011238c:	808080f3 	.word	0xf3808080
80112390:	808080e6 	swc1	$f0,-32640(s4)
80112394:	808080fd 	.word	0xfd808080
80112398:	808080f0 	.word	0xf0808080
8011239c:	fd0bebd8 	.word	0xd8eb0bfd
801123a0:	1826f9e5 	swc1	$f25,9752(t7)
801123a4:	4057597f 	.word	0x7f595740
801123a8:	40283640 	.word	0x40362840
801123ac:	5f575f28 	slti	ra,v0,22367
801123b0:	808080f0 	.word	0xf0808080
801123b4:	808080e6 	swc1	$f0,-32640(s4)
801123b8:	80808003 	.word	0x3808080
801123bc:	808080fa 	.word	0xfa808080
801123c0:	edd20700 	.word	0x7d2ed
801123c4:	edd2efe7 	swc1	$f15,-11539(ra)
801123c8:	4057597f 	.word	0x7f595740
801123cc:	40283640 	.word	0x40362840
801123d0:	5f575f28 	slti	ra,v0,22367
801123d4:	80808003 	.word	0x3808080
801123d8:	808080fa 	.word	0xfa808080
801123dc:	808080f0 	.word	0xf0808080
801123e0:	808080e6 	swc1	$f0,-32640(s4)
801123e4:	132eefe7 	swc1	$f15,11795(ra)
801123e8:	132e0700 	.word	0x72e13
801123ec:	4057597f 	.word	0x7f595740
801123f0:	40283640 	.word	0x40362840
801123f4:	5f575f28 	slti	ra,v0,22367
801123f8:	808080eb 	swc2	$0,-32640(gp)
801123fc:	808080e2 	swc0	c0_index,-32640(s4)
80112400:	80808008 	j	0x82020200
80112404:	80808000 	.word	0x808080
80112408:	f1d500fd 	.word	0xfd00d5f1
8011240c:	e7ccfefb 	.word	0xfbfecce7
80112410:	4057597f 	.word	0x7f595740
80112414:	40283640 	.word	0x40362840
80112418:	5f575f28 	slti	ra,v0,22367
8011241c:	808080fd 	.word	0xfd808080
80112420:	808080f5 	.word	0xf5808080
80112424:	808080fa 	.word	0xfa808080
80112428:	808080f2 	.word	0xf2808080
8011242c:	1830fa04 	.word	0x4fa3018
80112430:	0a221621 	addi	s6,t0,8714
80112434:	4057597f 	.word	0x7f595740
80112438:	40283640 	.word	0x40362840
8011243c:	5f575f28 	slti	ra,v0,22367
80112440:	80808000 	.word	0x808080
80112444:	808080f8 	.word	0xf8808080
80112448:	808080f7 	.word	0xf7808080
8011244c:	808080ef 	swc3	$0,-32640(gp)
80112450:	16220d27 	addiu	t5,t8,8726
80112454:	fb051831 	andi	t8,t0,0x5fb
80112458:	4057597f 	.word	0x7f595740
8011245c:	40283640 	.word	0x40362840
80112460:	5f575f28 	slti	ra,v0,22367
80112464:	808080fc 	.word	0xfc808080
80112468:	808080f7 	.word	0xf7808080
8011246c:	80808000 	.word	0x808080
80112470:	808080fb 	.word	0xfb808080
80112474:	0f2bebe4 	swc1	$f11,11023(a3)
80112478:	19340800 	.word	0x83419
8011247c:	4057597f 	.word	0x7f595740
80112480:	40283640 	.word	0x40362840
80112484:	5f575f28 	slti	ra,v0,22367
80112488:	80808006 	bltz	s4,0x800f268c
8011248c:	80808004 	bltz	a0,0x800f2690
80112490:	808080f9 	.word	0xf9808080
80112494:	808080f7 	.word	0xf7808080
80112498:	0010e8d2 	.word	0xd2e81000
8011249c:	1727f9e3 	swc0	$25,10007(ra)
801124a0:	4057597f 	.word	0x7f595740
801124a4:	40283640 	.word	0x40362840
801124a8:	5f575f28 	slti	ra,v0,22367
801124ac:	808080f9 	.word	0xf9808080
801124b0:	808080f7 	.word	0xf7808080
801124b4:	80808006 	bltz	s4,0x800f26b8
801124b8:	80808004 	bltz	a0,0x800f26bc
801124bc:	e9daf9e3 	swc0	$25,-9495(ra)
801124c0:	00f0e8d1 	.word	0xd1e8f000
801124c4:	4057597f 	.word	0x7f595740
801124c8:	40283640 	.word	0x40362840
801124cc:	5f575f28 	slti	ra,v0,22367
801124d0:	80808013 	beqz	gp,0x800f26d4
801124d4:	80808018 	blez	a0,0x800f26d8
801124d8:	808080f5 	.word	0xf5808080
801124dc:	808080fb 	.word	0xfb808080
801124e0:	0a1ef1dd 	.word	0xddf11e0a
801124e4:	1428f3df 	.word	0xdff32814
801124e8:	4057597f 	.word	0x7f595740
801124ec:	40283640 	.word	0x40362840
801124f0:	5f575f28 	slti	ra,v0,22367
801124f4:	80808006 	bltz	s4,0x800f26f8
801124f8:	8080800c 	jal	0x82020200
801124fc:	80808006 	bltz	s4,0x800f2700
80112500:	8080800c 	jal	0x82020200
80112504:	f1f1eccf 	lwc3	$12,-3599(ra)
80112508:	0f0feccf 	lwc3	$12,3855(ra)
8011250c:	4057597f 	.word	0x7f595740
80112510:	40283640 	.word	0x40362840
80112514:	5f575f28 	slti	ra,v0,22367
80112518:	808080fa 	.word	0xfa808080
8011251c:	80808001 	.word	0x1808080
80112520:	80808014 	bnez	a0,0x800f2724
80112524:	8080801d 	bgtz	t4,0x800f2728
80112528:	e8d0fef4 	.word	0xf4fed0e8
8011252c:	f6def6eb 	swc2	$22,-8458(ra)
80112530:	4057597f 	.word	0x7f595740
80112534:	40283640 	.word	0x40362840
80112538:	5f575f28 	slti	ra,v0,22367
8011253c:	80808014 	bnez	a0,0x800f2740
80112540:	80808025 	addiu	zero,t4,-32640
80112544:	80808005 	bltz	t4,0x800f2748
80112548:	80808016 	bnez	s4,0x800f274c
8011254c:	f7fcf5e0 	swc0	$21,-777(a3)
80112550:	1117efda 	.word	0xdaef1711
80112554:	4057597f 	.word	0x7f595740
80112558:	402836c0 	lwc0	$22,10304(at)
8011255c:	5f575f28 	slti	ra,v0,22367
80112560:	8080800d 	jal	0x86020200
80112564:	80808024 	addiu	zero,a0,-32640
80112568:	80808015 	bnez	t4,0x800f276c
8011256c:	8080802d 	sltiu	zero,t4,-32640
80112570:	eadefdf0 	.word	0xf0fddeea
80112574:	05fbf2e5 	swc1	$f18,-1275(t7)
80112578:	5f57197f 	.word	0x7f19575f
8011257c:	40573640 	.word	0x40365740
80112580:	5f284028 	slti	zero,v0,10335
80112584:	808080f7 	.word	0xf7808080
80112588:	808080ee 	swc3	$0,-32640(s4)
8011258c:	808080da 	.word	0xda808080
80112590:	808080d1 	.word	0xd1808080
80112594:	11f4f701 	.word	0x1f7f411
80112598:	16f8ebf7 	.word	0xf7ebf816
8011259c:	4057197f 	.word	0x7f195740
801125a0:	40283640 	.word	0x40362840
801125a4:	5f575f28 	slti	ra,v0,22367
801125a8:	808080f3 	.word	0xf3808080
801125ac:	808080d7 	.word	0xd7808080
801125b0:	808080f3 	.word	0xf3808080
801125b4:	808080d7 	.word	0xd7808080
801125b8:	10100714 	bne	zero,a3,0x801165fc
801125bc:	f0f00714 	bne	zero,a3,0x8010e980
801125c0:	5f57197f 	.word	0x7f19575f
801125c4:	40573640 	.word	0x40365740
801125c8:	5f284028 	slti	zero,v0,10335
801125cc:	808080ed 	swc3	$0,-32640(t4)
801125d0:	808080fd 	.word	0xfd808080
801125d4:	808080d6 	.word	0xd6808080
801125d8:	808080e6 	swc1	$f0,-32640(s4)
801125dc:	07ebfa00 	.word	0xfaeb07
801125e0:	f8dbf1f7 	.word	0xf7f1dbf8
801125e4:	4057197f 	.word	0x7f195740
801125e8:	40283640 	.word	0x40362840
801125ec:	5f575f28 	slti	ra,v0,22367
801125f0:	808080fd 	.word	0xfd808080
801125f4:	808080e6 	swc1	$f0,-32640(s4)
801125f8:	808080ee 	swc3	$0,-32640(s4)
801125fc:	808080d6 	.word	0xd6808080
80112600:	1425f9fc 	.word	0xfcf92514
80112604:	fd0d0b0e 	jal	0x882c37f4
80112608:	4057197f 	.word	0x7f195740
8011260c:	40283640 	.word	0x40362840
80112610:	5f575f28 	slti	ra,v0,22367
80112614:	808080ee 	swc3	$0,-32640(s4)
80112618:	808080d7 	.word	0xd7808080
8011261c:	808080fd 	.word	0xfd808080
80112620:	808080e6 	swc1	$f0,-32640(s4)
80112624:	03f30b0e 	jal	0x882fcc0c
80112628:	ecdbf9fc 	.word	0xfcf9dbec
8011262c:	4057197f 	.word	0x7f195740
80112630:	40283640 	.word	0x40362840
80112634:	5f575f28 	slti	ra,v0,22367
80112638:	808080f5 	.word	0xf5808080
8011263c:	808080de 	.word	0xde808080
80112640:	808080f8 	.word	0xf8808080
80112644:	808080e1 	swc0	c0_index,-32640(t4)
80112648:	f1e20a00 	.word	0xae2f1
8011264c:	00f0ece3 	swc0	c0_sr,-4096(ra)
80112650:	4057197f 	.word	0x7f195740
80112654:	40283640 	.word	0x40362840
80112658:	5f575f28 	slti	ra,v0,22367
8011265c:	808080fa 	.word	0xfa808080
80112660:	808080e6 	swc1	$f0,-32640(s4)
80112664:	808080f5 	.word	0xf5808080
80112668:	808080e1 	swc0	c0_index,-32640(t4)
8011266c:	fae5141e 	.word	0x1e14e5fa
80112670:	f0dbf5ff 	.word	0xfff5dbf0
80112674:	4057197f 	.word	0x7f195740
80112678:	40283640 	.word	0x40362840
8011267c:	5f575f28 	slti	ra,v0,22367
80112680:	808080fe 	.word	0xfe808080
80112684:	808080ec 	swc3	$0,-32640(a0)
80112688:	808080f4 	.word	0xf4808080
8011268c:	808080e2 	swc0	c0_index,-32640(s4)
80112690:	0b051228 	slti	s2,zero,1291
80112694:	efe9031a 	.word	0x1a03e9ef
80112698:	4057197f 	.word	0x7f195740
8011269c:	40283640 	.word	0x40362840
801126a0:	5f575f28 	slti	ra,v0,22367
801126a4:	808080f5 	.word	0xf5808080
801126a8:	808080e4 	swc1	$f0,-32640(a0)
801126ac:	808080fe 	.word	0xfe808080
801126b0:	808080ed 	swc3	$0,-32640(t4)
801126b4:	efeaf9df 	.word	0xdff9eaef
801126b8:	0c08eed4 	.word	0xd4ee080c
801126bc:	5f57197f 	.word	0x7f19575f
801126c0:	40573640 	.word	0x40365740
801126c4:	5f284028 	slti	zero,v0,10335
801126c8:	80808007 	bltz	gp,0x800f28cc
801126cc:	808080eb 	swc2	$0,-32640(gp)
801126d0:	808080fa 	.word	0xfa808080
801126d4:	808080dd 	.word	0xdd808080
801126d8:	0f00f3fc 	.word	0xfcf3000f
801126dc:	1e10dfe8 	swc2	$31,4126(a2)
801126e0:	4057197f 	.word	0x7f195740
801126e4:	40283640 	.word	0x40362840
801126e8:	5f575f28 	slti	ra,v0,22367
801126ec:	808080f6 	.word	0xf6808080
801126f0:	808080e8 	swc2	$0,-32640(a0)
801126f4:	80808000 	.word	0x808080
801126f8:	808080f2 	.word	0xf2808080
801126fc:	f908efda 	.word	0xdaef08f9
80112700:	1525fde9 	swc2	$29,9493(t7)
80112704:	4057197f 	.word	0x7f195740
80112708:	40283640 	.word	0x40362840
8011270c:	5f575f28 	slti	ra,v0,22367
80112710:	808080f2 	.word	0xf2808080
80112714:	808080e7 	swc1	$f0,-32640(gp)
80112718:	80808006 	bltz	s4,0x800f291c
8011271c:	808080fc 	.word	0xfc808080
80112720:	f2d60901 	.word	0x109d6f2
80112724:	f2d6f0e8 	swc2	$16,-10510(a3)
80112728:	4057197f 	.word	0x7f195740
8011272c:	40283640 	.word	0x40362840
80112730:	5f575f28 	slti	ra,v0,22367
80112734:	80808006 	bltz	s4,0x800f2938
80112738:	808080fc 	.word	0xfc808080
8011273c:	808080f2 	.word	0xf2808080
80112740:	808080e7 	swc1	$f0,-32640(gp)
80112744:	0e2af0e8 	swc2	$16,10766(a3)
80112748:	0e2a0901 	.word	0x1092a0e
8011274c:	4057197f 	.word	0x7f195740
80112750:	40283640 	.word	0x40362840
80112754:	5f575f28 	slti	ra,v0,22367
80112758:	808080ec 	swc3	$0,-32640(a0)
8011275c:	808080e2 	swc0	c0_index,-32640(s4)
80112760:	8080800b 	j	0x8e020200
80112764:	80808002 	.word	0x2808080
80112768:	f7da00fe 	.word	0xfe00daf7
8011276c:	edd0fffc 	.word	0xfcffd0ed
80112770:	4057197f 	.word	0x7f195740
80112774:	40283640 	.word	0x40362840
80112778:	5f575f28 	slti	ra,v0,22367
8011277c:	808080ff 	.word	0xff808080
80112780:	808080f6 	.word	0xf6808080
80112784:	808080fc 	.word	0xfc808080
80112788:	808080f3 	.word	0xf3808080
8011278c:	132cf701 	.word	0x1f72c13
80112790:	051e1520 	addi	s5,zero,7685
80112794:	4057197f 	.word	0x7f195740
80112798:	40283640 	.word	0x40362840
8011279c:	5f575f28 	slti	ra,v0,22367
801127a0:	80808001 	.word	0x1808080
801127a4:	808080f9 	.word	0xf9808080
801127a8:	808080f9 	.word	0xf9808080
801127ac:	808080f0 	.word	0xf0808080
801127b0:	15210823 	addi	t0,t8,8469
801127b4:	f702132e 	sltiu	s3,s0,759
801127b8:	4057197f 	.word	0x7f195740
801127bc:	40283640 	.word	0x40362840
801127c0:	5f575f28 	slti	ra,v0,22367
801127c4:	808080fd 	.word	0xfd808080
801127c8:	808080f7 	.word	0xf7808080
801127cc:	80808001 	.word	0x1808080
801127d0:	808080fc 	.word	0xfc808080
801127d4:	0926ece4 	swc1	$f12,9737(a3)
801127d8:	13300b03 	.word	0x30b3013
801127dc:	4057197f 	.word	0x7f195740
801127e0:	40283640 	.word	0x40362840
801127e4:	5f575f28 	slti	ra,v0,22367
801127e8:	80808007 	bltz	gp,0x800f29ec
801127ec:	80808005 	bltz	t4,0x800f29f0
801127f0:	808080f9 	.word	0xf9808080
801127f4:	808080f7 	.word	0xf7808080
801127f8:	fd0decd5 	.word	0xd5ec0dfd
801127fc:	1425ffe7 	swc1	$f31,9492(ra)
80112800:	4057197f 	.word	0x7f195740
80112804:	40283640 	.word	0x40362840
80112808:	5f575f28 	slti	ra,v0,22367
8011280c:	808080f9 	.word	0xf9808080
80112810:	808080f7 	.word	0xf7808080
80112814:	80808007 	bltz	gp,0x800f2a18
80112818:	80808005 	bltz	t4,0x800f2a1c
8011281c:	ecdbffe7 	swc1	$f31,-9236(ra)
80112820:	03f3ecd4 	.word	0xd4ecf303
80112824:	4057197f 	.word	0x7f195740
80112828:	40283640 	.word	0x40362840
8011282c:	5f575f28 	slti	ra,v0,22367
80112830:	80808013 	beqz	gp,0x800f2a34
80112834:	80808018 	blez	a0,0x800f2a38
80112838:	808080f3 	.word	0xf3808080
8011283c:	808080f9 	.word	0xf9808080
80112840:	061bf6e0 	swc0	$22,6918(a3)
80112844:	1025f8e2 	swc0	$24,9488(s7)
80112848:	4057197f 	.word	0x7f195740
8011284c:	40283640 	.word	0x40362840
80112850:	5f575f28 	slti	ra,v0,22367
80112854:	80808004 	bltz	a0,0x800f2a58
80112858:	8080800b 	j	0x8e020200
8011285c:	80808004 	bltz	a0,0x800f2a60
80112860:	8080800b 	j	0x8e020200
80112864:	f0f0f2d4 	.word	0xd4f2f0f0
80112868:	1010f2d4 	.word	0xd4f21010
8011286c:	4057197f 	.word	0x7f195740
80112870:	40283640 	.word	0x40362840
80112874:	5f575f28 	slti	ra,v0,22367
80112878:	808080f7 	.word	0xf7808080
8011287c:	80808000 	.word	0x808080
80112880:	80808013 	beqz	gp,0x800f2a84
80112884:	8080801c 	bgtz	a0,0x800f2a88
80112888:	edd400f6 	.word	0xf600d4ed
8011288c:	fbe2f8ed 	swc3	$24,-7429(t7)
80112890:	4057197f 	.word	0x7f195740
80112894:	40283640 	.word	0x40362840
80112898:	5f575f28 	slti	ra,v0,22367
8011289c:	80808011 	beqz	t4,0x800f2aa0
801128a0:	80808023 	addi	zero,gp,-32640
801128a4:	80808001 	.word	0x1808080
801128a8:	80808013 	beqz	gp,0x800f2aac
801128ac:	f5fbfae4 	swc1	$f26,-1035(a3)
801128b0:	1117f3dd 	.word	0xddf31711
801128b4:	4057197f 	.word	0x7f195740
801128b8:	402836c0 	lwc0	$22,10304(at)
801128bc:	5f575f28 	slti	ra,v0,22367
801128c0:	80808008 	j	0x82020200
801128c4:	80808020 	addi	zero,a0,-32640
801128c8:	80808011 	beqz	t4,0x800f2acc
801128cc:	80808029 	slti	zero,t4,-32640
801128d0:	ebdf00f2 	.word	0xf200dfeb
801128d4:	09fef5e7 	swc1	$f21,-503(ra)
801128d8:	5f57197f 	.word	0x7f19575f
801128dc:	40573640 	.word	0x40365740
801128e0:	5f284028 	slti	zero,v0,10335
801128e4:	80808005 	bltz	t4,0x800f2ae8
801128e8:	808080fb 	.word	0xfb808080
801128ec:	808080e2 	swc0	c0_index,-32640(s4)
801128f0:	808080d7 	.word	0xd7808080
801128f4:	13eefb08 	j	0x83efb84c
801128f8:	19f3edfb 	.word	0xfbedf319
801128fc:	4057197f 	.word	0x7f195740
80112900:	40283640 	.word	0x40362840
80112904:	5f575f28 	slti	ra,v0,22367
80112908:	80808001 	.word	0x1808080
8011290c:	808080de 	.word	0xde808080
80112910:	80808001 	.word	0x1808080
80112914:	808080de 	.word	0xde808080
80112918:	15150012 	beqz	s0,0x80117d70
8011291c:	ebeb0012 	beqz	s0,0x8010d8cc
80112920:	5f57197f 	.word	0x7f19575f
80112924:	40573640 	.word	0x40365740
80112928:	5f284028 	slti	zero,v0,10335
8011292c:	808080f6 	.word	0xf6808080
80112930:	8080800a 	j	0x8a020200
80112934:	808080d9 	.word	0xd9808080
80112938:	808080ee 	swc3	$0,-32640(s4)
8011293c:	12eefe05 	.word	0x5feee12
80112940:	00dbf2fb 	.word	0xfbf2db00
80112944:	4057197f 	.word	0x7f195740
80112948:	40283640 	.word	0x40362840
8011294c:	5f575f28 	slti	ra,v0,22367
80112950:	8080800a 	j	0x8a020200
80112954:	808080ed 	swc3	$0,-32640(t4)
80112958:	808080f8 	.word	0xf8808080
8011295c:	808080da 	.word	0xda808080
80112960:	0f24f5f9 	.word	0xf9f5240f
80112964:	f1060c10 	beq	zero,t4,0x8011452c
80112968:	4057197f 	.word	0x7f195740
8011296c:	40283640 	.word	0x40362840
80112970:	5f575f28 	slti	ra,v0,22367
80112974:	808080f8 	.word	0xf8808080
80112978:	808080da 	.word	0xda808080
8011297c:	8080800a 	j	0x8a020200
80112980:	808080ed 	swc3	$0,-32640(t4)
80112984:	0ffa0c10 	beq	zero,t4,0x801111c4
80112988:	f1dbf6f9 	.word	0xf9f6dbf1
8011298c:	4057197f 	.word	0x7f195740
80112990:	40283640 	.word	0x40362840
80112994:	5f575f28 	slti	ra,v0,22367
80112998:	80808000 	.word	0x808080
8011299c:	808080e3 	swc0	c0_index,-32640(gp)
801129a0:	80808003 	.word	0x3808080
801129a4:	808080e7 	swc1	$f0,-32640(gp)
801129a8:	f7e31307 	.word	0x713e3f7
801129ac:	08f6ede1 	swc0	c0_cause,-2552(t7)
801129b0:	4057197f 	.word	0x7f195740
801129b4:	40283640 	.word	0x40362840
801129b8:	5f575f28 	slti	ra,v0,22367
801129bc:	80808004 	bltz	a0,0x800f2bc0
801129c0:	808080eb 	swc2	$0,-32640(gp)
801129c4:	808080ff 	.word	0xff808080
801129c8:	808080e5 	swc1	$f0,-32640(t4)
801129cc:	05eb1420 	addi	s4,zero,-5371
801129d0:	fadeecf9 	.word	0xf9ecdefa
801129d4:	4057197f 	.word	0x7f195740
801129d8:	40283640 	.word	0x40362840
801129dc:	5f575f28 	slti	ra,v0,22367
801129e0:	80808007 	bltz	gp,0x800f2be4
801129e4:	808080f2 	.word	0xf2808080
801129e8:	808080fc 	.word	0xfc808080
801129ec:	808080e5 	swc1	$f0,-32640(t4)
801129f0:	120a0925 	addiu	t1,t0,2578
801129f4:	eee7f713 	beq	ra,s7,0x8010c9b0
801129f8:	4057197f 	.word	0x7f195740
801129fc:	40283640 	.word	0x40362840
80112a00:	5f575f28 	slti	ra,v0,22367
80112a04:	808080fc 	.word	0xfc808080
80112a08:	808080e7 	swc1	$f0,-32640(gp)
80112a0c:	80808007 	bltz	gp,0x800f2c10
80112a10:	808080f2 	.word	0xf2808080
80112a14:	ede706e7 	swc1	$f6,-6163(t8)
80112a18:	120df9d9 	.word	0xd9f90d12
80112a1c:	5f57197f 	.word	0x7f19575f
80112a20:	40573640 	.word	0x40365740
80112a24:	5f284028 	slti	zero,v0,10335
80112a28:	80808012 	beqz	s4,0x800f2c2c
80112a2c:	808080ee 	swc3	$0,-32640(s4)
80112a30:	80808000 	.word	0x808080
80112a34:	808080dc 	.word	0xdc808080
80112a38:	09f8fc07 	.word	0x7fcf809
80112a3c:	1d0ae2ee 	swc3	$2,2589(s7)
80112a40:	4057197f 	.word	0x7f195740
80112a44:	40283640 	.word	0x40362840
80112a48:	5f575f28 	slti	ra,v0,22367
80112a4c:	808080fc 	.word	0xfc808080
80112a50:	808080ea 	swc2	$0,-32640(s4)
80112a54:	80808007 	bltz	gp,0x800f2c58
80112a58:	808080f7 	.word	0xf7808080
80112a5c:	ee00f7dd 	.word	0xddf700ee
80112a60:	122509ef 	swc3	$9,9490(t8)
80112a64:	4057197f 	.word	0x7f195740
80112a68:	40283640 	.word	0x40362840
80112a6c:	5f575f28 	slti	ra,v0,22367
80112a70:	808080ec 	swc3	$0,-32640(a0)
80112a74:	808080e0 	swc0	c0_index,-32640(a0)
80112a78:	80808014 	bnez	a0,0x800f2c7c
80112a7c:	80808008 	j	0x82020200
80112a80:	06e202ff 	.word	0xff02e206
80112a84:	fbd500fc 	.word	0xfc00d5fb
80112a88:	4057197f 	.word	0x7f195740
80112a8c:	40283640 	.word	0x40362840
80112a90:	5f575f28 	slti	ra,v0,22367
80112a94:	808080f4 	.word	0xf4808080
80112a98:	808080e7 	swc1	$f0,-32640(gp)
80112a9c:	8080800e 	jal	0x8a020200
80112aa0:	80808001 	.word	0x1808080
80112aa4:	00dd1106 	bgezal	s0,0x80109ea8
80112aa8:	00ddf1e6 	swc1	$f17,-8960(s7)
80112aac:	4057197f 	.word	0x7f195740
80112ab0:	40283640 	.word	0x40362840
80112ab4:	5f575f28 	slti	ra,v0,22367
80112ab8:	8080800e 	jal	0x8a020200
80112abc:	80808001 	.word	0x1808080
80112ac0:	808080f4 	.word	0xf4808080
80112ac4:	808080e7 	swc1	$f0,-32640(gp)
80112ac8:	0023f1e6 	swc1	$f17,8960(s7)
80112acc:	00231106 	bgezal	s0,0x8011b6d0
80112ad0:	4057197f 	.word	0x7f195740
80112ad4:	40283640 	.word	0x40362840
80112ad8:	5f575f28 	slti	ra,v0,22367
80112adc:	80808003 	.word	0x3808080
80112ae0:	808080f9 	.word	0xf9808080
80112ae4:	80808000 	.word	0x808080
80112ae8:	808080f5 	.word	0xf5808080
80112aec:	0828edfc 	.word	0xfced2808
80112af0:	f7161321 	addi	s3,t0,5879
80112af4:	4057197f 	.word	0x7f195740
80112af8:	40283640 	.word	0x40362840
80112afc:	5f575f28 	slti	ra,v0,22367
80112b00:	80808007 	bltz	gp,0x800f2d04
80112b04:	808080fd 	.word	0xfd808080
80112b08:	808080fc 	.word	0xfc808080
80112b0c:	808080f1 	.word	0xf1808080
80112b10:	1322f91b 	.word	0x1bf92213
80112b14:	edfc0629 	slti	a2,t0,-787
80112b18:	4057197f 	.word	0x7f195740
80112b1c:	40283640 	.word	0x40362840
80112b20:	5f575f28 	slti	ra,v0,22367
80112b24:	808080ff 	.word	0xff808080
80112b28:	808080f8 	.word	0xf8808080
80112b2c:	80808004 	bltz	a0,0x800f2d30
80112b30:	808080fe 	.word	0xfe808080
80112b34:	fa1eece1 	swc0	c0_sr,7930(t7)
80112b38:	052b1409 	j	0x8450ac14
80112b3c:	4057197f 	.word	0x7f195740
80112b40:	40283640 	.word	0x40362840
80112b44:	5f575f28 	slti	ra,v0,22367
80112b48:	8080800a 	j	0x8a020200
80112b4c:	80808007 	bltz	gp,0x800f2d50
80112b50:	808080f8 	.word	0xf8808080
80112b54:	808080f5 	.word	0xf5808080
80112b58:	f106f6d8 	.word	0xd8f606f1
80112b5c:	0f250cef 	swc3	$12,9487(t8)
80112b60:	4057197f 	.word	0x7f195740
80112b64:	40283640 	.word	0x40362840
80112b68:	5f575f28 	slti	ra,v0,22367
80112b6c:	808080f8 	.word	0xf8808080
80112b70:	808080f5 	.word	0xf5808080
80112b74:	8080800a 	j	0x8a020200
80112b78:	80808008 	j	0x82020200
80112b7c:	f1dc0cef 	swc3	$12,-8975(t8)
80112b80:	0ffaf5d7 	.word	0xd7f5fa0f
80112b84:	4057197f 	.word	0x7f195740
80112b88:	40283640 	.word	0x40362840
80112b8c:	5f575f28 	slti	ra,v0,22367
80112b90:	80808014 	bnez	a0,0x800f2d94
80112b94:	8080801b 	blez	gp,0x800f2d98
80112b98:	808080ec 	swc3	$0,-32640(a0)
80112b9c:	808080f3 	.word	0xf3808080
80112ba0:	fb1500e5 	swc1	$f0,5627(t0)
80112ba4:	062202e7 	swc1	$f2,8710(t8)
80112ba8:	4057197f 	.word	0x7f195740
80112bac:	40283640 	.word	0x40362840
80112bb0:	5f575f28 	slti	ra,v0,22367
80112bb4:	80808001 	.word	0x1808080
80112bb8:	8080800a 	j	0x8a020200
80112bbc:	80808001 	.word	0x1808080
80112bc0:	8080800a 	j	0x8a020200
80112bc4:	ebeb00db 	.word	0xdb00ebeb
80112bc8:	151500db 	.word	0xdb001515
80112bcc:	4057197f 	.word	0x7f195740
80112bd0:	40283640 	.word	0x40362840
80112bd4:	5f575f28 	slti	ra,v0,22367
80112bd8:	808080ee 	swc3	$0,-32640(s4)
80112bdc:	808080fa 	.word	0xfa808080
80112be0:	80808012 	beqz	s4,0x800f2de4
80112be4:	8080801e 	bgtz	s4,0x800f2de8
80112be8:	f8d807fa 	.word	0xfa07d8f8
80112bec:	09eafcee 	swc3	$28,-5623(s7)
80112bf0:	4057197f 	.word	0x7f195740
80112bf4:	40283640 	.word	0x40362840
80112bf8:	5f575f28 	slti	ra,v0,22367
80112bfc:	8080800a 	j	0x8a020200
80112c00:	80808021 	addi	zero,t4,-32640
80112c04:	808080f6 	.word	0xf6808080
80112c08:	8080800c 	jal	0x82020200
80112c0c:	eef605ea 	swc2	$5,-2322(s0)
80112c10:	1219fee2 	swc0	$30,6418(s7)
80112c14:	4057197f 	.word	0x7f195740
80112c18:	402836c0 	lwc0	$22,10304(at)
80112c1c:	5f575f28 	slti	ra,v0,22367
80112c20:	808080fb 	.word	0xfb808080
80112c24:	80808019 	blez	t4,0x800f2e28
80112c28:	80808005 	bltz	t4,0x800f2e2c
80112c2c:	80808025 	addiu	zero,t4,-32640
80112c30:	edde08f7 	.word	0xf708deed
80112c34:	1304fbe9 	swc2	$27,1043(t7)
80112c38:	1f56197f 	.word	0x7f19561f
80112c3c:	00563640 	.word	0x40365600
80112c40:	1f280028 	slti	zero,zero,10271
80112c44:	80808003 	.word	0x3808080
80112c48:	808080fd 	.word	0xfd808080
80112c4c:	808080ef 	swc3	$0,-32640(gp)
80112c50:	808080e9 	swc2	$0,-32640(t4)
80112c54:	0bf6fe05 	.word	0x5fef60b
80112c58:	0ef9f6fe 	.word	0xfef6f90e
80112c5c:	0056197f 	.word	0x7f195600
80112c60:	00283640 	.word	0x40362800
80112c64:	1f561f28 	slti	ra,zero,22047
80112c68:	80808001 	.word	0x1808080
80112c6c:	808080ee 	swc3	$0,-32640(s4)
80112c70:	80808001 	.word	0x1808080
80112c74:	808080ee 	swc3	$0,-32640(s4)
80112c78:	0c0c010b 	j	0x8c043030
80112c7c:	f4f4010b 	j	0x8c07d3d0
80112c80:	1f56197f 	.word	0x7f19561f
80112c84:	00563640 	.word	0x40365600
80112c88:	1f280028 	slti	zero,zero,10271
80112c8c:	808080fb 	.word	0xfb808080
80112c90:	80808006 	bltz	s4,0x800f2e94
80112c94:	808080ea 	swc2	$0,-32640(s4)
80112c98:	808080f6 	.word	0xf6808080
80112c9c:	0bf60004 	bltz	zero,0x801104cc
80112ca0:	00ebf9fe 	.word	0xfef9eb00
80112ca4:	0056197f 	.word	0x7f195600
80112ca8:	00283640 	.word	0x40362800
80112cac:	1f561f28 	slti	ra,zero,22047
80112cb0:	80808006 	bltz	s4,0x800f2eb4
80112cb4:	808080f6 	.word	0xf6808080
80112cb8:	808080fc 	.word	0xfc808080
80112cbc:	808080eb 	swc2	$0,-32640(gp)
80112cc0:	0815fbfd 	.word	0xfdfb1508
80112cc4:	f803070a 	j	0x881c0fe0
80112cc8:	0056197f 	.word	0x7f195600
80112ccc:	00283640 	.word	0x40362800
80112cd0:	1f561f28 	slti	ra,zero,22047
80112cd4:	808080fc 	.word	0xfc808080
80112cd8:	808080eb 	swc2	$0,-32640(gp)
80112cdc:	80808006 	bltz	s4,0x800f2ee0
80112ce0:	808080f6 	.word	0xf6808080
80112ce4:	08fd070a 	j	0x881ff420
80112ce8:	f8ebfbfd 	.word	0xfdfbebf8
80112cec:	0056197f 	.word	0x7f195600
80112cf0:	00283640 	.word	0x40362800
80112cf4:	1f561f28 	slti	ra,zero,22047
80112cf8:	80808000 	.word	0x808080
80112cfc:	808080f1 	.word	0xf1808080
80112d00:	80808002 	.word	0x2808080
80112d04:	808080f3 	.word	0xf3808080
80112d08:	fbef0b04 	.word	0x40beffb
80112d0c:	04faf5ee 	swc3	$21,-1532(s7)
80112d10:	0056197f 	.word	0x7f195600
80112d14:	00283640 	.word	0x40362800
80112d18:	1f561f28 	slti	ra,zero,22047
80112d1c:	80808003 	.word	0x3808080
80112d20:	808080f6 	.word	0xf6808080
80112d24:	80808000 	.word	0x808080
80112d28:	808080f2 	.word	0xf2808080
80112d2c:	03f40b12 	beq	s0,t3,0x8010fd3c
80112d30:	fcedf5fc 	.word	0xfcf5edfc
80112d34:	1f56197f 	.word	0x7f19561f
80112d38:	00563640 	.word	0x40365600
80112d3c:	1f280028 	slti	zero,zero,10271
80112d40:	8080800a 	j	0x8a020200
80112d44:	808080f6 	.word	0xf6808080
80112d48:	80808000 	.word	0x808080
80112d4c:	808080ec 	swc3	$0,-32640(a0)
80112d50:	05fcff05 	.word	0x5fffc05
80112d54:	1106f0f7 	.word	0xf7f00611
80112d58:	0056197f 	.word	0x7f195600
80112d5c:	00283640 	.word	0x40362800
80112d60:	1f561f28 	slti	ra,zero,22047
80112d64:	80808005 	bltz	t4,0x800f2f68
80112d68:	808080f9 	.word	0xf9808080
80112d6c:	808080ff 	.word	0xff808080
80112d70:	808080f2 	.word	0xf2808080
80112d74:	0a050515 	bne	t0,a1,0x801141a0
80112d78:	f5f1fb0a 	j	0x8befc7d4
80112d7c:	0056197f 	.word	0x7f195600
80112d80:	00283640 	.word	0x40362800
80112d84:	1f561f28 	slti	ra,zero,22047
80112d88:	808080ff 	.word	0xff808080
80112d8c:	808080f3 	.word	0xf3808080
80112d90:	80808004 	bltz	a0,0x800f2f94
80112d94:	808080f9 	.word	0xf9808080
80112d98:	f5f203f2 	.word	0xf203f2f5
80112d9c:	0a07fcea 	swc2	$28,1802(s7)
80112da0:	0056197f 	.word	0x7f195600
80112da4:	00283640 	.word	0x40362800
80112da8:	1f561f28 	slti	ra,zero,22047
80112dac:	808080ff 	.word	0xff808080
80112db0:	808080f5 	.word	0xf5808080
80112db4:	80808005 	bltz	t4,0x800f2fb8
80112db8:	808080fc 	.word	0xfc808080
80112dbc:	f500fbec 	swc3	$27,245(a3)
80112dc0:	0a1505f7 	.word	0xf705150a
80112dc4:	0056197f 	.word	0x7f195600
80112dc8:	00283640 	.word	0x40362800
80112dcc:	1f561f28 	slti	ra,zero,22047
80112dd0:	808080f5 	.word	0xf5808080
80112dd4:	808080ee 	swc3	$0,-32640(s4)
80112dd8:	8080800b 	j	0x8e020200
80112ddc:	80808005 	bltz	t4,0x800f2fe0
80112de0:	04ef0200 	.word	0x2ef04
80112de4:	fde800ff 	.word	0xff00e8fd
80112de8:	0056197f 	.word	0x7f195600
80112dec:	00283640 	.word	0x40362800
80112df0:	1f561f28 	slti	ra,zero,22047
80112df4:	80808009 	j	0x86020200
80112df8:	80808001 	.word	0x1808080
80112dfc:	808080fa 	.word	0xfa808080
80112e00:	808080f3 	.word	0xf3808080
80112e04:	0014f8f2 	.word	0xf2f81400
80112e08:	00140a04 	.word	0x40a1400
80112e0c:	0056197f 	.word	0x7f195600
80112e10:	00283640 	.word	0x40362800
80112e14:	1f561f28 	slti	ra,zero,22047
80112e18:	808080fa 	.word	0xfa808080
80112e1c:	808080f3 	.word	0xf3808080
80112e20:	80808009 	j	0x86020200
80112e24:	80808001 	.word	0x1808080
80112e28:	00ec0a04 	.word	0x40aec00
80112e2c:	00ecf8f2 	.word	0xf2f8ec00
80112e30:	0056197f 	.word	0x7f195600
80112e34:	00283640 	.word	0x40362800
80112e38:	1f561f28 	slti	ra,zero,22047
80112e3c:	80808002 	.word	0x2808080
80112e40:	808080fd 	.word	0xfd808080
80112e44:	80808000 	.word	0x808080
80112e48:	808080fb 	.word	0xfb808080
80112e4c:	0417f5fe 	.word	0xfef51704
80112e50:	fb0c0b13 	beq	t8,t3,0x80116240
80112e54:	0056197f 	.word	0x7f195600
80112e58:	00283640 	.word	0x40362800
80112e5c:	1f561f28 	slti	ra,zero,22047
80112e60:	80808004 	bltz	a0,0x800f3064
80112e64:	808080ff 	.word	0xff808080
80112e68:	808080ff 	.word	0xff808080
80112e6c:	808080f9 	.word	0xf9808080
80112e70:	0a13fc0f 	jal	0x8ff04c28
80112e74:	f5fe0317 	bne	t8,v1,0x80112a4c
80112e78:	0056197f 	.word	0x7f195600
80112e7c:	00283640 	.word	0x40362800
80112e80:	1f561f28 	slti	ra,zero,22047
80112e84:	80808000 	.word	0x808080
80112e88:	808080fd 	.word	0xfd808080
80112e8c:	80808003 	.word	0x3808080
80112e90:	80808000 	.word	0x808080
80112e94:	fc11f5ef 	swc3	$21,4604(ra)
80112e98:	03180b05 	.word	0x50b1803
80112e9c:	0056197f 	.word	0x7f195600
80112ea0:	00283640 	.word	0x40362800
80112ea4:	1f561f28 	slti	ra,zero,22047
80112ea8:	80808006 	bltz	s4,0x800f30ac
80112eac:	80808005 	bltz	t4,0x800f30b0
80112eb0:	808080fc 	.word	0xfc808080
80112eb4:	808080fb 	.word	0xfb808080
80112eb8:	f803fbea 	swc2	$27,1016(s7)
80112ebc:	081507f7 	.word	0xf7071508
80112ec0:	0056197f 	.word	0x7f195600
80112ec4:	00283640 	.word	0x40362800
80112ec8:	1f561f28 	slti	ra,zero,22047
80112ecc:	808080fc 	.word	0xfc808080
80112ed0:	808080fb 	.word	0xfb808080
80112ed4:	80808006 	bltz	s4,0x800f30d8
80112ed8:	80808005 	bltz	t4,0x800f30dc
80112edc:	f8eb07f7 	.word	0xf707ebf8
80112ee0:	08fdfbea 	swc2	$27,-760(s7)
80112ee4:	0056197f 	.word	0x7f195600
80112ee8:	00283640 	.word	0x40362800
80112eec:	1f561f28 	slti	ra,zero,22047
80112ef0:	8080800c 	jal	0x82020200
80112ef4:	80808010 	beqz	a0,0x800f30f8
80112ef8:	808080f5 	.word	0xf5808080
80112efc:	808080f9 	.word	0xf9808080
80112f00:	fd0c00f2 	.word	0xf2000cfd
80112f04:	041302f3 	.word	0xf3021304
80112f08:	0056197f 	.word	0x7f195600
80112f0c:	00283640 	.word	0x40362800
80112f10:	1f561f28 	slti	ra,zero,22047
80112f14:	808080f6 	.word	0xf6808080
80112f18:	808080fd 	.word	0xfd808080
80112f1c:	8080800a 	j	0x8a020200
80112f20:	80808011 	beqz	t4,0x800f3124
80112f24:	fce905fe 	.word	0xfe05e9fc
80112f28:	05f4fff7 	.word	0xf7fff405
80112f2c:	0056197f 	.word	0x7f195600
80112f30:	00283640 	.word	0x40362800
80112f34:	1f561f28 	slti	ra,zero,22047
80112f38:	80808001 	.word	0x1808080
80112f3c:	80808006 	bltz	s4,0x800f3140
80112f40:	80808001 	.word	0x1808080
80112f44:	80808006 	bltz	s4,0x800f3148
80112f48:	f4f401ec 	swc3	$1,-2828(zero)
80112f4c:	0c0c01ec 	swc3	$1,3084(zero)
80112f50:	0056197f 	.word	0x7f195600
80112f54:	00283640 	.word	0x40362800
80112f58:	1f561f28 	slti	ra,zero,22047
80112f5c:	80808006 	bltz	s4,0x800f3160
80112f60:	80808013 	beqz	gp,0x800f3164
80112f64:	808080fb 	.word	0xfb808080
80112f68:	80808007 	bltz	gp,0x800f316c
80112f6c:	f6fb04f5 	.word	0xf504fbf6
80112f70:	0b0f00f0 	.word	0xf0000f0b
80112f74:	0056197f 	.word	0x7f195600
80112f78:	002836c0 	lwc0	$22,10240(at)
80112f7c:	1f561f28 	slti	ra,zero,22047
80112f80:	808080fd 	.word	0xfd808080
80112f84:	8080800f 	jal	0x8e020200
80112f88:	80808003 	.word	0x3808080
80112f8c:	80808015 	bnez	t4,0x800f3190
80112f90:	f6ed05fc 	.word	0xfc05edf6
80112f94:	0b02fef4 	.word	0xf4fe020b
80112f98:	004f277c 	.word	0x7c274f00
80112f9c:	000039c0 	lwc0	$25,0(at)
80112fa0:	4f4f4f00 	.word	0x4f4f4f
80112fa4:	80808017 	bnez	gp,0x800f31a8
80112fa8:	80808017 	bnez	gp,0x800f31ac
80112fac:	808080e9 	swc2	$0,-32640(t4)
80112fb0:	808080e9 	swc2	$0,-32640(t4)
80112fb4:	eb1509f7 	.word	0xf70915eb
80112fb8:	eb1509f7 	.word	0xf70915eb
80112fbc:	5658277e 	.word	0x7e275856
80112fc0:	56fe3940 	.word	0x4039fe56
80112fc4:	005800fe 	.word	0xfe005800
80112fc8:	80808000 	.word	0x808080
80112fcc:	80808000 	.word	0x808080
80112fd0:	80808000 	.word	0x808080
80112fd4:	80808000 	.word	0x808080
80112fd8:	000053ad 	sw	s3,0(t2)
80112fdc:	585853ad 	sw	s3,22616(t2)
80112fe0:	00fe277e 	.word	0x7e27fe00
80112fe4:	005839c0 	lwc0	$25,22528(at)
80112fe8:	56fe5658 	.word	0x5856fe56
80112fec:	80808000 	.word	0x808080
80112ff0:	80808000 	.word	0x808080
80112ff4:	80808000 	.word	0x808080
80112ff8:	80808000 	.word	0x808080
80112ffc:	a8a853ad 	sw	s3,-22360(t2)
80113000:	000053ad 	sw	s3,0(t2)
80113004:	baa0277e 	.word	0x7e27a0ba
80113008:	bafe3940 	.word	0x4039feba
8011300c:	60a060fe 	.word	0xfe60a060
80113010:	80808000 	.word	0x808080
80113014:	80808000 	.word	0x808080
80113018:	80808000 	.word	0x808080
8011301c:	80808000 	.word	0x808080
80113020:	00006000 	.word	0x600000
80113024:	60606000 	.word	0x606060
80113028:	bafe277e 	.word	0x7e27feba
8011302c:	60fe3940 	.word	0x4039fe60
80113030:	baa060a0 	sb	zero,-24390(v1)
80113034:	80808000 	.word	0x808080
80113038:	80808000 	.word	0x808080
8011303c:	80808000 	.word	0x808080
80113040:	80808000 	.word	0x808080
80113044:	00a00000 	sll	s4,zero,0x0
80113048:	00a0a0a0 	sb	zero,-24576(a1)
8011304c:	baa0277e 	.word	0x7e27a0ba
80113050:	bafe3940 	.word	0x4039feba
80113054:	60a060fe 	.word	0xfe60a060
80113058:	80808000 	.word	0x808080
8011305c:	80808000 	.word	0x808080
80113060:	80808000 	.word	0x808080
80113064:	80808000 	.word	0x808080
80113068:	60000000 	.word	0x60
8011306c:	6000a0a0 	sb	zero,96(a1)
80113070:	60a0277e 	.word	0x7e27a060
80113074:	baa039c0 	lwc0	$25,-24390(at)
80113078:	60febafe 	.word	0xfebafe60
8011307c:	80808000 	.word	0x808080
80113080:	80808000 	.word	0x808080
80113084:	80808000 	.word	0x808080
80113088:	80808000 	.word	0x808080
8011308c:	a0a06000 	.word	0x60a0a0
80113090:	00006000 	.word	0x600000
80113094:	dd892b7d 	.word	0x7d2b89dd
80113098:	00010203 	.word	0x3020100
8011309c:	04050607 	.word	0x7060504
801130a0:	06050403 	.word	0x3040506
801130a4:	02010000 	srl	zero,zero,0x4
801130a8:	a77b1900 	.word	0x197ba7
801130ac:	e818e818 	.word	0x18e818e8
801130b0:	55058380 	lb	v1,1365(a0)
801130b4:	e818e818 	.word	0x18e818e8
801130b8:	55058380 	lb	v1,1365(a0)
801130bc:	e818e818 	.word	0x18e818e8
801130c0:	85058380 	lb	v1,1413(a0)
801130c4:	e818e818 	.word	0x18e818e8
801130c8:	85058380 	lb	v1,1413(a0)
801130cc:	e818e818 	.word	0x18e818e8
801130d0:	b5058380 	lb	v1,1461(a0)
801130d4:	e818e818 	.word	0x18e818e8
801130d8:	b50583c0 	lwc0	$3,1461(a0)
801130dc:	677b1900 	.word	0x197b67
801130e0:	f40cf40c 	jal	0x83d033d0
801130e4:	52328380 	lb	v1,12882(a0)
801130e8:	f40cf40c 	jal	0x83d033d0
801130ec:	52328380 	lb	v1,12882(a0)
801130f0:	f40cf40c 	jal	0x83d033d0
801130f4:	52328380 	lb	v1,12882(a0)
801130f8:	f40cf40c 	jal	0x83d033d0
801130fc:	523283c0 	lwc0	$3,12882(a0)
80113100:	04271180 	lb	s1,9988(zero)
80113104:	bc271180 	lb	s1,10172(zero)
80113108:	d8a81180 	lb	s1,-22312(zero)
8011310c:	40051180 	lb	s1,1344(zero)
80113110:	a4061180 	lb	s1,1700(zero)
80113114:	d8a81180 	lb	s1,-22312(zero)
80113118:	00081180 	lb	s1,2048(zero)
8011311c:	980a1180 	lb	s1,2712(zero)
80113120:	40aa1180 	lb	s1,-21952(zero)
80113124:	8c910280 	lb	v0,-28276(zero)
80113128:	b47c0280 	lb	v0,31924(zero)
8011312c:	8ca91180 	lb	s1,-22132(zero)
80113130:	04271180 	lb	s1,9988(zero)
80113134:	bc271180 	lb	s1,10172(zero)
80113138:	24a81180 	lb	s1,-22492(zero)
8011313c:	80281180 	lb	s1,10368(zero)
80113140:	bc101180 	lb	s1,4284(zero)
80113144:	00000000 	nop
80113148:	b4131180 	lb	s1,5044(zero)
8011314c:	9c151180 	lb	s1,5532(zero)
80113150:	00000000 	nop
80113154:	70171180 	lb	s1,6000(zero)
80113158:	9c191180 	lb	s1,6556(zero)
8011315c:	00000000 	nop
80113160:	74291180 	lb	s1,10612(zero)
80113164:	b01a1180 	lb	s1,6832(zero)
80113168:	00000000 	nop
8011316c:	5c1c1180 	lb	s1,7260(zero)
80113170:	001e1180 	lb	s1,7680(zero)
80113174:	00000000 	nop
80113178:	181f1180 	lb	s1,7960(zero)
8011317c:	e8211180 	lb	s1,8680(zero)
80113180:	44c01180 	lb	s1,-16316(zero)
80113184:	ffff0000 	.word	0xffff
80113188:	c3000000 	sra	zero,zero,0x3
	...
80113194:	0000b5ff 	.word	0xffb50000
	...
801131a0:	01000000 	.word	0x1
801131a4:	c4ff0000 	.word	0xffc4
801131a8:	00000000 	nop
801131ac:	00000200 	sll	zero,v0,0x0
801131b0:	0000c4ff 	.word	0xffc40000
	...
801131bc:	90012003 	.word	0x3200190
801131c0:	96002c01 	.word	0x12c0096
801131c4:	d200a401 	.word	0x1a400d2
801131c8:	46008c00 	.word	0x8c0046
801131cc:	6e00dc00 	.word	0xdc006e
801131d0:	82000401 	.word	0x1040082
801131d4:	5802b004 	bltzal	a1,0x80113b38
801131d8:	28005000 	.word	0x500028
801131dc:	6e00dc00 	.word	0xdc006e
801131e0:	82000401 	.word	0x1040082
801131e4:	fa00f401 	.word	0x1f400fa
801131e8:	3c007800 	.word	0x78003c
801131ec:	c2018403 	.word	0x38401c2
801131f0:	8c001801 	syscall	0x46002
801131f4:	28005000 	.word	0x500028
801131f8:	d002a005 	bltz	t5,0x80113d3c
801131fc:	28005000 	.word	0x500028
80113200:	d002a005 	bltz	t5,0x80113d44
80113204:	5401a802 	.word	0x2a80154
80113208:	c8009001 	.word	0x19000c8
8011320c:	f000e001 	.word	0x1e000f0
80113210:	fa00f401 	.word	0x1f400fa
80113214:	9a013403 	.word	0x334019a
80113218:	1c023804 	.word	0x438021c
8011321c:	7201e402 	.word	0x2e40172
80113220:	40018002 	.word	0x2800140
80113224:	18013002 	.word	0x2300118
80113228:	be007c01 	.word	0x17c00be
8011322c:	81ff3900 	.word	0x39ff81
80113230:	c70098ff 	.word	0xff9800c7
80113234:	010043ff 	.word	0xff430001
80113238:	81ffc7ff 	.word	0xffc7ff81
8011323c:	c70098ff 	.word	0xff9800c7
80113240:	ffff43ff 	.word	0xff43ffff
80113244:	7f003900 	.word	0x39007f
80113248:	c7006800 	.word	0x6800c7
8011324c:	010043ff 	.word	0xff430001
80113250:	7f00c7ff 	.word	0xffc7007f
80113254:	c7006800 	.word	0x6800c7
80113258:	ffff43ff 	.word	0xff43ffff
8011325c:	8900caff 	.word	0xffca0089
80113260:	a8ff77ff 	.word	0xff77ffa8
80113264:	caffa8ff 	.word	0xffa8ffca
80113268:	89003600 	.word	0x360089
8011326c:	a8ff77ff 	.word	0xff77ffa8
80113270:	3600a8ff 	.word	0xffa80036
80113274:	7dff0000 	.word	0xff7d
80113278:	71ff8300 	.word	0x83ff71
8011327c:	000071ff 	.word	0xff710000
80113280:	d5fffcff 	.word	0xfffcffd5
80113284:	0effd5ff 	.word	0xffd5ff0e
80113288:	04000eff 	.word	0xff0e0004
8011328c:	baff99ff 	.word	0xff99ffba
80113290:	c700baff 	.word	0xffba00c7
80113294:	6700c700 	.word	0xc70067
80113298:	9cff7e00 	.word	0x7eff9c
8011329c:	efff2b00 	.word	0x2bffef
801132a0:	04000eff 	.word	0xff0e0004
801132a4:	46006700 	.word	0x670046
801132a8:	c7004600 	.word	0x4600c7
801132ac:	99ffc700 	.word	0xc7ff99
801132b0:	2b00fcff 	.word	0xfffc002b
801132b4:	0eff6400 	.word	0x64ff0e
801132b8:	7e00efff 	.word	0xffef007e
801132bc:	63ff4200 	.word	0x42ff63
801132c0:	efff9d00 	.word	0x9dffef
801132c4:	beffefff 	.word	0xffefffbe
801132c8:	63ffbeff 	.word	0xffbeff63
801132cc:	efff6400 	.word	0x64ffef
801132d0:	82ffefff 	.word	0xffefff82
801132d4:	9cff82ff 	.word	0xff82ff9c
801132d8:	efff9d00 	.word	0x9dffef
801132dc:	4200efff 	.word	0xffef0042
801132e0:	00000000 	nop
801132e4:	f5000000 	.word	0xf5
801132e8:	87ffa8ff 	.word	0xffa8ff87
801132ec:	00007900 	.word	0x790000
801132f0:	a8ffdeff 	.word	0xffdeffa8
801132f4:	fcff0eff 	.word	0xff0efffc
801132f8:	defffcff 	.word	0xfffcffde
801132fc:	f4fe0000 	.word	0xfef4
80113300:	fcff0eff 	.word	0xff0efffc
80113304:	0000fcff 	.word	0xfffc0000
80113308:	f4fe0000 	.word	0xfef4
8011330c:	04000eff 	.word	0xff0e0004
80113310:	00000400 	sll	zero,a0,0x0
80113314:	f4fe2200 	.word	0x22fef4
80113318:	04000eff 	.word	0xff0e0004
8011331c:	22000400 	neg	zero,a0
80113320:	f4fedeff 	.word	0xffdefef4
80113324:	fcff0eff 	.word	0xff0efffc
80113328:	defffcff 	.word	0xfffcffde
8011332c:	f4fe0000 	.word	0xfef4
80113330:	fcff0eff 	.word	0xff0efffc
80113334:	0000fcff 	.word	0xfffc0000
80113338:	f4fe0000 	.word	0xfef4
8011333c:	04000eff 	.word	0xff0e0004
80113340:	00000400 	sll	zero,a0,0x0
80113344:	f4fe2200 	.word	0x22fef4
80113348:	04000eff 	.word	0xff0e0004
8011334c:	22000400 	neg	zero,a0
80113350:	f4fe46ff 	.word	0xff46fef4
80113354:	51003600 	.word	0x360051
80113358:	95ff9700 	.word	0x97ff95
8011335c:	360046ff 	.word	0xff460036
80113360:	afff3600 	.word	0x36ffaf
80113364:	6b009700 	.word	0x97006b
80113368:	360095ff 	.word	0xff950036
8011336c:	69ff3600 	.word	0x36ff69
80113370:	ba005100 	.word	0x5100ba
80113374:	3600ba00 	.word	0xba0036
80113378:	afff3600 	.word	0x36ffaf
8011337c:	6b0069ff 	.word	0xff69006b
80113380:	36000000 	.word	0x36
80113384:	000071ff 	.word	0xff710000
80113388:	000064ff 	.word	0xff640000
8011338c:	efff0000 	.word	0xffef
80113390:	4dff3600 	break	0x36,0x3fd
80113394:	000087ff 	.word	0xff870000
80113398:	c7000000 	.word	0xc7
8011339c:	9c00efff 	.word	0xffef009c
801133a0:	0000b300 	.word	0xb30000
801133a4:	36000000 	.word	0x36
801133a8:	7900c700 	.word	0xc70079
801133ac:	b5000000 	.word	0xb5
801133b0:	efff4bff 	.word	0xff4bffef
801133b4:	0000efff 	.word	0xffef0000
801133b8:	30ff0000 	.word	0xff30
801133bc:	3600d000 	.word	0xd00036
801133c0:	00003600 	.word	0x360000
801133c4:	73ff0000 	.word	0xff73
801133c8:	c7008d00 	.word	0x8d00c7
801133cc:	0000c700 	.word	0xc70000
801133d0:	c000abff 	.word	0xffab00c0
801133d4:	7e0094ff 	.word	0xff94007e
801133d8:	9c007e00 	.word	0x7e009c
801133dc:	6c0064ff 	.word	0xff64006c
801133e0:	7e0040ff 	.word	0xff40007e
801133e4:	55007e00 	.word	0x7e0055
801133e8:	2aff0000 	.word	0xff2a
801133ec:	7e000000 	.word	0x7e
801133f0:	48ff7e00 	.word	0x7eff48
801133f4:	94ff64ff 	.word	0xff64ff94
801133f8:	7e0040ff 	.word	0xff40007e
801133fc:	abff7e00 	.word	0x7effab
80113400:	0000b800 	.word	0xb80000
80113404:	7e00d600 	.word	0xd6007e
80113408:	00007e00 	.word	0x7e0000
8011340c:	c0005500 	.word	0x5500c0
80113410:	7e006c00 	.word	0x6c007e
80113414:	9c007e00 	.word	0x7e009c
80113418:	81ff3900 	.word	0x39ff81
8011341c:	c70098ff 	.word	0xff9800c7
80113420:	080043ff 	.word	0xff430008
80113424:	81ffc7ff 	.word	0xffc7ff81
80113428:	c70098ff 	.word	0xff9800c7
8011342c:	f8ff43ff 	.word	0xff43fff8
80113430:	7f003900 	.word	0x39007f
80113434:	c7006800 	.word	0x6800c7
80113438:	080043ff 	.word	0xff430008
8011343c:	7f00c7ff 	.word	0xffc7007f
80113440:	c7006800 	.word	0x6800c7
80113444:	f8ff43ff 	.word	0xff43fff8
80113448:	8b00c9ff 	.word	0xffc9008b
8011344c:	a8ff75ff 	.word	0xff75ffa8
80113450:	c9ffa8ff 	.word	0xffa8ffc9
80113454:	8b003700 	.word	0x37008b
80113458:	a8ff75ff 	.word	0xff75ffa8
8011345c:	3700a8ff 	.word	0xffa80037
80113460:	7dff0000 	.word	0xff7d
80113464:	71ff8300 	.word	0x83ff71
80113468:	000071ff 	.word	0xff710000
8011346c:	d5fff1ff 	.word	0xfff1ffd5
80113470:	0effd5ff 	.word	0xffd5ff0e
80113474:	0f000eff 	.word	0xff0e000f
80113478:	baff99ff 	.word	0xff99ffba
8011347c:	c700baff 	.word	0xffba00c7
80113480:	6700c700 	.word	0xc70067
80113484:	9bff7f00 	.word	0x7fff9b
80113488:	efff2b00 	.word	0x2bffef
8011348c:	0f000eff 	.word	0xff0e000f
80113490:	46006700 	.word	0x670046
80113494:	c7004600 	.word	0x4600c7
80113498:	99ffc700 	.word	0xc7ff99
8011349c:	2b00f1ff 	.word	0xfff1002b
801134a0:	0eff6500 	.word	0x65ff0e
801134a4:	7f00efff 	.word	0xffef007f
801134a8:	61ff4300 	.word	0x43ff61
801134ac:	efff9f00 	.word	0x9fffef
801134b0:	bdffefff 	.word	0xffefffbd
801134b4:	61ffbdff 	.word	0xffbdff61
801134b8:	efff6500 	.word	0x65ffef
801134bc:	81ffefff 	.word	0xffefff81
801134c0:	9bff81ff 	.word	0xff81ff9b
801134c4:	efff9f00 	.word	0x9fffef
801134c8:	4300efff 	.word	0xffef0043
801134cc:	00000000 	nop
801134d0:	f5000000 	.word	0xf5
801134d4:	85ffa8ff 	.word	0xffa8ff85
801134d8:	00007b00 	.word	0x7b0000
801134dc:	a8ffdeff 	.word	0xffdeffa8
801134e0:	f1ff0eff 	.word	0xff0efff1
801134e4:	deffefff 	.word	0xffefffde
801134e8:	f4fe0000 	.word	0xfef4
801134ec:	f1ff0eff 	.word	0xff0efff1
801134f0:	0000efff 	.word	0xffef0000
801134f4:	f4fe0000 	.word	0xfef4
801134f8:	0f000eff 	.word	0xff0e000f
801134fc:	00001100 	sll	zero,s1,0x0
80113500:	f4fe2200 	.word	0x22fef4
80113504:	0f000eff 	.word	0xff0e000f
80113508:	22001100 	neg	zero,s1
8011350c:	f4fedeff 	.word	0xffdefef4
80113510:	f1ff0eff 	.word	0xff0efff1
80113514:	deffefff 	.word	0xffefffde
80113518:	f4fe0000 	.word	0xfef4
8011351c:	f1ff0eff 	.word	0xff0efff1
80113520:	0000efff 	.word	0xffef0000
80113524:	f4fe0000 	.word	0xfef4
80113528:	0f000eff 	.word	0xff0e000f
8011352c:	00001100 	sll	zero,s1,0x0
80113530:	f4fe2200 	.word	0x22fef4
80113534:	0f000eff 	.word	0xff0e000f
80113538:	22001100 	neg	zero,s1
8011353c:	f4fe45ff 	.word	0xff45fef4
80113540:	51003600 	.word	0x360051
80113544:	94ff9800 	.word	0x98ff94
80113548:	360045ff 	.word	0xff450036
8011354c:	afff3600 	.word	0x36ffaf
80113550:	6c009800 	.word	0x98006c
80113554:	360094ff 	.word	0xff940036
80113558:	68ff3600 	.word	0x36ff68
8011355c:	bb005100 	.word	0x5100bb
80113560:	3600bb00 	.word	0xbb0036
80113564:	afff3600 	.word	0x36ffaf
80113568:	6c0068ff 	.word	0xff68006c
8011356c:	36000000 	.word	0x36
80113570:	00007eff 	.word	0xff7e0000
80113574:	000063ff 	.word	0xff630000
80113578:	efff0000 	.word	0xffef
8011357c:	4cff3600 	syscall	0xdbfd
80113580:	000087ff 	.word	0xff870000
80113584:	c7000000 	.word	0xc7
80113588:	9d00efff 	.word	0xffef009d
8011358c:	0000b400 	.word	0xb40000
80113590:	36000000 	.word	0x36
80113594:	7900c700 	.word	0xc70079
80113598:	b6000000 	.word	0xb6
8011359c:	efff4aff 	.word	0xff4affef
801135a0:	0000efff 	.word	0xffef0000
801135a4:	2fff0000 	.word	0xff2f
801135a8:	3600d100 	.word	0xd10036
801135ac:	00003600 	.word	0x360000
801135b0:	73ff0000 	.word	0xff73
801135b4:	c7008d00 	.word	0x8d00c7
801135b8:	0000c700 	.word	0xc70000
801135bc:	c000abff 	.word	0xffab00c0
801135c0:	7e0094ff 	.word	0xff94007e
801135c4:	9c007e00 	.word	0x7e009c
801135c8:	6c0064ff 	.word	0xff64006c
801135cc:	7e0040ff 	.word	0xff40007e
801135d0:	55007e00 	.word	0x7e0055
801135d4:	2aff0000 	.word	0xff2a
801135d8:	7e000000 	.word	0x7e
801135dc:	48ff7e00 	.word	0x7eff48
801135e0:	94ff64ff 	.word	0xff64ff94
801135e4:	7e0040ff 	.word	0xff40007e
801135e8:	abff7e00 	.word	0x7effab
801135ec:	0000b800 	.word	0xb80000
801135f0:	7e00d600 	.word	0xd6007e
801135f4:	00007e00 	.word	0x7e0000
801135f8:	c0005500 	.word	0x5500c0
801135fc:	7e006c00 	.word	0x6c007e
80113600:	9c007e00 	.word	0x7e009c
80113604:	81ff3900 	.word	0x39ff81
80113608:	c70098ff 	.word	0xff9800c7
8011360c:	1a0043ff 	.word	0xff43001a
80113610:	81ffc7ff 	.word	0xffc7ff81
80113614:	c70098ff 	.word	0xff9800c7
80113618:	e6ff43ff 	.word	0xff43ffe6
8011361c:	7f003900 	.word	0x39007f
80113620:	c7006800 	.word	0x6800c7
80113624:	1a0043ff 	.word	0xff43001a
80113628:	7f00c7ff 	.word	0xffc7007f
8011362c:	c7006800 	.word	0x6800c7
80113630:	e6ff43ff 	.word	0xff43ffe6
80113634:	9100c7ff 	.word	0xffc70091
80113638:	a8ff6fff 	.word	0xff6fffa8
8011363c:	c7ffa8ff 	.word	0xffa8ffc7
80113640:	91003900 	.word	0x390091
80113644:	a8ff6fff 	.word	0xff6fffa8
80113648:	3900a8ff 	.word	0xffa80039
8011364c:	7dff0000 	.word	0xff7d
80113650:	71ff8300 	.word	0x83ff71
80113654:	000071ff 	.word	0xff710000
80113658:	d5ffd5ff 	.word	0xffd5ffd5
8011365c:	0effd5ff 	.word	0xffd5ff0e
80113660:	2b000eff 	.word	0xff0e002b
80113664:	baff99ff 	.word	0xff99ffba
80113668:	c700baff 	.word	0xffba00c7
8011366c:	6700c700 	.word	0xc70067
80113670:	99ff8200 	.word	0x82ff99
80113674:	efff2b00 	.word	0x2bffef
80113678:	2b000eff 	.word	0xff0e002b
8011367c:	46006700 	.word	0x670046
80113680:	c7004600 	.word	0x4600c7
80113684:	99ffc700 	.word	0xc7ff99
80113688:	2b00d5ff 	.word	0xffd5002b
8011368c:	0eff6700 	.word	0x67ff0e
80113690:	8200efff 	.word	0xffef0082
80113694:	5dff4400 	.word	0x44ff5d
80113698:	efffa300 	.word	0xa3ffef
8011369c:	bcffefff 	.word	0xffefffbc
801136a0:	5dffbcff 	.word	0xffbcff5d
801136a4:	efff6700 	.word	0x67ffef
801136a8:	7effefff 	.word	0xffefff7e
801136ac:	99ff7eff 	.word	0xff7eff99
801136b0:	efffa300 	.word	0xa3ffef
801136b4:	4400efff 	.word	0xffef0044
801136b8:	00000000 	nop
801136bc:	f5000000 	.word	0xf5
801136c0:	80ffa8ff 	.word	0xffa8ff80
801136c4:	00008000 	.word	0x800000
801136c8:	a8ffdeff 	.word	0xffdeffa8
801136cc:	d5ff0eff 	.word	0xff0effd5
801136d0:	deffceff 	.word	0xffceffde
801136d4:	f4fe0000 	.word	0xfef4
801136d8:	d5ff0eff 	.word	0xff0effd5
801136dc:	0000ceff 	.word	0xffce0000
801136e0:	f4fe0000 	.word	0xfef4
801136e4:	2b000eff 	.word	0xff0e002b
801136e8:	00003200 	.word	0x320000
801136ec:	f4fe2200 	.word	0x22fef4
801136f0:	2b000eff 	.word	0xff0e002b
801136f4:	22003200 	sub	zero,at,s2
801136f8:	f4fedeff 	.word	0xffdefef4
801136fc:	d5ff0eff 	.word	0xff0effd5
80113700:	deffceff 	.word	0xffceffde
80113704:	f4fe0000 	.word	0xfef4
80113708:	d5ff0eff 	.word	0xff0effd5
8011370c:	0000ceff 	.word	0xffce0000
80113710:	f4fe0000 	.word	0xfef4
80113714:	2b000eff 	.word	0xff0e002b
80113718:	00003200 	.word	0x320000
8011371c:	f4fe2200 	.word	0x22fef4
80113720:	2b000eff 	.word	0xff0e002b
80113724:	22003200 	sub	zero,at,s2
80113728:	f4fe42ff 	.word	0xff42fef4
8011372c:	53003600 	.word	0x360053
80113730:	93ff9a00 	.word	0x9aff93
80113734:	360042ff 	.word	0xff420036
80113738:	adff3600 	.word	0x36ffad
8011373c:	6d009a00 	.word	0x9a006d
80113740:	360093ff 	.word	0xff930036
80113744:	66ff3600 	.word	0x36ff66
80113748:	be005300 	.word	0x5300be
8011374c:	3600be00 	.word	0xbe0036
80113750:	adff3600 	.word	0x36ffad
80113754:	6d0066ff 	.word	0xff66006d
80113758:	36000000 	.word	0x36
8011375c:	00009eff 	.word	0xff9e0000
80113760:	00005fff 	.word	0xff5f0000
80113764:	efff0000 	.word	0xffef
80113768:	49ff3600 	.word	0x36ff49
8011376c:	000087ff 	.word	0xff870000
80113770:	c7000000 	.word	0xc7
80113774:	a100efff 	.word	0xffef00a1
80113778:	0000b700 	.word	0xb70000
8011377c:	36000000 	.word	0x36
80113780:	7900c700 	.word	0xc70079
80113784:	bb000000 	.word	0xbb
80113788:	efff45ff 	.word	0xff45ffef
8011378c:	0000efff 	.word	0xffef0000
80113790:	2cff0000 	.word	0xff2c
80113794:	3600d400 	.word	0xd40036
80113798:	00003600 	.word	0x360000
8011379c:	73ff0000 	.word	0xff73
801137a0:	c7008d00 	.word	0x8d00c7
801137a4:	0000c700 	.word	0xc70000
801137a8:	c000abff 	.word	0xffab00c0
801137ac:	7e0094ff 	.word	0xff94007e
801137b0:	9c007e00 	.word	0x7e009c
801137b4:	6c0064ff 	.word	0xff64006c
801137b8:	7e0040ff 	.word	0xff40007e
801137bc:	55007e00 	.word	0x7e0055
801137c0:	2aff0000 	.word	0xff2a
801137c4:	7e000000 	.word	0x7e
801137c8:	48ff7e00 	.word	0x7eff48
801137cc:	94ff64ff 	.word	0xff64ff94
801137d0:	7e0040ff 	.word	0xff40007e
801137d4:	abff7e00 	.word	0x7effab
801137d8:	0000b800 	.word	0xb80000
801137dc:	7e00d600 	.word	0xd6007e
801137e0:	00007e00 	.word	0x7e0000
801137e4:	c0005500 	.word	0x5500c0
801137e8:	7e006c00 	.word	0x6c007e
801137ec:	9c007e00 	.word	0x7e009c
801137f0:	81ff3900 	.word	0x39ff81
801137f4:	c70098ff 	.word	0xff9800c7
801137f8:	310043ff 	.word	0xff430031
801137fc:	81ffc7ff 	.word	0xffc7ff81
80113800:	c70098ff 	.word	0xff9800c7
80113804:	cfff43ff 	.word	0xff43ffcf
80113808:	7f003900 	.word	0x39007f
8011380c:	c7006800 	.word	0x6800c7
80113810:	310043ff 	.word	0xff430031
80113814:	7f00c7ff 	.word	0xffc7007f
80113818:	c7006800 	.word	0x6800c7
8011381c:	cfff43ff 	.word	0xff43ffcf
80113820:	9a00c3ff 	.word	0xffc3009a
80113824:	a8ff66ff 	.word	0xff66ffa8
80113828:	c3ffa8ff 	.word	0xffa8ffc3
8011382c:	9a003d00 	.word	0x3d009a
80113830:	a8ff66ff 	.word	0xff66ffa8
80113834:	3d00a8ff 	.word	0xffa8003d
80113838:	7dff0000 	.word	0xff7d
8011383c:	71ff8300 	.word	0x83ff71
80113840:	000071ff 	.word	0xff710000
80113844:	d5ffafff 	.word	0xffafffd5
80113848:	0effd5ff 	.word	0xffd5ff0e
8011384c:	51000eff 	.word	0xff0e0051
80113850:	baff99ff 	.word	0xff99ffba
80113854:	c700baff 	.word	0xffba00c7
80113858:	6700c700 	.word	0xc70067
8011385c:	95ff8700 	.word	0x87ff95
80113860:	efff2b00 	.word	0x2bffef
80113864:	51000eff 	.word	0xff0e0051
80113868:	46006700 	.word	0x670046
8011386c:	c7004600 	.word	0x4600c7
80113870:	99ffc700 	.word	0xc7ff99
80113874:	2b00afff 	.word	0xffaf002b
80113878:	0eff6b00 	.word	0x6bff0e
8011387c:	8700efff 	.word	0xffef0087
80113880:	57ff4700 	.word	0x47ff57
80113884:	efffa900 	.word	0xa9ffef
80113888:	b9ffefff 	.word	0xffefffb9
8011388c:	57ffb9ff 	.word	0xffb9ff57
80113890:	efff6b00 	.word	0x6bffef
80113894:	79ffefff 	.word	0xffefff79
80113898:	95ff79ff 	.word	0xff79ff95
8011389c:	efffa900 	.word	0xa9ffef
801138a0:	4700efff 	.word	0xffef0047
801138a4:	00000000 	nop
801138a8:	f5000000 	.word	0xf5
801138ac:	78ffa8ff 	.word	0xffa8ff78
801138b0:	00008800 	.word	0x880000
801138b4:	a8ffdeff 	.word	0xffdeffa8
801138b8:	afff0eff 	.word	0xff0effaf
801138bc:	deffa1ff 	.word	0xffa1ffde
801138c0:	f4fe0000 	.word	0xfef4
801138c4:	afff0eff 	.word	0xff0effaf
801138c8:	0000a1ff 	.word	0xffa10000
801138cc:	f4fe0000 	.word	0xfef4
801138d0:	51000eff 	.word	0xff0e0051
801138d4:	00005f00 	.word	0x5f0000
801138d8:	f4fe2200 	.word	0x22fef4
801138dc:	51000eff 	.word	0xff0e0051
801138e0:	22005f00 	sub	zero,v0,ra
801138e4:	f4fedeff 	.word	0xffdefef4
801138e8:	afff0eff 	.word	0xff0effaf
801138ec:	deffa1ff 	.word	0xffa1ffde
801138f0:	f4fe0000 	.word	0xfef4
801138f4:	afff0eff 	.word	0xff0effaf
801138f8:	0000a1ff 	.word	0xffa10000
801138fc:	f4fe0000 	.word	0xfef4
80113900:	51000eff 	.word	0xff0e0051
80113904:	00005f00 	.word	0x5f0000
80113908:	f4fe2200 	.word	0x22fef4
8011390c:	51000eff 	.word	0xff0e0051
80113910:	22005f00 	sub	zero,v0,ra
80113914:	f4fe3fff 	.word	0xff3ffef4
80113918:	54003600 	.word	0x360054
8011391c:	90ff9d00 	.word	0x9dff90
80113920:	36003fff 	.word	0xff3f0036
80113924:	acff3600 	.word	0x36ffac
80113928:	70009d00 	.word	0x9d0070
8011392c:	360090ff 	.word	0xff900036
80113930:	63ff3600 	.word	0x36ff63
80113934:	c1005400 	.word	0x5400c1
80113938:	3600c100 	.word	0xc10036
8011393c:	acff3600 	.word	0x36ffac
80113940:	700063ff 	.word	0xff630070
80113944:	36000000 	.word	0x36
80113948:	0000caff 	.word	0xffca0000
8011394c:	000059ff 	.word	0xff590000
80113950:	efff0000 	.word	0xffef
80113954:	46ff3600 	.word	0x36ff46
80113958:	000087ff 	.word	0xff870000
8011395c:	c7000000 	.word	0xc7
80113960:	a700efff 	.word	0xffef00a7
80113964:	0000ba00 	.word	0xba0000
80113968:	36000000 	.word	0x36
8011396c:	7900c700 	.word	0xc70079
80113970:	c1000000 	.word	0xc1
80113974:	efff3fff 	.word	0xff3fffef
80113978:	0000efff 	.word	0xffef0000
8011397c:	28ff0000 	.word	0xff28
80113980:	3600d800 	.word	0xd80036
80113984:	00003600 	.word	0x360000
80113988:	73ff0000 	.word	0xff73
8011398c:	c7008d00 	.word	0x8d00c7
80113990:	0000c700 	.word	0xc70000
80113994:	c000abff 	.word	0xffab00c0
80113998:	7e0094ff 	.word	0xff94007e
8011399c:	9c007e00 	.word	0x7e009c
801139a0:	6c0064ff 	.word	0xff64006c
801139a4:	7e0040ff 	.word	0xff40007e
801139a8:	55007e00 	.word	0x7e0055
801139ac:	2aff0000 	.word	0xff2a
801139b0:	7e000000 	.word	0x7e
801139b4:	48ff7e00 	.word	0x7eff48
801139b8:	94ff64ff 	.word	0xff64ff94
801139bc:	7e0040ff 	.word	0xff40007e
801139c0:	abff7e00 	.word	0x7effab
801139c4:	0000b800 	.word	0xb80000
801139c8:	7e00d600 	.word	0xd6007e
801139cc:	00007e00 	.word	0x7e0000
801139d0:	c0005500 	.word	0x5500c0
801139d4:	7e006c00 	.word	0x6c007e
801139d8:	9c007e00 	.word	0x7e009c
801139dc:	81ff3900 	.word	0x39ff81
801139e0:	c70098ff 	.word	0xff9800c7
801139e4:	4b0043ff 	.word	0xff43004b
801139e8:	81ffc7ff 	.word	0xffc7ff81
801139ec:	c70098ff 	.word	0xff9800c7
801139f0:	b5ff43ff 	.word	0xff43ffb5
801139f4:	7f003900 	.word	0x39007f
801139f8:	c7006800 	.word	0x6800c7
801139fc:	4b0043ff 	.word	0xff43004b
80113a00:	7f00c7ff 	.word	0xffc7007f
80113a04:	c7006800 	.word	0x6800c7
80113a08:	b5ff43ff 	.word	0xff43ffb5
80113a0c:	a300c0ff 	.word	0xffc000a3
80113a10:	a8ff5dff 	.word	0xff5dffa8
80113a14:	c0ffa8ff 	.word	0xffa8ffc0
80113a18:	a3004000 	.word	0x4000a3
80113a1c:	a8ff5dff 	.word	0xff5dffa8
80113a20:	4000a8ff 	.word	0xffa80040
80113a24:	7dff0000 	.word	0xff7d
80113a28:	71ff8300 	.word	0x83ff71
80113a2c:	000071ff 	.word	0xff710000
80113a30:	d5ff85ff 	.word	0xff85ffd5
80113a34:	0effd5ff 	.word	0xffd5ff0e
80113a38:	7b000eff 	.word	0xff0e007b
80113a3c:	baff99ff 	.word	0xff99ffba
80113a40:	c700baff 	.word	0xffba00c7
80113a44:	6700c700 	.word	0xc70067
80113a48:	91ff8b00 	.word	0x8bff91
80113a4c:	efff2b00 	.word	0x2bffef
80113a50:	7b000eff 	.word	0xff0e007b
80113a54:	46006700 	.word	0x670046
80113a58:	c7004600 	.word	0x4600c7
80113a5c:	99ffc700 	.word	0xc7ff99
80113a60:	2b0085ff 	.word	0xff85002b
80113a64:	0eff6f00 	.word	0x6fff0e
80113a68:	8b00efff 	.word	0xffef008b
80113a6c:	51ff4900 	.word	0x49ff51
80113a70:	efffaf00 	.word	0xafffef
80113a74:	b7ffefff 	.word	0xffefffb7
80113a78:	51ffb7ff 	.word	0xffb7ff51
80113a7c:	efff6f00 	.word	0x6fffef
80113a80:	75ffefff 	.word	0xffefff75
80113a84:	91ff75ff 	.word	0xff75ff91
80113a88:	efffaf00 	.word	0xafffef
80113a8c:	4900efff 	.word	0xffef0049
80113a90:	00000000 	nop
80113a94:	f5000000 	.word	0xf5
80113a98:	70ffa8ff 	.word	0xffa8ff70
80113a9c:	00009000 	.word	0x900000
80113aa0:	a8ffdeff 	.word	0xffdeffa8
80113aa4:	85ff0eff 	.word	0xff0eff85
80113aa8:	deff70ff 	.word	0xff70ffde
80113aac:	f4fe0000 	.word	0xfef4
80113ab0:	85ff0eff 	.word	0xff0eff85
80113ab4:	000070ff 	.word	0xff700000
80113ab8:	f4fe0000 	.word	0xfef4
80113abc:	7b000eff 	.word	0xff0e007b
80113ac0:	00009000 	.word	0x900000
80113ac4:	f4fe2200 	.word	0x22fef4
80113ac8:	7b000eff 	.word	0xff0e007b
80113acc:	22009000 	sub	zero,a0,s0
80113ad0:	f4fedeff 	.word	0xffdefef4
80113ad4:	85ff0eff 	.word	0xff0eff85
80113ad8:	deff70ff 	.word	0xff70ffde
80113adc:	f4fe0000 	.word	0xfef4
80113ae0:	85ff0eff 	.word	0xff0eff85
80113ae4:	000070ff 	.word	0xff700000
80113ae8:	f4fe0000 	.word	0xfef4
80113aec:	7b000eff 	.word	0xff0e007b
80113af0:	00009000 	.word	0x900000
80113af4:	f4fe2200 	.word	0x22fef4
80113af8:	7b000eff 	.word	0xff0e007b
80113afc:	22009000 	sub	zero,a0,s0
80113b00:	f4fe3aff 	.word	0xff3afef4
80113b04:	56003600 	.word	0x360056
80113b08:	8effa000 	.word	0xa0ff8e
80113b0c:	36003aff 	.word	0xff3a0036
80113b10:	aaff3600 	.word	0x36ffaa
80113b14:	7200a000 	.word	0xa00072
80113b18:	36008eff 	.word	0xff8e0036
80113b1c:	60ff3600 	.word	0x36ff60
80113b20:	c6005600 	.word	0x5600c6
80113b24:	3600c600 	.word	0xc60036
80113b28:	aaff3600 	.word	0x36ffaa
80113b2c:	720060ff 	.word	0xff600072
80113b30:	36000000 	.word	0x36
80113b34:	0000f9ff 	.word	0xfff90000
80113b38:	000053ff 	.word	0xff530000
80113b3c:	efff0000 	.word	0xffef
80113b40:	42ff3600 	.word	0x36ff42
80113b44:	000087ff 	.word	0xff870000
80113b48:	c7000000 	.word	0xc7
80113b4c:	ad00efff 	.word	0xffef00ad
80113b50:	0000be00 	.word	0xbe0000
80113b54:	36000000 	.word	0x36
80113b58:	7900c700 	.word	0xc70079
80113b5c:	c8000000 	.word	0xc8
80113b60:	efff38ff 	.word	0xff38ffef
80113b64:	0000efff 	.word	0xffef0000
80113b68:	23ff0000 	.word	0xff23
80113b6c:	3600dd00 	.word	0xdd0036
80113b70:	00003600 	.word	0x360000
80113b74:	73ff0000 	.word	0xff73
80113b78:	c7008d00 	.word	0x8d00c7
80113b7c:	0000c700 	.word	0xc70000
80113b80:	c000abff 	.word	0xffab00c0
80113b84:	7e0094ff 	.word	0xff94007e
80113b88:	9c007e00 	.word	0x7e009c
80113b8c:	6c0064ff 	.word	0xff64006c
80113b90:	7e0040ff 	.word	0xff40007e
80113b94:	55007e00 	.word	0x7e0055
80113b98:	2aff0000 	.word	0xff2a
80113b9c:	7e000000 	.word	0x7e
80113ba0:	48ff7e00 	.word	0x7eff48
80113ba4:	94ff64ff 	.word	0xff64ff94
80113ba8:	7e0040ff 	.word	0xff40007e
80113bac:	abff7e00 	.word	0x7effab
80113bb0:	0000b800 	.word	0xb80000
80113bb4:	7e00d600 	.word	0xd6007e
80113bb8:	00007e00 	.word	0x7e0000
80113bbc:	c0005500 	.word	0x5500c0
80113bc0:	7e006c00 	.word	0x6c007e
80113bc4:	9c007e00 	.word	0x7e009c
80113bc8:	81ff3900 	.word	0x39ff81
80113bcc:	c70098ff 	.word	0xff9800c7
80113bd0:	630043ff 	.word	0xff430063
80113bd4:	81ffc7ff 	.word	0xffc7ff81
80113bd8:	c70098ff 	.word	0xff9800c7
80113bdc:	9dff43ff 	.word	0xff43ff9d
80113be0:	7f003900 	.word	0x39007f
80113be4:	c7006800 	.word	0x6800c7
80113be8:	630043ff 	.word	0xff430063
80113bec:	7f00c7ff 	.word	0xffc7007f
80113bf0:	c7006800 	.word	0x6800c7
80113bf4:	9dff43ff 	.word	0xff43ff9d
80113bf8:	ab00bcff 	.word	0xffbc00ab
80113bfc:	a8ff55ff 	.word	0xff55ffa8
80113c00:	bcffa8ff 	.word	0xffa8ffbc
80113c04:	ab004400 	.word	0x4400ab
80113c08:	a8ff55ff 	.word	0xff55ffa8
80113c0c:	4400a8ff 	.word	0xffa80044
80113c10:	7dff0000 	.word	0xff7d
80113c14:	71ff8300 	.word	0x83ff71
80113c18:	000071ff 	.word	0xff710000
80113c1c:	d5ff5fff 	.word	0xff5fffd5
80113c20:	0effd5ff 	.word	0xffd5ff0e
80113c24:	a1000eff 	.word	0xff0e00a1
80113c28:	baff99ff 	.word	0xff99ffba
80113c2c:	c700baff 	.word	0xffba00c7
80113c30:	6700c700 	.word	0xc70067
80113c34:	8eff9000 	.word	0x90ff8e
80113c38:	efff2b00 	.word	0x2bffef
80113c3c:	a1000eff 	.word	0xff0e00a1
80113c40:	46006700 	.word	0x670046
80113c44:	c7004600 	.word	0x4600c7
80113c48:	99ffc700 	.word	0xc7ff99
80113c4c:	2b005fff 	.word	0xff5f002b
80113c50:	0eff7200 	.word	0x72ff0e
80113c54:	9000efff 	.word	0xffef0090
80113c58:	4cff4c00 	syscall	0x133fd
80113c5c:	efffb400 	.word	0xb4ffef
80113c60:	b4ffefff 	.word	0xffefffb4
80113c64:	4cffb4ff 	.word	0xffb4ff4c
80113c68:	efff7200 	.word	0x72ffef
80113c6c:	70ffefff 	.word	0xffefff70
80113c70:	8eff70ff 	.word	0xff70ff8e
80113c74:	efffb400 	.word	0xb4ffef
80113c78:	4c00efff 	.word	0xffef004c
80113c7c:	00000000 	nop
80113c80:	f5000000 	.word	0xf5
80113c84:	69ffa8ff 	.word	0xffa8ff69
80113c88:	00009700 	.word	0x970000
80113c8c:	a8ffdeff 	.word	0xffdeffa8
80113c90:	5fff0eff 	.word	0xff0eff5f
80113c94:	deff43ff 	.word	0xff43ffde
80113c98:	f4fe0000 	.word	0xfef4
80113c9c:	5fff0eff 	.word	0xff0eff5f
80113ca0:	000043ff 	.word	0xff430000
80113ca4:	f4fe0000 	.word	0xfef4
80113ca8:	a1000eff 	.word	0xff0e00a1
80113cac:	0000bd00 	.word	0xbd0000
80113cb0:	f4fe2200 	.word	0x22fef4
80113cb4:	a1000eff 	.word	0xff0e00a1
80113cb8:	2200bd00 	sub	zero,a1,sp
80113cbc:	f4fedeff 	.word	0xffdefef4
80113cc0:	5fff0eff 	.word	0xff0eff5f
80113cc4:	deff43ff 	.word	0xff43ffde
80113cc8:	f4fe0000 	.word	0xfef4
80113ccc:	5fff0eff 	.word	0xff0eff5f
80113cd0:	000043ff 	.word	0xff430000
80113cd4:	f4fe0000 	.word	0xfef4
80113cd8:	a1000eff 	.word	0xff0e00a1
80113cdc:	0000bd00 	.word	0xbd0000
80113ce0:	f4fe2200 	.word	0x22fef4
80113ce4:	a1000eff 	.word	0xff0e00a1
80113ce8:	2200bd00 	sub	zero,a1,sp
80113cec:	f4fe37ff 	.word	0xff37fef4
80113cf0:	58003600 	.word	0x360058
80113cf4:	8cffa300 	syscall	0x28ffe
80113cf8:	360037ff 	.word	0xff370036
80113cfc:	a8ff3600 	.word	0x36ffa8
80113d00:	7400a300 	.word	0xa30074
80113d04:	36008cff 	.word	0xff8c0036
80113d08:	5dff3600 	.word	0x36ff5d
80113d0c:	c9005800 	.word	0x5800c9
80113d10:	3600c900 	.word	0xc90036
80113d14:	a8ff3600 	.word	0x36ffa8
80113d18:	74005dff 	.word	0xff5d0074
80113d1c:	36000000 	.word	0x36
80113d20:	00002400 	.word	0x240000
80113d24:	00004eff 	.word	0xff4e0000
80113d28:	efff0000 	.word	0xffef
80113d2c:	3eff3600 	.word	0x36ff3e
80113d30:	000087ff 	.word	0xff870000
80113d34:	c7000000 	.word	0xc7
80113d38:	b200efff 	.word	0xffef00b2
80113d3c:	0000c200 	.word	0xc20000
80113d40:	36000000 	.word	0x36
80113d44:	7900c700 	.word	0xc70079
80113d48:	cf000000 	.word	0xcf
80113d4c:	efff31ff 	.word	0xff31ffef
80113d50:	0000efff 	.word	0xffef0000
80113d54:	1fff0000 	.word	0xff1f
80113d58:	3600e100 	.word	0xe10036
80113d5c:	00003600 	.word	0x360000
80113d60:	73ff0000 	.word	0xff73
80113d64:	c7008d00 	.word	0x8d00c7
80113d68:	0000c700 	.word	0xc70000
80113d6c:	c000abff 	.word	0xffab00c0
80113d70:	7e0094ff 	.word	0xff94007e
80113d74:	9c007e00 	.word	0x7e009c
80113d78:	6c0064ff 	.word	0xff64006c
80113d7c:	7e0040ff 	.word	0xff40007e
80113d80:	55007e00 	.word	0x7e0055
80113d84:	2aff0000 	.word	0xff2a
80113d88:	7e000000 	.word	0x7e
80113d8c:	48ff7e00 	.word	0x7eff48
80113d90:	94ff64ff 	.word	0xff64ff94
80113d94:	7e0040ff 	.word	0xff40007e
80113d98:	abff7e00 	.word	0x7effab
80113d9c:	0000b800 	.word	0xb80000
80113da0:	7e00d600 	.word	0xd6007e
80113da4:	00007e00 	.word	0x7e0000
80113da8:	c0005500 	.word	0x5500c0
80113dac:	7e006c00 	.word	0x6c007e
80113db0:	9c007e00 	.word	0x7e009c
80113db4:	81ff3900 	.word	0x39ff81
80113db8:	c70098ff 	.word	0xff9800c7
80113dbc:	740043ff 	.word	0xff430074
80113dc0:	81ffc7ff 	.word	0xffc7ff81
80113dc4:	c70098ff 	.word	0xff9800c7
80113dc8:	8cff43ff 	.word	0xff43ff8c
80113dcc:	7f003900 	.word	0x39007f
80113dd0:	c7006800 	.word	0x6800c7
80113dd4:	740043ff 	.word	0xff430074
80113dd8:	7f00c7ff 	.word	0xffc7007f
80113ddc:	c7006800 	.word	0x6800c7
80113de0:	8cff43ff 	.word	0xff43ff8c
80113de4:	b100baff 	.word	0xffba00b1
80113de8:	a8ff4fff 	.word	0xff4fffa8
80113dec:	baffa8ff 	.word	0xffa8ffba
80113df0:	b1004600 	.word	0x4600b1
80113df4:	a8ff4fff 	.word	0xff4fffa8
80113df8:	4600a8ff 	.word	0xffa80046
80113dfc:	7dff0000 	.word	0xff7d
80113e00:	71ff8300 	.word	0x83ff71
80113e04:	000071ff 	.word	0xff710000
80113e08:	d5ff43ff 	.word	0xff43ffd5
80113e0c:	0effd5ff 	.word	0xffd5ff0e
80113e10:	bd000eff 	.word	0xff0e00bd
80113e14:	baff99ff 	.word	0xff99ffba
80113e18:	c700baff 	.word	0xffba00c7
80113e1c:	6700c700 	.word	0xc70067
80113e20:	8bff9300 	.word	0x93ff8b
80113e24:	efff2b00 	.word	0x2bffef
80113e28:	bd000eff 	.word	0xff0e00bd
80113e2c:	46006700 	.word	0x670046
80113e30:	c7004600 	.word	0x4600c7
80113e34:	99ffc700 	.word	0xc7ff99
80113e38:	2b0043ff 	.word	0xff43002b
80113e3c:	0eff7500 	.word	0x75ff0e
80113e40:	9300efff 	.word	0xffef0093
80113e44:	48ff4d00 	.word	0x4dff48
80113e48:	efffb800 	.word	0xb8ffef
80113e4c:	b3ffefff 	.word	0xffefffb3
80113e50:	48ffb3ff 	.word	0xffb3ff48
80113e54:	efff7500 	.word	0x75ffef
80113e58:	6dffefff 	.word	0xffefff6d
80113e5c:	8bff6dff 	.word	0xff6dff8b
80113e60:	efffb800 	.word	0xb8ffef
80113e64:	4d00efff 	.word	0xffef004d
80113e68:	00000000 	nop
80113e6c:	f5000000 	.word	0xf5
80113e70:	63ffa8ff 	.word	0xffa8ff63
80113e74:	00009d00 	.word	0x9d0000
80113e78:	a8ffdeff 	.word	0xffdeffa8
80113e7c:	43ff0eff 	.word	0xff0eff43
80113e80:	deff22ff 	.word	0xff22ffde
80113e84:	f4fe0000 	.word	0xfef4
80113e88:	43ff0eff 	.word	0xff0eff43
80113e8c:	000022ff 	.word	0xff220000
80113e90:	f4fe0000 	.word	0xfef4
80113e94:	bd000eff 	.word	0xff0e00bd
80113e98:	0000de00 	.word	0xde0000
80113e9c:	f4fe2200 	.word	0x22fef4
80113ea0:	bd000eff 	.word	0xff0e00bd
80113ea4:	2200de00 	sub	zero,a2,s8
80113ea8:	f4fedeff 	.word	0xffdefef4
80113eac:	43ff0eff 	.word	0xff0eff43
80113eb0:	deff22ff 	.word	0xff22ffde
80113eb4:	f4fe0000 	.word	0xfef4
80113eb8:	43ff0eff 	.word	0xff0eff43
80113ebc:	000022ff 	.word	0xff220000
80113ec0:	f4fe0000 	.word	0xfef4
80113ec4:	bd000eff 	.word	0xff0e00bd
80113ec8:	0000de00 	.word	0xde0000
80113ecc:	f4fe2200 	.word	0x22fef4
80113ed0:	bd000eff 	.word	0xff0e00bd
80113ed4:	2200de00 	sub	zero,a2,s8
80113ed8:	f4fe34ff 	.word	0xff34fef4
80113edc:	59003600 	.word	0x360059
80113ee0:	8affa500 	.word	0xa5ff8a
80113ee4:	360034ff 	.word	0xff340036
80113ee8:	a7ff3600 	.word	0x36ffa7
80113eec:	7600a500 	.word	0xa50076
80113ef0:	36008aff 	.word	0xff8a0036
80113ef4:	5bff3600 	.word	0x36ff5b
80113ef8:	cc005900 	syscall	0x16403
80113efc:	3600cc00 	.word	0xcc0036
80113f00:	a7ff3600 	.word	0x36ffa7
80113f04:	76005bff 	.word	0xff5b0076
80113f08:	36000000 	.word	0x36
80113f0c:	00004400 	.word	0x440000
80113f10:	00004aff 	.word	0xff4a0000
80113f14:	efff0000 	.word	0xffef
80113f18:	3bff3600 	.word	0x36ff3b
80113f1c:	000087ff 	.word	0xff870000
80113f20:	c7000000 	.word	0xc7
80113f24:	b600efff 	.word	0xffef00b6
80113f28:	0000c500 	.word	0xc50000
80113f2c:	36000000 	.word	0x36
80113f30:	7900c700 	.word	0xc70079
80113f34:	d4000000 	.word	0xd4
80113f38:	efff2cff 	.word	0xff2cffef
80113f3c:	0000efff 	.word	0xffef0000
80113f40:	1cff0000 	.word	0xff1c
80113f44:	3600e400 	.word	0xe40036
80113f48:	00003600 	.word	0x360000
80113f4c:	73ff0000 	.word	0xff73
80113f50:	c7008d00 	.word	0x8d00c7
80113f54:	0000c700 	.word	0xc70000
80113f58:	c000abff 	.word	0xffab00c0
80113f5c:	7e0094ff 	.word	0xff94007e
80113f60:	9c007e00 	.word	0x7e009c
80113f64:	6c0064ff 	.word	0xff64006c
80113f68:	7e0040ff 	.word	0xff40007e
80113f6c:	55007e00 	.word	0x7e0055
80113f70:	2aff0000 	.word	0xff2a
80113f74:	7e000000 	.word	0x7e
80113f78:	48ff7e00 	.word	0x7eff48
80113f7c:	94ff64ff 	.word	0xff64ff94
80113f80:	7e0040ff 	.word	0xff40007e
80113f84:	abff7e00 	.word	0x7effab
80113f88:	0000b800 	.word	0xb80000
80113f8c:	7e00d600 	.word	0xd6007e
80113f90:	00007e00 	.word	0x7e0000
80113f94:	c0005500 	.word	0x5500c0
80113f98:	7e006c00 	.word	0x6c007e
80113f9c:	9c007e00 	.word	0x7e009c
80113fa0:	81ff3900 	.word	0x39ff81
80113fa4:	c70098ff 	.word	0xff9800c7
80113fa8:	7b0043ff 	.word	0xff43007b
80113fac:	81ffc7ff 	.word	0xffc7ff81
80113fb0:	c70098ff 	.word	0xff9800c7
80113fb4:	85ff43ff 	.word	0xff43ff85
80113fb8:	7f003900 	.word	0x39007f
80113fbc:	c7006800 	.word	0x6800c7
80113fc0:	7b0043ff 	.word	0xff43007b
80113fc4:	7f00c7ff 	.word	0xffc7007f
80113fc8:	c7006800 	.word	0x6800c7
80113fcc:	85ff43ff 	.word	0xff43ff85
80113fd0:	b400b9ff 	.word	0xffb900b4
80113fd4:	a8ff4cff 	.word	0xff4cffa8
80113fd8:	b9ffa8ff 	.word	0xffa8ffb9
80113fdc:	b4004700 	.word	0x4700b4
80113fe0:	a8ff4cff 	.word	0xff4cffa8
80113fe4:	4700a8ff 	.word	0xffa80047
80113fe8:	7dff0000 	.word	0xff7d
80113fec:	71ff8300 	.word	0x83ff71
80113ff0:	000071ff 	.word	0xff710000
80113ff4:	d5ff38ff 	.word	0xff38ffd5
80113ff8:	0effd5ff 	.word	0xffd5ff0e
80113ffc:	c8000eff 	.word	0xff0e00c8
80114000:	baff99ff 	.word	0xff99ffba
80114004:	c700baff 	.word	0xffba00c7
80114008:	6700c700 	.word	0xc70067
8011400c:	8aff9400 	.word	0x94ff8a
80114010:	efff2b00 	.word	0x2bffef
80114014:	c8000eff 	.word	0xff0e00c8
80114018:	46006700 	.word	0x670046
8011401c:	c7004600 	.word	0x4600c7
80114020:	99ffc700 	.word	0xc7ff99
80114024:	2b0038ff 	.word	0xff38002b
80114028:	0eff7600 	.word	0x76ff0e
8011402c:	9400efff 	.word	0xffef0094
80114030:	46ff4e00 	.word	0x4eff46
80114034:	efffba00 	.word	0xbaffef
80114038:	b2ffefff 	.word	0xffefffb2
8011403c:	46ffb2ff 	.word	0xffb2ff46
80114040:	efff7600 	.word	0x76ffef
80114044:	6cffefff 	.word	0xffefff6c
80114048:	8aff6cff 	.word	0xff6cff8a
8011404c:	efffba00 	.word	0xbaffef
80114050:	4e00efff 	.word	0xffef004e
80114054:	00000000 	nop
80114058:	f5000000 	.word	0xf5
8011405c:	61ffa8ff 	.word	0xffa8ff61
80114060:	00009f00 	.word	0x9f0000
80114064:	a8ffdeff 	.word	0xffdeffa8
80114068:	38ff0eff 	.word	0xff0eff38
8011406c:	deff15ff 	.word	0xff15ffde
80114070:	f4fe0000 	.word	0xfef4
80114074:	38ff0eff 	.word	0xff0eff38
80114078:	000015ff 	.word	0xff150000
8011407c:	f4fe0000 	.word	0xfef4
80114080:	c8000eff 	.word	0xff0e00c8
80114084:	0000eb00 	.word	0xeb0000
80114088:	f4fe2200 	.word	0x22fef4
8011408c:	c8000eff 	.word	0xff0e00c8
80114090:	2200eb00 	sub	zero,a3,t3
80114094:	f4fedeff 	.word	0xffdefef4
80114098:	38ff0eff 	.word	0xff0eff38
8011409c:	deff15ff 	.word	0xff15ffde
801140a0:	f4fe0000 	.word	0xfef4
801140a4:	38ff0eff 	.word	0xff0eff38
801140a8:	000015ff 	.word	0xff150000
801140ac:	f4fe0000 	.word	0xfef4
801140b0:	c8000eff 	.word	0xff0e00c8
801140b4:	0000eb00 	.word	0xeb0000
801140b8:	f4fe2200 	.word	0x22fef4
801140bc:	c8000eff 	.word	0xff0e00c8
801140c0:	2200eb00 	sub	zero,a3,t3
801140c4:	f4fe33ff 	.word	0xff33fef4
801140c8:	59003600 	.word	0x360059
801140cc:	8affa600 	.word	0xa6ff8a
801140d0:	360033ff 	.word	0xff330036
801140d4:	a7ff3600 	.word	0x36ffa7
801140d8:	7600a600 	.word	0xa60076
801140dc:	36008aff 	.word	0xff8a0036
801140e0:	5aff3600 	.word	0x36ff5a
801140e4:	cd005900 	break	0x59,0x3
801140e8:	3600cd00 	.word	0xcd0036
801140ec:	a7ff3600 	.word	0x36ffa7
801140f0:	76005aff 	.word	0xff5a0076
801140f4:	36000000 	.word	0x36
801140f8:	00005000 	.word	0x500000
801140fc:	000048ff 	.word	0xff480000
80114100:	efff0000 	.word	0xffef
80114104:	3aff3600 	.word	0x36ff3a
80114108:	000087ff 	.word	0xff870000
8011410c:	c7000000 	.word	0xc7
80114110:	b800efff 	.word	0xffef00b8
80114114:	0000c600 	.word	0xc60000
80114118:	36000000 	.word	0x36
8011411c:	7900c700 	.word	0xc70079
80114120:	d5000000 	.word	0xd5
80114124:	efff2bff 	.word	0xff2bffef
80114128:	0000efff 	.word	0xffef0000
8011412c:	1bff0000 	.word	0xff1b
80114130:	3600e500 	.word	0xe50036
80114134:	00003600 	.word	0x360000
80114138:	73ff0000 	.word	0xff73
8011413c:	c7008d00 	.word	0x8d00c7
80114140:	0000c700 	.word	0xc70000
80114144:	c000abff 	.word	0xffab00c0
80114148:	7e0094ff 	.word	0xff94007e
8011414c:	9c007e00 	.word	0x7e009c
80114150:	6c0064ff 	.word	0xff64006c
80114154:	7e0040ff 	.word	0xff40007e
80114158:	55007e00 	.word	0x7e0055
8011415c:	2aff0000 	.word	0xff2a
80114160:	7e000000 	.word	0x7e
80114164:	48ff7e00 	.word	0x7eff48
80114168:	94ff64ff 	.word	0xff64ff94
8011416c:	7e0040ff 	.word	0xff40007e
80114170:	abff7e00 	.word	0x7effab
80114174:	0000b800 	.word	0xb80000
80114178:	7e00d600 	.word	0xd6007e
8011417c:	00007e00 	.word	0x7e0000
80114180:	c0005500 	.word	0x5500c0
80114184:	7e006c00 	.word	0x6c007e
80114188:	9c007e00 	.word	0x7e009c
8011418c:	c8c11180 	lb	s1,-15928(zero)
80114190:	b4c31180 	lb	s1,-15436(zero)
80114194:	a0c51180 	lb	s1,-14944(zero)
80114198:	8cc71180 	lb	s1,-14452(zero)
8011419c:	78c91180 	lb	s1,-13960(zero)
801141a0:	64cb1180 	lb	s1,-13468(zero)
801141a4:	50cd1180 	lb	s1,-12976(zero)
801141a8:	3ccf1180 	lb	s1,-12484(zero)
801141ac:	81ff3900 	.word	0x39ff81
801141b0:	c70098ff 	.word	0xff9800c7
801141b4:	740043ff 	.word	0xff430074
801141b8:	81ffc7ff 	.word	0xffc7ff81
801141bc:	c70098ff 	.word	0xff9800c7
801141c0:	8cff43ff 	.word	0xff43ff8c
801141c4:	7f003900 	.word	0x39007f
801141c8:	c7006800 	.word	0x6800c7
801141cc:	740043ff 	.word	0xff430074
801141d0:	7f00c7ff 	.word	0xffc7007f
801141d4:	c7006800 	.word	0x6800c7
801141d8:	8cff43ff 	.word	0xff43ff8c
801141dc:	b100baff 	.word	0xffba00b1
801141e0:	a8ff4fff 	.word	0xff4fffa8
801141e4:	baffa8ff 	.word	0xffa8ffba
801141e8:	b1004600 	.word	0x4600b1
801141ec:	a8ff4fff 	.word	0xff4fffa8
801141f0:	4600a8ff 	.word	0xffa80046
801141f4:	7dff0000 	.word	0xff7d
801141f8:	71ff8300 	.word	0x83ff71
801141fc:	000071ff 	.word	0xff710000
80114200:	d5ff43ff 	.word	0xff43ffd5
80114204:	0effd5ff 	.word	0xffd5ff0e
80114208:	bd000eff 	.word	0xff0e00bd
8011420c:	baff99ff 	.word	0xff99ffba
80114210:	c700baff 	.word	0xffba00c7
80114214:	6700c700 	.word	0xc70067
80114218:	8bff9300 	.word	0x93ff8b
8011421c:	efff2b00 	.word	0x2bffef
80114220:	bd000eff 	.word	0xff0e00bd
80114224:	46006700 	.word	0x670046
80114228:	c7004600 	.word	0x4600c7
8011422c:	99ffc700 	.word	0xc7ff99
80114230:	2b0043ff 	.word	0xff43002b
80114234:	0eff7500 	.word	0x75ff0e
80114238:	9300efff 	.word	0xffef0093
8011423c:	48ff4d00 	.word	0x4dff48
80114240:	efffb800 	.word	0xb8ffef
80114244:	b3ffefff 	.word	0xffefffb3
80114248:	48ffb3ff 	.word	0xffb3ff48
8011424c:	efff7500 	.word	0x75ffef
80114250:	6dffefff 	.word	0xffefff6d
80114254:	8bff6dff 	.word	0xff6dff8b
80114258:	efffb800 	.word	0xb8ffef
8011425c:	4d00efff 	.word	0xffef004d
80114260:	00000000 	nop
80114264:	f5000000 	.word	0xf5
80114268:	63ffa8ff 	.word	0xffa8ff63
8011426c:	00009d00 	.word	0x9d0000
80114270:	a8ffdeff 	.word	0xffdeffa8
80114274:	43ff0eff 	.word	0xff0eff43
80114278:	deff22ff 	.word	0xff22ffde
8011427c:	f4fe0000 	.word	0xfef4
80114280:	43ff0eff 	.word	0xff0eff43
80114284:	000022ff 	.word	0xff220000
80114288:	f4fe0000 	.word	0xfef4
8011428c:	bd000eff 	.word	0xff0e00bd
80114290:	0000de00 	.word	0xde0000
80114294:	f4fe2200 	.word	0x22fef4
80114298:	bd000eff 	.word	0xff0e00bd
8011429c:	2200de00 	sub	zero,a2,s8
801142a0:	f4fedeff 	.word	0xffdefef4
801142a4:	43ff0eff 	.word	0xff0eff43
801142a8:	deff22ff 	.word	0xff22ffde
801142ac:	f4fe0000 	.word	0xfef4
801142b0:	43ff0eff 	.word	0xff0eff43
801142b4:	000022ff 	.word	0xff220000
801142b8:	f4fe0000 	.word	0xfef4
801142bc:	bd000eff 	.word	0xff0e00bd
801142c0:	0000de00 	.word	0xde0000
801142c4:	f4fe2200 	.word	0x22fef4
801142c8:	bd000eff 	.word	0xff0e00bd
801142cc:	2200de00 	sub	zero,a2,s8
801142d0:	f4fe34ff 	.word	0xff34fef4
801142d4:	59003600 	.word	0x360059
801142d8:	8affa500 	.word	0xa5ff8a
801142dc:	360034ff 	.word	0xff340036
801142e0:	a7ff3600 	.word	0x36ffa7
801142e4:	7600a500 	.word	0xa50076
801142e8:	36008aff 	.word	0xff8a0036
801142ec:	5bff3600 	.word	0x36ff5b
801142f0:	cc005900 	syscall	0x16403
801142f4:	3600cc00 	.word	0xcc0036
801142f8:	a7ff3600 	.word	0x36ffa7
801142fc:	76005bff 	.word	0xff5b0076
80114300:	36000000 	.word	0x36
80114304:	00004400 	.word	0x440000
80114308:	00004aff 	.word	0xff4a0000
8011430c:	efff0000 	.word	0xffef
80114310:	3bff3600 	.word	0x36ff3b
80114314:	000087ff 	.word	0xff870000
80114318:	c7000000 	.word	0xc7
8011431c:	b600efff 	.word	0xffef00b6
80114320:	0000c500 	.word	0xc50000
80114324:	36000000 	.word	0x36
80114328:	7900c700 	.word	0xc70079
8011432c:	d4000000 	.word	0xd4
80114330:	efff2cff 	.word	0xff2cffef
80114334:	0000efff 	.word	0xffef0000
80114338:	1cff0000 	.word	0xff1c
8011433c:	3600e400 	.word	0xe40036
80114340:	00003600 	.word	0x360000
80114344:	73ff0000 	.word	0xff73
80114348:	c7008d00 	.word	0x8d00c7
8011434c:	0000c700 	.word	0xc70000
80114350:	c000abff 	.word	0xffab00c0
80114354:	7e0094ff 	.word	0xff94007e
80114358:	9c007e00 	.word	0x7e009c
8011435c:	6c0064ff 	.word	0xff64006c
80114360:	7e0040ff 	.word	0xff40007e
80114364:	55007e00 	.word	0x7e0055
80114368:	2aff0000 	.word	0xff2a
8011436c:	7e000000 	.word	0x7e
80114370:	48ff7e00 	.word	0x7eff48
80114374:	94ff64ff 	.word	0xff64ff94
80114378:	7e0040ff 	.word	0xff40007e
8011437c:	abff7e00 	.word	0x7effab
80114380:	0000b800 	.word	0xb80000
80114384:	7e00d600 	.word	0xd6007e
80114388:	00007e00 	.word	0x7e0000
8011438c:	c0005500 	.word	0x5500c0
80114390:	7e006c00 	.word	0x6c007e
80114394:	9c007e00 	.word	0x7e009c
80114398:	81ff3900 	.word	0x39ff81
8011439c:	c70098ff 	.word	0xff9800c7
801143a0:	630043ff 	.word	0xff430063
801143a4:	81ffc7ff 	.word	0xffc7ff81
801143a8:	c70098ff 	.word	0xff9800c7
801143ac:	9dff43ff 	.word	0xff43ff9d
801143b0:	7f003900 	.word	0x39007f
801143b4:	c7006800 	.word	0x6800c7
801143b8:	630043ff 	.word	0xff430063
801143bc:	7f00c7ff 	.word	0xffc7007f
801143c0:	c7006800 	.word	0x6800c7
801143c4:	9dff43ff 	.word	0xff43ff9d
801143c8:	ab00bcff 	.word	0xffbc00ab
801143cc:	a8ff55ff 	.word	0xff55ffa8
801143d0:	bcffa8ff 	.word	0xffa8ffbc
801143d4:	ab004400 	.word	0x4400ab
801143d8:	a8ff55ff 	.word	0xff55ffa8
801143dc:	4400a8ff 	.word	0xffa80044
801143e0:	7dff0000 	.word	0xff7d
801143e4:	71ff8300 	.word	0x83ff71
801143e8:	000071ff 	.word	0xff710000
801143ec:	d5ff5fff 	.word	0xff5fffd5
801143f0:	0effd5ff 	.word	0xffd5ff0e
801143f4:	a1000eff 	.word	0xff0e00a1
801143f8:	baff99ff 	.word	0xff99ffba
801143fc:	c700baff 	.word	0xffba00c7
80114400:	6700c700 	.word	0xc70067
80114404:	8eff9000 	.word	0x90ff8e
80114408:	efff2b00 	.word	0x2bffef
8011440c:	a1000eff 	.word	0xff0e00a1
80114410:	46006700 	.word	0x670046
80114414:	c7004600 	.word	0x4600c7
80114418:	99ffc700 	.word	0xc7ff99
8011441c:	2b005fff 	.word	0xff5f002b
80114420:	0eff7200 	.word	0x72ff0e
80114424:	9000efff 	.word	0xffef0090
80114428:	4cff4c00 	syscall	0x133fd
8011442c:	efffb400 	.word	0xb4ffef
80114430:	b4ffefff 	.word	0xffefffb4
80114434:	4cffb4ff 	.word	0xffb4ff4c
80114438:	efff7200 	.word	0x72ffef
8011443c:	70ffefff 	.word	0xffefff70
80114440:	8eff70ff 	.word	0xff70ff8e
80114444:	efffb400 	.word	0xb4ffef
80114448:	4c00efff 	.word	0xffef004c
8011444c:	00000000 	nop
80114450:	f5000000 	.word	0xf5
80114454:	69ffa8ff 	.word	0xffa8ff69
80114458:	00009700 	.word	0x970000
8011445c:	a8ffdeff 	.word	0xffdeffa8
80114460:	5fff0eff 	.word	0xff0eff5f
80114464:	deff43ff 	.word	0xff43ffde
80114468:	f4fe0000 	.word	0xfef4
8011446c:	5fff0eff 	.word	0xff0eff5f
80114470:	000043ff 	.word	0xff430000
80114474:	f4fe0000 	.word	0xfef4
80114478:	a1000eff 	.word	0xff0e00a1
8011447c:	0000bd00 	.word	0xbd0000
80114480:	f4fe2200 	.word	0x22fef4
80114484:	a1000eff 	.word	0xff0e00a1
80114488:	2200bd00 	sub	zero,a1,sp
8011448c:	f4fedeff 	.word	0xffdefef4
80114490:	5fff0eff 	.word	0xff0eff5f
80114494:	deff43ff 	.word	0xff43ffde
80114498:	f4fe0000 	.word	0xfef4
8011449c:	5fff0eff 	.word	0xff0eff5f
801144a0:	000043ff 	.word	0xff430000
801144a4:	f4fe0000 	.word	0xfef4
801144a8:	a1000eff 	.word	0xff0e00a1
801144ac:	0000bd00 	.word	0xbd0000
801144b0:	f4fe2200 	.word	0x22fef4
801144b4:	a1000eff 	.word	0xff0e00a1
801144b8:	2200bd00 	sub	zero,a1,sp
801144bc:	f4fe37ff 	.word	0xff37fef4
801144c0:	58003600 	.word	0x360058
801144c4:	8cffa300 	syscall	0x28ffe
801144c8:	360037ff 	.word	0xff370036
801144cc:	a8ff3600 	.word	0x36ffa8
801144d0:	7400a300 	.word	0xa30074
801144d4:	36008cff 	.word	0xff8c0036
801144d8:	5dff3600 	.word	0x36ff5d
801144dc:	c9005800 	.word	0x5800c9
801144e0:	3600c900 	.word	0xc90036
801144e4:	a8ff3600 	.word	0x36ffa8
801144e8:	74005dff 	.word	0xff5d0074
801144ec:	36000000 	.word	0x36
801144f0:	00002400 	.word	0x240000
801144f4:	00004eff 	.word	0xff4e0000
801144f8:	efff0000 	.word	0xffef
801144fc:	3eff3600 	.word	0x36ff3e
80114500:	000087ff 	.word	0xff870000
80114504:	c7000000 	.word	0xc7
80114508:	b200efff 	.word	0xffef00b2
8011450c:	0000c200 	.word	0xc20000
80114510:	36000000 	.word	0x36
80114514:	7900c700 	.word	0xc70079
80114518:	cf000000 	.word	0xcf
8011451c:	efff31ff 	.word	0xff31ffef
80114520:	0000efff 	.word	0xffef0000
80114524:	1fff0000 	.word	0xff1f
80114528:	3600e100 	.word	0xe10036
8011452c:	00003600 	.word	0x360000
80114530:	73ff0000 	.word	0xff73
80114534:	c7008d00 	.word	0x8d00c7
80114538:	0000c700 	.word	0xc70000
8011453c:	c000abff 	.word	0xffab00c0
80114540:	7e0094ff 	.word	0xff94007e
80114544:	9c007e00 	.word	0x7e009c
80114548:	6c0064ff 	.word	0xff64006c
8011454c:	7e0040ff 	.word	0xff40007e
80114550:	55007e00 	.word	0x7e0055
80114554:	2aff0000 	.word	0xff2a
80114558:	7e000000 	.word	0x7e
8011455c:	48ff7e00 	.word	0x7eff48
80114560:	94ff64ff 	.word	0xff64ff94
80114564:	7e0040ff 	.word	0xff40007e
80114568:	abff7e00 	.word	0x7effab
8011456c:	0000b800 	.word	0xb80000
80114570:	7e00d600 	.word	0xd6007e
80114574:	00007e00 	.word	0x7e0000
80114578:	c0005500 	.word	0x5500c0
8011457c:	7e006c00 	.word	0x6c007e
80114580:	9c007e00 	.word	0x7e009c
80114584:	81ff3900 	.word	0x39ff81
80114588:	c70098ff 	.word	0xff9800c7
8011458c:	4b0043ff 	.word	0xff43004b
80114590:	81ffc7ff 	.word	0xffc7ff81
80114594:	c70098ff 	.word	0xff9800c7
80114598:	b5ff43ff 	.word	0xff43ffb5
8011459c:	7f003900 	.word	0x39007f
801145a0:	c7006800 	.word	0x6800c7
801145a4:	4b0043ff 	.word	0xff43004b
801145a8:	7f00c7ff 	.word	0xffc7007f
801145ac:	c7006800 	.word	0x6800c7
801145b0:	b5ff43ff 	.word	0xff43ffb5
801145b4:	a300c0ff 	.word	0xffc000a3
801145b8:	a8ff5dff 	.word	0xff5dffa8
801145bc:	c0ffa8ff 	.word	0xffa8ffc0
801145c0:	a3004000 	.word	0x4000a3
801145c4:	a8ff5dff 	.word	0xff5dffa8
801145c8:	4000a8ff 	.word	0xffa80040
801145cc:	7dff0000 	.word	0xff7d
801145d0:	71ff8300 	.word	0x83ff71
801145d4:	000071ff 	.word	0xff710000
801145d8:	d5ff85ff 	.word	0xff85ffd5
801145dc:	0effd5ff 	.word	0xffd5ff0e
801145e0:	7b000eff 	.word	0xff0e007b
801145e4:	baff99ff 	.word	0xff99ffba
801145e8:	c700baff 	.word	0xffba00c7
801145ec:	6700c700 	.word	0xc70067
801145f0:	91ff8b00 	.word	0x8bff91
801145f4:	efff2b00 	.word	0x2bffef
801145f8:	7b000eff 	.word	0xff0e007b
801145fc:	46006700 	.word	0x670046
80114600:	c7004600 	.word	0x4600c7
80114604:	99ffc700 	.word	0xc7ff99
80114608:	2b0085ff 	.word	0xff85002b
8011460c:	0eff6f00 	.word	0x6fff0e
80114610:	8b00efff 	.word	0xffef008b
80114614:	51ff4900 	.word	0x49ff51
80114618:	efffaf00 	.word	0xafffef
8011461c:	b7ffefff 	.word	0xffefffb7
80114620:	51ffb7ff 	.word	0xffb7ff51
80114624:	efff6f00 	.word	0x6fffef
80114628:	75ffefff 	.word	0xffefff75
8011462c:	91ff75ff 	.word	0xff75ff91
80114630:	efffaf00 	.word	0xafffef
80114634:	4900efff 	.word	0xffef0049
80114638:	00000000 	nop
8011463c:	f5000000 	.word	0xf5
80114640:	70ffa8ff 	.word	0xffa8ff70
80114644:	00009000 	.word	0x900000
80114648:	a8ffdeff 	.word	0xffdeffa8
8011464c:	85ff0eff 	.word	0xff0eff85
80114650:	deff70ff 	.word	0xff70ffde
80114654:	f4fe0000 	.word	0xfef4
80114658:	85ff0eff 	.word	0xff0eff85
8011465c:	000070ff 	.word	0xff700000
80114660:	f4fe0000 	.word	0xfef4
80114664:	7b000eff 	.word	0xff0e007b
80114668:	00009000 	.word	0x900000
8011466c:	f4fe2200 	.word	0x22fef4
80114670:	7b000eff 	.word	0xff0e007b
80114674:	22009000 	sub	zero,a0,s0
80114678:	f4fedeff 	.word	0xffdefef4
8011467c:	85ff0eff 	.word	0xff0eff85
80114680:	deff70ff 	.word	0xff70ffde
80114684:	f4fe0000 	.word	0xfef4
80114688:	85ff0eff 	.word	0xff0eff85
8011468c:	000070ff 	.word	0xff700000
80114690:	f4fe0000 	.word	0xfef4
80114694:	7b000eff 	.word	0xff0e007b
80114698:	00009000 	.word	0x900000
8011469c:	f4fe2200 	.word	0x22fef4
801146a0:	7b000eff 	.word	0xff0e007b
801146a4:	22009000 	sub	zero,a0,s0
801146a8:	f4fe3aff 	.word	0xff3afef4
801146ac:	56003600 	.word	0x360056
801146b0:	8effa000 	.word	0xa0ff8e
801146b4:	36003aff 	.word	0xff3a0036
801146b8:	aaff3600 	.word	0x36ffaa
801146bc:	7200a000 	.word	0xa00072
801146c0:	36008eff 	.word	0xff8e0036
801146c4:	60ff3600 	.word	0x36ff60
801146c8:	c6005600 	.word	0x5600c6
801146cc:	3600c600 	.word	0xc60036
801146d0:	aaff3600 	.word	0x36ffaa
801146d4:	720060ff 	.word	0xff600072
801146d8:	36000000 	.word	0x36
801146dc:	0000f9ff 	.word	0xfff90000
801146e0:	000053ff 	.word	0xff530000
801146e4:	efff0000 	.word	0xffef
801146e8:	42ff3600 	.word	0x36ff42
801146ec:	000087ff 	.word	0xff870000
801146f0:	c7000000 	.word	0xc7
801146f4:	ad00efff 	.word	0xffef00ad
801146f8:	0000be00 	.word	0xbe0000
801146fc:	36000000 	.word	0x36
80114700:	7900c700 	.word	0xc70079
80114704:	c8000000 	.word	0xc8
80114708:	efff38ff 	.word	0xff38ffef
8011470c:	0000efff 	.word	0xffef0000
80114710:	23ff0000 	.word	0xff23
80114714:	3600dd00 	.word	0xdd0036
80114718:	00003600 	.word	0x360000
8011471c:	73ff0000 	.word	0xff73
80114720:	c7008d00 	.word	0x8d00c7
80114724:	0000c700 	.word	0xc70000
80114728:	c000abff 	.word	0xffab00c0
8011472c:	7e0094ff 	.word	0xff94007e
80114730:	9c007e00 	.word	0x7e009c
80114734:	6c0064ff 	.word	0xff64006c
80114738:	7e0040ff 	.word	0xff40007e
8011473c:	55007e00 	.word	0x7e0055
80114740:	2aff0000 	.word	0xff2a
80114744:	7e000000 	.word	0x7e
80114748:	48ff7e00 	.word	0x7eff48
8011474c:	94ff64ff 	.word	0xff64ff94
80114750:	7e0040ff 	.word	0xff40007e
80114754:	abff7e00 	.word	0x7effab
80114758:	0000b800 	.word	0xb80000
8011475c:	7e00d600 	.word	0xd6007e
80114760:	00007e00 	.word	0x7e0000
80114764:	c0005500 	.word	0x5500c0
80114768:	7e006c00 	.word	0x6c007e
8011476c:	9c007e00 	.word	0x7e009c
80114770:	81ff3900 	.word	0x39ff81
80114774:	c70098ff 	.word	0xff9800c7
80114778:	310043ff 	.word	0xff430031
8011477c:	81ffc7ff 	.word	0xffc7ff81
80114780:	c70098ff 	.word	0xff9800c7
80114784:	cfff43ff 	.word	0xff43ffcf
80114788:	7f003900 	.word	0x39007f
8011478c:	c7006800 	.word	0x6800c7
80114790:	310043ff 	.word	0xff430031
80114794:	7f00c7ff 	.word	0xffc7007f
80114798:	c7006800 	.word	0x6800c7
8011479c:	cfff43ff 	.word	0xff43ffcf
801147a0:	9a00c3ff 	.word	0xffc3009a
801147a4:	a8ff66ff 	.word	0xff66ffa8
801147a8:	c3ffa8ff 	.word	0xffa8ffc3
801147ac:	9a003d00 	.word	0x3d009a
801147b0:	a8ff66ff 	.word	0xff66ffa8
801147b4:	3d00a8ff 	.word	0xffa8003d
801147b8:	7dff0000 	.word	0xff7d
801147bc:	71ff8300 	.word	0x83ff71
801147c0:	000071ff 	.word	0xff710000
801147c4:	d5ffafff 	.word	0xffafffd5
801147c8:	0effd5ff 	.word	0xffd5ff0e
801147cc:	51000eff 	.word	0xff0e0051
801147d0:	baff99ff 	.word	0xff99ffba
801147d4:	c700baff 	.word	0xffba00c7
801147d8:	6700c700 	.word	0xc70067
801147dc:	95ff8700 	.word	0x87ff95
801147e0:	efff2b00 	.word	0x2bffef
801147e4:	51000eff 	.word	0xff0e0051
801147e8:	46006700 	.word	0x670046
801147ec:	c7004600 	.word	0x4600c7
801147f0:	99ffc700 	.word	0xc7ff99
801147f4:	2b00afff 	.word	0xffaf002b
801147f8:	0eff6b00 	.word	0x6bff0e
801147fc:	8700efff 	.word	0xffef0087
80114800:	57ff4700 	.word	0x47ff57
80114804:	efffa900 	.word	0xa9ffef
80114808:	b9ffefff 	.word	0xffefffb9
8011480c:	57ffb9ff 	.word	0xffb9ff57
80114810:	efff6b00 	.word	0x6bffef
80114814:	79ffefff 	.word	0xffefff79
80114818:	95ff79ff 	.word	0xff79ff95
8011481c:	efffa900 	.word	0xa9ffef
80114820:	4700efff 	.word	0xffef0047
80114824:	00000000 	nop
80114828:	f5000000 	.word	0xf5
8011482c:	78ffa8ff 	.word	0xffa8ff78
80114830:	00008800 	.word	0x880000
80114834:	a8ffdeff 	.word	0xffdeffa8
80114838:	afff0eff 	.word	0xff0effaf
8011483c:	deffa1ff 	.word	0xffa1ffde
80114840:	f4fe0000 	.word	0xfef4
80114844:	afff0eff 	.word	0xff0effaf
80114848:	0000a1ff 	.word	0xffa10000
8011484c:	f4fe0000 	.word	0xfef4
80114850:	51000eff 	.word	0xff0e0051
80114854:	00005f00 	.word	0x5f0000
80114858:	f4fe2200 	.word	0x22fef4
8011485c:	51000eff 	.word	0xff0e0051
80114860:	22005f00 	sub	zero,v0,ra
80114864:	f4fedeff 	.word	0xffdefef4
80114868:	afff0eff 	.word	0xff0effaf
8011486c:	deffa1ff 	.word	0xffa1ffde
80114870:	f4fe0000 	.word	0xfef4
80114874:	afff0eff 	.word	0xff0effaf
80114878:	0000a1ff 	.word	0xffa10000
8011487c:	f4fe0000 	.word	0xfef4
80114880:	51000eff 	.word	0xff0e0051
80114884:	00005f00 	.word	0x5f0000
80114888:	f4fe2200 	.word	0x22fef4
8011488c:	51000eff 	.word	0xff0e0051
80114890:	22005f00 	sub	zero,v0,ra
80114894:	f4fe3fff 	.word	0xff3ffef4
80114898:	54003600 	.word	0x360054
8011489c:	90ff9d00 	.word	0x9dff90
801148a0:	36003fff 	.word	0xff3f0036
801148a4:	acff3600 	.word	0x36ffac
801148a8:	70009d00 	.word	0x9d0070
801148ac:	360090ff 	.word	0xff900036
801148b0:	63ff3600 	.word	0x36ff63
801148b4:	c1005400 	.word	0x5400c1
801148b8:	3600c100 	.word	0xc10036
801148bc:	acff3600 	.word	0x36ffac
801148c0:	700063ff 	.word	0xff630070
801148c4:	36000000 	.word	0x36
801148c8:	0000caff 	.word	0xffca0000
801148cc:	000059ff 	.word	0xff590000
801148d0:	efff0000 	.word	0xffef
801148d4:	46ff3600 	.word	0x36ff46
801148d8:	000087ff 	.word	0xff870000
801148dc:	c7000000 	.word	0xc7
801148e0:	a700efff 	.word	0xffef00a7
801148e4:	0000ba00 	.word	0xba0000
801148e8:	36000000 	.word	0x36
801148ec:	7900c700 	.word	0xc70079
801148f0:	c1000000 	.word	0xc1
801148f4:	efff3fff 	.word	0xff3fffef
801148f8:	0000efff 	.word	0xffef0000
801148fc:	28ff0000 	.word	0xff28
80114900:	3600d800 	.word	0xd80036
80114904:	00003600 	.word	0x360000
80114908:	73ff0000 	.word	0xff73
8011490c:	c7008d00 	.word	0x8d00c7
80114910:	0000c700 	.word	0xc70000
80114914:	c000abff 	.word	0xffab00c0
80114918:	7e0094ff 	.word	0xff94007e
8011491c:	9c007e00 	.word	0x7e009c
80114920:	6c0064ff 	.word	0xff64006c
80114924:	7e0040ff 	.word	0xff40007e
80114928:	55007e00 	.word	0x7e0055
8011492c:	2aff0000 	.word	0xff2a
80114930:	7e000000 	.word	0x7e
80114934:	48ff7e00 	.word	0x7eff48
80114938:	94ff64ff 	.word	0xff64ff94
8011493c:	7e0040ff 	.word	0xff40007e
80114940:	abff7e00 	.word	0x7effab
80114944:	0000b800 	.word	0xb80000
80114948:	7e00d600 	.word	0xd6007e
8011494c:	00007e00 	.word	0x7e0000
80114950:	c0005500 	.word	0x5500c0
80114954:	7e006c00 	.word	0x6c007e
80114958:	9c007e00 	.word	0x7e009c
8011495c:	81ff3900 	.word	0x39ff81
80114960:	c70098ff 	.word	0xff9800c7
80114964:	1a0043ff 	.word	0xff43001a
80114968:	81ffc7ff 	.word	0xffc7ff81
8011496c:	c70098ff 	.word	0xff9800c7
80114970:	e6ff43ff 	.word	0xff43ffe6
80114974:	7f003900 	.word	0x39007f
80114978:	c7006800 	.word	0x6800c7
8011497c:	1a0043ff 	.word	0xff43001a
80114980:	7f00c7ff 	.word	0xffc7007f
80114984:	c7006800 	.word	0x6800c7
80114988:	e6ff43ff 	.word	0xff43ffe6
8011498c:	9100c7ff 	.word	0xffc70091
80114990:	a8ff6fff 	.word	0xff6fffa8
80114994:	c7ffa8ff 	.word	0xffa8ffc7
80114998:	91003900 	.word	0x390091
8011499c:	a8ff6fff 	.word	0xff6fffa8
801149a0:	3900a8ff 	.word	0xffa80039
801149a4:	7dff0000 	.word	0xff7d
801149a8:	71ff8300 	.word	0x83ff71
801149ac:	000071ff 	.word	0xff710000
801149b0:	d5ffd5ff 	.word	0xffd5ffd5
801149b4:	0effd5ff 	.word	0xffd5ff0e
801149b8:	2b000eff 	.word	0xff0e002b
801149bc:	baff99ff 	.word	0xff99ffba
801149c0:	c700baff 	.word	0xffba00c7
801149c4:	6700c700 	.word	0xc70067
801149c8:	99ff8200 	.word	0x82ff99
801149cc:	efff2b00 	.word	0x2bffef
801149d0:	2b000eff 	.word	0xff0e002b
801149d4:	46006700 	.word	0x670046
801149d8:	c7004600 	.word	0x4600c7
801149dc:	99ffc700 	.word	0xc7ff99
801149e0:	2b00d5ff 	.word	0xffd5002b
801149e4:	0eff6700 	.word	0x67ff0e
801149e8:	8200efff 	.word	0xffef0082
801149ec:	5dff4400 	.word	0x44ff5d
801149f0:	efffa300 	.word	0xa3ffef
801149f4:	bcffefff 	.word	0xffefffbc
801149f8:	5dffbcff 	.word	0xffbcff5d
801149fc:	efff6700 	.word	0x67ffef
80114a00:	7effefff 	.word	0xffefff7e
80114a04:	99ff7eff 	.word	0xff7eff99
80114a08:	efffa300 	.word	0xa3ffef
80114a0c:	4400efff 	.word	0xffef0044
80114a10:	00000000 	nop
80114a14:	f5000000 	.word	0xf5
80114a18:	80ffa8ff 	.word	0xffa8ff80
80114a1c:	00008000 	.word	0x800000
80114a20:	a8ffdeff 	.word	0xffdeffa8
80114a24:	d5ff0eff 	.word	0xff0effd5
80114a28:	deffceff 	.word	0xffceffde
80114a2c:	f4fe0000 	.word	0xfef4
80114a30:	d5ff0eff 	.word	0xff0effd5
80114a34:	0000ceff 	.word	0xffce0000
80114a38:	f4fe0000 	.word	0xfef4
80114a3c:	2b000eff 	.word	0xff0e002b
80114a40:	00003200 	.word	0x320000
80114a44:	f4fe2200 	.word	0x22fef4
80114a48:	2b000eff 	.word	0xff0e002b
80114a4c:	22003200 	sub	zero,at,s2
80114a50:	f4fedeff 	.word	0xffdefef4
80114a54:	d5ff0eff 	.word	0xff0effd5
80114a58:	deffceff 	.word	0xffceffde
80114a5c:	f4fe0000 	.word	0xfef4
80114a60:	d5ff0eff 	.word	0xff0effd5
80114a64:	0000ceff 	.word	0xffce0000
80114a68:	f4fe0000 	.word	0xfef4
80114a6c:	2b000eff 	.word	0xff0e002b
80114a70:	00003200 	.word	0x320000
80114a74:	f4fe2200 	.word	0x22fef4
80114a78:	2b000eff 	.word	0xff0e002b
80114a7c:	22003200 	sub	zero,at,s2
80114a80:	f4fe42ff 	.word	0xff42fef4
80114a84:	53003600 	.word	0x360053
80114a88:	93ff9a00 	.word	0x9aff93
80114a8c:	360042ff 	.word	0xff420036
80114a90:	adff3600 	.word	0x36ffad
80114a94:	6d009a00 	.word	0x9a006d
80114a98:	360093ff 	.word	0xff930036
80114a9c:	66ff3600 	.word	0x36ff66
80114aa0:	be005300 	.word	0x5300be
80114aa4:	3600be00 	.word	0xbe0036
80114aa8:	adff3600 	.word	0x36ffad
80114aac:	6d0066ff 	.word	0xff66006d
80114ab0:	36000000 	.word	0x36
80114ab4:	00009eff 	.word	0xff9e0000
80114ab8:	00005fff 	.word	0xff5f0000
80114abc:	efff0000 	.word	0xffef
80114ac0:	49ff3600 	.word	0x36ff49
80114ac4:	000087ff 	.word	0xff870000
80114ac8:	c7000000 	.word	0xc7
80114acc:	a100efff 	.word	0xffef00a1
80114ad0:	0000b700 	.word	0xb70000
80114ad4:	36000000 	.word	0x36
80114ad8:	7900c700 	.word	0xc70079
80114adc:	bb000000 	.word	0xbb
80114ae0:	efff45ff 	.word	0xff45ffef
80114ae4:	0000efff 	.word	0xffef0000
80114ae8:	2cff0000 	.word	0xff2c
80114aec:	3600d400 	.word	0xd40036
80114af0:	00003600 	.word	0x360000
80114af4:	73ff0000 	.word	0xff73
80114af8:	c7008d00 	.word	0x8d00c7
80114afc:	0000c700 	.word	0xc70000
80114b00:	c000abff 	.word	0xffab00c0
80114b04:	7e0094ff 	.word	0xff94007e
80114b08:	9c007e00 	.word	0x7e009c
80114b0c:	6c0064ff 	.word	0xff64006c
80114b10:	7e0040ff 	.word	0xff40007e
80114b14:	55007e00 	.word	0x7e0055
80114b18:	2aff0000 	.word	0xff2a
80114b1c:	7e000000 	.word	0x7e
80114b20:	48ff7e00 	.word	0x7eff48
80114b24:	94ff64ff 	.word	0xff64ff94
80114b28:	7e0040ff 	.word	0xff40007e
80114b2c:	abff7e00 	.word	0x7effab
80114b30:	0000b800 	.word	0xb80000
80114b34:	7e00d600 	.word	0xd6007e
80114b38:	00007e00 	.word	0x7e0000
80114b3c:	c0005500 	.word	0x5500c0
80114b40:	7e006c00 	.word	0x6c007e
80114b44:	9c007e00 	.word	0x7e009c
80114b48:	81ff3900 	.word	0x39ff81
80114b4c:	c70098ff 	.word	0xff9800c7
80114b50:	080043ff 	.word	0xff430008
80114b54:	81ffc7ff 	.word	0xffc7ff81
80114b58:	c70098ff 	.word	0xff9800c7
80114b5c:	f8ff43ff 	.word	0xff43fff8
80114b60:	7f003900 	.word	0x39007f
80114b64:	c7006800 	.word	0x6800c7
80114b68:	080043ff 	.word	0xff430008
80114b6c:	7f00c7ff 	.word	0xffc7007f
80114b70:	c7006800 	.word	0x6800c7
80114b74:	f8ff43ff 	.word	0xff43fff8
80114b78:	8b00c9ff 	.word	0xffc9008b
80114b7c:	a8ff75ff 	.word	0xff75ffa8
80114b80:	c9ffa8ff 	.word	0xffa8ffc9
80114b84:	8b003700 	.word	0x37008b
80114b88:	a8ff75ff 	.word	0xff75ffa8
80114b8c:	3700a8ff 	.word	0xffa80037
80114b90:	7dff0000 	.word	0xff7d
80114b94:	71ff8300 	.word	0x83ff71
80114b98:	000071ff 	.word	0xff710000
80114b9c:	d5fff1ff 	.word	0xfff1ffd5
80114ba0:	0effd5ff 	.word	0xffd5ff0e
80114ba4:	0f000eff 	.word	0xff0e000f
80114ba8:	baff99ff 	.word	0xff99ffba
80114bac:	c700baff 	.word	0xffba00c7
80114bb0:	6700c700 	.word	0xc70067
80114bb4:	9bff7f00 	.word	0x7fff9b
80114bb8:	efff2b00 	.word	0x2bffef
80114bbc:	0f000eff 	.word	0xff0e000f
80114bc0:	46006700 	.word	0x670046
80114bc4:	c7004600 	.word	0x4600c7
80114bc8:	99ffc700 	.word	0xc7ff99
80114bcc:	2b00f1ff 	.word	0xfff1002b
80114bd0:	0eff6500 	.word	0x65ff0e
80114bd4:	7f00efff 	.word	0xffef007f
80114bd8:	61ff4300 	.word	0x43ff61
80114bdc:	efff9f00 	.word	0x9fffef
80114be0:	bdffefff 	.word	0xffefffbd
80114be4:	61ffbdff 	.word	0xffbdff61
80114be8:	efff6500 	.word	0x65ffef
80114bec:	81ffefff 	.word	0xffefff81
80114bf0:	9bff81ff 	.word	0xff81ff9b
80114bf4:	efff9f00 	.word	0x9fffef
80114bf8:	4300efff 	.word	0xffef0043
80114bfc:	00000000 	nop
80114c00:	f5000000 	.word	0xf5
80114c04:	85ffa8ff 	.word	0xffa8ff85
80114c08:	00007b00 	.word	0x7b0000
80114c0c:	a8ffdeff 	.word	0xffdeffa8
80114c10:	f1ff0eff 	.word	0xff0efff1
80114c14:	deffefff 	.word	0xffefffde
80114c18:	f4fe0000 	.word	0xfef4
80114c1c:	f1ff0eff 	.word	0xff0efff1
80114c20:	0000efff 	.word	0xffef0000
80114c24:	f4fe0000 	.word	0xfef4
80114c28:	0f000eff 	.word	0xff0e000f
80114c2c:	00001100 	sll	zero,s1,0x0
80114c30:	f4fe2200 	.word	0x22fef4
80114c34:	0f000eff 	.word	0xff0e000f
80114c38:	22001100 	neg	zero,s1
80114c3c:	f4fedeff 	.word	0xffdefef4
80114c40:	f1ff0eff 	.word	0xff0efff1
80114c44:	deffefff 	.word	0xffefffde
80114c48:	f4fe0000 	.word	0xfef4
80114c4c:	f1ff0eff 	.word	0xff0efff1
80114c50:	0000efff 	.word	0xffef0000
80114c54:	f4fe0000 	.word	0xfef4
80114c58:	0f000eff 	.word	0xff0e000f
80114c5c:	00001100 	sll	zero,s1,0x0
80114c60:	f4fe2200 	.word	0x22fef4
80114c64:	0f000eff 	.word	0xff0e000f
80114c68:	22001100 	neg	zero,s1
80114c6c:	f4fe45ff 	.word	0xff45fef4
80114c70:	51003600 	.word	0x360051
80114c74:	94ff9800 	.word	0x98ff94
80114c78:	360045ff 	.word	0xff450036
80114c7c:	afff3600 	.word	0x36ffaf
80114c80:	6c009800 	.word	0x98006c
80114c84:	360094ff 	.word	0xff940036
80114c88:	68ff3600 	.word	0x36ff68
80114c8c:	bb005100 	.word	0x5100bb
80114c90:	3600bb00 	.word	0xbb0036
80114c94:	afff3600 	.word	0x36ffaf
80114c98:	6c0068ff 	.word	0xff68006c
80114c9c:	36000000 	.word	0x36
80114ca0:	00007eff 	.word	0xff7e0000
80114ca4:	000063ff 	.word	0xff630000
80114ca8:	efff0000 	.word	0xffef
80114cac:	4cff3600 	syscall	0xdbfd
80114cb0:	000087ff 	.word	0xff870000
80114cb4:	c7000000 	.word	0xc7
80114cb8:	9d00efff 	.word	0xffef009d
80114cbc:	0000b400 	.word	0xb40000
80114cc0:	36000000 	.word	0x36
80114cc4:	7900c700 	.word	0xc70079
80114cc8:	b6000000 	.word	0xb6
80114ccc:	efff4aff 	.word	0xff4affef
80114cd0:	0000efff 	.word	0xffef0000
80114cd4:	2fff0000 	.word	0xff2f
80114cd8:	3600d100 	.word	0xd10036
80114cdc:	00003600 	.word	0x360000
80114ce0:	73ff0000 	.word	0xff73
80114ce4:	c7008d00 	.word	0x8d00c7
80114ce8:	0000c700 	.word	0xc70000
80114cec:	c000abff 	.word	0xffab00c0
80114cf0:	7e0094ff 	.word	0xff94007e
80114cf4:	9c007e00 	.word	0x7e009c
80114cf8:	6c0064ff 	.word	0xff64006c
80114cfc:	7e0040ff 	.word	0xff40007e
80114d00:	55007e00 	.word	0x7e0055
80114d04:	2aff0000 	.word	0xff2a
80114d08:	7e000000 	.word	0x7e
80114d0c:	48ff7e00 	.word	0x7eff48
80114d10:	94ff64ff 	.word	0xff64ff94
80114d14:	7e0040ff 	.word	0xff40007e
80114d18:	abff7e00 	.word	0x7effab
80114d1c:	0000b800 	.word	0xb80000
80114d20:	7e00d600 	.word	0xd6007e
80114d24:	00007e00 	.word	0x7e0000
80114d28:	c0005500 	.word	0x5500c0
80114d2c:	7e006c00 	.word	0x6c007e
80114d30:	9c007e00 	.word	0x7e009c
80114d34:	81ff3900 	.word	0x39ff81
80114d38:	c70098ff 	.word	0xff9800c7
80114d3c:	010043ff 	.word	0xff430001
80114d40:	81ffc7ff 	.word	0xffc7ff81
80114d44:	c70098ff 	.word	0xff9800c7
80114d48:	ffff43ff 	.word	0xff43ffff
80114d4c:	7f003900 	.word	0x39007f
80114d50:	c7006800 	.word	0x6800c7
80114d54:	010043ff 	.word	0xff430001
80114d58:	7f00c7ff 	.word	0xffc7007f
80114d5c:	c7006800 	.word	0x6800c7
80114d60:	ffff43ff 	.word	0xff43ffff
80114d64:	8900caff 	.word	0xffca0089
80114d68:	a8ff77ff 	.word	0xff77ffa8
80114d6c:	caffa8ff 	.word	0xffa8ffca
80114d70:	89003600 	.word	0x360089
80114d74:	a8ff77ff 	.word	0xff77ffa8
80114d78:	3600a8ff 	.word	0xffa80036
80114d7c:	7dff0000 	.word	0xff7d
80114d80:	71ff8300 	.word	0x83ff71
80114d84:	000071ff 	.word	0xff710000
80114d88:	d5fffcff 	.word	0xfffcffd5
80114d8c:	0effd5ff 	.word	0xffd5ff0e
80114d90:	04000eff 	.word	0xff0e0004
80114d94:	baff99ff 	.word	0xff99ffba
80114d98:	c700baff 	.word	0xffba00c7
80114d9c:	6700c700 	.word	0xc70067
80114da0:	9cff7e00 	.word	0x7eff9c
80114da4:	efff2b00 	.word	0x2bffef
80114da8:	04000eff 	.word	0xff0e0004
80114dac:	46006700 	.word	0x670046
80114db0:	c7004600 	.word	0x4600c7
80114db4:	99ffc700 	.word	0xc7ff99
80114db8:	2b00fcff 	.word	0xfffc002b
80114dbc:	0eff6400 	.word	0x64ff0e
80114dc0:	7e00efff 	.word	0xffef007e
80114dc4:	63ff4200 	.word	0x42ff63
80114dc8:	efff9d00 	.word	0x9dffef
80114dcc:	beffefff 	.word	0xffefffbe
80114dd0:	63ffbeff 	.word	0xffbeff63
80114dd4:	efff6400 	.word	0x64ffef
80114dd8:	82ffefff 	.word	0xffefff82
80114ddc:	9cff82ff 	.word	0xff82ff9c
80114de0:	efff9d00 	.word	0x9dffef
80114de4:	4200efff 	.word	0xffef0042
80114de8:	00000000 	nop
80114dec:	f5000000 	.word	0xf5
80114df0:	87ffa8ff 	.word	0xffa8ff87
80114df4:	00007900 	.word	0x790000
80114df8:	a8ffdeff 	.word	0xffdeffa8
80114dfc:	fcff0eff 	.word	0xff0efffc
80114e00:	defffcff 	.word	0xfffcffde
80114e04:	f4fe0000 	.word	0xfef4
80114e08:	fcff0eff 	.word	0xff0efffc
80114e0c:	0000fcff 	.word	0xfffc0000
80114e10:	f4fe0000 	.word	0xfef4
80114e14:	04000eff 	.word	0xff0e0004
80114e18:	00000400 	sll	zero,a0,0x0
80114e1c:	f4fe2200 	.word	0x22fef4
80114e20:	04000eff 	.word	0xff0e0004
80114e24:	22000400 	neg	zero,a0
80114e28:	f4fedeff 	.word	0xffdefef4
80114e2c:	fcff0eff 	.word	0xff0efffc
80114e30:	defffcff 	.word	0xfffcffde
80114e34:	f4fe0000 	.word	0xfef4
80114e38:	fcff0eff 	.word	0xff0efffc
80114e3c:	0000fcff 	.word	0xfffc0000
80114e40:	f4fe0000 	.word	0xfef4
80114e44:	04000eff 	.word	0xff0e0004
80114e48:	00000400 	sll	zero,a0,0x0
80114e4c:	f4fe2200 	.word	0x22fef4
80114e50:	04000eff 	.word	0xff0e0004
80114e54:	22000400 	neg	zero,a0
80114e58:	f4fe46ff 	.word	0xff46fef4
80114e5c:	51003600 	.word	0x360051
80114e60:	95ff9700 	.word	0x97ff95
80114e64:	360046ff 	.word	0xff460036
80114e68:	afff3600 	.word	0x36ffaf
80114e6c:	6b009700 	.word	0x97006b
80114e70:	360095ff 	.word	0xff950036
80114e74:	69ff3600 	.word	0x36ff69
80114e78:	ba005100 	.word	0x5100ba
80114e7c:	3600ba00 	.word	0xba0036
80114e80:	afff3600 	.word	0x36ffaf
80114e84:	6b0069ff 	.word	0xff69006b
80114e88:	36000000 	.word	0x36
80114e8c:	000071ff 	.word	0xff710000
80114e90:	000064ff 	.word	0xff640000
80114e94:	efff0000 	.word	0xffef
80114e98:	4dff3600 	break	0x36,0x3fd
80114e9c:	000087ff 	.word	0xff870000
80114ea0:	c7000000 	.word	0xc7
80114ea4:	9c00efff 	.word	0xffef009c
80114ea8:	0000b300 	.word	0xb30000
80114eac:	36000000 	.word	0x36
80114eb0:	7900c700 	.word	0xc70079
80114eb4:	b5000000 	.word	0xb5
80114eb8:	efff4bff 	.word	0xff4bffef
80114ebc:	0000efff 	.word	0xffef0000
80114ec0:	30ff0000 	.word	0xff30
80114ec4:	3600d000 	.word	0xd00036
80114ec8:	00003600 	.word	0x360000
80114ecc:	73ff0000 	.word	0xff73
80114ed0:	c7008d00 	.word	0x8d00c7
80114ed4:	0000c700 	.word	0xc70000
80114ed8:	c000abff 	.word	0xffab00c0
80114edc:	7e0094ff 	.word	0xff94007e
80114ee0:	9c007e00 	.word	0x7e009c
80114ee4:	6c0064ff 	.word	0xff64006c
80114ee8:	7e0040ff 	.word	0xff40007e
80114eec:	55007e00 	.word	0x7e0055
80114ef0:	2aff0000 	.word	0xff2a
80114ef4:	7e000000 	.word	0x7e
80114ef8:	48ff7e00 	.word	0x7eff48
80114efc:	94ff64ff 	.word	0xff64ff94
80114f00:	7e0040ff 	.word	0xff40007e
80114f04:	abff7e00 	.word	0x7effab
80114f08:	0000b800 	.word	0xb80000
80114f0c:	7e00d600 	.word	0xd6007e
80114f10:	00007e00 	.word	0x7e0000
80114f14:	c0005500 	.word	0x5500c0
80114f18:	7e006c00 	.word	0x6c007e
80114f1c:	9c007e00 	.word	0x7e009c
80114f20:	48d11180 	lb	s1,-11960(zero)
80114f24:	34d31180 	lb	s1,-11468(zero)
80114f28:	20d51180 	lb	s1,-10976(zero)
80114f2c:	0cd71180 	lb	s1,-10484(zero)
80114f30:	f8d81180 	lb	s1,-9992(zero)
80114f34:	e4da1180 	lb	s1,-9500(zero)
80114f38:	d0dc1180 	lb	s1,-9008(zero)
80114f3c:	81ff3900 	.word	0x39ff81
80114f40:	c70098ff 	.word	0xff9800c7
80114f44:	7b0043ff 	.word	0xff43007b
80114f48:	81ffc7ff 	.word	0xffc7ff81
80114f4c:	c70098ff 	.word	0xff9800c7
80114f50:	85ff43ff 	.word	0xff43ff85
80114f54:	7f003900 	.word	0x39007f
80114f58:	c7006800 	.word	0x6800c7
80114f5c:	7b0043ff 	.word	0xff43007b
80114f60:	7f00c7ff 	.word	0xffc7007f
80114f64:	c7006800 	.word	0x6800c7
80114f68:	85ff43ff 	.word	0xff43ff85
80114f6c:	b400b9ff 	.word	0xffb900b4
80114f70:	a8ff4cff 	.word	0xff4cffa8
80114f74:	b9ffa8ff 	.word	0xffa8ffb9
80114f78:	b4004700 	.word	0x4700b4
80114f7c:	a8ff4cff 	.word	0xff4cffa8
80114f80:	4700a8ff 	.word	0xffa80047
80114f84:	7dff0000 	.word	0xff7d
80114f88:	71ff8300 	.word	0x83ff71
80114f8c:	000071ff 	.word	0xff710000
80114f90:	d5ff38ff 	.word	0xff38ffd5
80114f94:	0effd5ff 	.word	0xffd5ff0e
80114f98:	c8000eff 	.word	0xff0e00c8
80114f9c:	baff99ff 	.word	0xff99ffba
80114fa0:	c700baff 	.word	0xffba00c7
80114fa4:	6700c700 	.word	0xc70067
80114fa8:	8aff9400 	.word	0x94ff8a
80114fac:	efff2b00 	.word	0x2bffef
80114fb0:	c8000eff 	.word	0xff0e00c8
80114fb4:	46006700 	.word	0x670046
80114fb8:	c7004600 	.word	0x4600c7
80114fbc:	99ffc700 	.word	0xc7ff99
80114fc0:	2b0038ff 	.word	0xff38002b
80114fc4:	0eff7600 	.word	0x76ff0e
80114fc8:	9400efff 	.word	0xffef0094
80114fcc:	46ff4e00 	.word	0x4eff46
80114fd0:	efffba00 	.word	0xbaffef
80114fd4:	b2ffefff 	.word	0xffefffb2
80114fd8:	46ffb2ff 	.word	0xffb2ff46
80114fdc:	efff7600 	.word	0x76ffef
80114fe0:	6cffefff 	.word	0xffefff6c
80114fe4:	8aff6cff 	.word	0xff6cff8a
80114fe8:	efffba00 	.word	0xbaffef
80114fec:	4e00efff 	.word	0xffef004e
80114ff0:	00000000 	nop
80114ff4:	f5000000 	.word	0xf5
80114ff8:	61ffa8ff 	.word	0xffa8ff61
80114ffc:	00009f00 	.word	0x9f0000
80115000:	a8ffdeff 	.word	0xffdeffa8
80115004:	38ff0eff 	.word	0xff0eff38
80115008:	deff15ff 	.word	0xff15ffde
8011500c:	f4fe0000 	.word	0xfef4
80115010:	38ff0eff 	.word	0xff0eff38
80115014:	000015ff 	.word	0xff150000
80115018:	f4fe0000 	.word	0xfef4
8011501c:	c8000eff 	.word	0xff0e00c8
80115020:	0000eb00 	.word	0xeb0000
80115024:	f4fe2200 	.word	0x22fef4
80115028:	c8000eff 	.word	0xff0e00c8
8011502c:	2200eb00 	sub	zero,a3,t3
80115030:	f4fedeff 	.word	0xffdefef4
80115034:	38ff0eff 	.word	0xff0eff38
80115038:	deff15ff 	.word	0xff15ffde
8011503c:	f4fe0000 	.word	0xfef4
80115040:	38ff0eff 	.word	0xff0eff38
80115044:	000015ff 	.word	0xff150000
80115048:	f4fe0000 	.word	0xfef4
8011504c:	c8000eff 	.word	0xff0e00c8
80115050:	0000eb00 	.word	0xeb0000
80115054:	f4fe2200 	.word	0x22fef4
80115058:	c8000eff 	.word	0xff0e00c8
8011505c:	2200eb00 	sub	zero,a3,t3
80115060:	f4fe33ff 	.word	0xff33fef4
80115064:	59003600 	.word	0x360059
80115068:	8affa600 	.word	0xa6ff8a
8011506c:	360033ff 	.word	0xff330036
80115070:	a7ff3600 	.word	0x36ffa7
80115074:	7600a600 	.word	0xa60076
80115078:	36008aff 	.word	0xff8a0036
8011507c:	5aff3600 	.word	0x36ff5a
80115080:	cd005900 	break	0x59,0x3
80115084:	3600cd00 	.word	0xcd0036
80115088:	a7ff3600 	.word	0x36ffa7
8011508c:	76005aff 	.word	0xff5a0076
80115090:	36000000 	.word	0x36
80115094:	00005000 	.word	0x500000
80115098:	000048ff 	.word	0xff480000
8011509c:	efff0000 	.word	0xffef
801150a0:	3aff3600 	.word	0x36ff3a
801150a4:	000087ff 	.word	0xff870000
801150a8:	c7000000 	.word	0xc7
801150ac:	b800efff 	.word	0xffef00b8
801150b0:	0000c600 	.word	0xc60000
801150b4:	36000000 	.word	0x36
801150b8:	7900c700 	.word	0xc70079
801150bc:	d5000000 	.word	0xd5
801150c0:	efff2bff 	.word	0xff2bffef
801150c4:	0000efff 	.word	0xffef0000
801150c8:	1bff0000 	.word	0xff1b
801150cc:	3600e500 	.word	0xe50036
801150d0:	00003600 	.word	0x360000
801150d4:	73ff0000 	.word	0xff73
801150d8:	c7008d00 	.word	0x8d00c7
801150dc:	0000c700 	.word	0xc70000
801150e0:	c000abff 	.word	0xffab00c0
801150e4:	7e0094ff 	.word	0xff94007e
801150e8:	9c007e00 	.word	0x7e009c
801150ec:	6c0064ff 	.word	0xff64006c
801150f0:	7e0040ff 	.word	0xff40007e
801150f4:	55007e00 	.word	0x7e0055
801150f8:	2aff0000 	.word	0xff2a
801150fc:	7e000000 	.word	0x7e
80115100:	48ff7e00 	.word	0x7eff48
80115104:	94ff64ff 	.word	0xff64ff94
80115108:	7e0040ff 	.word	0xff40007e
8011510c:	abff7e00 	.word	0x7effab
80115110:	0000b800 	.word	0xb80000
80115114:	7e00d600 	.word	0xd6007e
80115118:	00007e00 	.word	0x7e0000
8011511c:	c0005500 	.word	0x5500c0
80115120:	7e006c00 	.word	0x6c007e
80115124:	9c007e00 	.word	0x7e009c
80115128:	81ff3900 	.word	0x39ff81
8011512c:	c70096ff 	.word	0xff9600c7
80115130:	7e0043ff 	.word	0xff43007e
80115134:	81ffc7ff 	.word	0xffc7ff81
80115138:	c70096ff 	.word	0xff9600c7
8011513c:	82ff43ff 	.word	0xff43ff82
80115140:	7f003900 	.word	0x39007f
80115144:	c7006a00 	.word	0x6a00c7
80115148:	7e0043ff 	.word	0xff43007e
8011514c:	7f00c7ff 	.word	0xffc7007f
80115150:	c7006a00 	.word	0x6a00c7
80115154:	82ff43ff 	.word	0xff43ff82
80115158:	b500b7ff 	.word	0xffb700b5
8011515c:	a8ff4bff 	.word	0xff4bffa8
80115160:	b7ffa8ff 	.word	0xffa8ffb7
80115164:	b5004900 	.word	0x4900b5
80115168:	a8ff4bff 	.word	0xff4bffa8
8011516c:	4900a8ff 	.word	0xffa80049
80115170:	7aff0000 	.word	0xff7a
80115174:	71ff8600 	.word	0x86ff71
80115178:	000071ff 	.word	0xff710000
8011517c:	d4ff32ff 	.word	0xff32ffd4
80115180:	0effd4ff 	.word	0xffd4ff0e
80115184:	ce000eff 	.word	0xff0e00ce
80115188:	baff99ff 	.word	0xff99ffba
8011518c:	c700baff 	.word	0xffba00c7
80115190:	6700c700 	.word	0xc70067
80115194:	8aff9700 	.word	0x97ff8a
80115198:	efff2c00 	.word	0x2cffef
8011519c:	ce000eff 	.word	0xff0e00ce
801151a0:	46006700 	.word	0x670046
801151a4:	c7004600 	.word	0x4600c7
801151a8:	99ffc700 	.word	0xc7ff99
801151ac:	2c0032ff 	.word	0xff32002c
801151b0:	0eff7600 	.word	0x76ff0e
801151b4:	9700efff 	.word	0xffef0097
801151b8:	46ff4f00 	.word	0x4fff46
801151bc:	efffba00 	.word	0xbaffef
801151c0:	b1ffefff 	.word	0xffefffb1
801151c4:	46ffb1ff 	.word	0xffb1ff46
801151c8:	efff7600 	.word	0x76ffef
801151cc:	69ffefff 	.word	0xffefff69
801151d0:	8aff69ff 	.word	0xff69ff8a
801151d4:	efffba00 	.word	0xbaffef
801151d8:	4f00efff 	.word	0xffef004f
801151dc:	00000000 	nop
801151e0:	f5000000 	.word	0xf5
801151e4:	5cffa8ff 	.word	0xffa8ff5c
801151e8:	0000a400 	.word	0xa40000
801151ec:	a8ffddff 	.word	0xffddffa8
801151f0:	32ff0eff 	.word	0xff0eff32
801151f4:	ddff0eff 	.word	0xff0effdd
801151f8:	f4fe0000 	.word	0xfef4
801151fc:	32ff0eff 	.word	0xff0eff32
80115200:	00000eff 	.word	0xff0e0000
80115204:	f4fe0000 	.word	0xfef4
80115208:	ce000eff 	.word	0xff0e00ce
8011520c:	0000f200 	.word	0xf20000
80115210:	f4fe2300 	.word	0x23fef4
80115214:	ce000eff 	.word	0xff0e00ce
80115218:	2300f200 	subu	zero,a3,s2
8011521c:	f4feddff 	.word	0xffddfef4
80115220:	32ff0eff 	.word	0xff0eff32
80115224:	ddff0eff 	.word	0xff0effdd
80115228:	f4fe0000 	.word	0xfef4
8011522c:	32ff0eff 	.word	0xff0eff32
80115230:	00000eff 	.word	0xff0e0000
80115234:	f4fe0000 	.word	0xfef4
80115238:	ce000eff 	.word	0xff0e00ce
8011523c:	0000f200 	.word	0xf20000
80115240:	f4fe2300 	.word	0x23fef4
80115244:	ce000eff 	.word	0xff0e00ce
80115248:	2300f200 	subu	zero,a3,s2
8011524c:	f4fe33ff 	.word	0xff33fef4
80115250:	5a003600 	.word	0x36005a
80115254:	8affa700 	.word	0xa7ff8a
80115258:	360033ff 	.word	0xff330036
8011525c:	a6ff3600 	.word	0x36ffa6
80115260:	7600a700 	.word	0xa70076
80115264:	36008aff 	.word	0xff8a0036
80115268:	59ff3600 	.word	0x36ff59
8011526c:	cd005a00 	break	0x5a,0x3
80115270:	3600cd00 	.word	0xcd0036
80115274:	a6ff3600 	.word	0x36ffa6
80115278:	760059ff 	.word	0xff590076
8011527c:	36000000 	.word	0x36
80115280:	00005400 	.word	0x540000
80115284:	000046ff 	.word	0xff460000
80115288:	efff0000 	.word	0xffef
8011528c:	3aff3600 	.word	0x36ff3a
80115290:	000087ff 	.word	0xff870000
80115294:	c7000000 	.word	0xc7
80115298:	ba00efff 	.word	0xffef00ba
8011529c:	0000c600 	.word	0xc60000
801152a0:	36000000 	.word	0x36
801152a4:	7900c700 	.word	0xc70079
801152a8:	d5000000 	.word	0xd5
801152ac:	efff2bff 	.word	0xff2bffef
801152b0:	0000efff 	.word	0xffef0000
801152b4:	1bff0000 	.word	0xff1b
801152b8:	3600e500 	.word	0xe50036
801152bc:	00003600 	.word	0x360000
801152c0:	73ff0000 	.word	0xff73
801152c4:	c7008d00 	.word	0x8d00c7
801152c8:	0000c700 	.word	0xc70000
801152cc:	c000abff 	.word	0xffab00c0
801152d0:	7e0094ff 	.word	0xff94007e
801152d4:	9c007e00 	.word	0x7e009c
801152d8:	6c0064ff 	.word	0xff64006c
801152dc:	7e0040ff 	.word	0xff40007e
801152e0:	55007e00 	.word	0x7e0055
801152e4:	2aff0000 	.word	0xff2a
801152e8:	7e000000 	.word	0x7e
801152ec:	48ff7e00 	.word	0x7eff48
801152f0:	94ff64ff 	.word	0xff64ff94
801152f4:	7e0040ff 	.word	0xff40007e
801152f8:	abff7e00 	.word	0x7effab
801152fc:	0000b800 	.word	0xb80000
80115300:	7e00d600 	.word	0xd6007e
80115304:	00007e00 	.word	0x7e0000
80115308:	c0005500 	.word	0x5500c0
8011530c:	7e006c00 	.word	0x6c007e
80115310:	9c007e00 	.word	0x7e009c
80115314:	81ff3900 	.word	0x39ff81
80115318:	c70091ff 	.word	0xff9100c7
8011531c:	880043ff 	.word	0xff430088
80115320:	81ffc7ff 	.word	0xffc7ff81
80115324:	c70091ff 	.word	0xff9100c7
80115328:	78ff43ff 	.word	0xff43ff78
8011532c:	7f003900 	.word	0x39007f
80115330:	c7006f00 	.word	0x6f00c7
80115334:	880043ff 	.word	0xff430088
80115338:	7f00c7ff 	.word	0xffc7007f
8011533c:	c7006f00 	.word	0x6f00c7
80115340:	78ff43ff 	.word	0xff43ff78
80115344:	b900b0ff 	.word	0xffb000b9
80115348:	a8ff47ff 	.word	0xff47ffa8
8011534c:	b0ffa8ff 	.word	0xffa8ffb0
80115350:	b9005000 	.word	0x5000b9
80115354:	a8ff47ff 	.word	0xff47ffa8
80115358:	5000a8ff 	.word	0xffa80050
8011535c:	73ff0000 	.word	0xff73
80115360:	71ff8d00 	.word	0x8dff71
80115364:	000071ff 	.word	0xff710000
80115368:	d2ff23ff 	.word	0xff23ffd2
8011536c:	0effd2ff 	.word	0xffd2ff0e
80115370:	dd000eff 	.word	0xff0e00dd
80115374:	baff99ff 	.word	0xff99ffba
80115378:	c700baff 	.word	0xffba00c7
8011537c:	6700c700 	.word	0xc70067
80115380:	8aff9c00 	.word	0x9cff8a
80115384:	efff2e00 	.word	0x2effef
80115388:	dd000eff 	.word	0xff0e00dd
8011538c:	46006700 	.word	0x670046
80115390:	c7004600 	.word	0x4600c7
80115394:	99ffc700 	.word	0xc7ff99
80115398:	2e0023ff 	.word	0xff23002e
8011539c:	0eff7600 	.word	0x76ff0e
801153a0:	9c00efff 	.word	0xffef009c
801153a4:	46ff5200 	.word	0x52ff46
801153a8:	efffba00 	.word	0xbaffef
801153ac:	aeffefff 	.word	0xffefffae
801153b0:	46ffaeff 	.word	0xffaeff46
801153b4:	efff7600 	.word	0x76ffef
801153b8:	64ffefff 	.word	0xffefff64
801153bc:	8aff64ff 	.word	0xff64ff8a
801153c0:	efffba00 	.word	0xbaffef
801153c4:	5200efff 	.word	0xffef0052
801153c8:	00000000 	nop
801153cc:	f5000000 	.word	0xf5
801153d0:	4dffa8ff 	.word	0xffa8ff4d
801153d4:	0000b300 	.word	0xb30000
801153d8:	a8ffdbff 	.word	0xffdbffa8
801153dc:	23ff0eff 	.word	0xff0eff23
801153e0:	dbfffdfe 	.word	0xfefdffdb
801153e4:	f4fe0000 	.word	0xfef4
801153e8:	23ff0eff 	.word	0xff0eff23
801153ec:	0000fdfe 	.word	0xfefd0000
801153f0:	f4fe0000 	.word	0xfef4
801153f4:	dd000eff 	.word	0xff0e00dd
801153f8:	00000301 	.word	0x1030000
801153fc:	f4fe2500 	.word	0x25fef4
80115400:	dd000eff 	.word	0xff0e00dd
80115404:	25000301 	or	zero,t0,v1
80115408:	f4fedbff 	.word	0xffdbfef4
8011540c:	23ff0eff 	.word	0xff0eff23
80115410:	dbfffdfe 	.word	0xfefdffdb
80115414:	f4fe0000 	.word	0xfef4
80115418:	23ff0eff 	.word	0xff0eff23
8011541c:	0000fdfe 	.word	0xfefd0000
80115420:	f4fe0000 	.word	0xfef4
80115424:	dd000eff 	.word	0xff0e00dd
80115428:	00000301 	.word	0x1030000
8011542c:	f4fe2500 	.word	0x25fef4
80115430:	dd000eff 	.word	0xff0e00dd
80115434:	25000301 	or	zero,t0,v1
80115438:	f4fe33ff 	.word	0xff33fef4
8011543c:	5a003600 	.word	0x36005a
80115440:	8affa800 	.word	0xa8ff8a
80115444:	360033ff 	.word	0xff330036
80115448:	a6ff3600 	.word	0x36ffa6
8011544c:	7600a800 	.word	0xa80076
80115450:	36008aff 	.word	0xff8a0036
80115454:	58ff3600 	.word	0x36ff58
80115458:	cd005a00 	break	0x5a,0x3
8011545c:	3600cd00 	.word	0xcd0036
80115460:	a6ff3600 	.word	0x36ffa6
80115464:	760058ff 	.word	0xff580076
80115468:	36000000 	.word	0x36
8011546c:	00005c00 	.word	0x5c0000
80115470:	00003fff 	.word	0xff3f0000
80115474:	efff0000 	.word	0xffef
80115478:	39ff3600 	.word	0x36ff39
8011547c:	000087ff 	.word	0xff870000
80115480:	c7000000 	.word	0xc7
80115484:	c100efff 	.word	0xffef00c1
80115488:	0000c700 	.word	0xc70000
8011548c:	36000000 	.word	0x36
80115490:	7900c700 	.word	0xc70079
80115494:	d5000000 	.word	0xd5
80115498:	efff2bff 	.word	0xff2bffef
8011549c:	0000efff 	.word	0xffef0000
801154a0:	1bff0000 	.word	0xff1b
801154a4:	3600e500 	.word	0xe50036
801154a8:	00003600 	.word	0x360000
801154ac:	73ff0000 	.word	0xff73
801154b0:	c7008d00 	.word	0x8d00c7
801154b4:	0000c700 	.word	0xc70000
801154b8:	c000abff 	.word	0xffab00c0
801154bc:	7e0094ff 	.word	0xff94007e
801154c0:	9c007e00 	.word	0x7e009c
801154c4:	6c0064ff 	.word	0xff64006c
801154c8:	7e0040ff 	.word	0xff40007e
801154cc:	55007e00 	.word	0x7e0055
801154d0:	2aff0000 	.word	0xff2a
801154d4:	7e000000 	.word	0x7e
801154d8:	48ff7e00 	.word	0x7eff48
801154dc:	94ff64ff 	.word	0xff64ff94
801154e0:	7e0040ff 	.word	0xff40007e
801154e4:	abff7e00 	.word	0x7effab
801154e8:	0000b800 	.word	0xb80000
801154ec:	7e00d600 	.word	0xd6007e
801154f0:	00007e00 	.word	0x7e0000
801154f4:	c0005500 	.word	0x5500c0
801154f8:	7e006c00 	.word	0x6c007e
801154fc:	9c007e00 	.word	0x7e009c
80115500:	81ff3900 	.word	0x39ff81
80115504:	c70089ff 	.word	0xff8900c7
80115508:	940043ff 	.word	0xff430094
8011550c:	81ffc7ff 	.word	0xffc7ff81
80115510:	c70089ff 	.word	0xff8900c7
80115514:	6cff43ff 	.word	0xff43ff6c
80115518:	7f003900 	.word	0x39007f
8011551c:	c7007700 	.word	0x7700c7
80115520:	940043ff 	.word	0xff430094
80115524:	7f00c7ff 	.word	0xffc7007f
80115528:	c7007700 	.word	0x7700c7
8011552c:	6cff43ff 	.word	0xff43ff6c
80115530:	be00a7ff 	.word	0xffa700be
80115534:	a8ff42ff 	.word	0xff42ffa8
80115538:	a7ffa8ff 	.word	0xffa8ffa7
8011553c:	be005900 	.word	0x5900be
80115540:	a8ff42ff 	.word	0xff42ffa8
80115544:	5900a8ff 	.word	0xffa80059
80115548:	6aff0000 	.word	0xff6a
8011554c:	71ff9600 	.word	0x96ff71
80115550:	000071ff 	.word	0xff710000
80115554:	cfff0fff 	.word	0xff0fffcf
80115558:	0effcfff 	.word	0xffcfff0e
8011555c:	f1000eff 	.word	0xff0e00f1
80115560:	baff99ff 	.word	0xff99ffba
80115564:	c700baff 	.word	0xffba00c7
80115568:	6700c700 	.word	0xc70067
8011556c:	8affa300 	.word	0xa3ff8a
80115570:	efff3100 	.word	0x31ffef
80115574:	f1000eff 	.word	0xff0e00f1
80115578:	46006700 	.word	0x670046
8011557c:	c7004600 	.word	0x4600c7
80115580:	99ffc700 	.word	0xc7ff99
80115584:	31000fff 	.word	0xff0f0031
80115588:	0eff7600 	.word	0x76ff0e
8011558c:	a300efff 	.word	0xffef00a3
80115590:	46ff5600 	.word	0x56ff46
80115594:	efffba00 	.word	0xbaffef
80115598:	aaffefff 	.word	0xffefffaa
8011559c:	46ffaaff 	.word	0xffaaff46
801155a0:	efff7600 	.word	0x76ffef
801155a4:	5dffefff 	.word	0xffefff5d
801155a8:	8aff5dff 	.word	0xff5dff8a
801155ac:	efffba00 	.word	0xbaffef
801155b0:	5600efff 	.word	0xffef0056
801155b4:	00000000 	nop
801155b8:	f5000000 	.word	0xf5
801155bc:	3affa8ff 	.word	0xffa8ff3a
801155c0:	0000c600 	.word	0xc60000
801155c4:	a8ffd9ff 	.word	0xffd9ffa8
801155c8:	0fff0eff 	.word	0xff0eff0f
801155cc:	d9ffe5fe 	.word	0xfee5ffd9
801155d0:	f4fe0000 	.word	0xfef4
801155d4:	0fff0eff 	.word	0xff0eff0f
801155d8:	0000e5fe 	.word	0xfee50000
801155dc:	f4fe0000 	.word	0xfef4
801155e0:	f1000eff 	.word	0xff0e00f1
801155e4:	00001b01 	.word	0x11b0000
801155e8:	f4fe2700 	.word	0x27fef4
801155ec:	f1000eff 	.word	0xff0e00f1
801155f0:	27001b01 	nor	zero,t0,k1
801155f4:	f4fed9ff 	.word	0xffd9fef4
801155f8:	0fff0eff 	.word	0xff0eff0f
801155fc:	d9ffe5fe 	.word	0xfee5ffd9
80115600:	f4fe0000 	.word	0xfef4
80115604:	0fff0eff 	.word	0xff0eff0f
80115608:	0000e5fe 	.word	0xfee50000
8011560c:	f4fe0000 	.word	0xfef4
80115610:	f1000eff 	.word	0xff0e00f1
80115614:	00001b01 	.word	0x11b0000
80115618:	f4fe2700 	.word	0x27fef4
8011561c:	f1000eff 	.word	0xff0e00f1
80115620:	27001b01 	nor	zero,t0,k1
80115624:	f4fe33ff 	.word	0xff33fef4
80115628:	5b003600 	.word	0x36005b
8011562c:	8affa900 	.word	0xa9ff8a
80115630:	360033ff 	.word	0xff330036
80115634:	a5ff3600 	.word	0x36ffa5
80115638:	7600a900 	.word	0xa90076
8011563c:	36008aff 	.word	0xff8a0036
80115640:	57ff3600 	.word	0x36ff57
80115644:	cd005b00 	break	0x5b,0x3
80115648:	3600cd00 	.word	0xcd0036
8011564c:	a5ff3600 	.word	0x36ffa5
80115650:	760057ff 	.word	0xff570076
80115654:	36000000 	.word	0x36
80115658:	00006800 	.word	0x680000
8011565c:	000036ff 	.word	0xff360000
80115660:	efff0000 	.word	0xffef
80115664:	37ff3600 	.word	0x36ff37
80115668:	000087ff 	.word	0xff870000
8011566c:	c7000000 	.word	0xc7
80115670:	ca00efff 	.word	0xffef00ca
80115674:	0000c900 	.word	0xc90000
80115678:	36000000 	.word	0x36
8011567c:	7900c700 	.word	0xc70079
80115680:	d5000000 	.word	0xd5
80115684:	efff2bff 	.word	0xff2bffef
80115688:	0000efff 	.word	0xffef0000
8011568c:	1bff0000 	.word	0xff1b
80115690:	3600e500 	.word	0xe50036
80115694:	00003600 	.word	0x360000
80115698:	73ff0000 	.word	0xff73
8011569c:	c7008d00 	.word	0x8d00c7
801156a0:	0000c700 	.word	0xc70000
801156a4:	c000abff 	.word	0xffab00c0
801156a8:	7e0094ff 	.word	0xff94007e
801156ac:	9c007e00 	.word	0x7e009c
801156b0:	6c0064ff 	.word	0xff64006c
801156b4:	7e0040ff 	.word	0xff40007e
801156b8:	55007e00 	.word	0x7e0055
801156bc:	2aff0000 	.word	0xff2a
801156c0:	7e000000 	.word	0x7e
801156c4:	48ff7e00 	.word	0x7eff48
801156c8:	94ff64ff 	.word	0xff64ff94
801156cc:	7e0040ff 	.word	0xff40007e
801156d0:	abff7e00 	.word	0x7effab
801156d4:	0000b800 	.word	0xb80000
801156d8:	7e00d600 	.word	0xd6007e
801156dc:	00007e00 	.word	0x7e0000
801156e0:	c0005500 	.word	0x5500c0
801156e4:	7e006c00 	.word	0x6c007e
801156e8:	9c007e00 	.word	0x7e009c
801156ec:	81ff3900 	.word	0x39ff81
801156f0:	c70081ff 	.word	0xff8100c7
801156f4:	a20043ff 	.word	0xff4300a2
801156f8:	81ffc7ff 	.word	0xffc7ff81
801156fc:	c70081ff 	.word	0xff8100c7
80115700:	5eff43ff 	.word	0xff43ff5e
80115704:	7f003900 	.word	0x39007f
80115708:	c7007f00 	.word	0x7f00c7
8011570c:	a20043ff 	.word	0xff4300a2
80115710:	7f00c7ff 	.word	0xffc7007f
80115714:	c7007f00 	.word	0x7f00c7
80115718:	5eff43ff 	.word	0xff43ff5e
8011571c:	c4009eff 	.word	0xff9e00c4
80115720:	a8ff3cff 	.word	0xff3cffa8
80115724:	9effa8ff 	.word	0xffa8ff9e
80115728:	c4006200 	.word	0x6200c4
8011572c:	a8ff3cff 	.word	0xff3cffa8
80115730:	6200a8ff 	.word	0xffa80062
80115734:	60ff0000 	.word	0xff60
80115738:	71ffa000 	.word	0xa0ff71
8011573c:	000071ff 	.word	0xff710000
80115740:	cbfff9fe 	.word	0xfef9ffcb
80115744:	0effcbff 	.word	0xffcbff0e
80115748:	07010eff 	.word	0xff0e0107
8011574c:	baff99ff 	.word	0xff99ffba
80115750:	c700baff 	.word	0xffba00c7
80115754:	6700c700 	.word	0xc70067
80115758:	8affab00 	.word	0xabff8a
8011575c:	efff3500 	.word	0x35ffef
80115760:	07010eff 	.word	0xff0e0107
80115764:	46006700 	.word	0x670046
80115768:	c7004600 	.word	0x4600c7
8011576c:	99ffc700 	.word	0xc7ff99
80115770:	3500f9fe 	.word	0xfef90035
80115774:	0eff7600 	.word	0x76ff0e
80115778:	ab00efff 	.word	0xffef00ab
8011577c:	46ff5a00 	.word	0x5aff46
80115780:	efffba00 	.word	0xbaffef
80115784:	a6ffefff 	.word	0xffefffa6
80115788:	46ffa6ff 	.word	0xffa6ff46
8011578c:	efff7600 	.word	0x76ffef
80115790:	55ffefff 	.word	0xffefff55
80115794:	8aff55ff 	.word	0xff55ff8a
80115798:	efffba00 	.word	0xbaffef
8011579c:	5a00efff 	.word	0xffef005a
801157a0:	00000000 	nop
801157a4:	f5000000 	.word	0xf5
801157a8:	24ffa8ff 	.word	0xffa8ff24
801157ac:	0000dc00 	.word	0xdc0000
801157b0:	a8ffd6ff 	.word	0xffd6ffa8
801157b4:	f9fe0eff 	.word	0xff0efef9
801157b8:	d6ffcbfe 	.word	0xfecbffd6
801157bc:	f4fe0000 	.word	0xfef4
801157c0:	f9fe0eff 	.word	0xff0efef9
801157c4:	0000cbfe 	.word	0xfecb0000
801157c8:	f4fe0000 	.word	0xfef4
801157cc:	07010eff 	.word	0xff0e0107
801157d0:	00003501 	.word	0x1350000
801157d4:	f4fe2a00 	.word	0x2afef4
801157d8:	07010eff 	.word	0xff0e0107
801157dc:	2a003501 	slt	zero,t1,s5
801157e0:	f4fed6ff 	.word	0xffd6fef4
801157e4:	f9fe0eff 	.word	0xff0efef9
801157e8:	d6ffcbfe 	.word	0xfecbffd6
801157ec:	f4fe0000 	.word	0xfef4
801157f0:	f9fe0eff 	.word	0xff0efef9
801157f4:	0000cbfe 	.word	0xfecb0000
801157f8:	f4fe0000 	.word	0xfef4
801157fc:	07010eff 	.word	0xff0e0107
80115800:	00003501 	.word	0x1350000
80115804:	f4fe2a00 	.word	0x2afef4
80115808:	07010eff 	.word	0xff0e0107
8011580c:	2a003501 	slt	zero,t1,s5
80115810:	f4fe33ff 	.word	0xff33fef4
80115814:	5b003600 	.word	0x36005b
80115818:	8affaa00 	.word	0xaaff8a
8011581c:	360033ff 	.word	0xff330036
80115820:	a5ff3600 	.word	0x36ffa5
80115824:	7600aa00 	.word	0xaa0076
80115828:	36008aff 	.word	0xff8a0036
8011582c:	56ff3600 	.word	0x36ff56
80115830:	cd005b00 	break	0x5b,0x3
80115834:	3600cd00 	.word	0xcd0036
80115838:	a5ff3600 	.word	0x36ffa5
8011583c:	760056ff 	.word	0xff560076
80115840:	36000000 	.word	0x36
80115844:	00007500 	.word	0x750000
80115848:	00002cff 	.word	0xff2c0000
8011584c:	efff0000 	.word	0xffef
80115850:	36ff3600 	.word	0x36ff36
80115854:	000087ff 	.word	0xff870000
80115858:	c7000000 	.word	0xc7
8011585c:	d400efff 	.word	0xffef00d4
80115860:	0000ca00 	.word	0xca0000
80115864:	36000000 	.word	0x36
80115868:	7900c700 	.word	0xc70079
8011586c:	d5000000 	.word	0xd5
80115870:	efff2bff 	.word	0xff2bffef
80115874:	0000efff 	.word	0xffef0000
80115878:	1bff0000 	.word	0xff1b
8011587c:	3600e500 	.word	0xe50036
80115880:	00003600 	.word	0x360000
80115884:	73ff0000 	.word	0xff73
80115888:	c7008d00 	.word	0x8d00c7
8011588c:	0000c700 	.word	0xc70000
80115890:	c000abff 	.word	0xffab00c0
80115894:	7e0094ff 	.word	0xff94007e
80115898:	9c007e00 	.word	0x7e009c
8011589c:	6c0064ff 	.word	0xff64006c
801158a0:	7e0040ff 	.word	0xff40007e
801158a4:	55007e00 	.word	0x7e0055
801158a8:	2aff0000 	.word	0xff2a
801158ac:	7e000000 	.word	0x7e
801158b0:	48ff7e00 	.word	0x7eff48
801158b4:	94ff64ff 	.word	0xff64ff94
801158b8:	7e0040ff 	.word	0xff40007e
801158bc:	abff7e00 	.word	0x7effab
801158c0:	0000b800 	.word	0xb80000
801158c4:	7e00d600 	.word	0xd6007e
801158c8:	00007e00 	.word	0x7e0000
801158cc:	c0005500 	.word	0x5500c0
801158d0:	7e006c00 	.word	0x6c007e
801158d4:	9c007e00 	.word	0x7e009c
801158d8:	81ff3900 	.word	0x39ff81
801158dc:	c7007aff 	.word	0xff7a00c7
801158e0:	ae0043ff 	.word	0xff4300ae
801158e4:	81ffc7ff 	.word	0xffc7ff81
801158e8:	c7007aff 	.word	0xff7a00c7
801158ec:	52ff43ff 	.word	0xff43ff52
801158f0:	7f003900 	.word	0x39007f
801158f4:	c7008600 	.word	0x8600c7
801158f8:	ae0043ff 	.word	0xff4300ae
801158fc:	7f00c7ff 	.word	0xffc7007f
80115900:	c7008600 	.word	0x8600c7
80115904:	52ff43ff 	.word	0xff43ff52
80115908:	ca0095ff 	.word	0xff9500ca
8011590c:	a8ff36ff 	.word	0xff36ffa8
80115910:	95ffa8ff 	.word	0xffa8ff95
80115914:	ca006b00 	.word	0x6b00ca
80115918:	a8ff36ff 	.word	0xff36ffa8
8011591c:	6b00a8ff 	.word	0xffa8006b
80115920:	56ff0000 	.word	0xff56
80115924:	71ffaa00 	.word	0xaaff71
80115928:	000071ff 	.word	0xff710000
8011592c:	c8ffe4fe 	.word	0xfee4ffc8
80115930:	0effc8ff 	.word	0xffc8ff0e
80115934:	1c010eff 	.word	0xff0e011c
80115938:	baff99ff 	.word	0xff99ffba
8011593c:	c700baff 	.word	0xffba00c7
80115940:	6700c700 	.word	0xc70067
80115944:	8affb200 	.word	0xb2ff8a
80115948:	efff3800 	.word	0x38ffef
8011594c:	1c010eff 	.word	0xff0e011c
80115950:	46006700 	.word	0x670046
80115954:	c7004600 	.word	0x4600c7
80115958:	99ffc700 	.word	0xc7ff99
8011595c:	3800e4fe 	.word	0xfee40038
80115960:	0eff7600 	.word	0x76ff0e
80115964:	b200efff 	.word	0xffef00b2
80115968:	46ff5e00 	.word	0x5eff46
8011596c:	efffba00 	.word	0xbaffef
80115970:	a2ffefff 	.word	0xffefffa2
80115974:	46ffa2ff 	.word	0xffa2ff46
80115978:	efff7600 	.word	0x76ffef
8011597c:	4effefff 	.word	0xffefff4e
80115980:	8aff4eff 	.word	0xff4eff8a
80115984:	efffba00 	.word	0xbaffef
80115988:	5e00efff 	.word	0xffef005e
8011598c:	00000000 	nop
80115990:	f5000000 	.word	0xf5
80115994:	10ffa8ff 	.word	0xffa8ff10
80115998:	0000f000 	.word	0xf00000
8011599c:	a8ffd4ff 	.word	0xffd4ffa8
801159a0:	e4fe0eff 	.word	0xff0efee4
801159a4:	d4ffb3fe 	.word	0xfeb3ffd4
801159a8:	f4fe0000 	.word	0xfef4
801159ac:	e4fe0eff 	.word	0xff0efee4
801159b0:	0000b3fe 	.word	0xfeb30000
801159b4:	f4fe0000 	.word	0xfef4
801159b8:	1c010eff 	.word	0xff0e011c
801159bc:	00004d01 	.word	0x14d0000
801159c0:	f4fe2c00 	.word	0x2cfef4
801159c4:	1c010eff 	.word	0xff0e011c
801159c8:	2c004d01 	.word	0x14d002c
801159cc:	f4fed4ff 	.word	0xffd4fef4
801159d0:	e4fe0eff 	.word	0xff0efee4
801159d4:	d4ffb3fe 	.word	0xfeb3ffd4
801159d8:	f4fe0000 	.word	0xfef4
801159dc:	e4fe0eff 	.word	0xff0efee4
801159e0:	0000b3fe 	.word	0xfeb30000
801159e4:	f4fe0000 	.word	0xfef4
801159e8:	1c010eff 	.word	0xff0e011c
801159ec:	00004d01 	.word	0x14d0000
801159f0:	f4fe2c00 	.word	0x2cfef4
801159f4:	1c010eff 	.word	0xff0e011c
801159f8:	2c004d01 	.word	0x14d002c
801159fc:	f4fe33ff 	.word	0xff33fef4
80115a00:	5c003600 	.word	0x36005c
80115a04:	8affac00 	.word	0xacff8a
80115a08:	360033ff 	.word	0xff330036
80115a0c:	a4ff3600 	.word	0x36ffa4
80115a10:	7600ac00 	.word	0xac0076
80115a14:	36008aff 	.word	0xff8a0036
80115a18:	54ff3600 	.word	0x36ff54
80115a1c:	cd005c00 	break	0x5c,0x3
80115a20:	3600cd00 	.word	0xcd0036
80115a24:	a4ff3600 	.word	0x36ffa4
80115a28:	760054ff 	.word	0xff540076
80115a2c:	36000000 	.word	0x36
80115a30:	00008000 	.word	0x800000
80115a34:	000023ff 	.word	0xff230000
80115a38:	efff0000 	.word	0xffef
80115a3c:	34ff3600 	.word	0x36ff34
80115a40:	000087ff 	.word	0xff870000
80115a44:	c7000000 	.word	0xc7
80115a48:	dd00efff 	.word	0xffef00dd
80115a4c:	0000cc00 	.word	0xcc0000
80115a50:	36000000 	.word	0x36
80115a54:	7900c700 	.word	0xc70079
80115a58:	d5000000 	.word	0xd5
80115a5c:	efff2bff 	.word	0xff2bffef
80115a60:	0000efff 	.word	0xffef0000
80115a64:	1bff0000 	.word	0xff1b
80115a68:	3600e500 	.word	0xe50036
80115a6c:	00003600 	.word	0x360000
80115a70:	73ff0000 	.word	0xff73
80115a74:	c7008d00 	.word	0x8d00c7
80115a78:	0000c700 	.word	0xc70000
80115a7c:	c000abff 	.word	0xffab00c0
80115a80:	7e0094ff 	.word	0xff94007e
80115a84:	9c007e00 	.word	0x7e009c
80115a88:	6c0064ff 	.word	0xff64006c
80115a8c:	7e0040ff 	.word	0xff40007e
80115a90:	55007e00 	.word	0x7e0055
80115a94:	2aff0000 	.word	0xff2a
80115a98:	7e000000 	.word	0x7e
80115a9c:	48ff7e00 	.word	0x7eff48
80115aa0:	94ff64ff 	.word	0xff64ff94
80115aa4:	7e0040ff 	.word	0xff40007e
80115aa8:	abff7e00 	.word	0x7effab
80115aac:	0000b800 	.word	0xb80000
80115ab0:	7e00d600 	.word	0xd6007e
80115ab4:	00007e00 	.word	0x7e0000
80115ab8:	c0005500 	.word	0x5500c0
80115abc:	7e006c00 	.word	0x6c007e
80115ac0:	9c007e00 	.word	0x7e009c
80115ac4:	70ff4100 	.word	0x41ff70
80115ac8:	e9008aff 	.word	0xff8a00e9
80115acc:	860031ff 	.word	0xff310086
80115ad0:	70ffbfff 	.word	0xffbfff70
80115ad4:	e9008aff 	.word	0xff8a00e9
80115ad8:	7aff31ff 	.word	0xff31ff7a
80115adc:	90004100 	.word	0x410090
80115ae0:	e9007600 	.word	0x7600e9
80115ae4:	860031ff 	.word	0xff310086
80115ae8:	9000bfff 	.word	0xffbf0090
80115aec:	e9007600 	.word	0x7600e9
80115af0:	7aff31ff 	.word	0xff31ff7a
80115af4:	b200a7ff 	.word	0xffa700b2
80115af8:	a4ff4eff 	.word	0xff4effa4
80115afc:	a7ffa4ff 	.word	0xffa4ffa7
80115b00:	b2005900 	.word	0x5900b2
80115b04:	a4ff4eff 	.word	0xff4effa4
80115b08:	5900a4ff 	.word	0xffa40059
80115b0c:	6bff0000 	.word	0xff6b
80115b10:	63ff9500 	.word	0x95ff63
80115b14:	000063ff 	.word	0xff630000
80115b18:	cfff25ff 	.word	0xff25ffcf
80115b1c:	f7fecfff 	.word	0xffcffef7
80115b20:	db00f7fe 	.word	0xfef700db
80115b24:	b1ff8bff 	.word	0xff8bffb1
80115b28:	e900b1ff 	.word	0xffb100e9
80115b2c:	7500e900 	.word	0xe90075
80115b30:	94ff9c00 	.word	0x9cff94
80115b34:	efff3100 	.word	0x31ffef
80115b38:	db00f7fe 	.word	0xfef700db
80115b3c:	4f007500 	.word	0x75004f
80115b40:	e9004f00 	.word	0x4f00e9
80115b44:	8bffe900 	.word	0xe9ff8b
80115b48:	310025ff 	.word	0xff250031
80115b4c:	f7fe6c00 	.word	0x6cfef7
80115b50:	9c00efff 	.word	0xffef009c
80115b54:	56ff5200 	.word	0x52ff56
80115b58:	efffaa00 	.word	0xaaffef
80115b5c:	aeffefff 	.word	0xffefffae
80115b60:	56ffaeff 	.word	0xffaeff56
80115b64:	efff6c00 	.word	0x6cffef
80115b68:	64ffefff 	.word	0xffefff64
80115b6c:	94ff64ff 	.word	0xff64ff94
80115b70:	efffaa00 	.word	0xaaffef
80115b74:	5200efff 	.word	0xffef0052
80115b78:	00000000 	nop
80115b7c:	20010000 	.word	0x120
80115b80:	3affa4ff 	.word	0xffa4ff3a
80115b84:	0000c600 	.word	0xc60000
80115b88:	a4ffd9ff 	.word	0xffd9ffa4
80115b8c:	25fff7fe 	.word	0xfef7ff25
80115b90:	d9fffffe 	.word	0xfeffffd9
80115b94:	dafe0000 	.word	0xfeda
80115b98:	25fff7fe 	.word	0xfef7ff25
80115b9c:	0000fffe 	.word	0xfeff0000
80115ba0:	dafe0000 	.word	0xfeda
80115ba4:	db00f7fe 	.word	0xfef700db
80115ba8:	00000101 	.word	0x1010000
80115bac:	dafe2700 	.word	0x27feda
80115bb0:	db00f7fe 	.word	0xfef700db
80115bb4:	27000101 	nor	zero,t0,at
80115bb8:	dafed9ff 	.word	0xffd9feda
80115bbc:	25fff7fe 	.word	0xfef7ff25
80115bc0:	d9fffffe 	.word	0xfeffffd9
80115bc4:	dafe0000 	.word	0xfeda
80115bc8:	25fff7fe 	.word	0xfef7ff25
80115bcc:	0000fffe 	.word	0xfeff0000
80115bd0:	dafe0000 	.word	0xfeda
80115bd4:	db00f7fe 	.word	0xfef700db
80115bd8:	00000101 	.word	0x1010000
80115bdc:	dafe2700 	.word	0x27feda
80115be0:	db00f7fe 	.word	0xfef700db
80115be4:	27000101 	nor	zero,t0,at
80115be8:	dafe3aff 	.word	0xff3afeda
80115bec:	59004000 	.word	0x400059
80115bf0:	8effa600 	.word	0xa6ff8e
80115bf4:	40003aff 	.word	0xff3a0040
80115bf8:	a7ff4000 	.word	0x40ffa7
80115bfc:	7200a600 	.word	0xa60072
80115c00:	40008eff 	.word	0xff8e0040
80115c04:	5aff4000 	.word	0x40ff5a
80115c08:	c6005900 	.word	0x5900c6
80115c0c:	4000c600 	.word	0xc60040
80115c10:	a7ff4000 	.word	0x40ffa7
80115c14:	72005aff 	.word	0xff5a0072
80115c18:	40000000 	ssnop
80115c1c:	00003400 	.word	0x340000
80115c20:	00003fff 	.word	0xff3f0000
80115c24:	efff0000 	.word	0xffef
80115c28:	3bff4000 	.word	0x40ff3b
80115c2c:	000076ff 	.word	0xff760000
80115c30:	e9000000 	.word	0xe9
80115c34:	c100efff 	.word	0xffef00c1
80115c38:	0000c500 	.word	0xc50000
80115c3c:	40000000 	ssnop
80115c40:	8a00e900 	.word	0xe9008a
80115c44:	c4000000 	.word	0xc4
80115c48:	efff3cff 	.word	0xff3cffef
80115c4c:	0000efff 	.word	0xffef0000
80115c50:	23ff0000 	.word	0xff23
80115c54:	4000dd00 	.word	0xdd0040
80115c58:	00004000 	.word	0x400000
80115c5c:	60ff0000 	.word	0xff60
80115c60:	e900a000 	.word	0xa000e9
80115c64:	0000e900 	.word	0xe90000
80115c68:	d300a2ff 	.word	0xffa200d3
80115c6c:	950089ff 	.word	0xff890095
80115c70:	ab009500 	.word	0x9500ab
80115c74:	770055ff 	.word	0xff550077
80115c78:	95002dff 	.word	0xff2d0095
80115c7c:	5e009500 	.word	0x95005e
80115c80:	15ff0000 	.word	0xff15
80115c84:	95000000 	.word	0x95
80115c88:	35ff9500 	.word	0x95ff35
80115c8c:	89ff55ff 	.word	0xff55ff89
80115c90:	95002dff 	.word	0xff2d0095
80115c94:	a2ff9500 	.word	0x95ffa2
80115c98:	0000cb00 	.word	0xcb0000
80115c9c:	9500eb00 	.word	0xeb0095
80115ca0:	00009500 	.word	0x950000
80115ca4:	d3005e00 	.word	0x5e00d3
80115ca8:	95007700 	.word	0x770095
80115cac:	ab009500 	.word	0x9500ab
80115cb0:	5eff4a00 	.word	0x4aff5e
80115cb4:	0f019bff 	.word	0xff9b010f
80115cb8:	5b001dff 	.word	0xff1d005b
80115cbc:	5effb6ff 	.word	0xffb6ff5e
80115cc0:	0f019bff 	.word	0xff9b010f
80115cc4:	a5ff1dff 	.word	0xff1dffa5
80115cc8:	a2004a00 	.word	0x4a00a2
80115ccc:	0f016500 	.word	0x65010f
80115cd0:	5b001dff 	.word	0xff1d005b
80115cd4:	a200b6ff 	.word	0xffb600a2
80115cd8:	0f016500 	.word	0x65010f
80115cdc:	a5ff1dff 	.word	0xff1dffa5
80115ce0:	9800bcff 	.word	0xffbc0098
80115ce4:	a0ff68ff 	.word	0xff68ffa0
80115ce8:	bcffa0ff 	.word	0xffa0ffbc
80115cec:	98004400 	.word	0x440098
80115cf0:	a0ff68ff 	.word	0xff68ffa0
80115cf4:	4400a0ff 	.word	0xffa00044
80115cf8:	80ff0000 	sll	ra,zero,0x1e
80115cfc:	55ff8000 	.word	0x80ff55
80115d00:	000055ff 	.word	0xff550000
80115d04:	d6ff6bff 	.word	0xff6bffd6
80115d08:	defed6ff 	.word	0xffd6fede
80115d0c:	9500defe 	.word	0xfede0095
80115d10:	a7ff7cff 	.word	0xff7cffa7
80115d14:	0f01a7ff 	.word	0xffa7010f
80115d18:	84000f01 	.word	0x10f0084
80115d1c:	9fff8300 	.word	0x83ff9f
80115d20:	efff2a00 	.word	0x2affef
80115d24:	9500defe 	.word	0xfede0095
80115d28:	59008400 	.word	0x840059
80115d2c:	0f015900 	.word	0x59010f
80115d30:	7cff0f01 	.word	0x10fff7c
80115d34:	2a006bff 	.word	0xff6b002a
80115d38:	defe6100 	.word	0x61fede
80115d3c:	8300efff 	.word	0xffef0083
80115d40:	66ff4500 	.word	0x45ff66
80115d44:	efff9a00 	.word	0x9affef
80115d48:	bbffefff 	.word	0xffefffbb
80115d4c:	66ffbbff 	.word	0xffbbff66
80115d50:	efff6100 	.word	0x61ffef
80115d54:	7dffefff 	.word	0xffefff7d
80115d58:	9fff7dff 	.word	0xff7dff9f
80115d5c:	efff9a00 	.word	0x9affef
80115d60:	4500efff 	.word	0xffef0045
80115d64:	00000000 	nop
80115d68:	4e010000 	.word	0x14e
80115d6c:	67ffa0ff 	.word	0xffa0ff67
80115d70:	00009900 	.word	0x990000
80115d74:	a0ffdfff 	.word	0xffdfffa0
80115d78:	6bffdefe 	.word	0xfedeff6b
80115d7c:	dfff51ff 	.word	0xff51ffdf
80115d80:	befe0000 	.word	0xfebe
80115d84:	6bffdefe 	.word	0xfedeff6b
80115d88:	000051ff 	.word	0xff510000
80115d8c:	befe0000 	.word	0xfebe
80115d90:	9500defe 	.word	0xfede0095
80115d94:	0000af00 	.word	0xaf0000
80115d98:	befe2100 	.word	0x21febe
80115d9c:	9500defe 	.word	0xfede0095
80115da0:	2100af00 	addu	zero,a1,t7
80115da4:	befedfff 	.word	0xffdffebe
80115da8:	6bffdefe 	.word	0xfedeff6b
80115dac:	dfff51ff 	.word	0xff51ffdf
80115db0:	befe0000 	.word	0xfebe
80115db4:	6bffdefe 	.word	0xfedeff6b
80115db8:	000051ff 	.word	0xff510000
80115dbc:	befe0000 	.word	0xfebe
80115dc0:	9500defe 	.word	0xfede0095
80115dc4:	0000af00 	.word	0xaf0000
80115dc8:	befe2100 	.word	0x21febe
80115dcc:	9500defe 	.word	0xfede0095
80115dd0:	2100af00 	addu	zero,a1,t7
80115dd4:	befe41ff 	.word	0xff41febe
80115dd8:	56004a00 	.word	0x4a0056
80115ddc:	92ffa000 	.word	0xa0ff92
80115de0:	4a0041ff 	.word	0xff41004a
80115de4:	aaff4a00 	.word	0x4affaa
80115de8:	6e00a000 	.word	0xa0006e
80115dec:	4a0092ff 	.word	0xff92004a
80115df0:	60ff4a00 	.word	0x4aff60
80115df4:	bf005600 	.word	0x5600bf
80115df8:	4a00bf00 	.word	0xbf004a
80115dfc:	aaff4a00 	.word	0x4affaa
80115e00:	6e0060ff 	.word	0xff60006e
80115e04:	4a000000 	.word	0x4a
80115e08:	0000e3ff 	.word	0xffe30000
80115e0c:	00005dff 	.word	0xff5d0000
80115e10:	efff0000 	.word	0xffef
80115e14:	42ff4a00 	.word	0x4aff42
80115e18:	000064ff 	.word	0xff640000
80115e1c:	0f010000 	.word	0x10f
80115e20:	a300efff 	.word	0xffef00a3
80115e24:	0000be00 	.word	0xbe0000
80115e28:	4a000000 	.word	0x4a
80115e2c:	9c000f01 	.word	0x10f009c
80115e30:	b0000000 	.word	0xb0
80115e34:	efff50ff 	.word	0xff50ffef
80115e38:	0000efff 	.word	0xffef0000
80115e3c:	2bff0000 	.word	0xff2b
80115e40:	4a00d500 	.word	0xd5004a
80115e44:	00004a00 	.word	0x4a0000
80115e48:	4bff0000 	.word	0xff4b
80115e4c:	0f01b500 	.word	0xb5010f
80115e50:	00000f01 	.word	0x10f0000
80115e54:	e80099ff 	.word	0xff9900e8
80115e58:	ac007eff 	.word	0xff7e00ac
80115e5c:	bc00ac00 	.word	0xac00bc
80115e60:	820044ff 	.word	0xff440082
80115e64:	ac0018ff 	.word	0xff1800ac
80115e68:	6700ac00 	.word	0xac0067
80115e6c:	fefe0000 	.word	0xfefe
80115e70:	ac000000 	.word	0xac
80115e74:	21ffac00 	.word	0xacff21
80115e78:	7eff44ff 	.word	0xff44ff7e
80115e7c:	ac0018ff 	.word	0xff1800ac
80115e80:	99ffac00 	.word	0xacff99
80115e84:	0000df00 	.word	0xdf0000
80115e88:	ac000201 	.word	0x10200ac
80115e8c:	0000ac00 	.word	0xac0000
80115e90:	e8006700 	.word	0x6700e8
80115e94:	ac008200 	.word	0x8200ac
80115e98:	bc00ac00 	.word	0xac00bc
80115e9c:	4bff5200 	.word	0x52ff4b
80115ea0:	3501acff 	.word	0xffac0135
80115ea4:	2f0009ff 	.word	0xff09002f
80115ea8:	4bffaeff 	.word	0xffaeff4b
80115eac:	3501acff 	.word	0xffac0135
80115eb0:	d1ff09ff 	.word	0xff09ffd1
80115eb4:	b5005200 	.word	0x5200b5
80115eb8:	35015400 	.word	0x540135
80115ebc:	2f0009ff 	.word	0xff09002f
80115ec0:	b500aeff 	.word	0xffae00b5
80115ec4:	35015400 	.word	0x540135
80115ec8:	d1ff09ff 	.word	0xff09ffd1
80115ecc:	7e00d0ff 	.word	0xffd0007e
80115ed0:	9bff82ff 	.word	0xff82ff9b
80115ed4:	d0ff9bff 	.word	0xff9bffd0
80115ed8:	7e003000 	.word	0x30007e
80115edc:	9bff82ff 	.word	0xff82ff9b
80115ee0:	30009bff 	.word	0xff9b0030
80115ee4:	96ff0000 	.word	0xff96
80115ee8:	45ff6a00 	.word	0x6aff45
80115eec:	000045ff 	.word	0xff450000
80115ef0:	ddffb3ff 	.word	0xffb3ffdd
80115ef4:	c4feddff 	.word	0xffddfec4
80115ef8:	4d00c4fe 	.word	0xfec4004d
80115efc:	9cff6cff 	.word	0xff6cff9c
80115f00:	35019cff 	.word	0xff9c0135
80115f04:	94003501 	.word	0x1350094
80115f08:	a9ff6a00 	.word	0x6affa9
80115f0c:	efff2300 	.word	0x23ffef
80115f10:	4d00c4fe 	.word	0xfec4004d
80115f14:	64009400 	.word	0x940064
80115f18:	35016400 	.word	0x640135
80115f1c:	6cff3501 	.word	0x135ff6c
80115f20:	2300b3ff 	.word	0xffb30023
80115f24:	c4fe5700 	.word	0x57fec4
80115f28:	6a00efff 	.word	0xffef006a
80115f2c:	77ff3800 	.word	0x38ff77
80115f30:	efff8900 	.word	0x89ffef
80115f34:	c8ffefff 	.word	0xffefffc8
80115f38:	77ffc8ff 	.word	0xffc8ff77
80115f3c:	efff5700 	.word	0x57ffef
80115f40:	96ffefff 	.word	0xffefff96
80115f44:	a9ff96ff 	.word	0xff96ffa9
80115f48:	efff8900 	.word	0x89ffef
80115f4c:	3800efff 	.word	0xffef0038
80115f50:	00000000 	nop
80115f54:	7d010000 	.word	0x17d
80115f58:	96ff9bff 	.word	0xff9bff96
80115f5c:	00006a00 	.word	0x6a0000
80115f60:	9bffe4ff 	.word	0xffe4ff9b
80115f64:	b3ffc4fe 	.word	0xfec4ffb3
80115f68:	e4ffa5ff 	.word	0xffa5ffe4
80115f6c:	a1fe0000 	.word	0xfea1
80115f70:	b3ffc4fe 	.word	0xfec4ffb3
80115f74:	0000a5ff 	.word	0xffa50000
80115f78:	a1fe0000 	.word	0xfea1
80115f7c:	4d00c4fe 	.word	0xfec4004d
80115f80:	00005b00 	.word	0x5b0000
80115f84:	a1fe1c00 	.word	0x1cfea1
80115f88:	4d00c4fe 	.word	0xfec4004d
80115f8c:	1c005b00 	.word	0x5b001c
80115f90:	a1fee4ff 	.word	0xffe4fea1
80115f94:	b3ffc4fe 	.word	0xfec4ffb3
80115f98:	e4ffa5ff 	.word	0xffa5ffe4
80115f9c:	a1fe0000 	.word	0xfea1
80115fa0:	b3ffc4fe 	.word	0xfec4ffb3
80115fa4:	0000a5ff 	.word	0xffa50000
80115fa8:	a1fe0000 	.word	0xfea1
80115fac:	4d00c4fe 	.word	0xfec4004d
80115fb0:	00005b00 	.word	0x5b0000
80115fb4:	a1fe1c00 	.word	0x1cfea1
80115fb8:	4d00c4fe 	.word	0xfec4004d
80115fbc:	1c005b00 	.word	0x5b001c
80115fc0:	a1fe49ff 	.word	0xff49fea1
80115fc4:	52005400 	.word	0x540052
80115fc8:	96ff9900 	.word	0x99ff96
80115fcc:	540049ff 	.word	0xff490054
80115fd0:	aeff5400 	.word	0x54ffae
80115fd4:	6a009900 	.word	0x99006a
80115fd8:	540096ff 	.word	0xff960054
80115fdc:	67ff5400 	.word	0x54ff67
80115fe0:	b7005200 	.word	0x5200b7
80115fe4:	5400b700 	.word	0xb70054
80115fe8:	aeff5400 	.word	0x54ffae
80115fec:	6a0067ff 	.word	0xff67006a
80115ff0:	54000000 	.word	0x54
80115ff4:	00008fff 	.word	0xff8f0000
80115ff8:	00007cff 	.word	0xff7c0000
80115ffc:	efff0000 	.word	0xffef
80116000:	4aff5400 	.word	0x54ff4a
80116004:	000052ff 	.word	0xff520000
80116008:	35010000 	.word	0x135
8011600c:	8400efff 	.word	0xffef0084
80116010:	0000b600 	.word	0xb60000
80116014:	54000000 	.word	0x54
80116018:	ae003501 	.word	0x13500ae
8011601c:	9d000000 	.word	0x9d
80116020:	efff63ff 	.word	0xff63ffef
80116024:	0000efff 	.word	0xffef0000
80116028:	33ff0000 	.word	0xff33
8011602c:	5400cd00 	.word	0xcd0054
80116030:	00005400 	.word	0x540000
80116034:	36ff0000 	.word	0xff36
80116038:	3501ca00 	.word	0xca0135
8011603c:	00003501 	.word	0x1350000
80116040:	fd008fff 	.word	0xff8f00fd
80116044:	c50072ff 	.word	0xff7200c5
80116048:	cd00c500 	break	0xc5,0x3
8011604c:	8e0033ff 	.word	0xff33008e
80116050:	c50003ff 	.word	0xff0300c5
80116054:	7100c500 	.word	0xc50071
80116058:	e6fe0000 	.word	0xfee6
8011605c:	c5000000 	.word	0xc5
80116060:	0dffc500 	break	0xc5,0x3fc
80116064:	72ff33ff 	.word	0xff33ff72
80116068:	c50003ff 	.word	0xff0300c5
8011606c:	8fffc500 	.word	0xc5ff8f
80116070:	0000f300 	.word	0xf30000
80116074:	c5001a01 	.word	0x11a00c5
80116078:	0000c500 	.word	0xc50000
8011607c:	fd007100 	.word	0x7100fd
80116080:	c5008e00 	.word	0x8e00c5
80116084:	cd00c500 	break	0xc5,0x3
80116088:	38ff5b00 	.word	0x5bff38
8011608c:	5b01beff 	.word	0xffbe015b
80116090:	0400f5fe 	.word	0xfef50004
80116094:	38ffa5ff 	.word	0xffa5ff38
80116098:	5b01beff 	.word	0xffbe015b
8011609c:	fcfff5fe 	.word	0xfef5fffc
801160a0:	c8005b00 	.word	0x5b00c8
801160a4:	5b014200 	.word	0x42015b
801160a8:	0400f5fe 	.word	0xfef50004
801160ac:	c800a5ff 	.word	0xffa500c8
801160b0:	5b014200 	.word	0x42015b
801160b4:	fcfff5fe 	.word	0xfef5fffc
801160b8:	6400e5ff 	.word	0xffe50064
801160bc:	97ff9cff 	.word	0xff9cff97
801160c0:	e5ff97ff 	.word	0xff97ffe5
801160c4:	64001b00 	.word	0x1b0064
801160c8:	97ff9cff 	.word	0xff9cff97
801160cc:	1b0097ff 	.word	0xff97001b
801160d0:	acff0000 	.word	0xffac
801160d4:	36ff5400 	.word	0x54ff36
801160d8:	000036ff 	.word	0xff360000
801160dc:	e5fffaff 	.word	0xfffaffe5
801160e0:	aafee5ff 	.word	0xffe5feaa
801160e4:	0600aafe 	.word	0xfeaa0006
801160e8:	92ff5dff 	.word	0xff5dff92
801160ec:	5b0192ff 	.word	0xff92015b
801160f0:	a3005b01 	.word	0x15b00a3
801160f4:	b4ff5100 	.word	0x51ffb4
801160f8:	efff1b00 	.word	0x1bffef
801160fc:	0600aafe 	.word	0xfeaa0006
80116100:	6e00a300 	.word	0xa3006e
80116104:	5b016e00 	.word	0x6e015b
80116108:	5dff5b01 	.word	0x15bff5d
8011610c:	1b00faff 	.word	0xfffa001b
80116110:	aafe4c00 	.word	0x4cfeaa
80116114:	5100efff 	.word	0xffef0051
80116118:	88ff2b00 	.word	0x2bff88
8011611c:	efff7800 	.word	0x78ffef
80116120:	d5ffefff 	.word	0xffefffd5
80116124:	88ffd5ff 	.word	0xffd5ff88
80116128:	efff4c00 	.word	0x4cffef
8011612c:	afffefff 	.word	0xffefffaf
80116130:	b4ffafff 	.word	0xffafffb4
80116134:	efff7800 	.word	0x78ffef
80116138:	2b00efff 	.word	0xffef002b
8011613c:	00000000 	nop
80116140:	ac010000 	.word	0x1ac
80116144:	c3ff97ff 	.word	0xff97ffc3
80116148:	00003d00 	.word	0x3d0000
8011614c:	97ffeaff 	.word	0xffeaff97
80116150:	faffaafe 	.word	0xfeaafffa
80116154:	eafff9ff 	.word	0xfff9ffea
80116158:	85fe0000 	.word	0xfe85
8011615c:	faffaafe 	.word	0xfeaafffa
80116160:	0000f9ff 	.word	0xfff90000
80116164:	85fe0000 	.word	0xfe85
80116168:	0600aafe 	.word	0xfeaa0006
8011616c:	00000700 	sll	zero,a3,0x0
80116170:	85fe1600 	.word	0x16fe85
80116174:	0600aafe 	.word	0xfeaa0006
80116178:	16000700 	.word	0x70016
8011617c:	85feeaff 	.word	0xffeafe85
80116180:	faffaafe 	.word	0xfeaafffa
80116184:	eafff9ff 	.word	0xfff9ffea
80116188:	85fe0000 	.word	0xfe85
8011618c:	faffaafe 	.word	0xfeaafffa
80116190:	0000f9ff 	.word	0xfff90000
80116194:	85fe0000 	.word	0xfe85
80116198:	0600aafe 	.word	0xfeaa0006
8011619c:	00000700 	sll	zero,a3,0x0
801161a0:	85fe1600 	.word	0x16fe85
801161a4:	0600aafe 	.word	0xfeaa0006
801161a8:	16000700 	.word	0x70016
801161ac:	85fe51ff 	.word	0xff51fe85
801161b0:	4f005f00 	.word	0x5f004f
801161b4:	9bff9300 	.word	0x93ff9b
801161b8:	5f0051ff 	.word	0xff51005f
801161bc:	b1ff5f00 	.word	0x5fffb1
801161c0:	65009300 	.word	0x930065
801161c4:	5f009bff 	.word	0xff9b005f
801161c8:	6dff5f00 	.word	0x5fff6d
801161cc:	af004f00 	.word	0x4f00af
801161d0:	5f00af00 	.word	0xaf005f
801161d4:	b1ff5f00 	.word	0x5fffb1
801161d8:	65006dff 	.word	0xff6d0065
801161dc:	5f000000 	.word	0x5f
801161e0:	00003cff 	.word	0xff3c0000
801161e4:	00009bff 	.word	0xff9b0000
801161e8:	efff0000 	.word	0xffef
801161ec:	52ff5f00 	.word	0x5fff52
801161f0:	000040ff 	.word	0xff400000
801161f4:	5b010000 	.word	0x15b
801161f8:	6500efff 	.word	0xffef0065
801161fc:	0000ae00 	.word	0xae0000
80116200:	5f000000 	.word	0x5f
80116204:	c0005b01 	.word	0x15b00c0
80116208:	89000000 	.word	0x89
8011620c:	efff77ff 	.word	0xff77ffef
80116210:	0000efff 	.word	0xffef0000
80116214:	3cff0000 	.word	0xff3c
80116218:	5f00c400 	.word	0xc4005f
8011621c:	00005f00 	.word	0x5f0000
80116220:	22ff0000 	.word	0xff22
80116224:	5b01de00 	.word	0xde015b
80116228:	00005b01 	.word	0x15b0000
8011622c:	120186ff 	.word	0xff860112
80116230:	dd0066ff 	.word	0xff6600dd
80116234:	de00dd00 	.word	0xdd00de
80116238:	9a0022ff 	.word	0xff22009a
8011623c:	dd00eefe 	.word	0xfeee00dd
80116240:	7a00dd00 	.word	0xdd007a
80116244:	cffe0000 	.word	0xfecf
80116248:	dd000000 	.word	0xdd
8011624c:	f9fedd00 	.word	0xddfef9
80116250:	66ff22ff 	.word	0xff22ff66
80116254:	dd00eefe 	.word	0xfeee00dd
80116258:	86ffdd00 	.word	0xddff86
8011625c:	00000701 	.word	0x1070000
80116260:	dd003101 	.word	0x13100dd
80116264:	0000dd00 	.word	0xdd0000
80116268:	12017a00 	.word	0x7a0112
8011626c:	dd009a00 	.word	0x9a00dd
80116270:	de00dd00 	.word	0xdd00de
80116274:	43ff5600 	.word	0x56ff43
80116278:	3601b9ff 	.word	0xffb90136
8011627c:	04000eff 	.word	0xff0e0004
80116280:	43ffaaff 	.word	0xffaaff43
80116284:	3601b9ff 	.word	0xffb90136
80116288:	fcff0eff 	.word	0xff0efffc
8011628c:	bd005600 	.word	0x5600bd
80116290:	36014700 	.word	0x470136
80116294:	04000eff 	.word	0xff0e0004
80116298:	bd00aaff 	.word	0xffaa00bd
8011629c:	36014700 	.word	0x470136
801162a0:	fcff0eff 	.word	0xff0efffc
801162a4:	6d00e3ff 	.word	0xffe3006d
801162a8:	9cff93ff 	.word	0xff93ff9c
801162ac:	e3ff9cff 	.word	0xff9cffe3
801162b0:	6d001d00 	.word	0x1d006d
801162b4:	9cff93ff 	.word	0xff93ff9c
801162b8:	1d009cff 	.word	0xff9c001d
801162bc:	a7ff0000 	.word	0xffa7
801162c0:	49ff5900 	.word	0x59ff49
801162c4:	000049ff 	.word	0xff490000
801162c8:	e5fffaff 	.word	0xfffaffe5
801162cc:	cafee5ff 	.word	0xffe5feca
801162d0:	0600cafe 	.word	0xfeca0006
801162d4:	98ff66ff 	.word	0xff66ff98
801162d8:	360198ff 	.word	0xff980136
801162dc:	9a003601 	.word	0x136009a
801162e0:	acff5a00 	.word	0x5affac
801162e4:	efff1b00 	.word	0x1bffef
801162e8:	0600cafe 	.word	0xfeca0006
801162ec:	68009a00 	.word	0x9a0068
801162f0:	36016800 	.word	0x680136
801162f4:	66ff3601 	.word	0x136ff66
801162f8:	1b00faff 	.word	0xfffa001b
801162fc:	cafe5400 	.word	0x54feca
80116300:	5a00efff 	.word	0xffef005a
80116304:	7cff2f00 	.word	0x2fff7c
80116308:	efff8400 	.word	0x84ffef
8011630c:	d1ffefff 	.word	0xffefffd1
80116310:	7cffd1ff 	.word	0xffd1ff7c
80116314:	efff5400 	.word	0x54ffef
80116318:	a6ffefff 	.word	0xffefffa6
8011631c:	acffa6ff 	.word	0xffa6ffac
80116320:	efff8400 	.word	0x84ffef
80116324:	2f00efff 	.word	0xffef002f
80116328:	00000000 	nop
8011632c:	81010000 	.word	0x181
80116330:	beff9cff 	.word	0xff9cffbe
80116334:	00004200 	.word	0x420000
80116338:	9cffeaff 	.word	0xffeaff9c
8011633c:	faffcafe 	.word	0xfecafffa
80116340:	eafff9ff 	.word	0xfff9ffea
80116344:	a8fe0000 	.word	0xfea8
80116348:	faffcafe 	.word	0xfecafffa
8011634c:	0000f9ff 	.word	0xfff90000
80116350:	a8fe0000 	.word	0xfea8
80116354:	0600cafe 	.word	0xfeca0006
80116358:	00000700 	sll	zero,a3,0x0
8011635c:	a8fe1600 	.word	0x16fea8
80116360:	0600cafe 	.word	0xfeca0006
80116364:	16000700 	.word	0x70016
80116368:	a8feeaff 	.word	0xffeafea8
8011636c:	faffcafe 	.word	0xfecafffa
80116370:	eafff9ff 	.word	0xfff9ffea
80116374:	a8fe0000 	.word	0xfea8
80116378:	faffcafe 	.word	0xfecafffa
8011637c:	0000f9ff 	.word	0xfff90000
80116380:	a8fe0000 	.word	0xfea8
80116384:	0600cafe 	.word	0xfeca0006
80116388:	00000700 	sll	zero,a3,0x0
8011638c:	a8fe1600 	.word	0x16fea8
80116390:	0600cafe 	.word	0xfeca0006
80116394:	16000700 	.word	0x70016
80116398:	a8fe4dff 	.word	0xff4dfea8
8011639c:	50005100 	.word	0x510050
801163a0:	99ff9500 	.word	0x95ff99
801163a4:	51004dff 	.word	0xff4d0051
801163a8:	b0ff5100 	.word	0x51ffb0
801163ac:	67009500 	.word	0x950067
801163b0:	510099ff 	.word	0xff990051
801163b4:	6bff5100 	.word	0x51ff6b
801163b8:	b3005000 	.word	0x5000b3
801163bc:	5100b300 	.word	0xb30051
801163c0:	b0ff5100 	.word	0x51ffb0
801163c4:	67006bff 	.word	0xff6b0067
801163c8:	51000000 	.word	0x51
801163cc:	00004fff 	.word	0xff4f0000
801163d0:	000091ff 	.word	0xff910000
801163d4:	efff0000 	.word	0xffef
801163d8:	4eff5100 	.word	0x51ff4e
801163dc:	00004bff 	.word	0xff4b0000
801163e0:	36010000 	.word	0x136
801163e4:	6f00efff 	.word	0xffef006f
801163e8:	0000b200 	.word	0xb20000
801163ec:	51000000 	.word	0x51
801163f0:	b5003601 	.word	0x13600b5
801163f4:	97000000 	.word	0x97
801163f8:	efff69ff 	.word	0xff69ffef
801163fc:	0000efff 	.word	0xffef0000
80116400:	38ff0000 	.word	0xff38
80116404:	5100c800 	.word	0xc80051
80116408:	00005100 	.word	0x510000
8011640c:	2eff0000 	.word	0xff2e
80116410:	3601d200 	.word	0xd20136
80116414:	00003601 	.word	0x1360000
80116418:	02018dff 	.word	0xff8d0102
8011641c:	c5006eff 	.word	0xff6e00c5
80116420:	d200c500 	.word	0xc500d2
80116424:	92002eff 	.word	0xff2e0092
80116428:	c500fefe 	.word	0xfefe00c5
8011642c:	7300c500 	.word	0xc50073
80116430:	e0fe0000 	.word	0xfee0
80116434:	c5000000 	.word	0xc5
80116438:	08ffc500 	.word	0xc5ff08
8011643c:	6eff2eff 	.word	0xff2eff6e
80116440:	c500fefe 	.word	0xfefe00c5
80116444:	8dffc500 	break	0xc5,0x3fe
80116448:	0000f800 	.word	0xf80000
8011644c:	c5002001 	.word	0x12000c5
80116450:	0000c500 	.word	0xc50000
80116454:	02017300 	.word	0x730102
80116458:	c5009200 	.word	0x9200c5
8011645c:	d200c500 	.word	0xc500d2
80116460:	4fff5000 	.word	0x50ff4f
80116464:	0d01b5ff 	.word	0xffb5010d
80116468:	040029ff 	.word	0xff290004
8011646c:	4fffb0ff 	.word	0xffb0ff4f
80116470:	0d01b5ff 	.word	0xffb5010d
80116474:	fcff29ff 	.word	0xff29fffc
80116478:	b1005000 	.word	0x5000b1
8011647c:	0d014b00 	break	0x4b,0x4
80116480:	040029ff 	.word	0xff290004
80116484:	b100b0ff 	.word	0xffb000b1
80116488:	0d014b00 	break	0x4b,0x4
8011648c:	fcff29ff 	.word	0xff29fffc
80116490:	7700e0ff 	.word	0xffe00077
80116494:	a2ff89ff 	.word	0xff89ffa2
80116498:	e0ffa2ff 	.word	0xffa2ffe0
8011649c:	77002000 	.word	0x200077
801164a0:	a2ff89ff 	.word	0xff89ffa2
801164a4:	2000a2ff 	.word	0xffa20020
801164a8:	a1ff0000 	.word	0xffa1
801164ac:	5eff5f00 	.word	0x5fff5e
801164b0:	00005eff 	.word	0xff5e0000
801164b4:	e5fffaff 	.word	0xfffaffe5
801164b8:	edfee5ff 	.word	0xffe5feed
801164bc:	0600edfe 	.word	0xfeed0006
801164c0:	9fff70ff 	.word	0xff70ff9f
801164c4:	0d019fff 	.word	0xff9f010d
801164c8:	90000d01 	.word	0x10d0090
801164cc:	a4ff6300 	.word	0x63ffa4
801164d0:	efff1b00 	.word	0x1bffef
801164d4:	0600edfe 	.word	0xfeed0006
801164d8:	61009000 	.word	0x900061
801164dc:	0d016100 	break	0x61,0x4
801164e0:	70ff0d01 	.word	0x10dff70
801164e4:	1b00faff 	.word	0xfffa001b
801164e8:	edfe5c00 	.word	0x5cfeed
801164ec:	6300efff 	.word	0xffef0063
801164f0:	6fff3400 	.word	0x34ff6f
801164f4:	efff9100 	.word	0x91ffef
801164f8:	ccffefff 	.word	0xffefffcc
801164fc:	6fffccff 	.word	0xffccff6f
80116500:	efff5c00 	.word	0x5cffef
80116504:	9dffefff 	.word	0xffefff9d
80116508:	a4ff9dff 	.word	0xff9dffa4
8011650c:	efff9100 	.word	0x91ffef
80116510:	3400efff 	.word	0xffef0034
80116514:	00000000 	nop
80116518:	52010000 	.word	0x152
8011651c:	b8ffa2ff 	.word	0xffa2ffb8
80116520:	00004800 	.word	0x480000
80116524:	a2ffeaff 	.word	0xffeaffa2
80116528:	faffedfe 	.word	0xfeedfffa
8011652c:	eafff9ff 	.word	0xfff9ffea
80116530:	cffe0000 	.word	0xfecf
80116534:	faffedfe 	.word	0xfeedfffa
80116538:	0000f9ff 	.word	0xfff90000
8011653c:	cffe0000 	.word	0xfecf
80116540:	0600edfe 	.word	0xfeed0006
80116544:	00000700 	sll	zero,a3,0x0
80116548:	cffe1600 	.word	0x16fecf
8011654c:	0600edfe 	.word	0xfeed0006
80116550:	16000700 	.word	0x70016
80116554:	cffeeaff 	.word	0xffeafecf
80116558:	faffedfe 	.word	0xfeedfffa
8011655c:	eafff9ff 	.word	0xfff9ffea
80116560:	cffe0000 	.word	0xfecf
80116564:	faffedfe 	.word	0xfeedfffa
80116568:	0000f9ff 	.word	0xfff90000
8011656c:	cffe0000 	.word	0xfecf
80116570:	0600edfe 	.word	0xfeed0006
80116574:	00000700 	sll	zero,a3,0x0
80116578:	cffe1600 	.word	0x16fecf
8011657c:	0600edfe 	.word	0xfeed0006
80116580:	16000700 	.word	0x70016
80116584:	cffe4aff 	.word	0xff4afecf
80116588:	52004200 	.word	0x420052
8011658c:	97ff9800 	.word	0x98ff97
80116590:	42004aff 	.word	0xff4a0042
80116594:	aeff4200 	.word	0x42ffae
80116598:	69009800 	.word	0x980069
8011659c:	420097ff 	.word	0xff970042
801165a0:	68ff4200 	.word	0x42ff68
801165a4:	b6005200 	.word	0x5200b6
801165a8:	4200b600 	.word	0xb60042
801165ac:	aeff4200 	.word	0x42ffae
801165b0:	690068ff 	.word	0xff680069
801165b4:	42000000 	srl	zero,zero,0x1
801165b8:	000063ff 	.word	0xff630000
801165bc:	000086ff 	.word	0xff860000
801165c0:	efff0000 	.word	0xffef
801165c4:	4bff4200 	.word	0x42ff4b
801165c8:	000057ff 	.word	0xff570000
801165cc:	0d010000 	break	0x0,0x4
801165d0:	7a00efff 	.word	0xffef007a
801165d4:	0000b500 	.word	0xb50000
801165d8:	42000000 	srl	zero,zero,0x1
801165dc:	a9000d01 	.word	0x10d00a9
801165e0:	a7000000 	.word	0xa7
801165e4:	efff59ff 	.word	0xff59ffef
801165e8:	0000efff 	.word	0xffef0000
801165ec:	35ff0000 	.word	0xff35
801165f0:	4200cb00 	.word	0xcb0042
801165f4:	00004200 	.word	0x420000
801165f8:	3cff0000 	.word	0xff3c
801165fc:	0d01c400 	break	0xc4,0x4
80116600:	00000d01 	.word	0x10d0000
80116604:	f20094ff 	.word	0xff9400f2
80116608:	aa0078ff 	.word	0xff7800aa
8011660c:	c400aa00 	.word	0xaa00c4
80116610:	88003cff 	.word	0xff3c0088
80116614:	aa000eff 	.word	0xff0e00aa
80116618:	6c00aa00 	.word	0xaa006c
8011661c:	f3fe0000 	.word	0xfef3
80116620:	aa000000 	.word	0xaa
80116624:	18ffaa00 	.word	0xaaff18
80116628:	78ff3cff 	.word	0xff3cff78
8011662c:	aa000eff 	.word	0xff0e00aa
80116630:	94ffaa00 	.word	0xaaff94
80116634:	0000e800 	.word	0xe80000
80116638:	aa000d01 	.word	0x10d00aa
8011663c:	0000aa00 	.word	0xaa0000
80116640:	f2006c00 	.word	0x6c00f2
80116644:	aa008800 	.word	0x8800aa
80116648:	c400aa00 	.word	0xaa00c4
8011664c:	59ff4c00 	.word	0x4cff59
80116650:	ec00b1ff 	.word	0xffb100ec
80116654:	040040ff 	.word	0xff400004
80116658:	59ffb4ff 	.word	0xffb4ff59
8011665c:	ec00b1ff 	.word	0xffb100ec
80116660:	fcff40ff 	.word	0xff40fffc
80116664:	a7004c00 	.word	0x4c00a7
80116668:	ec004f00 	.word	0x4f00ec
8011666c:	040040ff 	.word	0xff400004
80116670:	a700b4ff 	.word	0xffb400a7
80116674:	ec004f00 	.word	0x4f00ec
80116678:	fcff40ff 	.word	0xff40fffc
8011667c:	7f00deff 	.word	0xffde007f
80116680:	a7ff81ff 	.word	0xff81ffa7
80116684:	deffa7ff 	.word	0xffa7ffde
80116688:	7f002200 	.word	0x22007f
8011668c:	a7ff81ff 	.word	0xff81ffa7
80116690:	2200a7ff 	.word	0xffa70022
80116694:	9cff0000 	.word	0xff9c
80116698:	6fff6400 	.word	0x64ff6f
8011669c:	00006fff 	.word	0xff6f0000
801166a0:	e5fffaff 	.word	0xfffaffe5
801166a4:	0affe5ff 	.word	0xffe5ff0a
801166a8:	06000aff 	.word	0xff0a0006
801166ac:	a4ff78ff 	.word	0xff78ffa4
801166b0:	ec00a4ff 	.word	0xffa400ec
801166b4:	8800ec00 	.word	0xec0088
801166b8:	9dff6a00 	.word	0x6aff9d
801166bc:	efff1b00 	.word	0x1bffef
801166c0:	06000aff 	.word	0xff0a0006
801166c4:	5c008800 	.word	0x88005c
801166c8:	ec005c00 	.word	0x5c00ec
801166cc:	78ffec00 	.word	0xecff78
801166d0:	1b00faff 	.word	0xfffa001b
801166d4:	0aff6300 	.word	0x63ff0a
801166d8:	6a00efff 	.word	0xffef006a
801166dc:	64ff3800 	.word	0x38ff64
801166e0:	efff9c00 	.word	0x9cffef
801166e4:	c8ffefff 	.word	0xffefffc8
801166e8:	64ffc8ff 	.word	0xffc8ff64
801166ec:	efff6300 	.word	0x63ffef
801166f0:	96ffefff 	.word	0xffefff96
801166f4:	9dff96ff 	.word	0xff96ff9d
801166f8:	efff9c00 	.word	0x9cffef
801166fc:	3800efff 	.word	0xffef0038
80116700:	00000000 	nop
80116704:	2c010000 	.word	0x12c
80116708:	b3ffa7ff 	.word	0xffa7ffb3
8011670c:	00004d00 	.word	0x4d0000
80116710:	a7ffeaff 	.word	0xffeaffa7
80116714:	faff0aff 	.word	0xff0afffa
80116718:	eafff9ff 	.word	0xfff9ffea
8011671c:	effe0000 	.word	0xfeef
80116720:	faff0aff 	.word	0xff0afffa
80116724:	0000f9ff 	.word	0xfff90000
80116728:	effe0000 	.word	0xfeef
8011672c:	06000aff 	.word	0xff0a0006
80116730:	00000700 	sll	zero,a3,0x0
80116734:	effe1600 	.word	0x16feef
80116738:	06000aff 	.word	0xff0a0006
8011673c:	16000700 	.word	0x70016
80116740:	effeeaff 	.word	0xffeafeef
80116744:	faff0aff 	.word	0xff0afffa
80116748:	eafff9ff 	.word	0xfff9ffea
8011674c:	effe0000 	.word	0xfeef
80116750:	faff0aff 	.word	0xff0afffa
80116754:	0000f9ff 	.word	0xfff90000
80116758:	effe0000 	.word	0xfeef
8011675c:	06000aff 	.word	0xff0a0006
80116760:	00000700 	sll	zero,a3,0x0
80116764:	effe1600 	.word	0x16feef
80116768:	06000aff 	.word	0xff0a0006
8011676c:	16000700 	.word	0x70016
80116770:	effe47ff 	.word	0xff47feef
80116774:	53003600 	.word	0x360053
80116778:	95ff9b00 	.word	0x9bff95
8011677c:	360047ff 	.word	0xff470036
80116780:	adff3600 	.word	0x36ffad
80116784:	6b009b00 	.word	0x9b006b
80116788:	360095ff 	.word	0xff950036
8011678c:	65ff3600 	.word	0x36ff65
80116790:	b9005300 	.word	0x5300b9
80116794:	3600b900 	.word	0xb90036
80116798:	adff3600 	.word	0x36ffad
8011679c:	6b0065ff 	.word	0xff65006b
801167a0:	36000000 	.word	0x36
801167a4:	000073ff 	.word	0xff730000
801167a8:	00007dff 	.word	0xff7d0000
801167ac:	efff0000 	.word	0xffef
801167b0:	48ff3600 	.word	0x36ff48
801167b4:	000060ff 	.word	0xff600000
801167b8:	ec000000 	.word	0xec
801167bc:	8300efff 	.word	0xffef0083
801167c0:	0000b800 	.word	0xb80000
801167c4:	36000000 	.word	0x36
801167c8:	a000ec00 	.word	0xec00a0
801167cc:	b3000000 	.word	0xb3
801167d0:	efff4dff 	.word	0xff4dffef
801167d4:	0000efff 	.word	0xffef0000
801167d8:	31ff0000 	.word	0xff31
801167dc:	3600cf00 	.word	0xcf0036
801167e0:	00003600 	.word	0x360000
801167e4:	47ff0000 	.word	0xff47
801167e8:	ec00b900 	.word	0xb900ec
801167ec:	0000ec00 	.word	0xec0000
801167f0:	e4009bff 	.word	0xff9b00e4
801167f4:	950080ff 	.word	0xff800095
801167f8:	b9009500 	.word	0x9500b9
801167fc:	800047ff 	.word	0xff470080
80116800:	95001cff 	.word	0xff1c0095
80116804:	65009500 	.word	0x950065
80116808:	02ff0000 	srl	ra,zero,0x1c
8011680c:	95000000 	.word	0x95
80116810:	25ff9500 	.word	0x95ff25
80116814:	80ff47ff 	.word	0xff47ff80
80116818:	95001cff 	.word	0xff1c0095
8011681c:	9bff9500 	.word	0x95ff9b
80116820:	0000db00 	.word	0xdb0000
80116824:	9500fe00 	.word	0xfe0095
80116828:	00009500 	.word	0x950000
8011682c:	e4006500 	.word	0x6500e4
80116830:	95008000 	.word	0x800095
80116834:	b9009500 	.word	0x9500b9
80116838:	5dff4a00 	.word	0x4aff5d
8011683c:	df00afff 	.word	0xffaf00df
80116840:	040049ff 	.word	0xff490004
80116844:	5dffb6ff 	.word	0xffb6ff5d
80116848:	df00afff 	.word	0xffaf00df
8011684c:	fcff49ff 	.word	0xff49fffc
80116850:	a3004a00 	.word	0x4a00a3
80116854:	df005100 	.word	0x5100df
80116858:	040049ff 	.word	0xff490004
8011685c:	a300b6ff 	.word	0xffb600a3
80116860:	df005100 	.word	0x5100df
80116864:	fcff49ff 	.word	0xff49fffc
80116868:	8200ddff 	.word	0xffdd0082
8011686c:	a9ff7eff 	.word	0xff7effa9
80116870:	ddffa9ff 	.word	0xffa9ffdd
80116874:	82002300 	.word	0x230082
80116878:	a9ff7eff 	.word	0xff7effa9
8011687c:	2300a9ff 	.word	0xffa90023
80116880:	9aff0000 	.word	0xff9a
80116884:	76ff6600 	.word	0x66ff76
80116888:	000076ff 	.word	0xff760000
8011688c:	e5fffaff 	.word	0xfffaffe5
80116890:	15ffe5ff 	.word	0xffe5ff15
80116894:	060015ff 	.word	0xff150006
80116898:	a7ff7cff 	.word	0xff7cffa7
8011689c:	df00a7ff 	.word	0xffa700df
801168a0:	8400df00 	.word	0xdf0084
801168a4:	9aff6d00 	.word	0x6dff9a
801168a8:	efff1b00 	.word	0x1bffef
801168ac:	060015ff 	.word	0xff150006
801168b0:	59008400 	.word	0x840059
801168b4:	df005900 	.word	0x5900df
801168b8:	7cffdf00 	.word	0xdfff7c
801168bc:	1b00faff 	.word	0xfffa001b
801168c0:	15ff6600 	.word	0x66ff15
801168c4:	6d00efff 	.word	0xffef006d
801168c8:	60ff3900 	.word	0x39ff60
801168cc:	efffa000 	.word	0xa0ffef
801168d0:	c7ffefff 	.word	0xffefffc7
801168d4:	60ffc7ff 	.word	0xffc7ff60
801168d8:	efff6600 	.word	0x66ffef
801168dc:	93ffefff 	.word	0xffefff93
801168e0:	9aff93ff 	.word	0xff93ff9a
801168e4:	efffa000 	.word	0xa0ffef
801168e8:	3900efff 	.word	0xffef0039
801168ec:	00000000 	nop
801168f0:	1d010000 	.word	0x11d
801168f4:	b1ffa9ff 	.word	0xffa9ffb1
801168f8:	00004f00 	.word	0x4f0000
801168fc:	a9ffeaff 	.word	0xffeaffa9
80116900:	faff15ff 	.word	0xff15fffa
80116904:	eafff9ff 	.word	0xfff9ffea
80116908:	fcfe0000 	.word	0xfefc
8011690c:	faff15ff 	.word	0xff15fffa
80116910:	0000f9ff 	.word	0xfff90000
80116914:	fcfe0000 	.word	0xfefc
80116918:	060015ff 	.word	0xff150006
8011691c:	00000700 	sll	zero,a3,0x0
80116920:	fcfe1600 	.word	0x16fefc
80116924:	060015ff 	.word	0xff150006
80116928:	16000700 	.word	0x70016
8011692c:	fcfeeaff 	.word	0xffeafefc
80116930:	faff15ff 	.word	0xff15fffa
80116934:	eafff9ff 	.word	0xfff9ffea
80116938:	fcfe0000 	.word	0xfefc
8011693c:	faff15ff 	.word	0xff15fffa
80116940:	0000f9ff 	.word	0xfff90000
80116944:	fcfe0000 	.word	0xfefc
80116948:	060015ff 	.word	0xff150006
8011694c:	00000700 	sll	zero,a3,0x0
80116950:	fcfe1600 	.word	0x16fefc
80116954:	060015ff 	.word	0xff150006
80116958:	16000700 	.word	0x70016
8011695c:	fcfe46ff 	.word	0xff46fefc
80116960:	54003100 	.word	0x310054
80116964:	95ff9c00 	.word	0x9cff95
80116968:	310046ff 	.word	0xff460031
8011696c:	acff3100 	.word	0x31ffac
80116970:	6b009c00 	.word	0x9c006b
80116974:	310095ff 	.word	0xff950031
80116978:	64ff3100 	.word	0x31ff64
8011697c:	ba005400 	.word	0x5400ba
80116980:	3100ba00 	.word	0xba0031
80116984:	acff3100 	.word	0x31ffac
80116988:	6b0064ff 	.word	0xff64006b
8011698c:	31000000 	.word	0x31
80116990:	00007aff 	.word	0xff7a0000
80116994:	000079ff 	.word	0xff790000
80116998:	efff0000 	.word	0xffef
8011699c:	47ff3100 	.word	0x31ff47
801169a0:	000064ff 	.word	0xff640000
801169a4:	df000000 	.word	0xdf
801169a8:	8700efff 	.word	0xffef0087
801169ac:	0000b900 	.word	0xb90000
801169b0:	31000000 	.word	0x31
801169b4:	9c00df00 	.word	0xdf009c
801169b8:	b8000000 	.word	0xb8
801169bc:	efff48ff 	.word	0xff48ffef
801169c0:	0000efff 	.word	0xffef0000
801169c4:	30ff0000 	.word	0xff30
801169c8:	3100d000 	.word	0xd00031
801169cc:	00003100 	.word	0x310000
801169d0:	4bff0000 	.word	0xff4b
801169d4:	df00b500 	.word	0xb500df
801169d8:	0000df00 	.word	0xdf0000
801169dc:	de009dff 	.word	0xff9d00de
801169e0:	8c0083ff 	.word	0xff83008c
801169e4:	b5008c00 	.word	0x8c00b5
801169e8:	7d004bff 	.word	0xff4b007d
801169ec:	8c0022ff 	.word	0xff22008c
801169f0:	63008c00 	.word	0x8c0063
801169f4:	08ff0000 	.word	0xff08
801169f8:	8c000000 	syscall	0x2
801169fc:	2aff8c00 	.word	0x8cff2a
80116a00:	83ff4bff 	.word	0xff4bff83
80116a04:	8c0022ff 	.word	0xff22008c
80116a08:	9dff8c00 	.word	0x8cff9d
80116a0c:	0000d600 	.word	0xd60000
80116a10:	8c00f800 	syscall	0x3e002
80116a14:	00008c00 	.word	0x8c0000
80116a18:	de006300 	.word	0x6300de
80116a1c:	8c007d00 	syscall	0x1f402
80116a20:	b5008c00 	.word	0x8c00b5
80116a24:	d8de1180 	lb	s1,-8488(zero)
80116a28:	c4e01180 	lb	s1,-7996(zero)
80116a2c:	b0e21180 	lb	s1,-7504(zero)
80116a30:	9ce41180 	lb	s1,-7012(zero)
80116a34:	88e61180 	lb	s1,-6520(zero)
80116a38:	74e81180 	lb	s1,-6028(zero)
80116a3c:	60ea1180 	lb	s1,-5536(zero)
80116a40:	4cec1180 	lb	s1,-5044(zero)
80116a44:	38ee1180 	lb	s1,-4552(zero)
80116a48:	24f01180 	lb	s1,-4060(zero)
80116a4c:	10f21180 	lb	s1,-3568(zero)
80116a50:	fcf31180 	lb	s1,-3076(zero)
80116a54:	e8f51180 	lb	s1,-2584(zero)
80116a58:	d4f71180 	lb	s1,-2092(zero)
80116a5c:	5dff4a00 	.word	0x4aff5d
80116a60:	df00afff 	.word	0xffaf00df
80116a64:	040049ff 	.word	0xff490004
80116a68:	5dffb6ff 	.word	0xffb6ff5d
80116a6c:	df00afff 	.word	0xffaf00df
80116a70:	fcff49ff 	.word	0xff49fffc
80116a74:	a3004a00 	.word	0x4a00a3
80116a78:	df005100 	.word	0x5100df
80116a7c:	040049ff 	.word	0xff490004
80116a80:	a300b6ff 	.word	0xffb600a3
80116a84:	df005100 	.word	0x5100df
80116a88:	fcff49ff 	.word	0xff49fffc
80116a8c:	8200ddff 	.word	0xffdd0082
80116a90:	a9ff7eff 	.word	0xff7effa9
80116a94:	ddffa9ff 	.word	0xffa9ffdd
80116a98:	82002300 	.word	0x230082
80116a9c:	a9ff7eff 	.word	0xff7effa9
80116aa0:	2300a9ff 	.word	0xffa90023
80116aa4:	9aff0000 	.word	0xff9a
80116aa8:	76ff6600 	.word	0x66ff76
80116aac:	000076ff 	.word	0xff760000
80116ab0:	e5fffaff 	.word	0xfffaffe5
80116ab4:	15ffe5ff 	.word	0xffe5ff15
80116ab8:	060015ff 	.word	0xff150006
80116abc:	a7ff7cff 	.word	0xff7cffa7
80116ac0:	df00a7ff 	.word	0xffa700df
80116ac4:	8400df00 	.word	0xdf0084
80116ac8:	9aff6d00 	.word	0x6dff9a
80116acc:	efff1b00 	.word	0x1bffef
80116ad0:	060015ff 	.word	0xff150006
80116ad4:	59008400 	.word	0x840059
80116ad8:	df005900 	.word	0x5900df
80116adc:	7cffdf00 	.word	0xdfff7c
80116ae0:	1b00faff 	.word	0xfffa001b
80116ae4:	15ff6600 	.word	0x66ff15
80116ae8:	6d00efff 	.word	0xffef006d
80116aec:	60ff3900 	.word	0x39ff60
80116af0:	efffa000 	.word	0xa0ffef
80116af4:	c7ffefff 	.word	0xffefffc7
80116af8:	60ffc7ff 	.word	0xffc7ff60
80116afc:	efff6600 	.word	0x66ffef
80116b00:	93ffefff 	.word	0xffefff93
80116b04:	9aff93ff 	.word	0xff93ff9a
80116b08:	efffa000 	.word	0xa0ffef
80116b0c:	3900efff 	.word	0xffef0039
80116b10:	00000000 	nop
80116b14:	1d010000 	.word	0x11d
80116b18:	b1ffa9ff 	.word	0xffa9ffb1
80116b1c:	00004f00 	.word	0x4f0000
80116b20:	a9ffeaff 	.word	0xffeaffa9
80116b24:	faff15ff 	.word	0xff15fffa
80116b28:	eafff9ff 	.word	0xfff9ffea
80116b2c:	fcfe0000 	.word	0xfefc
80116b30:	faff15ff 	.word	0xff15fffa
80116b34:	0000f9ff 	.word	0xfff90000
80116b38:	fcfe0000 	.word	0xfefc
80116b3c:	060015ff 	.word	0xff150006
80116b40:	00000700 	sll	zero,a3,0x0
80116b44:	fcfe1600 	.word	0x16fefc
80116b48:	060015ff 	.word	0xff150006
80116b4c:	16000700 	.word	0x70016
80116b50:	fcfeeaff 	.word	0xffeafefc
80116b54:	faff15ff 	.word	0xff15fffa
80116b58:	eafff9ff 	.word	0xfff9ffea
80116b5c:	fcfe0000 	.word	0xfefc
80116b60:	faff15ff 	.word	0xff15fffa
80116b64:	0000f9ff 	.word	0xfff90000
80116b68:	fcfe0000 	.word	0xfefc
80116b6c:	060015ff 	.word	0xff150006
80116b70:	00000700 	sll	zero,a3,0x0
80116b74:	fcfe1600 	.word	0x16fefc
80116b78:	060015ff 	.word	0xff150006
80116b7c:	16000700 	.word	0x70016
80116b80:	fcfe46ff 	.word	0xff46fefc
80116b84:	54003100 	.word	0x310054
80116b88:	95ff9c00 	.word	0x9cff95
80116b8c:	310046ff 	.word	0xff460031
80116b90:	acff3100 	.word	0x31ffac
80116b94:	6b009c00 	.word	0x9c006b
80116b98:	310095ff 	.word	0xff950031
80116b9c:	64ff3100 	.word	0x31ff64
80116ba0:	ba005400 	.word	0x5400ba
80116ba4:	3100ba00 	.word	0xba0031
80116ba8:	acff3100 	.word	0x31ffac
80116bac:	6b0064ff 	.word	0xff64006b
80116bb0:	31000000 	.word	0x31
80116bb4:	00007aff 	.word	0xff7a0000
80116bb8:	000079ff 	.word	0xff790000
80116bbc:	efff0000 	.word	0xffef
80116bc0:	47ff3100 	.word	0x31ff47
80116bc4:	000064ff 	.word	0xff640000
80116bc8:	df000000 	.word	0xdf
80116bcc:	8700efff 	.word	0xffef0087
80116bd0:	0000b900 	.word	0xb90000
80116bd4:	31000000 	.word	0x31
80116bd8:	9c00df00 	.word	0xdf009c
80116bdc:	b8000000 	.word	0xb8
80116be0:	efff48ff 	.word	0xff48ffef
80116be4:	0000efff 	.word	0xffef0000
80116be8:	30ff0000 	.word	0xff30
80116bec:	3100d000 	.word	0xd00031
80116bf0:	00003100 	.word	0x310000
80116bf4:	4bff0000 	.word	0xff4b
80116bf8:	df00b500 	.word	0xb500df
80116bfc:	0000df00 	.word	0xdf0000
80116c00:	de009dff 	.word	0xff9d00de
80116c04:	8c0083ff 	.word	0xff83008c
80116c08:	b5008c00 	.word	0x8c00b5
80116c0c:	7d004bff 	.word	0xff4b007d
80116c10:	8c0022ff 	.word	0xff22008c
80116c14:	63008c00 	.word	0x8c0063
80116c18:	08ff0000 	.word	0xff08
80116c1c:	8c000000 	syscall	0x2
80116c20:	2aff8c00 	.word	0x8cff2a
80116c24:	83ff4bff 	.word	0xff4bff83
80116c28:	8c0022ff 	.word	0xff22008c
80116c2c:	9dff8c00 	.word	0x8cff9d
80116c30:	0000d600 	.word	0xd60000
80116c34:	8c00f800 	syscall	0x3e002
80116c38:	00008c00 	.word	0x8c0000
80116c3c:	de006300 	.word	0x6300de
80116c40:	8c007d00 	syscall	0x1f402
80116c44:	b5008c00 	.word	0x8c00b5
80116c48:	5dff4a00 	.word	0x4aff5d
80116c4c:	df00afff 	.word	0xffaf00df
80116c50:	040049ff 	.word	0xff490004
80116c54:	5dffb6ff 	.word	0xffb6ff5d
80116c58:	df00afff 	.word	0xffaf00df
80116c5c:	fcff49ff 	.word	0xff49fffc
80116c60:	a3004a00 	.word	0x4a00a3
80116c64:	df005100 	.word	0x5100df
80116c68:	040049ff 	.word	0xff490004
80116c6c:	a300b6ff 	.word	0xffb600a3
80116c70:	df005100 	.word	0x5100df
80116c74:	fcff49ff 	.word	0xff49fffc
80116c78:	8200ddff 	.word	0xffdd0082
80116c7c:	a9ff7eff 	.word	0xff7effa9
80116c80:	ddffa9ff 	.word	0xffa9ffdd
80116c84:	82002300 	.word	0x230082
80116c88:	a9ff7eff 	.word	0xff7effa9
80116c8c:	2300a9ff 	.word	0xffa90023
80116c90:	9aff0000 	.word	0xff9a
80116c94:	76ff6600 	.word	0x66ff76
80116c98:	000076ff 	.word	0xff760000
80116c9c:	e5fffaff 	.word	0xfffaffe5
80116ca0:	15ffe5ff 	.word	0xffe5ff15
80116ca4:	060015ff 	.word	0xff150006
80116ca8:	a7ff7cff 	.word	0xff7cffa7
80116cac:	df00a7ff 	.word	0xffa700df
80116cb0:	8400df00 	.word	0xdf0084
80116cb4:	9aff6d00 	.word	0x6dff9a
80116cb8:	efff1b00 	.word	0x1bffef
80116cbc:	060015ff 	.word	0xff150006
80116cc0:	59008400 	.word	0x840059
80116cc4:	df005900 	.word	0x5900df
80116cc8:	7cffdf00 	.word	0xdfff7c
80116ccc:	1b00faff 	.word	0xfffa001b
80116cd0:	15ff6600 	.word	0x66ff15
80116cd4:	6d00efff 	.word	0xffef006d
80116cd8:	60ff3900 	.word	0x39ff60
80116cdc:	efffa000 	.word	0xa0ffef
80116ce0:	c7ffefff 	.word	0xffefffc7
80116ce4:	60ffc7ff 	.word	0xffc7ff60
80116ce8:	efff6d00 	.word	0x6dffef
80116cec:	8cffeeff 	.word	0xffeeff8c
80116cf0:	9aff93ff 	.word	0xff93ff9a
80116cf4:	efffa000 	.word	0xa0ffef
80116cf8:	3900efff 	.word	0xffef0039
80116cfc:	00000000 	nop
80116d00:	1d010000 	.word	0x11d
80116d04:	b1ffa9ff 	.word	0xffa9ffb1
80116d08:	00004f00 	.word	0x4f0000
80116d0c:	a9ffeaff 	.word	0xffeaffa9
80116d10:	faff15ff 	.word	0xff15fffa
80116d14:	eafff9ff 	.word	0xfff9ffea
80116d18:	fcfe0000 	.word	0xfefc
80116d1c:	faff15ff 	.word	0xff15fffa
80116d20:	0000f9ff 	.word	0xfff90000
80116d24:	fcfe0000 	.word	0xfefc
80116d28:	060015ff 	.word	0xff150006
80116d2c:	00000700 	sll	zero,a3,0x0
80116d30:	fcfe1600 	.word	0x16fefc
80116d34:	060015ff 	.word	0xff150006
80116d38:	16000700 	.word	0x70016
80116d3c:	fcfeeaff 	.word	0xffeafefc
80116d40:	faff15ff 	.word	0xff15fffa
80116d44:	eafff9ff 	.word	0xfff9ffea
80116d48:	fcfe0000 	.word	0xfefc
80116d4c:	faff15ff 	.word	0xff15fffa
80116d50:	0000f9ff 	.word	0xfff90000
80116d54:	fcfe0000 	.word	0xfefc
80116d58:	060015ff 	.word	0xff150006
80116d5c:	00000700 	sll	zero,a3,0x0
80116d60:	fcfe1600 	.word	0x16fefc
80116d64:	060015ff 	.word	0xff150006
80116d68:	16000700 	.word	0x70016
80116d6c:	fcfe46ff 	.word	0xff46fefc
80116d70:	54003100 	.word	0x310054
80116d74:	95ff9c00 	.word	0x9cff95
80116d78:	310046ff 	.word	0xff460031
80116d7c:	acff3100 	.word	0x31ffac
80116d80:	7300a600 	.word	0xa60073
80116d84:	350095ff 	.word	0xff950035
80116d88:	64ff3100 	.word	0x31ff64
80116d8c:	ba005400 	.word	0x5400ba
80116d90:	3100ba00 	.word	0xba0031
80116d94:	acff3100 	.word	0x31ffac
80116d98:	6b0064ff 	.word	0xff64006b
80116d9c:	31000000 	.word	0x31
80116da0:	00007aff 	.word	0xff7a0000
80116da4:	000079ff 	.word	0xff790000
80116da8:	efff0000 	.word	0xffef
80116dac:	47ff3100 	.word	0x31ff47
80116db0:	000064ff 	.word	0xff640000
80116db4:	df000000 	.word	0xdf
80116db8:	8700efff 	.word	0xffef0087
80116dbc:	0000b900 	.word	0xb90000
80116dc0:	31000000 	.word	0x31
80116dc4:	9c00df00 	.word	0xdf009c
80116dc8:	b8000000 	.word	0xb8
80116dcc:	efff48ff 	.word	0xff48ffef
80116dd0:	0000efff 	.word	0xffef0000
80116dd4:	30ff0000 	.word	0xff30
80116dd8:	3100d000 	.word	0xd00031
80116ddc:	00003100 	.word	0x310000
80116de0:	4bff0000 	.word	0xff4b
80116de4:	df00b500 	.word	0xb500df
80116de8:	0000df00 	.word	0xdf0000
80116dec:	de009dff 	.word	0xff9d00de
80116df0:	8c0083ff 	.word	0xff83008c
80116df4:	b5008c00 	.word	0x8c00b5
80116df8:	7d004bff 	.word	0xff4b007d
80116dfc:	8c0022ff 	.word	0xff22008c
80116e00:	63008c00 	.word	0x8c0063
80116e04:	08ff0000 	.word	0xff08
80116e08:	8c000000 	syscall	0x2
80116e0c:	2aff8c00 	.word	0x8cff2a
80116e10:	83ff4bff 	.word	0xff4bff83
80116e14:	8c0013ff 	.word	0xff13008c
80116e18:	96ff9500 	.word	0x95ff96
80116e1c:	0000d600 	.word	0xd60000
80116e20:	8c00f800 	syscall	0x3e002
80116e24:	00008c00 	.word	0x8c0000
80116e28:	de006300 	.word	0x6300de
80116e2c:	8c007d00 	syscall	0x1f402
80116e30:	b5008c00 	.word	0x8c00b5
80116e34:	5dff4a00 	.word	0x4aff5d
80116e38:	df00afff 	.word	0xffaf00df
80116e3c:	040049ff 	.word	0xff490004
80116e40:	5dffb6ff 	.word	0xffb6ff5d
80116e44:	df00afff 	.word	0xffaf00df
80116e48:	fcff49ff 	.word	0xff49fffc
80116e4c:	a3004a00 	.word	0x4a00a3
80116e50:	df005100 	.word	0x5100df
80116e54:	040049ff 	.word	0xff490004
80116e58:	a300b6ff 	.word	0xffb600a3
80116e5c:	df005100 	.word	0x5100df
80116e60:	fcff49ff 	.word	0xff49fffc
80116e64:	8200ddff 	.word	0xffdd0082
80116e68:	a9ff7eff 	.word	0xff7effa9
80116e6c:	ddffa9ff 	.word	0xffa9ffdd
80116e70:	82002300 	.word	0x230082
80116e74:	a9ff7eff 	.word	0xff7effa9
80116e78:	2300a9ff 	.word	0xffa90023
80116e7c:	9aff0000 	.word	0xff9a
80116e80:	76ff6600 	.word	0x66ff76
80116e84:	000076ff 	.word	0xff760000
80116e88:	e5fffaff 	.word	0xfffaffe5
80116e8c:	15ffe5ff 	.word	0xffe5ff15
80116e90:	060015ff 	.word	0xff150006
80116e94:	a7ff7cff 	.word	0xff7cffa7
80116e98:	df00a7ff 	.word	0xffa700df
80116e9c:	8400df00 	.word	0xdf0084
80116ea0:	9aff6d00 	.word	0x6dff9a
80116ea4:	efff1b00 	.word	0x1bffef
80116ea8:	060015ff 	.word	0xff150006
80116eac:	59008400 	.word	0x840059
80116eb0:	df005900 	.word	0x5900df
80116eb4:	7cffdf00 	.word	0xdfff7c
80116eb8:	1b00faff 	.word	0xfffa001b
80116ebc:	15ff6600 	.word	0x66ff15
80116ec0:	6d00efff 	.word	0xffef006d
80116ec4:	60ff3900 	.word	0x39ff60
80116ec8:	efffa000 	.word	0xa0ffef
80116ecc:	c7ffefff 	.word	0xffefffc7
80116ed0:	60ffc7ff 	.word	0xffc7ff60
80116ed4:	efff7e00 	.word	0x7effef
80116ed8:	79ffebff 	.word	0xffebff79
80116edc:	9aff93ff 	.word	0xff93ff9a
80116ee0:	efffa000 	.word	0xa0ffef
80116ee4:	3900efff 	.word	0xffef0039
80116ee8:	00000000 	nop
80116eec:	1d010000 	.word	0x11d
80116ef0:	b1ffa9ff 	.word	0xffa9ffb1
80116ef4:	00004f00 	.word	0x4f0000
80116ef8:	a9ffeaff 	.word	0xffeaffa9
80116efc:	faff15ff 	.word	0xff15fffa
80116f00:	eafff9ff 	.word	0xfff9ffea
80116f04:	fcfe0000 	.word	0xfefc
80116f08:	faff15ff 	.word	0xff15fffa
80116f0c:	0000f9ff 	.word	0xfff90000
80116f10:	fcfe0000 	.word	0xfefc
80116f14:	060015ff 	.word	0xff150006
80116f18:	00000700 	sll	zero,a3,0x0
80116f1c:	fcfe1600 	.word	0x16fefc
80116f20:	060015ff 	.word	0xff150006
80116f24:	16000700 	.word	0x70016
80116f28:	fcfeeaff 	.word	0xffeafefc
80116f2c:	faff15ff 	.word	0xff15fffa
80116f30:	eafff9ff 	.word	0xfff9ffea
80116f34:	fcfe0000 	.word	0xfefc
80116f38:	faff15ff 	.word	0xff15fffa
80116f3c:	0000f9ff 	.word	0xfff90000
80116f40:	fcfe0000 	.word	0xfefc
80116f44:	060015ff 	.word	0xff150006
80116f48:	00000700 	sll	zero,a3,0x0
80116f4c:	fcfe1600 	.word	0x16fefc
80116f50:	060015ff 	.word	0xff150006
80116f54:	16000700 	.word	0x70016
80116f58:	fcfe46ff 	.word	0xff46fefc
80116f5c:	54003100 	.word	0x310054
80116f60:	95ff9c00 	.word	0x9cff95
80116f64:	310046ff 	.word	0xff460031
80116f68:	acff3100 	.word	0x31ffac
80116f6c:	8500c100 	.word	0xc10085
80116f70:	3d0095ff 	.word	0xff95003d
80116f74:	64ff3100 	.word	0x31ff64
80116f78:	ba005400 	.word	0x5400ba
80116f7c:	3100ba00 	.word	0xba0031
80116f80:	acff3100 	.word	0x31ffac
80116f84:	6b0064ff 	.word	0xff64006b
80116f88:	31000000 	.word	0x31
80116f8c:	00007aff 	.word	0xff7a0000
80116f90:	000079ff 	.word	0xff790000
80116f94:	efff0000 	.word	0xffef
80116f98:	47ff3100 	.word	0x31ff47
80116f9c:	000064ff 	.word	0xff640000
80116fa0:	df000000 	.word	0xdf
80116fa4:	8700efff 	.word	0xffef0087
80116fa8:	0000b900 	.word	0xb90000
80116fac:	31000000 	.word	0x31
80116fb0:	9c00df00 	.word	0xdf009c
80116fb4:	b8000000 	.word	0xb8
80116fb8:	efff48ff 	.word	0xff48ffef
80116fbc:	0000efff 	.word	0xffef0000
80116fc0:	30ff0000 	.word	0xff30
80116fc4:	3100d000 	.word	0xd00031
80116fc8:	00003100 	.word	0x310000
80116fcc:	4bff0000 	.word	0xff4b
80116fd0:	df00b500 	.word	0xb500df
80116fd4:	0000df00 	.word	0xdf0000
80116fd8:	de009dff 	.word	0xff9d00de
80116fdc:	8c0083ff 	.word	0xff83008c
80116fe0:	b5008c00 	.word	0x8c00b5
80116fe4:	7d004bff 	.word	0xff4b007d
80116fe8:	8c0022ff 	.word	0xff22008c
80116fec:	63008c00 	.word	0x8c0063
80116ff0:	08ff0000 	.word	0xff08
80116ff4:	8c000000 	syscall	0x2
80116ff8:	2aff8c00 	.word	0x8cff2a
80116ffc:	83ff4bff 	.word	0xff4bff83
80117000:	8c00edfe 	.word	0xfeed008c
80117004:	85ffad00 	.word	0xadff85
80117008:	0000d600 	.word	0xd60000
8011700c:	8c00f800 	syscall	0x3e002
80117010:	00008c00 	.word	0x8c0000
80117014:	de006300 	.word	0x6300de
80117018:	8c007d00 	syscall	0x1f402
8011701c:	b5008c00 	.word	0x8c00b5
80117020:	5dff4a00 	.word	0x4aff5d
80117024:	df00afff 	.word	0xffaf00df
80117028:	040049ff 	.word	0xff490004
8011702c:	5dffb6ff 	.word	0xffb6ff5d
80117030:	df00afff 	.word	0xffaf00df
80117034:	fcff49ff 	.word	0xff49fffc
80117038:	a3004a00 	.word	0x4a00a3
8011703c:	df005100 	.word	0x5100df
80117040:	040049ff 	.word	0xff490004
80117044:	a300b6ff 	.word	0xffb600a3
80117048:	df005100 	.word	0x5100df
8011704c:	fcff49ff 	.word	0xff49fffc
80117050:	8200ddff 	.word	0xffdd0082
80117054:	a9ff7eff 	.word	0xff7effa9
80117058:	ddffa9ff 	.word	0xffa9ffdd
8011705c:	82002300 	.word	0x230082
80117060:	a9ff7eff 	.word	0xff7effa9
80117064:	2300a9ff 	.word	0xffa90023
80117068:	9aff0000 	.word	0xff9a
8011706c:	76ff6600 	.word	0x66ff76
80117070:	000076ff 	.word	0xff760000
80117074:	e5fffaff 	.word	0xfffaffe5
80117078:	15ffe5ff 	.word	0xffe5ff15
8011707c:	060015ff 	.word	0xff150006
80117080:	a7ff7cff 	.word	0xff7cffa7
80117084:	df00a7ff 	.word	0xffa700df
80117088:	8400df00 	.word	0xdf0084
8011708c:	9aff6d00 	.word	0x6dff9a
80117090:	efff1b00 	.word	0x1bffef
80117094:	060015ff 	.word	0xff150006
80117098:	59008400 	.word	0x840059
8011709c:	df005900 	.word	0x5900df
801170a0:	7cffdf00 	.word	0xdfff7c
801170a4:	1b00faff 	.word	0xfffa001b
801170a8:	15ff6600 	.word	0x66ff15
801170ac:	6d00efff 	.word	0xffef006d
801170b0:	60ff3900 	.word	0x39ff60
801170b4:	efffa000 	.word	0xa0ffef
801170b8:	c7ffefff 	.word	0xffefffc7
801170bc:	60ffc7ff 	.word	0xffc7ff60
801170c0:	efff9400 	.word	0x94ffef
801170c4:	61ffe7ff 	.word	0xffe7ff61
801170c8:	9aff93ff 	.word	0xff93ff9a
801170cc:	efffa000 	.word	0xa0ffef
801170d0:	3900efff 	.word	0xffef0039
801170d4:	00000000 	nop
801170d8:	1d010000 	.word	0x11d
801170dc:	b1ffa9ff 	.word	0xffa9ffb1
801170e0:	00004f00 	.word	0x4f0000
801170e4:	a9ffeaff 	.word	0xffeaffa9
801170e8:	faff15ff 	.word	0xff15fffa
801170ec:	eafff9ff 	.word	0xfff9ffea
801170f0:	fcfe0000 	.word	0xfefc
801170f4:	faff15ff 	.word	0xff15fffa
801170f8:	0000f9ff 	.word	0xfff90000
801170fc:	fcfe0000 	.word	0xfefc
80117100:	060015ff 	.word	0xff150006
80117104:	00000700 	sll	zero,a3,0x0
80117108:	fcfe1600 	.word	0x16fefc
8011710c:	060015ff 	.word	0xff150006
80117110:	16000700 	.word	0x70016
80117114:	fcfeeaff 	.word	0xffeafefc
80117118:	faff15ff 	.word	0xff15fffa
8011711c:	eafff9ff 	.word	0xfff9ffea
80117120:	fcfe0000 	.word	0xfefc
80117124:	faff15ff 	.word	0xff15fffa
80117128:	0000f9ff 	.word	0xfff90000
8011712c:	fcfe0000 	.word	0xfefc
80117130:	060015ff 	.word	0xff150006
80117134:	00000700 	sll	zero,a3,0x0
80117138:	fcfe1600 	.word	0x16fefc
8011713c:	060015ff 	.word	0xff150006
80117140:	16000700 	.word	0x70016
80117144:	fcfe46ff 	.word	0xff46fefc
80117148:	54003100 	.word	0x310054
8011714c:	95ff9c00 	.word	0x9cff95
80117150:	310046ff 	.word	0xff460031
80117154:	acff3100 	.word	0x31ffac
80117158:	9d00e300 	.word	0xe3009d
8011715c:	480095ff 	.word	0xff950048
80117160:	64ff3100 	.word	0x31ff64
80117164:	ba005400 	.word	0x5400ba
80117168:	3100ba00 	.word	0xba0031
8011716c:	acff3100 	.word	0x31ffac
80117170:	6b0064ff 	.word	0xff64006b
80117174:	31000000 	.word	0x31
80117178:	00007aff 	.word	0xff7a0000
8011717c:	000079ff 	.word	0xff790000
80117180:	efff0000 	.word	0xffef
80117184:	47ff3100 	.word	0x31ff47
80117188:	000064ff 	.word	0xff640000
8011718c:	df000000 	.word	0xdf
80117190:	8700efff 	.word	0xffef0087
80117194:	0000b900 	.word	0xb90000
80117198:	31000000 	.word	0x31
8011719c:	9c00df00 	.word	0xdf009c
801171a0:	b8000000 	.word	0xb8
801171a4:	efff48ff 	.word	0xff48ffef
801171a8:	0000efff 	.word	0xffef0000
801171ac:	30ff0000 	.word	0xff30
801171b0:	3100d000 	.word	0xd00031
801171b4:	00003100 	.word	0x310000
801171b8:	4bff0000 	.word	0xff4b
801171bc:	df00b500 	.word	0xb500df
801171c0:	0000df00 	.word	0xdf0000
801171c4:	de009dff 	.word	0xff9d00de
801171c8:	8c0083ff 	.word	0xff83008c
801171cc:	b5008c00 	.word	0x8c00b5
801171d0:	7d004bff 	.word	0xff4b007d
801171d4:	8c0022ff 	.word	0xff22008c
801171d8:	63008c00 	.word	0x8c0063
801171dc:	08ff0000 	.word	0xff08
801171e0:	8c000000 	syscall	0x2
801171e4:	2aff8c00 	.word	0x8cff2a
801171e8:	83ff4bff 	.word	0xff4bff83
801171ec:	8c00bcfe 	.word	0xfebc008c
801171f0:	70ffcc00 	.word	0xccff70
801171f4:	0000d600 	.word	0xd60000
801171f8:	8c00f800 	syscall	0x3e002
801171fc:	00008c00 	.word	0x8c0000
80117200:	de006300 	.word	0x6300de
80117204:	8c007d00 	syscall	0x1f402
80117208:	b5008c00 	.word	0x8c00b5
8011720c:	5dff4a00 	.word	0x4aff5d
80117210:	df00afff 	.word	0xffaf00df
80117214:	040049ff 	.word	0xff490004
80117218:	5dffb6ff 	.word	0xffb6ff5d
8011721c:	df00afff 	.word	0xffaf00df
80117220:	fcff49ff 	.word	0xff49fffc
80117224:	a3004a00 	.word	0x4a00a3
80117228:	df005100 	.word	0x5100df
8011722c:	040049ff 	.word	0xff490004
80117230:	a300b6ff 	.word	0xffb600a3
80117234:	df005100 	.word	0x5100df
80117238:	fcff49ff 	.word	0xff49fffc
8011723c:	8200ddff 	.word	0xffdd0082
80117240:	a9ff7eff 	.word	0xff7effa9
80117244:	ddffa9ff 	.word	0xffa9ffdd
80117248:	82002300 	.word	0x230082
8011724c:	a9ff7eff 	.word	0xff7effa9
80117250:	2300a9ff 	.word	0xffa90023
80117254:	9aff0000 	.word	0xff9a
80117258:	76ff6600 	.word	0x66ff76
8011725c:	000076ff 	.word	0xff760000
80117260:	e5fffaff 	.word	0xfffaffe5
80117264:	15ffe5ff 	.word	0xffe5ff15
80117268:	060015ff 	.word	0xff150006
8011726c:	a7ff7cff 	.word	0xff7cffa7
80117270:	df00a7ff 	.word	0xffa700df
80117274:	8400df00 	.word	0xdf0084
80117278:	9aff6d00 	.word	0x6dff9a
8011727c:	efff1b00 	.word	0x1bffef
80117280:	060015ff 	.word	0xff150006
80117284:	59008400 	.word	0x840059
80117288:	df005900 	.word	0x5900df
8011728c:	7cffdf00 	.word	0xdfff7c
80117290:	1b00faff 	.word	0xfffa001b
80117294:	15ff6600 	.word	0x66ff15
80117298:	6d00efff 	.word	0xffef006d
8011729c:	60ff3900 	.word	0x39ff60
801172a0:	efffa000 	.word	0xa0ffef
801172a4:	c7ffefff 	.word	0xffefffc7
801172a8:	60ffc7ff 	.word	0xffc7ff60
801172ac:	efffab00 	.word	0xabffef
801172b0:	49ffe3ff 	.word	0xffe3ff49
801172b4:	9aff93ff 	.word	0xff93ff9a
801172b8:	efffa000 	.word	0xa0ffef
801172bc:	3900efff 	.word	0xffef0039
801172c0:	00000000 	nop
801172c4:	1d010000 	.word	0x11d
801172c8:	b1ffa9ff 	.word	0xffa9ffb1
801172cc:	00004f00 	.word	0x4f0000
801172d0:	a9ffeaff 	.word	0xffeaffa9
801172d4:	faff15ff 	.word	0xff15fffa
801172d8:	eafff9ff 	.word	0xfff9ffea
801172dc:	fcfe0000 	.word	0xfefc
801172e0:	faff15ff 	.word	0xff15fffa
801172e4:	0000f9ff 	.word	0xfff90000
801172e8:	fcfe0000 	.word	0xfefc
801172ec:	060015ff 	.word	0xff150006
801172f0:	00000700 	sll	zero,a3,0x0
801172f4:	fcfe1600 	.word	0x16fefc
801172f8:	060015ff 	.word	0xff150006
801172fc:	16000700 	.word	0x70016
80117300:	fcfeeaff 	.word	0xffeafefc
80117304:	faff15ff 	.word	0xff15fffa
80117308:	eafff9ff 	.word	0xfff9ffea
8011730c:	fcfe0000 	.word	0xfefc
80117310:	faff15ff 	.word	0xff15fffa
80117314:	0000f9ff 	.word	0xfff90000
80117318:	fcfe0000 	.word	0xfefc
8011731c:	060015ff 	.word	0xff150006
80117320:	00000700 	sll	zero,a3,0x0
80117324:	fcfe1600 	.word	0x16fefc
80117328:	060015ff 	.word	0xff150006
8011732c:	16000700 	.word	0x70016
80117330:	fcfe46ff 	.word	0xff46fefc
80117334:	54003100 	.word	0x310054
80117338:	95ff9c00 	.word	0x9cff95
8011733c:	310046ff 	.word	0xff460031
80117340:	acff3100 	.word	0x31ffac
80117344:	b4000501 	.word	0x10500b4
80117348:	530095ff 	.word	0xff950053
8011734c:	64ff3100 	.word	0x31ff64
80117350:	ba005400 	.word	0x5400ba
80117354:	3100ba00 	.word	0xba0031
80117358:	acff3100 	.word	0x31ffac
8011735c:	6b0064ff 	.word	0xff64006b
80117360:	31000000 	.word	0x31
80117364:	00007aff 	.word	0xff7a0000
80117368:	000079ff 	.word	0xff790000
8011736c:	efff0000 	.word	0xffef
80117370:	47ff3100 	.word	0x31ff47
80117374:	000064ff 	.word	0xff640000
80117378:	df000000 	.word	0xdf
8011737c:	8700efff 	.word	0xffef0087
80117380:	0000b900 	.word	0xb90000
80117384:	31000000 	.word	0x31
80117388:	9c00df00 	.word	0xdf009c
8011738c:	b8000000 	.word	0xb8
80117390:	efff48ff 	.word	0xff48ffef
80117394:	0000efff 	.word	0xffef0000
80117398:	30ff0000 	.word	0xff30
8011739c:	3100d000 	.word	0xd00031
801173a0:	00003100 	.word	0x310000
801173a4:	4bff0000 	.word	0xff4b
801173a8:	df00b500 	.word	0xb500df
801173ac:	0000df00 	.word	0xdf0000
801173b0:	de009dff 	.word	0xff9d00de
801173b4:	8c0083ff 	.word	0xff83008c
801173b8:	b5008c00 	.word	0x8c00b5
801173bc:	7d004bff 	.word	0xff4b007d
801173c0:	8c0022ff 	.word	0xff22008c
801173c4:	63008c00 	.word	0x8c0063
801173c8:	08ff0000 	.word	0xff08
801173cc:	8c000000 	syscall	0x2
801173d0:	2aff8c00 	.word	0x8cff2a
801173d4:	83ff4bff 	.word	0xff4bff83
801173d8:	8c008bfe 	.word	0xfe8b008c
801173dc:	5affeb00 	.word	0xebff5a
801173e0:	0000d600 	.word	0xd60000
801173e4:	8c00f800 	syscall	0x3e002
801173e8:	00008c00 	.word	0x8c0000
801173ec:	de006300 	.word	0x6300de
801173f0:	8c007d00 	syscall	0x1f402
801173f4:	b5008c00 	.word	0x8c00b5
801173f8:	5dff4a00 	.word	0x4aff5d
801173fc:	df00afff 	.word	0xffaf00df
80117400:	040049ff 	.word	0xff490004
80117404:	5dffb6ff 	.word	0xffb6ff5d
80117408:	df00afff 	.word	0xffaf00df
8011740c:	fcff49ff 	.word	0xff49fffc
80117410:	a3004a00 	.word	0x4a00a3
80117414:	df005100 	.word	0x5100df
80117418:	040049ff 	.word	0xff490004
8011741c:	a300b6ff 	.word	0xffb600a3
80117420:	df005100 	.word	0x5100df
80117424:	fcff49ff 	.word	0xff49fffc
80117428:	8200ddff 	.word	0xffdd0082
8011742c:	a9ff7eff 	.word	0xff7effa9
80117430:	ddffa9ff 	.word	0xffa9ffdd
80117434:	82002300 	.word	0x230082
80117438:	a9ff7eff 	.word	0xff7effa9
8011743c:	2300a9ff 	.word	0xffa90023
80117440:	9aff0000 	.word	0xff9a
80117444:	76ff6600 	.word	0x66ff76
80117448:	000076ff 	.word	0xff760000
8011744c:	e5fffaff 	.word	0xfffaffe5
80117450:	15ffe5ff 	.word	0xffe5ff15
80117454:	060015ff 	.word	0xff150006
80117458:	a7ff7cff 	.word	0xff7cffa7
8011745c:	df00a7ff 	.word	0xffa700df
80117460:	8400df00 	.word	0xdf0084
80117464:	9aff6d00 	.word	0x6dff9a
80117468:	efff1b00 	.word	0x1bffef
8011746c:	060015ff 	.word	0xff150006
80117470:	59008400 	.word	0x840059
80117474:	df005900 	.word	0x5900df
80117478:	7cffdf00 	.word	0xdfff7c
8011747c:	1b00faff 	.word	0xfffa001b
80117480:	15ff6600 	.word	0x66ff15
80117484:	6d00efff 	.word	0xffef006d
80117488:	60ff3900 	.word	0x39ff60
8011748c:	efffa000 	.word	0xa0ffef
80117490:	c7ffefff 	.word	0xffefffc7
80117494:	60ffc7ff 	.word	0xffc7ff60
80117498:	efffbc00 	.word	0xbcffef
8011749c:	36ffe0ff 	.word	0xffe0ff36
801174a0:	9aff93ff 	.word	0xff93ff9a
801174a4:	efffa000 	.word	0xa0ffef
801174a8:	3900efff 	.word	0xffef0039
801174ac:	00000000 	nop
801174b0:	1d010000 	.word	0x11d
801174b4:	b1ffa9ff 	.word	0xffa9ffb1
801174b8:	00004f00 	.word	0x4f0000
801174bc:	a9ffeaff 	.word	0xffeaffa9
801174c0:	faff15ff 	.word	0xff15fffa
801174c4:	eafff9ff 	.word	0xfff9ffea
801174c8:	fcfe0000 	.word	0xfefc
801174cc:	faff15ff 	.word	0xff15fffa
801174d0:	0000f9ff 	.word	0xfff90000
801174d4:	fcfe0000 	.word	0xfefc
801174d8:	060015ff 	.word	0xff150006
801174dc:	00000700 	sll	zero,a3,0x0
801174e0:	fcfe1600 	.word	0x16fefc
801174e4:	060015ff 	.word	0xff150006
801174e8:	16000700 	.word	0x70016
801174ec:	fcfeeaff 	.word	0xffeafefc
801174f0:	faff15ff 	.word	0xff15fffa
801174f4:	eafff9ff 	.word	0xfff9ffea
801174f8:	fcfe0000 	.word	0xfefc
801174fc:	faff15ff 	.word	0xff15fffa
80117500:	0000f9ff 	.word	0xfff90000
80117504:	fcfe0000 	.word	0xfefc
80117508:	060015ff 	.word	0xff150006
8011750c:	00000700 	sll	zero,a3,0x0
80117510:	fcfe1600 	.word	0x16fefc
80117514:	060015ff 	.word	0xff150006
80117518:	16000700 	.word	0x70016
8011751c:	fcfe46ff 	.word	0xff46fefc
80117520:	54003100 	.word	0x310054
80117524:	95ff9c00 	.word	0x9cff95
80117528:	310046ff 	.word	0xff460031
8011752c:	acff3100 	.word	0x31ffac
80117530:	c7002001 	.word	0x12000c7
80117534:	5c0095ff 	.word	0xff95005c
80117538:	64ff3100 	.word	0x31ff64
8011753c:	ba005400 	.word	0x5400ba
80117540:	3100ba00 	.word	0xba0031
80117544:	acff3100 	.word	0x31ffac
80117548:	6b0064ff 	.word	0xff64006b
8011754c:	31000000 	.word	0x31
80117550:	00007aff 	.word	0xff7a0000
80117554:	000079ff 	.word	0xff790000
80117558:	efff0000 	.word	0xffef
8011755c:	47ff3100 	.word	0x31ff47
80117560:	000064ff 	.word	0xff640000
80117564:	df000000 	.word	0xdf
80117568:	8700efff 	.word	0xffef0087
8011756c:	0000b900 	.word	0xb90000
80117570:	31000000 	.word	0x31
80117574:	9c00df00 	.word	0xdf009c
80117578:	b8000000 	.word	0xb8
8011757c:	efff48ff 	.word	0xff48ffef
80117580:	0000efff 	.word	0xffef0000
80117584:	30ff0000 	.word	0xff30
80117588:	3100d000 	.word	0xd00031
8011758c:	00003100 	.word	0x310000
80117590:	4bff0000 	.word	0xff4b
80117594:	df00b500 	.word	0xb500df
80117598:	0000df00 	.word	0xdf0000
8011759c:	de009dff 	.word	0xff9d00de
801175a0:	8c0083ff 	.word	0xff83008c
801175a4:	b5008c00 	.word	0x8c00b5
801175a8:	7d004bff 	.word	0xff4b007d
801175ac:	8c0022ff 	.word	0xff22008c
801175b0:	63008c00 	.word	0x8c0063
801175b4:	08ff0000 	.word	0xff08
801175b8:	8c000000 	syscall	0x2
801175bc:	2aff8c00 	.word	0x8cff2a
801175c0:	83ff4bff 	.word	0xff4bff83
801175c4:	8c0065fe 	.word	0xfe65008c
801175c8:	49ff0301 	.word	0x103ff49
801175cc:	0000d600 	.word	0xd60000
801175d0:	8c00f800 	syscall	0x3e002
801175d4:	00008c00 	.word	0x8c0000
801175d8:	de006300 	.word	0x6300de
801175dc:	8c007d00 	syscall	0x1f402
801175e0:	b5008c00 	.word	0x8c00b5
801175e4:	5dff4a00 	.word	0x4aff5d
801175e8:	df00afff 	.word	0xffaf00df
801175ec:	040049ff 	.word	0xff490004
801175f0:	5dffb6ff 	.word	0xffb6ff5d
801175f4:	df00afff 	.word	0xffaf00df
801175f8:	fcff49ff 	.word	0xff49fffc
801175fc:	a3004a00 	.word	0x4a00a3
80117600:	df005100 	.word	0x5100df
80117604:	040049ff 	.word	0xff490004
80117608:	a300b6ff 	.word	0xffb600a3
8011760c:	df005100 	.word	0x5100df
80117610:	fcff49ff 	.word	0xff49fffc
80117614:	8200ddff 	.word	0xffdd0082
80117618:	a9ff7eff 	.word	0xff7effa9
8011761c:	ddffa9ff 	.word	0xffa9ffdd
80117620:	82002300 	.word	0x230082
80117624:	a9ff7eff 	.word	0xff7effa9
80117628:	2300a9ff 	.word	0xffa90023
8011762c:	9aff0000 	.word	0xff9a
80117630:	76ff6600 	.word	0x66ff76
80117634:	000076ff 	.word	0xff760000
80117638:	e5fffaff 	.word	0xfffaffe5
8011763c:	15ffe5ff 	.word	0xffe5ff15
80117640:	060015ff 	.word	0xff150006
80117644:	a7ff7cff 	.word	0xff7cffa7
80117648:	df00a7ff 	.word	0xffa700df
8011764c:	8400df00 	.word	0xdf0084
80117650:	9aff6d00 	.word	0x6dff9a
80117654:	efff1b00 	.word	0x1bffef
80117658:	060015ff 	.word	0xff150006
8011765c:	59008400 	.word	0x840059
80117660:	df005900 	.word	0x5900df
80117664:	7cffdf00 	.word	0xdfff7c
80117668:	1b00faff 	.word	0xfffa001b
8011766c:	15ff6600 	.word	0x66ff15
80117670:	6d00efff 	.word	0xffef006d
80117674:	60ff3900 	.word	0x39ff60
80117678:	efffa000 	.word	0xa0ffef
8011767c:	c7ffefff 	.word	0xffefffc7
80117680:	60ffc7ff 	.word	0xffc7ff60
80117684:	efffc300 	.word	0xc3ffef
80117688:	2fffdfff 	.word	0xffdfff2f
8011768c:	9aff93ff 	.word	0xff93ff9a
80117690:	efffa000 	.word	0xa0ffef
80117694:	3900efff 	.word	0xffef0039
80117698:	00000000 	nop
8011769c:	1d010000 	.word	0x11d
801176a0:	b1ffa9ff 	.word	0xffa9ffb1
801176a4:	00004f00 	.word	0x4f0000
801176a8:	a9ffeaff 	.word	0xffeaffa9
801176ac:	faff15ff 	.word	0xff15fffa
801176b0:	eafff9ff 	.word	0xfff9ffea
801176b4:	fcfe0000 	.word	0xfefc
801176b8:	faff15ff 	.word	0xff15fffa
801176bc:	0000f9ff 	.word	0xfff90000
801176c0:	fcfe0000 	.word	0xfefc
801176c4:	060015ff 	.word	0xff150006
801176c8:	00000700 	sll	zero,a3,0x0
801176cc:	fcfe1600 	.word	0x16fefc
801176d0:	060015ff 	.word	0xff150006
801176d4:	16000700 	.word	0x70016
801176d8:	fcfeeaff 	.word	0xffeafefc
801176dc:	faff15ff 	.word	0xff15fffa
801176e0:	eafff9ff 	.word	0xfff9ffea
801176e4:	fcfe0000 	.word	0xfefc
801176e8:	faff15ff 	.word	0xff15fffa
801176ec:	0000f9ff 	.word	0xfff90000
801176f0:	fcfe0000 	.word	0xfefc
801176f4:	060015ff 	.word	0xff150006
801176f8:	00000700 	sll	zero,a3,0x0
801176fc:	fcfe1600 	.word	0x16fefc
80117700:	060015ff 	.word	0xff150006
80117704:	16000700 	.word	0x70016
80117708:	fcfe46ff 	.word	0xff46fefc
8011770c:	54003100 	.word	0x310054
80117710:	95ff9c00 	.word	0x9cff95
80117714:	310046ff 	.word	0xff460031
80117718:	acff3100 	.word	0x31ffac
8011771c:	ce002a01 	.word	0x12a00ce
80117720:	5f0095ff 	.word	0xff95005f
80117724:	64ff3100 	.word	0x31ff64
80117728:	ba005400 	.word	0x5400ba
8011772c:	3100ba00 	.word	0xba0031
80117730:	acff3100 	.word	0x31ffac
80117734:	6b0064ff 	.word	0xff64006b
80117738:	31000000 	.word	0x31
8011773c:	00007aff 	.word	0xff7a0000
80117740:	000079ff 	.word	0xff790000
80117744:	efff0000 	.word	0xffef
80117748:	47ff3100 	.word	0x31ff47
8011774c:	000064ff 	.word	0xff640000
80117750:	df000000 	.word	0xdf
80117754:	8700efff 	.word	0xffef0087
80117758:	0000b900 	.word	0xb90000
8011775c:	31000000 	.word	0x31
80117760:	9c00df00 	.word	0xdf009c
80117764:	b8000000 	.word	0xb8
80117768:	efff48ff 	.word	0xff48ffef
8011776c:	0000efff 	.word	0xffef0000
80117770:	30ff0000 	.word	0xff30
80117774:	3100d000 	.word	0xd00031
80117778:	00003100 	.word	0x310000
8011777c:	4bff0000 	.word	0xff4b
80117780:	df00b500 	.word	0xb500df
80117784:	0000df00 	.word	0xdf0000
80117788:	de009dff 	.word	0xff9d00de
8011778c:	8c0083ff 	.word	0xff83008c
80117790:	b5008c00 	.word	0x8c00b5
80117794:	7d004bff 	.word	0xff4b007d
80117798:	8c0022ff 	.word	0xff22008c
8011779c:	63008c00 	.word	0x8c0063
801177a0:	08ff0000 	.word	0xff08
801177a4:	8c000000 	syscall	0x2
801177a8:	2aff8c00 	.word	0x8cff2a
801177ac:	83ff4bff 	.word	0xff4bff83
801177b0:	8c0056fe 	.word	0xfe56008c
801177b4:	42ff0c01 	.word	0x10cff42
801177b8:	0000d600 	.word	0xd60000
801177bc:	8c00f800 	syscall	0x3e002
801177c0:	00008c00 	.word	0x8c0000
801177c4:	de006300 	.word	0x6300de
801177c8:	8c007d00 	syscall	0x1f402
801177cc:	b5008c00 	.word	0x8c00b5
801177d0:	5dff4a00 	.word	0x4aff5d
801177d4:	df00afff 	.word	0xffaf00df
801177d8:	040049ff 	.word	0xff490004
801177dc:	5dffb6ff 	.word	0xffb6ff5d
801177e0:	df00afff 	.word	0xffaf00df
801177e4:	fcff49ff 	.word	0xff49fffc
801177e8:	a3004a00 	.word	0x4a00a3
801177ec:	df005100 	.word	0x5100df
801177f0:	040049ff 	.word	0xff490004
801177f4:	a300b6ff 	.word	0xffb600a3
801177f8:	df005100 	.word	0x5100df
801177fc:	fcff49ff 	.word	0xff49fffc
80117800:	8200ddff 	.word	0xffdd0082
80117804:	a9ff7eff 	.word	0xff7effa9
80117808:	ddffa9ff 	.word	0xffa9ffdd
8011780c:	82002300 	.word	0x230082
80117810:	a9ff7eff 	.word	0xff7effa9
80117814:	2300a9ff 	.word	0xffa90023
80117818:	9aff0000 	.word	0xff9a
8011781c:	76ff6600 	.word	0x66ff76
80117820:	000076ff 	.word	0xff760000
80117824:	e5fffaff 	.word	0xfffaffe5
80117828:	15ffe5ff 	.word	0xffe5ff15
8011782c:	060015ff 	.word	0xff150006
80117830:	a7ff7cff 	.word	0xff7cffa7
80117834:	df00a7ff 	.word	0xffa700df
80117838:	8400df00 	.word	0xdf0084
8011783c:	9aff6d00 	.word	0x6dff9a
80117840:	efff1b00 	.word	0x1bffef
80117844:	060015ff 	.word	0xff150006
80117848:	59008400 	.word	0x840059
8011784c:	df005900 	.word	0x5900df
80117850:	7cffdf00 	.word	0xdfff7c
80117854:	1b00faff 	.word	0xfffa001b
80117858:	15ff6600 	.word	0x66ff15
8011785c:	6d00efff 	.word	0xffef006d
80117860:	60ff3900 	.word	0x39ff60
80117864:	efffa000 	.word	0xa0ffef
80117868:	c7ffefff 	.word	0xffefffc7
8011786c:	60ffc7ff 	.word	0xffc7ff60
80117870:	efffc000 	.word	0xc0ffef
80117874:	32ffe0ff 	.word	0xffe0ff32
80117878:	9aff93ff 	.word	0xff93ff9a
8011787c:	efffa000 	.word	0xa0ffef
80117880:	3900efff 	.word	0xffef0039
80117884:	00000000 	nop
80117888:	1d010000 	.word	0x11d
8011788c:	b1ffa9ff 	.word	0xffa9ffb1
80117890:	00004f00 	.word	0x4f0000
80117894:	a9ffeaff 	.word	0xffeaffa9
80117898:	faff15ff 	.word	0xff15fffa
8011789c:	eafff9ff 	.word	0xfff9ffea
801178a0:	fcfe0000 	.word	0xfefc
801178a4:	faff15ff 	.word	0xff15fffa
801178a8:	0000f9ff 	.word	0xfff90000
801178ac:	fcfe0000 	.word	0xfefc
801178b0:	060015ff 	.word	0xff150006
801178b4:	00000700 	sll	zero,a3,0x0
801178b8:	fcfe1600 	.word	0x16fefc
801178bc:	060015ff 	.word	0xff150006
801178c0:	16000700 	.word	0x70016
801178c4:	fcfeeaff 	.word	0xffeafefc
801178c8:	faff15ff 	.word	0xff15fffa
801178cc:	eafff9ff 	.word	0xfff9ffea
801178d0:	fcfe0000 	.word	0xfefc
801178d4:	faff15ff 	.word	0xff15fffa
801178d8:	0000f9ff 	.word	0xfff90000
801178dc:	fcfe0000 	.word	0xfefc
801178e0:	060015ff 	.word	0xff150006
801178e4:	00000700 	sll	zero,a3,0x0
801178e8:	fcfe1600 	.word	0x16fefc
801178ec:	060015ff 	.word	0xff150006
801178f0:	16000700 	.word	0x70016
801178f4:	fcfe46ff 	.word	0xff46fefc
801178f8:	54003100 	.word	0x310054
801178fc:	95ff9c00 	.word	0x9cff95
80117900:	310046ff 	.word	0xff460031
80117904:	acff3100 	.word	0x31ffac
80117908:	ca002501 	.word	0x12500ca
8011790c:	5d0095ff 	.word	0xff95005d
80117910:	64ff3100 	.word	0x31ff64
80117914:	ba005400 	.word	0x5400ba
80117918:	3100ba00 	.word	0xba0031
8011791c:	acff3100 	.word	0x31ffac
80117920:	6b0064ff 	.word	0xff64006b
80117924:	31000000 	.word	0x31
80117928:	00007aff 	.word	0xff7a0000
8011792c:	000079ff 	.word	0xff790000
80117930:	efff0000 	.word	0xffef
80117934:	47ff3100 	.word	0x31ff47
80117938:	000064ff 	.word	0xff640000
8011793c:	df000000 	.word	0xdf
80117940:	8700efff 	.word	0xffef0087
80117944:	0000b900 	.word	0xb90000
80117948:	31000000 	.word	0x31
8011794c:	9c00df00 	.word	0xdf009c
80117950:	b8000000 	.word	0xb8
80117954:	efff48ff 	.word	0xff48ffef
80117958:	0000efff 	.word	0xffef0000
8011795c:	30ff0000 	.word	0xff30
80117960:	3100d000 	.word	0xd00031
80117964:	00003100 	.word	0x310000
80117968:	4bff0000 	.word	0xff4b
8011796c:	df00b500 	.word	0xb500df
80117970:	0000df00 	.word	0xdf0000
80117974:	de009dff 	.word	0xff9d00de
80117978:	8c0083ff 	.word	0xff83008c
8011797c:	b5008c00 	.word	0x8c00b5
80117980:	7d004bff 	.word	0xff4b007d
80117984:	8c0022ff 	.word	0xff22008c
80117988:	63008c00 	.word	0x8c0063
8011798c:	08ff0000 	.word	0xff08
80117990:	8c000000 	syscall	0x2
80117994:	2aff8c00 	.word	0x8cff2a
80117998:	83ff4bff 	.word	0xff4bff83
8011799c:	8c005dfe 	.word	0xfe5d008c
801179a0:	45ff0701 	.word	0x107ff45
801179a4:	0000d600 	.word	0xd60000
801179a8:	8c00f800 	syscall	0x3e002
801179ac:	00008c00 	.word	0x8c0000
801179b0:	de006300 	.word	0x6300de
801179b4:	8c007d00 	syscall	0x1f402
801179b8:	b5008c00 	.word	0x8c00b5
801179bc:	5dff4a00 	.word	0x4aff5d
801179c0:	df00afff 	.word	0xffaf00df
801179c4:	040049ff 	.word	0xff490004
801179c8:	5dffb6ff 	.word	0xffb6ff5d
801179cc:	df00afff 	.word	0xffaf00df
801179d0:	fcff49ff 	.word	0xff49fffc
801179d4:	a3004a00 	.word	0x4a00a3
801179d8:	df005100 	.word	0x5100df
801179dc:	040049ff 	.word	0xff490004
801179e0:	a300b6ff 	.word	0xffb600a3
801179e4:	df005100 	.word	0x5100df
801179e8:	fcff49ff 	.word	0xff49fffc
801179ec:	8200ddff 	.word	0xffdd0082
801179f0:	a9ff7eff 	.word	0xff7effa9
801179f4:	ddffa9ff 	.word	0xffa9ffdd
801179f8:	82002300 	.word	0x230082
801179fc:	a9ff7eff 	.word	0xff7effa9
80117a00:	2300a9ff 	.word	0xffa90023
80117a04:	9aff0000 	.word	0xff9a
80117a08:	76ff6600 	.word	0x66ff76
80117a0c:	000076ff 	.word	0xff760000
80117a10:	e5fffaff 	.word	0xfffaffe5
80117a14:	15ffe5ff 	.word	0xffe5ff15
80117a18:	060015ff 	.word	0xff150006
80117a1c:	a7ff7cff 	.word	0xff7cffa7
80117a20:	df00a7ff 	.word	0xffa700df
80117a24:	8400df00 	.word	0xdf0084
80117a28:	9aff6d00 	.word	0x6dff9a
80117a2c:	efff1b00 	.word	0x1bffef
80117a30:	060015ff 	.word	0xff150006
80117a34:	59008400 	.word	0x840059
80117a38:	df005900 	.word	0x5900df
80117a3c:	7cffdf00 	.word	0xdfff7c
80117a40:	1b00faff 	.word	0xfffa001b
80117a44:	15ff6600 	.word	0x66ff15
80117a48:	6d00efff 	.word	0xffef006d
80117a4c:	60ff3900 	.word	0x39ff60
80117a50:	efffa000 	.word	0xa0ffef
80117a54:	c7ffefff 	.word	0xffefffc7
80117a58:	60ffc7ff 	.word	0xffc7ff60
80117a5c:	efffb600 	.word	0xb6ffef
80117a60:	3cffe1ff 	.word	0xffe1ff3c
80117a64:	9aff93ff 	.word	0xff93ff9a
80117a68:	efffa000 	.word	0xa0ffef
80117a6c:	3900efff 	.word	0xffef0039
80117a70:	00000000 	nop
80117a74:	1d010000 	.word	0x11d
80117a78:	b1ffa9ff 	.word	0xffa9ffb1
80117a7c:	00004f00 	.word	0x4f0000
80117a80:	a9ffeaff 	.word	0xffeaffa9
80117a84:	faff15ff 	.word	0xff15fffa
80117a88:	eafff9ff 	.word	0xfff9ffea
80117a8c:	fcfe0000 	.word	0xfefc
80117a90:	faff15ff 	.word	0xff15fffa
80117a94:	0000f9ff 	.word	0xfff90000
80117a98:	fcfe0000 	.word	0xfefc
80117a9c:	060015ff 	.word	0xff150006
80117aa0:	00000700 	sll	zero,a3,0x0
80117aa4:	fcfe1600 	.word	0x16fefc
80117aa8:	060015ff 	.word	0xff150006
80117aac:	16000700 	.word	0x70016
80117ab0:	fcfeeaff 	.word	0xffeafefc
80117ab4:	faff15ff 	.word	0xff15fffa
80117ab8:	eafff9ff 	.word	0xfff9ffea
80117abc:	fcfe0000 	.word	0xfefc
80117ac0:	faff15ff 	.word	0xff15fffa
80117ac4:	0000f9ff 	.word	0xfff90000
80117ac8:	fcfe0000 	.word	0xfefc
80117acc:	060015ff 	.word	0xff150006
80117ad0:	00000700 	sll	zero,a3,0x0
80117ad4:	fcfe1600 	.word	0x16fefc
80117ad8:	060015ff 	.word	0xff150006
80117adc:	16000700 	.word	0x70016
80117ae0:	fcfe46ff 	.word	0xff46fefc
80117ae4:	54003100 	.word	0x310054
80117ae8:	95ff9c00 	.word	0x9cff95
80117aec:	310046ff 	.word	0xff460031
80117af0:	acff3100 	.word	0x31ffac
80117af4:	c0001701 	.word	0x11700c0
80117af8:	590095ff 	.word	0xff950059
80117afc:	64ff3100 	.word	0x31ff64
80117b00:	ba005400 	.word	0x5400ba
80117b04:	3100ba00 	.word	0xba0031
80117b08:	acff3100 	.word	0x31ffac
80117b0c:	6b0064ff 	.word	0xff64006b
80117b10:	31000000 	.word	0x31
80117b14:	00007aff 	.word	0xff7a0000
80117b18:	000079ff 	.word	0xff790000
80117b1c:	efff0000 	.word	0xffef
80117b20:	47ff3100 	.word	0x31ff47
80117b24:	000064ff 	.word	0xff640000
80117b28:	df000000 	.word	0xdf
80117b2c:	8700efff 	.word	0xffef0087
80117b30:	0000b900 	.word	0xb90000
80117b34:	31000000 	.word	0x31
80117b38:	9c00df00 	.word	0xdf009c
80117b3c:	b8000000 	.word	0xb8
80117b40:	efff48ff 	.word	0xff48ffef
80117b44:	0000efff 	.word	0xffef0000
80117b48:	30ff0000 	.word	0xff30
80117b4c:	3100d000 	.word	0xd00031
80117b50:	00003100 	.word	0x310000
80117b54:	4bff0000 	.word	0xff4b
80117b58:	df00b500 	.word	0xb500df
80117b5c:	0000df00 	.word	0xdf0000
80117b60:	de009dff 	.word	0xff9d00de
80117b64:	8c0083ff 	.word	0xff83008c
80117b68:	b5008c00 	.word	0x8c00b5
80117b6c:	7d004bff 	.word	0xff4b007d
80117b70:	8c0022ff 	.word	0xff22008c
80117b74:	63008c00 	.word	0x8c0063
80117b78:	08ff0000 	.word	0xff08
80117b7c:	8c000000 	syscall	0x2
80117b80:	2aff8c00 	.word	0x8cff2a
80117b84:	83ff4bff 	.word	0xff4bff83
80117b88:	8c0071fe 	.word	0xfe71008c
80117b8c:	4efffb00 	.word	0xfbff4e
80117b90:	0000d600 	.word	0xd60000
80117b94:	8c00f800 	syscall	0x3e002
80117b98:	00008c00 	.word	0x8c0000
80117b9c:	de006300 	.word	0x6300de
80117ba0:	8c007d00 	syscall	0x1f402
80117ba4:	b5008c00 	.word	0x8c00b5
80117ba8:	5dff4a00 	.word	0x4aff5d
80117bac:	df00afff 	.word	0xffaf00df
80117bb0:	040049ff 	.word	0xff490004
80117bb4:	5dffb6ff 	.word	0xffb6ff5d
80117bb8:	df00afff 	.word	0xffaf00df
80117bbc:	fcff49ff 	.word	0xff49fffc
80117bc0:	a3004a00 	.word	0x4a00a3
80117bc4:	df005100 	.word	0x5100df
80117bc8:	040049ff 	.word	0xff490004
80117bcc:	a300b6ff 	.word	0xffb600a3
80117bd0:	df005100 	.word	0x5100df
80117bd4:	fcff49ff 	.word	0xff49fffc
80117bd8:	8200ddff 	.word	0xffdd0082
80117bdc:	a9ff7eff 	.word	0xff7effa9
80117be0:	ddffa9ff 	.word	0xffa9ffdd
80117be4:	82002300 	.word	0x230082
80117be8:	a9ff7eff 	.word	0xff7effa9
80117bec:	2300a9ff 	.word	0xffa90023
80117bf0:	9aff0000 	.word	0xff9a
80117bf4:	76ff6600 	.word	0x66ff76
80117bf8:	000076ff 	.word	0xff760000
80117bfc:	e5fffaff 	.word	0xfffaffe5
80117c00:	15ffe5ff 	.word	0xffe5ff15
80117c04:	060015ff 	.word	0xff150006
80117c08:	a7ff7cff 	.word	0xff7cffa7
80117c0c:	df00a7ff 	.word	0xffa700df
80117c10:	8400df00 	.word	0xdf0084
80117c14:	9aff6d00 	.word	0x6dff9a
80117c18:	efff1b00 	.word	0x1bffef
80117c1c:	060015ff 	.word	0xff150006
80117c20:	59008400 	.word	0x840059
80117c24:	df005900 	.word	0x5900df
80117c28:	7cffdf00 	.word	0xdfff7c
80117c2c:	1b00faff 	.word	0xfffa001b
80117c30:	15ff6600 	.word	0x66ff15
80117c34:	6d00efff 	.word	0xffef006d
80117c38:	60ff3900 	.word	0x39ff60
80117c3c:	efffa000 	.word	0xa0ffef
80117c40:	c7ffefff 	.word	0xffefffc7
80117c44:	60ffc7ff 	.word	0xffc7ff60
80117c48:	efffa900 	.word	0xa9ffef
80117c4c:	4bffe3ff 	.word	0xffe3ff4b
80117c50:	9aff93ff 	.word	0xff93ff9a
80117c54:	efffa000 	.word	0xa0ffef
80117c58:	3900efff 	.word	0xffef0039
80117c5c:	00000000 	nop
80117c60:	1d010000 	.word	0x11d
80117c64:	b1ffa9ff 	.word	0xffa9ffb1
80117c68:	00004f00 	.word	0x4f0000
80117c6c:	a9ffeaff 	.word	0xffeaffa9
80117c70:	faff15ff 	.word	0xff15fffa
80117c74:	eafff9ff 	.word	0xfff9ffea
80117c78:	fcfe0000 	.word	0xfefc
80117c7c:	faff15ff 	.word	0xff15fffa
80117c80:	0000f9ff 	.word	0xfff90000
80117c84:	fcfe0000 	.word	0xfefc
80117c88:	060015ff 	.word	0xff150006
80117c8c:	00000700 	sll	zero,a3,0x0
80117c90:	fcfe1600 	.word	0x16fefc
80117c94:	060015ff 	.word	0xff150006
80117c98:	16000700 	.word	0x70016
80117c9c:	fcfeeaff 	.word	0xffeafefc
80117ca0:	faff15ff 	.word	0xff15fffa
80117ca4:	eafff9ff 	.word	0xfff9ffea
80117ca8:	fcfe0000 	.word	0xfefc
80117cac:	faff15ff 	.word	0xff15fffa
80117cb0:	0000f9ff 	.word	0xfff90000
80117cb4:	fcfe0000 	.word	0xfefc
80117cb8:	060015ff 	.word	0xff150006
80117cbc:	00000700 	sll	zero,a3,0x0
80117cc0:	fcfe1600 	.word	0x16fefc
80117cc4:	060015ff 	.word	0xff150006
80117cc8:	16000700 	.word	0x70016
80117ccc:	fcfe46ff 	.word	0xff46fefc
80117cd0:	54003100 	.word	0x310054
80117cd4:	95ff9c00 	.word	0x9cff95
80117cd8:	310046ff 	.word	0xff460031
80117cdc:	acff3100 	.word	0x31ffac
80117ce0:	b2000201 	.word	0x10200b2
80117ce4:	520095ff 	.word	0xff950052
80117ce8:	64ff3100 	.word	0x31ff64
80117cec:	ba005400 	.word	0x5400ba
80117cf0:	3100ba00 	.word	0xba0031
80117cf4:	acff3100 	.word	0x31ffac
80117cf8:	6b0064ff 	.word	0xff64006b
80117cfc:	31000000 	.word	0x31
80117d00:	00007aff 	.word	0xff7a0000
80117d04:	000079ff 	.word	0xff790000
80117d08:	efff0000 	.word	0xffef
80117d0c:	47ff3100 	.word	0x31ff47
80117d10:	000064ff 	.word	0xff640000
80117d14:	df000000 	.word	0xdf
80117d18:	8700efff 	.word	0xffef0087
80117d1c:	0000b900 	.word	0xb90000
80117d20:	31000000 	.word	0x31
80117d24:	9c00df00 	.word	0xdf009c
80117d28:	b8000000 	.word	0xb8
80117d2c:	efff48ff 	.word	0xff48ffef
80117d30:	0000efff 	.word	0xffef0000
80117d34:	30ff0000 	.word	0xff30
80117d38:	3100d000 	.word	0xd00031
80117d3c:	00003100 	.word	0x310000
80117d40:	4bff0000 	.word	0xff4b
80117d44:	df00b500 	.word	0xb500df
80117d48:	0000df00 	.word	0xdf0000
80117d4c:	de009dff 	.word	0xff9d00de
80117d50:	8c0083ff 	.word	0xff83008c
80117d54:	b5008c00 	.word	0x8c00b5
80117d58:	7d004bff 	.word	0xff4b007d
80117d5c:	8c0022ff 	.word	0xff22008c
80117d60:	63008c00 	.word	0x8c0063
80117d64:	08ff0000 	.word	0xff08
80117d68:	8c000000 	syscall	0x2
80117d6c:	2aff8c00 	.word	0x8cff2a
80117d70:	83ff4bff 	.word	0xff4bff83
80117d74:	8c008ffe 	.word	0xfe8f008c
80117d78:	5cffe800 	.word	0xe8ff5c
80117d7c:	0000d600 	.word	0xd60000
80117d80:	8c00f800 	syscall	0x3e002
80117d84:	00008c00 	.word	0x8c0000
80117d88:	de006300 	.word	0x6300de
80117d8c:	8c007d00 	syscall	0x1f402
80117d90:	b5008c00 	.word	0x8c00b5
80117d94:	5dff4a00 	.word	0x4aff5d
80117d98:	df00afff 	.word	0xffaf00df
80117d9c:	040049ff 	.word	0xff490004
80117da0:	5dffb6ff 	.word	0xffb6ff5d
80117da4:	df00afff 	.word	0xffaf00df
80117da8:	fcff49ff 	.word	0xff49fffc
80117dac:	a3004a00 	.word	0x4a00a3
80117db0:	df005100 	.word	0x5100df
80117db4:	040049ff 	.word	0xff490004
80117db8:	a300b6ff 	.word	0xffb600a3
80117dbc:	df005100 	.word	0x5100df
80117dc0:	fcff49ff 	.word	0xff49fffc
80117dc4:	8200ddff 	.word	0xffdd0082
80117dc8:	a9ff7eff 	.word	0xff7effa9
80117dcc:	ddffa9ff 	.word	0xffa9ffdd
80117dd0:	82002300 	.word	0x230082
80117dd4:	a9ff7eff 	.word	0xff7effa9
80117dd8:	2300a9ff 	.word	0xffa90023
80117ddc:	9aff0000 	.word	0xff9a
80117de0:	76ff6600 	.word	0x66ff76
80117de4:	000076ff 	.word	0xff760000
80117de8:	e5fffaff 	.word	0xfffaffe5
80117dec:	15ffe5ff 	.word	0xffe5ff15
80117df0:	060015ff 	.word	0xff150006
80117df4:	a7ff7cff 	.word	0xff7cffa7
80117df8:	df00a7ff 	.word	0xffa700df
80117dfc:	8400df00 	.word	0xdf0084
80117e00:	9aff6d00 	.word	0x6dff9a
80117e04:	efff1b00 	.word	0x1bffef
80117e08:	060015ff 	.word	0xff150006
80117e0c:	59008400 	.word	0x840059
80117e10:	df005900 	.word	0x5900df
80117e14:	7cffdf00 	.word	0xdfff7c
80117e18:	1b00faff 	.word	0xfffa001b
80117e1c:	15ff6600 	.word	0x66ff15
80117e20:	6d00efff 	.word	0xffef006d
80117e24:	60ff3900 	.word	0x39ff60
80117e28:	efffa000 	.word	0xa0ffef
80117e2c:	c7ffefff 	.word	0xffefffc7
80117e30:	60ffc7ff 	.word	0xffc7ff60
80117e34:	efff9900 	.word	0x99ffef
80117e38:	5cffe6ff 	.word	0xffe6ff5c
80117e3c:	9aff93ff 	.word	0xff93ff9a
80117e40:	efffa000 	.word	0xa0ffef
80117e44:	3900efff 	.word	0xffef0039
80117e48:	00000000 	nop
80117e4c:	1d010000 	.word	0x11d
80117e50:	b1ffa9ff 	.word	0xffa9ffb1
80117e54:	00004f00 	.word	0x4f0000
80117e58:	a9ffeaff 	.word	0xffeaffa9
80117e5c:	faff15ff 	.word	0xff15fffa
80117e60:	eafff9ff 	.word	0xfff9ffea
80117e64:	fcfe0000 	.word	0xfefc
80117e68:	faff15ff 	.word	0xff15fffa
80117e6c:	0000f9ff 	.word	0xfff90000
80117e70:	fcfe0000 	.word	0xfefc
80117e74:	060015ff 	.word	0xff150006
80117e78:	00000700 	sll	zero,a3,0x0
80117e7c:	fcfe1600 	.word	0x16fefc
80117e80:	060015ff 	.word	0xff150006
80117e84:	16000700 	.word	0x70016
80117e88:	fcfeeaff 	.word	0xffeafefc
80117e8c:	faff15ff 	.word	0xff15fffa
80117e90:	eafff9ff 	.word	0xfff9ffea
80117e94:	fcfe0000 	.word	0xfefc
80117e98:	faff15ff 	.word	0xff15fffa
80117e9c:	0000f9ff 	.word	0xfff90000
80117ea0:	fcfe0000 	.word	0xfefc
80117ea4:	060015ff 	.word	0xff150006
80117ea8:	00000700 	sll	zero,a3,0x0
80117eac:	fcfe1600 	.word	0x16fefc
80117eb0:	060015ff 	.word	0xff150006
80117eb4:	16000700 	.word	0x70016
80117eb8:	fcfe46ff 	.word	0xff46fefc
80117ebc:	54003100 	.word	0x310054
80117ec0:	95ff9c00 	.word	0x9cff95
80117ec4:	310046ff 	.word	0xff460031
80117ec8:	acff3100 	.word	0x31ffac
80117ecc:	a100e900 	.word	0xe900a1
80117ed0:	4a0095ff 	.word	0xff95004a
80117ed4:	64ff3100 	.word	0x31ff64
80117ed8:	ba005400 	.word	0x5400ba
80117edc:	3100ba00 	.word	0xba0031
80117ee0:	acff3100 	.word	0x31ffac
80117ee4:	6b0064ff 	.word	0xff64006b
80117ee8:	31000000 	.word	0x31
80117eec:	00007aff 	.word	0xff7a0000
80117ef0:	000079ff 	.word	0xff790000
80117ef4:	efff0000 	.word	0xffef
80117ef8:	47ff3100 	.word	0x31ff47
80117efc:	000064ff 	.word	0xff640000
80117f00:	df000000 	.word	0xdf
80117f04:	8700efff 	.word	0xffef0087
80117f08:	0000b900 	.word	0xb90000
80117f0c:	31000000 	.word	0x31
80117f10:	9c00df00 	.word	0xdf009c
80117f14:	b8000000 	.word	0xb8
80117f18:	efff48ff 	.word	0xff48ffef
80117f1c:	0000efff 	.word	0xffef0000
80117f20:	30ff0000 	.word	0xff30
80117f24:	3100d000 	.word	0xd00031
80117f28:	00003100 	.word	0x310000
80117f2c:	4bff0000 	.word	0xff4b
80117f30:	df00b500 	.word	0xb500df
80117f34:	0000df00 	.word	0xdf0000
80117f38:	de009dff 	.word	0xff9d00de
80117f3c:	8c0083ff 	.word	0xff83008c
80117f40:	b5008c00 	.word	0x8c00b5
80117f44:	7d004bff 	.word	0xff4b007d
80117f48:	8c0022ff 	.word	0xff22008c
80117f4c:	63008c00 	.word	0x8c0063
80117f50:	08ff0000 	.word	0xff08
80117f54:	8c000000 	syscall	0x2
80117f58:	2aff8c00 	.word	0x8cff2a
80117f5c:	83ff4bff 	.word	0xff4bff83
80117f60:	8c00b3fe 	.word	0xfeb3008c
80117f64:	6cffd200 	.word	0xd2ff6c
80117f68:	0000d600 	.word	0xd60000
80117f6c:	8c00f800 	syscall	0x3e002
80117f70:	00008c00 	.word	0x8c0000
80117f74:	de006300 	.word	0x6300de
80117f78:	8c007d00 	syscall	0x1f402
80117f7c:	b5008c00 	.word	0x8c00b5
80117f80:	5dff4a00 	.word	0x4aff5d
80117f84:	df00afff 	.word	0xffaf00df
80117f88:	040049ff 	.word	0xff490004
80117f8c:	5dffb6ff 	.word	0xffb6ff5d
80117f90:	df00afff 	.word	0xffaf00df
80117f94:	fcff49ff 	.word	0xff49fffc
80117f98:	a3004a00 	.word	0x4a00a3
80117f9c:	df005100 	.word	0x5100df
80117fa0:	040049ff 	.word	0xff490004
80117fa4:	a300b6ff 	.word	0xffb600a3
80117fa8:	df005100 	.word	0x5100df
80117fac:	fcff49ff 	.word	0xff49fffc
80117fb0:	8200ddff 	.word	0xffdd0082
80117fb4:	a9ff7eff 	.word	0xff7effa9
80117fb8:	ddffa9ff 	.word	0xffa9ffdd
80117fbc:	82002300 	.word	0x230082
80117fc0:	a9ff7eff 	.word	0xff7effa9
80117fc4:	2300a9ff 	.word	0xffa90023
80117fc8:	9aff0000 	.word	0xff9a
80117fcc:	76ff6600 	.word	0x66ff76
80117fd0:	000076ff 	.word	0xff760000
80117fd4:	e5fffaff 	.word	0xfffaffe5
80117fd8:	15ffe5ff 	.word	0xffe5ff15
80117fdc:	060015ff 	.word	0xff150006
80117fe0:	a7ff7cff 	.word	0xff7cffa7
80117fe4:	df00a7ff 	.word	0xffa700df
80117fe8:	8400df00 	.word	0xdf0084
80117fec:	9aff6d00 	.word	0x6dff9a
80117ff0:	efff1b00 	.word	0x1bffef
80117ff4:	060015ff 	.word	0xff150006
80117ff8:	59008400 	.word	0x840059
80117ffc:	df005900 	.word	0x5900df
80118000:	7cffdf00 	.word	0xdfff7c
80118004:	1b00faff 	.word	0xfffa001b
80118008:	15ff6600 	.word	0x66ff15
8011800c:	6d00efff 	.word	0xffef006d
80118010:	60ff3900 	.word	0x39ff60
80118014:	efffa000 	.word	0xa0ffef
80118018:	c7ffefff 	.word	0xffefffc7
8011801c:	60ffc7ff 	.word	0xffc7ff60
80118020:	efff8700 	.word	0x87ffef
80118024:	6fffe9ff 	.word	0xffe9ff6f
80118028:	9aff93ff 	.word	0xff93ff9a
8011802c:	efffa000 	.word	0xa0ffef
80118030:	3900efff 	.word	0xffef0039
80118034:	00000000 	nop
80118038:	1d010000 	.word	0x11d
8011803c:	b1ffa9ff 	.word	0xffa9ffb1
80118040:	00004f00 	.word	0x4f0000
80118044:	a9ffeaff 	.word	0xffeaffa9
80118048:	faff15ff 	.word	0xff15fffa
8011804c:	eafff9ff 	.word	0xfff9ffea
80118050:	fcfe0000 	.word	0xfefc
80118054:	faff15ff 	.word	0xff15fffa
80118058:	0000f9ff 	.word	0xfff90000
8011805c:	fcfe0000 	.word	0xfefc
80118060:	060015ff 	.word	0xff150006
80118064:	00000700 	sll	zero,a3,0x0
80118068:	fcfe1600 	.word	0x16fefc
8011806c:	060015ff 	.word	0xff150006
80118070:	16000700 	.word	0x70016
80118074:	fcfeeaff 	.word	0xffeafefc
80118078:	faff15ff 	.word	0xff15fffa
8011807c:	eafff9ff 	.word	0xfff9ffea
80118080:	fcfe0000 	.word	0xfefc
80118084:	faff15ff 	.word	0xff15fffa
80118088:	0000f9ff 	.word	0xfff90000
8011808c:	fcfe0000 	.word	0xfefc
80118090:	060015ff 	.word	0xff150006
80118094:	00000700 	sll	zero,a3,0x0
80118098:	fcfe1600 	.word	0x16fefc
8011809c:	060015ff 	.word	0xff150006
801180a0:	16000700 	.word	0x70016
801180a4:	fcfe46ff 	.word	0xff46fefc
801180a8:	54003100 	.word	0x310054
801180ac:	95ff9c00 	.word	0x9cff95
801180b0:	310046ff 	.word	0xff460031
801180b4:	acff3100 	.word	0x31ffac
801180b8:	8e00ce00 	.word	0xce008e
801180bc:	420095ff 	.word	0xff950042
801180c0:	64ff3100 	.word	0x31ff64
801180c4:	ba005400 	.word	0x5400ba
801180c8:	3100ba00 	.word	0xba0031
801180cc:	acff3100 	.word	0x31ffac
801180d0:	6b0064ff 	.word	0xff64006b
801180d4:	31000000 	.word	0x31
801180d8:	00007aff 	.word	0xff7a0000
801180dc:	000079ff 	.word	0xff790000
801180e0:	efff0000 	.word	0xffef
801180e4:	47ff3100 	.word	0x31ff47
801180e8:	000064ff 	.word	0xff640000
801180ec:	df000000 	.word	0xdf
801180f0:	8700efff 	.word	0xffef0087
801180f4:	0000b900 	.word	0xb90000
801180f8:	31000000 	.word	0x31
801180fc:	9c00df00 	.word	0xdf009c
80118100:	b8000000 	.word	0xb8
80118104:	efff48ff 	.word	0xff48ffef
80118108:	0000efff 	.word	0xffef0000
8011810c:	30ff0000 	.word	0xff30
80118110:	3100d000 	.word	0xd00031
80118114:	00003100 	.word	0x310000
80118118:	4bff0000 	.word	0xff4b
8011811c:	df00b500 	.word	0xb500df
80118120:	0000df00 	.word	0xdf0000
80118124:	de009dff 	.word	0xff9d00de
80118128:	8c0083ff 	.word	0xff83008c
8011812c:	b5008c00 	.word	0x8c00b5
80118130:	7d004bff 	.word	0xff4b007d
80118134:	8c0022ff 	.word	0xff22008c
80118138:	63008c00 	.word	0x8c0063
8011813c:	08ff0000 	.word	0xff08
80118140:	8c000000 	syscall	0x2
80118144:	2aff8c00 	.word	0x8cff2a
80118148:	83ff4bff 	.word	0xff4bff83
8011814c:	8c00d9fe 	.word	0xfed9008c
80118150:	7dffb900 	.word	0xb9ff7d
80118154:	0000d600 	.word	0xd60000
80118158:	8c00f800 	syscall	0x3e002
8011815c:	00008c00 	.word	0x8c0000
80118160:	de006300 	.word	0x6300de
80118164:	8c007d00 	syscall	0x1f402
80118168:	b5008c00 	.word	0x8c00b5
8011816c:	5dff4a00 	.word	0x4aff5d
80118170:	df00afff 	.word	0xffaf00df
80118174:	040049ff 	.word	0xff490004
80118178:	5dffb6ff 	.word	0xffb6ff5d
8011817c:	df00afff 	.word	0xffaf00df
80118180:	fcff49ff 	.word	0xff49fffc
80118184:	a3004a00 	.word	0x4a00a3
80118188:	df005100 	.word	0x5100df
8011818c:	040049ff 	.word	0xff490004
80118190:	a300b6ff 	.word	0xffb600a3
80118194:	df005100 	.word	0x5100df
80118198:	fcff49ff 	.word	0xff49fffc
8011819c:	8200ddff 	.word	0xffdd0082
801181a0:	a9ff7eff 	.word	0xff7effa9
801181a4:	ddffa9ff 	.word	0xffa9ffdd
801181a8:	82002300 	.word	0x230082
801181ac:	a9ff7eff 	.word	0xff7effa9
801181b0:	2300a9ff 	.word	0xffa90023
801181b4:	9aff0000 	.word	0xff9a
801181b8:	76ff6600 	.word	0x66ff76
801181bc:	000076ff 	.word	0xff760000
801181c0:	e5fffaff 	.word	0xfffaffe5
801181c4:	15ffe5ff 	.word	0xffe5ff15
801181c8:	060015ff 	.word	0xff150006
801181cc:	a7ff7cff 	.word	0xff7cffa7
801181d0:	df00a7ff 	.word	0xffa700df
801181d4:	8400df00 	.word	0xdf0084
801181d8:	9aff6d00 	.word	0x6dff9a
801181dc:	efff1b00 	.word	0x1bffef
801181e0:	060015ff 	.word	0xff150006
801181e4:	59008400 	.word	0x840059
801181e8:	df005900 	.word	0x5900df
801181ec:	7cffdf00 	.word	0xdfff7c
801181f0:	1b00faff 	.word	0xfffa001b
801181f4:	15ff6600 	.word	0x66ff15
801181f8:	6d00efff 	.word	0xffef006d
801181fc:	60ff3900 	.word	0x39ff60
80118200:	efffa000 	.word	0xa0ffef
80118204:	c7ffefff 	.word	0xffefffc7
80118208:	60ffc7ff 	.word	0xffc7ff60
8011820c:	efff7500 	.word	0x75ffef
80118210:	82ffecff 	.word	0xffecff82
80118214:	9aff93ff 	.word	0xff93ff9a
80118218:	efffa000 	.word	0xa0ffef
8011821c:	3900efff 	.word	0xffef0039
80118220:	00000000 	nop
80118224:	1d010000 	.word	0x11d
80118228:	b1ffa9ff 	.word	0xffa9ffb1
8011822c:	00004f00 	.word	0x4f0000
80118230:	a9ffeaff 	.word	0xffeaffa9
80118234:	faff15ff 	.word	0xff15fffa
80118238:	eafff9ff 	.word	0xfff9ffea
8011823c:	fcfe0000 	.word	0xfefc
80118240:	faff15ff 	.word	0xff15fffa
80118244:	0000f9ff 	.word	0xfff90000
80118248:	fcfe0000 	.word	0xfefc
8011824c:	060015ff 	.word	0xff150006
80118250:	00000700 	sll	zero,a3,0x0
80118254:	fcfe1600 	.word	0x16fefc
80118258:	060015ff 	.word	0xff150006
8011825c:	16000700 	.word	0x70016
80118260:	fcfeeaff 	.word	0xffeafefc
80118264:	faff15ff 	.word	0xff15fffa
80118268:	eafff9ff 	.word	0xfff9ffea
8011826c:	fcfe0000 	.word	0xfefc
80118270:	faff15ff 	.word	0xff15fffa
80118274:	0000f9ff 	.word	0xfff90000
80118278:	fcfe0000 	.word	0xfefc
8011827c:	060015ff 	.word	0xff150006
80118280:	00000700 	sll	zero,a3,0x0
80118284:	fcfe1600 	.word	0x16fefc
80118288:	060015ff 	.word	0xff150006
8011828c:	16000700 	.word	0x70016
80118290:	fcfe46ff 	.word	0xff46fefc
80118294:	54003100 	.word	0x310054
80118298:	95ff9c00 	.word	0x9cff95
8011829c:	310046ff 	.word	0xff460031
801182a0:	acff3100 	.word	0x31ffac
801182a4:	7c00b400 	.word	0xb4007c
801182a8:	390095ff 	.word	0xff950039
801182ac:	64ff3100 	.word	0x31ff64
801182b0:	ba005400 	.word	0x5400ba
801182b4:	3100ba00 	.word	0xba0031
801182b8:	acff3100 	.word	0x31ffac
801182bc:	6b0064ff 	.word	0xff64006b
801182c0:	31000000 	.word	0x31
801182c4:	00007aff 	.word	0xff7a0000
801182c8:	000079ff 	.word	0xff790000
801182cc:	efff0000 	.word	0xffef
801182d0:	47ff3100 	.word	0x31ff47
801182d4:	000064ff 	.word	0xff640000
801182d8:	df000000 	.word	0xdf
801182dc:	8700efff 	.word	0xffef0087
801182e0:	0000b900 	.word	0xb90000
801182e4:	31000000 	.word	0x31
801182e8:	9c00df00 	.word	0xdf009c
801182ec:	b8000000 	.word	0xb8
801182f0:	efff48ff 	.word	0xff48ffef
801182f4:	0000efff 	.word	0xffef0000
801182f8:	30ff0000 	.word	0xff30
801182fc:	3100d000 	.word	0xd00031
80118300:	00003100 	.word	0x310000
80118304:	4bff0000 	.word	0xff4b
80118308:	df00b500 	.word	0xb500df
8011830c:	0000df00 	.word	0xdf0000
80118310:	de009dff 	.word	0xff9d00de
80118314:	8c0083ff 	.word	0xff83008c
80118318:	b5008c00 	.word	0x8c00b5
8011831c:	7d004bff 	.word	0xff4b007d
80118320:	8c0022ff 	.word	0xff22008c
80118324:	63008c00 	.word	0x8c0063
80118328:	08ff0000 	.word	0xff08
8011832c:	8c000000 	syscall	0x2
80118330:	2aff8c00 	.word	0x8cff2a
80118334:	83ff4bff 	.word	0xff4bff83
80118338:	8c00fffe 	.word	0xfeff008c
8011833c:	8effa100 	.word	0xa1ff8e
80118340:	0000d600 	.word	0xd60000
80118344:	8c00f800 	syscall	0x3e002
80118348:	00008c00 	.word	0x8c0000
8011834c:	de006300 	.word	0x6300de
80118350:	8c007d00 	syscall	0x1f402
80118354:	b5008c00 	.word	0x8c00b5
80118358:	5dff4a00 	.word	0x4aff5d
8011835c:	df00afff 	.word	0xffaf00df
80118360:	040049ff 	.word	0xff490004
80118364:	5dffb6ff 	.word	0xffb6ff5d
80118368:	df00afff 	.word	0xffaf00df
8011836c:	fcff49ff 	.word	0xff49fffc
80118370:	a3004a00 	.word	0x4a00a3
80118374:	df005100 	.word	0x5100df
80118378:	040049ff 	.word	0xff490004
8011837c:	a300b6ff 	.word	0xffb600a3
80118380:	df005100 	.word	0x5100df
80118384:	fcff49ff 	.word	0xff49fffc
80118388:	8200ddff 	.word	0xffdd0082
8011838c:	a9ff7eff 	.word	0xff7effa9
80118390:	ddffa9ff 	.word	0xffa9ffdd
80118394:	82002300 	.word	0x230082
80118398:	a9ff7eff 	.word	0xff7effa9
8011839c:	2300a9ff 	.word	0xffa90023
801183a0:	9aff0000 	.word	0xff9a
801183a4:	76ff6600 	.word	0x66ff76
801183a8:	000076ff 	.word	0xff760000
801183ac:	e5fffaff 	.word	0xfffaffe5
801183b0:	15ffe5ff 	.word	0xffe5ff15
801183b4:	060015ff 	.word	0xff150006
801183b8:	a7ff7cff 	.word	0xff7cffa7
801183bc:	df00a7ff 	.word	0xffa700df
801183c0:	8400df00 	.word	0xdf0084
801183c4:	9aff6d00 	.word	0x6dff9a
801183c8:	efff1b00 	.word	0x1bffef
801183cc:	060015ff 	.word	0xff150006
801183d0:	59008400 	.word	0x840059
801183d4:	df005900 	.word	0x5900df
801183d8:	7cffdf00 	.word	0xdfff7c
801183dc:	1b00faff 	.word	0xfffa001b
801183e0:	15ff6600 	.word	0x66ff15
801183e4:	6d00efff 	.word	0xffef006d
801183e8:	60ff3900 	.word	0x39ff60
801183ec:	efffa000 	.word	0xa0ffef
801183f0:	c7ffefff 	.word	0xffefffc7
801183f4:	60ffc7ff 	.word	0xffc7ff60
801183f8:	efff6600 	.word	0x66ffef
801183fc:	93ffefff 	.word	0xffefff93
80118400:	9aff93ff 	.word	0xff93ff9a
80118404:	efffa000 	.word	0xa0ffef
80118408:	3900efff 	.word	0xffef0039
8011840c:	00000000 	nop
80118410:	1d010000 	.word	0x11d
80118414:	b1ffa9ff 	.word	0xffa9ffb1
80118418:	00004f00 	.word	0x4f0000
8011841c:	a9ffeaff 	.word	0xffeaffa9
80118420:	faff15ff 	.word	0xff15fffa
80118424:	eafff9ff 	.word	0xfff9ffea
80118428:	fcfe0000 	.word	0xfefc
8011842c:	faff15ff 	.word	0xff15fffa
80118430:	0000f9ff 	.word	0xfff90000
80118434:	fcfe0000 	.word	0xfefc
80118438:	060015ff 	.word	0xff150006
8011843c:	00000700 	sll	zero,a3,0x0
80118440:	fcfe1600 	.word	0x16fefc
80118444:	060015ff 	.word	0xff150006
80118448:	16000700 	.word	0x70016
8011844c:	fcfeeaff 	.word	0xffeafefc
80118450:	faff15ff 	.word	0xff15fffa
80118454:	eafff9ff 	.word	0xfff9ffea
80118458:	fcfe0000 	.word	0xfefc
8011845c:	faff15ff 	.word	0xff15fffa
80118460:	0000f9ff 	.word	0xfff90000
80118464:	fcfe0000 	.word	0xfefc
80118468:	060015ff 	.word	0xff150006
8011846c:	00000700 	sll	zero,a3,0x0
80118470:	fcfe1600 	.word	0x16fefc
80118474:	060015ff 	.word	0xff150006
80118478:	16000700 	.word	0x70016
8011847c:	fcfe46ff 	.word	0xff46fefc
80118480:	54003100 	.word	0x310054
80118484:	95ff9c00 	.word	0x9cff95
80118488:	310046ff 	.word	0xff460031
8011848c:	acff3100 	.word	0x31ffac
80118490:	6b009c00 	.word	0x9c006b
80118494:	310095ff 	.word	0xff950031
80118498:	64ff3100 	.word	0x31ff64
8011849c:	ba005400 	.word	0x5400ba
801184a0:	3100ba00 	.word	0xba0031
801184a4:	acff3100 	.word	0x31ffac
801184a8:	6b0064ff 	.word	0xff64006b
801184ac:	31000000 	.word	0x31
801184b0:	00007aff 	.word	0xff7a0000
801184b4:	000079ff 	.word	0xff790000
801184b8:	efff0000 	.word	0xffef
801184bc:	47ff3100 	.word	0x31ff47
801184c0:	000064ff 	.word	0xff640000
801184c4:	df000000 	.word	0xdf
801184c8:	8700efff 	.word	0xffef0087
801184cc:	0000b900 	.word	0xb90000
801184d0:	31000000 	.word	0x31
801184d4:	9c00df00 	.word	0xdf009c
801184d8:	b8000000 	.word	0xb8
801184dc:	efff48ff 	.word	0xff48ffef
801184e0:	0000efff 	.word	0xffef0000
801184e4:	30ff0000 	.word	0xff30
801184e8:	3100d000 	.word	0xd00031
801184ec:	00003100 	.word	0x310000
801184f0:	4bff0000 	.word	0xff4b
801184f4:	df00b500 	.word	0xb500df
801184f8:	0000df00 	.word	0xdf0000
801184fc:	de009dff 	.word	0xff9d00de
80118500:	8c0083ff 	.word	0xff83008c
80118504:	b5008c00 	.word	0x8c00b5
80118508:	7d004bff 	.word	0xff4b007d
8011850c:	8c0022ff 	.word	0xff22008c
80118510:	63008c00 	.word	0x8c0063
80118514:	08ff0000 	.word	0xff08
80118518:	8c000000 	syscall	0x2
8011851c:	2aff8c00 	.word	0x8cff2a
80118520:	83ff4bff 	.word	0xff4bff83
80118524:	8c0022ff 	.word	0xff22008c
80118528:	9dff8c00 	.word	0x8cff9d
8011852c:	0000d600 	.word	0xd60000
80118530:	8c00f800 	syscall	0x3e002
80118534:	00008c00 	.word	0x8c0000
80118538:	de006300 	.word	0x6300de
8011853c:	8c007d00 	syscall	0x1f402
80118540:	b5008c00 	.word	0x8c00b5
80118544:	5dff4a00 	.word	0x4aff5d
80118548:	e100afff 	.word	0xffaf00e1
8011854c:	040048ff 	.word	0xff480004
80118550:	5dffb6ff 	.word	0xffb6ff5d
80118554:	e100afff 	.word	0xffaf00e1
80118558:	fcff48ff 	.word	0xff48fffc
8011855c:	a3004a00 	.word	0x4a00a3
80118560:	e1005100 	.word	0x5100e1
80118564:	040048ff 	.word	0xff480004
80118568:	a300b6ff 	.word	0xffb600a3
8011856c:	e1005100 	.word	0x5100e1
80118570:	fcff48ff 	.word	0xff48fffc
80118574:	8200ddff 	.word	0xffdd0082
80118578:	a9ff7eff 	.word	0xff7effa9
8011857c:	ddffa9ff 	.word	0xffa9ffdd
80118580:	82002300 	.word	0x230082
80118584:	a9ff7eff 	.word	0xff7effa9
80118588:	2300a9ff 	.word	0xffa90023
8011858c:	9aff0000 	.word	0xff9a
80118590:	75ff6600 	.word	0x66ff75
80118594:	000075ff 	.word	0xff750000
80118598:	e5fffaff 	.word	0xfffaffe5
8011859c:	14ffe5ff 	.word	0xffe5ff14
801185a0:	060014ff 	.word	0xff140006
801185a4:	a6ff7bff 	.word	0xff7bffa6
801185a8:	e100a6ff 	.word	0xffa600e1
801185ac:	8500e100 	.word	0xe10085
801185b0:	9bff6d00 	.word	0x6dff9b
801185b4:	efff1b00 	.word	0x1bffef
801185b8:	060014ff 	.word	0xff140006
801185bc:	5a008500 	.word	0x85005a
801185c0:	e1005a00 	.word	0x5a00e1
801185c4:	7bffe100 	.word	0xe1ff7b
801185c8:	1b00faff 	.word	0xfffa001b
801185cc:	14ff6500 	.word	0x65ff14
801185d0:	6d00efff 	.word	0xffef006d
801185d4:	60ff3900 	.word	0x39ff60
801185d8:	efffa000 	.word	0xa0ffef
801185dc:	c7ffefff 	.word	0xffefffc7
801185e0:	60ffc7ff 	.word	0xffc7ff60
801185e4:	efff6500 	.word	0x65ffef
801185e8:	93ffefff 	.word	0xffefff93
801185ec:	9bff93ff 	.word	0xff93ff9b
801185f0:	efffa000 	.word	0xa0ffef
801185f4:	3900efff 	.word	0xffef0039
801185f8:	00000000 	nop
801185fc:	1f010000 	.word	0x11f
80118600:	b1ffa9ff 	.word	0xffa9ffb1
80118604:	00004f00 	.word	0x4f0000
80118608:	a9ffeaff 	.word	0xffeaffa9
8011860c:	faff14ff 	.word	0xff14fffa
80118610:	eafff9ff 	.word	0xfff9ffea
80118614:	fafe0000 	.word	0xfefa
80118618:	faff14ff 	.word	0xff14fffa
8011861c:	0000f9ff 	.word	0xfff90000
80118620:	fafe0000 	.word	0xfefa
80118624:	060014ff 	.word	0xff140006
80118628:	00000700 	sll	zero,a3,0x0
8011862c:	fafe1600 	.word	0x16fefa
80118630:	060014ff 	.word	0xff140006
80118634:	16000700 	.word	0x70016
80118638:	fafeeaff 	.word	0xffeafefa
8011863c:	faff14ff 	.word	0xff14fffa
80118640:	eafff9ff 	.word	0xfff9ffea
80118644:	fafe0000 	.word	0xfefa
80118648:	faff14ff 	.word	0xff14fffa
8011864c:	0000f9ff 	.word	0xfff90000
80118650:	fafe0000 	.word	0xfefa
80118654:	060014ff 	.word	0xff140006
80118658:	00000700 	sll	zero,a3,0x0
8011865c:	fafe1600 	.word	0x16fefa
80118660:	060014ff 	.word	0xff140006
80118664:	16000700 	.word	0x70016
80118668:	fafe46ff 	.word	0xff46fefa
8011866c:	54003200 	.word	0x320054
80118670:	95ff9b00 	.word	0x9bff95
80118674:	320046ff 	.word	0xff460032
80118678:	acff3200 	.word	0x32ffac
8011867c:	6b009b00 	.word	0x9b006b
80118680:	320095ff 	.word	0xff950032
80118684:	65ff3200 	.word	0x32ff65
80118688:	ba005400 	.word	0x5400ba
8011868c:	3200ba00 	.word	0xba0032
80118690:	acff3200 	.word	0x32ffac
80118694:	6b0065ff 	.word	0xff65006b
80118698:	32000000 	.word	0x32
8011869c:	000079ff 	.word	0xff790000
801186a0:	000079ff 	.word	0xff790000
801186a4:	effff2ff 	.word	0xfff2ffef
801186a8:	28ff3900 	.word	0x39ff28
801186ac:	000064ff 	.word	0xff640000
801186b0:	e1000000 	.word	0xe1
801186b4:	8700efff 	.word	0xffef0087
801186b8:	0000b900 	.word	0xb90000
801186bc:	32000000 	.word	0x32
801186c0:	9c00e100 	.word	0xe1009c
801186c4:	b7000000 	.word	0xb7
801186c8:	efff49ff 	.word	0xff49ffef
801186cc:	0000efff 	.word	0xffef0000
801186d0:	30ff0000 	.word	0xff30
801186d4:	3200d000 	.word	0xd00032
801186d8:	00003200 	.word	0x320000
801186dc:	4bff0000 	.word	0xff4b
801186e0:	e100b500 	.word	0xb500e1
801186e4:	0000e100 	.word	0xe10000
801186e8:	df009dff 	.word	0xff9d00df
801186ec:	8d0074ff 	.word	0xff74008d
801186f0:	ca009d00 	.word	0x9d00ca
801186f4:	7e004bff 	.word	0xff4b007e
801186f8:	8d0021ff 	.word	0xff21008d
801186fc:	63008d00 	.word	0x8d0063
80118700:	07ff0000 	.word	0xff07
80118704:	8d000000 	break	0x0,0x2
80118708:	2aff8d00 	.word	0x8dff2a
8011870c:	82ff4bff 	.word	0xff4bff82
80118710:	8d0021ff 	.word	0xff21008d
80118714:	9dff8d00 	.word	0x8dff9d
80118718:	0000d600 	.word	0xd60000
8011871c:	8d001501 	break	0x115,0x2
80118720:	09009f00 	.word	0x9f0009
80118724:	df006300 	.word	0x6300df
80118728:	8d007e00 	break	0x7e,0x2
8011872c:	b5008d00 	.word	0x8d00b5
80118730:	5cff4a00 	.word	0x4aff5c
80118734:	e300b0ff 	.word	0xffb000e3
80118738:	040046ff 	.word	0xff460004
8011873c:	5cffb6ff 	.word	0xffb6ff5c
80118740:	e300b0ff 	.word	0xffb000e3
80118744:	fcff46ff 	.word	0xff46fffc
80118748:	a4004a00 	.word	0x4a00a4
8011874c:	e3005000 	.word	0x5000e3
80118750:	040046ff 	.word	0xff460004
80118754:	a400b6ff 	.word	0xffb600a4
80118758:	e3005000 	.word	0x5000e3
8011875c:	fcff46ff 	.word	0xff46fffc
80118760:	8100ddff 	.word	0xffdd0081
80118764:	a8ff7fff 	.word	0xff7fffa8
80118768:	ddffa8ff 	.word	0xffa8ffdd
8011876c:	81002300 	.word	0x230081
80118770:	a8ff7fff 	.word	0xff7fffa8
80118774:	2300a8ff 	.word	0xffa80023
80118778:	9aff0000 	.word	0xff9a
8011877c:	74ff6600 	.word	0x66ff74
80118780:	000074ff 	.word	0xff740000
80118784:	e5fffaff 	.word	0xfffaffe5
80118788:	12ffe5ff 	.word	0xffe5ff12
8011878c:	060012ff 	.word	0xff120006
80118790:	a6ff7bff 	.word	0xff7bffa6
80118794:	e300a6ff 	.word	0xffa600e3
80118798:	8500e300 	.word	0xe30085
8011879c:	9bff6c00 	.word	0x6cff9b
801187a0:	efff1b00 	.word	0x1bffef
801187a4:	060012ff 	.word	0xff120006
801187a8:	5a008500 	.word	0x85005a
801187ac:	e3005a00 	.word	0x5a00e3
801187b0:	7bffe300 	.word	0xe3ff7b
801187b4:	1b00faff 	.word	0xfffa001b
801187b8:	12ff6500 	.word	0x65ff12
801187bc:	6c00efff 	.word	0xffef006c
801187c0:	61ff3900 	.word	0x39ff61
801187c4:	efff9f00 	.word	0x9fffef
801187c8:	c7ffefff 	.word	0xffefffc7
801187cc:	61ffc7ff 	.word	0xffc7ff61
801187d0:	efff6500 	.word	0x65ffef
801187d4:	94ffefff 	.word	0xffefff94
801187d8:	9bff94ff 	.word	0xff94ff9b
801187dc:	efff9f00 	.word	0x9fffef
801187e0:	3900efff 	.word	0xffef0039
801187e4:	00000000 	nop
801187e8:	21010000 	.word	0x121
801187ec:	b1ffa8ff 	.word	0xffa8ffb1
801187f0:	00004f00 	.word	0x4f0000
801187f4:	a8ffeaff 	.word	0xffeaffa8
801187f8:	faff12ff 	.word	0xff12fffa
801187fc:	eafff9ff 	.word	0xfff9ffea
80118800:	f8fe0000 	.word	0xfef8
80118804:	faff12ff 	.word	0xff12fffa
80118808:	0000f9ff 	.word	0xfff90000
8011880c:	f8fe0000 	.word	0xfef8
80118810:	060012ff 	.word	0xff120006
80118814:	00000700 	sll	zero,a3,0x0
80118818:	f8fe1600 	.word	0x16fef8
8011881c:	060012ff 	.word	0xff120006
80118820:	16000700 	.word	0x70016
80118824:	f8feeaff 	.word	0xffeafef8
80118828:	faff12ff 	.word	0xff12fffa
8011882c:	eafff9ff 	.word	0xfff9ffea
80118830:	f8fe0000 	.word	0xfef8
80118834:	faff12ff 	.word	0xff12fffa
80118838:	0000f9ff 	.word	0xfff90000
8011883c:	f8fe0000 	.word	0xfef8
80118840:	060012ff 	.word	0xff120006
80118844:	00000700 	sll	zero,a3,0x0
80118848:	f8fe1600 	.word	0x16fef8
8011884c:	060012ff 	.word	0xff120006
80118850:	16000700 	.word	0x70016
80118854:	f8fe46ff 	.word	0xff46fef8
80118858:	53003300 	.word	0x330053
8011885c:	95ff9b00 	.word	0x9bff95
80118860:	330046ff 	.word	0xff460033
80118864:	adff3300 	.word	0x33ffad
80118868:	6b009b00 	.word	0x9b006b
8011886c:	330095ff 	.word	0xff950033
80118870:	65ff3300 	.word	0x33ff65
80118874:	ba005300 	.word	0x5300ba
80118878:	3300ba00 	.word	0xba0033
8011887c:	adff3300 	.word	0x33ffad
80118880:	6b0065ff 	.word	0xff65006b
80118884:	33000000 	.word	0x33
80118888:	000078ff 	.word	0xff780000
8011888c:	00007aff 	.word	0xff7a0000
80118890:	efffe2ff 	.word	0xffe2ffef
80118894:	04ff4300 	.word	0x43ff04
80118898:	000063ff 	.word	0xff630000
8011889c:	e3000000 	.word	0xe3
801188a0:	8600efff 	.word	0xffef0086
801188a4:	0000b900 	.word	0xb90000
801188a8:	33000000 	.word	0x33
801188ac:	9d00e300 	.word	0xe3009d
801188b0:	b7000000 	.word	0xb7
801188b4:	efff49ff 	.word	0xff49ffef
801188b8:	0000efff 	.word	0xffef0000
801188bc:	30ff0000 	.word	0xff30
801188c0:	3300d000 	.word	0xd00033
801188c4:	00003300 	.word	0x330000
801188c8:	4aff0000 	.word	0xff4a
801188cc:	e300b600 	.word	0xb600e3
801188d0:	0000e300 	.word	0xe30000
801188d4:	e0009cff 	.word	0xff9c00e0
801188d8:	8e0063ff 	.word	0xff63008e
801188dc:	e300b200 	.word	0xb200e3
801188e0:	7e004aff 	.word	0xff4a007e
801188e4:	8e0020ff 	.word	0xff20008e
801188e8:	64008e00 	.word	0x8e0064
801188ec:	06ff0000 	.word	0xff06
801188f0:	8e000000 	.word	0x8e
801188f4:	29ff8e00 	.word	0x8eff29
801188f8:	82ff4aff 	.word	0xff4aff82
801188fc:	8e0020ff 	.word	0xff20008e
80118900:	9cff8e00 	.word	0x8eff9c
80118904:	0000d700 	.word	0xd70000
80118908:	8e003801 	.word	0x138008e
8011890c:	1400b500 	.word	0xb50014
80118910:	e0006400 	.word	0x6400e0
80118914:	8e007e00 	.word	0x7e008e
80118918:	b6008e00 	.word	0x8e00b6
8011891c:	5cff4b00 	.word	0x4bff5c
80118920:	e500b0ff 	.word	0xffb000e5
80118924:	040045ff 	.word	0xff450004
80118928:	5cffb5ff 	.word	0xffb5ff5c
8011892c:	e500b0ff 	.word	0xffb000e5
80118930:	fcff45ff 	.word	0xff45fffc
80118934:	a4004b00 	.word	0x4b00a4
80118938:	e5005000 	.word	0x5000e5
8011893c:	040045ff 	.word	0xff450004
80118940:	a400b5ff 	.word	0xffb500a4
80118944:	e5005000 	.word	0x5000e5
80118948:	fcff45ff 	.word	0xff45fffc
8011894c:	8100ddff 	.word	0xffdd0081
80118950:	a8ff7fff 	.word	0xff7fffa8
80118954:	ddffa8ff 	.word	0xffa8ffdd
80118958:	81002300 	.word	0x230081
8011895c:	a8ff7fff 	.word	0xff7fffa8
80118960:	2300a8ff 	.word	0xffa80023
80118964:	9bff0000 	.word	0xff9b
80118968:	72ff6500 	.word	0x65ff72
8011896c:	000072ff 	.word	0xff720000
80118970:	e5fffaff 	.word	0xfffaffe5
80118974:	10ffe5ff 	.word	0xffe5ff10
80118978:	060010ff 	.word	0xff100006
8011897c:	a6ff7aff 	.word	0xff7affa6
80118980:	e500a6ff 	.word	0xffa600e5
80118984:	8600e500 	.word	0xe50086
80118988:	9cff6c00 	.word	0x6cff9c
8011898c:	efff1b00 	.word	0x1bffef
80118990:	060010ff 	.word	0xff100006
80118994:	5a008600 	.word	0x86005a
80118998:	e5005a00 	.word	0x5a00e5
8011899c:	7affe500 	.word	0xe5ff7a
801189a0:	1b00faff 	.word	0xfffa001b
801189a4:	10ff6400 	.word	0x64ff10
801189a8:	6c00efff 	.word	0xffef006c
801189ac:	62ff3900 	.word	0x39ff62
801189b0:	efff9e00 	.word	0x9effef
801189b4:	c7ffefff 	.word	0xffefffc7
801189b8:	62ffc7ff 	.word	0xffc7ff62
801189bc:	efff6400 	.word	0x64ffef
801189c0:	94ffefff 	.word	0xffefff94
801189c4:	9cff94ff 	.word	0xff94ff9c
801189c8:	efff9e00 	.word	0x9effef
801189cc:	3900efff 	.word	0xffef0039
801189d0:	00000000 	nop
801189d4:	24010000 	.word	0x124
801189d8:	b2ffa8ff 	.word	0xffa8ffb2
801189dc:	00004e00 	.word	0x4e0000
801189e0:	a8ffeaff 	.word	0xffeaffa8
801189e4:	faff10ff 	.word	0xff10fffa
801189e8:	eafff9ff 	.word	0xfff9ffea
801189ec:	f6fe0000 	.word	0xfef6
801189f0:	faff10ff 	.word	0xff10fffa
801189f4:	0000f9ff 	.word	0xfff90000
801189f8:	f6fe0000 	.word	0xfef6
801189fc:	060010ff 	.word	0xff100006
80118a00:	00000700 	sll	zero,a3,0x0
80118a04:	f6fe1600 	.word	0x16fef6
80118a08:	060010ff 	.word	0xff100006
80118a0c:	16000700 	.word	0x70016
80118a10:	f6feeaff 	.word	0xffeafef6
80118a14:	faff10ff 	.word	0xff10fffa
80118a18:	eafff9ff 	.word	0xfff9ffea
80118a1c:	f6fe0000 	.word	0xfef6
80118a20:	faff10ff 	.word	0xff10fffa
80118a24:	0000f9ff 	.word	0xfff90000
80118a28:	f6fe0000 	.word	0xfef6
80118a2c:	060010ff 	.word	0xff100006
80118a30:	00000700 	sll	zero,a3,0x0
80118a34:	f6fe1600 	.word	0x16fef6
80118a38:	060010ff 	.word	0xff100006
80118a3c:	16000700 	.word	0x70016
80118a40:	f6fe47ff 	.word	0xff47fef6
80118a44:	53003400 	.word	0x340053
80118a48:	95ff9b00 	.word	0x9bff95
80118a4c:	340047ff 	.word	0xff470034
80118a50:	adff3400 	.word	0x34ffad
80118a54:	6b009b00 	.word	0x9b006b
80118a58:	340095ff 	.word	0xff950034
80118a5c:	65ff3400 	.word	0x34ff65
80118a60:	b9005300 	.word	0x5300b9
80118a64:	3400b900 	.word	0xb90034
80118a68:	adff3400 	.word	0x34ffad
80118a6c:	6b0065ff 	.word	0xff65006b
80118a70:	34000000 	.word	0x34
80118a74:	000077ff 	.word	0xff770000
80118a78:	00007bff 	.word	0xff7b0000
80118a7c:	efffd1ff 	.word	0xffd1ffef
80118a80:	dffe4d00 	.word	0x4dfedf
80118a84:	000063ff 	.word	0xff630000
80118a88:	e5000000 	.word	0xe5
80118a8c:	8500efff 	.word	0xffef0085
80118a90:	0000b800 	.word	0xb80000
80118a94:	34000000 	.word	0x34
80118a98:	9d00e500 	.word	0xe5009d
80118a9c:	b6000000 	.word	0xb6
80118aa0:	efff4aff 	.word	0xff4affef
80118aa4:	0000efff 	.word	0xffef0000
80118aa8:	31ff0000 	.word	0xff31
80118aac:	3400cf00 	.word	0xcf0034
80118ab0:	00003400 	.word	0x340000
80118ab4:	49ff0000 	.word	0xff49
80118ab8:	e500b700 	.word	0xb700e5
80118abc:	0000e500 	.word	0xe50000
80118ac0:	e1009cff 	.word	0xff9c00e1
80118ac4:	900051ff 	.word	0xff510090
80118ac8:	fd00c800 	.word	0xc800fd
80118acc:	7f0049ff 	.word	0xff49007f
80118ad0:	90001fff 	.word	0xff1f0090
80118ad4:	64009000 	.word	0x900064
80118ad8:	05ff0000 	.word	0xff05
80118adc:	90000000 	.word	0x90
80118ae0:	28ff9000 	.word	0x90ff28
80118ae4:	81ff49ff 	.word	0xff49ff81
80118ae8:	90001fff 	.word	0xff1f0090
80118aec:	9cff9000 	.word	0x90ff9c
80118af0:	0000d800 	.word	0xd80000
80118af4:	90005b01 	.word	0x15b0090
80118af8:	2000cc00 	add	zero,a2,t4
80118afc:	e1006400 	.word	0x6400e1
80118b00:	90007f00 	.word	0x7f0090
80118b04:	b7009000 	.word	0x9000b7
80118b08:	5bff4b00 	.word	0x4bff5b
80118b0c:	e700b0ff 	.word	0xffb000e7
80118b10:	040043ff 	.word	0xff430004
80118b14:	5bffb5ff 	.word	0xffb5ff5b
80118b18:	e700b0ff 	.word	0xffb000e7
80118b1c:	fcff43ff 	.word	0xff43fffc
80118b20:	a5004b00 	.word	0x4b00a5
80118b24:	e7005000 	.word	0x5000e7
80118b28:	040043ff 	.word	0xff430004
80118b2c:	a500b5ff 	.word	0xffb500a5
80118b30:	e7005000 	.word	0x5000e7
80118b34:	fcff43ff 	.word	0xff43fffc
80118b38:	8000ddff 	.word	0xffdd0080
80118b3c:	a8ff80ff 	.word	0xff80ffa8
80118b40:	ddffa8ff 	.word	0xffa8ffdd
80118b44:	80002300 	.word	0x230080
80118b48:	a8ff80ff 	.word	0xff80ffa8
80118b4c:	2300a8ff 	.word	0xffa80023
80118b50:	9bff0000 	.word	0xff9b
80118b54:	72ff6500 	.word	0x65ff72
80118b58:	000072ff 	.word	0xff720000
80118b5c:	e5fffaff 	.word	0xfffaffe5
80118b60:	0fffe5ff 	.word	0xffe5ff0f
80118b64:	06000fff 	.word	0xff0f0006
80118b68:	a5ff7aff 	.word	0xff7affa5
80118b6c:	e700a5ff 	.word	0xffa500e7
80118b70:	8600e700 	.word	0xe70086
80118b74:	9cff6b00 	.word	0x6bff9c
80118b78:	efff1b00 	.word	0x1bffef
80118b7c:	06000fff 	.word	0xff0f0006
80118b80:	5b008600 	.word	0x86005b
80118b84:	e7005b00 	.word	0x5b00e7
80118b88:	7affe700 	.word	0xe7ff7a
80118b8c:	1b00faff 	.word	0xfffa001b
80118b90:	0fff6400 	.word	0x64ff0f
80118b94:	6b00efff 	.word	0xffef006b
80118b98:	62ff3800 	.word	0x38ff62
80118b9c:	efff9e00 	.word	0x9effef
80118ba0:	c8ffefff 	.word	0xffefffc8
80118ba4:	62ffc8ff 	.word	0xffc8ff62
80118ba8:	efff6400 	.word	0x64ffef
80118bac:	95ffefff 	.word	0xffefff95
80118bb0:	9cff95ff 	.word	0xff95ff9c
80118bb4:	efff9e00 	.word	0x9effef
80118bb8:	3800efff 	.word	0xffef0038
80118bbc:	00000000 	nop
80118bc0:	26010000 	.word	0x126
80118bc4:	b2ffa8ff 	.word	0xffa8ffb2
80118bc8:	00004e00 	.word	0x4e0000
80118bcc:	a8ffeaff 	.word	0xffeaffa8
80118bd0:	faff0fff 	.word	0xff0ffffa
80118bd4:	eafff9ff 	.word	0xfff9ffea
80118bd8:	f4fe0000 	.word	0xfef4
80118bdc:	faff0fff 	.word	0xff0ffffa
80118be0:	0000f9ff 	.word	0xfff90000
80118be4:	f4fe0000 	.word	0xfef4
80118be8:	06000fff 	.word	0xff0f0006
80118bec:	00000700 	sll	zero,a3,0x0
80118bf0:	f4fe1600 	.word	0x16fef4
80118bf4:	06000fff 	.word	0xff0f0006
80118bf8:	16000700 	.word	0x70016
80118bfc:	f4feeaff 	.word	0xffeafef4
80118c00:	faff0fff 	.word	0xff0ffffa
80118c04:	eafff9ff 	.word	0xfff9ffea
80118c08:	f4fe0000 	.word	0xfef4
80118c0c:	faff0fff 	.word	0xff0ffffa
80118c10:	0000f9ff 	.word	0xfff90000
80118c14:	f4fe0000 	.word	0xfef4
80118c18:	06000fff 	.word	0xff0f0006
80118c1c:	00000700 	sll	zero,a3,0x0
80118c20:	f4fe1600 	.word	0x16fef4
80118c24:	06000fff 	.word	0xff0f0006
80118c28:	16000700 	.word	0x70016
80118c2c:	f4fe47ff 	.word	0xff47fef4
80118c30:	53003400 	.word	0x340053
80118c34:	95ff9b00 	.word	0x9bff95
80118c38:	340047ff 	.word	0xff470034
80118c3c:	adff3400 	.word	0x34ffad
80118c40:	6b009b00 	.word	0x9b006b
80118c44:	340095ff 	.word	0xff950034
80118c48:	65ff3400 	.word	0x34ff65
80118c4c:	b9005300 	.word	0x5300b9
80118c50:	3400b900 	.word	0xb90034
80118c54:	adff3400 	.word	0x34ffad
80118c58:	6b0065ff 	.word	0xff65006b
80118c5c:	34000000 	.word	0x34
80118c60:	000076ff 	.word	0xff760000
80118c64:	00007bff 	.word	0xff7b0000
80118c68:	efffc1ff 	.word	0xffc1ffef
80118c6c:	befe5500 	.word	0x55febe
80118c70:	000062ff 	.word	0xff620000
80118c74:	e7000000 	.word	0xe7
80118c78:	8500efff 	.word	0xffef0085
80118c7c:	0000b800 	.word	0xb80000
80118c80:	34000000 	.word	0x34
80118c84:	9e00e700 	.word	0xe7009e
80118c88:	b5000000 	.word	0xb5
80118c8c:	efff4bff 	.word	0xff4bffef
80118c90:	0000efff 	.word	0xffef0000
80118c94:	31ff0000 	.word	0xff31
80118c98:	3400cf00 	.word	0xcf0034
80118c9c:	00003400 	.word	0x340000
80118ca0:	49ff0000 	.word	0xff49
80118ca4:	e700b700 	.word	0xb700e7
80118ca8:	0000e700 	.word	0xe70000
80118cac:	e2009cff 	.word	0xff9c00e2
80118cb0:	910041ff 	.word	0xff410091
80118cb4:	1401da00 	.word	0xda0114
80118cb8:	7f0049ff 	.word	0xff49007f
80118cbc:	91001eff 	.word	0xff1e0091
80118cc0:	64009100 	.word	0x910064
80118cc4:	05ff0000 	.word	0xff05
80118cc8:	91000000 	.word	0x91
80118ccc:	27ff9100 	.word	0x91ff27
80118cd0:	81ff49ff 	.word	0xff49ff81
80118cd4:	91001eff 	.word	0xff1e0091
80118cd8:	9cff9100 	.word	0x91ff9c
80118cdc:	0000d900 	.word	0xd90000
80118ce0:	91007b01 	.word	0x17b0091
80118ce4:	2a00e000 	slt	zero,a3,zero
80118ce8:	e2006400 	.word	0x6400e2
80118cec:	91007f00 	.word	0x7f0091
80118cf0:	b7009100 	.word	0x9100b7
80118cf4:	5bff4b00 	.word	0x4bff5b
80118cf8:	e800b0ff 	.word	0xffb000e8
80118cfc:	040042ff 	.word	0xff420004
80118d00:	5bffb5ff 	.word	0xffb5ff5b
80118d04:	e800b0ff 	.word	0xffb000e8
80118d08:	fcff42ff 	.word	0xff42fffc
80118d0c:	a5004b00 	.word	0x4b00a5
80118d10:	e8005000 	.word	0x5000e8
80118d14:	040042ff 	.word	0xff420004
80118d18:	a500b5ff 	.word	0xffb500a5
80118d1c:	e8005000 	.word	0x5000e8
80118d20:	fcff42ff 	.word	0xff42fffc
80118d24:	8000ddff 	.word	0xffdd0080
80118d28:	a7ff80ff 	.word	0xff80ffa7
80118d2c:	ddffa7ff 	.word	0xffa7ffdd
80118d30:	80002300 	.word	0x230080
80118d34:	a7ff80ff 	.word	0xff80ffa7
80118d38:	2300a7ff 	.word	0xffa70023
80118d3c:	9bff0000 	.word	0xff9b
80118d40:	71ff6500 	.word	0x65ff71
80118d44:	000071ff 	.word	0xff710000
80118d48:	e5fffaff 	.word	0xfffaffe5
80118d4c:	0dffe5ff 	.word	0xffe5ff0d
80118d50:	06000dff 	.word	0xff0d0006
80118d54:	a5ff79ff 	.word	0xff79ffa5
80118d58:	e800a5ff 	.word	0xffa500e8
80118d5c:	8700e800 	.word	0xe80087
80118d60:	9cff6b00 	.word	0x6bff9c
80118d64:	efff1b00 	.word	0x1bffef
80118d68:	06000dff 	.word	0xff0d0006
80118d6c:	5b008700 	.word	0x87005b
80118d70:	e8005b00 	.word	0x5b00e8
80118d74:	79ffe800 	.word	0xe8ff79
80118d78:	1b00faff 	.word	0xfffa001b
80118d7c:	0dff6400 	break	0x64,0x3fc
80118d80:	6b00efff 	.word	0xffef006b
80118d84:	63ff3800 	.word	0x38ff63
80118d88:	efff9d00 	.word	0x9dffef
80118d8c:	c8ffefff 	.word	0xffefffc8
80118d90:	63ffc8ff 	.word	0xffc8ff63
80118d94:	efff6400 	.word	0x64ffef
80118d98:	95ffefff 	.word	0xffefff95
80118d9c:	9cff95ff 	.word	0xff95ff9c
80118da0:	efff9d00 	.word	0x9dffef
80118da4:	3800efff 	.word	0xffef0038
80118da8:	00000000 	nop
80118dac:	27010000 	.word	0x127
80118db0:	b2ffa7ff 	.word	0xffa7ffb2
80118db4:	00004e00 	.word	0x4e0000
80118db8:	a7ffeaff 	.word	0xffeaffa7
80118dbc:	faff0dff 	.word	0xff0dfffa
80118dc0:	eafff9ff 	.word	0xfff9ffea
80118dc4:	f3fe0000 	.word	0xfef3
80118dc8:	faff0dff 	.word	0xff0dfffa
80118dcc:	0000f9ff 	.word	0xfff90000
80118dd0:	f3fe0000 	.word	0xfef3
80118dd4:	06000dff 	.word	0xff0d0006
80118dd8:	00000700 	sll	zero,a3,0x0
80118ddc:	f3fe1600 	.word	0x16fef3
80118de0:	06000dff 	.word	0xff0d0006
80118de4:	16000700 	.word	0x70016
80118de8:	f3feeaff 	.word	0xffeafef3
80118dec:	faff0dff 	.word	0xff0dfffa
80118df0:	eafff9ff 	.word	0xfff9ffea
80118df4:	f3fe0000 	.word	0xfef3
80118df8:	faff0dff 	.word	0xff0dfffa
80118dfc:	0000f9ff 	.word	0xfff90000
80118e00:	f3fe0000 	.word	0xfef3
80118e04:	06000dff 	.word	0xff0d0006
80118e08:	00000700 	sll	zero,a3,0x0
80118e0c:	f3fe1600 	.word	0x16fef3
80118e10:	06000dff 	.word	0xff0d0006
80118e14:	16000700 	.word	0x70016
80118e18:	f3fe47ff 	.word	0xff47fef3
80118e1c:	53003500 	.word	0x350053
80118e20:	95ff9b00 	.word	0x9bff95
80118e24:	350047ff 	.word	0xff470035
80118e28:	adff3500 	.word	0x35ffad
80118e2c:	6b009b00 	.word	0x9b006b
80118e30:	350095ff 	.word	0xff950035
80118e34:	65ff3500 	.word	0x35ff65
80118e38:	b9005300 	.word	0x5300b9
80118e3c:	3500b900 	.word	0xb90035
80118e40:	adff3500 	.word	0x35ffad
80118e44:	6b0065ff 	.word	0xff65006b
80118e48:	35000000 	.word	0x35
80118e4c:	000075ff 	.word	0xff750000
80118e50:	00007bff 	.word	0xff7b0000
80118e54:	efffb7ff 	.word	0xffb7ffef
80118e58:	a7fe5b00 	.word	0x5bfea7
80118e5c:	000062ff 	.word	0xff620000
80118e60:	e8000000 	.word	0xe8
80118e64:	8500efff 	.word	0xffef0085
80118e68:	0000b800 	.word	0xb80000
80118e6c:	35000000 	.word	0x35
80118e70:	9e00e800 	.word	0xe8009e
80118e74:	b5000000 	.word	0xb5
80118e78:	efff4bff 	.word	0xff4bffef
80118e7c:	0000efff 	.word	0xffef0000
80118e80:	31ff0000 	.word	0xff31
80118e84:	3500cf00 	.word	0xcf0035
80118e88:	00003500 	.word	0x350000
80118e8c:	48ff0000 	.word	0xff48
80118e90:	e800b800 	.word	0xb800e8
80118e94:	0000e800 	.word	0xe80000
80118e98:	e2009bff 	.word	0xff9b00e2
80118e9c:	920036ff 	.word	0xff360092
80118ea0:	2401e800 	.word	0xe80124
80118ea4:	7f0048ff 	.word	0xff48007f
80118ea8:	92001eff 	.word	0xff1e0092
80118eac:	65009200 	.word	0x920065
80118eb0:	04ff0000 	.word	0xff04
80118eb4:	92000000 	.word	0x92
80118eb8:	27ff9200 	.word	0x92ff27
80118ebc:	81ff48ff 	.word	0xff48ff81
80118ec0:	92001eff 	.word	0xff1e0092
80118ec4:	9bff9200 	.word	0x92ff9b
80118ec8:	0000d900 	.word	0xd90000
80118ecc:	92009101 	.word	0x1910092
80118ed0:	3100ee00 	.word	0xee0031
80118ed4:	e2006500 	.word	0x6500e2
80118ed8:	92007f00 	.word	0x7f0092
80118edc:	b8009200 	.word	0x9200b8
80118ee0:	5bff4b00 	.word	0x4bff5b
80118ee4:	e900b0ff 	.word	0xffb000e9
80118ee8:	040042ff 	.word	0xff420004
80118eec:	5bffb5ff 	.word	0xffb5ff5b
80118ef0:	e900b0ff 	.word	0xffb000e9
80118ef4:	fcff42ff 	.word	0xff42fffc
80118ef8:	a5004b00 	.word	0x4b00a5
80118efc:	e9005000 	.word	0x5000e9
80118f00:	040042ff 	.word	0xff420004
80118f04:	a500b5ff 	.word	0xffb500a5
80118f08:	e9005000 	.word	0x5000e9
80118f0c:	fcff42ff 	.word	0xff42fffc
80118f10:	8000ddff 	.word	0xffdd0080
80118f14:	a7ff80ff 	.word	0xff80ffa7
80118f18:	ddffa7ff 	.word	0xffa7ffdd
80118f1c:	80002300 	.word	0x230080
80118f20:	a7ff80ff 	.word	0xff80ffa7
80118f24:	2300a7ff 	.word	0xffa70023
80118f28:	9bff0000 	.word	0xff9b
80118f2c:	71ff6500 	.word	0x65ff71
80118f30:	000071ff 	.word	0xff710000
80118f34:	e5fffaff 	.word	0xfffaffe5
80118f38:	0dffe5ff 	.word	0xffe5ff0d
80118f3c:	06000dff 	.word	0xff0d0006
80118f40:	a5ff79ff 	.word	0xff79ffa5
80118f44:	e900a5ff 	.word	0xffa500e9
80118f48:	8700e900 	.word	0xe90087
80118f4c:	9cff6b00 	.word	0x6bff9c
80118f50:	efff1b00 	.word	0x1bffef
80118f54:	06000dff 	.word	0xff0d0006
80118f58:	5b008700 	.word	0x87005b
80118f5c:	e9005b00 	.word	0x5b00e9
80118f60:	79ffe900 	.word	0xe9ff79
80118f64:	1b00faff 	.word	0xfffa001b
80118f68:	0dff6400 	break	0x64,0x3fc
80118f6c:	6b00efff 	.word	0xffef006b
80118f70:	63ff3800 	.word	0x38ff63
80118f74:	efff9d00 	.word	0x9dffef
80118f78:	c8ffefff 	.word	0xffefffc8
80118f7c:	63ffc8ff 	.word	0xffc8ff63
80118f80:	efff6400 	.word	0x64ffef
80118f84:	95ffefff 	.word	0xffefff95
80118f88:	9cff95ff 	.word	0xff95ff9c
80118f8c:	efff9d00 	.word	0x9dffef
80118f90:	3800efff 	.word	0xffef0038
80118f94:	00000000 	nop
80118f98:	28010000 	.word	0x128
80118f9c:	b2ffa7ff 	.word	0xffa7ffb2
80118fa0:	00004e00 	.word	0x4e0000
80118fa4:	a7ffeaff 	.word	0xffeaffa7
80118fa8:	faff0dff 	.word	0xff0dfffa
80118fac:	eafff9ff 	.word	0xfff9ffea
80118fb0:	f2fe0000 	.word	0xfef2
80118fb4:	faff0dff 	.word	0xff0dfffa
80118fb8:	0000f9ff 	.word	0xfff90000
80118fbc:	f2fe0000 	.word	0xfef2
80118fc0:	06000dff 	.word	0xff0d0006
80118fc4:	00000700 	sll	zero,a3,0x0
80118fc8:	f2fe1600 	.word	0x16fef2
80118fcc:	06000dff 	.word	0xff0d0006
80118fd0:	16000700 	.word	0x70016
80118fd4:	f2feeaff 	.word	0xffeafef2
80118fd8:	faff0dff 	.word	0xff0dfffa
80118fdc:	eafff9ff 	.word	0xfff9ffea
80118fe0:	f2fe0000 	.word	0xfef2
80118fe4:	faff0dff 	.word	0xff0dfffa
80118fe8:	0000f9ff 	.word	0xfff90000
80118fec:	f2fe0000 	.word	0xfef2
80118ff0:	06000dff 	.word	0xff0d0006
80118ff4:	00000700 	sll	zero,a3,0x0
80118ff8:	f2fe1600 	.word	0x16fef2
80118ffc:	06000dff 	.word	0xff0d0006
80119000:	16000700 	.word	0x70016
80119004:	f2fe47ff 	.word	0xff47fef2
80119008:	53003500 	.word	0x350053
8011900c:	95ff9b00 	.word	0x9bff95
80119010:	350047ff 	.word	0xff470035
80119014:	adff3500 	.word	0x35ffad
80119018:	6b009b00 	.word	0x9b006b
8011901c:	350095ff 	.word	0xff950035
80119020:	65ff3500 	.word	0x35ff65
80119024:	b9005300 	.word	0x5300b9
80119028:	3500b900 	.word	0xb90035
8011902c:	adff3500 	.word	0x35ffad
80119030:	6b0065ff 	.word	0xff65006b
80119034:	35000000 	.word	0x35
80119038:	000075ff 	.word	0xff750000
8011903c:	00007cff 	.word	0xff7c0000
80119040:	efffb3ff 	.word	0xffb3ffef
80119044:	9efe5e00 	.word	0x5efe9e
80119048:	000061ff 	.word	0xff610000
8011904c:	e9000000 	.word	0xe9
80119050:	8400efff 	.word	0xffef0084
80119054:	0000b800 	.word	0xb80000
80119058:	35000000 	.word	0x35
8011905c:	9f00e900 	.word	0xe9009f
80119060:	b4000000 	.word	0xb4
80119064:	efff4cff 	.word	0xff4cffef
80119068:	0000efff 	.word	0xffef0000
8011906c:	31ff0000 	.word	0xff31
80119070:	3500cf00 	.word	0xcf0035
80119074:	00003500 	.word	0x350000
80119078:	48ff0000 	.word	0xff48
8011907c:	e900b800 	.word	0xb800e9
80119080:	0000e900 	.word	0xe90000
80119084:	e2009bff 	.word	0xff9b00e2
80119088:	920031ff 	.word	0xff310092
8011908c:	2a01ed00 	.word	0xed012a
80119090:	7f0048ff 	.word	0xff48007f
80119094:	92001eff 	.word	0xff1e0092
80119098:	65009200 	.word	0x920065
8011909c:	04ff0000 	.word	0xff04
801190a0:	92000000 	.word	0x92
801190a4:	26ff9200 	.word	0x92ff26
801190a8:	81ff48ff 	.word	0xff48ff81
801190ac:	92001eff 	.word	0xff1e0092
801190b0:	9bff9200 	.word	0x92ff9b
801190b4:	0000da00 	.word	0xda0000
801190b8:	92009a01 	.word	0x19a0092
801190bc:	3400f400 	.word	0xf40034
801190c0:	e2006500 	.word	0x6500e2
801190c4:	92007f00 	.word	0x7f0092
801190c8:	b8009200 	.word	0x9200b8
801190cc:	5bff4b00 	.word	0x4bff5b
801190d0:	e800b0ff 	.word	0xffb000e8
801190d4:	040043ff 	.word	0xff430004
801190d8:	5bffb5ff 	.word	0xffb5ff5b
801190dc:	e800b0ff 	.word	0xffb000e8
801190e0:	fcff43ff 	.word	0xff43fffc
801190e4:	a5004b00 	.word	0x4b00a5
801190e8:	e8005000 	.word	0x5000e8
801190ec:	040043ff 	.word	0xff430004
801190f0:	a500b5ff 	.word	0xffb500a5
801190f4:	e8005000 	.word	0x5000e8
801190f8:	fcff43ff 	.word	0xff43fffc
801190fc:	8000ddff 	.word	0xffdd0080
80119100:	a7ff80ff 	.word	0xff80ffa7
80119104:	ddffa7ff 	.word	0xffa7ffdd
80119108:	80002300 	.word	0x230080
8011910c:	a7ff80ff 	.word	0xff80ffa7
80119110:	2300a7ff 	.word	0xffa70023
80119114:	9bff0000 	.word	0xff9b
80119118:	71ff6500 	.word	0x65ff71
8011911c:	000071ff 	.word	0xff710000
80119120:	e5fffaff 	.word	0xfffaffe5
80119124:	0effe5ff 	.word	0xffe5ff0e
80119128:	06000eff 	.word	0xff0e0006
8011912c:	a5ff7aff 	.word	0xff7affa5
80119130:	e800a5ff 	.word	0xffa500e8
80119134:	8600e800 	.word	0xe80086
80119138:	9cff6b00 	.word	0x6bff9c
8011913c:	efff1b00 	.word	0x1bffef
80119140:	06000eff 	.word	0xff0e0006
80119144:	5b008600 	.word	0x86005b
80119148:	e8005b00 	.word	0x5b00e8
8011914c:	7affe800 	.word	0xe8ff7a
80119150:	1b00faff 	.word	0xfffa001b
80119154:	0eff6400 	.word	0x64ff0e
80119158:	6b00efff 	.word	0xffef006b
8011915c:	63ff3800 	.word	0x38ff63
80119160:	efff9d00 	.word	0x9dffef
80119164:	c8ffefff 	.word	0xffefffc8
80119168:	63ffc8ff 	.word	0xffc8ff63
8011916c:	efff6400 	.word	0x64ffef
80119170:	95ffefff 	.word	0xffefff95
80119174:	9cff95ff 	.word	0xff95ff9c
80119178:	efff9d00 	.word	0x9dffef
8011917c:	3800efff 	.word	0xffef0038
80119180:	00000000 	nop
80119184:	27010000 	.word	0x127
80119188:	b2ffa7ff 	.word	0xffa7ffb2
8011918c:	00004e00 	.word	0x4e0000
80119190:	a7ffeaff 	.word	0xffeaffa7
80119194:	faff0eff 	.word	0xff0efffa
80119198:	eafff9ff 	.word	0xfff9ffea
8011919c:	f3fe0000 	.word	0xfef3
801191a0:	faff0eff 	.word	0xff0efffa
801191a4:	0000f9ff 	.word	0xfff90000
801191a8:	f3fe0000 	.word	0xfef3
801191ac:	06000eff 	.word	0xff0e0006
801191b0:	00000700 	sll	zero,a3,0x0
801191b4:	f3fe1600 	.word	0x16fef3
801191b8:	06000eff 	.word	0xff0e0006
801191bc:	16000700 	.word	0x70016
801191c0:	f3feeaff 	.word	0xffeafef3
801191c4:	faff0eff 	.word	0xff0efffa
801191c8:	eafff9ff 	.word	0xfff9ffea
801191cc:	f3fe0000 	.word	0xfef3
801191d0:	faff0eff 	.word	0xff0efffa
801191d4:	0000f9ff 	.word	0xfff90000
801191d8:	f3fe0000 	.word	0xfef3
801191dc:	06000eff 	.word	0xff0e0006
801191e0:	00000700 	sll	zero,a3,0x0
801191e4:	f3fe1600 	.word	0x16fef3
801191e8:	06000eff 	.word	0xff0e0006
801191ec:	16000700 	.word	0x70016
801191f0:	f3fe47ff 	.word	0xff47fef3
801191f4:	53003500 	.word	0x350053
801191f8:	95ff9b00 	.word	0x9bff95
801191fc:	350047ff 	.word	0xff470035
80119200:	adff3500 	.word	0x35ffad
80119204:	6b009b00 	.word	0x9b006b
80119208:	350095ff 	.word	0xff950035
8011920c:	65ff3500 	.word	0x35ff65
80119210:	b9005300 	.word	0x5300b9
80119214:	3500b900 	.word	0xb90035
80119218:	adff3500 	.word	0x35ffad
8011921c:	6b0065ff 	.word	0xff65006b
80119220:	35000000 	.word	0x35
80119224:	000075ff 	.word	0xff750000
80119228:	00007bff 	.word	0xff7b0000
8011922c:	efffb8ff 	.word	0xffb8ffef
80119230:	abfe5a00 	.word	0x5afeab
80119234:	000062ff 	.word	0xff620000
80119238:	e8000000 	.word	0xe8
8011923c:	8500efff 	.word	0xffef0085
80119240:	0000b800 	.word	0xb80000
80119244:	35000000 	.word	0x35
80119248:	9e00e800 	.word	0xe8009e
8011924c:	b5000000 	.word	0xb5
80119250:	efff4bff 	.word	0xff4bffef
80119254:	0000efff 	.word	0xffef0000
80119258:	31ff0000 	.word	0xff31
8011925c:	3500cf00 	.word	0xcf0035
80119260:	00003500 	.word	0x350000
80119264:	48ff0000 	.word	0xff48
80119268:	e800b800 	.word	0xb800e8
8011926c:	0000e800 	.word	0xe80000
80119270:	e2009bff 	.word	0xff9b00e2
80119274:	920037ff 	.word	0xff370092
80119278:	2101e600 	.word	0xe60121
8011927c:	7f0048ff 	.word	0xff48007f
80119280:	92001eff 	.word	0xff1e0092
80119284:	65009200 	.word	0x920065
80119288:	04ff0000 	.word	0xff04
8011928c:	92000000 	.word	0x92
80119290:	27ff9200 	.word	0x92ff27
80119294:	81ff48ff 	.word	0xff48ff81
80119298:	92001eff 	.word	0xff1e0092
8011929c:	9bff9200 	.word	0x92ff9b
801192a0:	0000d900 	.word	0xd90000
801192a4:	92008e01 	.word	0x18e0092
801192a8:	3000ec00 	.word	0xec0030
801192ac:	e2006500 	.word	0x6500e2
801192b0:	92007f00 	.word	0x7f0092
801192b4:	b8009200 	.word	0x9200b8
801192b8:	5bff4b00 	.word	0x4bff5b
801192bc:	e600b0ff 	.word	0xffb000e6
801192c0:	040044ff 	.word	0xff440004
801192c4:	5bffb5ff 	.word	0xffb5ff5b
801192c8:	e600b0ff 	.word	0xffb000e6
801192cc:	fcff44ff 	.word	0xff44fffc
801192d0:	a5004b00 	.word	0x4b00a5
801192d4:	e6005000 	.word	0x5000e6
801192d8:	040044ff 	.word	0xff440004
801192dc:	a500b5ff 	.word	0xffb500a5
801192e0:	e6005000 	.word	0x5000e6
801192e4:	fcff44ff 	.word	0xff44fffc
801192e8:	8100ddff 	.word	0xffdd0081
801192ec:	a8ff7fff 	.word	0xff7fffa8
801192f0:	ddffa8ff 	.word	0xffa8ffdd
801192f4:	81002300 	.word	0x230081
801192f8:	a8ff7fff 	.word	0xff7fffa8
801192fc:	2300a8ff 	.word	0xffa80023
80119300:	9bff0000 	.word	0xff9b
80119304:	72ff6500 	.word	0x65ff72
80119308:	000072ff 	.word	0xff720000
8011930c:	e5fffaff 	.word	0xfffaffe5
80119310:	0fffe5ff 	.word	0xffe5ff0f
80119314:	06000fff 	.word	0xff0f0006
80119318:	a6ff7aff 	.word	0xff7affa6
8011931c:	e600a6ff 	.word	0xffa600e6
80119320:	8600e600 	.word	0xe60086
80119324:	9cff6b00 	.word	0x6bff9c
80119328:	efff1b00 	.word	0x1bffef
8011932c:	06000fff 	.word	0xff0f0006
80119330:	5a008600 	.word	0x86005a
80119334:	e6005a00 	.word	0x5a00e6
80119338:	7affe600 	.word	0xe6ff7a
8011933c:	1b00faff 	.word	0xfffa001b
80119340:	0fff6400 	.word	0x64ff0f
80119344:	6b00efff 	.word	0xffef006b
80119348:	62ff3800 	.word	0x38ff62
8011934c:	efff9e00 	.word	0x9effef
80119350:	c8ffefff 	.word	0xffefffc8
80119354:	62ffc8ff 	.word	0xffc8ff62
80119358:	efff6400 	.word	0x64ffef
8011935c:	95ffefff 	.word	0xffefff95
80119360:	9cff95ff 	.word	0xff95ff9c
80119364:	efff9e00 	.word	0x9effef
80119368:	3800efff 	.word	0xffef0038
8011936c:	00000000 	nop
80119370:	25010000 	.word	0x125
80119374:	b2ffa8ff 	.word	0xffa8ffb2
80119378:	00004e00 	.word	0x4e0000
8011937c:	a8ffeaff 	.word	0xffeaffa8
80119380:	faff0fff 	.word	0xff0ffffa
80119384:	eafff9ff 	.word	0xfff9ffea
80119388:	f5fe0000 	.word	0xfef5
8011938c:	faff0fff 	.word	0xff0ffffa
80119390:	0000f9ff 	.word	0xfff90000
80119394:	f5fe0000 	.word	0xfef5
80119398:	06000fff 	.word	0xff0f0006
8011939c:	00000700 	sll	zero,a3,0x0
801193a0:	f5fe1600 	.word	0x16fef5
801193a4:	06000fff 	.word	0xff0f0006
801193a8:	16000700 	.word	0x70016
801193ac:	f5feeaff 	.word	0xffeafef5
801193b0:	faff0fff 	.word	0xff0ffffa
801193b4:	eafff9ff 	.word	0xfff9ffea
801193b8:	f5fe0000 	.word	0xfef5
801193bc:	faff0fff 	.word	0xff0ffffa
801193c0:	0000f9ff 	.word	0xfff90000
801193c4:	f5fe0000 	.word	0xfef5
801193c8:	06000fff 	.word	0xff0f0006
801193cc:	00000700 	sll	zero,a3,0x0
801193d0:	f5fe1600 	.word	0x16fef5
801193d4:	06000fff 	.word	0xff0f0006
801193d8:	16000700 	.word	0x70016
801193dc:	f5fe47ff 	.word	0xff47fef5
801193e0:	53003400 	.word	0x340053
801193e4:	95ff9b00 	.word	0x9bff95
801193e8:	340047ff 	.word	0xff470034
801193ec:	adff3400 	.word	0x34ffad
801193f0:	6b009b00 	.word	0x9b006b
801193f4:	340095ff 	.word	0xff950034
801193f8:	65ff3400 	.word	0x34ff65
801193fc:	b9005300 	.word	0x5300b9
80119400:	3400b900 	.word	0xb90034
80119404:	adff3400 	.word	0x34ffad
80119408:	6b0065ff 	.word	0xff65006b
8011940c:	34000000 	.word	0x34
80119410:	000076ff 	.word	0xff760000
80119414:	00007bff 	.word	0xff7b0000
80119418:	efffc7ff 	.word	0xffc7ffef
8011941c:	cafe5200 	.word	0x52feca
80119420:	000062ff 	.word	0xff620000
80119424:	e6000000 	.word	0xe6
80119428:	8500efff 	.word	0xffef0085
8011942c:	0000b800 	.word	0xb80000
80119430:	34000000 	.word	0x34
80119434:	9e00e600 	.word	0xe6009e
80119438:	b5000000 	.word	0xb5
8011943c:	efff4bff 	.word	0xff4bffef
80119440:	0000efff 	.word	0xffef0000
80119444:	31ff0000 	.word	0xff31
80119448:	3400cf00 	.word	0xcf0034
8011944c:	00003400 	.word	0x340000
80119450:	49ff0000 	.word	0xff49
80119454:	e600b700 	.word	0xb700e6
80119458:	0000e600 	.word	0xe60000
8011945c:	e1009cff 	.word	0xff9c00e1
80119460:	910047ff 	.word	0xff470091
80119464:	0c01d400 	syscall	0x35004
80119468:	7f0049ff 	.word	0xff49007f
8011946c:	91001fff 	.word	0xff1f0091
80119470:	64009100 	.word	0x910064
80119474:	05ff0000 	.word	0xff05
80119478:	91000000 	.word	0x91
8011947c:	27ff9100 	.word	0x91ff27
80119480:	81ff49ff 	.word	0xff49ff81
80119484:	91001fff 	.word	0xff1f0091
80119488:	9cff9100 	.word	0x91ff9c
8011948c:	0000d900 	.word	0xd90000
80119490:	91007001 	.word	0x1700091
80119494:	2600d900 	xor	zero,a2,t9
80119498:	e1006400 	.word	0x6400e1
8011949c:	91007f00 	.word	0x7f0091
801194a0:	b7009100 	.word	0x9100b7
801194a4:	5cff4a00 	.word	0x4aff5c
801194a8:	e400b0ff 	.word	0xffb000e4
801194ac:	040045ff 	.word	0xff450004
801194b0:	5cffb6ff 	.word	0xffb6ff5c
801194b4:	e400b0ff 	.word	0xffb000e4
801194b8:	fcff45ff 	.word	0xff45fffc
801194bc:	a4004a00 	.word	0x4a00a4
801194c0:	e4005000 	.word	0x5000e4
801194c4:	040045ff 	.word	0xff450004
801194c8:	a400b6ff 	.word	0xffb600a4
801194cc:	e4005000 	.word	0x5000e4
801194d0:	fcff45ff 	.word	0xff45fffc
801194d4:	8100ddff 	.word	0xffdd0081
801194d8:	a8ff7fff 	.word	0xff7fffa8
801194dc:	ddffa8ff 	.word	0xffa8ffdd
801194e0:	81002300 	.word	0x230081
801194e4:	a8ff7fff 	.word	0xff7fffa8
801194e8:	2300a8ff 	.word	0xffa80023
801194ec:	9bff0000 	.word	0xff9b
801194f0:	73ff6500 	.word	0x65ff73
801194f4:	000073ff 	.word	0xff730000
801194f8:	e5fffaff 	.word	0xfffaffe5
801194fc:	11ffe5ff 	.word	0xffe5ff11
80119500:	060011ff 	.word	0xff110006
80119504:	a6ff7bff 	.word	0xff7bffa6
80119508:	e400a6ff 	.word	0xffa600e4
8011950c:	8500e400 	.word	0xe40085
80119510:	9bff6c00 	.word	0x6cff9b
80119514:	efff1b00 	.word	0x1bffef
80119518:	060011ff 	.word	0xff110006
8011951c:	5a008500 	.word	0x85005a
80119520:	e4005a00 	.word	0x5a00e4
80119524:	7bffe400 	.word	0xe4ff7b
80119528:	1b00faff 	.word	0xfffa001b
8011952c:	11ff6500 	.word	0x65ff11
80119530:	6c00efff 	.word	0xffef006c
80119534:	61ff3900 	.word	0x39ff61
80119538:	efff9f00 	.word	0x9fffef
8011953c:	c7ffefff 	.word	0xffefffc7
80119540:	61ffc7ff 	.word	0xffc7ff61
80119544:	efff6500 	.word	0x65ffef
80119548:	94ffefff 	.word	0xffefff94
8011954c:	9bff94ff 	.word	0xff94ff9b
80119550:	efff9f00 	.word	0x9fffef
80119554:	3900efff 	.word	0xffef0039
80119558:	00000000 	nop
8011955c:	22010000 	.word	0x122
80119560:	b1ffa8ff 	.word	0xffa8ffb1
80119564:	00004f00 	.word	0x4f0000
80119568:	a8ffeaff 	.word	0xffeaffa8
8011956c:	faff11ff 	.word	0xff11fffa
80119570:	eafff9ff 	.word	0xfff9ffea
80119574:	f7fe0000 	.word	0xfef7
80119578:	faff11ff 	.word	0xff11fffa
8011957c:	0000f9ff 	.word	0xfff90000
80119580:	f7fe0000 	.word	0xfef7
80119584:	060011ff 	.word	0xff110006
80119588:	00000700 	sll	zero,a3,0x0
8011958c:	f7fe1600 	.word	0x16fef7
80119590:	060011ff 	.word	0xff110006
80119594:	16000700 	.word	0x70016
80119598:	f7feeaff 	.word	0xffeafef7
8011959c:	faff11ff 	.word	0xff11fffa
801195a0:	eafff9ff 	.word	0xfff9ffea
801195a4:	f7fe0000 	.word	0xfef7
801195a8:	faff11ff 	.word	0xff11fffa
801195ac:	0000f9ff 	.word	0xfff90000
801195b0:	f7fe0000 	.word	0xfef7
801195b4:	060011ff 	.word	0xff110006
801195b8:	00000700 	sll	zero,a3,0x0
801195bc:	f7fe1600 	.word	0x16fef7
801195c0:	060011ff 	.word	0xff110006
801195c4:	16000700 	.word	0x70016
801195c8:	f7fe47ff 	.word	0xff47fef7
801195cc:	53003300 	.word	0x330053
801195d0:	95ff9b00 	.word	0x9bff95
801195d4:	330047ff 	.word	0xff470033
801195d8:	adff3300 	.word	0x33ffad
801195dc:	6b009b00 	.word	0x9b006b
801195e0:	330095ff 	.word	0xff950033
801195e4:	65ff3300 	.word	0x33ff65
801195e8:	b9005300 	.word	0x5300b9
801195ec:	3300b900 	.word	0xb90033
801195f0:	adff3300 	.word	0x33ffad
801195f4:	6b0065ff 	.word	0xff65006b
801195f8:	33000000 	.word	0x33
801195fc:	000077ff 	.word	0xff770000
80119600:	00007aff 	.word	0xff7a0000
80119604:	efffdaff 	.word	0xffdaffef
80119608:	f3fe4800 	.word	0x48fef3
8011960c:	000063ff 	.word	0xff630000
80119610:	e4000000 	.word	0xe4
80119614:	8600efff 	.word	0xffef0086
80119618:	0000b900 	.word	0xb90000
8011961c:	33000000 	.word	0x33
80119620:	9d00e400 	.word	0xe4009d
80119624:	b6000000 	.word	0xb6
80119628:	efff4aff 	.word	0xff4affef
8011962c:	0000efff 	.word	0xffef0000
80119630:	31ff0000 	.word	0xff31
80119634:	3300cf00 	.word	0xcf0033
80119638:	00003300 	.word	0x330000
8011963c:	4aff0000 	.word	0xff4a
80119640:	e400b600 	.word	0xb600e4
80119644:	0000e400 	.word	0xe40000
80119648:	e0009cff 	.word	0xff9c00e0
8011964c:	8f005aff 	.word	0xff5a008f
80119650:	ef00bc00 	.word	0xbc00ef
80119654:	7e004aff 	.word	0xff4a007e
80119658:	8f0020ff 	.word	0xff20008f
8011965c:	64008f00 	.word	0x8f0064
80119660:	06ff0000 	.word	0xff06
80119664:	8f000000 	.word	0x8f
80119668:	28ff8f00 	.word	0x8fff28
8011966c:	82ff4aff 	.word	0xff4aff82
80119670:	8f0020ff 	.word	0xff20008f
80119674:	9cff8f00 	.word	0x8fff9c
80119678:	0000d800 	.word	0xd80000
8011967c:	8f004901 	.word	0x149008f
80119680:	1a00c000 	div	zero,a2,zero
80119684:	e0006400 	.word	0x6400e0
80119688:	8f007e00 	.word	0x7e008f
8011968c:	b6008f00 	.word	0x8f00b6
80119690:	5dff4a00 	.word	0x4aff5d
80119694:	e100afff 	.word	0xffaf00e1
80119698:	040047ff 	.word	0xff470004
8011969c:	5dffb6ff 	.word	0xffb6ff5d
801196a0:	e100afff 	.word	0xffaf00e1
801196a4:	fcff47ff 	.word	0xff47fffc
801196a8:	a3004a00 	.word	0x4a00a3
801196ac:	e1005100 	.word	0x5100e1
801196b0:	040047ff 	.word	0xff470004
801196b4:	a300b6ff 	.word	0xffb600a3
801196b8:	e1005100 	.word	0x5100e1
801196bc:	fcff47ff 	.word	0xff47fffc
801196c0:	8200ddff 	.word	0xffdd0082
801196c4:	a8ff7eff 	.word	0xff7effa8
801196c8:	ddffa8ff 	.word	0xffa8ffdd
801196cc:	82002300 	.word	0x230082
801196d0:	a8ff7eff 	.word	0xff7effa8
801196d4:	2300a8ff 	.word	0xffa80023
801196d8:	9aff0000 	.word	0xff9a
801196dc:	74ff6600 	.word	0x66ff74
801196e0:	000074ff 	.word	0xff740000
801196e4:	e5fffaff 	.word	0xfffaffe5
801196e8:	13ffe5ff 	.word	0xffe5ff13
801196ec:	060013ff 	.word	0xff130006
801196f0:	a6ff7bff 	.word	0xff7bffa6
801196f4:	e100a6ff 	.word	0xffa600e1
801196f8:	8500e100 	.word	0xe10085
801196fc:	9bff6d00 	.word	0x6dff9b
80119700:	efff1b00 	.word	0x1bffef
80119704:	060013ff 	.word	0xff130006
80119708:	5a008500 	.word	0x85005a
8011970c:	e1005a00 	.word	0x5a00e1
80119710:	7bffe100 	.word	0xe1ff7b
80119714:	1b00faff 	.word	0xfffa001b
80119718:	13ff6500 	.word	0x65ff13
8011971c:	6d00efff 	.word	0xffef006d
80119720:	60ff3900 	.word	0x39ff60
80119724:	efffa000 	.word	0xa0ffef
80119728:	c7ffefff 	.word	0xffefffc7
8011972c:	60ffc7ff 	.word	0xffc7ff60
80119730:	efff6500 	.word	0x65ffef
80119734:	93ffefff 	.word	0xffefff93
80119738:	9bff93ff 	.word	0xff93ff9b
8011973c:	efffa000 	.word	0xa0ffef
80119740:	3900efff 	.word	0xffef0039
80119744:	00000000 	nop
80119748:	20010000 	.word	0x120
8011974c:	b1ffa8ff 	.word	0xffa8ffb1
80119750:	00004f00 	.word	0x4f0000
80119754:	a8ffeaff 	.word	0xffeaffa8
80119758:	faff13ff 	.word	0xff13fffa
8011975c:	eafff9ff 	.word	0xfff9ffea
80119760:	f9fe0000 	.word	0xfef9
80119764:	faff13ff 	.word	0xff13fffa
80119768:	0000f9ff 	.word	0xfff90000
8011976c:	f9fe0000 	.word	0xfef9
80119770:	060013ff 	.word	0xff130006
80119774:	00000700 	sll	zero,a3,0x0
80119778:	f9fe1600 	.word	0x16fef9
8011977c:	060013ff 	.word	0xff130006
80119780:	16000700 	.word	0x70016
80119784:	f9feeaff 	.word	0xffeafef9
80119788:	faff13ff 	.word	0xff13fffa
8011978c:	eafff9ff 	.word	0xfff9ffea
80119790:	f9fe0000 	.word	0xfef9
80119794:	faff13ff 	.word	0xff13fffa
80119798:	0000f9ff 	.word	0xfff90000
8011979c:	f9fe0000 	.word	0xfef9
801197a0:	060013ff 	.word	0xff130006
801197a4:	00000700 	sll	zero,a3,0x0
801197a8:	f9fe1600 	.word	0x16fef9
801197ac:	060013ff 	.word	0xff130006
801197b0:	16000700 	.word	0x70016
801197b4:	f9fe46ff 	.word	0xff46fef9
801197b8:	53003200 	.word	0x320053
801197bc:	95ff9b00 	.word	0x9bff95
801197c0:	320046ff 	.word	0xff460032
801197c4:	adff3200 	.word	0x32ffad
801197c8:	6b009b00 	.word	0x9b006b
801197cc:	320095ff 	.word	0xff950032
801197d0:	65ff3200 	.word	0x32ff65
801197d4:	ba005300 	.word	0x5300ba
801197d8:	3200ba00 	.word	0xba0032
801197dc:	adff3200 	.word	0x32ffad
801197e0:	6b0065ff 	.word	0xff65006b
801197e4:	32000000 	.word	0x32
801197e8:	000079ff 	.word	0xff790000
801197ec:	00007aff 	.word	0xff7a0000
801197f0:	efffecff 	.word	0xffecffef
801197f4:	1bff3d00 	.word	0x3dff1b
801197f8:	000064ff 	.word	0xff640000
801197fc:	e1000000 	.word	0xe1
80119800:	8600efff 	.word	0xffef0086
80119804:	0000b900 	.word	0xb90000
80119808:	32000000 	.word	0x32
8011980c:	9c00e100 	.word	0xe1009c
80119810:	b7000000 	.word	0xb7
80119814:	efff49ff 	.word	0xff49ffef
80119818:	0000efff 	.word	0xffef0000
8011981c:	30ff0000 	.word	0xff30
80119820:	3200d000 	.word	0xd00032
80119824:	00003200 	.word	0x320000
80119828:	4bff0000 	.word	0xff4b
8011982c:	e100b500 	.word	0xb500e1
80119830:	0000e100 	.word	0xe10000
80119834:	df009dff 	.word	0xff9d00df
80119838:	8d006eff 	.word	0xff6e008d
8011983c:	d300a500 	.word	0xa500d3
80119840:	7e004aff 	.word	0xff4a007e
80119844:	8d0021ff 	.word	0xff21008d
80119848:	63008d00 	.word	0x8d0063
8011984c:	07ff0000 	.word	0xff07
80119850:	8d000000 	break	0x0,0x2
80119854:	29ff8d00 	.word	0x8dff29
80119858:	82ff4aff 	.word	0xff4aff82
8011985c:	8d0021ff 	.word	0xff21008d
80119860:	9dff8d00 	.word	0x8dff9d
80119864:	0000d700 	.word	0xd70000
80119868:	8d002201 	break	0x122,0x2
8011986c:	0d00a700 	break	0xa7
80119870:	df006300 	.word	0x6300df
80119874:	8d007e00 	break	0x7e,0x2
80119878:	b6008d00 	.word	0x8d00b6
8011987c:	5dff4a00 	.word	0x4aff5d
80119880:	df00afff 	.word	0xffaf00df
80119884:	040048ff 	.word	0xff480004
80119888:	5dffb6ff 	.word	0xffb6ff5d
8011988c:	df00afff 	.word	0xffaf00df
80119890:	fcff48ff 	.word	0xff48fffc
80119894:	a3004a00 	.word	0x4a00a3
80119898:	df005100 	.word	0x5100df
8011989c:	040048ff 	.word	0xff480004
801198a0:	a300b6ff 	.word	0xffb600a3
801198a4:	df005100 	.word	0x5100df
801198a8:	fcff48ff 	.word	0xff48fffc
801198ac:	8200ddff 	.word	0xffdd0082
801198b0:	a9ff7eff 	.word	0xff7effa9
801198b4:	ddffa9ff 	.word	0xffa9ffdd
801198b8:	82002300 	.word	0x230082
801198bc:	a9ff7eff 	.word	0xff7effa9
801198c0:	2300a9ff 	.word	0xffa90023
801198c4:	9aff0000 	.word	0xff9a
801198c8:	75ff6600 	.word	0x66ff75
801198cc:	000075ff 	.word	0xff750000
801198d0:	e5fffaff 	.word	0xfffaffe5
801198d4:	15ffe5ff 	.word	0xffe5ff15
801198d8:	060015ff 	.word	0xff150006
801198dc:	a7ff7cff 	.word	0xff7cffa7
801198e0:	df00a7ff 	.word	0xffa700df
801198e4:	8400df00 	.word	0xdf0084
801198e8:	9bff6d00 	.word	0x6dff9b
801198ec:	efff1b00 	.word	0x1bffef
801198f0:	060015ff 	.word	0xff150006
801198f4:	59008400 	.word	0x840059
801198f8:	df005900 	.word	0x5900df
801198fc:	7cffdf00 	.word	0xdfff7c
80119900:	1b00faff 	.word	0xfffa001b
80119904:	15ff6500 	.word	0x65ff15
80119908:	6d00efff 	.word	0xffef006d
8011990c:	60ff3900 	.word	0x39ff60
80119910:	efffa000 	.word	0xa0ffef
80119914:	c7ffefff 	.word	0xffefffc7
80119918:	60ffc7ff 	.word	0xffc7ff60
8011991c:	efff6500 	.word	0x65ffef
80119920:	93ffefff 	.word	0xffefff93
80119924:	9bff93ff 	.word	0xff93ff9b
80119928:	efffa000 	.word	0xa0ffef
8011992c:	3900efff 	.word	0xffef0039
80119930:	00000000 	nop
80119934:	1e010000 	.word	0x11e
80119938:	b1ffa9ff 	.word	0xffa9ffb1
8011993c:	00004f00 	.word	0x4f0000
80119940:	a9ffeaff 	.word	0xffeaffa9
80119944:	faff15ff 	.word	0xff15fffa
80119948:	eafff9ff 	.word	0xfff9ffea
8011994c:	fbfe0000 	.word	0xfefb
80119950:	faff15ff 	.word	0xff15fffa
80119954:	0000f9ff 	.word	0xfff90000
80119958:	fbfe0000 	.word	0xfefb
8011995c:	060015ff 	.word	0xff150006
80119960:	00000700 	sll	zero,a3,0x0
80119964:	fbfe1600 	.word	0x16fefb
80119968:	060015ff 	.word	0xff150006
8011996c:	16000700 	.word	0x70016
80119970:	fbfeeaff 	.word	0xffeafefb
80119974:	faff15ff 	.word	0xff15fffa
80119978:	eafff9ff 	.word	0xfff9ffea
8011997c:	fbfe0000 	.word	0xfefb
80119980:	faff15ff 	.word	0xff15fffa
80119984:	0000f9ff 	.word	0xfff90000
80119988:	fbfe0000 	.word	0xfefb
8011998c:	060015ff 	.word	0xff150006
80119990:	00000700 	sll	zero,a3,0x0
80119994:	fbfe1600 	.word	0x16fefb
80119998:	060015ff 	.word	0xff150006
8011999c:	16000700 	.word	0x70016
801199a0:	fbfe46ff 	.word	0xff46fefb
801199a4:	54003200 	.word	0x320054
801199a8:	95ff9c00 	.word	0x9cff95
801199ac:	320046ff 	.word	0xff460032
801199b0:	acff3200 	.word	0x32ffac
801199b4:	6b009c00 	.word	0x9c006b
801199b8:	320095ff 	.word	0xff950032
801199bc:	64ff3200 	.word	0x32ff64
801199c0:	ba005400 	.word	0x5400ba
801199c4:	3200ba00 	.word	0xba0032
801199c8:	acff3200 	.word	0x32ffac
801199cc:	6b0064ff 	.word	0xff64006b
801199d0:	32000000 	.word	0x32
801199d4:	00007aff 	.word	0xff7a0000
801199d8:	000079ff 	.word	0xff790000
801199dc:	effffbff 	.word	0xfffbffef
801199e0:	3bff3500 	.word	0x35ff3b
801199e4:	000064ff 	.word	0xff640000
801199e8:	df000000 	.word	0xdf
801199ec:	8700efff 	.word	0xffef0087
801199f0:	0000b900 	.word	0xb90000
801199f4:	32000000 	.word	0x32
801199f8:	9c00df00 	.word	0xdf009c
801199fc:	b8000000 	.word	0xb8
80119a00:	efff48ff 	.word	0xff48ffef
80119a04:	0000efff 	.word	0xffef0000
80119a08:	30ff0000 	.word	0xff30
80119a0c:	3200d000 	.word	0xd00032
80119a10:	00003200 	.word	0x320000
80119a14:	4bff0000 	.word	0xff4b
80119a18:	df00b500 	.word	0xb500df
80119a1c:	0000df00 	.word	0xdf0000
80119a20:	df009dff 	.word	0xff9d00df
80119a24:	8c007dff 	.word	0xff7d008c
80119a28:	bd009300 	.word	0x9300bd
80119a2c:	7d004bff 	.word	0xff4b007d
80119a30:	8c0021ff 	.word	0xff21008c
80119a34:	63008c00 	.word	0x8c0063
80119a38:	08ff0000 	.word	0xff08
80119a3c:	8c000000 	syscall	0x2
80119a40:	2aff8c00 	.word	0x8cff2a
80119a44:	83ff4bff 	.word	0xff4bff83
80119a48:	8c0021ff 	.word	0xff21008c
80119a4c:	9dff8c00 	.word	0x8cff9d
80119a50:	0000d600 	.word	0xd60000
80119a54:	8c000401 	syscall	0x41002
80119a58:	03009300 	.word	0x930003
80119a5c:	df006300 	.word	0x6300df
80119a60:	8c007d00 	syscall	0x1f402
80119a64:	b5008c00 	.word	0x8c00b5
80119a68:	f8f91180 	lb	s1,-1544(zero)
80119a6c:	e4fb1180 	lb	s1,-1052(zero)
80119a70:	d0fd1180 	lb	s1,-560(zero)
80119a74:	bcff1180 	lb	s1,-68(zero)
80119a78:	a8011280 	lb	s2,424(zero)
80119a7c:	94031280 	lb	s2,916(zero)
80119a80:	80051280 	lb	s2,1408(zero)
80119a84:	6c071280 	lb	s2,1900(zero)
80119a88:	58091280 	lb	s2,2392(zero)
80119a8c:	440b1280 	lb	s2,2884(zero)
80119a90:	300d1280 	lb	s2,3376(zero)
80119a94:	1c0f1280 	lb	s2,3868(zero)
80119a98:	08111280 	lb	s2,4360(zero)
80119a9c:	f4121280 	lb	s2,4852(zero)
80119aa0:	e0141280 	lb	s2,5344(zero)
80119aa4:	cc161280 	lb	s2,5836(zero)
80119aa8:	b8181280 	lb	s2,6328(zero)
80119aac:	a41a1280 	lb	s2,6820(zero)
80119ab0:	901c1280 	lb	s2,7312(zero)
80119ab4:	7c1e1280 	lb	s2,7804(zero)
80119ab8:	68201280 	lb	s2,8296(zero)
80119abc:	54221280 	lb	s2,8788(zero)
80119ac0:	40241280 	lb	s2,9280(zero)
80119ac4:	2c261280 	lb	s2,9772(zero)
80119ac8:	18281280 	lb	s2,10264(zero)
80119acc:	5dff4a00 	.word	0x4aff5d
80119ad0:	df00afff 	.word	0xffaf00df
80119ad4:	040049ff 	.word	0xff490004
80119ad8:	5dffb6ff 	.word	0xffb6ff5d
80119adc:	df00afff 	.word	0xffaf00df
80119ae0:	fcff49ff 	.word	0xff49fffc
80119ae4:	a3004a00 	.word	0x4a00a3
80119ae8:	df005100 	.word	0x5100df
80119aec:	040049ff 	.word	0xff490004
80119af0:	a300b6ff 	.word	0xffb600a3
80119af4:	df005100 	.word	0x5100df
80119af8:	fcff49ff 	.word	0xff49fffc
80119afc:	8200ddff 	.word	0xffdd0082
80119b00:	a9ff7eff 	.word	0xff7effa9
80119b04:	ddffa9ff 	.word	0xffa9ffdd
80119b08:	82002300 	.word	0x230082
80119b0c:	a9ff7eff 	.word	0xff7effa9
80119b10:	2300a9ff 	.word	0xffa90023
80119b14:	9aff0000 	.word	0xff9a
80119b18:	76ff6600 	.word	0x66ff76
80119b1c:	000076ff 	.word	0xff760000
80119b20:	e5fffaff 	.word	0xfffaffe5
80119b24:	15ffe5ff 	.word	0xffe5ff15
80119b28:	060015ff 	.word	0xff150006
80119b2c:	a7ff7cff 	.word	0xff7cffa7
80119b30:	df00a7ff 	.word	0xffa700df
80119b34:	8400df00 	.word	0xdf0084
80119b38:	9aff6d00 	.word	0x6dff9a
80119b3c:	efff1b00 	.word	0x1bffef
80119b40:	060015ff 	.word	0xff150006
80119b44:	59008400 	.word	0x840059
80119b48:	df005900 	.word	0x5900df
80119b4c:	7cffdf00 	.word	0xdfff7c
80119b50:	1b00faff 	.word	0xfffa001b
80119b54:	15ff6600 	.word	0x66ff15
80119b58:	6d00efff 	.word	0xffef006d
80119b5c:	60ff3900 	.word	0x39ff60
80119b60:	efffa000 	.word	0xa0ffef
80119b64:	c7ffefff 	.word	0xffefffc7
80119b68:	60ffc7ff 	.word	0xffc7ff60
80119b6c:	efff6600 	.word	0x66ffef
80119b70:	93ffefff 	.word	0xffefff93
80119b74:	9aff93ff 	.word	0xff93ff9a
80119b78:	efffa000 	.word	0xa0ffef
80119b7c:	3900efff 	.word	0xffef0039
80119b80:	00000000 	nop
80119b84:	1d010000 	.word	0x11d
80119b88:	b1ffa9ff 	.word	0xffa9ffb1
80119b8c:	00004f00 	.word	0x4f0000
80119b90:	a9ffeaff 	.word	0xffeaffa9
80119b94:	faff15ff 	.word	0xff15fffa
80119b98:	eafff9ff 	.word	0xfff9ffea
80119b9c:	fcfe0000 	.word	0xfefc
80119ba0:	faff15ff 	.word	0xff15fffa
80119ba4:	0000f9ff 	.word	0xfff90000
80119ba8:	fcfe0000 	.word	0xfefc
80119bac:	060015ff 	.word	0xff150006
80119bb0:	00000700 	sll	zero,a3,0x0
80119bb4:	fcfe1600 	.word	0x16fefc
80119bb8:	060015ff 	.word	0xff150006
80119bbc:	16000700 	.word	0x70016
80119bc0:	fcfeeaff 	.word	0xffeafefc
80119bc4:	faff15ff 	.word	0xff15fffa
80119bc8:	eafff9ff 	.word	0xfff9ffea
80119bcc:	fcfe0000 	.word	0xfefc
80119bd0:	faff15ff 	.word	0xff15fffa
80119bd4:	0000f9ff 	.word	0xfff90000
80119bd8:	fcfe0000 	.word	0xfefc
80119bdc:	060015ff 	.word	0xff150006
80119be0:	00000700 	sll	zero,a3,0x0
80119be4:	fcfe1600 	.word	0x16fefc
80119be8:	060015ff 	.word	0xff150006
80119bec:	16000700 	.word	0x70016
80119bf0:	fcfe46ff 	.word	0xff46fefc
80119bf4:	54003100 	.word	0x310054
80119bf8:	95ff9c00 	.word	0x9cff95
80119bfc:	310046ff 	.word	0xff460031
80119c00:	acff3100 	.word	0x31ffac
80119c04:	6b009c00 	.word	0x9c006b
80119c08:	310095ff 	.word	0xff950031
80119c0c:	64ff3100 	.word	0x31ff64
80119c10:	ba005400 	.word	0x5400ba
80119c14:	3100ba00 	.word	0xba0031
80119c18:	acff3100 	.word	0x31ffac
80119c1c:	6b0064ff 	.word	0xff64006b
80119c20:	31000000 	.word	0x31
80119c24:	00007aff 	.word	0xff7a0000
80119c28:	000079ff 	.word	0xff790000
80119c2c:	efff0000 	.word	0xffef
80119c30:	47ff3100 	.word	0x31ff47
80119c34:	000064ff 	.word	0xff640000
80119c38:	df000000 	.word	0xdf
80119c3c:	8700efff 	.word	0xffef0087
80119c40:	0000b900 	.word	0xb90000
80119c44:	31000000 	.word	0x31
80119c48:	9c00df00 	.word	0xdf009c
80119c4c:	b8000000 	.word	0xb8
80119c50:	efff48ff 	.word	0xff48ffef
80119c54:	0000efff 	.word	0xffef0000
80119c58:	30ff0000 	.word	0xff30
80119c5c:	3100d000 	.word	0xd00031
80119c60:	00003100 	.word	0x310000
80119c64:	4bff0000 	.word	0xff4b
80119c68:	df00b500 	.word	0xb500df
80119c6c:	0000df00 	.word	0xdf0000
80119c70:	de009dff 	.word	0xff9d00de
80119c74:	8c0083ff 	.word	0xff83008c
80119c78:	b5008c00 	.word	0x8c00b5
80119c7c:	7d004bff 	.word	0xff4b007d
80119c80:	8c0022ff 	.word	0xff22008c
80119c84:	63008c00 	.word	0x8c0063
80119c88:	08ff0000 	.word	0xff08
80119c8c:	8c000000 	syscall	0x2
80119c90:	2aff8c00 	.word	0x8cff2a
80119c94:	83ff4bff 	.word	0xff4bff83
80119c98:	8c0022ff 	.word	0xff22008c
80119c9c:	9dff8c00 	.word	0x8cff9d
80119ca0:	0000d600 	.word	0xd60000
80119ca4:	8c00f800 	syscall	0x3e002
80119ca8:	00008c00 	.word	0x8c0000
80119cac:	de006300 	.word	0x6300de
80119cb0:	8c007d00 	syscall	0x1f402
80119cb4:	b5008c00 	.word	0x8c00b5
80119cb8:	5eff4a00 	.word	0x4aff5e
80119cbc:	df00afff 	.word	0xffaf00df
80119cc0:	040049ff 	.word	0xff490004
80119cc4:	5effb6ff 	.word	0xffb6ff5e
80119cc8:	df00afff 	.word	0xffaf00df
80119ccc:	fcff49ff 	.word	0xff49fffc
80119cd0:	a2004a00 	.word	0x4a00a2
80119cd4:	df005100 	.word	0x5100df
80119cd8:	040049ff 	.word	0xff490004
80119cdc:	a200b6ff 	.word	0xffb600a2
80119ce0:	df005100 	.word	0x5100df
80119ce4:	fcff49ff 	.word	0xff49fffc
80119ce8:	8500dbff 	.word	0xffdb0085
80119cec:	a9ff7bff 	.word	0xff7bffa9
80119cf0:	dbffa9ff 	.word	0xffa9ffdb
80119cf4:	85002500 	.word	0x250085
80119cf8:	a9ff7bff 	.word	0xff7bffa9
80119cfc:	2500a9ff 	.word	0xffa90025
80119d00:	98ff0000 	.word	0xff98
80119d04:	76ff6800 	.word	0x68ff76
80119d08:	000076ff 	.word	0xff760000
80119d0c:	e5fffaff 	.word	0xfffaffe5
80119d10:	16ffe5ff 	.word	0xffe5ff16
80119d14:	060016ff 	.word	0xff160006
80119d18:	a7ff7cff 	.word	0xff7cffa7
80119d1c:	df00a7ff 	.word	0xffa700df
80119d20:	8400df00 	.word	0xdf0084
80119d24:	99ff7000 	.word	0x70ff99
80119d28:	efff1b00 	.word	0x1bffef
80119d2c:	060016ff 	.word	0xff160006
80119d30:	59008400 	.word	0x840059
80119d34:	df005900 	.word	0x5900df
80119d38:	7cffdf00 	.word	0xdfff7c
80119d3c:	1b00faff 	.word	0xfffa001b
80119d40:	16ff6700 	.word	0x67ff16
80119d44:	7000efff 	.word	0xffef0070
80119d48:	5dff3b00 	.word	0x3bff5d
80119d4c:	efffa300 	.word	0xa3ffef
80119d50:	c5ffefff 	.word	0xffefffc5
80119d54:	5dffc5ff 	.word	0xffc5ff5d
80119d58:	efff6700 	.word	0x67ffef
80119d5c:	90ffefff 	.word	0xffefff90
80119d60:	99ff90ff 	.word	0xff90ff99
80119d64:	efffa300 	.word	0xa3ffef
80119d68:	3b00efff 	.word	0xffef003b
80119d6c:	00000000 	nop
80119d70:	1d010000 	.word	0x11d
80119d74:	adffa9ff 	.word	0xffa9ffad
80119d78:	00005300 	.word	0x530000
80119d7c:	a9ffeaff 	.word	0xffeaffa9
80119d80:	faff16ff 	.word	0xff16fffa
80119d84:	eafff9ff 	.word	0xfff9ffea
80119d88:	fdfe0000 	.word	0xfefd
80119d8c:	faff16ff 	.word	0xff16fffa
80119d90:	0000f9ff 	.word	0xfff90000
80119d94:	fdfe0000 	.word	0xfefd
80119d98:	060016ff 	.word	0xff160006
80119d9c:	00000700 	sll	zero,a3,0x0
80119da0:	fdfe1600 	.word	0x16fefd
80119da4:	060016ff 	.word	0xff160006
80119da8:	16000700 	.word	0x70016
80119dac:	fdfeeaff 	.word	0xffeafefd
80119db0:	faff16ff 	.word	0xff16fffa
80119db4:	eafff9ff 	.word	0xfff9ffea
80119db8:	fdfe0000 	.word	0xfefd
80119dbc:	faff16ff 	.word	0xff16fffa
80119dc0:	0000f9ff 	.word	0xfff90000
80119dc4:	fdfe0000 	.word	0xfefd
80119dc8:	060016ff 	.word	0xff160006
80119dcc:	00000700 	sll	zero,a3,0x0
80119dd0:	fdfe1600 	.word	0x16fefd
80119dd4:	060016ff 	.word	0xff160006
80119dd8:	16000700 	.word	0x70016
80119ddc:	fdfe45ff 	.word	0xff45fefd
80119de0:	54003100 	.word	0x310054
80119de4:	94ff9d00 	.word	0x9dff94
80119de8:	310045ff 	.word	0xff450031
80119dec:	acff3100 	.word	0x31ffac
80119df0:	6c009d00 	.word	0x9d006c
80119df4:	310094ff 	.word	0xff940031
80119df8:	63ff3100 	.word	0x31ff63
80119dfc:	bb005400 	.word	0x5400bb
80119e00:	3100bb00 	.word	0xbb0031
80119e04:	acff3100 	.word	0x31ffac
80119e08:	6c0063ff 	.word	0xff63006c
80119e0c:	31000000 	.word	0x31
80119e10:	00007aff 	.word	0xff7a0000
80119e14:	000076ff 	.word	0xff760000
80119e18:	efff0000 	.word	0xffef
80119e1c:	45ff3100 	.word	0x31ff45
80119e20:	000064ff 	.word	0xff640000
80119e24:	df000000 	.word	0xdf
80119e28:	8a00efff 	.word	0xffef008a
80119e2c:	0000bb00 	.word	0xbb0000
80119e30:	31000000 	.word	0x31
80119e34:	9c00df00 	.word	0xdf009c
80119e38:	ba000000 	.word	0xba
80119e3c:	efff46ff 	.word	0xff46ffef
80119e40:	0000efff 	.word	0xffef0000
80119e44:	2fff0000 	.word	0xff2f
80119e48:	3100d100 	.word	0xd10031
80119e4c:	00003100 	.word	0x310000
80119e50:	4cff0000 	syscall	0x3fd
80119e54:	df00b400 	.word	0xb400df
80119e58:	0000df00 	.word	0xdf0000
80119e5c:	de009dff 	.word	0xff9d00de
80119e60:	8c0083ff 	.word	0xff83008c
80119e64:	b5008c00 	.word	0x8c00b5
80119e68:	7d004bff 	.word	0xff4b007d
80119e6c:	8c0022ff 	.word	0xff22008c
80119e70:	63008c00 	.word	0x8c0063
80119e74:	09ff0000 	.word	0xff09
80119e78:	8c000000 	syscall	0x2
80119e7c:	2aff8c00 	.word	0x8cff2a
80119e80:	83ff4bff 	.word	0xff4bff83
80119e84:	8c0022ff 	.word	0xff22008c
80119e88:	9dff8c00 	.word	0x8cff9d
80119e8c:	0000d600 	.word	0xd60000
80119e90:	8c00f700 	syscall	0x3dc02
80119e94:	00008c00 	.word	0x8c0000
80119e98:	de006300 	.word	0x6300de
80119e9c:	8c007d00 	syscall	0x1f402
80119ea0:	b5008c00 	.word	0x8c00b5
80119ea4:	5fff4a00 	.word	0x4aff5f
80119ea8:	df00afff 	.word	0xffaf00df
80119eac:	040049ff 	.word	0xff490004
80119eb0:	5fffb6ff 	.word	0xffb6ff5f
80119eb4:	df00afff 	.word	0xffaf00df
80119eb8:	fcff49ff 	.word	0xff49fffc
80119ebc:	a1004a00 	.word	0x4a00a1
80119ec0:	df005100 	.word	0x5100df
80119ec4:	040049ff 	.word	0xff490004
80119ec8:	a100b6ff 	.word	0xffb600a1
80119ecc:	df005100 	.word	0x5100df
80119ed0:	fcff49ff 	.word	0xff49fffc
80119ed4:	8a00d6ff 	.word	0xffd6008a
80119ed8:	a9ff76ff 	.word	0xff76ffa9
80119edc:	d6ffa9ff 	.word	0xffa9ffd6
80119ee0:	8a002a00 	.word	0x2a008a
80119ee4:	a9ff76ff 	.word	0xff76ffa9
80119ee8:	2a00a9ff 	.word	0xffa9002a
80119eec:	93ff0000 	.word	0xff93
80119ef0:	76ff6d00 	.word	0x6dff76
80119ef4:	000076ff 	.word	0xff760000
80119ef8:	e5fffaff 	.word	0xfffaffe5
80119efc:	18ffe5ff 	.word	0xffe5ff18
80119f00:	060018ff 	.word	0xff180006
80119f04:	a8ff7cff 	.word	0xff7cffa8
80119f08:	df00a8ff 	.word	0xffa800df
80119f0c:	8400df00 	.word	0xdf0084
80119f10:	96ff7700 	.word	0x77ff96
80119f14:	efff1b00 	.word	0x1bffef
80119f18:	060018ff 	.word	0xff180006
80119f1c:	58008400 	.word	0x840058
80119f20:	df005800 	.word	0x5800df
80119f24:	7cffdf00 	.word	0xdfff7c
80119f28:	1b00faff 	.word	0xfffa001b
80119f2c:	18ff6a00 	.word	0x6aff18
80119f30:	7700efff 	.word	0xffef0077
80119f34:	58ff3e00 	.word	0x3eff58
80119f38:	efffa800 	.word	0xa8ffef
80119f3c:	c2ffefff 	.word	0xffefffc2
80119f40:	58ffc2ff 	.word	0xffc2ff58
80119f44:	efff6a00 	.word	0x6affef
80119f48:	89ffefff 	.word	0xffefff89
80119f4c:	96ff89ff 	.word	0xff89ff96
80119f50:	efffa800 	.word	0xa8ffef
80119f54:	3e00efff 	.word	0xffef003e
80119f58:	00000000 	nop
80119f5c:	1d010000 	.word	0x11d
80119f60:	a2ffa9ff 	.word	0xffa9ffa2
80119f64:	00005e00 	.word	0x5e0000
80119f68:	a9ffeaff 	.word	0xffeaffa9
80119f6c:	faff18ff 	.word	0xff18fffa
80119f70:	eafff9ff 	.word	0xfff9ffea
80119f74:	fffe0000 	.word	0xfeff
80119f78:	faff18ff 	.word	0xff18fffa
80119f7c:	0000f9ff 	.word	0xfff90000
80119f80:	fffe0000 	.word	0xfeff
80119f84:	060018ff 	.word	0xff180006
80119f88:	00000700 	sll	zero,a3,0x0
80119f8c:	fffe1600 	.word	0x16feff
80119f90:	060018ff 	.word	0xff180006
80119f94:	16000700 	.word	0x70016
80119f98:	fffeeaff 	.word	0xffeafeff
80119f9c:	faff18ff 	.word	0xff18fffa
80119fa0:	eafff9ff 	.word	0xfff9ffea
80119fa4:	fffe0000 	.word	0xfeff
80119fa8:	faff18ff 	.word	0xff18fffa
80119fac:	0000f9ff 	.word	0xfff90000
80119fb0:	fffe0000 	.word	0xfeff
80119fb4:	060018ff 	.word	0xff180006
80119fb8:	00000700 	sll	zero,a3,0x0
80119fbc:	fffe1600 	.word	0x16feff
80119fc0:	060018ff 	.word	0xff180006
80119fc4:	16000700 	.word	0x70016
80119fc8:	fffe41ff 	.word	0xff41feff
80119fcc:	57003100 	.word	0x310057
80119fd0:	92ffa200 	.word	0xa2ff92
80119fd4:	310041ff 	.word	0xff410031
80119fd8:	a9ff3100 	.word	0x31ffa9
80119fdc:	6e00a200 	.word	0xa2006e
80119fe0:	310092ff 	.word	0xff920031
80119fe4:	5eff3100 	.word	0x31ff5e
80119fe8:	bf005700 	.word	0x5700bf
80119fec:	3100bf00 	.word	0xbf0031
80119ff0:	a9ff3100 	.word	0x31ffa9
80119ff4:	6e005eff 	.word	0xff5e006e
80119ff8:	31000000 	.word	0x31
80119ffc:	00007aff 	.word	0xff7a0000
8011a000:	00006dff 	.word	0xff6d0000
8011a004:	efff0000 	.word	0xffef
8011a008:	40ff3100 	.word	0x31ff40
8011a00c:	000064ff 	.word	0xff640000
8011a010:	df000000 	.word	0xdf
8011a014:	9300efff 	.word	0xffef0093
8011a018:	0000c000 	.word	0xc00000
8011a01c:	31000000 	.word	0x31
8011a020:	9c00df00 	.word	0xdf009c
8011a024:	bf000000 	.word	0xbf
8011a028:	efff41ff 	.word	0xff41ffef
8011a02c:	0000efff 	.word	0xffef0000
8011a030:	2aff0000 	.word	0xff2a
8011a034:	3100d600 	.word	0xd60031
8011a038:	00003100 	.word	0x310000
8011a03c:	4eff0000 	.word	0xff4e
8011a040:	df00b200 	.word	0xb200df
8011a044:	0000df00 	.word	0xdf0000
8011a048:	dc009dff 	.word	0xff9d00dc
8011a04c:	8c0084ff 	.word	0xff84008c
8011a050:	b5008c00 	.word	0x8c00b5
8011a054:	7c004bff 	.word	0xff4b007c
8011a058:	8c0024ff 	.word	0xff24008c
8011a05c:	63008c00 	.word	0x8c0063
8011a060:	0bff0000 	.word	0xff0b
8011a064:	8c000000 	syscall	0x2
8011a068:	2aff8c00 	.word	0x8cff2a
8011a06c:	84ff4bff 	.word	0xff4bff84
8011a070:	8c0024ff 	.word	0xff24008c
8011a074:	9dff8c00 	.word	0x8cff9d
8011a078:	0000d600 	.word	0xd60000
8011a07c:	8c00f500 	syscall	0x3d402
8011a080:	00008c00 	.word	0x8c0000
8011a084:	dc006300 	.word	0x6300dc
8011a088:	8c007c00 	syscall	0x1f002
8011a08c:	b5008c00 	.word	0x8c00b5
8011a090:	62ff4a00 	.word	0x4aff62
8011a094:	df00aeff 	.word	0xffae00df
8011a098:	040049ff 	.word	0xff490004
8011a09c:	62ffb6ff 	.word	0xffb6ff62
8011a0a0:	df00aeff 	.word	0xffae00df
8011a0a4:	fcff49ff 	.word	0xff49fffc
8011a0a8:	9e004a00 	.word	0x4a009e
8011a0ac:	df005200 	.word	0x5200df
8011a0b0:	040049ff 	.word	0xff490004
8011a0b4:	9e00b6ff 	.word	0xffb6009e
8011a0b8:	df005200 	.word	0x5200df
8011a0bc:	fcff49ff 	.word	0xff49fffc
8011a0c0:	9300cfff 	.word	0xffcf0093
8011a0c4:	a9ff6dff 	.word	0xff6dffa9
8011a0c8:	cfffa9ff 	.word	0xffa9ffcf
8011a0cc:	93003100 	.word	0x310093
8011a0d0:	a9ff6dff 	.word	0xff6dffa9
8011a0d4:	3100a9ff 	.word	0xffa90031
8011a0d8:	8cff0000 	syscall	0x3fe
8011a0dc:	76ff7400 	.word	0x74ff76
8011a0e0:	000076ff 	.word	0xff760000
8011a0e4:	e5fffaff 	.word	0xfffaffe5
8011a0e8:	1cffe5ff 	.word	0xffe5ff1c
8011a0ec:	06001cff 	.word	0xff1c0006
8011a0f0:	a9ff7cff 	.word	0xff7cffa9
8011a0f4:	df00a9ff 	.word	0xffa900df
8011a0f8:	8400df00 	.word	0xdf0084
8011a0fc:	92ff8100 	.word	0x81ff92
8011a100:	efff1b00 	.word	0x1bffef
8011a104:	06001cff 	.word	0xff1c0006
8011a108:	57008400 	.word	0x840057
8011a10c:	df005700 	.word	0x5700df
8011a110:	7cffdf00 	.word	0xdfff7c
8011a114:	1b00faff 	.word	0xfffa001b
8011a118:	1cff6e00 	.word	0x6eff1c
8011a11c:	8100efff 	.word	0xffef0081
8011a120:	4fff4400 	.word	0x44ff4f
8011a124:	efffb100 	.word	0xb1ffef
8011a128:	bcffefff 	.word	0xffefffbc
8011a12c:	4fffbcff 	.word	0xffbcff4f
8011a130:	efff6e00 	.word	0x6effef
8011a134:	7fffefff 	.word	0xffefff7f
8011a138:	92ff7fff 	.word	0xff7fff92
8011a13c:	efffb100 	.word	0xb1ffef
8011a140:	4400efff 	.word	0xffef0044
8011a144:	00000000 	nop
8011a148:	1d010000 	.word	0x11d
8011a14c:	92ffa9ff 	.word	0xffa9ff92
8011a150:	00006e00 	.word	0x6e0000
8011a154:	a9ffeaff 	.word	0xffeaffa9
8011a158:	faff1cff 	.word	0xff1cfffa
8011a15c:	eafff9ff 	.word	0xfff9ffea
8011a160:	03ff0000 	sra	ra,zero,0x1c
8011a164:	faff1cff 	.word	0xff1cfffa
8011a168:	0000f9ff 	.word	0xfff90000
8011a16c:	03ff0000 	sra	ra,zero,0x1c
8011a170:	06001cff 	.word	0xff1c0006
8011a174:	00000700 	sll	zero,a3,0x0
8011a178:	03ff1600 	sra	ra,s6,0x1c
8011a17c:	06001cff 	.word	0xff1c0006
8011a180:	16000700 	.word	0x70016
8011a184:	03ffeaff 	.word	0xffeaff03
8011a188:	faff1cff 	.word	0xff1cfffa
8011a18c:	eafff9ff 	.word	0xfff9ffea
8011a190:	03ff0000 	sra	ra,zero,0x1c
8011a194:	faff1cff 	.word	0xff1cfffa
8011a198:	0000f9ff 	.word	0xfff90000
8011a19c:	03ff0000 	sra	ra,zero,0x1c
8011a1a0:	06001cff 	.word	0xff1c0006
8011a1a4:	00000700 	sll	zero,a3,0x0
8011a1a8:	03ff1600 	sra	ra,s6,0x1c
8011a1ac:	06001cff 	.word	0xff1c0006
8011a1b0:	16000700 	.word	0x70016
8011a1b4:	03ff3bff 	.word	0xff3bff03
8011a1b8:	5a003100 	.word	0x31005a
8011a1bc:	8fffa800 	.word	0xa8ff8f
8011a1c0:	31003bff 	.word	0xff3b0031
8011a1c4:	a6ff3100 	.word	0x31ffa6
8011a1c8:	7100a800 	.word	0xa80071
8011a1cc:	31008fff 	.word	0xff8f0031
8011a1d0:	58ff3100 	.word	0x31ff58
8011a1d4:	c5005a00 	.word	0x5a00c5
8011a1d8:	3100c500 	.word	0xc50031
8011a1dc:	a6ff3100 	.word	0x31ffa6
8011a1e0:	710058ff 	.word	0xff580071
8011a1e4:	31000000 	.word	0x31
8011a1e8:	00007aff 	.word	0xff7a0000
8011a1ec:	000060ff 	.word	0xff600000
8011a1f0:	efff0000 	.word	0xffef
8011a1f4:	39ff3100 	.word	0x31ff39
8011a1f8:	000064ff 	.word	0xff640000
8011a1fc:	df000000 	.word	0xdf
8011a200:	a000efff 	.word	0xffef00a0
8011a204:	0000c700 	.word	0xc70000
8011a208:	31000000 	.word	0x31
8011a20c:	9c00df00 	.word	0xdf009c
8011a210:	c7000000 	.word	0xc7
8011a214:	efff39ff 	.word	0xff39ffef
8011a218:	0000efff 	.word	0xffef0000
8011a21c:	24ff0000 	.word	0xff24
8011a220:	3100dc00 	.word	0xdc0031
8011a224:	00003100 	.word	0x310000
8011a228:	50ff0000 	.word	0xff50
8011a22c:	df00b000 	.word	0xb000df
8011a230:	0000df00 	.word	0xdf0000
8011a234:	d9009dff 	.word	0xff9d00d9
8011a238:	8c0086ff 	.word	0xff86008c
8011a23c:	b5008c00 	.word	0x8c00b5
8011a240:	7a004bff 	.word	0xff4b007a
8011a244:	8c0027ff 	.word	0xff27008c
8011a248:	63008c00 	.word	0x8c0063
8011a24c:	0eff0000 	.word	0xff0e
8011a250:	8c000000 	syscall	0x2
8011a254:	2aff8c00 	.word	0x8cff2a
8011a258:	86ff4bff 	.word	0xff4bff86
8011a25c:	8c0027ff 	.word	0xff27008c
8011a260:	9dff8c00 	.word	0x8cff9d
8011a264:	0000d600 	.word	0xd60000
8011a268:	8c00f200 	syscall	0x3c802
8011a26c:	00008c00 	.word	0x8c0000
8011a270:	d9006300 	.word	0x6300d9
8011a274:	8c007a00 	syscall	0x1e802
8011a278:	b5008c00 	.word	0x8c00b5
8011a27c:	64ff4a00 	.word	0x4aff64
8011a280:	df00adff 	.word	0xffad00df
8011a284:	040049ff 	.word	0xff490004
8011a288:	64ffb6ff 	.word	0xffb6ff64
8011a28c:	df00adff 	.word	0xffad00df
8011a290:	fcff49ff 	.word	0xff49fffc
8011a294:	9c004a00 	.word	0x4a009c
8011a298:	df005300 	.word	0x5300df
8011a29c:	040049ff 	.word	0xff490004
8011a2a0:	9c00b6ff 	.word	0xffb6009c
8011a2a4:	df005300 	.word	0x5300df
8011a2a8:	fcff49ff 	.word	0xff49fffc
8011a2ac:	9d00c6ff 	.word	0xffc6009d
8011a2b0:	a9ff63ff 	.word	0xff63ffa9
8011a2b4:	c6ffa9ff 	.word	0xffa9ffc6
8011a2b8:	9d003a00 	.word	0x3a009d
8011a2bc:	a9ff63ff 	.word	0xff63ffa9
8011a2c0:	3a00a9ff 	.word	0xffa9003a
8011a2c4:	83ff0000 	sra	ra,zero,0x1e
8011a2c8:	76ff7d00 	.word	0x7dff76
8011a2cc:	000076ff 	.word	0xff760000
8011a2d0:	e5fffaff 	.word	0xfffaffe5
8011a2d4:	1fffe5ff 	.word	0xffe5ff1f
8011a2d8:	06001fff 	.word	0xff1f0006
8011a2dc:	aaff7cff 	.word	0xff7cffaa
8011a2e0:	df00aaff 	.word	0xffaa00df
8011a2e4:	8400df00 	.word	0xdf0084
8011a2e8:	8dff8d00 	break	0x8d,0x3fe
8011a2ec:	efff1b00 	.word	0x1bffef
8011a2f0:	06001fff 	.word	0xff1f0006
8011a2f4:	56008400 	.word	0x840056
8011a2f8:	df005600 	.word	0x5600df
8011a2fc:	7cffdf00 	.word	0xdfff7c
8011a300:	1b00faff 	.word	0xfffa001b
8011a304:	1fff7300 	.word	0x73ff1f
8011a308:	8d00efff 	.word	0xffef008d
8011a30c:	45ff4a00 	.word	0x4aff45
8011a310:	efffbb00 	.word	0xbbffef
8011a314:	b6ffefff 	.word	0xffefffb6
8011a318:	45ffb6ff 	.word	0xffb6ff45
8011a31c:	efff7300 	.word	0x73ffef
8011a320:	73ffefff 	.word	0xffefff73
8011a324:	8dff73ff 	.word	0xff73ff8d
8011a328:	efffbb00 	.word	0xbbffef
8011a32c:	4a00efff 	.word	0xffef004a
8011a330:	00000000 	nop
8011a334:	1d010000 	.word	0x11d
8011a338:	7fffa9ff 	.word	0xffa9ff7f
8011a33c:	00008100 	.word	0x810000
8011a340:	a9ffeaff 	.word	0xffeaffa9
8011a344:	faff1fff 	.word	0xff1ffffa
8011a348:	eafff9ff 	.word	0xfff9ffea
8011a34c:	07ff0000 	.word	0xff07
8011a350:	faff1fff 	.word	0xff1ffffa
8011a354:	0000f9ff 	.word	0xfff90000
8011a358:	07ff0000 	.word	0xff07
8011a35c:	06001fff 	.word	0xff1f0006
8011a360:	00000700 	sll	zero,a3,0x0
8011a364:	07ff1600 	.word	0x16ff07
8011a368:	06001fff 	.word	0xff1f0006
8011a36c:	16000700 	.word	0x70016
8011a370:	07ffeaff 	.word	0xffeaff07
8011a374:	faff1fff 	.word	0xff1ffffa
8011a378:	eafff9ff 	.word	0xfff9ffea
8011a37c:	07ff0000 	.word	0xff07
8011a380:	faff1fff 	.word	0xff1ffffa
8011a384:	0000f9ff 	.word	0xfff90000
8011a388:	07ff0000 	.word	0xff07
8011a38c:	06001fff 	.word	0xff1f0006
8011a390:	00000700 	sll	zero,a3,0x0
8011a394:	07ff1600 	.word	0x16ff07
8011a398:	06001fff 	.word	0xff1f0006
8011a39c:	16000700 	.word	0x70016
8011a3a0:	07ff35ff 	.word	0xff35ff07
8011a3a4:	5e003100 	.word	0x31005e
8011a3a8:	8bffaf00 	.word	0xafff8b
8011a3ac:	310035ff 	.word	0xff350031
8011a3b0:	a2ff3100 	.word	0x31ffa2
8011a3b4:	7500af00 	.word	0xaf0075
8011a3b8:	31008bff 	.word	0xff8b0031
8011a3bc:	51ff3100 	.word	0x31ff51
8011a3c0:	cb005e00 	.word	0x5e00cb
8011a3c4:	3100cb00 	.word	0xcb0031
8011a3c8:	a2ff3100 	.word	0x31ffa2
8011a3cc:	750051ff 	.word	0xff510075
8011a3d0:	31000000 	.word	0x31
8011a3d4:	00007aff 	.word	0xff7a0000
8011a3d8:	000052ff 	.word	0xff520000
8011a3dc:	efff0000 	.word	0xffef
8011a3e0:	30ff3100 	.word	0x31ff30
8011a3e4:	000064ff 	.word	0xff640000
8011a3e8:	df000000 	.word	0xdf
8011a3ec:	ae00efff 	.word	0xffef00ae
8011a3f0:	0000d000 	.word	0xd00000
8011a3f4:	31000000 	.word	0x31
8011a3f8:	9c00df00 	.word	0xdf009c
8011a3fc:	d0000000 	.word	0xd0
8011a400:	efff30ff 	.word	0xff30ffef
8011a404:	0000efff 	.word	0xffef0000
8011a408:	1dff0000 	.word	0xff1d
8011a40c:	3100e300 	.word	0xe30031
8011a410:	00003100 	.word	0x310000
8011a414:	53ff0000 	.word	0xff53
8011a418:	df00ad00 	.word	0xad00df
8011a41c:	0000df00 	.word	0xdf0000
8011a420:	d7009dff 	.word	0xff9d00d7
8011a424:	8c0087ff 	.word	0xff87008c
8011a428:	b5008c00 	.word	0x8c00b5
8011a42c:	79004bff 	.word	0xff4b0079
8011a430:	8c0029ff 	.word	0xff29008c
8011a434:	63008c00 	.word	0x8c0063
8011a438:	11ff0000 	.word	0xff11
8011a43c:	8c000000 	syscall	0x2
8011a440:	2aff8c00 	.word	0x8cff2a
8011a444:	87ff4bff 	.word	0xff4bff87
8011a448:	8c0029ff 	.word	0xff29008c
8011a44c:	9dff8c00 	.word	0x8cff9d
8011a450:	0000d600 	.word	0xd60000
8011a454:	8c00ef00 	syscall	0x3bc02
8011a458:	00008c00 	.word	0x8c0000
8011a45c:	d7006300 	.word	0x6300d7
8011a460:	8c007900 	syscall	0x1e402
8011a464:	b5008c00 	.word	0x8c00b5
8011a468:	67ff4a00 	.word	0x4aff67
8011a46c:	df00adff 	.word	0xffad00df
8011a470:	040049ff 	.word	0xff490004
8011a474:	67ffb6ff 	.word	0xffb6ff67
8011a478:	df00adff 	.word	0xffad00df
8011a47c:	fcff49ff 	.word	0xff49fffc
8011a480:	99004a00 	.word	0x4a0099
8011a484:	df005300 	.word	0x5300df
8011a488:	040049ff 	.word	0xff490004
8011a48c:	9900b6ff 	.word	0xffb60099
8011a490:	df005300 	.word	0x5300df
8011a494:	fcff49ff 	.word	0xff49fffc
8011a498:	a700beff 	.word	0xffbe00a7
8011a49c:	a9ff59ff 	.word	0xff59ffa9
8011a4a0:	beffa9ff 	.word	0xffa9ffbe
8011a4a4:	a7004200 	.word	0x4200a7
8011a4a8:	a9ff59ff 	.word	0xff59ffa9
8011a4ac:	4200a9ff 	.word	0xffa90042
8011a4b0:	7aff0000 	.word	0xff7a
8011a4b4:	76ff8600 	.word	0x86ff76
8011a4b8:	000076ff 	.word	0xff760000
8011a4bc:	e5fffaff 	.word	0xfffaffe5
8011a4c0:	23ffe5ff 	.word	0xffe5ff23
8011a4c4:	060023ff 	.word	0xff230006
8011a4c8:	acff7cff 	.word	0xff7cffac
8011a4cc:	df00acff 	.word	0xffac00df
8011a4d0:	8400df00 	.word	0xdf0084
8011a4d4:	88ff9900 	.word	0x99ff88
8011a4d8:	efff1b00 	.word	0x1bffef
8011a4dc:	060023ff 	.word	0xff230006
8011a4e0:	54008400 	.word	0x840054
8011a4e4:	df005400 	.word	0x5400df
8011a4e8:	7cffdf00 	.word	0xdfff7c
8011a4ec:	1b00faff 	.word	0xfffa001b
8011a4f0:	23ff7800 	.word	0x78ff23
8011a4f4:	9900efff 	.word	0xffef0099
8011a4f8:	3aff5100 	.word	0x51ff3a
8011a4fc:	efffc600 	.word	0xc6ffef
8011a500:	afffefff 	.word	0xffefffaf
8011a504:	3affafff 	.word	0xffafff3a
8011a508:	efff7800 	.word	0x78ffef
8011a50c:	67ffefff 	.word	0xffefff67
8011a510:	88ff67ff 	.word	0xff67ff88
8011a514:	efffc600 	.word	0xc6ffef
8011a518:	5100efff 	.word	0xffef0051
8011a51c:	00000000 	nop
8011a520:	1d010000 	.word	0x11d
8011a524:	6bffa9ff 	.word	0xffa9ff6b
8011a528:	00009500 	.word	0x950000
8011a52c:	a9ffeaff 	.word	0xffeaffa9
8011a530:	faff23ff 	.word	0xff23fffa
8011a534:	eafff9ff 	.word	0xfff9ffea
8011a538:	0bff0000 	.word	0xff0b
8011a53c:	faff23ff 	.word	0xff23fffa
8011a540:	0000f9ff 	.word	0xfff90000
8011a544:	0bff0000 	.word	0xff0b
8011a548:	060023ff 	.word	0xff230006
8011a54c:	00000700 	sll	zero,a3,0x0
8011a550:	0bff1600 	.word	0x16ff0b
8011a554:	060023ff 	.word	0xff230006
8011a558:	16000700 	.word	0x70016
8011a55c:	0bffeaff 	.word	0xffeaff0b
8011a560:	faff23ff 	.word	0xff23fffa
8011a564:	eafff9ff 	.word	0xfff9ffea
8011a568:	0bff0000 	.word	0xff0b
8011a56c:	faff23ff 	.word	0xff23fffa
8011a570:	0000f9ff 	.word	0xfff90000
8011a574:	0bff0000 	.word	0xff0b
8011a578:	060023ff 	.word	0xff230006
8011a57c:	00000700 	sll	zero,a3,0x0
8011a580:	0bff1600 	.word	0x16ff0b
8011a584:	060023ff 	.word	0xff230006
8011a588:	16000700 	.word	0x70016
8011a58c:	0bff2eff 	.word	0xff2eff0b
8011a590:	62003100 	.word	0x310062
8011a594:	87ffb700 	.word	0xb7ff87
8011a598:	31002eff 	.word	0xff2e0031
8011a59c:	9eff3100 	.word	0x31ff9e
8011a5a0:	7900b700 	.word	0xb70079
8011a5a4:	310087ff 	.word	0xff870031
8011a5a8:	49ff3100 	.word	0x31ff49
8011a5ac:	d2006200 	.word	0x6200d2
8011a5b0:	3100d200 	.word	0xd20031
8011a5b4:	9eff3100 	.word	0x31ff9e
8011a5b8:	790049ff 	.word	0xff490079
8011a5bc:	31000000 	.word	0x31
8011a5c0:	00007aff 	.word	0xff7a0000
8011a5c4:	000042ff 	.word	0xff420000
8011a5c8:	efff0000 	.word	0xffef
8011a5cc:	26ff3100 	.word	0x31ff26
8011a5d0:	000064ff 	.word	0xff640000
8011a5d4:	df000000 	.word	0xdf
8011a5d8:	be00efff 	.word	0xffef00be
8011a5dc:	0000da00 	.word	0xda0000
8011a5e0:	31000000 	.word	0x31
8011a5e4:	9c00df00 	.word	0xdf009c
8011a5e8:	da000000 	.word	0xda
8011a5ec:	efff26ff 	.word	0xff26ffef
8011a5f0:	0000efff 	.word	0xffef0000
8011a5f4:	15ff0000 	.word	0xff15
8011a5f8:	3100eb00 	.word	0xeb0031
8011a5fc:	00003100 	.word	0x310000
8011a600:	56ff0000 	.word	0xff56
8011a604:	df00aa00 	.word	0xaa00df
8011a608:	0000df00 	.word	0xdf0000
8011a60c:	d3009dff 	.word	0xff9d00d3
8011a610:	8c0089ff 	.word	0xff89008c
8011a614:	b5008c00 	.word	0x8c00b5
8011a618:	77004bff 	.word	0xff4b0077
8011a61c:	8c002dff 	.word	0xff2d008c
8011a620:	63008c00 	.word	0x8c0063
8011a624:	14ff0000 	.word	0xff14
8011a628:	8c000000 	syscall	0x2
8011a62c:	2aff8c00 	.word	0x8cff2a
8011a630:	89ff4bff 	.word	0xff4bff89
8011a634:	8c002dff 	.word	0xff2d008c
8011a638:	9dff8c00 	.word	0x8cff9d
8011a63c:	0000d600 	.word	0xd60000
8011a640:	8c00ec00 	syscall	0x3b002
8011a644:	00008c00 	.word	0x8c0000
8011a648:	d3006300 	.word	0x6300d3
8011a64c:	8c007700 	syscall	0x1dc02
8011a650:	b5008c00 	.word	0x8c00b5
8011a654:	69ff4a00 	.word	0x4aff69
8011a658:	df00acff 	.word	0xffac00df
8011a65c:	040049ff 	.word	0xff490004
8011a660:	69ffb6ff 	.word	0xffb6ff69
8011a664:	df00acff 	.word	0xffac00df
8011a668:	fcff49ff 	.word	0xff49fffc
8011a66c:	97004a00 	.word	0x4a0097
8011a670:	df005400 	.word	0x5400df
8011a674:	040049ff 	.word	0xff490004
8011a678:	9700b6ff 	.word	0xffb60097
8011a67c:	df005400 	.word	0x5400df
8011a680:	fcff49ff 	.word	0xff49fffc
8011a684:	b100b5ff 	.word	0xffb500b1
8011a688:	a9ff4fff 	.word	0xff4fffa9
8011a68c:	b5ffa9ff 	.word	0xffa9ffb5
8011a690:	b1004b00 	.word	0x4b00b1
8011a694:	a9ff4fff 	.word	0xff4fffa9
8011a698:	4b00a9ff 	.word	0xffa9004b
8011a69c:	72ff0000 	.word	0xff72
8011a6a0:	76ff8e00 	.word	0x8eff76
8011a6a4:	000076ff 	.word	0xff760000
8011a6a8:	e5fffaff 	.word	0xfffaffe5
8011a6ac:	27ffe5ff 	.word	0xffe5ff27
8011a6b0:	060027ff 	.word	0xff270006
8011a6b4:	adff7cff 	.word	0xff7cffad
8011a6b8:	df00adff 	.word	0xffad00df
8011a6bc:	8400df00 	.word	0xdf0084
8011a6c0:	83ffa500 	.word	0xa5ff83
8011a6c4:	efff1b00 	.word	0x1bffef
8011a6c8:	060027ff 	.word	0xff270006
8011a6cc:	53008400 	.word	0x840053
8011a6d0:	df005300 	.word	0x5300df
8011a6d4:	7cffdf00 	.word	0xdfff7c
8011a6d8:	1b00faff 	.word	0xfffa001b
8011a6dc:	27ff7d00 	.word	0x7dff27
8011a6e0:	a500efff 	.word	0xffef00a5
8011a6e4:	30ff5700 	.word	0x57ff30
8011a6e8:	efffd000 	.word	0xd0ffef
8011a6ec:	a9ffefff 	.word	0xffefffa9
8011a6f0:	30ffa9ff 	.word	0xffa9ff30
8011a6f4:	efff7d00 	.word	0x7dffef
8011a6f8:	5bffefff 	.word	0xffefff5b
8011a6fc:	83ff5bff 	.word	0xff5bff83
8011a700:	efffd000 	.word	0xd0ffef
8011a704:	5700efff 	.word	0xffef0057
8011a708:	00000000 	nop
8011a70c:	1d010000 	.word	0x11d
8011a710:	58ffa9ff 	.word	0xffa9ff58
8011a714:	0000a800 	.word	0xa80000
8011a718:	a9ffeaff 	.word	0xffeaffa9
8011a71c:	faff27ff 	.word	0xff27fffa
8011a720:	eafff9ff 	.word	0xfff9ffea
8011a724:	0fff0000 	.word	0xff0f
8011a728:	faff27ff 	.word	0xff27fffa
8011a72c:	0000f9ff 	.word	0xfff90000
8011a730:	0fff0000 	.word	0xff0f
8011a734:	060027ff 	.word	0xff270006
8011a738:	00000700 	sll	zero,a3,0x0
8011a73c:	0fff1600 	.word	0x16ff0f
8011a740:	060027ff 	.word	0xff270006
8011a744:	16000700 	.word	0x70016
8011a748:	0fffeaff 	.word	0xffeaff0f
8011a74c:	faff27ff 	.word	0xff27fffa
8011a750:	eafff9ff 	.word	0xfff9ffea
8011a754:	0fff0000 	.word	0xff0f
8011a758:	faff27ff 	.word	0xff27fffa
8011a75c:	0000f9ff 	.word	0xfff90000
8011a760:	0fff0000 	.word	0xff0f
8011a764:	060027ff 	.word	0xff270006
8011a768:	00000700 	sll	zero,a3,0x0
8011a76c:	0fff1600 	.word	0x16ff0f
8011a770:	060027ff 	.word	0xff270006
8011a774:	16000700 	.word	0x70016
8011a778:	0fff28ff 	.word	0xff28ff0f
8011a77c:	66003100 	.word	0x310066
8011a780:	83ffbf00 	.word	0xbfff83
8011a784:	310028ff 	.word	0xff280031
8011a788:	9aff3100 	.word	0x31ff9a
8011a78c:	7d00bf00 	.word	0xbf007d
8011a790:	310083ff 	.word	0xff830031
8011a794:	41ff3100 	.word	0x31ff41
8011a798:	d8006600 	.word	0x6600d8
8011a79c:	3100d800 	.word	0xd80031
8011a7a0:	9aff3100 	.word	0x31ff9a
8011a7a4:	7d0041ff 	.word	0xff41007d
8011a7a8:	31000000 	.word	0x31
8011a7ac:	00007aff 	.word	0xff7a0000
8011a7b0:	000033ff 	.word	0xff330000
8011a7b4:	efff0000 	.word	0xffef
8011a7b8:	1eff3100 	.word	0x31ff1e
8011a7bc:	000064ff 	.word	0xff640000
8011a7c0:	df000000 	.word	0xdf
8011a7c4:	cd00efff 	.word	0xffef00cd
8011a7c8:	0000e200 	.word	0xe20000
8011a7cc:	31000000 	.word	0x31
8011a7d0:	9c00df00 	.word	0xdf009c
8011a7d4:	e3000000 	.word	0xe3
8011a7d8:	efff1dff 	.word	0xff1dffef
8011a7dc:	0000efff 	.word	0xffef0000
8011a7e0:	0eff0000 	.word	0xff0e
8011a7e4:	3100f200 	.word	0xf20031
8011a7e8:	00003100 	.word	0x310000
8011a7ec:	58ff0000 	.word	0xff58
8011a7f0:	df00a800 	.word	0xa800df
8011a7f4:	0000df00 	.word	0xdf0000
8011a7f8:	d0009dff 	.word	0xff9d00d0
8011a7fc:	8c008bff 	.word	0xff8b008c
8011a800:	b5008c00 	.word	0x8c00b5
8011a804:	75004bff 	.word	0xff4b0075
8011a808:	8c0030ff 	.word	0xff30008c
8011a80c:	63008c00 	.word	0x8c0063
8011a810:	18ff0000 	.word	0xff18
8011a814:	8c000000 	syscall	0x2
8011a818:	2aff8c00 	.word	0x8cff2a
8011a81c:	8bff4bff 	.word	0xff4bff8b
8011a820:	8c0030ff 	.word	0xff30008c
8011a824:	9dff8c00 	.word	0x8cff9d
8011a828:	0000d600 	.word	0xd60000
8011a82c:	8c00e800 	syscall	0x3a002
8011a830:	00008c00 	.word	0x8c0000
8011a834:	d0006300 	.word	0x6300d0
8011a838:	8c007500 	syscall	0x1d402
8011a83c:	b5008c00 	.word	0x8c00b5
8011a840:	6bff4a00 	.word	0x4aff6b
8011a844:	df00abff 	.word	0xffab00df
8011a848:	040049ff 	.word	0xff490004
8011a84c:	6bffb6ff 	.word	0xffb6ff6b
8011a850:	df00abff 	.word	0xffab00df
8011a854:	fcff49ff 	.word	0xff49fffc
8011a858:	95004a00 	.word	0x4a0095
8011a85c:	df005500 	.word	0x5500df
8011a860:	040049ff 	.word	0xff490004
8011a864:	9500b6ff 	.word	0xffb60095
8011a868:	df005500 	.word	0x5500df
8011a86c:	fcff49ff 	.word	0xff49fffc
8011a870:	ba00aeff 	.word	0xffae00ba
8011a874:	a9ff46ff 	.word	0xff46ffa9
8011a878:	aeffa9ff 	.word	0xffa9ffae
8011a87c:	ba005200 	.word	0x5200ba
8011a880:	a9ff46ff 	.word	0xff46ffa9
8011a884:	5200a9ff 	.word	0xffa90052
8011a888:	6bff0000 	.word	0xff6b
8011a88c:	76ff9500 	.word	0x95ff76
8011a890:	000076ff 	.word	0xff760000
8011a894:	e5fffaff 	.word	0xfffaffe5
8011a898:	2affe5ff 	.word	0xffe5ff2a
8011a89c:	06002aff 	.word	0xff2a0006
8011a8a0:	aeff7cff 	.word	0xff7cffae
8011a8a4:	df00aeff 	.word	0xffae00df
8011a8a8:	8400df00 	.word	0xdf0084
8011a8ac:	7effaf00 	.word	0xafff7e
8011a8b0:	efff1b00 	.word	0x1bffef
8011a8b4:	06002aff 	.word	0xff2a0006
8011a8b8:	52008400 	.word	0x840052
8011a8bc:	df005200 	.word	0x5200df
8011a8c0:	7cffdf00 	.word	0xdfff7c
8011a8c4:	1b00faff 	.word	0xfffa001b
8011a8c8:	2aff8200 	.word	0x82ff2a
8011a8cc:	af00efff 	.word	0xffef00af
8011a8d0:	27ff5c00 	.word	0x5cff27
8011a8d4:	efffd900 	.word	0xd9ffef
8011a8d8:	a4ffefff 	.word	0xffefffa4
8011a8dc:	27ffa4ff 	.word	0xffa4ff27
8011a8e0:	efff8200 	.word	0x82ffef
8011a8e4:	51ffefff 	.word	0xffefff51
8011a8e8:	7eff51ff 	.word	0xff51ff7e
8011a8ec:	efffd900 	.word	0xd9ffef
8011a8f0:	5c00efff 	.word	0xffef005c
8011a8f4:	00000000 	nop
8011a8f8:	1d010000 	.word	0x11d
8011a8fc:	49ffa9ff 	.word	0xffa9ff49
8011a900:	0000b700 	.word	0xb70000
8011a904:	a9ffeaff 	.word	0xffeaffa9
8011a908:	faff2aff 	.word	0xff2afffa
8011a90c:	eafff9ff 	.word	0xfff9ffea
8011a910:	13ff0000 	.word	0xff13
8011a914:	faff2aff 	.word	0xff2afffa
8011a918:	0000f9ff 	.word	0xfff90000
8011a91c:	13ff0000 	.word	0xff13
8011a920:	06002aff 	.word	0xff2a0006
8011a924:	00000700 	sll	zero,a3,0x0
8011a928:	13ff1600 	.word	0x16ff13
8011a92c:	06002aff 	.word	0xff2a0006
8011a930:	16000700 	.word	0x70016
8011a934:	13ffeaff 	.word	0xffeaff13
8011a938:	faff2aff 	.word	0xff2afffa
8011a93c:	eafff9ff 	.word	0xfff9ffea
8011a940:	13ff0000 	.word	0xff13
8011a944:	faff2aff 	.word	0xff2afffa
8011a948:	0000f9ff 	.word	0xfff90000
8011a94c:	13ff0000 	.word	0xff13
8011a950:	06002aff 	.word	0xff2a0006
8011a954:	00000700 	sll	zero,a3,0x0
8011a958:	13ff1600 	.word	0x16ff13
8011a95c:	06002aff 	.word	0xff2a0006
8011a960:	16000700 	.word	0x70016
8011a964:	13ff22ff 	.word	0xff22ff13
8011a968:	6a003100 	.word	0x31006a
8011a96c:	80ffc500 	.word	0xc5ff80
8011a970:	310022ff 	.word	0xff220031
8011a974:	96ff3100 	.word	0x31ff96
8011a978:	8000c500 	.word	0xc50080
8011a97c:	310080ff 	.word	0xff800031
8011a980:	3bff3100 	.word	0x31ff3b
8011a984:	de006a00 	.word	0x6a00de
8011a988:	3100de00 	.word	0xde0031
8011a98c:	96ff3100 	.word	0x31ff96
8011a990:	80003bff 	.word	0xff3b0080
8011a994:	31000000 	.word	0x31
8011a998:	00007aff 	.word	0xff7a0000
8011a99c:	000027ff 	.word	0xff270000
8011a9a0:	efff0000 	.word	0xffef
8011a9a4:	16ff3100 	.word	0x31ff16
8011a9a8:	000064ff 	.word	0xff640000
8011a9ac:	df000000 	.word	0xdf
8011a9b0:	d900efff 	.word	0xffef00d9
8011a9b4:	0000ea00 	.word	0xea0000
8011a9b8:	31000000 	.word	0x31
8011a9bc:	9c00df00 	.word	0xdf009c
8011a9c0:	eb000000 	.word	0xeb
8011a9c4:	efff15ff 	.word	0xff15ffef
8011a9c8:	0000efff 	.word	0xffef0000
8011a9cc:	08ff0000 	.word	0xff08
8011a9d0:	3100f800 	.word	0xf80031
8011a9d4:	00003100 	.word	0x310000
8011a9d8:	5bff0000 	.word	0xff5b
8011a9dc:	df00a500 	.word	0xa500df
8011a9e0:	0000df00 	.word	0xdf0000
8011a9e4:	ce009dff 	.word	0xff9d00ce
8011a9e8:	8c008cff 	.word	0xff8c008c
8011a9ec:	b5008c00 	.word	0x8c00b5
8011a9f0:	74004bff 	.word	0xff4b0074
8011a9f4:	8c0032ff 	.word	0xff32008c
8011a9f8:	63008c00 	.word	0x8c0063
8011a9fc:	1aff0000 	.word	0xff1a
8011aa00:	8c000000 	syscall	0x2
8011aa04:	2aff8c00 	.word	0x8cff2a
8011aa08:	8cff4bff 	.word	0xff4bff8c
8011aa0c:	8c0032ff 	.word	0xff32008c
8011aa10:	9dff8c00 	.word	0x8cff9d
8011aa14:	0000d600 	.word	0xd60000
8011aa18:	8c00e600 	syscall	0x39802
8011aa1c:	00008c00 	.word	0x8c0000
8011aa20:	ce006300 	.word	0x6300ce
8011aa24:	8c007400 	syscall	0x1d002
8011aa28:	b5008c00 	.word	0x8c00b5
8011aa2c:	6dff4a00 	.word	0x4aff6d
8011aa30:	df00abff 	.word	0xffab00df
8011aa34:	040049ff 	.word	0xff490004
8011aa38:	6dffb6ff 	.word	0xffb6ff6d
8011aa3c:	df00abff 	.word	0xffab00df
8011aa40:	fcff49ff 	.word	0xff49fffc
8011aa44:	93004a00 	.word	0x4a0093
8011aa48:	df005500 	.word	0x5500df
8011aa4c:	040049ff 	.word	0xff490004
8011aa50:	9300b6ff 	.word	0xffb60093
8011aa54:	df005500 	.word	0x5500df
8011aa58:	fcff49ff 	.word	0xff49fffc
8011aa5c:	bf00a9ff 	.word	0xffa900bf
8011aa60:	a9ff41ff 	.word	0xff41ffa9
8011aa64:	a9ffa9ff 	.word	0xffa9ffa9
8011aa68:	bf005700 	.word	0x5700bf
8011aa6c:	a9ff41ff 	.word	0xff41ffa9
8011aa70:	5700a9ff 	.word	0xffa90057
8011aa74:	66ff0000 	.word	0xff66
8011aa78:	76ff9a00 	.word	0x9aff76
8011aa7c:	000076ff 	.word	0xff760000
8011aa80:	e5fffaff 	.word	0xfffaffe5
8011aa84:	2dffe5ff 	.word	0xffe5ff2d
8011aa88:	06002dff 	.word	0xff2d0006
8011aa8c:	afff7cff 	.word	0xff7cffaf
8011aa90:	df00afff 	.word	0xffaf00df
8011aa94:	8400df00 	.word	0xdf0084
8011aa98:	7bffb600 	.word	0xb6ff7b
8011aa9c:	efff1b00 	.word	0x1bffef
8011aaa0:	06002dff 	.word	0xff2d0006
8011aaa4:	51008400 	.word	0x840051
8011aaa8:	df005100 	.word	0x5100df
8011aaac:	7cffdf00 	.word	0xdfff7c
8011aab0:	1b00faff 	.word	0xfffa001b
8011aab4:	2dff8500 	.word	0x85ff2d
8011aab8:	b600efff 	.word	0xffef00b6
8011aabc:	21ff6000 	.word	0x60ff21
8011aac0:	efffdf00 	.word	0xdfffef
8011aac4:	a0ffefff 	.word	0xffefffa0
8011aac8:	21ffa0ff 	.word	0xffa0ff21
8011aacc:	efff8500 	.word	0x85ffef
8011aad0:	4affefff 	.word	0xffefff4a
8011aad4:	7bff4aff 	.word	0xff4aff7b
8011aad8:	efffdf00 	.word	0xdfffef
8011aadc:	6000efff 	.word	0xffef0060
8011aae0:	00000000 	nop
8011aae4:	1d010000 	.word	0x11d
8011aae8:	3effa9ff 	.word	0xffa9ff3e
8011aaec:	0000c200 	.word	0xc20000
8011aaf0:	a9ffeaff 	.word	0xffeaffa9
8011aaf4:	faff2dff 	.word	0xff2dfffa
8011aaf8:	eafff9ff 	.word	0xfff9ffea
8011aafc:	15ff0000 	.word	0xff15
8011ab00:	faff2dff 	.word	0xff2dfffa
8011ab04:	0000f9ff 	.word	0xfff90000
8011ab08:	15ff0000 	.word	0xff15
8011ab0c:	06002dff 	.word	0xff2d0006
8011ab10:	00000700 	sll	zero,a3,0x0
8011ab14:	15ff1600 	.word	0x16ff15
8011ab18:	06002dff 	.word	0xff2d0006
8011ab1c:	16000700 	.word	0x70016
8011ab20:	15ffeaff 	.word	0xffeaff15
8011ab24:	faff2dff 	.word	0xff2dfffa
8011ab28:	eafff9ff 	.word	0xfff9ffea
8011ab2c:	15ff0000 	.word	0xff15
8011ab30:	faff2dff 	.word	0xff2dfffa
8011ab34:	0000f9ff 	.word	0xfff90000
8011ab38:	15ff0000 	.word	0xff15
8011ab3c:	06002dff 	.word	0xff2d0006
8011ab40:	00000700 	sll	zero,a3,0x0
8011ab44:	15ff1600 	.word	0x16ff15
8011ab48:	06002dff 	.word	0xff2d0006
8011ab4c:	16000700 	.word	0x70016
8011ab50:	15ff1eff 	.word	0xff1eff15
8011ab54:	6c003100 	.word	0x31006c
8011ab58:	7effc900 	.word	0xc9ff7e
8011ab5c:	31001eff 	.word	0xff1e0031
8011ab60:	94ff3100 	.word	0x31ff94
8011ab64:	8200c900 	.word	0xc90082
8011ab68:	31007eff 	.word	0xff7e0031
8011ab6c:	37ff3100 	.word	0x31ff37
8011ab70:	e2006c00 	.word	0x6c00e2
8011ab74:	3100e200 	.word	0xe20031
8011ab78:	94ff3100 	.word	0x31ff94
8011ab7c:	820037ff 	.word	0xff370082
8011ab80:	31000000 	.word	0x31
8011ab84:	00007aff 	.word	0xff7a0000
8011ab88:	00001eff 	.word	0xff1e0000
8011ab8c:	efff0000 	.word	0xffef
8011ab90:	11ff3100 	.word	0x31ff11
8011ab94:	000064ff 	.word	0xff640000
8011ab98:	df000000 	.word	0xdf
8011ab9c:	e200efff 	.word	0xffef00e2
8011aba0:	0000ef00 	.word	0xef0000
8011aba4:	31000000 	.word	0x31
8011aba8:	9c00df00 	.word	0xdf009c
8011abac:	f0000000 	.word	0xf0
8011abb0:	efff10ff 	.word	0xff10ffef
8011abb4:	0000efff 	.word	0xffef0000
8011abb8:	04ff0000 	.word	0xff04
8011abbc:	3100fc00 	.word	0xfc0031
8011abc0:	00003100 	.word	0x310000
8011abc4:	5cff0000 	.word	0xff5c
8011abc8:	df00a400 	.word	0xa400df
8011abcc:	0000df00 	.word	0xdf0000
8011abd0:	cc009dff 	.word	0xff9d00cc
8011abd4:	8c008dff 	.word	0xff8d008c
8011abd8:	b5008c00 	.word	0x8c00b5
8011abdc:	73004bff 	.word	0xff4b0073
8011abe0:	8c0034ff 	.word	0xff34008c
8011abe4:	63008c00 	.word	0x8c0063
8011abe8:	1cff0000 	.word	0xff1c
8011abec:	8c000000 	syscall	0x2
8011abf0:	2aff8c00 	.word	0x8cff2a
8011abf4:	8dff4bff 	.word	0xff4bff8d
8011abf8:	8c0034ff 	.word	0xff34008c
8011abfc:	9dff8c00 	.word	0x8cff9d
8011ac00:	0000d600 	.word	0xd60000
8011ac04:	8c00e400 	syscall	0x39002
8011ac08:	00008c00 	.word	0x8c0000
8011ac0c:	cc006300 	syscall	0x18c03
8011ac10:	8c007300 	syscall	0x1cc02
8011ac14:	b5008c00 	.word	0x8c00b5
8011ac18:	6dff4a00 	.word	0x4aff6d
8011ac1c:	df00abff 	.word	0xffab00df
8011ac20:	040049ff 	.word	0xff490004
8011ac24:	6dffb6ff 	.word	0xffb6ff6d
8011ac28:	df00abff 	.word	0xffab00df
8011ac2c:	fcff49ff 	.word	0xff49fffc
8011ac30:	93004a00 	.word	0x4a0093
8011ac34:	df005500 	.word	0x5500df
8011ac38:	040049ff 	.word	0xff490004
8011ac3c:	9300b6ff 	.word	0xffb60093
8011ac40:	df005500 	.word	0x5500df
8011ac44:	fcff49ff 	.word	0xff49fffc
8011ac48:	c100a7ff 	.word	0xffa700c1
8011ac4c:	a9ff3fff 	.word	0xff3fffa9
8011ac50:	a7ffa9ff 	.word	0xffa9ffa7
8011ac54:	c1005900 	.word	0x5900c1
8011ac58:	a9ff3fff 	.word	0xff3fffa9
8011ac5c:	5900a9ff 	.word	0xffa90059
8011ac60:	64ff0000 	.word	0xff64
8011ac64:	76ff9c00 	.word	0x9cff76
8011ac68:	000076ff 	.word	0xff760000
8011ac6c:	e5fffaff 	.word	0xfffaffe5
8011ac70:	2dffe5ff 	.word	0xffe5ff2d
8011ac74:	06002dff 	.word	0xff2d0006
8011ac78:	afff7cff 	.word	0xff7cffaf
8011ac7c:	df00afff 	.word	0xffaf00df
8011ac80:	8400df00 	.word	0xdf0084
8011ac84:	7affb900 	.word	0xb9ff7a
8011ac88:	efff1b00 	.word	0x1bffef
8011ac8c:	06002dff 	.word	0xff2d0006
8011ac90:	51008400 	.word	0x840051
8011ac94:	df005100 	.word	0x5100df
8011ac98:	7cffdf00 	.word	0xdfff7c
8011ac9c:	1b00faff 	.word	0xfffa001b
8011aca0:	2dff8600 	.word	0x86ff2d
8011aca4:	b900efff 	.word	0xffef00b9
8011aca8:	1fff6100 	.word	0x61ff1f
8011acac:	efffe100 	.word	0xe1ffef
8011acb0:	9fffefff 	.word	0xffefff9f
8011acb4:	1fff9fff 	.word	0xff9fff1f
8011acb8:	efff8600 	.word	0x86ffef
8011acbc:	47ffefff 	.word	0xffefff47
8011acc0:	7aff47ff 	.word	0xff47ff7a
8011acc4:	efffe100 	.word	0xe1ffef
8011acc8:	6100efff 	.word	0xffef0061
8011accc:	00000000 	nop
8011acd0:	1d010000 	.word	0x11d
8011acd4:	3affa9ff 	.word	0xffa9ff3a
8011acd8:	0000c600 	.word	0xc60000
8011acdc:	a9ffeaff 	.word	0xffeaffa9
8011ace0:	faff2dff 	.word	0xff2dfffa
8011ace4:	eafff9ff 	.word	0xfff9ffea
8011ace8:	16ff0000 	.word	0xff16
8011acec:	faff2dff 	.word	0xff2dfffa
8011acf0:	0000f9ff 	.word	0xfff90000
8011acf4:	16ff0000 	.word	0xff16
8011acf8:	06002dff 	.word	0xff2d0006
8011acfc:	00000700 	sll	zero,a3,0x0
8011ad00:	16ff1600 	.word	0x16ff16
8011ad04:	06002dff 	.word	0xff2d0006
8011ad08:	16000700 	.word	0x70016
8011ad0c:	16ffeaff 	.word	0xffeaff16
8011ad10:	faff2dff 	.word	0xff2dfffa
8011ad14:	eafff9ff 	.word	0xfff9ffea
8011ad18:	16ff0000 	.word	0xff16
8011ad1c:	faff2dff 	.word	0xff2dfffa
8011ad20:	0000f9ff 	.word	0xfff90000
8011ad24:	16ff0000 	.word	0xff16
8011ad28:	06002dff 	.word	0xff2d0006
8011ad2c:	00000700 	sll	zero,a3,0x0
8011ad30:	16ff1600 	.word	0x16ff16
8011ad34:	06002dff 	.word	0xff2d0006
8011ad38:	16000700 	.word	0x70016
8011ad3c:	16ff1dff 	.word	0xff1dff16
8011ad40:	6d003100 	.word	0x31006d
8011ad44:	7dffcb00 	.word	0xcbff7d
8011ad48:	31001dff 	.word	0xff1d0031
8011ad4c:	93ff3100 	.word	0x31ff93
8011ad50:	8300cb00 	.word	0xcb0083
8011ad54:	31007dff 	.word	0xff7d0031
8011ad58:	35ff3100 	.word	0x31ff35
8011ad5c:	e3006d00 	.word	0x6d00e3
8011ad60:	3100e300 	.word	0xe30031
8011ad64:	93ff3100 	.word	0x31ff93
8011ad68:	830035ff 	.word	0xff350083
8011ad6c:	31000000 	.word	0x31
8011ad70:	00007aff 	.word	0xff7a0000
8011ad74:	00001bff 	.word	0xff1b0000
8011ad78:	efff0000 	.word	0xffef
8011ad7c:	0fff3100 	.word	0x31ff0f
8011ad80:	000064ff 	.word	0xff640000
8011ad84:	df000000 	.word	0xdf
8011ad88:	e500efff 	.word	0xffef00e5
8011ad8c:	0000f100 	.word	0xf10000
8011ad90:	31000000 	.word	0x31
8011ad94:	9c00df00 	.word	0xdf009c
8011ad98:	f2000000 	.word	0xf2
8011ad9c:	efff0eff 	.word	0xff0effef
8011ada0:	0000efff 	.word	0xffef0000
8011ada4:	02ff0000 	srl	ra,zero,0x1c
8011ada8:	3100fe00 	.word	0xfe0031
8011adac:	00003100 	.word	0x310000
8011adb0:	5dff0000 	.word	0xff5d
8011adb4:	df00a300 	.word	0xa300df
8011adb8:	0000df00 	.word	0xdf0000
8011adbc:	cc009dff 	.word	0xff9d00cc
8011adc0:	8c008dff 	.word	0xff8d008c
8011adc4:	b5008c00 	.word	0x8c00b5
8011adc8:	73004bff 	.word	0xff4b0073
8011adcc:	8c0034ff 	.word	0xff34008c
8011add0:	63008c00 	.word	0x8c0063
8011add4:	1dff0000 	.word	0xff1d
8011add8:	8c000000 	syscall	0x2
8011addc:	2aff8c00 	.word	0x8cff2a
8011ade0:	8dff4bff 	.word	0xff4bff8d
8011ade4:	8c0034ff 	.word	0xff34008c
8011ade8:	9dff8c00 	.word	0x8cff9d
8011adec:	0000d600 	.word	0xd60000
8011adf0:	8c00e300 	syscall	0x38c02
8011adf4:	00008c00 	.word	0x8c0000
8011adf8:	cc006300 	syscall	0x18c03
8011adfc:	8c007300 	syscall	0x1cc02
8011ae00:	b5008c00 	.word	0x8c00b5
8011ae04:	682a1280 	lb	s2,10856(zero)
8011ae08:	542c1280 	lb	s2,11348(zero)
8011ae0c:	402e1280 	lb	s2,11840(zero)
8011ae10:	2c301280 	lb	s2,12332(zero)
8011ae14:	18321280 	lb	s2,12824(zero)
8011ae18:	04341280 	lb	s2,13316(zero)
8011ae1c:	f0351280 	lb	s2,13808(zero)
8011ae20:	dc371280 	lb	s2,14300(zero)
8011ae24:	c8391280 	lb	s2,14792(zero)
8011ae28:	b43b1280 	lb	s2,15284(zero)
8011ae2c:	00000200 	sll	zero,v0,0x0
8011ae30:	04010403 	.word	0x3040104
8011ae34:	00040401 	.word	0x1040400
8011ae38:	02030404 	.word	0x4040302
8011ae3c:	00000402 	.word	0x2040000
8011ae40:	01000402 	.word	0x2040001
8011ae44:	00010402 	.word	0x2040100
8011ae48:	03010400 	sra	zero,a0,0x4
8011ae4c:	00000200 	sll	zero,v0,0x0
8011ae50:	04010403 	.word	0x3040104
8011ae54:	00040401 	.word	0x1040400
8011ae58:	02030404 	.word	0x4040302
8011ae5c:	00000402 	.word	0x2040000
8011ae60:	01000402 	.word	0x2040001
8011ae64:	00010402 	.word	0x2040100
8011ae68:	03010400 	sra	zero,a0,0x4
8011ae6c:	00000200 	sll	zero,v0,0x0
8011ae70:	04010403 	.word	0x3040104
8011ae74:	00040401 	.word	0x1040400
8011ae78:	02030404 	.word	0x4040302
8011ae7c:	00000402 	.word	0x2040000
8011ae80:	01000402 	.word	0x2040001
8011ae84:	00010402 	.word	0x2040100
8011ae88:	03010400 	sra	zero,a0,0x4
8011ae8c:	00000200 	sll	zero,v0,0x0
8011ae90:	04010403 	.word	0x3040104
8011ae94:	00040401 	.word	0x1040400
8011ae98:	02030404 	.word	0x4040302
8011ae9c:	00000402 	.word	0x2040000
8011aea0:	01000402 	.word	0x2040001
8011aea4:	00010402 	.word	0x2040100
8011aea8:	03010400 	sra	zero,a0,0x4
8011aeac:	00000200 	sll	zero,v0,0x0
8011aeb0:	04010403 	.word	0x3040104
8011aeb4:	00040401 	.word	0x1040400
8011aeb8:	02030404 	.word	0x4040302
8011aebc:	00000402 	.word	0x2040000
8011aec0:	01000402 	.word	0x2040001
8011aec4:	00010402 	.word	0x2040100
8011aec8:	03010400 	sra	zero,a0,0x4
8011aecc:	00000200 	sll	zero,v0,0x0
8011aed0:	04010403 	.word	0x3040104
8011aed4:	00040401 	.word	0x1040400
8011aed8:	02030404 	.word	0x4040302
8011aedc:	00000402 	.word	0x2040000
8011aee0:	01000402 	.word	0x2040001
8011aee4:	00010402 	.word	0x2040100
8011aee8:	03010400 	sra	zero,a0,0x4
8011aeec:	c83d1280 	lb	s2,15816(zero)
8011aef0:	d83d1280 	lb	s2,15832(zero)
8011aef4:	e83d1280 	lb	s2,15848(zero)
8011aef8:	f83d1280 	lb	s2,15864(zero)
8011aefc:	083e1280 	lb	s2,15880(zero)
8011af00:	183e1280 	lb	s2,15896(zero)
8011af04:	283e1280 	lb	s2,15912(zero)
8011af08:	383e1280 	lb	s2,15928(zero)
8011af0c:	483e1280 	lb	s2,15944(zero)
8011af10:	583e1280 	lb	s2,15960(zero)
8011af14:	683e1280 	lb	s2,15976(zero)
8011af18:	783e1280 	lb	s2,15992(zero)
8011af1c:	ffff0000 	.word	0xffff
8011af20:	00000000 	nop
8011af24:	00000400 	sll	zero,a0,0x0
8011af28:	b6ff4700 	.word	0x47ffb6
8011af2c:	0100fcff 	.word	0xfffc0001
8011af30:	00004700 	.word	0x470000
8011af34:	00000400 	sll	zero,a0,0x0
8011af38:	b6ffb9ff 	.word	0xffb9ffb6
8011af3c:	0300fcff 	.word	0xfffc0003
8011af40:	0000b9ff 	.word	0xffb90000
8011af44:	24f01180 	lb	s1,-4060(zero)
8011af48:	38ee1180 	lb	s1,-4552(zero)
8011af4c:	4cec1180 	lb	s1,-5044(zero)
8011af50:	60ea1180 	lb	s1,-5536(zero)
8011af54:	74e81180 	lb	s1,-6028(zero)
8011af58:	88e61180 	lb	s1,-6520(zero)
8011af5c:	0c000900 	syscall	0x2400
8011af60:	03003700 	.word	0x370003
8011af64:	40001900 	sll	zero,t9,0x1
8011af68:	02001e00 	srl	zero,s8,0x0
8011af6c:	10000100 	.word	0x10010
8011af70:	20000b00 	add	zero,zero,t3
8011af74:	07001f00 	srav	zero,ra,zero
8011af78:	08000a00 	.word	0xa0008
8011af7c:	17002000 	.word	0x200017
8011af80:	08000d00 	.word	0xd0008
8011af84:	07001c00 	srav	zero,gp,zero
8011af88:	09001a00 	.word	0x1a0009
8011af8c:	02004a00 	.word	0x4a0002
8011af90:	44000c00 	.word	0xc0044
8011af94:	0f000100 	.word	0x1000f
8011af98:	20000500 	add	zero,zero,a1
8011af9c:	0a000000 	.word	0xa
8011afa0:	47001100 	.word	0x110047
8011afa4:	04001e00 	sllv	zero,s8,zero
8011afa8:	14000600 	.word	0x60014
8011afac:	48001500 	.word	0x150048
8011afb0:	1f000300 	.word	0x3001f
8011afb4:	09000e00 	.word	0xe0009
8011afb8:	0c000300 	syscall	0xc00
8011afbc:	13002000 	mtlo	at
8011afc0:	0f003400 	.word	0x34000f
8011afc4:	3d001700 	.word	0x17003d
8011afc8:	3c001e00 	.word	0x1e003c
8011afcc:	15001f00 	.word	0x1f0015
8011afd0:	3a001b00 	.word	0x1b003a
8011afd4:	1f001600 	.word	0x16001f
8011afd8:	0e003f00 	.word	0x3f000e
8011afdc:	1e001100 	.word	0x11001e
8011afe0:	1e000600 	.word	0x6001e
8011afe4:	15001e00 	.word	0x1e0015
8011afe8:	45000600 	.word	0x60045
8011afec:	1e000000 	.word	0x1e
8011aff0:	11004400 	.word	0x440011
8011aff4:	1e000200 	.word	0x2001e
8011aff8:	20003d00 	add	zero,at,sp
8011affc:	12003600 	.word	0x360012
8011b000:	17001d00 	.word	0x1d0017
8011b004:	40000800 	sll	zero,t0,0x1
8011b008:	19001b00 	multu	zero,k1
8011b00c:	08001f00 	.word	0x1f0008
8011b010:	48003c00 	.word	0x3c0048
8011b014:	15003300 	.word	0x330015
8011b018:	1c001a00 	.word	0x1a001c
8011b01c:	41000b00 	.word	0xb0041
8011b020:	18001200 	mult	zero,s2
8011b024:	0b002000 	.word	0x20000b
8011b028:	13000d00 	.word	0xd0013
8011b02c:	05000d00 	.word	0xd0005
8011b030:	16000700 	.word	0x70016
8011b034:	39001600 	.word	0x160039
8011b038:	0d003900 	break	0x39
8011b03c:	0f000c00 	.word	0xc000f
8011b040:	0d000a00 	break	0xa
8011b044:	05000a00 	.word	0xa0005
8011b048:	0d000800 	break	0x8
8011b04c:	0b000c00 	.word	0xc000b
8011b050:	01000c00 	.word	0xc0001
8011b054:	0b000900 	.word	0x9000b
8011b058:	1f000700 	.word	0x7001f
8011b05c:	16000300 	.word	0x30016
8011b060:	1f000e00 	.word	0xe001f
8011b064:	20000100 	add	zero,zero,at
8011b068:	0f000500 	.word	0x5000f
8011b06c:	20001300 	add	zero,zero,s3
8011b070:	09001c00 	.word	0x1c0009
8011b074:	1f000800 	.word	0x8001f
8011b078:	1b001900 	divu	zero,zero,t9
8011b07c:	17000a00 	.word	0xa0017
8011b080:	1d000b00 	.word	0xb001d
8011b084:	12001800 	.word	0x180012
8011b088:	22002300 	sub	zero,at,v1
8011b08c:	24002600 	and	zero,at,a2
8011b090:	27002800 	nor	zero,at,t0
8011b094:	23002200 	subu	zero,at,v0
8011b098:	21002700 	addu	zero,at,a3
8011b09c:	26002500 	xor	zero,at,a1
8011b0a0:	2f002e00 	.word	0x2e002f
8011b0a4:	30002b00 	.word	0x2b0030
8011b0a8:	2a002c00 	slt	zero,at,t4
8011b0ac:	2a002b00 	slt	zero,at,t3
8011b0b0:	29002e00 	.word	0x2e0029
8011b0b4:	2f002d00 	.word	0x2d002f
8011b0b8:	31004100 	.word	0x410031
8011b0bc:	18001200 	mult	zero,s2
8011b0c0:	31001800 	.word	0x180031
8011b0c4:	47003f00 	.word	0x3f0047
8011b0c8:	11005000 	.word	0x500011
8011b0cc:	34003600 	.word	0x360034
8011b0d0:	04004f00 	sllv	zero,t7,v0
8011b0d4:	45001b00 	.word	0x1b0045
8011b0d8:	37001900 	.word	0x190037
8011b0dc:	35003a00 	.word	0x3a0035
8011b0e0:	1c004d00 	.word	0x4d001c
8011b0e4:	35003300 	.word	0x330035
8011b0e8:	37001b00 	.word	0x1b0037
8011b0ec:	38001c00 	.word	0x1c0038
8011b0f0:	33003500 	.word	0x350033
8011b0f4:	31001200 	.word	0x120031
8011b0f8:	32001700 	.word	0x170032
8011b0fc:	36003400 	.word	0x340036
8011b100:	13003900 	.word	0x390013
8011b104:	0d003900 	break	0x39
8011b108:	13000f00 	.word	0xf0013
8011b10c:	0e003900 	.word	0x39000e
8011b110:	0c001600 	syscall	0x5800
8011b114:	39000e00 	.word	0xe0039
8011b118:	3d002000 	.word	0x20003d
8011b11c:	17003d00 	.word	0x3d0017
8011b120:	32001200 	.word	0x120032
8011b124:	34004e00 	.word	0x4e0034
8011b128:	3e001e00 	.word	0x1e003e
8011b12c:	3f001400 	.word	0x14003f
8011b130:	1e003c00 	.word	0x3c001e
8011b134:	10003500 	.word	0x350010
8011b138:	4b003b00 	.word	0x3b004b
8011b13c:	3a003800 	.word	0x38003a
8011b140:	1b003a00 	divu	zero,at,k0
8011b144:	1f001c00 	.word	0x1c001f
8011b148:	1e004400 	.word	0x44001e
8011b14c:	00004900 	.word	0x490000
8011b150:	42003100 	.word	0x310042
8011b154:	41003300 	.word	0x330041
8011b158:	1a000900 	div	zero,zero,t1
8011b15c:	41001a00 	.word	0x1a0041
8011b160:	0b004100 	.word	0x41000b
8011b164:	09004500 	.word	0x450009
8011b168:	1e000400 	.word	0x4001e
8011b16c:	46004300 	.word	0x430046
8011b170:	37004000 	.word	0x400037
8011b174:	36001d00 	.word	0x1d0036
8011b178:	0a004000 	.word	0x40000a
8011b17c:	1d004000 	.word	0x40001d
8011b180:	0a000800 	.word	0x8000a
8011b184:	51000400 	.word	0x40051
8011b188:	14004300 	.word	0x430014
8011b18c:	50003600 	.word	0x360050
8011b190:	4f000600 	.word	0x6004f
8011b194:	45003800 	.word	0x380045
8011b198:	46003700 	.word	0x370046
8011b19c:	4b003800 	.word	0x38004b
8011b1a0:	3b003c00 	.word	0x3c003b
8011b1a4:	4c001000 	syscall	0x4001
8011b1a8:	4c000200 	syscall	0x801
8011b1ac:	10004200 	.word	0x420010
8011b1b0:	4d003300 	break	0x33,0x1
8011b1b4:	4a000000 	.word	0x4a
8011b1b8:	44003200 	.word	0x320044
8011b1bc:	49003100 	.word	0x310049
8011b1c0:	4e003200 	.word	0x32004e
8011b1c4:	3e003f00 	.word	0x3f003e
8011b1c8:	51001400 	.word	0x140051
8011b1cc:	3a003500 	.word	0x35003a
8011b1d0:	3b003800 	.word	0x38003b
8011b1d4:	3a003b00 	.word	0x3b003a
8011b1d8:	38004b00 	.word	0x4b0038
8011b1dc:	48004b00 	.word	0x4b0048
8011b1e0:	35004c00 	.word	0x4c0035
8011b1e4:	35004d00 	.word	0x4d0035
8011b1e8:	4c004600 	syscall	0x11801
8011b1ec:	38004800 	.word	0x480038
8011b1f0:	43004600 	.word	0x460043
8011b1f4:	4f005000 	.word	0x50004f
8011b1f8:	43004f00 	.word	0x4f0043
8011b1fc:	40003700 	.word	0x370040
8011b200:	43003600 	.word	0x360043
8011b204:	40004300 	.word	0x430040
8011b208:	06004f00 	srlv	zero,t7,v0
8011b20c:	46004f00 	.word	0x4f0046
8011b210:	04005000 	sllv	zero,s0,v0
8011b214:	48000600 	.word	0x60048
8011b218:	46003c00 	.word	0x3c0046
8011b21c:	48004b00 	.word	0x4b0048
8011b220:	4c003c00 	syscall	0xf001
8011b224:	4b000200 	.word	0x2004b
8011b228:	4c004d00 	syscall	0x13401
8011b22c:	4a000200 	.word	0x2004a
8011b230:	4d000000 	break	0x0,0x1
8011b234:	4a004900 	.word	0x49004a
8011b238:	4d004200 	break	0x42,0x1
8011b23c:	4a004200 	.word	0x42004a
8011b240:	49004a00 	.word	0x4a0049
8011b244:	33004100 	.word	0x410033
8011b248:	42004100 	.word	0x410042
8011b24c:	31004200 	.word	0x420031
8011b250:	32003d00 	.word	0x3d0032
8011b254:	3e003d00 	.word	0x3d003e
8011b258:	34003e00 	.word	0x3e0034
8011b25c:	4e003400 	.word	0x34004e
8011b260:	51003200 	.word	0x320051
8011b264:	4e004700 	.word	0x47004e
8011b268:	51003f00 	.word	0x3f0051
8011b26c:	4e003f00 	.word	0x3f004e
8011b270:	47004e00 	.word	0x4e0047
8011b274:	04005100 	sllv	zero,s1,v0
8011b278:	50004700 	.word	0x470050
8011b27c:	00004900 	.word	0x490000
8011b280:	34005000 	.word	0x500034
8011b284:	51004900 	.word	0x490051
8011b288:	32004700 	.word	0x470032
8011b28c:	14000000 	.word	0x14
8011b290:	14000000 	.word	0x14
8011b294:	14000000 	.word	0x14
8011b298:	14000000 	.word	0x14
8011b29c:	14000000 	.word	0x14
8011b2a0:	15000000 	.word	0x15
8011b2a4:	15000000 	.word	0x15
8011b2a8:	15000000 	.word	0x15
8011b2ac:	15000000 	.word	0x15
8011b2b0:	15000000 	.word	0x15
8011b2b4:	12000000 	mflo	zero
8011b2b8:	13000000 	mtlo	zero
8011b2bc:	14000000 	.word	0x14
8011b2c0:	15000000 	.word	0x15
8011b2c4:	16000000 	.word	0x16
8011b2c8:	37100000 	.word	0x1037
8011b2cc:	02000400 	srl	zero,a0,0x0
8011b2d0:	0d100100 	break	0x1,0x40
8011b2d4:	00009a00 	.word	0x9a0000
8011b2d8:	3a100280 	lb	v0,4154(zero)
8011b2dc:	00000000 	nop
8011b2e0:	37100000 	.word	0x1037
8011b2e4:	bc000400 	.word	0x400bc
8011b2e8:	37800200 	.word	0x28037
8011b2ec:	be001000 	.word	0x1000be
8011b2f0:	05101000 	.word	0x101005
8011b2f4:	00000000 	nop
8011b2f8:	37800100 	.word	0x18037
8011b2fc:	72000400 	.word	0x40072
8011b300:	01500180 	lb	at,20481(zero)
8011b304:	07000200 	srav	zero,v0,zero
8011b308:	00000000 	nop
8011b30c:	8c421280 	lb	s2,17036(zero)
8011b310:	01500180 	lb	at,20481(zero)
8011b314:	07000200 	srav	zero,v0,zero
8011b318:	00000000 	nop
8011b31c:	8c421280 	lb	s2,17036(zero)
8011b320:	01500180 	lb	at,20481(zero)
8011b324:	07000200 	srav	zero,v0,zero
8011b328:	00000000 	nop
8011b32c:	8c421280 	lb	s2,17036(zero)
8011b330:	01500180 	lb	at,20481(zero)
8011b334:	08000200 	.word	0x20008
8011b338:	00000000 	nop
8011b33c:	8c421280 	lb	s2,17036(zero)
8011b340:	01500280 	lb	v0,20481(zero)
8011b344:	08000200 	.word	0x20008
8011b348:	00000000 	nop
8011b34c:	8c421280 	lb	s2,17036(zero)
8011b350:	9c421280 	lb	s2,17052(zero)
8011b354:	ac421280 	lb	s2,17068(zero)
8011b358:	bc421280 	lb	s2,17084(zero)
8011b35c:	cc421280 	lb	s2,17100(zero)
8011b360:	dc421280 	lb	s2,17116(zero)
8011b364:	01100280 	lb	v0,4097(zero)
8011b368:	01000200 	.word	0x20001
8011b36c:	01100280 	lb	v0,4097(zero)
8011b370:	02000200 	srl	zero,v0,0x0
8011b374:	01100280 	lb	v0,4097(zero)
8011b378:	03000200 	sra	zero,v0,0x0
8011b37c:	37800100 	.word	0x18037
8011b380:	02000800 	srl	zero,t0,0x0
8011b384:	01500280 	lb	v0,20481(zero)
8011b388:	00000200 	sll	zero,v0,0x0
8011b38c:	00000000 	nop
8011b390:	00431280 	lb	s2,17152(zero)
8011b394:	01100280 	lb	v0,4097(zero)
8011b398:	01000200 	.word	0x20001
8011b39c:	01100280 	lb	v0,4097(zero)
8011b3a0:	02000200 	srl	zero,v0,0x0
8011b3a4:	01100280 	lb	v0,4097(zero)
8011b3a8:	04000200 	sllv	zero,v0,zero
8011b3ac:	37800100 	.word	0x18037
8011b3b0:	02000800 	srl	zero,t0,0x0
8011b3b4:	01500280 	lb	v0,20481(zero)
8011b3b8:	00000200 	sll	zero,v0,0x0
8011b3bc:	00000000 	nop
8011b3c0:	30431280 	lb	s2,17200(zero)
8011b3c4:	01100280 	lb	v0,4097(zero)
8011b3c8:	01000200 	.word	0x20001
8011b3cc:	01100280 	lb	v0,4097(zero)
8011b3d0:	02000200 	srl	zero,v0,0x0
8011b3d4:	01100280 	lb	v0,4097(zero)
8011b3d8:	05000200 	.word	0x20005
8011b3dc:	37800100 	.word	0x18037
8011b3e0:	02000800 	srl	zero,t0,0x0
8011b3e4:	01500280 	lb	v0,20481(zero)
8011b3e8:	00000200 	sll	zero,v0,0x0
8011b3ec:	00000000 	nop
8011b3f0:	60431280 	lb	s2,17248(zero)
8011b3f4:	01100280 	lb	v0,4097(zero)
8011b3f8:	01000200 	.word	0x20001
8011b3fc:	01100280 	lb	v0,4097(zero)
8011b400:	02000200 	srl	zero,v0,0x0
8011b404:	01100280 	lb	v0,4097(zero)
8011b408:	06000200 	srlv	zero,v0,zero
8011b40c:	37800100 	.word	0x18037
8011b410:	02000800 	srl	zero,t0,0x0
8011b414:	01500280 	lb	v0,20481(zero)
8011b418:	00000200 	sll	zero,v0,0x0
8011b41c:	00000000 	nop
8011b420:	90431280 	lb	s2,17296(zero)
8011b424:	01100180 	lb	at,4097(zero)
8011b428:	01000200 	.word	0x20001
8011b42c:	01100180 	lb	at,4097(zero)
8011b430:	02000200 	srl	zero,v0,0x0
8011b434:	01100180 	lb	at,4097(zero)
8011b438:	07000200 	srav	zero,v0,zero
8011b43c:	37800100 	.word	0x18037
8011b440:	02000800 	srl	zero,t0,0x0
8011b444:	01500180 	lb	at,20481(zero)
8011b448:	00000200 	sll	zero,v0,0x0
8011b44c:	00000000 	nop
8011b450:	c0431280 	lb	s2,17344(zero)
8011b454:	37000100 	.word	0x10037
8011b458:	b9000400 	.word	0x400b9
8011b45c:	00000300 	sll	zero,v1,0x0
8011b460:	0b000000 	.word	0xb
8011b464:	37000100 	.word	0x10037
8011b468:	c4000400 	.word	0x400c4
8011b46c:	00000300 	sll	zero,v1,0x0
8011b470:	0c000000 	syscall
8011b474:	00000300 	sll	zero,v1,0x0
8011b478:	0d000000 	break
8011b47c:	37800200 	.word	0x28037
8011b480:	bf000400 	.word	0x400bf
8011b484:	00431280 	lb	s2,17152(zero)
8011b488:	30431280 	lb	s2,17200(zero)
8011b48c:	60431280 	lb	s2,17248(zero)
8011b490:	90431280 	lb	s2,17296(zero)
8011b494:	c0431280 	lb	s2,17344(zero)
8011b498:	20431280 	lb	s2,17184(zero)
8011b49c:	50431280 	lb	s2,17232(zero)
8011b4a0:	80431280 	lb	s2,17280(zero)
8011b4a4:	b0431280 	lb	s2,17328(zero)
8011b4a8:	e0431280 	lb	s2,17376(zero)
8011b4ac:	0f0b0a0c 	jal	0x80282c3c
8011b4b0:	060d0a0e 	jal	0x88283418
8011b4b4:	0b0f0000 	.word	0xf0b
8011b4b8:	3e100000 	.word	0x103e
8011b4bc:	1c6b1180 	lb	s1,27420(zero)
8011b4c0:	05101e00 	.word	0x1e1005
8011b4c4:	00000000 	nop
8011b4c8:	39100080 	lb	zero,4153(zero)
8011b4cc:	00000200 	sll	zero,v0,0x0
8011b4d0:	12103100 	.word	0x311012
8011b4d4:	00000000 	nop
8011b4d8:	3a800080 	lb	zero,-32710(zero)
8011b4dc:	0600ba00 	srlv	zero,k0,a1
8011b4e0:	2e107500 	.word	0x75102e
8011b4e4:	00000000 	nop
8011b4e8:	3e100000 	.word	0x103e
8011b4ec:	e0691180 	lb	s1,27104(zero)
8011b4f0:	3b100080 	lb	zero,4155(zero)
8011b4f4:	00000000 	nop
8011b4f8:	00100300 	sll	v0,v1,0x0
8011b4fc:	00000000 	nop
8011b500:	39100080 	lb	zero,4153(zero)
8011b504:	0d00c400 	break	0xc4
8011b508:	3e100000 	.word	0x103e
8011b50c:	706a1180 	lb	s1,27248(zero)
8011b510:	00500300 	sll	t2,v1,0x0
8011b514:	01000000 	.word	0x1
8011b518:	00000000 	nop
8011b51c:	54441280 	lb	s2,17492(zero)
8011b520:	2e107500 	.word	0x75102e
8011b524:	00000000 	nop
8011b528:	3e100000 	.word	0x103e
8011b52c:	e0691180 	lb	s1,27104(zero)
8011b530:	3b100080 	lb	zero,4155(zero)
8011b534:	00000000 	nop
8011b538:	00100300 	sll	v0,v1,0x0
8011b53c:	00000000 	nop
8011b540:	39100080 	lb	zero,4153(zero)
8011b544:	0d00c400 	break	0xc4
8011b548:	3e100000 	.word	0x103e
8011b54c:	706a1180 	lb	s1,27248(zero)
8011b550:	00500300 	sll	t2,v1,0x0
8011b554:	01000000 	.word	0x1
8011b558:	00000000 	nop
8011b55c:	54441280 	lb	s2,17492(zero)
8011b560:	2e107500 	.word	0x75102e
8011b564:	00000000 	nop
8011b568:	3e100000 	.word	0x103e
8011b56c:	e0691180 	lb	s1,27104(zero)
8011b570:	3b100080 	lb	zero,4155(zero)
8011b574:	00000000 	nop
8011b578:	00100300 	sll	v0,v1,0x0
8011b57c:	00000000 	nop
8011b580:	39100080 	lb	zero,4153(zero)
8011b584:	0d00c400 	break	0xc4
8011b588:	3e100000 	.word	0x103e
8011b58c:	706a1180 	lb	s1,27248(zero)
8011b590:	00500300 	sll	t2,v1,0x0
8011b594:	01000000 	.word	0x1
8011b598:	00000000 	nop
8011b59c:	54441280 	lb	s2,17492(zero)
8011b5a0:	2e107500 	.word	0x75102e
8011b5a4:	00000000 	nop
8011b5a8:	3e100000 	.word	0x103e
8011b5ac:	e0691180 	lb	s1,27104(zero)
8011b5b0:	3b100080 	lb	zero,4155(zero)
8011b5b4:	00000000 	nop
8011b5b8:	00100300 	sll	v0,v1,0x0
8011b5bc:	00000000 	nop
8011b5c0:	39100080 	lb	zero,4153(zero)
8011b5c4:	0d00c400 	break	0xc4
8011b5c8:	3e100000 	.word	0x103e
8011b5cc:	706a1180 	lb	s1,27248(zero)
8011b5d0:	00500300 	sll	t2,v1,0x0
8011b5d4:	01000000 	.word	0x1
8011b5d8:	00000000 	nop
8011b5dc:	54441280 	lb	s2,17492(zero)
8011b5e0:	2e107500 	.word	0x75102e
8011b5e4:	00000000 	nop
8011b5e8:	3e100000 	.word	0x103e
8011b5ec:	e0691180 	lb	s1,27104(zero)
8011b5f0:	3b100080 	lb	zero,4155(zero)
8011b5f4:	00000000 	nop
8011b5f8:	00100300 	sll	v0,v1,0x0
8011b5fc:	00000000 	nop
8011b600:	39100080 	lb	zero,4153(zero)
8011b604:	0d00c400 	break	0xc4
8011b608:	3e100000 	.word	0x103e
8011b60c:	706a1180 	lb	s1,27248(zero)
8011b610:	00500300 	sll	t2,v1,0x0
8011b614:	01000000 	.word	0x1
8011b618:	00000000 	nop
8011b61c:	54441280 	lb	s2,17492(zero)
8011b620:	7c441280 	lb	s2,17532(zero)
8011b624:	bc441280 	lb	s2,17596(zero)
8011b628:	fc441280 	lb	s2,17660(zero)
8011b62c:	3c451280 	lb	s2,17724(zero)
8011b630:	7c451280 	lb	s2,17788(zero)
8011b634:	0c0b0000 	syscall	0x2c
8011b638:	070c0000 	.word	0xc07
8011b63c:	030d0000 	sra	at,zero,0x14
8011b640:	070e0000 	.word	0xe07
8011b644:	070f0000 	.word	0xf07
8011b648:	00100000 	sll	v0,zero,0x0
8011b64c:	0d0b0000 	break	0x0,0x2c
8011b650:	080c0000 	.word	0xc08
8011b654:	040d0000 	.word	0xd04
8011b658:	080e0000 	.word	0xe08
8011b65c:	080f0000 	.word	0xf08
8011b660:	01100000 	.word	0x1001
8011b664:	13001b00 	.word	0x1b0013
8011b668:	22002900 	sub	zero,at,t1
8011b66c:	30003700 	.word	0x370030
8011b670:	0a000000 	.word	0xa
8011b674:	09000000 	jalr	zero,zero
8011b678:	08000000 	jr	zero
8011b67c:	07000000 	srav	zero,zero,zero
8011b680:	00010000 	sll	zero,zero,0x4
8011b684:	3c005500 	.word	0x55003c
8011b688:	00010001 	.word	0x1000100
8011b68c:	3d005f00 	.word	0x5f003d
8011b690:	00010002 	.word	0x2000100
8011b694:	3e007d00 	.word	0x7d003e
8011b698:	00010003 	.word	0x3000100
8011b69c:	3f005000 	.word	0x50003f
8011b6a0:	00010004 	bltz	zero,0x8011baa4
8011b6a4:	40006400 	.word	0x640040
8011b6a8:	00010005 	bltz	t0,0x8011baac
8011b6ac:	41004600 	.word	0x460041
8011b6b0:	00010006 	bltz	s0,0x8011bab4
8011b6b4:	42006e00 	.word	0x6e0042
8011b6b8:	00010007 	bltz	t8,0x8011babc
8011b6bc:	43007800 	.word	0x780043
8011b6c0:	00010008 	j	0x80000400
8011b6c4:	44007d00 	.word	0x7d0044
8011b6c8:	00010009 	j	0x84000400
8011b6cc:	45007f00 	.word	0x7f0045
8011b6d0:	0001000a 	j	0x88000400
8011b6d4:	46007d00 	.word	0x7d0046
8011b6d8:	0401000b 	j	0x8c000410
8011b6dc:	47005a00 	.word	0x5a0047
8011b6e0:	0001000c 	jal	0x80000400
8011b6e4:	48006e00 	.word	0x6e0048
8011b6e8:	0001000d 	jal	0x84000400
8011b6ec:	49006e00 	.word	0x6e0049
8011b6f0:	0001000e 	jal	0x88000400
8011b6f4:	4a005f00 	.word	0x5f004a
8011b6f8:	0001000f 	jal	0x8c000400
8011b6fc:	4b006e00 	.word	0x6e004b
8011b700:	00010100 	sll	zero,at,0x4
8011b704:	3c006400 	.word	0x64003c
8011b708:	00010101 	.word	0x1010100
8011b70c:	3d005500 	.word	0x55003d
8011b710:	70514553 	.word	0x53455170
8011b714:	00000001 	.word	0x1000000
8011b718:	01800852 	.word	0x52088001
8011b71c:	8f040213 	beq	t8,v0,0x8011c95c
8011b720:	c80801c5 	lwc1	$f1,2248(t0)
8011b724:	0500cc0c 	jal	0x83300014
8011b728:	00ce0e01 	.word	0x10ece00
8011b72c:	c60605c7 	lwc1	$f5,1734(t8)
8011b730:	078124bf 	.word	0xbf248107
8011b734:	63140106 	bgez	s0,0x801208c4
8011b738:	7f01952b 	slti	s5,gp,383
8011b73c:	7a009637 	ori	s6,gp,0x7a
8011b740:	4d009743 	c0	0x197004d
8011b744:	2c00982b 	slti	t8,gp,44
8011b748:	7a009c3e 	.word	0x3e9c007a
8011b74c:	59009e29 	slti	s8,t4,89
8011b750:	6e81409c 	.word	0x9c40816e
8011b754:	373f009e 	.word	0x9e003f37
8011b758:	2b5b2829 	slti	t0,t1,23339
8011b75c:	00019637 	ori	s6,gp,0x100
8011b760:	00089c3e 	.word	0x3e9c0800
8011b764:	005e3700 	.word	0x375e00
8011b768:	0e9e2b00 	.word	0x2b9e0e
8011b76c:	2396394d 	.word	0x4d399623
8011b770:	009c3a3e 	.word	0x3e3a9c00
8011b774:	37963900 	.word	0x399637
8011b778:	81093a4c 	.word	0x4c3a0981
8011b77c:	009c3e55 	.word	0x553e9c00
8011b780:	009e2b6e 	.word	0x6e2b9e00
8011b784:	099c3a00 	.word	0x3a9c09
8011b788:	3e963a00 	.word	0x3a963e
8011b78c:	309e2b00 	.word	0x2b9e30
8011b790:	49963c46 	c1	0x3c9649
8011b794:	00974129 	slti	at,t2,-26880
8011b798:	009c3c5b 	.word	0x5b3c9c00
8011b79c:	009e2968 	.word	0x68299e00
8011b7a0:	059c3e00 	.word	0x3e9c05
8011b7a4:	04974300 	.word	0x439704
8011b7a8:	7f9e2900 	.word	0x299e7f
8011b7ac:	209c3c00 	.word	0x3c9c20
8011b7b0:	183a4a00 	.word	0x4a3a18
8011b7b4:	9e2b6864 	.word	0x64682b9e
8011b7b8:	963c0014 	bnez	zero,0x8012aa14
8011b7bc:	9e2b0048 	.word	0x48002b9e
8011b7c0:	963a4000 	.word	0x403a96
8011b7c4:	9c3c5944 	.word	0x44593c9c
8011b7c8:	963a0018 	blez	zero,0x8012a224
8011b7cc:	9c3a0064 	.word	0x64003a9c
8011b7d0:	963c4600 	.word	0x463c96
8011b7d4:	9e2b723e 	.word	0x3e722b9e
8011b7d8:	963c003a 	xori	zero,s0,0x3c96
8011b7dc:	9e2b0012 	beqz	s0,0x80126658
8011b7e0:	9c3c0036 	ori	zero,s0,0x3c9c
8011b7e4:	952e7e00 	.word	0x7e2e95
8011b7e8:	963d5400 	.word	0x543d96
8011b7ec:	97410000 	.word	0x4197
8011b7f0:	982e7e00 	.word	0x7e2e98
8011b7f4:	9c3e5700 	.word	0x573e9c
8011b7f8:	9e296500 	.word	0x65299e
8011b7fc:	97402f4d 	.word	0x4d2f4097
8011b800:	952b0000 	.word	0x2b95
8011b804:	982b004b 	c2	0x1002b98
8011b808:	9e290010 	b	0x80125e84
8011b80c:	963d0000 	.word	0x3d96
8011b810:	9c3e0018 	blez	zero,0x8012b284
8011b814:	963e3500 	.word	0x353e96
8011b818:	9c375000 	.word	0x50379c
8011b81c:	9e2b5d81 	lb	sp,11166(t2)
8011b820:	19963e00 	.word	0x3e9619
8011b824:	019e2b00 	.word	0x2b9e01
8011b828:	039c3700 	.word	0x379c03
8011b82c:	23963d4c 	.word	0x4c3d9623
8011b830:	009c3a45 	.word	0x453a9c00
8011b834:	811c963d 	.word	0x3d961c81
8011b838:	00129c3a 	xori	gp,s4,0x1200
8011b83c:	0012963c 	.word	0x3c961200
8011b840:	50009c3e 	.word	0x3e9c0050
8011b844:	55009e2b 	slti	s8,gp,85
8011b848:	6081102b 	slti	s0,t8,-32416
8011b84c:	000f9740 	.word	0x40970f00
8011b850:	000e9c3e 	.word	0x3e9c0e00
8011b854:	0013973f 	.word	0x3f971300
8011b858:	40009c37 	ori	gp,gp,0x40
8011b85c:	4b009e2e 	sltiu	s8,s4,75
8011b860:	7977963c 	.word	0x3c967779
8011b864:	002f9e2e 	sltiu	s8,s4,12032
8011b868:	001a963a 	xori	s6,s4,0x1a00
8011b86c:	50009c3a 	xori	gp,s4,0x50
8011b870:	4e009e2b 	slti	s8,gp,78
8011b874:	6b179c37 	ori	gp,gp,0x176b
8011b878:	0065963a 	xori	s6,s4,0x6500
8011b87c:	000f9e2b 	slti	s8,gp,3840
8011b880:	00359637 	ori	s6,gp,0x3500
8011b884:	4a009c3c 	.word	0x3c9c004a
8011b888:	55123a00 	.word	0x3a1255
8011b88c:	70963700 	.word	0x379670
8011b890:	3e9e2b6b 	.word	0x6b2b9e3e
8011b894:	5a2b0048 	.word	0x48002b5a
8011b898:	952e0000 	.word	0x2e95
8011b89c:	982e000a 	j	0x8800ba60
8011b8a0:	973f0005 	bltz	t0,0x8012b700
8011b8a4:	9c3c000f 	jal	0x8c00f270
8011b8a8:	952d7800 	.word	0x782d95
8011b8ac:	96374d00 	.word	0x4d3796
8011b8b0:	97433600 	.word	0x364397
8011b8b4:	982d7800 	.word	0x782d98
8011b8b8:	9c3e5500 	.word	0x553e9c
8011b8bc:	9e296e81 	lb	t6,10654(t3)
8011b8c0:	2529001b 	blez	t8,0x80125d58
8011b8c4:	9c375700 	.word	0x57379c
8011b8c8:	9e2b6208 	j	0x8188ae78
8011b8cc:	9c3e0021 	addi	zero,t0,16028
8011b8d0:	9637006a 	.word	0x6a003796
8011b8d4:	9e2b0020 	addi	zero,zero,11166
8011b8d8:	9c37000d 	jal	0x8400de70
8011b8dc:	96394d00 	.word	0x4d3996
8011b8e0:	9c3a3c37 	ori	gp,t9,0x3a9c
8011b8e4:	96390081 	lb	zero,14742(t0)
8011b8e8:	089c3a00 	.word	0x3a9c08
8011b8ec:	01963a4c 	.word	0x4c3a9601
8011b8f0:	009c3c5b 	.word	0x5b3c9c00
8011b8f4:	009e2b6e 	.word	0x6e2b9e00
8011b8f8:	47963a00 	.word	0x3a9647
8011b8fc:	369c3c00 	.word	0x3c9c36
8011b900:	059e2b00 	.word	0x2b9e05
8011b904:	3e963c46 	c1	0x3c963e
8011b908:	00974139 	xori	at,t2,0x9700
8011b90c:	009c3c60 	.word	0x603c9c00
8011b910:	009e2965 	.word	0x65299e00
8011b914:	1d974300 	.word	0x43971d
8011b918:	7e9e2900 	.word	0x299e7e
8011b91c:	259c3753 	.word	0x53379c25
8011b920:	009e2b59 	.word	0x592b9e00
8011b924:	029c3c00 	.word	0x3c9c02
8011b928:	62963c00 	.word	0x3c9662
8011b92c:	209e2b00 	.word	0x2b9e20
8011b930:	3c963a40 	.word	0x403a963c
8011b934:	009c3a50 	.word	0x503a9c00
8011b938:	0f370035 	ori	zero,t0,0x370f
8011b93c:	963a007c 	.word	0x7c003a96
8011b940:	3c46009c 	.word	0x9c00463c
8011b944:	3c5b009e 	.word	0x9e005b3c
8011b948:	2b65119c 	.word	0x9c11652b
8011b94c:	3a002d96 	lhu	t5,58(s1)
8011b950:	3c00569e 	.word	0x9e56003c
8011b954:	2b000595 	lhu	a1,43(t0)
8011b958:	2d000098 	lwr	zero,45(zero)
8011b95c:	2d000b9c 	.word	0x9c0b002d
8011b960:	3c001c95 	lhu	gp,60(t0)
8011b964:	307c0096 	lhu	zero,31792(s0)
8011b968:	3d540097 	lhu	zero,21565(t8)
8011b96c:	40290098 	lwr	zero,10560(zero)
8011b970:	307c009c 	.word	0x9c007c30
8011b974:	3e57009e 	.word	0x9e00573e
8011b978:	29650297 	lhu	v0,25897(t8)
8011b97c:	41008118 	.word	0x18810041
8011b980:	9e29000e 	jal	0x8800a678
8011b984:	963d0018 	blez	zero,0x8012afe0
8011b988:	3e35009c 	.word	0x9c00353e
8011b98c:	374e009e 	.word	0x9e004e37
8011b990:	2b680f9c 	.word	0x9c0f682b
8011b994:	3e007b9e 	.word	0x9e7b003e
8011b998:	2b000d9c 	.word	0x9c0d002b
8011b99c:	37000296 	lhu	v0,55(s0)
8011b9a0:	3e00273d 	.word	0x3d27003e
8011b9a4:	4c009c3a 	xori	gp,s4,0x4c
8011b9a8:	3e811c96 	lhu	gp,-32450(s0)
8011b9ac:	3d00243c 	.word	0x3c24003d
8011b9b0:	50009c3c 	.word	0x3c9c0050
8011b9b4:	50009e2b 	slti	s8,gp,80
8011b9b8:	60109c3a 	xori	gp,s4,0x1060
8011b9bc:	00789e2b 	slti	s8,gp,30720
8011b9c0:	00099c3c 	.word	0x3c9c0900
8011b9c4:	00149740 	.word	0x40971400
8011b9c8:	001b4136 	ori	at,s2,0x1b00
8011b9cc:	009c3c5d 	.word	0x5d3c9c00
8011b9d0:	009e2953 	.word	0x53299e00
8011b9d4:	813c2900 	.word	0x293c81
8011b9d8:	049c374b 	c2	0x1379c04
8011b9dc:	009e266b 	.word	0x6b269e00
8011b9e0:	049c3c00 	.word	0x3c9c04
8011b9e4:	81239e26 	addiu	s8,s4,9089
8011b9e8:	0019963c 	.word	0x3c961900
8011b9ec:	00009c3a 	xori	gp,s4,0x0
8011b9f0:	4a0f3700 	.word	0x370f4a
8011b9f4:	81313a00 	.word	0x3a3181
8011b9f8:	009e2657 	.word	0x57269e00
8011b9fc:	009c3c60 	.word	0x603c9c00
8011ba00:	54974100 	.word	0x419754
8011ba04:	1f9e2600 	.word	0x269e1f
8011ba08:	02953000 	.word	0x309502
8011ba0c:	00983000 	.word	0x309800
8011ba10:	1d9c3c00 	.word	0x3c9c1d
8011ba14:	2e952b7a 	.word	0x7a2b952e
8011ba18:	0096374d 	.word	0x4d379600
8011ba1c:	0097432c 	sltiu	v1,v0,-26880
8011ba20:	00982b7a 	.word	0x7a2b9800
8011ba24:	009c3e59 	.word	0x593e9c00
8011ba28:	009e296e 	.word	0x6e299e00
8011ba2c:	81409c37 	ori	gp,gp,0x4081
8011ba30:	3f009e2b 	slti	s8,gp,63
8011ba34:	5b282900 	.word	0x29285b
8011ba38:	01963700 	.word	0x379601
8011ba3c:	089c3e00 	.word	0x3e9c08
8011ba40:	5e37000e 	jal	0x8800dd78
8011ba44:	9e2b0023 	addi	zero,t8,11166
8011ba48:	96394d00 	.word	0x4d3996
8011ba4c:	9c3a3e37 	ori	s8,t9,0x3a9c
8011ba50:	96390081 	lb	zero,14742(t0)
8011ba54:	093a4c00 	.word	0x4c3a09
8011ba58:	9c3e5500 	.word	0x553e9c
8011ba5c:	9e2b6e09 	j	0x85b8ae78
8011ba60:	9c3a003e 	.word	0x3e003a9c
8011ba64:	963a0030 	andi	zero,zero,0x3a96
8011ba68:	9e2b0049 	bc2f	0x801268e4
8011ba6c:	963c4600 	.word	0x463c96
8011ba70:	97412900 	.word	0x294197
8011ba74:	9c3c5b00 	.word	0x5b3c9c
8011ba78:	9e296805 	.word	0x568299e
8011ba7c:	9c3e0004 	bltz	zero,0x8012b4f0
8011ba80:	9743007f 	.word	0x7f004397
8011ba84:	9e290020 	addi	zero,zero,10654
8011ba88:	9c3c0018 	blez	zero,0x8012acfc
8011ba8c:	3a4a009e 	.word	0x9e004a3a
8011ba90:	2b686496 	lhu	a0,26667(s3)
8011ba94:	3c00149e 	.word	0x9e14003c
8011ba98:	2b004896 	lhu	t0,43(s2)
8011ba9c:	3a40009c 	.word	0x9c00403a
8011baa0:	3c594496 	lhu	a0,22844(s2)
8011baa4:	3a00189c 	.word	0x9c18003a
8011baa8:	3a006496 	lhu	a0,58(s3)
8011baac:	3c46009e 	.word	0x9e00463c
8011bab0:	2b723e96 	lhu	s8,29227(s1)
8011bab4:	3c003a9e 	.word	0x9e3a003c
8011bab8:	2b00129c 	.word	0x9c12002b
8011babc:	3c003695 	lhu	s6,60(t1)
8011bac0:	2e7e0096 	lhu	zero,32302(s0)
8011bac4:	3d540097 	lhu	zero,21565(t8)
8011bac8:	41000098 	lwr	zero,65(zero)
8011bacc:	2e7e009c 	.word	0x9c007e2e
8011bad0:	3e57009e 	.word	0x9e00573e
8011bad4:	29650097 	lhu	zero,25897(t8)
8011bad8:	402f4d95 	lhu	t5,12096(t2)
8011badc:	2b000098 	lwr	zero,43(zero)
8011bae0:	2b004b9e 	.word	0x9e4b002b
8011bae4:	29001096 	lhu	s0,41(s0)
8011bae8:	3d00009c 	.word	0x9c00003d
8011baec:	3e001896 	lhu	t8,62(s0)
8011baf0:	3e35009c 	.word	0x9c00353e
8011baf4:	3750009e 	.word	0x9e005037
8011baf8:	2b5d8119 	.word	0x19815d2b
8011bafc:	963e0001 	.word	0x1003e96
8011bb00:	9e2b0003 	.word	0x3002b9e
8011bb04:	9c370023 	addi	zero,t8,14236
8011bb08:	963d4c00 	.word	0x4c3d96
8011bb0c:	9c3a4581 	lb	a1,15004(t2)
8011bb10:	1c963d00 	.word	0x3d961c
8011bb14:	129c3a00 	.word	0x3a9c12
8011bb18:	12963c50 	.word	0x503c9612
8011bb1c:	009c3e55 	.word	0x553e9c00
8011bb20:	009e2b60 	.word	0x602b9e00
8011bb24:	81102b00 	.word	0x2b1081
8011bb28:	0f974000 	.word	0x40970f
8011bb2c:	0e9c3e00 	.word	0x3e9c0e
8011bb30:	13973f40 	.word	0x403f9713
8011bb34:	009c374b 	c2	0x1379c00
8011bb38:	009e2e79 	.word	0x792e9e00
8011bb3c:	77963c00 	.word	0x3c9677
8011bb40:	2f9e2e00 	.word	0x2e9e2f
8011bb44:	1a963a50 	.word	0x503a961a
8011bb48:	009c3a4e 	c3	0x3a9c00
8011bb4c:	009e2b6b 	.word	0x6b2b9e00
8011bb50:	179c3700 	.word	0x379c17
8011bb54:	65963a00 	.word	0x3a9665
8011bb58:	0f9e2b00 	.word	0x2b9e0f
8011bb5c:	3596374a 	c2	0x379635
8011bb60:	009c3c55 	.word	0x553c9c00
8011bb64:	123a0070 	.word	0x70003a12
8011bb68:	9637003e 	.word	0x3e003796
8011bb6c:	9e2b6b5a 	.word	0x5a6b2b9e
8011bb70:	2b004895 	lhu	t0,43(t2)
8011bb74:	2e000098 	lwr	zero,46(zero)
8011bb78:	2e000a97 	lhu	t2,46(t8)
8011bb7c:	3f00059c 	.word	0x9c05003f
8011bb80:	3c000f95 	lhu	t7,60(t0)
8011bb84:	2d780096 	lhu	zero,30765(s0)
8011bb88:	374d0097 	lhu	zero,19767(t8)
8011bb8c:	43360098 	lwr	zero,13891(zero)
8011bb90:	2d78009c 	.word	0x9c00782d
8011bb94:	3e55009e 	.word	0x9e00553e
8011bb98:	296e8125 	addiu	at,t4,28201
8011bb9c:	29001b9c 	.word	0x9c1b0029
8011bba0:	3757009e 	.word	0x9e005737
8011bba4:	2b62089c 	.word	0x9c08622b
8011bba8:	3e002196 	lhu	at,62(s1)
8011bbac:	37006a9e 	.word	0x9e6a0037
8011bbb0:	2b00209c 	.word	0x9c20002b
8011bbb4:	37000d96 	lhu	t5,55(s0)
8011bbb8:	394d009c 	.word	0x9c004d39
8011bbbc:	3a3c3796 	lhu	s7,15418(s1)
8011bbc0:	39008108 	j	0x820400e4
8011bbc4:	9c3a0001 	.word	0x1003a9c
8011bbc8:	963a4c00 	.word	0x4c3a96
8011bbcc:	9c3c5b00 	.word	0x5b3c9c
8011bbd0:	9e2b6e47 	c1	0x16e2b9e
8011bbd4:	963a0036 	ori	zero,s0,0x3a96
8011bbd8:	9c3c0005 	bltz	t0,0x8012ae4c
8011bbdc:	9e2b003e 	.word	0x3e002b9e
8011bbe0:	963c4600 	.word	0x463c96
8011bbe4:	97413900 	.word	0x394197
8011bbe8:	9c3c6000 	.word	0x603c9c
8011bbec:	9e29651d 	.word	0x1d65299e
8011bbf0:	9743007e 	.word	0x7e004397
8011bbf4:	9e290025 	addiu	zero,t0,10654
8011bbf8:	9c375300 	.word	0x53379c
8011bbfc:	9e2b5902 	.word	0x2592b9e
8011bc00:	9c3c0062 	.word	0x62003c9c
8011bc04:	963c0020 	addi	zero,zero,15510
8011bc08:	9e2b003c 	lui	zero,0x2b9e
8011bc0c:	963a4000 	.word	0x403a96
8011bc10:	9c3a500f 	jal	0x8d40ea70
8011bc14:	37003596 	lhu	s5,55(s1)
8011bc18:	3a007c3c 	.word	0x3c7c003a
8011bc1c:	46009c3c 	.word	0x3c9c0046
8011bc20:	5b009e2b 	slti	s8,gp,91
8011bc24:	65119c3a 	xori	gp,s4,0x1165
8011bc28:	002d963c 	.word	0x3c962d00
8011bc2c:	00569e2b 	slti	s8,gp,22016
8011bc30:	0005952d 	sltiu	s5,t4,1280
8011bc34:	0000982d 	sltiu	t8,t4,0
8011bc38:	000b9c3c 	.word	0x3c9c0b00
8011bc3c:	001c9529 	slti	s5,t4,7168
8011bc40:	7c00963d 	.word	0x3d96007c
8011bc44:	54009740 	.word	0x40970054
8011bc48:	29009829 	slti	t8,t4,41
8011bc4c:	7c009c3e 	.word	0x3e9c007c
8011bc50:	57009e29 	slti	s8,t4,87
8011bc54:	65029741 	.word	0x41970265
8011bc58:	0081189e 	.word	0x9e188100
8011bc5c:	29000e96 	lhu	t6,41(s0)
8011bc60:	3d00183e 	.word	0x3e18003d
8011bc64:	35009c37 	ori	gp,gp,0x35
8011bc68:	4e009e2b 	slti	s8,gp,78
8011bc6c:	680f9c3e 	.word	0x3e9c0f68
8011bc70:	007b9e2b 	slti	s8,gp,31488
8011bc74:	000d9c37 	ori	gp,gp,0xd00
8011bc78:	0002963e 	.word	0x3e960200
8011bc7c:	00273d4c 	.word	0x4c3d2700
8011bc80:	009c3a3e 	.word	0x3e3a9c00
8011bc84:	811c963d 	.word	0x3d961c81
8011bc88:	00243c50 	.word	0x503c2400
8011bc8c:	009c3c50 	.word	0x503c9c00
8011bc90:	009e2b60 	.word	0x602b9e00
8011bc94:	109c3a00 	.word	0x3a9c10
8011bc98:	789e2b00 	.word	0x2b9e78
8011bc9c:	099c3c00 	.word	0x3c9c09
8011bca0:	14974000 	.word	0x409714
8011bca4:	1b413600 	.word	0x36411b
8011bca8:	9c3c5d00 	.word	0x5d3c9c
8011bcac:	9e295381 	lb	s3,10654(t2)
8011bcb0:	3c290004 	bltz	zero,0x801261a4
8011bcb4:	9c374b00 	.word	0x4b379c
8011bcb8:	9e266b04 	.word	0x46b269e
8011bcbc:	9c3c0081 	lb	zero,15516(t0)
8011bcc0:	239e2600 	.word	0x269e23
8011bcc4:	19963c00 	.word	0x3c9619
8011bcc8:	009c3a4a 	c2	0x3a9c00
8011bccc:	0f370081 	lb	zero,14095(t0)
8011bcd0:	313a0000 	.word	0x3a31
8011bcd4:	9e265700 	.word	0x57269e
8011bcd8:	9c3c6054 	.word	0x54603c9c
8011bcdc:	9741001f 	bgtz	t8,0x8012c33c
8011bce0:	9e260002 	.word	0x200269e
8011bce4:	95290000 	.word	0x2995
8011bce8:	9829001d 	bgtz	t0,0x8012634c
8011bcec:	9c3c002c 	sltiu	zero,zero,15516
8011bcf0:	bf631e00 	.word	0x1e63bf
8011bcf4:	ff2f0000 	.word	0x2fff
8011bcf8:	00001e00 	sll	zero,s8,0x0
8011bcfc:	1e001e00 	.word	0x1e001e
8011bd00:	3c001e00 	.word	0x1e003c
8011bd04:	5a001e00 	.word	0x1e005a
8011bd08:	78001e00 	.word	0x1e0078
8011bd0c:	96001e00 	.word	0x1e0096
8011bd10:	00001600 	sll	zero,s6,0x0
8011bd14:	16001900 	.word	0x190016
8011bd18:	2f001200 	.word	0x12002f
8011bd1c:	41001200 	.word	0x120041
8011bd20:	53000800 	.word	0x80053
8011bd24:	5b001700 	.word	0x17005b
8011bd28:	72001400 	.word	0x140072
8011bd2c:	86000800 	.word	0x80086
8011bd30:	8e000800 	.word	0x8008e
8011bd34:	00000f00 	sll	zero,t7,0x0
8011bd38:	0f001200 	.word	0x12000f
8011bd3c:	21001400 	addu	zero,zero,s4
8011bd40:	35001000 	.word	0x100035
8011bd44:	45000600 	.word	0x60045
8011bd48:	4b001700 	.word	0x17004b
8011bd4c:	62001700 	.word	0x170062
8011bd50:	79001500 	.word	0x150079
8011bd54:	8e001700 	.word	0x17008e
8011bd58:	a5001f00 	.word	0x1f00a5
8011bd5c:	c4000f00 	.word	0xf00c4
8011bd60:	d3001a00 	.word	0x1a00d3
8011bd64:	ed001400 	.word	0x1400ed
8011bd68:	01011900 	.word	0x190101
8011bd6c:	00001000 	sll	zero,s0,0x0
8011bd70:	10001c00 	.word	0x1c0010
8011bd74:	2c001e00 	.word	0x1e002c
8011bd78:	4a002000 	.word	0x20004a
8011bd7c:	6a002000 	.word	0x20006a
8011bd80:	8a000900 	.word	0x9008a
8011bd84:	93001f00 	.word	0x1f0093
8011bd88:	b2000f00 	.word	0xf00b2
8011bd8c:	c1001000 	.word	0x1000c1
8011bd90:	d1001300 	.word	0x1300d1
8011bd94:	e4002000 	.word	0x2000e4
8011bd98:	04011200 	.word	0x120104
8011bd9c:	16010a00 	.word	0xa0116
8011bda0:	20011400 	.word	0x140120
8011bda4:	34011400 	.word	0x140134
8011bda8:	48011500 	.word	0x150148
8011bdac:	5d011a00 	.word	0x1a015d
8011bdb0:	77011d00 	.word	0x1d0177
8011bdb4:	94011800 	.word	0x180194
8011bdb8:	ac010d00 	.word	0xd01ac
8011bdbc:	b9010800 	.word	0x801b9
8011bdc0:	c1011300 	.word	0x1301c1
8011bdc4:	d4011400 	.word	0x1401d4
8011bdc8:	e8011f00 	.word	0x1f01e8
8011bdcc:	07021800 	.word	0x180207
8011bdd0:	1f021e00 	.word	0x1e021f
8011bdd4:	3d021d00 	.word	0x1d023d
8011bdd8:	5a021e00 	.word	0x1e025a
8011bddc:	78021a00 	.word	0x1a0278
8011bde0:	92021e00 	.word	0x1e0292
	...
8011bf84:	584f1280 	lb	s2,20312(zero)
8011bf88:	b44f1280 	lb	s2,20404(zero)
8011bf8c:	f84f1280 	lb	s2,20472(zero)
8011bf90:	28501280 	lb	s2,20520(zero)
8011bf94:	38501280 	lb	s2,20536(zero)
8011bf98:	a0501280 	lb	s2,20640(zero)
8011bf9c:	c4501280 	lb	s2,20676(zero)
8011bfa0:	cc501280 	lb	s2,20684(zero)
8011bfa4:	14511280 	lb	s2,20756(zero)
8011bfa8:	2c511280 	lb	s2,20780(zero)
8011bfac:	50511280 	lb	s2,20816(zero)
8011bfb0:	94511280 	lb	s2,20884(zero)
8011bfb4:	28521280 	lb	s2,21032(zero)
8011bfb8:	80521280 	lb	s2,21120(zero)
8011bfbc:	00000000 	nop
8011bfc0:	00000420 	addi	a0,zero,0
8011bfc4:	01000000 	.word	0x1
8011bfc8:	00000620 	addi	a2,zero,0
8011bfcc:	02000000 	srl	zero,zero,0x0
8011bfd0:	00000620 	addi	a2,zero,0
8011bfd4:	03000000 	sra	zero,zero,0x0
8011bfd8:	00000420 	addi	a0,zero,0
8011bfdc:	04000000 	sllv	zero,zero,zero
8011bfe0:	00000420 	addi	a0,zero,0
8011bfe4:	05000000 	.word	0x5
8011bfe8:	00000420 	addi	a0,zero,0
8011bfec:	06000000 	srlv	zero,zero,zero
8011bff0:	00000420 	addi	a0,zero,0
8011bff4:	07000000 	srav	zero,zero,zero
8011bff8:	00000420 	addi	a0,zero,0
8011bffc:	08000000 	jr	zero
8011c000:	00000420 	addi	a0,zero,0
8011c004:	09000000 	jalr	zero,zero
8011c008:	00000420 	addi	a0,zero,0
8011c00c:	0a000000 	.word	0xa
8011c010:	000004e0 	swc0	c0_context,0(zero)
8011c014:	584f1280 	lb	s2,20312(zero)
8011c018:	0b000000 	.word	0xb
8011c01c:	00000420 	addi	a0,zero,0
8011c020:	0c000000 	syscall
8011c024:	00000420 	addi	a0,zero,0
8011c028:	0d000000 	break
8011c02c:	00000420 	addi	a0,zero,0
8011c030:	0e000000 	.word	0xe
8011c034:	00000420 	addi	a0,zero,0
8011c038:	0f000000 	.word	0xf
8011c03c:	00000420 	addi	a0,zero,0
8011c040:	10000000 	mfhi	zero
8011c044:	00000420 	addi	a0,zero,0
8011c048:	11000000 	mthi	zero
8011c04c:	00000420 	addi	a0,zero,0
8011c050:	12000000 	mflo	zero
8011c054:	000004e0 	swc0	c0_context,0(zero)
8011c058:	b44f1280 	lb	s2,20404(zero)
8011c05c:	13000000 	mtlo	zero
8011c060:	00000420 	addi	a0,zero,0
8011c064:	14000000 	.word	0x14
8011c068:	00000420 	addi	a0,zero,0
8011c06c:	15000000 	.word	0x15
8011c070:	00000420 	addi	a0,zero,0
8011c074:	16000000 	.word	0x16
8011c078:	00000420 	addi	a0,zero,0
8011c07c:	17000000 	.word	0x17
8011c080:	00000420 	addi	a0,zero,0
8011c084:	18000000 	mult	zero,zero
8011c088:	00000420 	addi	a0,zero,0
8011c08c:	19000080 	lb	zero,25(zero)
8011c090:	00000420 	addi	a0,zero,0
8011c094:	1a000080 	lb	zero,26(zero)
8011c098:	00000480 	lb	a0,0(zero)
8011c09c:	1b000000 	divu	zero,zero,zero
8011c0a0:	00000220 	addi	v0,zero,0
8011c0a4:	1c000000 	.word	0x1c
8011c0a8:	00000220 	addi	v0,zero,0
8011c0ac:	1d000000 	.word	0x1d
8011c0b0:	00000220 	addi	v0,zero,0
8011c0b4:	1e000000 	.word	0x1e
8011c0b8:	00000220 	addi	v0,zero,0
8011c0bc:	1f000000 	.word	0x1f
8011c0c0:	00000220 	addi	v0,zero,0
8011c0c4:	20000000 	add	zero,zero,zero
8011c0c8:	00000220 	addi	v0,zero,0
8011c0cc:	21000000 	move	zero,zero
8011c0d0:	00000220 	addi	v0,zero,0
8011c0d4:	22000000 	neg	zero,zero
8011c0d8:	00000220 	addi	v0,zero,0
8011c0dc:	23000000 	negu	zero,zero
8011c0e0:	00000220 	addi	v0,zero,0
8011c0e4:	24000000 	and	zero,zero,zero
8011c0e8:	00000220 	addi	v0,zero,0
8011c0ec:	25000000 	move	zero,zero
8011c0f0:	00000220 	addi	v0,zero,0
8011c0f4:	26000000 	xor	zero,zero,zero
8011c0f8:	00000220 	addi	v0,zero,0
8011c0fc:	27000000 	nor	zero,zero,zero
8011c100:	00000280 	lb	v0,0(zero)
8011c104:	28000000 	.word	0x28
8011c108:	00000420 	addi	a0,zero,0
8011c10c:	29000000 	.word	0x29
8011c110:	00000420 	addi	a0,zero,0
8011c114:	2a000000 	slt	zero,zero,zero
8011c118:	00000420 	addi	a0,zero,0
8011c11c:	2b000000 	sltu	zero,zero,zero
8011c120:	000004e0 	swc0	c0_context,0(zero)
8011c124:	a0501280 	lb	s2,20640(zero)
8011c128:	28000000 	.word	0x28
8011c12c:	00000480 	lb	a0,0(zero)
8011c130:	2c000000 	.word	0x2c
8011c134:	00000220 	addi	v0,zero,0
8011c138:	2d000000 	.word	0x2d
8011c13c:	00000220 	addi	v0,zero,0
8011c140:	2e000000 	.word	0x2e
8011c144:	00000220 	addi	v0,zero,0
8011c148:	2f000000 	.word	0x2f
8011c14c:	00000220 	addi	v0,zero,0
8011c150:	30000000 	.word	0x30
8011c154:	00000220 	addi	v0,zero,0
8011c158:	31000000 	.word	0x31
8011c15c:	00000420 	addi	a0,zero,0
8011c160:	32000000 	.word	0x32
8011c164:	00000420 	addi	a0,zero,0
8011c168:	33000000 	.word	0x33
8011c16c:	00000420 	addi	a0,zero,0
8011c170:	34000080 	lb	zero,52(zero)
8011c174:	00000600 	sll	zero,a2,0x0
8011c178:	35000000 	.word	0x35
8011c17c:	00000620 	addi	a2,zero,0
8011c180:	36000000 	.word	0x36
8011c184:	00000620 	addi	a2,zero,0
8011c188:	37000000 	.word	0x37
8011c18c:	00000680 	lb	a2,0(zero)
8011c190:	38000000 	.word	0x38
8011c194:	00000320 	addi	v1,zero,0
8011c198:	39000000 	.word	0x39
8011c19c:	00000320 	addi	v1,zero,0
8011c1a0:	3a000000 	.word	0x3a
8011c1a4:	00000320 	addi	v1,zero,0
8011c1a8:	3b000000 	.word	0x3b
8011c1ac:	000003e0 	swc0	$3,0(zero)
8011c1b0:	2c511280 	lb	s2,20780(zero)
8011c1b4:	3c000000 	.word	0x3c
8011c1b8:	00000520 	addi	a1,zero,0
8011c1bc:	3d000000 	.word	0x3d
8011c1c0:	00000820 	addi	t0,zero,0
8011c1c4:	3e000000 	.word	0x3e
8011c1c8:	00000520 	addi	a1,zero,0
8011c1cc:	3f000000 	.word	0x3f
8011c1d0:	00000520 	addi	a1,zero,0
8011c1d4:	40000000 	ssnop
8011c1d8:	00000520 	addi	a1,zero,0
8011c1dc:	41000000 	.word	0x41
8011c1e0:	00000520 	addi	a1,zero,0
8011c1e4:	42000000 	srl	zero,zero,0x1
8011c1e8:	00000520 	addi	a1,zero,0
8011c1ec:	43000000 	sra	zero,zero,0x1
8011c1f0:	000005e0 	swc0	$5,0(zero)
8011c1f4:	50511280 	lb	s2,20816(zero)
8011c1f8:	44000000 	.word	0x44
8011c1fc:	00000320 	addi	v1,zero,0
8011c200:	45000000 	.word	0x45
8011c204:	00000100 	sll	zero,at,0x0
8011c208:	46000000 	.word	0x46
8011c20c:	00000320 	addi	v1,zero,0
8011c210:	47000000 	.word	0x47
8011c214:	00000320 	addi	v1,zero,0
8011c218:	48000000 	.word	0x48
8011c21c:	00000320 	addi	v1,zero,0
8011c220:	49000000 	.word	0x49
8011c224:	00000320 	addi	v1,zero,0
8011c228:	4a000000 	.word	0x4a
8011c22c:	00000320 	addi	v1,zero,0
8011c230:	4b000000 	.word	0x4b
8011c234:	00000320 	addi	v1,zero,0
8011c238:	4c000000 	syscall	0x1
8011c23c:	00000320 	addi	v1,zero,0
8011c240:	4d000000 	break	0x0,0x1
8011c244:	00000320 	addi	v1,zero,0
8011c248:	4e000000 	.word	0x4e
8011c24c:	00000320 	addi	v1,zero,0
8011c250:	4f000000 	.word	0x4f
8011c254:	00000320 	addi	v1,zero,0
8011c258:	50000000 	.word	0x50
8011c25c:	00000320 	addi	v1,zero,0
8011c260:	51000000 	.word	0x51
8011c264:	00000320 	addi	v1,zero,0
8011c268:	52000000 	.word	0x52
8011c26c:	00000320 	addi	v1,zero,0
8011c270:	53000000 	.word	0x53
8011c274:	00000320 	addi	v1,zero,0
8011c278:	54000000 	.word	0x54
8011c27c:	00000320 	addi	v1,zero,0
8011c280:	55000000 	.word	0x55
8011c284:	000003e0 	swc0	$3,0(zero)
8011c288:	94511280 	lb	s2,20884(zero)
8011c28c:	56000000 	.word	0x56
8011c290:	00000220 	addi	v0,zero,0
8011c294:	57000100 	.word	0x10057
8011c298:	00000320 	addi	v1,zero,0
8011c29c:	58000200 	.word	0x20058
8011c2a0:	00000220 	addi	v0,zero,0
8011c2a4:	59000300 	.word	0x30059
8011c2a8:	00000220 	addi	v0,zero,0
8011c2ac:	5a000400 	.word	0x4005a
8011c2b0:	00000220 	addi	v0,zero,0
8011c2b4:	5b000500 	.word	0x5005b
8011c2b8:	00000220 	addi	v0,zero,0
8011c2bc:	5c000600 	.word	0x6005c
8011c2c0:	00000320 	addi	v1,zero,0
8011c2c4:	5d000700 	.word	0x7005d
8011c2c8:	00000220 	addi	v0,zero,0
8011c2cc:	5e000800 	.word	0x8005e
8011c2d0:	00000220 	addi	v0,zero,0
8011c2d4:	5f000900 	.word	0x9005f
8011c2d8:	00000220 	addi	v0,zero,0
8011c2dc:	60000a00 	.word	0xa0060
8011c2e0:	00000280 	lb	v0,0(zero)
8011c2e4:	61000000 	.word	0x61
8011c2e8:	00000320 	addi	v1,zero,0
8011c2ec:	62000100 	.word	0x10062
8011c2f0:	00000320 	addi	v1,zero,0
8011c2f4:	63000200 	.word	0x20063
8011c2f8:	00000320 	addi	v1,zero,0
8011c2fc:	64000300 	.word	0x30064
8011c300:	00000320 	addi	v1,zero,0
8011c304:	65000400 	.word	0x40065
8011c308:	00000320 	addi	v1,zero,0
8011c30c:	66000600 	.word	0x60066
8011c310:	00000320 	addi	v1,zero,0
8011c314:	67000700 	.word	0x70067
8011c318:	00000320 	addi	v1,zero,0
8011c31c:	68000800 	.word	0x80068
8011c320:	00000320 	addi	v1,zero,0
8011c324:	69000900 	.word	0x90069
8011c328:	00000320 	addi	v1,zero,0
8011c32c:	6a000a00 	.word	0xa006a
8011c330:	00000320 	addi	v1,zero,0
8011c334:	6b000b00 	.word	0xb006b
8011c338:	00000320 	addi	v1,zero,0
8011c33c:	6c000c00 	.word	0xc006c
8011c340:	00000320 	addi	v1,zero,0
8011c344:	6d000d00 	.word	0xd006d
8011c348:	000003e0 	swc0	$3,0(zero)
8011c34c:	a8521280 	lb	s2,21160(zero)
8011c350:	f0521280 	lb	s2,21232(zero)
8011c354:	00000600 	sll	zero,a2,0x0
8011c358:	01000600 	.word	0x60001
8011c35c:	02000600 	srl	zero,a2,0x0
8011c360:	03000640 	.word	0x40060003
8011c364:	f0521280 	lb	s2,21232(zero)
