
rom/extracted/BIN/A0G.BIN:     file format binary


Disassembly of section .data:

80100000 <.data>:
80100000:	1a000000 	div	zero,zero,zero
80100004:	549b1080 	lb	s0,-25772(zero)
80100008:	dc991080 	lb	s0,-26148(zero)
8010000c:	fc981080 	lb	s0,-26372(zero)
80100010:	dc991080 	lb	s0,-26148(zero)
80100014:	dc991080 	lb	s0,-26148(zero)
80100018:	dc991080 	lb	s0,-26148(zero)
8010001c:	549b1080 	lb	s0,-25772(zero)
80100020:	dc991080 	lb	s0,-26148(zero)
80100024:	98991080 	lb	s0,-26216(zero)
80100028:	c0991080 	lb	s0,-26176(zero)
8010002c:	88991080 	lb	s0,-26232(zero)
80100030:	88991080 	lb	s0,-26232(zero)
80100034:	c0991080 	lb	s0,-26176(zero)
80100038:	c0991080 	lb	s0,-26176(zero)
8010003c:	a8991080 	lb	s0,-26200(zero)
80100040:	c0991080 	lb	s0,-26176(zero)
80100044:	c0991080 	lb	s0,-26176(zero)
80100048:	c0991080 	lb	s0,-26176(zero)
8010004c:	c0991080 	lb	s0,-26176(zero)
80100050:	c0991080 	lb	s0,-26176(zero)
80100054:	c0991080 	lb	s0,-26176(zero)
80100058:	c0991080 	lb	s0,-26176(zero)
8010005c:	c0991080 	lb	s0,-26176(zero)
80100060:	c0991080 	lb	s0,-26176(zero)
80100064:	c0991080 	lb	s0,-26176(zero)
80100068:	c0991080 	lb	s0,-26176(zero)
8010006c:	c0991080 	lb	s0,-26176(zero)
80100070:	b8991080 	lb	s0,-26184(zero)
80100074:	189b1080 	lb	s0,-25832(zero)
80100078:	409b1080 	lb	s0,-25792(zero)
8010007c:	089b1080 	lb	s0,-25848(zero)
80100080:	089b1080 	lb	s0,-25848(zero)
80100084:	409b1080 	lb	s0,-25792(zero)
80100088:	409b1080 	lb	s0,-25792(zero)
8010008c:	289b1080 	lb	s0,-25816(zero)
80100090:	409b1080 	lb	s0,-25792(zero)
80100094:	409b1080 	lb	s0,-25792(zero)
80100098:	409b1080 	lb	s0,-25792(zero)
8010009c:	409b1080 	lb	s0,-25792(zero)
801000a0:	409b1080 	lb	s0,-25792(zero)
801000a4:	409b1080 	lb	s0,-25792(zero)
801000a8:	409b1080 	lb	s0,-25792(zero)
801000ac:	409b1080 	lb	s0,-25792(zero)
801000b0:	409b1080 	lb	s0,-25792(zero)
801000b4:	409b1080 	lb	s0,-25792(zero)
801000b8:	409b1080 	lb	s0,-25792(zero)
801000bc:	409b1080 	lb	s0,-25792(zero)
801000c0:	389b1080 	lb	s0,-25800(zero)
801000c4:	dc9f1080 	lb	s0,-24612(zero)
801000c8:	04a01080 	lb	s0,-24572(zero)
801000cc:	cc9f1080 	lb	s0,-24628(zero)
801000d0:	cc9f1080 	lb	s0,-24628(zero)
801000d4:	04a01080 	lb	s0,-24572(zero)
801000d8:	04a01080 	lb	s0,-24572(zero)
801000dc:	ec9f1080 	lb	s0,-24596(zero)
801000e0:	04a01080 	lb	s0,-24572(zero)
801000e4:	04a01080 	lb	s0,-24572(zero)
801000e8:	04a01080 	lb	s0,-24572(zero)
801000ec:	04a01080 	lb	s0,-24572(zero)
801000f0:	04a01080 	lb	s0,-24572(zero)
801000f4:	04a01080 	lb	s0,-24572(zero)
801000f8:	04a01080 	lb	s0,-24572(zero)
801000fc:	04a01080 	lb	s0,-24572(zero)
80100100:	04a01080 	lb	s0,-24572(zero)
80100104:	04a01080 	lb	s0,-24572(zero)
80100108:	04a01080 	lb	s0,-24572(zero)
8010010c:	04a01080 	lb	s0,-24572(zero)
80100110:	fc9f1080 	lb	s0,-24580(zero)
80100114:	c0a61080 	lb	s0,-22848(zero)
80100118:	d8a61080 	lb	s0,-22824(zero)
8010011c:	04a71080 	lb	s0,-22780(zero)
80100120:	28a71080 	lb	s0,-22744(zero)
80100124:	94a71080 	lb	s0,-22636(zero)
80100128:	00000000 	nop
8010012c:	30a81080 	lb	s0,-22480(zero)
80100130:	4ca91080 	lb	s0,-22196(zero)
80100134:	5ca91080 	lb	s0,-22180(zero)
80100138:	b4a91080 	lb	s0,-22092(zero)
8010013c:	d0aa1080 	lb	s0,-21808(zero)
80100140:	f8aa1080 	lb	s0,-21768(zero)
80100144:	40b41080 	lb	s0,-19392(zero)
80100148:	60b41080 	lb	s0,-19360(zero)
8010014c:	6cb41080 	lb	s0,-19348(zero)
80100150:	7cb41080 	lb	s0,-19332(zero)
80100154:	60b51080 	lb	s0,-19104(zero)
80100158:	90b41080 	lb	s0,-19312(zero)
8010015c:	60b51080 	lb	s0,-19104(zero)
80100160:	a8b41080 	lb	s0,-19288(zero)
80100164:	60b51080 	lb	s0,-19104(zero)
80100168:	b4b41080 	lb	s0,-19276(zero)
8010016c:	c8b41080 	lb	s0,-19256(zero)
80100170:	d4b41080 	lb	s0,-19244(zero)
80100174:	ecb41080 	lb	s0,-19220(zero)
80100178:	f8b41080 	lb	s0,-19208(zero)
8010017c:	0cb51080 	lb	s0,-19188(zero)
80100180:	20b51080 	lb	s0,-19168(zero)
80100184:	34b51080 	lb	s0,-19148(zero)
80100188:	48b51080 	lb	s0,-19128(zero)
8010018c:	60b51080 	lb	s0,-19104(zero)
80100190:	74b51080 	lb	s0,-19084(zero)
80100194:	c0b51080 	lb	s0,-19008(zero)
80100198:	e0b51080 	lb	s0,-18976(zero)
8010019c:	00b61080 	lb	s0,-18944(zero)
801001a0:	20b61080 	lb	s0,-18912(zero)
801001a4:	40b61080 	lb	s0,-18880(zero)
801001a8:	60b61080 	lb	s0,-18848(zero)
801001ac:	80b61080 	lb	s0,-18816(zero)
801001b0:	a0b61080 	lb	s0,-18784(zero)
801001b4:	c0b61080 	lb	s0,-18752(zero)
801001b8:	e0b61080 	lb	s0,-18720(zero)
801001bc:	00b71080 	lb	s0,-18688(zero)
801001c0:	20b71080 	lb	s0,-18656(zero)
801001c4:	40b71080 	lb	s0,-18624(zero)
801001c8:	60b71080 	lb	s0,-18592(zero)
801001cc:	80b71080 	lb	s0,-18560(zero)
801001d0:	a0b71080 	lb	s0,-18528(zero)
801001d4:	c0b71080 	lb	s0,-18496(zero)
801001d8:	f8b71080 	lb	s0,-18440(zero)
801001dc:	18b81080 	lb	s0,-18408(zero)
801001e0:	38b81080 	lb	s0,-18376(zero)
801001e4:	d8ffbd27 	addiu	sp,sp,-40
801001e8:	1800b2af 	sw	s2,24(sp)
801001ec:	21908000 	move	s2,a0
801001f0:	1400b1af 	sw	s1,20(sp)
801001f4:	2188a000 	move	s1,a1
801001f8:	2000bfaf 	sw	ra,32(sp)
801001fc:	1c00b3af 	sw	s3,28(sp)
80100200:	1000b0af 	sw	s0,16(sp)
80100204:	80002686 	lh	a2,128(s1)
80100208:	038c000c 	jal	0x8002300c
8010020c:	80300600 	sll	a2,a2,0x2
80100210:	6b004010 	beqz	v0,0x801003c0
80100214:	801f023c 	lui	v0,0x1f80
80100218:	9c004394 	lhu	v1,156(v0)
8010021c:	01000224 	li	v0,1
80100220:	2b0022a2 	sb	v0,43(s1)
80100224:	801f023c 	lui	v0,0x1f80
80100228:	37014290 	lbu	v0,311(v0)
8010022c:	00000000 	nop
80100230:	38004014 	bnez	v0,0x80100314
80100234:	00087324 	addiu	s3,v1,2048
80100238:	36002496 	lhu	a0,54(s1)
8010023c:	36004296 	lhu	v0,54(s2)
80100240:	2e002596 	lhu	a1,46(s1)
80100244:	40015096 	lhu	s0,320(s2)
80100248:	23208200 	subu	a0,a0,v0
8010024c:	00240400 	sll	a0,a0,0x10
80100250:	03240400 	sra	a0,a0,0x10
80100254:	23200400 	negu	a0,a0
80100258:	2e004296 	lhu	v0,46(s2)
8010025c:	00fc1026 	addiu	s0,s0,-1024
80100260:	2328a200 	subu	a1,a1,v0
80100264:	002c0500 	sll	a1,a1,0x10
80100268:	a415020c 	jal	0x80085690
8010026c:	032c0500 	sra	a1,a1,0x10
80100270:	00210200 	sll	a0,v0,0x4
80100274:	00811000 	sll	s0,s0,0x4
80100278:	23809000 	subu	s0,a0,s0
8010027c:	00841000 	sll	s0,s0,0x10
80100280:	03841000 	sra	s0,s0,0x10
80100284:	02000106 	bgez	s0,0x80100290
80100288:	00000000 	nop
8010028c:	23801000 	negu	s0,s0
80100290:	0010102a 	slti	s0,s0,4096
80100294:	0b000012 	beqz	s0,0x801002c4
80100298:	801f033c 	lui	v1,0x1f80
8010029c:	00410224 	li	v0,16640
801002a0:	0c80043c 	lui	a0,0x800c
801002a4:	8e0162a4 	sh	v0,398(v1)
801002a8:	40014396 	lhu	v1,320(s2)
801002ac:	42000224 	li	v0,66
801002b0:	40f882a0 	sb	v0,-1984(a0)
801002b4:	801f023c 	lui	v0,0x1f80
801002b8:	00fc6324 	addiu	v1,v1,-1024
801002bc:	ac240408 	j	0x801092b0
801002c0:	8c0143a4 	sh	v1,396(v0)
801002c4:	40014296 	lhu	v0,320(s2)
801002c8:	00000000 	nop
801002cc:	00044324 	addiu	v1,v0,1024
801002d0:	00110300 	sll	v0,v1,0x4
801002d4:	23108200 	subu	v0,a0,v0
801002d8:	00140200 	sll	v0,v0,0x10
801002dc:	03140200 	sra	v0,v0,0x10
801002e0:	02004104 	bgez	v0,0x801002ec
801002e4:	00000000 	nop
801002e8:	23100200 	negu	v0,v0
801002ec:	00104228 	slti	v0,v0,4096
801002f0:	08004010 	beqz	v0,0x80100314
801002f4:	801f023c 	lui	v0,0x1f80
801002f8:	8c0143a4 	sh	v1,396(v0)
801002fc:	801f033c 	lui	v1,0x1f80
80100300:	00420224 	li	v0,16896
80100304:	8e0162a4 	sh	v0,398(v1)
80100308:	0c80033c 	lui	v1,0x800c
8010030c:	43000224 	li	v0,67
80100310:	40f862a0 	sb	v0,-1984(v1)
80100314:	80004286 	lh	v0,128(s2)
80100318:	80002386 	lh	v1,128(s1)
8010031c:	801f043c 	lui	a0,0x1f80
80100320:	21104300 	addu	v0,v0,v1
80100324:	8c008394 	lhu	v1,140(a0)
80100328:	50004224 	addiu	v0,v0,80
8010032c:	2a104300 	slt	v0,v0,v1
80100330:	23004014 	bnez	v0,0x801003c0
80100334:	02000224 	li	v0,2
80100338:	2b0022a2 	sb	v0,43(s1)
8010033c:	80004286 	lh	v0,128(s2)
80100340:	80002386 	lh	v1,128(s1)
80100344:	8c008494 	lhu	a0,140(a0)
80100348:	21104300 	addu	v0,v0,v1
8010034c:	2a104400 	slt	v0,v0,a0
80100350:	1b004014 	bnez	v0,0x801003c0
80100354:	00841300 	sll	s0,s3,0x10
80100358:	03841000 	sra	s0,s0,0x10
8010035c:	d40f020c 	jal	0x80083f50
80100360:	21200002 	move	a0,s0
80100364:	80004386 	lh	v1,128(s2)
80100368:	80002486 	lh	a0,128(s1)
8010036c:	00000000 	nop
80100370:	21186400 	addu	v1,v1,a0
80100374:	18004300 	mult	v0,v1
80100378:	21200002 	move	a0,s0
8010037c:	12380000 	mflo	a3
80100380:	a00f020c 	jal	0x80083e80
80100384:	03830700 	sra	s0,a3,0xc
80100388:	80004386 	lh	v1,128(s2)
8010038c:	80002486 	lh	a0,128(s1)
80100390:	00000000 	nop
80100394:	21186400 	addu	v1,v1,a0
80100398:	18004300 	mult	v0,v1
8010039c:	2e002296 	lhu	v0,46(s1)
801003a0:	00000000 	nop
801003a4:	21105000 	addu	v0,v0,s0
801003a8:	2e0042a6 	sh	v0,46(s2)
801003ac:	36002296 	lhu	v0,54(s1)
801003b0:	12380000 	mflo	a3
801003b4:	031b0700 	sra	v1,a3,0xc
801003b8:	23104300 	subu	v0,v0,v1
801003bc:	360042a6 	sh	v0,54(s2)
801003c0:	2000bf8f 	lw	ra,32(sp)
801003c4:	1c00b38f 	lw	s3,28(sp)
801003c8:	1800b28f 	lw	s2,24(sp)
801003cc:	1400b18f 	lw	s1,20(sp)
801003d0:	1000b08f 	lw	s0,16(sp)
801003d4:	0800e003 	jr	ra
801003d8:	2800bd27 	addiu	sp,sp,40
801003dc:	d8ffbd27 	addiu	sp,sp,-40
801003e0:	801f023c 	lui	v0,0x1f80
801003e4:	1c00b3af 	sw	s3,28(sp)
801003e8:	5401538c 	lw	s3,340(v0)
801003ec:	801f023c 	lui	v0,0x1f80
801003f0:	5c014290 	lbu	v0,348(v0)
801003f4:	801f033c 	lui	v1,0x1f80
801003f8:	2400bfaf 	sw	ra,36(sp)
801003fc:	2000b4af 	sw	s4,32(sp)
80100400:	1800b2af 	sw	s2,24(sp)
80100404:	1400b1af 	sw	s1,20(sp)
80100408:	1000b0af 	sw	s0,16(sp)
8010040c:	830162a0 	sb	v0,387(v1)
80100410:	ff004230 	andi	v0,v0,0xff
80100414:	72004010 	beqz	v0,0x801005e0
80100418:	801f113c 	lui	s1,0x1f80
8010041c:	08001424 	li	s4,8
80100420:	83016290 	lbu	v0,387(v1)
80100424:	0000728e 	lw	s2,0(s3)
80100428:	ffff4224 	addiu	v0,v0,-1
8010042c:	830162a0 	sb	v0,387(v1)
80100430:	00004292 	lbu	v0,0(s2)
80100434:	00000000 	nop
80100438:	02004230 	andi	v0,v0,0x2
8010043c:	63004014 	bnez	v0,0x801005cc
80100440:	04007326 	addiu	s3,s3,4
80100444:	02004392 	lbu	v1,2(s2)
80100448:	01000224 	li	v0,1
8010044c:	0b006210 	beq	v1,v0,0x8010047c
80100450:	02006228 	slti	v0,v1,2
80100454:	05004010 	beqz	v0,0x8010046c
80100458:	04000224 	li	v0,4
8010045c:	34006010 	beqz	v1,0x80100530
80100460:	801f033c 	lui	v1,0x1f80
80100464:	5b250408 	j	0x8010956c
80100468:	00000000 	nop
8010046c:	30006210 	beq	v1,v0,0x80100530
80100470:	801f033c 	lui	v1,0x1f80
80100474:	5b250408 	j	0x8010956c
80100478:	00000000 	nop
8010047c:	03004292 	lbu	v0,3(s2)
80100480:	00000000 	nop
80100484:	52004314 	bne	v0,v1,0x801005d0
80100488:	801f033c 	lui	v1,0x1f80
8010048c:	801f023c 	lui	v0,0x1f80
80100490:	50014290 	lbu	v0,336(v0)
80100494:	12250408 	j	0x80109448
80100498:	820122a2 	sb	v0,386(s1)
8010049c:	82012292 	lbu	v0,386(s1)
801004a0:	00000000 	nop
801004a4:	ffff4224 	addiu	v0,v0,-1
801004a8:	820122a2 	sb	v0,386(s1)
801004ac:	ff004230 	andi	v0,v0,0xff
801004b0:	faff4014 	bnez	v0,0x8010049c
801004b4:	801f023c 	lui	v0,0x1f80
801004b8:	3c01508c 	lw	s0,316(v0)
801004bc:	801f023c 	lui	v0,0x1f80
801004c0:	44014290 	lbu	v0,324(v0)
801004c4:	00000000 	nop
801004c8:	820122a2 	sb	v0,386(s1)
801004cc:	ff004230 	andi	v0,v0,0xff
801004d0:	3f004010 	beqz	v0,0x801005d0
801004d4:	801f033c 	lui	v1,0x1f80
801004d8:	82012292 	lbu	v0,386(s1)
801004dc:	0000058e 	lw	a1,0(s0)
801004e0:	ffff4224 	addiu	v0,v0,-1
801004e4:	820122a2 	sb	v0,386(s1)
801004e8:	0000a290 	lbu	v0,0(a1)
801004ec:	00000000 	nop
801004f0:	01004230 	andi	v0,v0,0x1
801004f4:	07004010 	beqz	v0,0x80100514
801004f8:	04001026 	addiu	s0,s0,4
801004fc:	0200a290 	lbu	v0,2(a1)
80100500:	00000000 	nop
80100504:	04005414 	bne	v0,s4,0x80100518
80100508:	801f023c 	lui	v0,0x1f80
8010050c:	8f90000c 	jal	0x8002423c
80100510:	21204002 	move	a0,s2
80100514:	801f023c 	lui	v0,0x1f80
80100518:	82014290 	lbu	v0,386(v0)
8010051c:	00000000 	nop
80100520:	edff4014 	bnez	v0,0x801004d8
80100524:	801f033c 	lui	v1,0x1f80
80100528:	5b250408 	j	0x8010956c
8010052c:	00000000 	nop
80100530:	801f023c 	lui	v0,0x1f80
80100534:	50014290 	lbu	v0,336(v0)
80100538:	3b250408 	j	0x801094ec
8010053c:	820122a2 	sb	v0,386(s1)
80100540:	82012292 	lbu	v0,386(s1)
80100544:	00000000 	nop
80100548:	ffff4224 	addiu	v0,v0,-1
8010054c:	820122a2 	sb	v0,386(s1)
80100550:	ff004230 	andi	v0,v0,0xff
80100554:	faff4014 	bnez	v0,0x80100540
80100558:	801f023c 	lui	v0,0x1f80
8010055c:	3c01508c 	lw	s0,316(v0)
80100560:	801f023c 	lui	v0,0x1f80
80100564:	44014290 	lbu	v0,324(v0)
80100568:	00000000 	nop
8010056c:	820122a2 	sb	v0,386(s1)
80100570:	ff004230 	andi	v0,v0,0xff
80100574:	16004010 	beqz	v0,0x801005d0
80100578:	801f033c 	lui	v1,0x1f80
8010057c:	82012292 	lbu	v0,386(s1)
80100580:	0000058e 	lw	a1,0(s0)
80100584:	ffff4224 	addiu	v0,v0,-1
80100588:	820122a2 	sb	v0,386(s1)
8010058c:	0000a290 	lbu	v0,0(a1)
80100590:	00000000 	nop
80100594:	01004230 	andi	v0,v0,0x1
80100598:	07004010 	beqz	v0,0x801005b8
8010059c:	04001026 	addiu	s0,s0,4
801005a0:	0200a290 	lbu	v0,2(a1)
801005a4:	00000000 	nop
801005a8:	04005414 	bne	v0,s4,0x801005bc
801005ac:	801f023c 	lui	v0,0x1f80
801005b0:	8f90000c 	jal	0x8002423c
801005b4:	21204002 	move	a0,s2
801005b8:	801f023c 	lui	v0,0x1f80
801005bc:	82014290 	lbu	v0,386(v0)
801005c0:	00000000 	nop
801005c4:	edff4014 	bnez	v0,0x8010057c
801005c8:	00000000 	nop
801005cc:	801f033c 	lui	v1,0x1f80
801005d0:	83016290 	lbu	v0,387(v1)
801005d4:	00000000 	nop
801005d8:	91ff4014 	bnez	v0,0x80100420
801005dc:	00000000 	nop
801005e0:	2400bf8f 	lw	ra,36(sp)
801005e4:	2000b48f 	lw	s4,32(sp)
801005e8:	1c00b38f 	lw	s3,28(sp)
801005ec:	1800b28f 	lw	s2,24(sp)
801005f0:	1400b18f 	lw	s1,20(sp)
801005f4:	1000b08f 	lw	s0,16(sp)
801005f8:	0800e003 	jr	ra
801005fc:	2800bd27 	addiu	sp,sp,40
80100600:	d0ffbd27 	addiu	sp,sp,-48
80100604:	801f023c 	lui	v0,0x1f80
80100608:	1c00b3af 	sw	s3,28(sp)
8010060c:	3c01538c 	lw	s3,316(v0)
80100610:	801f023c 	lui	v0,0x1f80
80100614:	801f033c 	lui	v1,0x1f80
80100618:	44014490 	lbu	a0,324(v0)
8010061c:	50016284 	lh	v0,336(v1)
80100620:	801f033c 	lui	v1,0x1f80
80100624:	2c00bfaf 	sw	ra,44(sp)
80100628:	2800b6af 	sw	s6,40(sp)
8010062c:	2400b5af 	sw	s5,36(sp)
80100630:	2000b4af 	sw	s4,32(sp)
80100634:	1800b2af 	sw	s2,24(sp)
80100638:	1400b1af 	sw	s1,20(sp)
8010063c:	1000b0af 	sw	s0,16(sp)
80100640:	36004010 	beqz	v0,0x8010071c
80100644:	830164a0 	sb	a0,387(v1)
80100648:	ff008230 	andi	v0,a0,0xff
8010064c:	33004010 	beqz	v0,0x8010071c
80100650:	21a06000 	move	s4,v1
80100654:	801f123c 	lui	s2,0x1f80
80100658:	0c001624 	li	s6,12
8010065c:	1f001524 	li	s5,31
80100660:	0000718e 	lw	s1,0(s3)
80100664:	83018292 	lbu	v0,387(s4)
80100668:	00000000 	nop
8010066c:	ffff4224 	addiu	v0,v0,-1
80100670:	830182a2 	sb	v0,387(s4)
80100674:	00002392 	lbu	v1,0(s1)
80100678:	02000224 	li	v0,2
8010067c:	22006210 	beq	v1,v0,0x80100708
80100680:	04007326 	addiu	s3,s3,4
80100684:	08006230 	andi	v0,v1,0x8
80100688:	1f004014 	bnez	v0,0x80100708
8010068c:	801f023c 	lui	v0,0x1f80
80100690:	4801508c 	lw	s0,328(v0)
80100694:	801f023c 	lui	v0,0x1f80
80100698:	50014290 	lbu	v0,336(v0)
8010069c:	00000000 	nop
801006a0:	820142a2 	sb	v0,386(s2)
801006a4:	ff004230 	andi	v0,v0,0xff
801006a8:	18004010 	beqz	v0,0x8010070c
801006ac:	801f033c 	lui	v1,0x1f80
801006b0:	82014292 	lbu	v0,386(s2)
801006b4:	0000058e 	lw	a1,0(s0)
801006b8:	ffff4224 	addiu	v0,v0,-1
801006bc:	820142a2 	sb	v0,386(s2)
801006c0:	0000a290 	lbu	v0,0(a1)
801006c4:	00000000 	nop
801006c8:	01004230 	andi	v0,v0,0x1
801006cc:	09004010 	beqz	v0,0x801006f4
801006d0:	04001026 	addiu	s0,s0,4
801006d4:	0200a290 	lbu	v0,2(a1)
801006d8:	00000000 	nop
801006dc:	03005610 	beq	v0,s6,0x801006ec
801006e0:	00000000 	nop
801006e4:	04005514 	bne	v0,s5,0x801006f8
801006e8:	801f023c 	lui	v0,0x1f80
801006ec:	8790000c 	jal	0x8002421c
801006f0:	21202002 	move	a0,s1
801006f4:	801f023c 	lui	v0,0x1f80
801006f8:	82014290 	lbu	v0,386(v0)
801006fc:	00000000 	nop
80100700:	ebff4014 	bnez	v0,0x801006b0
80100704:	00000000 	nop
80100708:	801f033c 	lui	v1,0x1f80
8010070c:	83016290 	lbu	v0,387(v1)
80100710:	00000000 	nop
80100714:	d2ff4014 	bnez	v0,0x80100660
80100718:	00000000 	nop
8010071c:	2c00bf8f 	lw	ra,44(sp)
80100720:	2800b68f 	lw	s6,40(sp)
80100724:	2400b58f 	lw	s5,36(sp)
80100728:	2000b48f 	lw	s4,32(sp)
8010072c:	1c00b38f 	lw	s3,28(sp)
80100730:	1800b28f 	lw	s2,24(sp)
80100734:	1400b18f 	lw	s1,20(sp)
80100738:	1000b08f 	lw	s0,16(sp)
8010073c:	0800e003 	jr	ra
80100740:	3000bd27 	addiu	sp,sp,48
80100744:	801f023c 	lui	v0,0x1f80
80100748:	44014390 	lbu	v1,324(v0)
8010074c:	801f053c 	lui	a1,0x1f80
80100750:	ff006230 	andi	v0,v1,0xff
80100754:	0200422c 	sltiu	v0,v0,2
80100758:	23004014 	bnez	v0,0x801007e8
8010075c:	8301a3a0 	sb	v1,387(a1)
80100760:	801f023c 	lui	v0,0x1f80
80100764:	3c01448c 	lw	a0,316(v0)
80100768:	ffff6224 	addiu	v0,v1,-1
8010076c:	8301a2a0 	sb	v0,387(a1)
80100770:	ff004230 	andi	v0,v0,0xff
80100774:	1c004010 	beqz	v0,0x801007e8
80100778:	02000724 	li	a3,2
8010077c:	07000624 	li	a2,7
80100780:	801f033c 	lui	v1,0x1f80
80100784:	0000828c 	lw	v0,0(a0)
80100788:	00000000 	nop
8010078c:	00004290 	lbu	v0,0(v0)
80100790:	00000000 	nop
80100794:	0d004710 	beq	v0,a3,0x801007cc
80100798:	04008424 	addiu	a0,a0,4
8010079c:	0b004610 	beq	v0,a2,0x801007cc
801007a0:	00000000 	nop
801007a4:	8301a290 	lbu	v0,387(a1)
801007a8:	d7250408 	j	0x8010975c
801007ac:	820162a0 	sb	v0,386(v1)
801007b0:	82016290 	lbu	v0,386(v1)
801007b4:	00000000 	nop
801007b8:	ffff4224 	addiu	v0,v0,-1
801007bc:	820162a0 	sb	v0,386(v1)
801007c0:	ff004230 	andi	v0,v0,0xff
801007c4:	faff4014 	bnez	v0,0x801007b0
801007c8:	00000000 	nop
801007cc:	8301a290 	lbu	v0,387(a1)
801007d0:	00000000 	nop
801007d4:	ffff4224 	addiu	v0,v0,-1
801007d8:	8301a2a0 	sb	v0,387(a1)
801007dc:	ff004230 	andi	v0,v0,0xff
801007e0:	e8ff4014 	bnez	v0,0x80100784
801007e4:	00000000 	nop
801007e8:	0800e003 	jr	ra
801007ec:	00000000 	nop
801007f0:	801f023c 	lui	v0,0x1f80
801007f4:	50014284 	lh	v0,336(v0)
801007f8:	e0ffbd27 	addiu	sp,sp,-32
801007fc:	1c00bfaf 	sw	ra,28(sp)
80100800:	1800b2af 	sw	s2,24(sp)
80100804:	1400b1af 	sw	s1,20(sp)
80100808:	38004010 	beqz	v0,0x801008ec
8010080c:	1000b0af 	sw	s0,16(sp)
80100810:	0f80023c 	lui	v0,0x800f
80100814:	3827508c 	lw	s0,10040(v0)
80100818:	00000000 	nop
8010081c:	33000012 	beqz	s0,0x801008ec
80100820:	801f123c 	lui	s2,0x1f80
80100824:	00000292 	lbu	v0,0(s0)
80100828:	00000000 	nop
8010082c:	01004230 	andi	v0,v0,0x1
80100830:	2a004010 	beqz	v0,0x801008dc
80100834:	00000000 	nop
80100838:	2b000292 	lbu	v0,43(s0)
8010083c:	00000000 	nop
80100840:	26004014 	bnez	v0,0x801008dc
80100844:	801f023c 	lui	v0,0x1f80
80100848:	4801518c 	lw	s1,328(v0)
8010084c:	801f023c 	lui	v0,0x1f80
80100850:	50014290 	lbu	v0,336(v0)
80100854:	00000000 	nop
80100858:	820142a2 	sb	v0,386(s2)
8010085c:	ff004230 	andi	v0,v0,0xff
80100860:	1e004010 	beqz	v0,0x801008dc
80100864:	00000000 	nop
80100868:	82014292 	lbu	v0,386(s2)
8010086c:	0000258e 	lw	a1,0(s1)
80100870:	ffff4224 	addiu	v0,v0,-1
80100874:	820142a2 	sb	v0,386(s2)
80100878:	0000a290 	lbu	v0,0(a1)
8010087c:	00000000 	nop
80100880:	01004230 	andi	v0,v0,0x1
80100884:	10004010 	beqz	v0,0x801008c8
80100888:	04003126 	addiu	s1,s1,4
8010088c:	0200a390 	lbu	v1,2(a1)
80100890:	0c000224 	li	v0,12
80100894:	05006210 	beq	v1,v0,0x801008ac
80100898:	12000224 	li	v0,18
8010089c:	07006210 	beq	v1,v0,0x801008bc
801008a0:	801f023c 	lui	v0,0x1f80
801008a4:	1a260408 	j	0x80109868
801008a8:	00000000 	nop
801008ac:	868d000c 	jal	0x80023618
801008b0:	21200002 	move	a0,s0
801008b4:	1a260408 	j	0x80109868
801008b8:	801f023c 	lui	v0,0x1f80
801008bc:	21200002 	move	a0,s0
801008c0:	ad85000c 	jal	0x800216b4
801008c4:	21300000 	move	a2,zero
801008c8:	801f023c 	lui	v0,0x1f80
801008cc:	82014290 	lbu	v0,386(v0)
801008d0:	00000000 	nop
801008d4:	e4ff4014 	bnez	v0,0x80100868
801008d8:	00000000 	nop
801008dc:	2400108e 	lw	s0,36(s0)
801008e0:	00000000 	nop
801008e4:	cfff0016 	bnez	s0,0x80100824
801008e8:	00000000 	nop
801008ec:	1c00bf8f 	lw	ra,28(sp)
801008f0:	1800b28f 	lw	s2,24(sp)
801008f4:	1400b18f 	lw	s1,20(sp)
801008f8:	1000b08f 	lw	s0,16(sp)
801008fc:	0800e003 	jr	ra
80100900:	2000bd27 	addiu	sp,sp,32
80100904:	d8ffbd27 	addiu	sp,sp,-40
80100908:	1000b0af 	sw	s0,16(sp)
8010090c:	0e80103c 	lui	s0,0x800e
80100910:	1c00b3af 	sw	s3,28(sp)
80100914:	807e1326 	addiu	s3,s0,32384
80100918:	21206002 	move	a0,s3
8010091c:	2400bfaf 	sw	ra,36(sp)
80100920:	2000b4af 	sw	s4,32(sp)
80100924:	1800b2af 	sw	s2,24(sp)
80100928:	238a000c 	jal	0x8002288c
8010092c:	1400b1af 	sw	s1,20(sp)
80100930:	807e0392 	lbu	v1,32384(s0)
80100934:	00000000 	nop
80100938:	0800622c 	sltiu	v0,v1,8
8010093c:	40004010 	beqz	v0,0x80100a40
80100940:	1180023c 	lui	v0,0x8011
80100944:	a08f4224 	addiu	v0,v0,-28768
80100948:	80180300 	sll	v1,v1,0x2
8010094c:	21186200 	addu	v1,v1,v0
80100950:	0000628c 	lw	v0,0(v1)
80100954:	00000000 	nop
80100958:	08004000 	jr	v0
8010095c:	00000000 	nop
80100960:	5801628e 	lw	v0,344(s3)
80100964:	00000000 	nop
80100968:	0200422c 	sltiu	v0,v0,2
8010096c:	92004010 	beqz	v0,0x80100bb8
80100970:	801f023c 	lui	v0,0x1f80
80100974:	4801508c 	lw	s0,328(v0)
80100978:	801f023c 	lui	v0,0x1f80
8010097c:	50014290 	lbu	v0,336(v0)
80100980:	801f033c 	lui	v1,0x1f80
80100984:	820162a0 	sb	v0,386(v1)
80100988:	ff004230 	andi	v0,v0,0xff
8010098c:	8a004010 	beqz	v0,0x80100bb8
80100990:	1180023c 	lui	v0,0x8011
80100994:	21886000 	move	s1,v1
80100998:	c08f5224 	addiu	s2,v0,-28736
8010099c:	82012292 	lbu	v0,386(s1)
801009a0:	0000058e 	lw	a1,0(s0)
801009a4:	ffff4224 	addiu	v0,v0,-1
801009a8:	820122a2 	sb	v0,386(s1)
801009ac:	0000a290 	lbu	v0,0(a1)
801009b0:	00000000 	nop
801009b4:	01004230 	andi	v0,v0,0x1
801009b8:	1a004010 	beqz	v0,0x80100a24
801009bc:	04001026 	addiu	s0,s0,4
801009c0:	0200a290 	lbu	v0,2(a1)
801009c4:	00000000 	nop
801009c8:	f4ff4324 	addiu	v1,v0,-12
801009cc:	1400622c 	sltiu	v0,v1,20
801009d0:	14004010 	beqz	v0,0x80100a24
801009d4:	80100300 	sll	v0,v1,0x2
801009d8:	21105200 	addu	v0,v0,s2
801009dc:	0000428c 	lw	v0,0(v0)
801009e0:	00000000 	nop
801009e4:	08004000 	jr	v0
801009e8:	00000000 	nop
801009ec:	b87e000c 	jal	0x8001fae0
801009f0:	21206002 	move	a0,s3
801009f4:	71260408 	j	0x801099c4
801009f8:	801f033c 	lui	v1,0x1f80
801009fc:	1a82000c 	jal	0x80020868
80100a00:	21206002 	move	a0,s3
80100a04:	71260408 	j	0x801099c4
80100a08:	801f033c 	lui	v1,0x1f80
80100a0c:	478c000c 	jal	0x8002311c
80100a10:	21206002 	move	a0,s3
80100a14:	71260408 	j	0x801099c4
80100a18:	801f033c 	lui	v1,0x1f80
80100a1c:	d98d000c 	jal	0x80023764
80100a20:	21206002 	move	a0,s3
80100a24:	801f033c 	lui	v1,0x1f80
80100a28:	82016290 	lbu	v0,386(v1)
80100a2c:	00000000 	nop
80100a30:	61004010 	beqz	v0,0x80100bb8
80100a34:	00000000 	nop
80100a38:	4e260408 	j	0x80109938
80100a3c:	00000000 	nop
80100a40:	d889000c 	jal	0x80022760
80100a44:	21206002 	move	a0,s3
80100a48:	801f023c 	lui	v0,0x1f80
80100a4c:	3c01508c 	lw	s0,316(v0)
80100a50:	801f023c 	lui	v0,0x1f80
80100a54:	44014290 	lbu	v0,324(v0)
80100a58:	801f033c 	lui	v1,0x1f80
80100a5c:	820162a0 	sb	v0,386(v1)
80100a60:	ff004230 	andi	v0,v0,0xff
80100a64:	1e004010 	beqz	v0,0x80100ae0
80100a68:	00000000 	nop
80100a6c:	21886000 	move	s1,v1
80100a70:	82012292 	lbu	v0,386(s1)
80100a74:	0000058e 	lw	a1,0(s0)
80100a78:	ffff4224 	addiu	v0,v0,-1
80100a7c:	820122a2 	sb	v0,386(s1)
80100a80:	0000a290 	lbu	v0,0(a1)
80100a84:	00000000 	nop
80100a88:	01004230 	andi	v0,v0,0x1
80100a8c:	0f004010 	beqz	v0,0x80100acc
80100a90:	04001026 	addiu	s0,s0,4
80100a94:	0c00a390 	lbu	v1,12(a1)
80100a98:	09000224 	li	v0,9
80100a9c:	05006214 	bne	v1,v0,0x80100ab4
80100aa0:	08000224 	li	v0,8
80100aa4:	6024040c 	jal	0x80109180
80100aa8:	21206002 	move	a0,s3
80100aac:	9b260408 	j	0x80109a6c
80100ab0:	801f033c 	lui	v1,0x1f80
80100ab4:	0200a390 	lbu	v1,2(a1)
80100ab8:	00000000 	nop
80100abc:	04006214 	bne	v1,v0,0x80100ad0
80100ac0:	801f033c 	lui	v1,0x1f80
80100ac4:	7381000c 	jal	0x800205cc
80100ac8:	21206002 	move	a0,s3
80100acc:	801f033c 	lui	v1,0x1f80
80100ad0:	82016290 	lbu	v0,386(v1)
80100ad4:	00000000 	nop
80100ad8:	e5ff4014 	bnez	v0,0x80100a70
80100adc:	00000000 	nop
80100ae0:	5801628e 	lw	v0,344(s3)
80100ae4:	00000000 	nop
80100ae8:	0200422c 	sltiu	v0,v0,2
80100aec:	32004010 	beqz	v0,0x80100bb8
80100af0:	801f023c 	lui	v0,0x1f80
80100af4:	4801508c 	lw	s0,328(v0)
80100af8:	801f023c 	lui	v0,0x1f80
80100afc:	50014290 	lbu	v0,336(v0)
80100b00:	801f033c 	lui	v1,0x1f80
80100b04:	820162a0 	sb	v0,386(v1)
80100b08:	ff004230 	andi	v0,v0,0xff
80100b0c:	2a004010 	beqz	v0,0x80100bb8
80100b10:	1180023c 	lui	v0,0x8011
80100b14:	21886000 	move	s1,v1
80100b18:	10905224 	addiu	s2,v0,-28656
80100b1c:	82012292 	lbu	v0,386(s1)
80100b20:	0000058e 	lw	a1,0(s0)
80100b24:	ffff4224 	addiu	v0,v0,-1
80100b28:	820122a2 	sb	v0,386(s1)
80100b2c:	0000a290 	lbu	v0,0(a1)
80100b30:	00000000 	nop
80100b34:	01004230 	andi	v0,v0,0x1
80100b38:	1a004010 	beqz	v0,0x80100ba4
80100b3c:	04001026 	addiu	s0,s0,4
80100b40:	0200a290 	lbu	v0,2(a1)
80100b44:	00000000 	nop
80100b48:	f4ff4324 	addiu	v1,v0,-12
80100b4c:	1400622c 	sltiu	v0,v1,20
80100b50:	14004010 	beqz	v0,0x80100ba4
80100b54:	80100300 	sll	v0,v1,0x2
80100b58:	21105200 	addu	v0,v0,s2
80100b5c:	0000428c 	lw	v0,0(v0)
80100b60:	00000000 	nop
80100b64:	08004000 	jr	v0
80100b68:	00000000 	nop
80100b6c:	b87e000c 	jal	0x8001fae0
80100b70:	21206002 	move	a0,s3
80100b74:	d1260408 	j	0x80109b44
80100b78:	801f033c 	lui	v1,0x1f80
80100b7c:	1a82000c 	jal	0x80020868
80100b80:	21206002 	move	a0,s3
80100b84:	d1260408 	j	0x80109b44
80100b88:	801f033c 	lui	v1,0x1f80
80100b8c:	478c000c 	jal	0x8002311c
80100b90:	21206002 	move	a0,s3
80100b94:	d1260408 	j	0x80109b44
80100b98:	801f033c 	lui	v1,0x1f80
80100b9c:	d98d000c 	jal	0x80023764
80100ba0:	21206002 	move	a0,s3
80100ba4:	801f033c 	lui	v1,0x1f80
80100ba8:	82016290 	lbu	v0,386(v1)
80100bac:	00000000 	nop
80100bb0:	daff4014 	bnez	v0,0x80100b1c
80100bb4:	00000000 	nop
80100bb8:	5589000c 	jal	0x80022554
80100bbc:	00000000 	nop
80100bc0:	801f023c 	lui	v0,0x1f80
80100bc4:	44014284 	lh	v0,324(v0)
80100bc8:	00000000 	nop
80100bcc:	31004010 	beqz	v0,0x80100c94
80100bd0:	0f80023c 	lui	v0,0x800f
80100bd4:	3827518c 	lw	s1,10040(v0)
80100bd8:	00000000 	nop
80100bdc:	2d002012 	beqz	s1,0x80100c94
80100be0:	00000000 	nop
80100be4:	801f123c 	lui	s2,0x1f80
80100be8:	08001424 	li	s4,8
80100bec:	00002292 	lbu	v0,0(s1)
80100bf0:	00000000 	nop
80100bf4:	01004230 	andi	v0,v0,0x1
80100bf8:	22004010 	beqz	v0,0x80100c84
80100bfc:	00000000 	nop
80100c00:	2b002292 	lbu	v0,43(s1)
80100c04:	00000000 	nop
80100c08:	1e004014 	bnez	v0,0x80100c84
80100c0c:	801f023c 	lui	v0,0x1f80
80100c10:	3c01508c 	lw	s0,316(v0)
80100c14:	801f023c 	lui	v0,0x1f80
80100c18:	44014290 	lbu	v0,324(v0)
80100c1c:	00000000 	nop
80100c20:	820142a2 	sb	v0,386(s2)
80100c24:	ff004230 	andi	v0,v0,0xff
80100c28:	16004010 	beqz	v0,0x80100c84
80100c2c:	00000000 	nop
80100c30:	82014292 	lbu	v0,386(s2)
80100c34:	0000058e 	lw	a1,0(s0)
80100c38:	ffff4224 	addiu	v0,v0,-1
80100c3c:	820142a2 	sb	v0,386(s2)
80100c40:	0000a290 	lbu	v0,0(a1)
80100c44:	00000000 	nop
80100c48:	01004230 	andi	v0,v0,0x1
80100c4c:	08004010 	beqz	v0,0x80100c70
80100c50:	04001026 	addiu	s0,s0,4
80100c54:	0200a290 	lbu	v0,2(a1)
80100c58:	00000000 	nop
80100c5c:	05005414 	bne	v0,s4,0x80100c74
80100c60:	801f023c 	lui	v0,0x1f80
80100c64:	21202002 	move	a0,s1
80100c68:	e584000c 	jal	0x80021394
80100c6c:	00010624 	li	a2,256
80100c70:	801f023c 	lui	v0,0x1f80
80100c74:	82014290 	lbu	v0,386(v0)
80100c78:	00000000 	nop
80100c7c:	ecff4014 	bnez	v0,0x80100c30
80100c80:	00000000 	nop
80100c84:	2400318e 	lw	s1,36(s1)
80100c88:	00000000 	nop
80100c8c:	d7ff2016 	bnez	s1,0x80100bec
80100c90:	00000000 	nop
80100c94:	e325040c 	jal	0x8010978c
80100c98:	00000000 	nop
80100c9c:	de24040c 	jal	0x80109378
80100ca0:	00000000 	nop
80100ca4:	6725040c 	jal	0x8010959c
80100ca8:	00000000 	nop
80100cac:	b825040c 	jal	0x801096e0
80100cb0:	00000000 	nop
80100cb4:	0c80023c 	lui	v0,0x800c
80100cb8:	08f84324 	addiu	v1,v0,-2040
80100cbc:	0e006290 	lbu	v0,14(v1)
80100cc0:	00000000 	nop
80100cc4:	11004010 	beqz	v0,0x80100d0c
80100cc8:	00000000 	nop
80100ccc:	45016292 	lbu	v0,325(s3)
80100cd0:	0a006594 	lhu	a1,10(v1)
80100cd4:	01004230 	andi	v0,v0,0x1
80100cd8:	0c004014 	bnez	v0,0x80100d0c
80100cdc:	00140500 	sll	v0,a1,0x10
80100ce0:	03140200 	sra	v0,v0,0x10
80100ce4:	62006486 	lh	a0,98(s3)
80100ce8:	32006386 	lh	v1,50(s3)
80100cec:	23104400 	subu	v0,v0,a0
80100cf0:	2a186200 	slt	v1,v1,v0
80100cf4:	62006296 	lhu	v0,98(s3)
80100cf8:	04006014 	bnez	v1,0x80100d0c
80100cfc:	2310a200 	subu	v0,a1,v0
80100d00:	320062a6 	sh	v0,50(s3)
80100d04:	1e8b000c 	jal	0x80022c78
80100d08:	21206002 	move	a0,s3
80100d0c:	2400bf8f 	lw	ra,36(sp)
80100d10:	2000b48f 	lw	s4,32(sp)
80100d14:	1c00b38f 	lw	s3,28(sp)
80100d18:	1800b28f 	lw	s2,24(sp)
80100d1c:	1400b18f 	lw	s1,20(sp)
80100d20:	1000b08f 	lw	s0,16(sp)
80100d24:	0800e003 	jr	ra
80100d28:	2800bd27 	addiu	sp,sp,40
80100d2c:	e8ffbd27 	addiu	sp,sp,-24
80100d30:	21288000 	move	a1,a0
80100d34:	0c80033c 	lui	v1,0x800c
80100d38:	1000bfaf 	sw	ra,16(sp)
80100d3c:	4501a290 	lbu	v0,325(a1)
80100d40:	12f86694 	lhu	a2,-2030(v1)
80100d44:	01004230 	andi	v0,v0,0x1
80100d48:	0c004014 	bnez	v0,0x80100d7c
80100d4c:	00140600 	sll	v0,a2,0x10
80100d50:	03140200 	sra	v0,v0,0x10
80100d54:	6200a484 	lh	a0,98(a1)
80100d58:	3200a384 	lh	v1,50(a1)
80100d5c:	23104400 	subu	v0,v0,a0
80100d60:	2a186200 	slt	v1,v1,v0
80100d64:	6200a294 	lhu	v0,98(a1)
80100d68:	04006014 	bnez	v1,0x80100d7c
80100d6c:	2310c200 	subu	v0,a2,v0
80100d70:	3200a2a4 	sh	v0,50(a1)
80100d74:	1e8b000c 	jal	0x80022c78
80100d78:	2120a000 	move	a0,a1
80100d7c:	1000bf8f 	lw	ra,16(sp)
80100d80:	00000000 	nop
80100d84:	0800e003 	jr	ra
80100d88:	1800bd27 	addiu	sp,sp,24
80100d8c:	e8ffbd27 	addiu	sp,sp,-24
80100d90:	0c80023c 	lui	v0,0x800c
80100d94:	08f84324 	addiu	v1,v0,-2040
80100d98:	1000bfaf 	sw	ra,16(sp)
80100d9c:	0e006290 	lbu	v0,14(v1)
80100da0:	00000000 	nop
80100da4:	11004010 	beqz	v0,0x80100dec
80100da8:	21288000 	move	a1,a0
80100dac:	4501a290 	lbu	v0,325(a1)
80100db0:	0a006694 	lhu	a2,10(v1)
80100db4:	01004230 	andi	v0,v0,0x1
80100db8:	0c004014 	bnez	v0,0x80100dec
80100dbc:	00140600 	sll	v0,a2,0x10
80100dc0:	03140200 	sra	v0,v0,0x10
80100dc4:	6200a484 	lh	a0,98(a1)
80100dc8:	3200a384 	lh	v1,50(a1)
80100dcc:	23104400 	subu	v0,v0,a0
80100dd0:	2a186200 	slt	v1,v1,v0
80100dd4:	6200a294 	lhu	v0,98(a1)
80100dd8:	04006014 	bnez	v1,0x80100dec
80100ddc:	2310c200 	subu	v0,a2,v0
80100de0:	3200a2a4 	sh	v0,50(a1)
80100de4:	1e8b000c 	jal	0x80022c78
80100de8:	2120a000 	move	a0,a1
80100dec:	1000bf8f 	lw	ra,16(sp)
80100df0:	00000000 	nop
80100df4:	0800e003 	jr	ra
80100df8:	1800bd27 	addiu	sp,sp,24
80100dfc:	d8ffbd27 	addiu	sp,sp,-40
80100e00:	1c00b3af 	sw	s3,28(sp)
80100e04:	21988000 	move	s3,a0
80100e08:	801f023c 	lui	v0,0x1f80
80100e0c:	50014290 	lbu	v0,336(v0)
80100e10:	801f033c 	lui	v1,0x1f80
80100e14:	2000bfaf 	sw	ra,32(sp)
80100e18:	1800b2af 	sw	s2,24(sp)
80100e1c:	1400b1af 	sw	s1,20(sp)
80100e20:	74270408 	j	0x80109dd0
80100e24:	1000b0af 	sw	s0,16(sp)
80100e28:	82016290 	lbu	v0,386(v1)
80100e2c:	00000000 	nop
80100e30:	ffff4224 	addiu	v0,v0,-1
80100e34:	820162a0 	sb	v0,386(v1)
80100e38:	ff004230 	andi	v0,v0,0xff
80100e3c:	faff4014 	bnez	v0,0x80100e28
80100e40:	801f023c 	lui	v0,0x1f80
80100e44:	3c01508c 	lw	s0,316(v0)
80100e48:	801f023c 	lui	v0,0x1f80
80100e4c:	44014290 	lbu	v0,324(v0)
80100e50:	801f033c 	lui	v1,0x1f80
80100e54:	820162a0 	sb	v0,386(v1)
80100e58:	ff004230 	andi	v0,v0,0xff
80100e5c:	16004010 	beqz	v0,0x80100eb8
80100e60:	21886000 	move	s1,v1
80100e64:	08001224 	li	s2,8
80100e68:	82012292 	lbu	v0,386(s1)
80100e6c:	0000058e 	lw	a1,0(s0)
80100e70:	ffff4224 	addiu	v0,v0,-1
80100e74:	820122a2 	sb	v0,386(s1)
80100e78:	0000a290 	lbu	v0,0(a1)
80100e7c:	00000000 	nop
80100e80:	01004230 	andi	v0,v0,0x1
80100e84:	07004010 	beqz	v0,0x80100ea4
80100e88:	04001026 	addiu	s0,s0,4
80100e8c:	0200a290 	lbu	v0,2(a1)
80100e90:	00000000 	nop
80100e94:	04005214 	bne	v0,s2,0x80100ea8
80100e98:	801f033c 	lui	v1,0x1f80
80100e9c:	8f90000c 	jal	0x8002423c
80100ea0:	21206002 	move	a0,s3
80100ea4:	801f033c 	lui	v1,0x1f80
80100ea8:	82016290 	lbu	v0,386(v1)
80100eac:	00000000 	nop
80100eb0:	edff4014 	bnez	v0,0x80100e68
80100eb4:	00000000 	nop
80100eb8:	2000bf8f 	lw	ra,32(sp)
80100ebc:	1c00b38f 	lw	s3,28(sp)
80100ec0:	1800b28f 	lw	s2,24(sp)
80100ec4:	1400b18f 	lw	s1,20(sp)
80100ec8:	1000b08f 	lw	s0,16(sp)
80100ecc:	0800e003 	jr	ra
80100ed0:	2800bd27 	addiu	sp,sp,40
80100ed4:	e0ffbd27 	addiu	sp,sp,-32
80100ed8:	1800b2af 	sw	s2,24(sp)
80100edc:	801f023c 	lui	v0,0x1f80
80100ee0:	1000b0af 	sw	s0,16(sp)
80100ee4:	3c01508c 	lw	s0,316(v0)
80100ee8:	801f023c 	lui	v0,0x1f80
80100eec:	44014290 	lbu	v0,324(v0)
80100ef0:	801f033c 	lui	v1,0x1f80
80100ef4:	1c00bfaf 	sw	ra,28(sp)
80100ef8:	1400b1af 	sw	s1,20(sp)
80100efc:	820162a0 	sb	v0,386(v1)
80100f00:	ff004230 	andi	v0,v0,0xff
80100f04:	1e004010 	beqz	v0,0x80100f80
80100f08:	21908000 	move	s2,a0
80100f0c:	21886000 	move	s1,v1
80100f10:	82012292 	lbu	v0,386(s1)
80100f14:	0000058e 	lw	a1,0(s0)
80100f18:	ffff4224 	addiu	v0,v0,-1
80100f1c:	820122a2 	sb	v0,386(s1)
80100f20:	0000a290 	lbu	v0,0(a1)
80100f24:	00000000 	nop
80100f28:	01004230 	andi	v0,v0,0x1
80100f2c:	0f004010 	beqz	v0,0x80100f6c
80100f30:	04001026 	addiu	s0,s0,4
80100f34:	0c00a390 	lbu	v1,12(a1)
80100f38:	09000224 	li	v0,9
80100f3c:	05006214 	bne	v1,v0,0x80100f54
80100f40:	08000224 	li	v0,8
80100f44:	6024040c 	jal	0x80109180
80100f48:	21204002 	move	a0,s2
80100f4c:	c3270408 	j	0x80109f0c
80100f50:	801f033c 	lui	v1,0x1f80
80100f54:	0200a390 	lbu	v1,2(a1)
80100f58:	00000000 	nop
80100f5c:	04006214 	bne	v1,v0,0x80100f70
80100f60:	801f033c 	lui	v1,0x1f80
80100f64:	7381000c 	jal	0x800205cc
80100f68:	21204002 	move	a0,s2
80100f6c:	801f033c 	lui	v1,0x1f80
80100f70:	82016290 	lbu	v0,386(v1)
80100f74:	00000000 	nop
80100f78:	e5ff4014 	bnez	v0,0x80100f10
80100f7c:	00000000 	nop
80100f80:	1c00bf8f 	lw	ra,28(sp)
80100f84:	1800b28f 	lw	s2,24(sp)
80100f88:	1400b18f 	lw	s1,20(sp)
80100f8c:	1000b08f 	lw	s0,16(sp)
80100f90:	0800e003 	jr	ra
80100f94:	2000bd27 	addiu	sp,sp,32
80100f98:	d8ffbd27 	addiu	sp,sp,-40
80100f9c:	1400b1af 	sw	s1,20(sp)
80100fa0:	801f023c 	lui	v0,0x1f80
80100fa4:	1000b0af 	sw	s0,16(sp)
80100fa8:	4801508c 	lw	s0,328(v0)
80100fac:	801f023c 	lui	v0,0x1f80
80100fb0:	50014290 	lbu	v0,336(v0)
80100fb4:	801f033c 	lui	v1,0x1f80
80100fb8:	2000bfaf 	sw	ra,32(sp)
80100fbc:	1c00b3af 	sw	s3,28(sp)
80100fc0:	1800b2af 	sw	s2,24(sp)
80100fc4:	820162a0 	sb	v0,386(v1)
80100fc8:	ff004230 	andi	v0,v0,0xff
80100fcc:	2b004010 	beqz	v0,0x8010107c
80100fd0:	21888000 	move	s1,a0
80100fd4:	21906000 	move	s2,v1
80100fd8:	1180023c 	lui	v0,0x8011
80100fdc:	60905324 	addiu	s3,v0,-28576
80100fe0:	82014292 	lbu	v0,386(s2)
80100fe4:	0000058e 	lw	a1,0(s0)
80100fe8:	ffff4224 	addiu	v0,v0,-1
80100fec:	820142a2 	sb	v0,386(s2)
80100ff0:	0000a290 	lbu	v0,0(a1)
80100ff4:	00000000 	nop
80100ff8:	01004230 	andi	v0,v0,0x1
80100ffc:	1a004010 	beqz	v0,0x80101068
80101000:	04001026 	addiu	s0,s0,4
80101004:	0200a290 	lbu	v0,2(a1)
80101008:	00000000 	nop
8010100c:	f4ff4324 	addiu	v1,v0,-12
80101010:	1400622c 	sltiu	v0,v1,20
80101014:	14004010 	beqz	v0,0x80101068
80101018:	80100300 	sll	v0,v1,0x2
8010101c:	21105300 	addu	v0,v0,s3
80101020:	0000428c 	lw	v0,0(v0)
80101024:	00000000 	nop
80101028:	08004000 	jr	v0
8010102c:	00000000 	nop
80101030:	b87e000c 	jal	0x8001fae0
80101034:	21202002 	move	a0,s1
80101038:	02280408 	j	0x8010a008
8010103c:	801f033c 	lui	v1,0x1f80
80101040:	1a82000c 	jal	0x80020868
80101044:	21202002 	move	a0,s1
80101048:	02280408 	j	0x8010a008
8010104c:	801f033c 	lui	v1,0x1f80
80101050:	478c000c 	jal	0x8002311c
80101054:	21202002 	move	a0,s1
80101058:	02280408 	j	0x8010a008
8010105c:	801f033c 	lui	v1,0x1f80
80101060:	d98d000c 	jal	0x80023764
80101064:	21202002 	move	a0,s1
80101068:	801f033c 	lui	v1,0x1f80
8010106c:	82016290 	lbu	v0,386(v1)
80101070:	00000000 	nop
80101074:	daff4014 	bnez	v0,0x80100fe0
80101078:	00000000 	nop
8010107c:	2000bf8f 	lw	ra,32(sp)
80101080:	1c00b38f 	lw	s3,28(sp)
80101084:	1800b28f 	lw	s2,24(sp)
80101088:	1400b18f 	lw	s1,20(sp)
8010108c:	1000b08f 	lw	s0,16(sp)
80101090:	0800e003 	jr	ra
80101094:	2800bd27 	addiu	sp,sp,40
80101098:	801f023c 	lui	v0,0x1f80
8010109c:	44014284 	lh	v0,324(v0)
801010a0:	d8ffbd27 	addiu	sp,sp,-40
801010a4:	2000bfaf 	sw	ra,32(sp)
801010a8:	1c00b3af 	sw	s3,28(sp)
801010ac:	1800b2af 	sw	s2,24(sp)
801010b0:	1400b1af 	sw	s1,20(sp)
801010b4:	31004010 	beqz	v0,0x8010117c
801010b8:	1000b0af 	sw	s0,16(sp)
801010bc:	0f80023c 	lui	v0,0x800f
801010c0:	3827518c 	lw	s1,10040(v0)
801010c4:	00000000 	nop
801010c8:	2c002012 	beqz	s1,0x8010117c
801010cc:	801f123c 	lui	s2,0x1f80
801010d0:	08001324 	li	s3,8
801010d4:	00002292 	lbu	v0,0(s1)
801010d8:	00000000 	nop
801010dc:	01004230 	andi	v0,v0,0x1
801010e0:	22004010 	beqz	v0,0x8010116c
801010e4:	00000000 	nop
801010e8:	2b002292 	lbu	v0,43(s1)
801010ec:	00000000 	nop
801010f0:	1e004014 	bnez	v0,0x8010116c
801010f4:	801f023c 	lui	v0,0x1f80
801010f8:	3c01508c 	lw	s0,316(v0)
801010fc:	801f023c 	lui	v0,0x1f80
80101100:	44014290 	lbu	v0,324(v0)
80101104:	00000000 	nop
80101108:	820142a2 	sb	v0,386(s2)
8010110c:	ff004230 	andi	v0,v0,0xff
80101110:	16004010 	beqz	v0,0x8010116c
80101114:	00000000 	nop
80101118:	82014292 	lbu	v0,386(s2)
8010111c:	0000058e 	lw	a1,0(s0)
80101120:	ffff4224 	addiu	v0,v0,-1
80101124:	820142a2 	sb	v0,386(s2)
80101128:	0000a290 	lbu	v0,0(a1)
8010112c:	00000000 	nop
80101130:	01004230 	andi	v0,v0,0x1
80101134:	08004010 	beqz	v0,0x80101158
80101138:	04001026 	addiu	s0,s0,4
8010113c:	0200a290 	lbu	v0,2(a1)
80101140:	00000000 	nop
80101144:	05005314 	bne	v0,s3,0x8010115c
80101148:	801f023c 	lui	v0,0x1f80
8010114c:	21202002 	move	a0,s1
80101150:	e584000c 	jal	0x80021394
80101154:	00010624 	li	a2,256
80101158:	801f023c 	lui	v0,0x1f80
8010115c:	82014290 	lbu	v0,386(v0)
80101160:	00000000 	nop
80101164:	ecff4014 	bnez	v0,0x80101118
80101168:	00000000 	nop
8010116c:	2400318e 	lw	s1,36(s1)
80101170:	00000000 	nop
80101174:	d7ff2016 	bnez	s1,0x801010d4
80101178:	00000000 	nop
8010117c:	2000bf8f 	lw	ra,32(sp)
80101180:	1c00b38f 	lw	s3,28(sp)
80101184:	1800b28f 	lw	s2,24(sp)
80101188:	1400b18f 	lw	s1,20(sp)
8010118c:	1000b08f 	lw	s0,16(sp)
80101190:	0800e003 	jr	ra
80101194:	2800bd27 	addiu	sp,sp,40
80101198:	801f023c 	lui	v0,0x1f80
8010119c:	52014290 	lbu	v0,338(v0)
801011a0:	54280408 	j	0x8010a150
801011a4:	801f033c 	lui	v1,0x1f80
801011a8:	82016290 	lbu	v0,386(v1)
801011ac:	00000000 	nop
801011b0:	ffff4224 	addiu	v0,v0,-1
801011b4:	820162a0 	sb	v0,386(v1)
801011b8:	ff004230 	andi	v0,v0,0xff
801011bc:	faff4014 	bnez	v0,0x801011a8
801011c0:	801f023c 	lui	v0,0x1f80
801011c4:	8000428c 	lw	v0,128(v0)
801011c8:	0800e003 	jr	ra
801011cc:	00000000 	nop
801011d0:	e8ffbd27 	addiu	sp,sp,-24
801011d4:	1000b0af 	sw	s0,16(sp)
801011d8:	1400bfaf 	sw	ra,20(sp)
801011dc:	39bc010c 	jal	0x8006f0e4
801011e0:	21808000 	move	s0,a0
801011e4:	21200002 	move	a0,s0
801011e8:	01000224 	li	v0,1
801011ec:	5757010c 	jal	0x80055d5c
801011f0:	010002a2 	sb	v0,1(s0)
801011f4:	21200002 	move	a0,s0
801011f8:	420100a6 	sh	zero,322(s0)
801011fc:	6650010c 	jal	0x80054198
80101200:	580000a6 	sh	zero,88(s0)
80101204:	a154010c 	jal	0x80055284
80101208:	21200002 	move	a0,s0
8010120c:	21200002 	move	a0,s0
80101210:	02000524 	li	a1,2
80101214:	4553010c 	jal	0x80054d14
80101218:	21300000 	move	a2,zero
8010121c:	57cc000c 	jal	0x8003315c
80101220:	21200002 	move	a0,s0
80101224:	1400bf8f 	lw	ra,20(sp)
80101228:	1000b08f 	lw	s0,16(sp)
8010122c:	0800e003 	jr	ra
80101230:	1800bd27 	addiu	sp,sp,24
80101234:	e8ffbd27 	addiu	sp,sp,-24
80101238:	21288000 	move	a1,a0
8010123c:	0e80023c 	lui	v0,0x800e
80101240:	1400bfaf 	sw	ra,20(sp)
80101244:	1000b0af 	sw	s0,16(sp)
80101248:	0200a390 	lbu	v1,2(a1)
8010124c:	00000000 	nop
80101250:	06006010 	beqz	v1,0x8010126c
80101254:	807e5024 	addiu	s0,v0,32384
80101258:	01000224 	li	v0,1
8010125c:	14006210 	beq	v1,v0,0x801012b0
80101260:	2120a000 	move	a0,a1
80101264:	a9280408 	j	0x8010a2a4
80101268:	00000000 	nop
8010126c:	801f043c 	lui	a0,0x1f80
80101270:	d0008424 	addiu	a0,a0,208
80101274:	2af90224 	li	v0,-1750
80101278:	5600a0a4 	sh	zero,86(a1)
8010127c:	1e0082a4 	sh	v0,30(a0)
80101280:	0200a290 	lbu	v0,2(a1)
80101284:	00000000 	nop
80101288:	01004224 	addiu	v0,v0,1
8010128c:	0200a2a0 	sb	v0,2(a1)
80101290:	690d0224 	li	v0,3433
80101294:	020082a4 	sh	v0,2(a0)
80101298:	32000296 	lhu	v0,50(s0)
8010129c:	740e0324 	li	v1,3700
801012a0:	0a0083a4 	sh	v1,10(a0)
801012a4:	24ff4224 	addiu	v0,v0,-220
801012a8:	060082a4 	sh	v0,6(a0)
801012ac:	2120a000 	move	a0,a1
801012b0:	fdb8010c 	jal	0x8006e3f4
801012b4:	2c000526 	addiu	a1,s0,44
801012b8:	36000296 	lhu	v0,54(s0)
801012bc:	00000000 	nop
801012c0:	28f14224 	addiu	v0,v0,-3800
801012c4:	21184000 	move	v1,v0
801012c8:	00140200 	sll	v0,v0,0x10
801012cc:	02004104 	bgez	v0,0x801012d8
801012d0:	801f053c 	lui	a1,0x1f80
801012d4:	21180000 	move	v1,zero
801012d8:	d000a524 	addiu	a1,a1,208
801012dc:	00140300 	sll	v0,v1,0x10
801012e0:	031c0200 	sra	v1,v0,0x10
801012e4:	c2170200 	srl	v0,v0,0x1f
801012e8:	21186200 	addu	v1,v1,v0
801012ec:	43180300 	sra	v1,v1,0x1
801012f0:	740e0224 	li	v0,3700
801012f4:	32000496 	lhu	a0,50(s0)
801012f8:	23104300 	subu	v0,v0,v1
801012fc:	0a00a2a4 	sh	v0,10(a1)
80101300:	24ff8424 	addiu	a0,a0,-220
80101304:	0600a4a4 	sh	a0,6(a1)
80101308:	1400bf8f 	lw	ra,20(sp)
8010130c:	1000b08f 	lw	s0,16(sp)
80101310:	0800e003 	jr	ra
80101314:	1800bd27 	addiu	sp,sp,24
80101318:	e8ffbd27 	addiu	sp,sp,-24
8010131c:	1000b0af 	sw	s0,16(sp)
80101320:	0e80103c 	lui	s0,0x800e
80101324:	807e1026 	addiu	s0,s0,32384
80101328:	1400bfaf 	sw	ra,20(sp)
8010132c:	6650010c 	jal	0x80054198
80101330:	21200002 	move	a0,s0
80101334:	0c80033c 	lui	v1,0x800c
80101338:	01000224 	li	v0,1
8010133c:	16f862a0 	sb	v0,-2026(v1)
80101340:	40010396 	lhu	v1,320(s0)
80101344:	801f023c 	lui	v0,0x1f80
80101348:	840140ac 	sw	zero,388(v0)
8010134c:	24000224 	li	v0,36
80101350:	050002a2 	sb	v0,5(s0)
80101354:	08000224 	li	v0,8
80101358:	060000a2 	sb	zero,6(s0)
8010135c:	6b0102a2 	sb	v0,363(s0)
80101360:	1400bf8f 	lw	ra,20(sp)
80101364:	1000b08f 	lw	s0,16(sp)
80101368:	801f023c 	lui	v0,0x1f80
8010136c:	100243a4 	sh	v1,528(v0)
80101370:	0800e003 	jr	ra
80101374:	1800bd27 	addiu	sp,sp,24
80101378:	e8ffbd27 	addiu	sp,sp,-24
8010137c:	0c80023c 	lui	v0,0x800c
80101380:	16f840a0 	sb	zero,-2026(v0)
80101384:	0f80023c 	lui	v0,0x800f
80101388:	6c8040a0 	sb	zero,-32660(v0)
8010138c:	801f023c 	lui	v0,0x1f80
80101390:	1000b0af 	sw	s0,16(sp)
80101394:	0e80103c 	lui	s0,0x800e
80101398:	807e1026 	addiu	s0,s0,32384
8010139c:	840140ac 	sw	zero,388(v0)
801013a0:	24000224 	li	v0,36
801013a4:	21200002 	move	a0,s0
801013a8:	1400bfaf 	sw	ra,20(sp)
801013ac:	050002a2 	sb	v0,5(s0)
801013b0:	070000a2 	sb	zero,7(s0)
801013b4:	6650010c 	jal	0x80054198
801013b8:	060000a2 	sb	zero,6(s0)
801013bc:	6b0100a2 	sb	zero,363(s0)
801013c0:	1400bf8f 	lw	ra,20(sp)
801013c4:	1000b08f 	lw	s0,16(sp)
801013c8:	0800e003 	jr	ra
801013cc:	1800bd27 	addiu	sp,sp,24
801013d0:	e8ffbd27 	addiu	sp,sp,-24
801013d4:	1000b0af 	sw	s0,16(sp)
801013d8:	21808000 	move	s0,a0
801013dc:	1400bfaf 	sw	ra,20(sp)
801013e0:	05000392 	lbu	v1,5(s0)
801013e4:	01000524 	li	a1,1
801013e8:	34006510 	beq	v1,a1,0x801014bc
801013ec:	02006228 	slti	v0,v1,2
801013f0:	05004010 	beqz	v0,0x80101408
801013f4:	02000224 	li	v0,2
801013f8:	09006010 	beqz	v1,0x80101420
801013fc:	21100000 	move	v0,zero
80101400:	39290408 	j	0x8010a4e4
80101404:	00000000 	nop
80101408:	3b006210 	beq	v1,v0,0x801014f8
8010140c:	03000224 	li	v0,3
80101410:	42006210 	beq	v1,v0,0x8010151c
80101414:	21100000 	move	v0,zero
80101418:	39290408 	j	0x8010a4e4
8010141c:	00000000 	nop
80101420:	21200002 	move	a0,s0
80101424:	0f000224 	li	v0,15
80101428:	400002a6 	sh	v0,64(s0)
8010142c:	00040224 	li	v0,1024
80101430:	050005a2 	sb	a1,5(s0)
80101434:	bfcb010c 	jal	0x80072efc
80101438:	500002a6 	sh	v0,80(s0)
8010143c:	0e80043c 	lui	a0,0x800e
80101440:	2a000292 	lbu	v0,42(s0)
80101444:	807e8424 	addiu	a0,a0,32384
80101448:	2a0082a0 	sb	v0,42(a0)
8010144c:	2e000296 	lhu	v0,46(s0)
80101450:	1180033c 	lui	v1,0x8011
80101454:	2e0082a4 	sh	v0,46(a0)
80101458:	03000592 	lbu	a1,3(s0)
8010145c:	d4d26324 	addiu	v1,v1,-11564
80101460:	40100500 	sll	v0,a1,0x1
80101464:	21104500 	addu	v0,v0,a1
80101468:	80100200 	sll	v0,v0,0x2
8010146c:	21104300 	addu	v0,v0,v1
80101470:	32000396 	lhu	v1,50(s0)
80101474:	02004294 	lhu	v0,2(v0)
80101478:	00000000 	nop
8010147c:	21186200 	addu	v1,v1,v0
80101480:	84000296 	lhu	v0,132(s0)
80101484:	84008594 	lhu	a1,132(a0)
80101488:	21104300 	addu	v0,v0,v1
8010148c:	23104500 	subu	v0,v0,a1
80101490:	320082a4 	sh	v0,50(a0)
80101494:	36000396 	lhu	v1,54(s0)
80101498:	04000224 	li	v0,4
8010149c:	040082a0 	sb	v0,4(a0)
801014a0:	24000224 	li	v0,36
801014a4:	050082a0 	sb	v0,5(a0)
801014a8:	0c80023c 	lui	v0,0x800c
801014ac:	060080a0 	sb	zero,6(a0)
801014b0:	1ff840a0 	sb	zero,-2017(v0)
801014b4:	38290408 	j	0x8010a4e0
801014b8:	360083a4 	sh	v1,54(a0)
801014bc:	40000296 	lhu	v0,64(s0)
801014c0:	ffff0324 	li	v1,-1
801014c4:	ffff4224 	addiu	v0,v0,-1
801014c8:	400002a6 	sh	v0,64(s0)
801014cc:	00140200 	sll	v0,v0,0x10
801014d0:	03140200 	sra	v0,v0,0x10
801014d4:	1c004314 	bne	v0,v1,0x80101548
801014d8:	21100000 	move	v0,zero
801014dc:	05000292 	lbu	v0,5(s0)
801014e0:	00000000 	nop
801014e4:	01004224 	addiu	v0,v0,1
801014e8:	050002a2 	sb	v0,5(s0)
801014ec:	801f023c 	lui	v0,0x1f80
801014f0:	38290408 	j	0x8010a4e0
801014f4:	370140a0 	sb	zero,311(v0)
801014f8:	c5cb010c 	jal	0x80072f14
801014fc:	21200002 	move	a0,s0
80101500:	11004010 	beqz	v0,0x80101548
80101504:	21100000 	move	v0,zero
80101508:	05000292 	lbu	v0,5(s0)
8010150c:	00000000 	nop
80101510:	01004224 	addiu	v0,v0,1
80101514:	38290408 	j	0x8010a4e0
80101518:	050002a2 	sb	v0,5(s0)
8010151c:	0e80023c 	lui	v0,0x800e
80101520:	aa7e4390 	lbu	v1,32426(v0)
80101524:	2a000292 	lbu	v0,42(s0)
80101528:	00000000 	nop
8010152c:	05006210 	beq	v1,v0,0x80101544
80101530:	01000224 	li	v0,1
80101534:	0c80033c 	lui	v1,0x800c
80101538:	050000a2 	sb	zero,5(s0)
8010153c:	39290408 	j	0x8010a4e4
80101540:	50f860ac 	sw	zero,-1968(v1)
80101544:	21100000 	move	v0,zero
80101548:	1400bf8f 	lw	ra,20(sp)
8010154c:	1000b08f 	lw	s0,16(sp)
80101550:	0800e003 	jr	ra
80101554:	1800bd27 	addiu	sp,sp,24
80101558:	e8ffbd27 	addiu	sp,sp,-24
8010155c:	1000b0af 	sw	s0,16(sp)
80101560:	21808000 	move	s0,a0
80101564:	1400bfaf 	sw	ra,20(sp)
80101568:	05000392 	lbu	v1,5(s0)
8010156c:	01000524 	li	a1,1
80101570:	34006510 	beq	v1,a1,0x80101644
80101574:	02006228 	slti	v0,v1,2
80101578:	05004010 	beqz	v0,0x80101590
8010157c:	02000224 	li	v0,2
80101580:	09006010 	beqz	v1,0x801015a8
80101584:	21100000 	move	v0,zero
80101588:	9b290408 	j	0x8010a66c
8010158c:	00000000 	nop
80101590:	3b006210 	beq	v1,v0,0x80101680
80101594:	03000224 	li	v0,3
80101598:	42006210 	beq	v1,v0,0x801016a4
8010159c:	21100000 	move	v0,zero
801015a0:	9b290408 	j	0x8010a66c
801015a4:	00000000 	nop
801015a8:	21200002 	move	a0,s0
801015ac:	0f000224 	li	v0,15
801015b0:	400002a6 	sh	v0,64(s0)
801015b4:	00040224 	li	v0,1024
801015b8:	050005a2 	sb	a1,5(s0)
801015bc:	bfcb010c 	jal	0x80072efc
801015c0:	500002a6 	sh	v0,80(s0)
801015c4:	0e80043c 	lui	a0,0x800e
801015c8:	2a000292 	lbu	v0,42(s0)
801015cc:	807e8424 	addiu	a0,a0,32384
801015d0:	2a0082a0 	sb	v0,42(a0)
801015d4:	2e000296 	lhu	v0,46(s0)
801015d8:	1180033c 	lui	v1,0x8011
801015dc:	2e0082a4 	sh	v0,46(a0)
801015e0:	03000592 	lbu	a1,3(s0)
801015e4:	d4d26324 	addiu	v1,v1,-11564
801015e8:	40100500 	sll	v0,a1,0x1
801015ec:	21104500 	addu	v0,v0,a1
801015f0:	80100200 	sll	v0,v0,0x2
801015f4:	21104300 	addu	v0,v0,v1
801015f8:	32000396 	lhu	v1,50(s0)
801015fc:	02004294 	lhu	v0,2(v0)
80101600:	00000000 	nop
80101604:	21186200 	addu	v1,v1,v0
80101608:	84000296 	lhu	v0,132(s0)
8010160c:	84008594 	lhu	a1,132(a0)
80101610:	21104300 	addu	v0,v0,v1
80101614:	23104500 	subu	v0,v0,a1
80101618:	320082a4 	sh	v0,50(a0)
8010161c:	36000396 	lhu	v1,54(s0)
80101620:	04000224 	li	v0,4
80101624:	040082a0 	sb	v0,4(a0)
80101628:	24000224 	li	v0,36
8010162c:	050082a0 	sb	v0,5(a0)
80101630:	0c80023c 	lui	v0,0x800c
80101634:	060080a0 	sb	zero,6(a0)
80101638:	1ff840a0 	sb	zero,-2017(v0)
8010163c:	9a290408 	j	0x8010a668
80101640:	360083a4 	sh	v1,54(a0)
80101644:	40000296 	lhu	v0,64(s0)
80101648:	ffff0324 	li	v1,-1
8010164c:	ffff4224 	addiu	v0,v0,-1
80101650:	400002a6 	sh	v0,64(s0)
80101654:	00140200 	sll	v0,v0,0x10
80101658:	03140200 	sra	v0,v0,0x10
8010165c:	1c004314 	bne	v0,v1,0x801016d0
80101660:	21100000 	move	v0,zero
80101664:	05000292 	lbu	v0,5(s0)
80101668:	00000000 	nop
8010166c:	01004224 	addiu	v0,v0,1
80101670:	050002a2 	sb	v0,5(s0)
80101674:	801f023c 	lui	v0,0x1f80
80101678:	9a290408 	j	0x8010a668
8010167c:	370140a0 	sb	zero,311(v0)
80101680:	c5cb010c 	jal	0x80072f14
80101684:	21200002 	move	a0,s0
80101688:	11004010 	beqz	v0,0x801016d0
8010168c:	21100000 	move	v0,zero
80101690:	05000292 	lbu	v0,5(s0)
80101694:	00000000 	nop
80101698:	01004224 	addiu	v0,v0,1
8010169c:	9a290408 	j	0x8010a668
801016a0:	050002a2 	sb	v0,5(s0)
801016a4:	0c80023c 	lui	v0,0x800c
801016a8:	08f84324 	addiu	v1,v0,-2040
801016ac:	07006290 	lbu	v0,7(v1)
801016b0:	00000000 	nop
801016b4:	06004014 	bnez	v0,0x801016d0
801016b8:	21100000 	move	v0,zero
801016bc:	01000224 	li	v0,1
801016c0:	050000a2 	sb	zero,5(s0)
801016c4:	9b290408 	j	0x8010a66c
801016c8:	480060ac 	sw	zero,72(v1)
801016cc:	21100000 	move	v0,zero
801016d0:	1400bf8f 	lw	ra,20(sp)
801016d4:	1000b08f 	lw	s0,16(sp)
801016d8:	0800e003 	jr	ra
801016dc:	1800bd27 	addiu	sp,sp,24
801016e0:	e8ffbd27 	addiu	sp,sp,-24
801016e4:	1000b0af 	sw	s0,16(sp)
801016e8:	21808000 	move	s0,a0
801016ec:	0e80023c 	lui	v0,0x800e
801016f0:	1400bfaf 	sw	ra,20(sp)
801016f4:	05000392 	lbu	v1,5(s0)
801016f8:	807e4424 	addiu	a0,v0,32384
801016fc:	0500622c 	sltiu	v0,v1,5
80101700:	4e004010 	beqz	v0,0x8010183c
80101704:	1180023c 	lui	v0,0x8011
80101708:	b0904224 	addiu	v0,v0,-28496
8010170c:	80180300 	sll	v1,v1,0x2
80101710:	21186200 	addu	v1,v1,v0
80101714:	0000628c 	lw	v0,0(v1)
80101718:	00000000 	nop
8010171c:	08004000 	jr	v0
80101720:	00000000 	nop
80101724:	0f000224 	li	v0,15
80101728:	400002a6 	sh	v0,64(s0)
8010172c:	05000292 	lbu	v0,5(s0)
80101730:	01000324 	li	v1,1
80101734:	c7290408 	j	0x8010a71c
80101738:	070003a2 	sb	v1,7(s0)
8010173c:	40000296 	lhu	v0,64(s0)
80101740:	ffff0324 	li	v1,-1
80101744:	ffff4224 	addiu	v0,v0,-1
80101748:	400002a6 	sh	v0,64(s0)
8010174c:	00140200 	sll	v0,v0,0x10
80101750:	03140200 	sra	v0,v0,0x10
80101754:	39004314 	bne	v0,v1,0x8010183c
80101758:	00000000 	nop
8010175c:	05000292 	lbu	v0,5(s0)
80101760:	c8290408 	j	0x8010a720
80101764:	01004224 	addiu	v0,v0,1
80101768:	c5cb010c 	jal	0x80072f14
8010176c:	21200002 	move	a0,s0
80101770:	32004010 	beqz	v0,0x8010183c
80101774:	01000324 	li	v1,1
80101778:	05000292 	lbu	v0,5(s0)
8010177c:	000003a2 	sb	v1,0(s0)
80101780:	01004224 	addiu	v0,v0,1
80101784:	f6290408 	j	0x8010a7d8
80101788:	050002a2 	sb	v0,5(s0)
8010178c:	29000292 	lbu	v0,41(s0)
80101790:	00000000 	nop
80101794:	29004010 	beqz	v0,0x8010183c
80101798:	00000000 	nop
8010179c:	29008290 	lbu	v0,41(a0)
801017a0:	00000000 	nop
801017a4:	25004010 	beqz	v0,0x8010183c
801017a8:	00000000 	nop
801017ac:	7b018290 	lbu	v0,379(a0)
801017b0:	00000000 	nop
801017b4:	21004014 	bnez	v0,0x8010183c
801017b8:	801f033c 	lui	v1,0x1f80
801017bc:	05000292 	lbu	v0,5(s0)
801017c0:	00000000 	nop
801017c4:	01004224 	addiu	v0,v0,1
801017c8:	050002a2 	sb	v0,5(s0)
801017cc:	02000224 	li	v0,2
801017d0:	370162a0 	sb	v0,311(v1)
801017d4:	bf000292 	lbu	v0,191(s0)
801017d8:	00000000 	nop
801017dc:	17004010 	beqz	v0,0x8010183c
801017e0:	21280000 	move	a1,zero
801017e4:	17000424 	li	a0,23
801017e8:	64d1010c 	jal	0x80074590
801017ec:	0f000624 	li	a2,15
801017f0:	f6290408 	j	0x8010a7d8
801017f4:	00000000 	nop
801017f8:	98cb010c 	jal	0x80072e60
801017fc:	21200002 	move	a0,s0
80101800:	0e004010 	beqz	v0,0x8010183c
80101804:	01000324 	li	v1,1
80101808:	05000292 	lbu	v0,5(s0)
8010180c:	00000000 	nop
80101810:	01004224 	addiu	v0,v0,1
80101814:	050002a2 	sb	v0,5(s0)
80101818:	801f023c 	lui	v0,0x1f80
8010181c:	360243a0 	sb	v1,566(v0)
80101820:	0c80023c 	lui	v0,0x800c
80101824:	08f84224 	addiu	v0,v0,-2040
80101828:	310043a0 	sb	v1,49(v0)
8010182c:	02000324 	li	v1,2
80101830:	070043a0 	sb	v1,7(v0)
80101834:	06010324 	li	v1,262
80101838:	320043a4 	sh	v1,50(v0)
8010183c:	1400bf8f 	lw	ra,20(sp)
80101840:	1000b08f 	lw	s0,16(sp)
80101844:	0800e003 	jr	ra
80101848:	1800bd27 	addiu	sp,sp,24
8010184c:	e0ffbd27 	addiu	sp,sp,-32
80101850:	1000b0af 	sw	s0,16(sp)
80101854:	21808000 	move	s0,a0
80101858:	0e80023c 	lui	v0,0x800e
8010185c:	1800bfaf 	sw	ra,24(sp)
80101860:	1400b1af 	sw	s1,20(sp)
80101864:	5e000392 	lbu	v1,94(s0)
80101868:	807e5124 	addiu	s1,v0,32384
8010186c:	0600622c 	sltiu	v0,v1,6
80101870:	f7004010 	beqz	v0,0x80101c50
80101874:	1180023c 	lui	v0,0x8011
80101878:	c8904224 	addiu	v0,v0,-28472
8010187c:	80180300 	sll	v1,v1,0x2
80101880:	21186200 	addu	v1,v1,v0
80101884:	0000628c 	lw	v0,0(v1)
80101888:	00000000 	nop
8010188c:	08004000 	jr	v0
80101890:	00000000 	nop
80101894:	0c80023c 	lui	v0,0x800c
80101898:	08f84424 	addiu	a0,v0,-2040
8010189c:	4800828c 	lw	v0,72(a0)
801018a0:	00000000 	nop
801018a4:	09004010 	beqz	v0,0x801018cc
801018a8:	00000000 	nop
801018ac:	03000392 	lbu	v1,3(s0)
801018b0:	4c00828c 	lw	v0,76(a0)
801018b4:	00000000 	nop
801018b8:	e5004314 	bne	v0,v1,0x80101c50
801018bc:	01000224 	li	v0,1
801018c0:	5e0002a2 	sb	v0,94(s0)
801018c4:	fb2a0408 	j	0x8010abec
801018c8:	070002a2 	sb	v0,7(s0)
801018cc:	2a002392 	lbu	v1,42(s1)
801018d0:	2a000292 	lbu	v0,42(s0)
801018d4:	00000000 	nop
801018d8:	dd006214 	bne	v1,v0,0x80101c50
801018dc:	00000000 	nop
801018e0:	05002292 	lbu	v0,5(s1)
801018e4:	00000000 	nop
801018e8:	d9004014 	bnez	v0,0x80101c50
801018ec:	801f033c 	lui	v1,0x1f80
801018f0:	66000486 	lh	a0,102(s0)
801018f4:	02000224 	li	v0,2
801018f8:	03008014 	bnez	a0,0x80101908
801018fc:	370162a0 	sb	v0,311(v1)
80101900:	2c2a0408 	j	0x8010a8b0
80101904:	57000424 	li	a0,87
80101908:	01000224 	li	v0,1
8010190c:	03008214 	bne	a0,v0,0x8010191c
80101910:	56000424 	li	a0,86
80101914:	d202010c 	jal	0x80040b48
80101918:	00000000 	nop
8010191c:	74012392 	lbu	v1,372(s1)
80101920:	00000000 	nop
80101924:	01006230 	andi	v0,v1,0x1
80101928:	0c004010 	beqz	v0,0x8010195c
8010192c:	38000224 	li	v0,56
80101930:	02000424 	li	a0,2
80101934:	050022a2 	sb	v0,5(s1)
80101938:	060024a2 	sb	a0,6(s1)
8010193c:	66000386 	lh	v1,102(s0)
80101940:	00000000 	nop
80101944:	14006010 	beqz	v1,0x80101998
80101948:	01000224 	li	v0,1
8010194c:	16006214 	bne	v1,v0,0x801019a8
80101950:	05000224 	li	v0,5
80101954:	fb2a0408 	j	0x8010abec
80101958:	5e0004a2 	sb	a0,94(s0)
8010195c:	02006230 	andi	v0,v1,0x2
80101960:	10004010 	beqz	v0,0x801019a4
80101964:	39000224 	li	v0,57
80101968:	050022a2 	sb	v0,5(s1)
8010196c:	02000224 	li	v0,2
80101970:	060022a2 	sb	v0,6(s1)
80101974:	66000386 	lh	v1,102(s0)
80101978:	00000000 	nop
8010197c:	03006014 	bnez	v1,0x8010198c
80101980:	00000000 	nop
80101984:	fb2a0408 	j	0x8010abec
80101988:	5e0002a2 	sb	v0,94(s0)
8010198c:	01000224 	li	v0,1
80101990:	05006214 	bne	v1,v0,0x801019a8
80101994:	05000224 	li	v0,5
80101998:	04000224 	li	v0,4
8010199c:	fb2a0408 	j	0x8010abec
801019a0:	5e0002a2 	sb	v0,94(s0)
801019a4:	05000224 	li	v0,5
801019a8:	fb2a0408 	j	0x8010abec
801019ac:	5e0002a2 	sb	v0,94(s0)
801019b0:	db28040c 	jal	0x8010a36c
801019b4:	21200002 	move	a0,s0
801019b8:	f82a0408 	j	0x8010abe0
801019bc:	00000000 	nop
801019c0:	0c80023c 	lui	v0,0x800c
801019c4:	0ef84290 	lbu	v0,-2034(v0)
801019c8:	00000000 	nop
801019cc:	a0004010 	beqz	v0,0x80101c50
801019d0:	00000000 	nop
801019d4:	66000286 	lh	v0,102(s0)
801019d8:	00000000 	nop
801019dc:	06004014 	bnez	v0,0x801019f8
801019e0:	21280000 	move	a1,zero
801019e4:	81000424 	li	a0,129
801019e8:	64d1010c 	jal	0x80074590
801019ec:	2130a000 	move	a2,a1
801019f0:	692a0408 	j	0x8010a9a4
801019f4:	50000424 	li	a0,80
801019f8:	80000424 	li	a0,128
801019fc:	64d1010c 	jal	0x80074590
80101a00:	2130a000 	move	a2,a1
80101a04:	4f000424 	li	a0,79
80101a08:	653b010c 	jal	0x8004ed94
80101a0c:	41000524 	li	a1,65
80101a10:	b92a0408 	j	0x8010aae4
80101a14:	00000000 	nop
80101a18:	05000392 	lbu	v1,5(s0)
80101a1c:	01000524 	li	a1,1
80101a20:	19006510 	beq	v1,a1,0x80101a88
80101a24:	02006228 	slti	v0,v1,2
80101a28:	05004010 	beqz	v0,0x80101a40
80101a2c:	00000000 	nop
80101a30:	08006010 	beqz	v1,0x80101a54
80101a34:	21180000 	move	v1,zero
80101a38:	a32a0408 	j	0x8010aa8c
80101a3c:	00000000 	nop
80101a40:	02000224 	li	v0,2
80101a44:	19006210 	beq	v1,v0,0x80101aac
80101a48:	21180000 	move	v1,zero
80101a4c:	a32a0408 	j	0x8010aa8c
80101a50:	00000000 	nop
80101a54:	0c80023c 	lui	v0,0x800c
80101a58:	02000324 	li	v1,2
80101a5c:	050005a2 	sb	a1,5(s0)
80101a60:	0ff843a0 	sb	v1,-2033(v0)
80101a64:	bf000292 	lbu	v0,191(s0)
80101a68:	00000000 	nop
80101a6c:	1f004010 	beqz	v0,0x80101aec
80101a70:	17000424 	li	a0,23
80101a74:	21280000 	move	a1,zero
80101a78:	64d1010c 	jal	0x80074590
80101a7c:	0f000624 	li	a2,15
80101a80:	a32a0408 	j	0x8010aa8c
80101a84:	21180000 	move	v1,zero
80101a88:	98cb010c 	jal	0x80072e60
80101a8c:	21200002 	move	a0,s0
80101a90:	17004010 	beqz	v0,0x80101af0
80101a94:	21180000 	move	v1,zero
80101a98:	05000292 	lbu	v0,5(s0)
80101a9c:	00000000 	nop
80101aa0:	01004224 	addiu	v0,v0,1
80101aa4:	a32a0408 	j	0x8010aa8c
80101aa8:	050002a2 	sb	v0,5(s0)
80101aac:	0c80023c 	lui	v0,0x800c
80101ab0:	08f84424 	addiu	a0,v0,-2040
80101ab4:	07008290 	lbu	v0,7(a0)
80101ab8:	00000000 	nop
80101abc:	0c004014 	bnez	v0,0x80101af0
80101ac0:	00000000 	nop
80101ac4:	5a000296 	lhu	v0,90(s0)
80101ac8:	050000a2 	sb	zero,5(s0)
80101acc:	500000a6 	sh	zero,80(s0)
80101ad0:	560002a6 	sh	v0,86(s0)
80101ad4:	070085a0 	sb	a1,7(a0)
80101ad8:	480085ac 	sw	a1,72(a0)
80101adc:	6a000286 	lh	v0,106(s0)
80101ae0:	01000324 	li	v1,1
80101ae4:	a32a0408 	j	0x8010aa8c
80101ae8:	4c0082ac 	sw	v0,76(a0)
80101aec:	21180000 	move	v1,zero
80101af0:	57006010 	beqz	v1,0x80101c50
80101af4:	00000000 	nop
80101af8:	66000386 	lh	v1,102(s0)
80101afc:	00000000 	nop
80101b00:	05006014 	bnez	v1,0x80101b18
80101b04:	5e0000a2 	sb	zero,94(s0)
80101b08:	0003010c 	jal	0x80040c00
80101b0c:	57000424 	li	a0,87
80101b10:	fb2a0408 	j	0x8010abec
80101b14:	00000000 	nop
80101b18:	01000224 	li	v0,1
80101b1c:	4c006214 	bne	v1,v0,0x80101c50
80101b20:	00000000 	nop
80101b24:	0003010c 	jal	0x80040c00
80101b28:	56000424 	li	a0,86
80101b2c:	fb2a0408 	j	0x8010abec
80101b30:	00000000 	nop
80101b34:	0c80023c 	lui	v0,0x800c
80101b38:	0ef84290 	lbu	v0,-2034(v0)
80101b3c:	00000000 	nop
80101b40:	43004010 	beqz	v0,0x80101c50
80101b44:	00000000 	nop
80101b48:	5e000292 	lbu	v0,94(s0)
80101b4c:	00000000 	nop
80101b50:	01004224 	addiu	v0,v0,1
80101b54:	fb2a0408 	j	0x8010abec
80101b58:	5e0002a2 	sb	v0,94(s0)
80101b5c:	0e80023c 	lui	v0,0x800e
80101b60:	05000392 	lbu	v1,5(s0)
80101b64:	01000624 	li	a2,1
80101b68:	18006610 	beq	v1,a2,0x80101bcc
80101b6c:	807e4424 	addiu	a0,v0,32384
80101b70:	02006228 	slti	v0,v1,2
80101b74:	05004010 	beqz	v0,0x80101b8c
80101b78:	02000224 	li	v0,2
80101b7c:	07006010 	beqz	v1,0x80101b9c
80101b80:	21100000 	move	v0,zero
80101b84:	f82a0408 	j	0x8010abe0
80101b88:	00000000 	nop
80101b8c:	25006210 	beq	v1,v0,0x80101c24
80101b90:	21100000 	move	v0,zero
80101b94:	f82a0408 	j	0x8010abe0
80101b98:	00000000 	nop
80101b9c:	51000424 	li	a0,81
80101ba0:	41000524 	li	a1,65
80101ba4:	08000224 	li	v0,8
80101ba8:	050006a2 	sb	a2,5(s0)
80101bac:	653b010c 	jal	0x8004ed94
80101bb0:	400002a6 	sh	v0,64(s0)
80101bb4:	19000424 	li	a0,25
80101bb8:	21280000 	move	a1,zero
80101bbc:	64d1010c 	jal	0x80074590
80101bc0:	0f000624 	li	a2,15
80101bc4:	f82a0408 	j	0x8010abe0
80101bc8:	21100000 	move	v0,zero
80101bcc:	40000296 	lhu	v0,64(s0)
80101bd0:	ffff0324 	li	v1,-1
80101bd4:	ffff4224 	addiu	v0,v0,-1
80101bd8:	400002a6 	sh	v0,64(s0)
80101bdc:	00140200 	sll	v0,v0,0x10
80101be0:	03140200 	sra	v0,v0,0x10
80101be4:	17004314 	bne	v0,v1,0x80101c44
80101be8:	21100000 	move	v0,zero
80101bec:	05000292 	lbu	v0,5(s0)
80101bf0:	00000000 	nop
80101bf4:	01004224 	addiu	v0,v0,1
80101bf8:	050002a2 	sb	v0,5(s0)
80101bfc:	04000224 	li	v0,4
80101c00:	040082a0 	sb	v0,4(a0)
80101c04:	24000224 	li	v0,36
80101c08:	050082a0 	sb	v0,5(a0)
80101c0c:	0c80023c 	lui	v0,0x800c
80101c10:	060080a0 	sb	zero,6(a0)
80101c14:	1ff840a0 	sb	zero,-2017(v0)
80101c18:	801f023c 	lui	v0,0x1f80
80101c1c:	f72a0408 	j	0x8010abdc
80101c20:	370140a0 	sb	zero,311(v0)
80101c24:	2a008390 	lbu	v1,42(a0)
80101c28:	2a000292 	lbu	v0,42(s0)
80101c2c:	00000000 	nop
80101c30:	03006210 	beq	v1,v0,0x80101c40
80101c34:	01000224 	li	v0,1
80101c38:	f82a0408 	j	0x8010abe0
80101c3c:	050000a2 	sb	zero,5(s0)
80101c40:	21100000 	move	v0,zero
80101c44:	02004010 	beqz	v0,0x80101c50
80101c48:	00000000 	nop
80101c4c:	5e0000a2 	sb	zero,94(s0)
80101c50:	1800bf8f 	lw	ra,24(sp)
80101c54:	1400b18f 	lw	s1,20(sp)
80101c58:	1000b08f 	lw	s0,16(sp)
80101c5c:	0800e003 	jr	ra
80101c60:	2000bd27 	addiu	sp,sp,32
80101c64:	e8ffbd27 	addiu	sp,sp,-24
80101c68:	1000b0af 	sw	s0,16(sp)
80101c6c:	21808000 	move	s0,a0
80101c70:	1400bfaf 	sw	ra,20(sp)
80101c74:	5e000492 	lbu	a0,94(s0)
80101c78:	01000524 	li	a1,1
80101c7c:	2a008510 	beq	a0,a1,0x80101d28
80101c80:	02008228 	slti	v0,a0,2
80101c84:	05004010 	beqz	v0,0x80101c9c
80101c88:	00000000 	nop
80101c8c:	08008010 	beqz	a0,0x80101cb0
80101c90:	0c80023c 	lui	v0,0x800c
80101c94:	6d2b0408 	j	0x8010adb4
80101c98:	00000000 	nop
80101c9c:	02000224 	li	v0,2
80101ca0:	27008210 	beq	a0,v0,0x80101d40
80101ca4:	00000000 	nop
80101ca8:	6d2b0408 	j	0x8010adb4
80101cac:	00000000 	nop
80101cb0:	08f84424 	addiu	a0,v0,-2040
80101cb4:	4800828c 	lw	v0,72(a0)
80101cb8:	00000000 	nop
80101cbc:	09004010 	beqz	v0,0x80101ce4
80101cc0:	00000000 	nop
80101cc4:	03000392 	lbu	v1,3(s0)
80101cc8:	4c00828c 	lw	v0,76(a0)
80101ccc:	00000000 	nop
80101cd0:	51004314 	bne	v0,v1,0x80101e18
80101cd4:	00000000 	nop
80101cd8:	5e0005a2 	sb	a1,94(s0)
80101cdc:	6d2b0408 	j	0x8010adb4
80101ce0:	070005a2 	sb	a1,7(s0)
80101ce4:	29000292 	lbu	v0,41(s0)
80101ce8:	00000000 	nop
80101cec:	4a004010 	beqz	v0,0x80101e18
80101cf0:	0e80023c 	lui	v0,0x800e
80101cf4:	807e4324 	addiu	v1,v0,32384
80101cf8:	29006290 	lbu	v0,41(v1)
80101cfc:	00000000 	nop
80101d00:	45004010 	beqz	v0,0x80101e18
80101d04:	00000000 	nop
80101d08:	7b016290 	lbu	v0,379(v1)
80101d0c:	00000000 	nop
80101d10:	41004014 	bnez	v0,0x80101e18
80101d14:	801f033c 	lui	v1,0x1f80
80101d18:	02000224 	li	v0,2
80101d1c:	370162a0 	sb	v0,311(v1)
80101d20:	6d2b0408 	j	0x8010adb4
80101d24:	5e0002a2 	sb	v0,94(s0)
80101d28:	3d29040c 	jal	0x8010a4f4
80101d2c:	21200002 	move	a0,s0
80101d30:	39004010 	beqz	v0,0x80101e18
80101d34:	00000000 	nop
80101d38:	6d2b0408 	j	0x8010adb4
80101d3c:	5e0000a2 	sb	zero,94(s0)
80101d40:	05000392 	lbu	v1,5(s0)
80101d44:	00000000 	nop
80101d48:	17006510 	beq	v1,a1,0x80101da8
80101d4c:	02006228 	slti	v0,v1,2
80101d50:	05004010 	beqz	v0,0x80101d68
80101d54:	00000000 	nop
80101d58:	07006010 	beqz	v1,0x80101d78
80101d5c:	21180000 	move	v1,zero
80101d60:	6a2b0408 	j	0x8010ada8
80101d64:	00000000 	nop
80101d68:	18006410 	beq	v1,a0,0x80101dcc
80101d6c:	21180000 	move	v1,zero
80101d70:	6a2b0408 	j	0x8010ada8
80101d74:	00000000 	nop
80101d78:	0c80023c 	lui	v0,0x800c
80101d7c:	050005a2 	sb	a1,5(s0)
80101d80:	0ff844a0 	sb	a0,-2033(v0)
80101d84:	bf000292 	lbu	v0,191(s0)
80101d88:	00000000 	nop
80101d8c:	1e004010 	beqz	v0,0x80101e08
80101d90:	17000424 	li	a0,23
80101d94:	21280000 	move	a1,zero
80101d98:	64d1010c 	jal	0x80074590
80101d9c:	0f000624 	li	a2,15
80101da0:	6a2b0408 	j	0x8010ada8
80101da4:	21180000 	move	v1,zero
80101da8:	98cb010c 	jal	0x80072e60
80101dac:	21200002 	move	a0,s0
80101db0:	16004010 	beqz	v0,0x80101e0c
80101db4:	21180000 	move	v1,zero
80101db8:	05000292 	lbu	v0,5(s0)
80101dbc:	00000000 	nop
80101dc0:	01004224 	addiu	v0,v0,1
80101dc4:	6a2b0408 	j	0x8010ada8
80101dc8:	050002a2 	sb	v0,5(s0)
80101dcc:	0c80023c 	lui	v0,0x800c
80101dd0:	08f84424 	addiu	a0,v0,-2040
80101dd4:	07008290 	lbu	v0,7(a0)
80101dd8:	00000000 	nop
80101ddc:	0b004014 	bnez	v0,0x80101e0c
80101de0:	00000000 	nop
80101de4:	5a000296 	lhu	v0,90(s0)
80101de8:	050000a2 	sb	zero,5(s0)
80101dec:	560002a6 	sh	v0,86(s0)
80101df0:	070085a0 	sb	a1,7(a0)
80101df4:	480085ac 	sw	a1,72(a0)
80101df8:	6a000286 	lh	v0,106(s0)
80101dfc:	01000324 	li	v1,1
80101e00:	6a2b0408 	j	0x8010ada8
80101e04:	4c0082ac 	sw	v0,76(a0)
80101e08:	21180000 	move	v1,zero
80101e0c:	02006010 	beqz	v1,0x80101e18
80101e10:	00000000 	nop
80101e14:	5e0000a2 	sb	zero,94(s0)
80101e18:	1400bf8f 	lw	ra,20(sp)
80101e1c:	1000b08f 	lw	s0,16(sp)
80101e20:	0800e003 	jr	ra
80101e24:	1800bd27 	addiu	sp,sp,24
80101e28:	e8ffbd27 	addiu	sp,sp,-24
80101e2c:	1000b0af 	sw	s0,16(sp)
80101e30:	21808000 	move	s0,a0
80101e34:	0e80023c 	lui	v0,0x800e
80101e38:	1400bfaf 	sw	ra,20(sp)
80101e3c:	5e000392 	lbu	v1,94(s0)
80101e40:	01000624 	li	a2,1
80101e44:	2f006610 	beq	v1,a2,0x80101f04
80101e48:	807e4524 	addiu	a1,v0,32384
80101e4c:	02006228 	slti	v0,v1,2
80101e50:	05004010 	beqz	v0,0x80101e68
80101e54:	00000000 	nop
80101e58:	0a006010 	beqz	v1,0x80101e84
80101e5c:	0c80023c 	lui	v0,0x800c
80101e60:	1f2c0408 	j	0x8010b07c
80101e64:	00000000 	nop
80101e68:	02000424 	li	a0,2
80101e6c:	29006410 	beq	v1,a0,0x80101f14
80101e70:	03000224 	li	v0,3
80101e74:	5f006210 	beq	v1,v0,0x80101ff4
80101e78:	00000000 	nop
80101e7c:	1f2c0408 	j	0x8010b07c
80101e80:	00000000 	nop
80101e84:	08f84424 	addiu	a0,v0,-2040
80101e88:	4800828c 	lw	v0,72(a0)
80101e8c:	00000000 	nop
80101e90:	09004010 	beqz	v0,0x80101eb8
80101e94:	00000000 	nop
80101e98:	03000392 	lbu	v1,3(s0)
80101e9c:	4c00828c 	lw	v0,76(a0)
80101ea0:	00000000 	nop
80101ea4:	8e004314 	bne	v0,v1,0x801020e0
80101ea8:	00000000 	nop
80101eac:	5e0006a2 	sb	a2,94(s0)
80101eb0:	1f2c0408 	j	0x8010b07c
80101eb4:	070006a2 	sb	a2,7(s0)
80101eb8:	2a00a390 	lbu	v1,42(a1)
80101ebc:	2a000292 	lbu	v0,42(s0)
80101ec0:	00000000 	nop
80101ec4:	86006214 	bne	v1,v0,0x801020e0
80101ec8:	00000000 	nop
80101ecc:	0500a290 	lbu	v0,5(a1)
80101ed0:	00000000 	nop
80101ed4:	82004014 	bnez	v0,0x801020e0
80101ed8:	801f033c 	lui	v1,0x1f80
80101edc:	7401a290 	lbu	v0,372(a1)
80101ee0:	02000424 	li	a0,2
80101ee4:	04004230 	andi	v0,v0,0x4
80101ee8:	03004010 	beqz	v0,0x80101ef8
80101eec:	370164a0 	sb	a0,311(v1)
80101ef0:	1f2c0408 	j	0x8010b07c
80101ef4:	5e0004a2 	sb	a0,94(s0)
80101ef8:	03000224 	li	v0,3
80101efc:	1f2c0408 	j	0x8010b07c
80101f00:	5e0002a2 	sb	v0,94(s0)
80101f04:	db28040c 	jal	0x8010a36c
80101f08:	21200002 	move	a0,s0
80101f0c:	1c2c0408 	j	0x8010b070
80101f10:	00000000 	nop
80101f14:	05000392 	lbu	v1,5(s0)
80101f18:	00000000 	nop
80101f1c:	17006610 	beq	v1,a2,0x80101f7c
80101f20:	02006228 	slti	v0,v1,2
80101f24:	05004010 	beqz	v0,0x80101f3c
80101f28:	00000000 	nop
80101f2c:	07006010 	beqz	v1,0x80101f4c
80101f30:	21180000 	move	v1,zero
80101f34:	e02b0408 	j	0x8010af80
80101f38:	00000000 	nop
80101f3c:	18006410 	beq	v1,a0,0x80101fa0
80101f40:	21180000 	move	v1,zero
80101f44:	e02b0408 	j	0x8010af80
80101f48:	00000000 	nop
80101f4c:	0c80023c 	lui	v0,0x800c
80101f50:	050006a2 	sb	a2,5(s0)
80101f54:	0ff844a0 	sb	a0,-2033(v0)
80101f58:	bf000292 	lbu	v0,191(s0)
80101f5c:	00000000 	nop
80101f60:	1f004010 	beqz	v0,0x80101fe0
80101f64:	17000424 	li	a0,23
80101f68:	21280000 	move	a1,zero
80101f6c:	64d1010c 	jal	0x80074590
80101f70:	0f000624 	li	a2,15
80101f74:	e02b0408 	j	0x8010af80
80101f78:	21180000 	move	v1,zero
80101f7c:	98cb010c 	jal	0x80072e60
80101f80:	21200002 	move	a0,s0
80101f84:	17004010 	beqz	v0,0x80101fe4
80101f88:	21180000 	move	v1,zero
80101f8c:	05000292 	lbu	v0,5(s0)
80101f90:	00000000 	nop
80101f94:	01004224 	addiu	v0,v0,1
80101f98:	e02b0408 	j	0x8010af80
80101f9c:	050002a2 	sb	v0,5(s0)
80101fa0:	0c80023c 	lui	v0,0x800c
80101fa4:	08f84424 	addiu	a0,v0,-2040
80101fa8:	07008290 	lbu	v0,7(a0)
80101fac:	00000000 	nop
80101fb0:	0c004014 	bnez	v0,0x80101fe4
80101fb4:	00000000 	nop
80101fb8:	5a000296 	lhu	v0,90(s0)
80101fbc:	050000a2 	sb	zero,5(s0)
80101fc0:	500000a6 	sh	zero,80(s0)
80101fc4:	560002a6 	sh	v0,86(s0)
80101fc8:	070086a0 	sb	a2,7(a0)
80101fcc:	480086ac 	sw	a2,72(a0)
80101fd0:	6a000286 	lh	v0,106(s0)
80101fd4:	01000324 	li	v1,1
80101fd8:	e02b0408 	j	0x8010af80
80101fdc:	4c0082ac 	sw	v0,76(a0)
80101fe0:	21180000 	move	v1,zero
80101fe4:	3e006010 	beqz	v1,0x801020e0
80101fe8:	00000000 	nop
80101fec:	1f2c0408 	j	0x8010b07c
80101ff0:	5e0000a2 	sb	zero,94(s0)
80101ff4:	05000392 	lbu	v1,5(s0)
80101ff8:	00000000 	nop
80101ffc:	17006610 	beq	v1,a2,0x8010205c
80102000:	02006228 	slti	v0,v1,2
80102004:	05004010 	beqz	v0,0x8010201c
80102008:	00000000 	nop
8010200c:	07006010 	beqz	v1,0x8010202c
80102010:	21100000 	move	v0,zero
80102014:	1c2c0408 	j	0x8010b070
80102018:	00000000 	nop
8010201c:	25006410 	beq	v1,a0,0x801020b4
80102020:	21100000 	move	v0,zero
80102024:	1c2c0408 	j	0x8010b070
80102028:	00000000 	nop
8010202c:	51000424 	li	a0,81
80102030:	41000524 	li	a1,65
80102034:	08000224 	li	v0,8
80102038:	050006a2 	sb	a2,5(s0)
8010203c:	653b010c 	jal	0x8004ed94
80102040:	400002a6 	sh	v0,64(s0)
80102044:	19000424 	li	a0,25
80102048:	21280000 	move	a1,zero
8010204c:	64d1010c 	jal	0x80074590
80102050:	0f000624 	li	a2,15
80102054:	1c2c0408 	j	0x8010b070
80102058:	21100000 	move	v0,zero
8010205c:	40000296 	lhu	v0,64(s0)
80102060:	ffff0324 	li	v1,-1
80102064:	ffff4224 	addiu	v0,v0,-1
80102068:	400002a6 	sh	v0,64(s0)
8010206c:	00140200 	sll	v0,v0,0x10
80102070:	03140200 	sra	v0,v0,0x10
80102074:	17004314 	bne	v0,v1,0x801020d4
80102078:	21100000 	move	v0,zero
8010207c:	05000292 	lbu	v0,5(s0)
80102080:	00000000 	nop
80102084:	01004224 	addiu	v0,v0,1
80102088:	050002a2 	sb	v0,5(s0)
8010208c:	04000224 	li	v0,4
80102090:	0400a2a0 	sb	v0,4(a1)
80102094:	24000224 	li	v0,36
80102098:	0500a2a0 	sb	v0,5(a1)
8010209c:	0c80023c 	lui	v0,0x800c
801020a0:	0600a0a0 	sb	zero,6(a1)
801020a4:	1ff840a0 	sb	zero,-2017(v0)
801020a8:	801f023c 	lui	v0,0x1f80
801020ac:	1b2c0408 	j	0x8010b06c
801020b0:	370140a0 	sb	zero,311(v0)
801020b4:	2a00a390 	lbu	v1,42(a1)
801020b8:	2a000292 	lbu	v0,42(s0)
801020bc:	00000000 	nop
801020c0:	03006210 	beq	v1,v0,0x801020d0
801020c4:	01000224 	li	v0,1
801020c8:	1c2c0408 	j	0x8010b070
801020cc:	050000a2 	sb	zero,5(s0)
801020d0:	21100000 	move	v0,zero
801020d4:	02004010 	beqz	v0,0x801020e0
801020d8:	00000000 	nop
801020dc:	5e0000a2 	sb	zero,94(s0)
801020e0:	1400bf8f 	lw	ra,20(sp)
801020e4:	1000b08f 	lw	s0,16(sp)
801020e8:	0800e003 	jr	ra
801020ec:	1800bd27 	addiu	sp,sp,24
801020f0:	e8ffbd27 	addiu	sp,sp,-24
801020f4:	1000b0af 	sw	s0,16(sp)
801020f8:	21808000 	move	s0,a0
801020fc:	0e80023c 	lui	v0,0x800e
80102100:	1400bfaf 	sw	ra,20(sp)
80102104:	5e000492 	lbu	a0,94(s0)
80102108:	01000524 	li	a1,1
8010210c:	27008510 	beq	a0,a1,0x801021ac
80102110:	807e4624 	addiu	a2,v0,32384
80102114:	02008228 	slti	v0,a0,2
80102118:	05004010 	beqz	v0,0x80102130
8010211c:	00000000 	nop
80102120:	08008010 	beqz	a0,0x80102144
80102124:	0c80023c 	lui	v0,0x800c
80102128:	8f2c0408 	j	0x8010b23c
8010212c:	00000000 	nop
80102130:	02000224 	li	v0,2
80102134:	23008210 	beq	a0,v0,0x801021c4
80102138:	00000000 	nop
8010213c:	8f2c0408 	j	0x8010b23c
80102140:	00000000 	nop
80102144:	08f84424 	addiu	a0,v0,-2040
80102148:	4800828c 	lw	v0,72(a0)
8010214c:	00000000 	nop
80102150:	09004010 	beqz	v0,0x80102178
80102154:	00000000 	nop
80102158:	03000392 	lbu	v1,3(s0)
8010215c:	4c00828c 	lw	v0,76(a0)
80102160:	00000000 	nop
80102164:	4e004314 	bne	v0,v1,0x801022a0
80102168:	00000000 	nop
8010216c:	5e0005a2 	sb	a1,94(s0)
80102170:	8f2c0408 	j	0x8010b23c
80102174:	070005a2 	sb	a1,7(s0)
80102178:	2a00c390 	lbu	v1,42(a2)
8010217c:	2a000292 	lbu	v0,42(s0)
80102180:	00000000 	nop
80102184:	46006214 	bne	v1,v0,0x801022a0
80102188:	00000000 	nop
8010218c:	0500c290 	lbu	v0,5(a2)
80102190:	00000000 	nop
80102194:	42004014 	bnez	v0,0x801022a0
80102198:	801f033c 	lui	v1,0x1f80
8010219c:	02000224 	li	v0,2
801021a0:	370162a0 	sb	v0,311(v1)
801021a4:	8f2c0408 	j	0x8010b23c
801021a8:	5e0002a2 	sb	v0,94(s0)
801021ac:	db28040c 	jal	0x8010a36c
801021b0:	21200002 	move	a0,s0
801021b4:	3a004010 	beqz	v0,0x801022a0
801021b8:	00000000 	nop
801021bc:	8f2c0408 	j	0x8010b23c
801021c0:	5e0000a2 	sb	zero,94(s0)
801021c4:	05000392 	lbu	v1,5(s0)
801021c8:	00000000 	nop
801021cc:	17006510 	beq	v1,a1,0x8010222c
801021d0:	02006228 	slti	v0,v1,2
801021d4:	05004010 	beqz	v0,0x801021ec
801021d8:	00000000 	nop
801021dc:	07006010 	beqz	v1,0x801021fc
801021e0:	21180000 	move	v1,zero
801021e4:	8c2c0408 	j	0x8010b230
801021e8:	00000000 	nop
801021ec:	18006410 	beq	v1,a0,0x80102250
801021f0:	21180000 	move	v1,zero
801021f4:	8c2c0408 	j	0x8010b230
801021f8:	00000000 	nop
801021fc:	0c80023c 	lui	v0,0x800c
80102200:	050005a2 	sb	a1,5(s0)
80102204:	0ff844a0 	sb	a0,-2033(v0)
80102208:	bf000292 	lbu	v0,191(s0)
8010220c:	00000000 	nop
80102210:	1f004010 	beqz	v0,0x80102290
80102214:	17000424 	li	a0,23
80102218:	21280000 	move	a1,zero
8010221c:	64d1010c 	jal	0x80074590
80102220:	0f000624 	li	a2,15
80102224:	8c2c0408 	j	0x8010b230
80102228:	21180000 	move	v1,zero
8010222c:	98cb010c 	jal	0x80072e60
80102230:	21200002 	move	a0,s0
80102234:	17004010 	beqz	v0,0x80102294
80102238:	21180000 	move	v1,zero
8010223c:	05000292 	lbu	v0,5(s0)
80102240:	00000000 	nop
80102244:	01004224 	addiu	v0,v0,1
80102248:	8c2c0408 	j	0x8010b230
8010224c:	050002a2 	sb	v0,5(s0)
80102250:	0c80023c 	lui	v0,0x800c
80102254:	08f84424 	addiu	a0,v0,-2040
80102258:	07008290 	lbu	v0,7(a0)
8010225c:	00000000 	nop
80102260:	0c004014 	bnez	v0,0x80102294
80102264:	00000000 	nop
80102268:	5a000296 	lhu	v0,90(s0)
8010226c:	050000a2 	sb	zero,5(s0)
80102270:	500000a6 	sh	zero,80(s0)
80102274:	560002a6 	sh	v0,86(s0)
80102278:	070085a0 	sb	a1,7(a0)
8010227c:	480085ac 	sw	a1,72(a0)
80102280:	6a000286 	lh	v0,106(s0)
80102284:	01000324 	li	v1,1
80102288:	8c2c0408 	j	0x8010b230
8010228c:	4c0082ac 	sw	v0,76(a0)
80102290:	21180000 	move	v1,zero
80102294:	02006010 	beqz	v1,0x801022a0
80102298:	00000000 	nop
8010229c:	5e0000a2 	sb	zero,94(s0)
801022a0:	1400bf8f 	lw	ra,20(sp)
801022a4:	1000b08f 	lw	s0,16(sp)
801022a8:	0800e003 	jr	ra
801022ac:	1800bd27 	addiu	sp,sp,24
801022b0:	e0ffbd27 	addiu	sp,sp,-32
801022b4:	1000b0af 	sw	s0,16(sp)
801022b8:	21808000 	move	s0,a0
801022bc:	1c00bfaf 	sw	ra,28(sp)
801022c0:	1800b2af 	sw	s2,24(sp)
801022c4:	1400b1af 	sw	s1,20(sp)
801022c8:	04000392 	lbu	v1,4(s0)
801022cc:	01001224 	li	s2,1
801022d0:	c8007210 	beq	v1,s2,0x801025f4
801022d4:	02006228 	slti	v0,v1,2
801022d8:	05004010 	beqz	v0,0x801022f0
801022dc:	00000000 	nop
801022e0:	0a006010 	beqz	v1,0x8010230c
801022e4:	21200002 	move	a0,s0
801022e8:	412e0408 	j	0x8010b904
801022ec:	00000000 	nop
801022f0:	02000224 	li	v0,2
801022f4:	9c016210 	beq	v1,v0,0x80102968
801022f8:	03000224 	li	v0,3
801022fc:	98016210 	beq	v1,v0,0x80102960
80102300:	00000000 	nop
80102304:	412e0408 	j	0x8010b904
80102308:	00000000 	nop
8010230c:	1180033c 	lui	v1,0x8011
80102310:	03000292 	lbu	v0,3(s0)
80102314:	acd27124 	addiu	s1,v1,-11604
80102318:	40100200 	sll	v0,v0,0x1
8010231c:	21105100 	addu	v0,v0,s1
80102320:	00004690 	lbu	a2,0(v0)
80102324:	dc46010c 	jal	0x80051b70
80102328:	0c000524 	li	a1,12
8010232c:	8e014014 	bnez	v0,0x80102968
80102330:	00000000 	nop
80102334:	04000292 	lbu	v0,4(s0)
80102338:	56000496 	lhu	a0,86(s0)
8010233c:	03000392 	lbu	v1,3(s0)
80102340:	bf0012a2 	sb	s2,191(s0)
80102344:	500000a6 	sh	zero,80(s0)
80102348:	01004224 	addiu	v0,v0,1
8010234c:	40180300 	sll	v1,v1,0x1
80102350:	040002a2 	sb	v0,4(s0)
80102354:	28000292 	lbu	v0,40(s0)
80102358:	21187100 	addu	v1,v1,s1
8010235c:	5a0004a6 	sh	a0,90(s0)
80102360:	80004234 	ori	v0,v0,0x80
80102364:	280002a2 	sb	v0,40(s0)
80102368:	01006290 	lbu	v0,1(v1)
8010236c:	00000000 	nop
80102370:	3e004010 	beqz	v0,0x8010246c
80102374:	1180053c 	lui	a1,0x8011
80102378:	03000392 	lbu	v1,3(s0)
8010237c:	d4d2a524 	addiu	a1,a1,-11564
80102380:	2a0002a2 	sb	v0,42(s0)
80102384:	40100300 	sll	v0,v1,0x1
80102388:	21104300 	addu	v0,v0,v1
8010238c:	80100200 	sll	v0,v0,0x2
80102390:	21104500 	addu	v0,v0,a1
80102394:	00004294 	lhu	v0,0(v0)
80102398:	2e000396 	lhu	v1,46(s0)
8010239c:	03000492 	lbu	a0,3(s0)
801023a0:	23104300 	subu	v0,v0,v1
801023a4:	600002a6 	sh	v0,96(s0)
801023a8:	40100400 	sll	v0,a0,0x1
801023ac:	21104400 	addu	v0,v0,a0
801023b0:	80100200 	sll	v0,v0,0x2
801023b4:	21104500 	addu	v0,v0,a1
801023b8:	02004294 	lhu	v0,2(v0)
801023bc:	21188000 	move	v1,a0
801023c0:	620002a6 	sh	v0,98(s0)
801023c4:	40100300 	sll	v0,v1,0x1
801023c8:	21104300 	addu	v0,v0,v1
801023cc:	80100200 	sll	v0,v0,0x2
801023d0:	21104500 	addu	v0,v0,a1
801023d4:	04004294 	lhu	v0,4(v0)
801023d8:	36000396 	lhu	v1,54(s0)
801023dc:	00000000 	nop
801023e0:	23104300 	subu	v0,v0,v1
801023e4:	640002a6 	sh	v0,100(s0)
801023e8:	40100400 	sll	v0,a0,0x1
801023ec:	21104400 	addu	v0,v0,a0
801023f0:	80100200 	sll	v0,v0,0x2
801023f4:	21104500 	addu	v0,v0,a1
801023f8:	06004290 	lbu	v0,6(v0)
801023fc:	21188000 	move	v1,a0
80102400:	5f0002a2 	sb	v0,95(s0)
80102404:	40100300 	sll	v0,v1,0x1
80102408:	21104300 	addu	v0,v0,v1
8010240c:	80100200 	sll	v0,v0,0x2
80102410:	21104500 	addu	v0,v0,a1
80102414:	08004294 	lhu	v0,8(v0)
80102418:	00000000 	nop
8010241c:	820002a6 	sh	v0,130(s0)
80102420:	00140200 	sll	v0,v0,0x10
80102424:	031c0200 	sra	v1,v0,0x10
80102428:	c2170200 	srl	v0,v0,0x1f
8010242c:	21186200 	addu	v1,v1,v0
80102430:	43180300 	sra	v1,v1,0x1
80102434:	40100400 	sll	v0,a0,0x1
80102438:	21104400 	addu	v0,v0,a0
8010243c:	80100200 	sll	v0,v0,0x2
80102440:	21104500 	addu	v0,v0,a1
80102444:	800003a6 	sh	v1,128(s0)
80102448:	0a004294 	lhu	v0,10(v0)
8010244c:	000012a2 	sb	s2,0(s0)
80102450:	860002a6 	sh	v0,134(s0)
80102454:	00140200 	sll	v0,v0,0x10
80102458:	031c0200 	sra	v1,v0,0x10
8010245c:	c2170200 	srl	v0,v0,0x1f
80102460:	21186200 	addu	v1,v1,v0
80102464:	43180300 	sra	v1,v1,0x1
80102468:	840003a6 	sh	v1,132(s0)
8010246c:	03000392 	lbu	v1,3(s0)
80102470:	460012a2 	sb	s2,70(s0)
80102474:	290000a2 	sb	zero,41(s0)
80102478:	1400622c 	sltiu	v0,v1,20
8010247c:	3a014010 	beqz	v0,0x80102968
80102480:	5e0000a2 	sb	zero,94(s0)
80102484:	1180023c 	lui	v0,0x8011
80102488:	e0904224 	addiu	v0,v0,-28448
8010248c:	80180300 	sll	v1,v1,0x2
80102490:	21186200 	addu	v1,v1,v0
80102494:	0000628c 	lw	v0,0(v1)
80102498:	00000000 	nop
8010249c:	08004000 	jr	v0
801024a0:	00000000 	nop
801024a4:	21200002 	move	a0,s0
801024a8:	02000224 	li	v0,2
801024ac:	000082a0 	sb	v0,0(a0)
801024b0:	00040224 	li	v0,1024
801024b4:	bfcb010c 	jal	0x80072efc
801024b8:	500082a4 	sh	v0,80(a0)
801024bc:	412e0408 	j	0x8010b904
801024c0:	00000000 	nop
801024c4:	01000224 	li	v0,1
801024c8:	5a2d0408 	j	0x8010b568
801024cc:	660002a6 	sh	v0,102(s0)
801024d0:	01000224 	li	v0,1
801024d4:	680002a6 	sh	v0,104(s0)
801024d8:	382d0408 	j	0x8010b4e0
801024dc:	03000224 	li	v0,3
801024e0:	03000224 	li	v0,3
801024e4:	660002a6 	sh	v0,102(s0)
801024e8:	02000224 	li	v0,2
801024ec:	412e0408 	j	0x8010b904
801024f0:	6a0002a6 	sh	v0,106(s0)
801024f4:	01000224 	li	v0,1
801024f8:	660002a6 	sh	v0,102(s0)
801024fc:	680002a6 	sh	v0,104(s0)
80102500:	09000224 	li	v0,9
80102504:	412e0408 	j	0x8010b904
80102508:	6a0002a6 	sh	v0,106(s0)
8010250c:	01000224 	li	v0,1
80102510:	5a2d0408 	j	0x8010b568
80102514:	660002a6 	sh	v0,102(s0)
80102518:	03000224 	li	v0,3
8010251c:	660002a6 	sh	v0,102(s0)
80102520:	05000224 	li	v0,5
80102524:	412e0408 	j	0x8010b904
80102528:	6a0002a6 	sh	v0,106(s0)
8010252c:	01000224 	li	v0,1
80102530:	5a2d0408 	j	0x8010b568
80102534:	660002a6 	sh	v0,102(s0)
80102538:	01000224 	li	v0,1
8010253c:	680002a6 	sh	v0,104(s0)
80102540:	0d000224 	li	v0,13
80102544:	660000a6 	sh	zero,102(s0)
80102548:	412e0408 	j	0x8010b904
8010254c:	6a0002a6 	sh	v0,106(s0)
80102550:	01000224 	li	v0,1
80102554:	5a2d0408 	j	0x8010b568
80102558:	660002a6 	sh	v0,102(s0)
8010255c:	03000224 	li	v0,3
80102560:	660002a6 	sh	v0,102(s0)
80102564:	0b000224 	li	v0,11
80102568:	412e0408 	j	0x8010b904
8010256c:	6a0002a6 	sh	v0,106(s0)
80102570:	02000224 	li	v0,2
80102574:	660002a6 	sh	v0,102(s0)
80102578:	10000224 	li	v0,16
8010257c:	412e0408 	j	0x8010b904
80102580:	6a0002a6 	sh	v0,106(s0)
80102584:	04000224 	li	v0,4
80102588:	660002a6 	sh	v0,102(s0)
8010258c:	01000224 	li	v0,1
80102590:	412e0408 	j	0x8010b904
80102594:	6a0002a6 	sh	v0,106(s0)
80102598:	03000224 	li	v0,3
8010259c:	660002a6 	sh	v0,102(s0)
801025a0:	0e000224 	li	v0,14
801025a4:	412e0408 	j	0x8010b904
801025a8:	6a0002a6 	sh	v0,106(s0)
801025ac:	01000224 	li	v0,1
801025b0:	660002a6 	sh	v0,102(s0)
801025b4:	680002a6 	sh	v0,104(s0)
801025b8:	13000224 	li	v0,19
801025bc:	412e0408 	j	0x8010b904
801025c0:	6a0002a6 	sh	v0,106(s0)
801025c4:	01000224 	li	v0,1
801025c8:	660000a6 	sh	zero,102(s0)
801025cc:	680000a6 	sh	zero,104(s0)
801025d0:	412e0408 	j	0x8010b904
801025d4:	6a0002a6 	sh	v0,106(s0)
801025d8:	04000224 	li	v0,4
801025dc:	660002a6 	sh	v0,102(s0)
801025e0:	11000224 	li	v0,17
801025e4:	6a0002a6 	sh	v0,106(s0)
801025e8:	080000a2 	sb	zero,8(s0)
801025ec:	412e0408 	j	0x8010b904
801025f0:	bf0000a2 	sb	zero,191(s0)
801025f4:	03000392 	lbu	v1,3(s0)
801025f8:	00000000 	nop
801025fc:	1400622c 	sltiu	v0,v1,20
80102600:	cf004010 	beqz	v0,0x80102940
80102604:	1180023c 	lui	v0,0x8011
80102608:	30914224 	addiu	v0,v0,-28368
8010260c:	80180300 	sll	v1,v1,0x2
80102610:	21186200 	addu	v1,v1,v0
80102614:	0000628c 	lw	v0,0(v1)
80102618:	00000000 	nop
8010261c:	08004000 	jr	v0
80102620:	00000000 	nop
80102624:	9f29040c 	jal	0x8010a67c
80102628:	21200002 	move	a0,s0
8010262c:	07000492 	lbu	a0,7(s0)
80102630:	01000224 	li	v0,1
80102634:	9f008214 	bne	a0,v0,0x801028b4
80102638:	02008228 	slti	v0,a0,2
8010263c:	1b2e0408 	j	0x8010b86c
80102640:	86000424 	li	a0,134
80102644:	fa29040c 	jal	0x8010a7e8
80102648:	21200002 	move	a0,s0
8010264c:	07000492 	lbu	a0,7(s0)
80102650:	01000224 	li	v0,1
80102654:	97008214 	bne	a0,v0,0x801028b4
80102658:	02008228 	slti	v0,a0,2
8010265c:	1b2e0408 	j	0x8010b86c
80102660:	86000424 	li	a0,134
80102664:	fa29040c 	jal	0x8010a7e8
80102668:	21200002 	move	a0,s0
8010266c:	07000492 	lbu	a0,7(s0)
80102670:	01000224 	li	v0,1
80102674:	8f008214 	bne	a0,v0,0x801028b4
80102678:	02008228 	slti	v0,a0,2
8010267c:	1b2e0408 	j	0x8010b86c
80102680:	86000424 	li	a0,134
80102684:	002b040c 	jal	0x8010ac00
80102688:	21200002 	move	a0,s0
8010268c:	07000492 	lbu	a0,7(s0)
80102690:	01000224 	li	v0,1
80102694:	87008214 	bne	a0,v0,0x801028b4
80102698:	02008228 	slti	v0,a0,2
8010269c:	1b2e0408 	j	0x8010b86c
801026a0:	87000424 	li	a0,135
801026a4:	fa29040c 	jal	0x8010a7e8
801026a8:	21200002 	move	a0,s0
801026ac:	07000492 	lbu	a0,7(s0)
801026b0:	01000224 	li	v0,1
801026b4:	7f008214 	bne	a0,v0,0x801028b4
801026b8:	02008228 	slti	v0,a0,2
801026bc:	1b2e0408 	j	0x8010b86c
801026c0:	87000424 	li	a0,135
801026c4:	fa29040c 	jal	0x8010a7e8
801026c8:	21200002 	move	a0,s0
801026cc:	07000492 	lbu	a0,7(s0)
801026d0:	01000224 	li	v0,1
801026d4:	77008214 	bne	a0,v0,0x801028b4
801026d8:	02008228 	slti	v0,a0,2
801026dc:	1b2e0408 	j	0x8010b86c
801026e0:	87000424 	li	a0,135
801026e4:	fa29040c 	jal	0x8010a7e8
801026e8:	21200002 	move	a0,s0
801026ec:	07000492 	lbu	a0,7(s0)
801026f0:	01000224 	li	v0,1
801026f4:	6f008214 	bne	a0,v0,0x801028b4
801026f8:	02008228 	slti	v0,a0,2
801026fc:	1b2e0408 	j	0x8010b86c
80102700:	87000424 	li	a0,135
80102704:	fa29040c 	jal	0x8010a7e8
80102708:	21200002 	move	a0,s0
8010270c:	07000492 	lbu	a0,7(s0)
80102710:	01000224 	li	v0,1
80102714:	67008214 	bne	a0,v0,0x801028b4
80102718:	02008228 	slti	v0,a0,2
8010271c:	1b2e0408 	j	0x8010b86c
80102720:	87000424 	li	a0,135
80102724:	fa29040c 	jal	0x8010a7e8
80102728:	21200002 	move	a0,s0
8010272c:	07000492 	lbu	a0,7(s0)
80102730:	01000224 	li	v0,1
80102734:	5f008214 	bne	a0,v0,0x801028b4
80102738:	02008228 	slti	v0,a0,2
8010273c:	1b2e0408 	j	0x8010b86c
80102740:	87000424 	li	a0,135
80102744:	002b040c 	jal	0x8010ac00
80102748:	21200002 	move	a0,s0
8010274c:	07000492 	lbu	a0,7(s0)
80102750:	01000224 	li	v0,1
80102754:	57008214 	bne	a0,v0,0x801028b4
80102758:	02008228 	slti	v0,a0,2
8010275c:	1b2e0408 	j	0x8010b86c
80102760:	88000424 	li	a0,136
80102764:	fa29040c 	jal	0x8010a7e8
80102768:	21200002 	move	a0,s0
8010276c:	07000492 	lbu	a0,7(s0)
80102770:	01000224 	li	v0,1
80102774:	4f008214 	bne	a0,v0,0x801028b4
80102778:	02008228 	slti	v0,a0,2
8010277c:	1b2e0408 	j	0x8010b86c
80102780:	88000424 	li	a0,136
80102784:	fa29040c 	jal	0x8010a7e8
80102788:	21200002 	move	a0,s0
8010278c:	07000492 	lbu	a0,7(s0)
80102790:	01000224 	li	v0,1
80102794:	47008214 	bne	a0,v0,0x801028b4
80102798:	02008228 	slti	v0,a0,2
8010279c:	1b2e0408 	j	0x8010b86c
801027a0:	88000424 	li	a0,136
801027a4:	fa29040c 	jal	0x8010a7e8
801027a8:	21200002 	move	a0,s0
801027ac:	07000492 	lbu	a0,7(s0)
801027b0:	01000224 	li	v0,1
801027b4:	3f008214 	bne	a0,v0,0x801028b4
801027b8:	02008228 	slti	v0,a0,2
801027bc:	1b2e0408 	j	0x8010b86c
801027c0:	88000424 	li	a0,136
801027c4:	002b040c 	jal	0x8010ac00
801027c8:	21200002 	move	a0,s0
801027cc:	07000492 	lbu	a0,7(s0)
801027d0:	01000224 	li	v0,1
801027d4:	37008214 	bne	a0,v0,0x801028b4
801027d8:	02008228 	slti	v0,a0,2
801027dc:	1b2e0408 	j	0x8010b86c
801027e0:	89000424 	li	a0,137
801027e4:	712b040c 	jal	0x8010adc4
801027e8:	21200002 	move	a0,s0
801027ec:	07000492 	lbu	a0,7(s0)
801027f0:	01000224 	li	v0,1
801027f4:	2f008214 	bne	a0,v0,0x801028b4
801027f8:	02008228 	slti	v0,a0,2
801027fc:	1b2e0408 	j	0x8010b86c
80102800:	89000424 	li	a0,137
80102804:	232c040c 	jal	0x8010b08c
80102808:	21200002 	move	a0,s0
8010280c:	07000492 	lbu	a0,7(s0)
80102810:	01000224 	li	v0,1
80102814:	27008214 	bne	a0,v0,0x801028b4
80102818:	02008228 	slti	v0,a0,2
8010281c:	1b2e0408 	j	0x8010b86c
80102820:	89000424 	li	a0,137
80102824:	0e80023c 	lui	v0,0x800e
80102828:	f47f4290 	lbu	v0,32756(v0)
8010282c:	00000000 	nop
80102830:	04004230 	andi	v0,v0,0x4
80102834:	42004010 	beqz	v0,0x80102940
80102838:	00000000 	nop
8010283c:	002b040c 	jal	0x8010ac00
80102840:	21200002 	move	a0,s0
80102844:	07000492 	lbu	a0,7(s0)
80102848:	01000224 	li	v0,1
8010284c:	19008214 	bne	a0,v0,0x801028b4
80102850:	02008228 	slti	v0,a0,2
80102854:	1b2e0408 	j	0x8010b86c
80102858:	8a000424 	li	a0,138
8010285c:	fa29040c 	jal	0x8010a7e8
80102860:	21200002 	move	a0,s0
80102864:	07000492 	lbu	a0,7(s0)
80102868:	01000224 	li	v0,1
8010286c:	11008214 	bne	a0,v0,0x801028b4
80102870:	02008228 	slti	v0,a0,2
80102874:	1b2e0408 	j	0x8010b86c
80102878:	8a000424 	li	a0,138
8010287c:	fa29040c 	jal	0x8010a7e8
80102880:	21200002 	move	a0,s0
80102884:	07000492 	lbu	a0,7(s0)
80102888:	01000224 	li	v0,1
8010288c:	09008214 	bne	a0,v0,0x801028b4
80102890:	02008228 	slti	v0,a0,2
80102894:	1b2e0408 	j	0x8010b86c
80102898:	8a000424 	li	a0,138
8010289c:	232c040c 	jal	0x8010b08c
801028a0:	21200002 	move	a0,s0
801028a4:	07000492 	lbu	a0,7(s0)
801028a8:	01000224 	li	v0,1
801028ac:	07008210 	beq	a0,v0,0x801028cc
801028b0:	02008228 	slti	v0,a0,2
801028b4:	22004014 	bnez	v0,0x80102940
801028b8:	02000224 	li	v0,2
801028bc:	0e008210 	beq	a0,v0,0x801028f8
801028c0:	ffff0324 	li	v1,-1
801028c4:	372e0408 	j	0x8010b8dc
801028c8:	00000000 	nop
801028cc:	8b000424 	li	a0,139
801028d0:	0ef8010c 	jal	0x8007e038
801028d4:	02000524 	li	a1,2
801028d8:	19004010 	beqz	v0,0x80102940
801028dc:	140002ae 	sw	v0,20(s0)
801028e0:	07000292 	lbu	v0,7(s0)
801028e4:	5a000324 	li	v1,90
801028e8:	0e0003a6 	sh	v1,14(s0)
801028ec:	01004224 	addiu	v0,v0,1
801028f0:	372e0408 	j	0x8010b8dc
801028f4:	070002a2 	sb	v0,7(s0)
801028f8:	0e000296 	lhu	v0,14(s0)
801028fc:	00000000 	nop
80102900:	ffff4224 	addiu	v0,v0,-1
80102904:	0e0002a6 	sh	v0,14(s0)
80102908:	00140200 	sll	v0,v0,0x10
8010290c:	03140200 	sra	v0,v0,0x10
80102910:	0b004314 	bne	v0,v1,0x80102940
80102914:	00000000 	nop
80102918:	1400038e 	lw	v1,20(s0)
8010291c:	00000000 	nop
80102920:	04006290 	lbu	v0,4(v1)
80102924:	00000000 	nop
80102928:	0200422c 	sltiu	v0,v0,2
8010292c:	03004010 	beqz	v0,0x8010293c
80102930:	00000000 	nop
80102934:	040064a0 	sb	a0,4(v1)
80102938:	140000ae 	sw	zero,20(s0)
8010293c:	070000a2 	sb	zero,7(s0)
80102940:	e3dd010c 	jal	0x8007778c
80102944:	21200002 	move	a0,s0
80102948:	03004010 	beqz	v0,0x80102958
8010294c:	00000000 	nop
80102950:	fe45010c 	jal	0x800517f8
80102954:	21200002 	move	a0,s0
80102958:	412e0408 	j	0x8010b904
8010295c:	290000a2 	sb	zero,41(s0)
80102960:	89e9010c 	jal	0x8007a624
80102964:	21200002 	move	a0,s0
80102968:	1c00bf8f 	lw	ra,28(sp)
8010296c:	1800b28f 	lw	s2,24(sp)
80102970:	1400b18f 	lw	s1,20(sp)
80102974:	1000b08f 	lw	s0,16(sp)
80102978:	0800e003 	jr	ra
8010297c:	2000bd27 	addiu	sp,sp,32
80102980:	e8ffbd27 	addiu	sp,sp,-24
80102984:	1000b0af 	sw	s0,16(sp)
80102988:	21808000 	move	s0,a0
8010298c:	1400bfaf 	sw	ra,20(sp)
80102990:	07000692 	lbu	a2,7(s0)
80102994:	01000224 	li	v0,1
80102998:	0800c210 	beq	a2,v0,0x801029bc
8010299c:	0200c228 	slti	v0,a2,2
801029a0:	24004014 	bnez	v0,0x80102a34
801029a4:	00000000 	nop
801029a8:	02000224 	li	v0,2
801029ac:	0f00c210 	beq	a2,v0,0x801029ec
801029b0:	ffff0324 	li	v1,-1
801029b4:	742e0408 	j	0x8010b9d0
801029b8:	00000000 	nop
801029bc:	00240500 	sll	a0,a1,0x10
801029c0:	03240400 	sra	a0,a0,0x10
801029c4:	0ef8010c 	jal	0x8007e038
801029c8:	02000524 	li	a1,2
801029cc:	19004010 	beqz	v0,0x80102a34
801029d0:	140002ae 	sw	v0,20(s0)
801029d4:	07000292 	lbu	v0,7(s0)
801029d8:	5a000324 	li	v1,90
801029dc:	0e0003a6 	sh	v1,14(s0)
801029e0:	01004224 	addiu	v0,v0,1
801029e4:	742e0408 	j	0x8010b9d0
801029e8:	070002a2 	sb	v0,7(s0)
801029ec:	0e000296 	lhu	v0,14(s0)
801029f0:	00000000 	nop
801029f4:	ffff4224 	addiu	v0,v0,-1
801029f8:	0e0002a6 	sh	v0,14(s0)
801029fc:	00140200 	sll	v0,v0,0x10
80102a00:	03140200 	sra	v0,v0,0x10
80102a04:	0b004314 	bne	v0,v1,0x80102a34
80102a08:	00000000 	nop
80102a0c:	1400038e 	lw	v1,20(s0)
80102a10:	00000000 	nop
80102a14:	04006290 	lbu	v0,4(v1)
80102a18:	00000000 	nop
80102a1c:	0200422c 	sltiu	v0,v0,2
80102a20:	03004010 	beqz	v0,0x80102a30
80102a24:	00000000 	nop
80102a28:	040066a0 	sb	a2,4(v1)
80102a2c:	140000ae 	sw	zero,20(s0)
80102a30:	070000a2 	sb	zero,7(s0)
80102a34:	1400bf8f 	lw	ra,20(sp)
80102a38:	1000b08f 	lw	s0,16(sp)
80102a3c:	0800e003 	jr	ra
80102a40:	1800bd27 	addiu	sp,sp,24
80102a44:	d8ffbd27 	addiu	sp,sp,-40
80102a48:	1800b2af 	sw	s2,24(sp)
80102a4c:	21908000 	move	s2,a0
80102a50:	2000b4af 	sw	s4,32(sp)
80102a54:	21a0a000 	move	s4,a1
80102a58:	1180033c 	lui	v1,0x8011
80102a5c:	88d56324 	addiu	v1,v1,-10872
80102a60:	80101400 	sll	v0,s4,0x2
80102a64:	21104300 	addu	v0,v0,v1
80102a68:	2400bfaf 	sw	ra,36(sp)
80102a6c:	1c00b3af 	sw	s3,28(sp)
80102a70:	1400b1af 	sw	s1,20(sp)
80102a74:	1000b0af 	sw	s0,16(sp)
80102a78:	080040a6 	sh	zero,8(s2)
80102a7c:	0000518c 	lw	s1,0(v0)
80102a80:	00000000 	nop
80102a84:	00002392 	lbu	v1,0(s1)
80102a88:	ff000224 	li	v0,255
80102a8c:	43006210 	beq	v1,v0,0x80102b9c
80102a90:	0c80023c 	lui	v0,0x800c
80102a94:	08f85324 	addiu	s3,v0,-2040
80102a98:	0c003026 	addiu	s0,s1,12
80102a9c:	06008012 	beqz	s4,0x80102ab8
80102aa0:	00000000 	nop
80102aa4:	08004286 	lh	v0,8(s2)
80102aa8:	00000000 	nop
80102aac:	0f004228 	slti	v0,v0,15
80102ab0:	35004010 	beqz	v0,0x80102b88
80102ab4:	00000000 	nop
80102ab8:	feff0392 	lbu	v1,-2(s0)
80102abc:	00000000 	nop
80102ac0:	0c006010 	beqz	v1,0x80102af4
80102ac4:	01000224 	li	v0,1
80102ac8:	0a006214 	bne	v1,v0,0x80102af4
80102acc:	00000000 	nop
80102ad0:	f8ff0296 	lhu	v0,-8(s0)
80102ad4:	00000000 	nop
80102ad8:	080062a6 	sh	v0,8(s3)
80102adc:	faff0296 	lhu	v0,-6(s0)
80102ae0:	00000000 	nop
80102ae4:	0a0062a6 	sh	v0,10(s3)
80102ae8:	fcff0296 	lhu	v0,-4(s0)
80102aec:	00000000 	nop
80102af0:	0c0062a6 	sh	v0,12(s3)
80102af4:	00002592 	lbu	a1,0(s1)
80102af8:	f5ff0692 	lbu	a2,-11(s0)
80102afc:	f6ff0792 	lbu	a3,-10(s0)
80102b00:	77cb010c 	jal	0x80072ddc
80102b04:	21204002 	move	a0,s2
80102b08:	21184000 	move	v1,v0
80102b0c:	1e006010 	beqz	v1,0x80102b88
80102b10:	00000000 	nop
80102b14:	f8ff0286 	lh	v0,-8(s0)
80102b18:	00000000 	nop
80102b1c:	00140200 	sll	v0,v0,0x10
80102b20:	2c0062ac 	sw	v0,44(v1)
80102b24:	faff0286 	lh	v0,-6(s0)
80102b28:	00000000 	nop
80102b2c:	00140200 	sll	v0,v0,0x10
80102b30:	300062ac 	sw	v0,48(v1)
80102b34:	fcff0286 	lh	v0,-4(s0)
80102b38:	00000000 	nop
80102b3c:	00140200 	sll	v0,v0,0x10
80102b40:	340062ac 	sw	v0,52(v1)
80102b44:	f7ff0292 	lbu	v0,-9(s0)
80102b48:	540060a4 	sh	zero,84(v1)
80102b4c:	560060a4 	sh	zero,86(v1)
80102b50:	580060a4 	sh	zero,88(v1)
80102b54:	030062a0 	sb	v0,3(v1)
80102b58:	0000028e 	lw	v0,0(s0)
80102b5c:	0a008012 	beqz	s4,0x80102b88
80102b60:	1c0062ac 	sw	v0,28(v1)
80102b64:	08004286 	lh	v0,8(s2)
80102b68:	00000000 	nop
80102b6c:	80100200 	sll	v0,v0,0x2
80102b70:	21104202 	addu	v0,s2,v0
80102b74:	0c0043ac 	sw	v1,12(v0)
80102b78:	08004296 	lhu	v0,8(s2)
80102b7c:	00000000 	nop
80102b80:	01004224 	addiu	v0,v0,1
80102b84:	080042a6 	sh	v0,8(s2)
80102b88:	10003126 	addiu	s1,s1,16
80102b8c:	00002392 	lbu	v1,0(s1)
80102b90:	ff000224 	li	v0,255
80102b94:	c1ff6214 	bne	v1,v0,0x80102a9c
80102b98:	10001026 	addiu	s0,s0,16
80102b9c:	2400bf8f 	lw	ra,36(sp)
80102ba0:	2000b48f 	lw	s4,32(sp)
80102ba4:	1c00b38f 	lw	s3,28(sp)
80102ba8:	1800b28f 	lw	s2,24(sp)
80102bac:	1400b18f 	lw	s1,20(sp)
80102bb0:	1000b08f 	lw	s0,16(sp)
80102bb4:	0800e003 	jr	ra
80102bb8:	2800bd27 	addiu	sp,sp,40
80102bbc:	e8ffbd27 	addiu	sp,sp,-24
80102bc0:	1000b0af 	sw	s0,16(sp)
80102bc4:	21808000 	move	s0,a0
80102bc8:	1400bfaf 	sw	ra,20(sp)
80102bcc:	04000392 	lbu	v1,4(s0)
80102bd0:	01000424 	li	a0,1
80102bd4:	1b006410 	beq	v1,a0,0x80102c44
80102bd8:	02006228 	slti	v0,v1,2
80102bdc:	05004010 	beqz	v0,0x80102bf4
80102be0:	00000000 	nop
80102be4:	0a006010 	beqz	v1,0x80102c10
80102be8:	00000000 	nop
80102bec:	0c2f0408 	j	0x8010bc30
80102bf0:	00000000 	nop
80102bf4:	02000224 	li	v0,2
80102bf8:	26006210 	beq	v1,v0,0x80102c94
80102bfc:	03000224 	li	v0,3
80102c00:	22006210 	beq	v1,v0,0x80102c8c
80102c04:	00000000 	nop
80102c08:	0c2f0408 	j	0x8010bc30
80102c0c:	00000000 	nop
80102c10:	040004a2 	sb	a0,4(s0)
80102c14:	21200002 	move	a0,s0
80102c18:	782e040c 	jal	0x8010b9e0
80102c1c:	21280000 	move	a1,zero
80102c20:	0d000424 	li	a0,13
80102c24:	3636010c 	jal	0x8004d8d8
80102c28:	21280000 	move	a1,zero
80102c2c:	add4010c 	jal	0x800752b4
80102c30:	21200000 	move	a0,zero
80102c34:	49d7010c 	jal	0x80075d24
80102c38:	ff1f0424 	li	a0,8191
80102c3c:	0c2f0408 	j	0x8010bc30
80102c40:	00000000 	nop
80102c44:	b49a000c 	jal	0x80026ad0
80102c48:	21200002 	move	a0,s0
80102c4c:	05004010 	beqz	v0,0x80102c64
80102c50:	0c80023c 	lui	v0,0x800c
80102c54:	03000592 	lbu	a1,3(s0)
80102c58:	782e040c 	jal	0x8010b9e0
80102c5c:	21200002 	move	a0,s0
80102c60:	0c80023c 	lui	v0,0x800c
80102c64:	16f94390 	lbu	v1,-1770(v0)
80102c68:	ff000224 	li	v0,255
80102c6c:	03006210 	beq	v1,v0,0x80102c7c
80102c70:	00000000 	nop
80102c74:	0003010c 	jal	0x80040c00
80102c78:	62000424 	li	a0,98
80102c7c:	9a9a000c 	jal	0x80026a68
80102c80:	21200002 	move	a0,s0
80102c84:	0c2f0408 	j	0x8010bc30
80102c88:	00000000 	nop
80102c8c:	74eb010c 	jal	0x8007add0
80102c90:	21200002 	move	a0,s0
80102c94:	1400bf8f 	lw	ra,20(sp)
80102c98:	1000b08f 	lw	s0,16(sp)
80102c9c:	0800e003 	jr	ra
80102ca0:	1800bd27 	addiu	sp,sp,24
80102ca4:	e8ffbd27 	addiu	sp,sp,-24
80102ca8:	21688000 	move	t5,a0
80102cac:	801f093c 	lui	t1,0x1f80
80102cb0:	04002935 	ori	t1,t1,0x4
80102cb4:	0c80023c 	lui	v0,0x800c
80102cb8:	44f54a8c 	lw	t2,-2748(v0)
80102cbc:	2110c000 	move	v0,a2
80102cc0:	ffffc624 	addiu	a2,a2,-1
80102cc4:	ac004010 	beqz	v0,0x80102f78
80102cc8:	801f0e3c 	lui	t6,0x1f80
80102ccc:	f0000f3c 	lui	t7,0xf0
80102cd0:	f0f0ef35 	ori	t7,t7,0xf0f0
80102cd4:	22008b24 	addiu	t3,a0,34
80102cd8:	24004825 	addiu	t0,t2,36
80102cdc:	1000a0c9 	lwc2	$0,16(t5)
80102ce0:	1400ac8d 	lw	t4,20(t5)
80102ce4:	1800a2c9 	lwc2	$2,24(t5)
80102ce8:	00088c48 	mtc2	t4,$1
80102cec:	1c00a4c9 	lwc2	$4,28(t5)
80102cf0:	02640c00 	srl	t4,t4,0x10
80102cf4:	00188c48 	mtc2	t4,$3
80102cf8:	2000a5c9 	lwc2	$5,32(t5)
80102cfc:	0000a28d 	lw	v0,0(t5)
80102d00:	00000000 	nop
80102d04:	e0ff02ad 	sw	v0,-32(t0)
80102d08:	3000284a 	c2	0x280030
80102d0c:	e6ff628d 	lw	v0,-26(t3)
80102d10:	00000000 	nop
80102d14:	e8ff02ad 	sw	v0,-24(t0)
80102d18:	eaff628d 	lw	v0,-22(t3)
80102d1c:	00000000 	nop
80102d20:	f4ff02ad 	sw	v0,-12(t0)
80102d24:	e2ff638d 	lw	v1,-30(t3)
80102d28:	00f84c48 	cfc2	t4,$31
80102d2c:	00000000 	nop
80102d30:	0000ccad 	sw	t4,0(t6)
80102d34:	0000c28d 	lw	v0,0(t6)
80102d38:	00000000 	nop
80102d3c:	89004004 	bltz	v0,0x80102f64
80102d40:	00000000 	nop
80102d44:	0600404b 	c2	0x1400006
80102d48:	24106f00 	and	v0,v1,t7
80102d4c:	ecff02ad 	sw	v0,-20(t0)
80102d50:	0000d8e9 	swc2	$24,0(t6)
80102d54:	0000c28d 	lw	v0,0(t6)
80102d58:	00000000 	nop
80102d5c:	81004018 	blez	v0,0x80102f64
80102d60:	00000000 	nop
80102d64:	08004ce9 	swc2	$12,8(t2)
80102d68:	14004de9 	swc2	$13,20(t2)
80102d6c:	20004ee9 	swc2	$14,32(t2)
80102d70:	e4ff0295 	lhu	v0,-28(t0)
80102d74:	00000000 	nop
80102d78:	4001422c 	sltiu	v0,v0,320
80102d7c:	0b004014 	bnez	v0,0x80102dac
80102d80:	00000000 	nop
80102d84:	f0ff0295 	lhu	v0,-16(t0)
80102d88:	00000000 	nop
80102d8c:	4001422c 	sltiu	v0,v0,320
80102d90:	06004014 	bnez	v0,0x80102dac
80102d94:	00000000 	nop
80102d98:	fcff0295 	lhu	v0,-4(t0)
80102d9c:	00000000 	nop
80102da0:	4001422c 	sltiu	v0,v0,320
80102da4:	6f004010 	beqz	v0,0x80102f64
80102da8:	00000000 	nop
80102dac:	e6ff0295 	lhu	v0,-26(t0)
80102db0:	00000000 	nop
80102db4:	f000422c 	sltiu	v0,v0,240
80102db8:	0b004014 	bnez	v0,0x80102de8
80102dbc:	00000000 	nop
80102dc0:	f2ff0295 	lhu	v0,-14(t0)
80102dc4:	00000000 	nop
80102dc8:	f000422c 	sltiu	v0,v0,240
80102dcc:	06004014 	bnez	v0,0x80102de8
80102dd0:	00000000 	nop
80102dd4:	feff0295 	lhu	v0,-2(t0)
80102dd8:	00000000 	nop
80102ddc:	f000422c 	sltiu	v0,v0,240
80102de0:	60004010 	beqz	v0,0x80102f64
80102de4:	00000000 	nop
80102de8:	00000000 	nop
80102dec:	00110300 	sll	v0,v1,0x4
80102df0:	24104f00 	and	v0,v0,t7
80102df4:	f8ff02ad 	sw	v0,-8(t0)
80102df8:	021e0300 	srl	v1,v1,0x18
80102dfc:	01000224 	li	v0,1
80102e00:	05006210 	beq	v1,v0,0x80102e18
80102e04:	02000224 	li	v0,2
80102e08:	18006210 	beq	v1,v0,0x80102e6c
80102e0c:	0c00a227 	addiu	v0,sp,12
80102e10:	992f0408 	j	0x8010be64
80102e14:	00000000 	nop
80102e18:	0000b1eb 	swc2	$17,0(sp)
80102e1c:	0400a227 	addiu	v0,sp,4
80102e20:	000052e8 	swc2	$18,0(v0)
80102e24:	0800a227 	addiu	v0,sp,8
80102e28:	000053e8 	swc2	$19,0(v0)
80102e2c:	0000a78f 	lw	a3,0(sp)
80102e30:	0400a48f 	lw	a0,4(sp)
80102e34:	00000000 	nop
80102e38:	2a108700 	slt	v0,a0,a3
80102e3c:	08004010 	beqz	v0,0x80102e60
80102e40:	00000000 	nop
80102e44:	0800a38f 	lw	v1,8(sp)
80102e48:	00000000 	nop
80102e4c:	2a106700 	slt	v0,v1,a3
80102e50:	1b004010 	beqz	v0,0x80102ec0
80102e54:	83100300 	sra	v0,v1,0x2
80102e58:	962f0408 	j	0x8010be58
80102e5c:	2118e000 	move	v1,a3
80102e60:	0800a38f 	lw	v1,8(sp)
80102e64:	932f0408 	j	0x8010be4c
80102e68:	2a106400 	slt	v0,v1,a0
80102e6c:	000051e8 	swc2	$17,0(v0)
80102e70:	1000a227 	addiu	v0,sp,16
80102e74:	000052e8 	swc2	$18,0(v0)
80102e78:	1400a227 	addiu	v0,sp,20
80102e7c:	000053e8 	swc2	$19,0(v0)
80102e80:	0c00a78f 	lw	a3,12(sp)
80102e84:	1000a48f 	lw	a0,16(sp)
80102e88:	00000000 	nop
80102e8c:	2a10e400 	slt	v0,a3,a0
80102e90:	04004010 	beqz	v0,0x80102ea4
80102e94:	00000000 	nop
80102e98:	1400a38f 	lw	v1,20(sp)
80102e9c:	7b2f0408 	j	0x8010bdec
80102ea0:	2a10e300 	slt	v0,a3,v1
80102ea4:	1400a38f 	lw	v1,20(sp)
80102ea8:	00000000 	nop
80102eac:	2a108300 	slt	v0,a0,v1
80102eb0:	03004010 	beqz	v0,0x80102ec0
80102eb4:	83100300 	sra	v0,v1,0x2
80102eb8:	21188000 	move	v1,a0
80102ebc:	83100300 	sra	v0,v1,0x2
80102ec0:	9b2f0408 	j	0x8010be6c
80102ec4:	000022ad 	sw	v0,0(t1)
80102ec8:	2d00584b 	c2	0x158002d
80102ecc:	000027e9 	swc2	$7,0(t1)
80102ed0:	0000228d 	lw	v0,0(t1)
80102ed4:	00000000 	nop
80102ed8:	8f014224 	addiu	v0,v0,399
80102edc:	b701422c 	sltiu	v0,v0,439
80102ee0:	02004010 	beqz	v0,0x80102eec
80102ee4:	28000224 	li	v0,40
80102ee8:	000022ad 	sw	v0,0(t1)
80102eec:	0000228d 	lw	v0,0(t1)
80102ef0:	00000000 	nop
80102ef4:	831a0200 	sra	v1,v0,0xa
80102ef8:	07106200 	srav	v0,v0,v1
80102efc:	401a0300 	sll	v1,v1,0x9
80102f00:	21104300 	addu	v0,v0,v1
80102f04:	000022ad 	sw	v0,0(t1)
80102f08:	fcff4224 	addiu	v0,v0,-4
80102f0c:	fc07422c 	sltiu	v0,v0,2044
80102f10:	02004014 	bnez	v0,0x80102f1c
80102f14:	ffff0224 	li	v0,-1
80102f18:	000022ad 	sw	v0,0(t1)
80102f1c:	0000228d 	lw	v0,0(t1)
80102f20:	00000000 	nop
80102f24:	0f004004 	bltz	v0,0x80102f64
80102f28:	0009043c 	lui	a0,0x900
80102f2c:	00006295 	lhu	v0,0(t3)
80102f30:	00000000 	nop
80102f34:	000002a5 	sh	v0,0(t0)
80102f38:	0000228d 	lw	v0,0(t1)
80102f3c:	00000000 	nop
80102f40:	80100200 	sll	v0,v0,0x2
80102f44:	2110a200 	addu	v0,a1,v0
80102f48:	0000438c 	lw	v1,0(v0)
80102f4c:	00000000 	nop
80102f50:	25186400 	or	v1,v1,a0
80102f54:	000043ad 	sw	v1,0(t2)
80102f58:	00004aac 	sw	t2,0(v0)
80102f5c:	28000825 	addiu	t0,t0,40
80102f60:	28004a25 	addiu	t2,t2,40
80102f64:	24006b25 	addiu	t3,t3,36
80102f68:	2400ad25 	addiu	t5,t5,36
80102f6c:	2110c000 	move	v0,a2
80102f70:	5aff4014 	bnez	v0,0x80102cdc
80102f74:	ffffc624 	addiu	a2,a2,-1
80102f78:	0c80023c 	lui	v0,0x800c
80102f7c:	44f54aac 	sw	t2,-2748(v0)
80102f80:	2110a001 	move	v0,t5
80102f84:	0800e003 	jr	ra
80102f88:	1800bd27 	addiu	sp,sp,24
80102f8c:	e0ffbd27 	addiu	sp,sp,-32
80102f90:	21688000 	move	t5,a0
80102f94:	801f093c 	lui	t1,0x1f80
80102f98:	04002935 	ori	t1,t1,0x4
80102f9c:	0c80023c 	lui	v0,0x800c
80102fa0:	44f54a8c 	lw	t2,-2748(v0)
80102fa4:	2110c000 	move	v0,a2
80102fa8:	ffffc624 	addiu	a2,a2,-1
80102fac:	d1004010 	beqz	v0,0x801032f4
80102fb0:	801f0e3c 	lui	t6,0x1f80
80102fb4:	f0000f3c 	lui	t7,0xf0
80102fb8:	f0f0ef35 	ori	t7,t7,0xf0f0
80102fbc:	10008b24 	addiu	t3,a0,16
80102fc0:	30004825 	addiu	t0,t2,48
80102fc4:	1800ac8d 	lw	t4,24(t5)
80102fc8:	1400a0c9 	lwc2	$0,20(t5)
80102fcc:	00088c48 	mtc2	t4,$1
80102fd0:	02640c00 	srl	t4,t4,0x10
80102fd4:	00188c48 	mtc2	t4,$3
80102fd8:	1c00a2c9 	lwc2	$2,28(t5)
80102fdc:	2400ac8d 	lw	t4,36(t5)
80102fe0:	2000a4c9 	lwc2	$4,32(t5)
80102fe4:	00288c48 	mtc2	t4,$5
80102fe8:	f0ff023c 	lui	v0,0xfff0
80102fec:	0000a38d 	lw	v1,0(t5)
80102ff0:	f0f04234 	ori	v0,v0,0xf0f0
80102ff4:	24106200 	and	v0,v1,v0
80102ff8:	d4ff02ad 	sw	v0,-44(t0)
80102ffc:	3000284a 	c2	0x280030
80103000:	00190300 	sll	v1,v1,0x4
80103004:	24186f00 	and	v1,v1,t7
80103008:	e0ff03ad 	sw	v1,-32(t0)
8010300c:	f4ff638d 	lw	v1,-12(t3)
80103010:	00f84c48 	cfc2	t4,$31
80103014:	00000000 	nop
80103018:	0000ccad 	sw	t4,0(t6)
8010301c:	0000c28d 	lw	v0,0(t6)
80103020:	00000000 	nop
80103024:	ae004004 	bltz	v0,0x801032e0
80103028:	00000000 	nop
8010302c:	0600404b 	c2	0x1400006
80103030:	f8ff628d 	lw	v0,-8(t3)
80103034:	00000000 	nop
80103038:	dcff02ad 	sw	v0,-36(t0)
8010303c:	0000d8e9 	swc2	$24,0(t6)
80103040:	0000c28d 	lw	v0,0(t6)
80103044:	00000000 	nop
80103048:	a5004018 	blez	v0,0x801032e0
8010304c:	00000000 	nop
80103050:	08004ce9 	swc2	$12,8(t2)
80103054:	14004de9 	swc2	$13,20(t2)
80103058:	20004ee9 	swc2	$14,32(t2)
8010305c:	2400ac8d 	lw	t4,36(t5)
80103060:	2800a0c9 	lwc2	$0,40(t5)
80103064:	02640c00 	srl	t4,t4,0x10
80103068:	00088c48 	mtc2	t4,$1
8010306c:	24106f00 	and	v0,v1,t7
80103070:	ecff02ad 	sw	v0,-20(t0)
80103074:	0100184a 	c2	0x180001
80103078:	00110300 	sll	v0,v1,0x4
8010307c:	24104f00 	and	v0,v0,t7
80103080:	f8ff02ad 	sw	v0,-8(t0)
80103084:	fcff628d 	lw	v0,-4(t3)
80103088:	00000000 	nop
8010308c:	e8ff02ad 	sw	v0,-24(t0)
80103090:	00f84c48 	cfc2	t4,$31
80103094:	00000000 	nop
80103098:	0000ccad 	sw	t4,0(t6)
8010309c:	0000c28d 	lw	v0,0(t6)
801030a0:	00000000 	nop
801030a4:	8e004004 	bltz	v0,0x801032e0
801030a8:	2c004225 	addiu	v0,t2,44
801030ac:	00004ee8 	swc2	$14,0(v0)
801030b0:	d8ff0295 	lhu	v0,-40(t0)
801030b4:	00000000 	nop
801030b8:	4001422c 	sltiu	v0,v0,320
801030bc:	10004014 	bnez	v0,0x80103100
801030c0:	00000000 	nop
801030c4:	e4ff0295 	lhu	v0,-28(t0)
801030c8:	00000000 	nop
801030cc:	4001422c 	sltiu	v0,v0,320
801030d0:	0b004014 	bnez	v0,0x80103100
801030d4:	00000000 	nop
801030d8:	f0ff0295 	lhu	v0,-16(t0)
801030dc:	00000000 	nop
801030e0:	4001422c 	sltiu	v0,v0,320
801030e4:	06004014 	bnez	v0,0x80103100
801030e8:	00000000 	nop
801030ec:	fcff0295 	lhu	v0,-4(t0)
801030f0:	00000000 	nop
801030f4:	4001422c 	sltiu	v0,v0,320
801030f8:	79004010 	beqz	v0,0x801032e0
801030fc:	00000000 	nop
80103100:	daff0295 	lhu	v0,-38(t0)
80103104:	00000000 	nop
80103108:	f000422c 	sltiu	v0,v0,240
8010310c:	10004014 	bnez	v0,0x80103150
80103110:	00000000 	nop
80103114:	e6ff0295 	lhu	v0,-26(t0)
80103118:	00000000 	nop
8010311c:	f000422c 	sltiu	v0,v0,240
80103120:	0b004014 	bnez	v0,0x80103150
80103124:	00000000 	nop
80103128:	f2ff0295 	lhu	v0,-14(t0)
8010312c:	00000000 	nop
80103130:	f000422c 	sltiu	v0,v0,240
80103134:	06004014 	bnez	v0,0x80103150
80103138:	00000000 	nop
8010313c:	feff0295 	lhu	v0,-2(t0)
80103140:	00000000 	nop
80103144:	f000422c 	sltiu	v0,v0,240
80103148:	65004010 	beqz	v0,0x801032e0
8010314c:	00000000 	nop
80103150:	021e0300 	srl	v1,v1,0x18
80103154:	01000224 	li	v0,1
80103158:	05006210 	beq	v1,v0,0x80103170
8010315c:	02000224 	li	v0,2
80103160:	1a006210 	beq	v1,v0,0x801031cc
80103164:	1000a227 	addiu	v0,sp,16
80103168:	76300408 	j	0x8010c1d8
8010316c:	00000000 	nop
80103170:	0000b0eb 	swc2	$16,0(sp)
80103174:	0400a227 	addiu	v0,sp,4
80103178:	000051e8 	swc2	$17,0(v0)
8010317c:	0800a227 	addiu	v0,sp,8
80103180:	000052e8 	swc2	$18,0(v0)
80103184:	0c00a227 	addiu	v0,sp,12
80103188:	000053e8 	swc2	$19,0(v0)
8010318c:	0400a78f 	lw	a3,4(sp)
80103190:	0000a38f 	lw	v1,0(sp)
80103194:	00000000 	nop
80103198:	2a10e300 	slt	v0,a3,v1
8010319c:	02004010 	beqz	v0,0x801031a8
801031a0:	00000000 	nop
801031a4:	21386000 	move	a3,v1
801031a8:	0c00a38f 	lw	v1,12(sp)
801031ac:	0800a48f 	lw	a0,8(sp)
801031b0:	00000000 	nop
801031b4:	2a106400 	slt	v0,v1,a0
801031b8:	1a004010 	beqz	v0,0x80103224
801031bc:	2a106700 	slt	v0,v1,a3
801031c0:	21188000 	move	v1,a0
801031c4:	70300408 	j	0x8010c1c0
801031c8:	2a106700 	slt	v0,v1,a3
801031cc:	000050e8 	swc2	$16,0(v0)
801031d0:	1400a227 	addiu	v0,sp,20
801031d4:	000051e8 	swc2	$17,0(v0)
801031d8:	1800a227 	addiu	v0,sp,24
801031dc:	000052e8 	swc2	$18,0(v0)
801031e0:	1c00a227 	addiu	v0,sp,28
801031e4:	000053e8 	swc2	$19,0(v0)
801031e8:	1400a78f 	lw	a3,20(sp)
801031ec:	1000a38f 	lw	v1,16(sp)
801031f0:	00000000 	nop
801031f4:	2a106700 	slt	v0,v1,a3
801031f8:	02004010 	beqz	v0,0x80103204
801031fc:	00000000 	nop
80103200:	21386000 	move	a3,v1
80103204:	1c00a38f 	lw	v1,28(sp)
80103208:	1800a48f 	lw	a0,24(sp)
8010320c:	00000000 	nop
80103210:	2a108300 	slt	v0,a0,v1
80103214:	03004010 	beqz	v0,0x80103224
80103218:	2a10e300 	slt	v0,a3,v1
8010321c:	21188000 	move	v1,a0
80103220:	2a10e300 	slt	v0,a3,v1
80103224:	03004010 	beqz	v0,0x80103234
80103228:	83100300 	sra	v0,v1,0x2
8010322c:	2118e000 	move	v1,a3
80103230:	83100300 	sra	v0,v1,0x2
80103234:	78300408 	j	0x8010c1e0
80103238:	000022ad 	sw	v0,0(t1)
8010323c:	2e00684b 	c2	0x168002e
80103240:	000027e9 	swc2	$7,0(t1)
80103244:	0000228d 	lw	v0,0(t1)
80103248:	00000000 	nop
8010324c:	8f014224 	addiu	v0,v0,399
80103250:	b701422c 	sltiu	v0,v0,439
80103254:	02004010 	beqz	v0,0x80103260
80103258:	28000224 	li	v0,40
8010325c:	000022ad 	sw	v0,0(t1)
80103260:	0000228d 	lw	v0,0(t1)
80103264:	00000000 	nop
80103268:	831a0200 	sra	v1,v0,0xa
8010326c:	07106200 	srav	v0,v0,v1
80103270:	401a0300 	sll	v1,v1,0x9
80103274:	21104300 	addu	v0,v0,v1
80103278:	000022ad 	sw	v0,0(t1)
8010327c:	fcff4224 	addiu	v0,v0,-4
80103280:	fc07422c 	sltiu	v0,v0,2044
80103284:	02004014 	bnez	v0,0x80103290
80103288:	ffff0224 	li	v0,-1
8010328c:	000022ad 	sw	v0,0(t1)
80103290:	0000228d 	lw	v0,0(t1)
80103294:	00000000 	nop
80103298:	11004004 	bltz	v0,0x801032e0
8010329c:	000c043c 	lui	a0,0xc00
801032a0:	0000628d 	lw	v0,0(t3)
801032a4:	00000000 	nop
801032a8:	f4ff02ad 	sw	v0,-12(t0)
801032ac:	02140200 	srl	v0,v0,0x10
801032b0:	000002ad 	sw	v0,0(t0)
801032b4:	0000228d 	lw	v0,0(t1)
801032b8:	00000000 	nop
801032bc:	80100200 	sll	v0,v0,0x2
801032c0:	2110a200 	addu	v0,a1,v0
801032c4:	0000438c 	lw	v1,0(v0)
801032c8:	00000000 	nop
801032cc:	25186400 	or	v1,v1,a0
801032d0:	000043ad 	sw	v1,0(t2)
801032d4:	00004aac 	sw	t2,0(v0)
801032d8:	34000825 	addiu	t0,t0,52
801032dc:	34004a25 	addiu	t2,t2,52
801032e0:	2c006b25 	addiu	t3,t3,44
801032e4:	2c00ad25 	addiu	t5,t5,44
801032e8:	2110c000 	move	v0,a2
801032ec:	35ff4014 	bnez	v0,0x80102fc4
801032f0:	ffffc624 	addiu	a2,a2,-1
801032f4:	0c80023c 	lui	v0,0x800c
801032f8:	44f54aac 	sw	t2,-2748(v0)
801032fc:	2110a001 	move	v0,t5
80103300:	0800e003 	jr	ra
80103304:	2000bd27 	addiu	sp,sp,32
80103308:	d8ffbd27 	addiu	sp,sp,-40
8010330c:	2400bfaf 	sw	ra,36(sp)
80103310:	2000b4af 	sw	s4,32(sp)
80103314:	1c00b3af 	sw	s3,28(sp)
80103318:	1800b2af 	sw	s2,24(sp)
8010331c:	1400b1af 	sw	s1,20(sp)
80103320:	1000b0af 	sw	s0,16(sp)
80103324:	06008290 	lbu	v0,6(a0)
80103328:	00000000 	nop
8010332c:	2e004010 	beqz	v0,0x801033e8
80103330:	10009124 	addiu	s1,a0,16
80103334:	40100200 	sll	v0,v0,0x1
80103338:	10004224 	addiu	v0,v0,16
8010333c:	21988200 	addu	s3,a0,v0
80103340:	0f80023c 	lui	v0,0x800f
80103344:	801f033c 	lui	v1,0x1f80
80103348:	f8006324 	addiu	v1,v1,248
8010334c:	c8d8528c 	lw	s2,-10040(v0)
80103350:	0c00948c 	lw	s4,12(a0)
80103354:	00006c8c 	lw	t4,0(v1)
80103358:	04006d8c 	lw	t5,4(v1)
8010335c:	0000cc48 	ctc2	t4,$0
80103360:	0008cd48 	ctc2	t5,$1
80103364:	08006c8c 	lw	t4,8(v1)
80103368:	0c006d8c 	lw	t5,12(v1)
8010336c:	10006e8c 	lw	t6,16(v1)
80103370:	0010cc48 	ctc2	t4,$2
80103374:	0018cd48 	ctc2	t5,$3
80103378:	0020ce48 	ctc2	t6,$4
8010337c:	801f033c 	lui	v1,0x1f80
80103380:	f8006324 	addiu	v1,v1,248
80103384:	14006c8c 	lw	t4,20(v1)
80103388:	18006d8c 	lw	t5,24(v1)
8010338c:	0028cc48 	ctc2	t4,$5
80103390:	1c006e8c 	lw	t6,28(v1)
80103394:	0030cd48 	ctc2	t5,$6
80103398:	0038ce48 	ctc2	t6,$7
8010339c:	2b103302 	sltu	v0,s1,s3
801033a0:	11004010 	beqz	v0,0x801033e8
801033a4:	21284002 	move	a1,s2
801033a8:	00002496 	lhu	a0,0(s1)
801033ac:	02003126 	addiu	s1,s1,2
801033b0:	80200400 	sll	a0,a0,0x2
801033b4:	21208402 	addu	a0,s4,a0
801033b8:	0000908c 	lw	s0,0(a0)
801033bc:	04008424 	addiu	a0,a0,4
801033c0:	102f040c 	jal	0x8010bc40
801033c4:	ff000632 	andi	a2,s0,0xff
801033c8:	02841000 	srl	s0,s0,0x10
801033cc:	21204000 	move	a0,v0
801033d0:	21284002 	move	a1,s2
801033d4:	ca2f040c 	jal	0x8010bf28
801033d8:	ff000632 	andi	a2,s0,0xff
801033dc:	2b103302 	sltu	v0,s1,s3
801033e0:	f1ff4014 	bnez	v0,0x801033a8
801033e4:	21284002 	move	a1,s2
801033e8:	2400bf8f 	lw	ra,36(sp)
801033ec:	2000b48f 	lw	s4,32(sp)
801033f0:	1c00b38f 	lw	s3,28(sp)
801033f4:	1800b28f 	lw	s2,24(sp)
801033f8:	1400b18f 	lw	s1,20(sp)
801033fc:	1000b08f 	lw	s0,16(sp)
80103400:	0800e003 	jr	ra
80103404:	2800bd27 	addiu	sp,sp,40
80103408:	f0ffbd27 	addiu	sp,sp,-16
8010340c:	21688000 	move	t5,a0
80103410:	801f093c 	lui	t1,0x1f80
80103414:	04002935 	ori	t1,t1,0x4
80103418:	0c80023c 	lui	v0,0x800c
8010341c:	44f54a8c 	lw	t2,-2748(v0)
80103420:	2110c000 	move	v0,a2
80103424:	ffffc624 	addiu	a2,a2,-1
80103428:	a2004010 	beqz	v0,0x801036b4
8010342c:	801f0e3c 	lui	t6,0x1f80
80103430:	f0000f3c 	lui	t7,0xf0
80103434:	f0f0ef35 	ori	t7,t7,0xf0f0
80103438:	22008b24 	addiu	t3,a0,34
8010343c:	24004825 	addiu	t0,t2,36
80103440:	1000a0c9 	lwc2	$0,16(t5)
80103444:	1400ac8d 	lw	t4,20(t5)
80103448:	1800a2c9 	lwc2	$2,24(t5)
8010344c:	00088c48 	mtc2	t4,$1
80103450:	1c00a4c9 	lwc2	$4,28(t5)
80103454:	02640c00 	srl	t4,t4,0x10
80103458:	00188c48 	mtc2	t4,$3
8010345c:	2000a5c9 	lwc2	$5,32(t5)
80103460:	0000a28d 	lw	v0,0(t5)
80103464:	00000000 	nop
80103468:	e0ff02ad 	sw	v0,-32(t0)
8010346c:	3000284a 	c2	0x280030
80103470:	e6ff628d 	lw	v0,-26(t3)
80103474:	00000000 	nop
80103478:	e8ff02ad 	sw	v0,-24(t0)
8010347c:	eaff628d 	lw	v0,-22(t3)
80103480:	00000000 	nop
80103484:	f4ff02ad 	sw	v0,-12(t0)
80103488:	e2ff638d 	lw	v1,-30(t3)
8010348c:	00f84c48 	cfc2	t4,$31
80103490:	00000000 	nop
80103494:	0000ccad 	sw	t4,0(t6)
80103498:	0000c28d 	lw	v0,0(t6)
8010349c:	00000000 	nop
801034a0:	7f004004 	bltz	v0,0x801036a0
801034a4:	00000000 	nop
801034a8:	0600404b 	c2	0x1400006
801034ac:	24106f00 	and	v0,v1,t7
801034b0:	ecff02ad 	sw	v0,-20(t0)
801034b4:	0000d8e9 	swc2	$24,0(t6)
801034b8:	0000c28d 	lw	v0,0(t6)
801034bc:	00000000 	nop
801034c0:	77004018 	blez	v0,0x801036a0
801034c4:	00000000 	nop
801034c8:	08004ce9 	swc2	$12,8(t2)
801034cc:	14004de9 	swc2	$13,20(t2)
801034d0:	20004ee9 	swc2	$14,32(t2)
801034d4:	e4ff0295 	lhu	v0,-28(t0)
801034d8:	00000000 	nop
801034dc:	4001422c 	sltiu	v0,v0,320
801034e0:	0b004014 	bnez	v0,0x80103510
801034e4:	00000000 	nop
801034e8:	f0ff0295 	lhu	v0,-16(t0)
801034ec:	00000000 	nop
801034f0:	4001422c 	sltiu	v0,v0,320
801034f4:	06004014 	bnez	v0,0x80103510
801034f8:	00000000 	nop
801034fc:	fcff0295 	lhu	v0,-4(t0)
80103500:	00000000 	nop
80103504:	4001422c 	sltiu	v0,v0,320
80103508:	65004010 	beqz	v0,0x801036a0
8010350c:	00000000 	nop
80103510:	e6ff0295 	lhu	v0,-26(t0)
80103514:	00000000 	nop
80103518:	f000422c 	sltiu	v0,v0,240
8010351c:	0b004014 	bnez	v0,0x8010354c
80103520:	00110300 	sll	v0,v1,0x4
80103524:	f2ff0295 	lhu	v0,-14(t0)
80103528:	00000000 	nop
8010352c:	f000422c 	sltiu	v0,v0,240
80103530:	06004014 	bnez	v0,0x8010354c
80103534:	00110300 	sll	v0,v1,0x4
80103538:	feff0295 	lhu	v0,-2(t0)
8010353c:	00000000 	nop
80103540:	f000422c 	sltiu	v0,v0,240
80103544:	56004010 	beqz	v0,0x801036a0
80103548:	00110300 	sll	v0,v1,0x4
8010354c:	24104f00 	and	v0,v0,t7
80103550:	021e0300 	srl	v1,v1,0x18
80103554:	2b006010 	beqz	v1,0x80103604
80103558:	f8ff02ad 	sw	v0,-8(t0)
8010355c:	0000b1eb 	swc2	$17,0(sp)
80103560:	0400a227 	addiu	v0,sp,4
80103564:	000052e8 	swc2	$18,0(v0)
80103568:	0800a227 	addiu	v0,sp,8
8010356c:	000053e8 	swc2	$19,0(v0)
80103570:	01000224 	li	v0,1
80103574:	11006214 	bne	v1,v0,0x801035bc
80103578:	00000000 	nop
8010357c:	0000a78f 	lw	a3,0(sp)
80103580:	0400a48f 	lw	a0,4(sp)
80103584:	00000000 	nop
80103588:	2a108700 	slt	v0,a0,a3
8010358c:	08004010 	beqz	v0,0x801035b0
80103590:	00000000 	nop
80103594:	0800a38f 	lw	v1,8(sp)
80103598:	00000000 	nop
8010359c:	2a106700 	slt	v0,v1,a3
801035a0:	16004010 	beqz	v0,0x801035fc
801035a4:	83100300 	sra	v0,v1,0x2
801035a8:	65310408 	j	0x8010c594
801035ac:	2118e000 	move	v1,a3
801035b0:	0800a38f 	lw	v1,8(sp)
801035b4:	62310408 	j	0x8010c588
801035b8:	2a106400 	slt	v0,v1,a0
801035bc:	0000a78f 	lw	a3,0(sp)
801035c0:	0400a48f 	lw	a0,4(sp)
801035c4:	00000000 	nop
801035c8:	2a10e400 	slt	v0,a3,a0
801035cc:	04004010 	beqz	v0,0x801035e0
801035d0:	00000000 	nop
801035d4:	0800a38f 	lw	v1,8(sp)
801035d8:	4f310408 	j	0x8010c53c
801035dc:	2a10e300 	slt	v0,a3,v1
801035e0:	0800a38f 	lw	v1,8(sp)
801035e4:	00000000 	nop
801035e8:	2a108300 	slt	v0,a0,v1
801035ec:	03004010 	beqz	v0,0x801035fc
801035f0:	83100300 	sra	v0,v1,0x2
801035f4:	21188000 	move	v1,a0
801035f8:	83100300 	sra	v0,v1,0x2
801035fc:	6a310408 	j	0x8010c5a8
80103600:	000022ad 	sw	v0,0(t1)
80103604:	2d00584b 	c2	0x158002d
80103608:	000027e9 	swc2	$7,0(t1)
8010360c:	0000228d 	lw	v0,0(t1)
80103610:	00000000 	nop
80103614:	8f014224 	addiu	v0,v0,399
80103618:	b701422c 	sltiu	v0,v0,439
8010361c:	02004010 	beqz	v0,0x80103628
80103620:	28000224 	li	v0,40
80103624:	000022ad 	sw	v0,0(t1)
80103628:	0000228d 	lw	v0,0(t1)
8010362c:	00000000 	nop
80103630:	831a0200 	sra	v1,v0,0xa
80103634:	07106200 	srav	v0,v0,v1
80103638:	401a0300 	sll	v1,v1,0x9
8010363c:	21104300 	addu	v0,v0,v1
80103640:	000022ad 	sw	v0,0(t1)
80103644:	fcff4224 	addiu	v0,v0,-4
80103648:	fc07422c 	sltiu	v0,v0,2044
8010364c:	02004014 	bnez	v0,0x80103658
80103650:	ffff0224 	li	v0,-1
80103654:	000022ad 	sw	v0,0(t1)
80103658:	0000228d 	lw	v0,0(t1)
8010365c:	00000000 	nop
80103660:	0f004004 	bltz	v0,0x801036a0
80103664:	0009043c 	lui	a0,0x900
80103668:	00006295 	lhu	v0,0(t3)
8010366c:	00000000 	nop
80103670:	000002a5 	sh	v0,0(t0)
80103674:	0000228d 	lw	v0,0(t1)
80103678:	00000000 	nop
8010367c:	80100200 	sll	v0,v0,0x2
80103680:	2110a200 	addu	v0,a1,v0
80103684:	0000438c 	lw	v1,0(v0)
80103688:	00000000 	nop
8010368c:	25186400 	or	v1,v1,a0
80103690:	000043ad 	sw	v1,0(t2)
80103694:	00004aac 	sw	t2,0(v0)
80103698:	28000825 	addiu	t0,t0,40
8010369c:	28004a25 	addiu	t2,t2,40
801036a0:	24006b25 	addiu	t3,t3,36
801036a4:	2400ad25 	addiu	t5,t5,36
801036a8:	2110c000 	move	v0,a2
801036ac:	64ff4014 	bnez	v0,0x80103440
801036b0:	ffffc624 	addiu	a2,a2,-1
801036b4:	0c80023c 	lui	v0,0x800c
801036b8:	44f54aac 	sw	t2,-2748(v0)
801036bc:	2110a001 	move	v0,t5
801036c0:	0800e003 	jr	ra
801036c4:	1000bd27 	addiu	sp,sp,16
801036c8:	f0ffbd27 	addiu	sp,sp,-16
801036cc:	21688000 	move	t5,a0
801036d0:	801f093c 	lui	t1,0x1f80
801036d4:	04002935 	ori	t1,t1,0x4
801036d8:	0c80023c 	lui	v0,0x800c
801036dc:	44f54a8c 	lw	t2,-2748(v0)
801036e0:	2110c000 	move	v0,a2
801036e4:	ffffc624 	addiu	a2,a2,-1
801036e8:	c6004010 	beqz	v0,0x80103a04
801036ec:	801f0e3c 	lui	t6,0x1f80
801036f0:	f0000f3c 	lui	t7,0xf0
801036f4:	f0f0ef35 	ori	t7,t7,0xf0f0
801036f8:	10008b24 	addiu	t3,a0,16
801036fc:	30004825 	addiu	t0,t2,48
80103700:	1800ac8d 	lw	t4,24(t5)
80103704:	1400a0c9 	lwc2	$0,20(t5)
80103708:	00088c48 	mtc2	t4,$1
8010370c:	02640c00 	srl	t4,t4,0x10
80103710:	00188c48 	mtc2	t4,$3
80103714:	1c00a2c9 	lwc2	$2,28(t5)
80103718:	2400ac8d 	lw	t4,36(t5)
8010371c:	2000a4c9 	lwc2	$4,32(t5)
80103720:	00288c48 	mtc2	t4,$5
80103724:	f0ff023c 	lui	v0,0xfff0
80103728:	0000a38d 	lw	v1,0(t5)
8010372c:	f0f04234 	ori	v0,v0,0xf0f0
80103730:	24106200 	and	v0,v1,v0
80103734:	d4ff02ad 	sw	v0,-44(t0)
80103738:	3000284a 	c2	0x280030
8010373c:	00110300 	sll	v0,v1,0x4
80103740:	24104f00 	and	v0,v0,t7
80103744:	e0ff02ad 	sw	v0,-32(t0)
80103748:	f4ff638d 	lw	v1,-12(t3)
8010374c:	00f84c48 	cfc2	t4,$31
80103750:	00000000 	nop
80103754:	0000ccad 	sw	t4,0(t6)
80103758:	0000c28d 	lw	v0,0(t6)
8010375c:	00000000 	nop
80103760:	a3004004 	bltz	v0,0x801039f0
80103764:	00000000 	nop
80103768:	0600404b 	c2	0x1400006
8010376c:	f8ff628d 	lw	v0,-8(t3)
80103770:	00000000 	nop
80103774:	dcff02ad 	sw	v0,-36(t0)
80103778:	0000d8e9 	swc2	$24,0(t6)
8010377c:	0000c28d 	lw	v0,0(t6)
80103780:	00000000 	nop
80103784:	9a004018 	blez	v0,0x801039f0
80103788:	00000000 	nop
8010378c:	08004ce9 	swc2	$12,8(t2)
80103790:	14004de9 	swc2	$13,20(t2)
80103794:	20004ee9 	swc2	$14,32(t2)
80103798:	2400ac8d 	lw	t4,36(t5)
8010379c:	2800a0c9 	lwc2	$0,40(t5)
801037a0:	02640c00 	srl	t4,t4,0x10
801037a4:	00088c48 	mtc2	t4,$1
801037a8:	24106f00 	and	v0,v1,t7
801037ac:	ecff02ad 	sw	v0,-20(t0)
801037b0:	0100184a 	c2	0x180001
801037b4:	00110300 	sll	v0,v1,0x4
801037b8:	24104f00 	and	v0,v0,t7
801037bc:	f8ff02ad 	sw	v0,-8(t0)
801037c0:	fcff628d 	lw	v0,-4(t3)
801037c4:	00000000 	nop
801037c8:	e8ff02ad 	sw	v0,-24(t0)
801037cc:	00f84c48 	cfc2	t4,$31
801037d0:	00000000 	nop
801037d4:	0000ccad 	sw	t4,0(t6)
801037d8:	0000c28d 	lw	v0,0(t6)
801037dc:	00000000 	nop
801037e0:	83004004 	bltz	v0,0x801039f0
801037e4:	2c004225 	addiu	v0,t2,44
801037e8:	00004ee8 	swc2	$14,0(v0)
801037ec:	d8ff0295 	lhu	v0,-40(t0)
801037f0:	00000000 	nop
801037f4:	4001422c 	sltiu	v0,v0,320
801037f8:	10004014 	bnez	v0,0x8010383c
801037fc:	00000000 	nop
80103800:	e4ff0295 	lhu	v0,-28(t0)
80103804:	00000000 	nop
80103808:	4001422c 	sltiu	v0,v0,320
8010380c:	0b004014 	bnez	v0,0x8010383c
80103810:	00000000 	nop
80103814:	f0ff0295 	lhu	v0,-16(t0)
80103818:	00000000 	nop
8010381c:	4001422c 	sltiu	v0,v0,320
80103820:	06004014 	bnez	v0,0x8010383c
80103824:	00000000 	nop
80103828:	fcff0295 	lhu	v0,-4(t0)
8010382c:	00000000 	nop
80103830:	4001422c 	sltiu	v0,v0,320
80103834:	6e004010 	beqz	v0,0x801039f0
80103838:	00000000 	nop
8010383c:	daff0295 	lhu	v0,-38(t0)
80103840:	00000000 	nop
80103844:	f000422c 	sltiu	v0,v0,240
80103848:	10004014 	bnez	v0,0x8010388c
8010384c:	00000000 	nop
80103850:	e6ff0295 	lhu	v0,-26(t0)
80103854:	00000000 	nop
80103858:	f000422c 	sltiu	v0,v0,240
8010385c:	0b004014 	bnez	v0,0x8010388c
80103860:	00000000 	nop
80103864:	f2ff0295 	lhu	v0,-14(t0)
80103868:	00000000 	nop
8010386c:	f000422c 	sltiu	v0,v0,240
80103870:	06004014 	bnez	v0,0x8010388c
80103874:	00000000 	nop
80103878:	feff0295 	lhu	v0,-2(t0)
8010387c:	00000000 	nop
80103880:	f000422c 	sltiu	v0,v0,240
80103884:	5a004010 	beqz	v0,0x801039f0
80103888:	00000000 	nop
8010388c:	fcff628d 	lw	v0,-4(t3)
80103890:	021e0300 	srl	v1,v1,0x18
80103894:	30006010 	beqz	v1,0x80103958
80103898:	e8ff02ad 	sw	v0,-24(t0)
8010389c:	0000b0eb 	swc2	$16,0(sp)
801038a0:	0400a227 	addiu	v0,sp,4
801038a4:	000051e8 	swc2	$17,0(v0)
801038a8:	0800a227 	addiu	v0,sp,8
801038ac:	000052e8 	swc2	$18,0(v0)
801038b0:	0c00a227 	addiu	v0,sp,12
801038b4:	000053e8 	swc2	$19,0(v0)
801038b8:	01000224 	li	v0,1
801038bc:	11006214 	bne	v1,v0,0x80103904
801038c0:	00000000 	nop
801038c4:	0400a78f 	lw	a3,4(sp)
801038c8:	0000a38f 	lw	v1,0(sp)
801038cc:	00000000 	nop
801038d0:	2a10e300 	slt	v0,a3,v1
801038d4:	02004010 	beqz	v0,0x801038e0
801038d8:	00000000 	nop
801038dc:	21386000 	move	a3,v1
801038e0:	0c00a38f 	lw	v1,12(sp)
801038e4:	0800a48f 	lw	a0,8(sp)
801038e8:	00000000 	nop
801038ec:	2a106400 	slt	v0,v1,a0
801038f0:	13004010 	beqz	v0,0x80103940
801038f4:	2a106700 	slt	v0,v1,a3
801038f8:	21188000 	move	v1,a0
801038fc:	37320408 	j	0x8010c8dc
80103900:	2a106700 	slt	v0,v1,a3
80103904:	0400a78f 	lw	a3,4(sp)
80103908:	0000a38f 	lw	v1,0(sp)
8010390c:	00000000 	nop
80103910:	2a106700 	slt	v0,v1,a3
80103914:	02004010 	beqz	v0,0x80103920
80103918:	00000000 	nop
8010391c:	21386000 	move	a3,v1
80103920:	0c00a38f 	lw	v1,12(sp)
80103924:	0800a48f 	lw	a0,8(sp)
80103928:	00000000 	nop
8010392c:	2a108300 	slt	v0,a0,v1
80103930:	03004010 	beqz	v0,0x80103940
80103934:	2a10e300 	slt	v0,a3,v1
80103938:	21188000 	move	v1,a0
8010393c:	2a10e300 	slt	v0,a3,v1
80103940:	03004010 	beqz	v0,0x80103950
80103944:	83100300 	sra	v0,v1,0x2
80103948:	2118e000 	move	v1,a3
8010394c:	83100300 	sra	v0,v1,0x2
80103950:	63320408 	j	0x8010c98c
80103954:	000022ad 	sw	v0,0(t1)
80103958:	2e00684b 	c2	0x168002e
8010395c:	000027e9 	swc2	$7,0(t1)
80103960:	0000228d 	lw	v0,0(t1)
80103964:	00000000 	nop
80103968:	8f014224 	addiu	v0,v0,399
8010396c:	b701422c 	sltiu	v0,v0,439
80103970:	02004010 	beqz	v0,0x8010397c
80103974:	28000224 	li	v0,40
80103978:	000022ad 	sw	v0,0(t1)
8010397c:	0000228d 	lw	v0,0(t1)
80103980:	00000000 	nop
80103984:	831a0200 	sra	v1,v0,0xa
80103988:	07106200 	srav	v0,v0,v1
8010398c:	401a0300 	sll	v1,v1,0x9
80103990:	21104300 	addu	v0,v0,v1
80103994:	000022ad 	sw	v0,0(t1)
80103998:	fcff4224 	addiu	v0,v0,-4
8010399c:	fc07422c 	sltiu	v0,v0,2044
801039a0:	02004014 	bnez	v0,0x801039ac
801039a4:	ffff0224 	li	v0,-1
801039a8:	000022ad 	sw	v0,0(t1)
801039ac:	0000248d 	lw	a0,0(t1)
801039b0:	00000000 	nop
801039b4:	0e008004 	bltz	a0,0x801039f0
801039b8:	80200400 	sll	a0,a0,0x2
801039bc:	2120a400 	addu	a0,a1,a0
801039c0:	0000828c 	lw	v0,0(a0)
801039c4:	000c033c 	lui	v1,0xc00
801039c8:	25104300 	or	v0,v0,v1
801039cc:	000042ad 	sw	v0,0(t2)
801039d0:	00008aac 	sw	t2,0(a0)
801039d4:	0000628d 	lw	v0,0(t3)
801039d8:	00000000 	nop
801039dc:	f4ff02ad 	sw	v0,-12(t0)
801039e0:	02140200 	srl	v0,v0,0x10
801039e4:	000002ad 	sw	v0,0(t0)
801039e8:	34000825 	addiu	t0,t0,52
801039ec:	34004a25 	addiu	t2,t2,52
801039f0:	2c006b25 	addiu	t3,t3,44
801039f4:	2c00ad25 	addiu	t5,t5,44
801039f8:	2110c000 	move	v0,a2
801039fc:	40ff4014 	bnez	v0,0x80103700
80103a00:	ffffc624 	addiu	a2,a2,-1
80103a04:	0c80023c 	lui	v0,0x800c
80103a08:	44f54aac 	sw	t2,-2748(v0)
80103a0c:	2110a001 	move	v0,t5
80103a10:	0800e003 	jr	ra
80103a14:	1000bd27 	addiu	sp,sp,16
80103a18:	e0ffbd27 	addiu	sp,sp,-32
80103a1c:	1400b1af 	sw	s1,20(sp)
80103a20:	2188a000 	move	s1,a1
80103a24:	1800bfaf 	sw	ra,24(sp)
80103a28:	1000b0af 	sw	s0,16(sp)
80103a2c:	0000908c 	lw	s0,0(a0)
80103a30:	10008424 	addiu	a0,a0,16
80103a34:	e930040c 	jal	0x8010c3a4
80103a38:	ffff0632 	andi	a2,s0,0xffff
80103a3c:	21204000 	move	a0,v0
80103a40:	21282002 	move	a1,s1
80103a44:	9931040c 	jal	0x8010c664
80103a48:	02341000 	srl	a2,s0,0x10
80103a4c:	1800bf8f 	lw	ra,24(sp)
80103a50:	1400b18f 	lw	s1,20(sp)
80103a54:	1000b08f 	lw	s0,16(sp)
80103a58:	0800e003 	jr	ra
80103a5c:	2000bd27 	addiu	sp,sp,32
80103a60:	c0ffbd27 	addiu	sp,sp,-64
80103a64:	3400b3af 	sw	s3,52(sp)
80103a68:	21988000 	move	s3,a0
80103a6c:	2800b0af 	sw	s0,40(sp)
80103a70:	801f103c 	lui	s0,0x1f80
80103a74:	d0001026 	addiu	s0,s0,208
80103a78:	3000b2af 	sw	s2,48(sp)
80103a7c:	0a80123c 	lui	s2,0x800a
80103a80:	802f0324 	li	v1,12160
80103a84:	3c00bfaf 	sw	ra,60(sp)
80103a88:	3800b4af 	sw	s4,56(sp)
80103a8c:	2c00b1af 	sw	s1,44(sp)
80103a90:	22000296 	lhu	v0,34(s0)
80103a94:	0a80113c 	lui	s1,0x800a
80103a98:	903f43ae 	sw	v1,16272(s2)
80103a9c:	943f238e 	lw	v1,16276(s1)
80103aa0:	00140200 	sll	v0,v0,0x10
80103aa4:	03140200 	sra	v0,v0,0x10
80103aa8:	23100200 	negu	v0,v0
80103aac:	23104300 	subu	v0,v0,v1
80103ab0:	ff0f5430 	andi	s4,v0,0xfff
80103ab4:	02000296 	lhu	v0,2(s0)
80103ab8:	0a000396 	lhu	v1,10(s0)
80103abc:	21208002 	move	a0,s4
80103ac0:	1000a2a7 	sh	v0,16(sp)
80103ac4:	a00f020c 	jal	0x80083e80
80103ac8:	1200a3a7 	sh	v1,18(sp)
80103acc:	903f438e 	lw	v1,16272(s2)
80103ad0:	00000000 	nop
80103ad4:	18004300 	mult	v0,v1
80103ad8:	21208002 	move	a0,s4
80103adc:	1000a297 	lhu	v0,16(sp)
80103ae0:	12180000 	mflo	v1
80103ae4:	031b0300 	sra	v1,v1,0xc
80103ae8:	21104300 	addu	v0,v0,v1
80103aec:	d40f020c 	jal	0x80083f50
80103af0:	1800a2a7 	sh	v0,24(sp)
80103af4:	903f438e 	lw	v1,16272(s2)
80103af8:	00000000 	nop
80103afc:	18004300 	mult	v0,v1
80103b00:	22000386 	lh	v1,34(s0)
80103b04:	943f228e 	lw	v0,16276(s1)
80103b08:	00000000 	nop
80103b0c:	23104300 	subu	v0,v0,v1
80103b10:	ff0f5430 	andi	s4,v0,0xfff
80103b14:	21208002 	move	a0,s4
80103b18:	1200a297 	lhu	v0,18(sp)
80103b1c:	12400000 	mflo	t0
80103b20:	031b0800 	sra	v1,t0,0xc
80103b24:	21104300 	addu	v0,v0,v1
80103b28:	a00f020c 	jal	0x80083e80
80103b2c:	1a00a2a7 	sh	v0,26(sp)
80103b30:	903f438e 	lw	v1,16272(s2)
80103b34:	00000000 	nop
80103b38:	18004300 	mult	v0,v1
80103b3c:	21208002 	move	a0,s4
80103b40:	1000a297 	lhu	v0,16(sp)
80103b44:	12180000 	mflo	v1
80103b48:	031b0300 	sra	v1,v1,0xc
80103b4c:	21104300 	addu	v0,v0,v1
80103b50:	d40f020c 	jal	0x80083f50
80103b54:	2000a2a7 	sh	v0,32(sp)
80103b58:	903f438e 	lw	v1,16272(s2)
80103b5c:	00000000 	nop
80103b60:	18004300 	mult	v0,v1
80103b64:	20000486 	lh	a0,32(s0)
80103b68:	1200a297 	lhu	v0,18(sp)
80103b6c:	12180000 	mflo	v1
80103b70:	031b0300 	sra	v1,v1,0xc
80103b74:	21104300 	addu	v0,v0,v1
80103b78:	a00f020c 	jal	0x80083e80
80103b7c:	2200a2a7 	sh	v0,34(sp)
80103b80:	22000486 	lh	a0,34(s0)
80103b84:	02004104 	bgez	v0,0x80103b90
80103b88:	21884000 	move	s1,v0
80103b8c:	23881100 	negu	s1,s1
80103b90:	a00f020c 	jal	0x80083e80
80103b94:	23200400 	negu	a0,a0
80103b98:	18005100 	mult	v0,s1
80103b9c:	22000486 	lh	a0,34(s0)
80103ba0:	00000000 	nop
80103ba4:	23200400 	negu	a0,a0
80103ba8:	12180000 	mflo	v1
80103bac:	d40f020c 	jal	0x80083f50
80103bb0:	03830300 	sra	s0,v1,0xc
80103bb4:	18005100 	mult	v0,s1
80103bb8:	12400000 	mflo	t0
80103bbc:	903f438e 	lw	v1,16272(s2)
80103bc0:	00000000 	nop
80103bc4:	18000302 	mult	s0,v1
80103bc8:	12200000 	mflo	a0
80103bcc:	036b0800 	sra	t5,t0,0xc
80103bd0:	00000000 	nop
80103bd4:	1800a301 	mult	t5,v1
80103bd8:	66660b3c 	lui	t3,0x6666
80103bdc:	67666b35 	ori	t3,t3,0x6667
80103be0:	1000a697 	lhu	a2,16(sp)
80103be4:	80100400 	sll	v0,a0,0x2
80103be8:	21104400 	addu	v0,v0,a0
80103bec:	03840200 	sra	s0,v0,0x10
80103bf0:	2330d000 	subu	a2,a2,s0
80103bf4:	12180000 	mflo	v1
80103bf8:	00540600 	sll	t2,a2,0x10
80103bfc:	03140a00 	sra	v0,t2,0x10
80103c00:	18004b00 	mult	v0,t3
80103c04:	1200a797 	lhu	a3,18(sp)
80103c08:	80100300 	sll	v0,v1,0x2
80103c0c:	21104300 	addu	v0,v0,v1
80103c10:	036c0200 	sra	t5,v0,0x10
80103c14:	2338ed00 	subu	a3,a3,t5
80103c18:	10780000 	mfhi	t7
80103c1c:	00640700 	sll	t4,a3,0x10
80103c20:	03140c00 	sra	v0,t4,0x10
80103c24:	18004b00 	mult	v0,t3
80103c28:	1800a397 	lhu	v1,24(sp)
80103c2c:	00000000 	nop
80103c30:	23187000 	subu	v1,v1,s0
80103c34:	10880000 	mfhi	s1
80103c38:	00440300 	sll	t0,v1,0x10
80103c3c:	03140800 	sra	v0,t0,0x10
80103c40:	18004b00 	mult	v0,t3
80103c44:	2000a597 	lhu	a1,32(sp)
80103c48:	21206002 	move	a0,s3
80103c4c:	2328b000 	subu	a1,a1,s0
80103c50:	10700000 	mfhi	t6
80103c54:	004c0500 	sll	t1,a1,0x10
80103c58:	03140900 	sra	v0,t1,0x10
80103c5c:	18004b00 	mult	v0,t3
80103c60:	2000a5a7 	sh	a1,32(sp)
80103c64:	1a00a597 	lhu	a1,26(sp)
80103c68:	c3570a00 	sra	t2,t2,0x1f
80103c6c:	1000a6a7 	sh	a2,16(sp)
80103c70:	2200a697 	lhu	a2,34(sp)
80103c74:	2328ad00 	subu	a1,a1,t5
80103c78:	2330cd00 	subu	a2,a2,t5
80103c7c:	1a00a5a7 	sh	a1,26(sp)
80103c80:	002c0500 	sll	a1,a1,0x10
80103c84:	2200a6a7 	sh	a2,34(sp)
80103c88:	1800a3a7 	sh	v1,24(sp)
80103c8c:	10180000 	mfhi	v1
80103c90:	00340600 	sll	a2,a2,0x10
80103c94:	03140500 	sra	v0,a1,0x10
80103c98:	18004b00 	mult	v0,t3
80103c9c:	c3670c00 	sra	t4,t4,0x1f
80103ca0:	1200a7a7 	sh	a3,18(sp)
80103ca4:	c3470800 	sra	t0,t0,0x1f
80103ca8:	c34f0900 	sra	t1,t1,0x1f
80103cac:	c32f0500 	sra	a1,a1,0x1f
80103cb0:	03120f00 	sra	v0,t7,0x8
80103cb4:	23104a00 	subu	v0,v0,t2
80103cb8:	1000a2a7 	sh	v0,16(sp)
80103cbc:	03120e00 	sra	v0,t6,0x8
80103cc0:	23104800 	subu	v0,v0,t0
80103cc4:	031a0300 	sra	v1,v1,0x8
80103cc8:	10380000 	mfhi	a3
80103ccc:	1800a2a7 	sh	v0,24(sp)
80103cd0:	03140600 	sra	v0,a2,0x10
80103cd4:	18004b00 	mult	v0,t3
80103cd8:	23186900 	subu	v1,v1,t1
80103cdc:	c3370600 	sra	a2,a2,0x1f
80103ce0:	2000a3a7 	sh	v1,32(sp)
80103ce4:	03121100 	sra	v0,s1,0x8
80103ce8:	23104c00 	subu	v0,v0,t4
80103cec:	1200a2a7 	sh	v0,18(sp)
80103cf0:	03120700 	sra	v0,a3,0x8
80103cf4:	23104500 	subu	v0,v0,a1
80103cf8:	1000a527 	addiu	a1,sp,16
80103cfc:	2000a727 	addiu	a3,sp,32
80103d00:	1a00a2a7 	sh	v0,26(sp)
80103d04:	10400000 	mfhi	t0
80103d08:	03120800 	sra	v0,t0,0x8
80103d0c:	23104600 	subu	v0,v0,a2
80103d10:	1800a627 	addiu	a2,sp,24
80103d14:	2200a2a7 	sh	v0,34(sp)
80103d18:	3733040c 	jal	0x8010ccdc
80103d1c:	060080a0 	sb	zero,6(a0)
80103d20:	3c00bf8f 	lw	ra,60(sp)
80103d24:	3800b48f 	lw	s4,56(sp)
80103d28:	3400b38f 	lw	s3,52(sp)
80103d2c:	3000b28f 	lw	s2,48(sp)
80103d30:	2c00b18f 	lw	s1,44(sp)
80103d34:	2800b08f 	lw	s0,40(sp)
80103d38:	0800e003 	jr	ra
80103d3c:	4000bd27 	addiu	sp,sp,64
80103d40:	f8ffbd27 	addiu	sp,sp,-8
80103d44:	0400b1af 	sw	s1,4(sp)
80103d48:	0000b0af 	sw	s0,0(sp)
80103d4c:	0000a384 	lh	v1,0(a1)
80103d50:	0200a584 	lh	a1,2(a1)
80103d54:	0000c884 	lh	t0,0(a2)
80103d58:	0200cc84 	lh	t4,2(a2)
80103d5c:	0000e984 	lh	t1,0(a3)
80103d60:	0200ed84 	lh	t5,2(a3)
80103d64:	03008515 	bne	t4,a1,0x80103d74
80103d68:	2a108501 	slt	v0,t4,a1
80103d6c:	40018d11 	beq	t4,t5,0x80104270
80103d70:	00000000 	nop
80103d74:	06004010 	beqz	v0,0x80103d90
80103d78:	21106000 	move	v0,v1
80103d7c:	21180001 	move	v1,t0
80103d80:	21404000 	move	t0,v0
80103d84:	2110a000 	move	v0,a1
80103d88:	21288001 	move	a1,t4
80103d8c:	21604000 	move	t4,v0
80103d90:	2a10a501 	slt	v0,t5,a1
80103d94:	06004010 	beqz	v0,0x80103db0
80103d98:	21106000 	move	v0,v1
80103d9c:	21182001 	move	v1,t1
80103da0:	21484000 	move	t1,v0
80103da4:	2110a000 	move	v0,a1
80103da8:	2128a001 	move	a1,t5
80103dac:	21684000 	move	t5,v0
80103db0:	2a10ac01 	slt	v0,t5,t4
80103db4:	06004010 	beqz	v0,0x80103dd0
80103db8:	21100001 	move	v0,t0
80103dbc:	21402001 	move	t0,t1
80103dc0:	21484000 	move	t1,v0
80103dc4:	21108001 	move	v0,t4
80103dc8:	2160a001 	move	t4,t5
80103dcc:	21684000 	move	t5,v0
80103dd0:	23700301 	subu	t6,t0,v1
80103dd4:	23c02301 	subu	t8,t1,v1
80103dd8:	23308501 	subu	a2,t4,a1
80103ddc:	0a008515 	bne	t4,a1,0x80103e08
80103de0:	2338a501 	subu	a3,t5,a1
80103de4:	2a106800 	slt	v0,v1,t0
80103de8:	03004010 	beqz	v0,0x80103df8
80103dec:	005c0300 	sll	t3,v1,0x10
80103df0:	67330408 	j	0x8010cd9c
80103df4:	00540800 	sll	t2,t0,0x10
80103df8:	005c0800 	sll	t3,t0,0x10
80103dfc:	00540300 	sll	t2,v1,0x10
80103e00:	77330408 	j	0x8010cddc
80103e04:	21780000 	move	t7,zero
80103e08:	00540300 	sll	t2,v1,0x10
80103e0c:	21584001 	move	t3,t2
80103e10:	00140e00 	sll	v0,t6,0x10
80103e14:	1a004600 	div	zero,v0,a2
80103e18:	0200c014 	bnez	a2,0x80103e24
80103e1c:	00000000 	nop
80103e20:	0d000700 	break	0x7
80103e24:	ffff0124 	li	at,-1
80103e28:	0400c114 	bne	a2,at,0x80103e3c
80103e2c:	0080013c 	lui	at,0x8000
80103e30:	02004114 	bne	v0,at,0x80103e3c
80103e34:	00000000 	nop
80103e38:	0d000600 	break	0x6
80103e3c:	12780000 	mflo	t7
80103e40:	0100023c 	lui	v0,0x1
80103e44:	03008d15 	bne	t4,t5,0x80103e54
80103e48:	21504201 	addu	t2,t2,v0
80103e4c:	8a330408 	j	0x8010ce28
80103e50:	21c80000 	move	t9,zero
80103e54:	23102801 	subu	v0,t1,t0
80103e58:	00140200 	sll	v0,v0,0x10
80103e5c:	2318ac01 	subu	v1,t5,t4
80103e60:	1a004300 	div	zero,v0,v1
80103e64:	02006014 	bnez	v1,0x80103e70
80103e68:	00000000 	nop
80103e6c:	0d000700 	break	0x7
80103e70:	ffff0124 	li	at,-1
80103e74:	04006114 	bne	v1,at,0x80103e88
80103e78:	0080013c 	lui	at,0x8000
80103e7c:	02004114 	bne	v0,at,0x80103e88
80103e80:	00000000 	nop
80103e84:	0d000600 	break	0x6
80103e88:	12c80000 	mflo	t9
80103e8c:	23100700 	negu	v0,a3
80103e90:	00000000 	nop
80103e94:	18004e00 	mult	v0,t6
80103e98:	12180000 	mflo	v1
	...
80103ea4:	18000603 	mult	t8,a2
80103ea8:	12400000 	mflo	t0
80103eac:	00141800 	sll	v0,t8,0x10
80103eb0:	21186800 	addu	v1,v1,t0
80103eb4:	1a004700 	div	zero,v0,a3
80103eb8:	0200e014 	bnez	a3,0x80103ec4
80103ebc:	00000000 	nop
80103ec0:	0d000700 	break	0x7
80103ec4:	ffff0124 	li	at,-1
80103ec8:	0400e114 	bne	a3,at,0x80103edc
80103ecc:	0080013c 	lui	at,0x8000
80103ed0:	02004114 	bne	v0,at,0x80103edc
80103ed4:	00000000 	nop
80103ed8:	0d000600 	break	0x6
80103edc:	12700000 	mflo	t6
80103ee0:	73006018 	blez	v1,0x801040b0
80103ee4:	2140a000 	move	t0,a1
80103ee8:	2a100c01 	slt	v0,t0,t4
80103eec:	36004010 	beqz	v0,0x80103fc8
80103ef0:	0f80023c 	lui	v0,0x800f
80103ef4:	58cf5024 	addiu	s0,v0,-12456
80103ef8:	ffff1824 	li	t8,-1
80103efc:	034c0a00 	sra	t1,t2,0x10
80103f00:	2c000005 	bltz	t0,0x80103fb4
80103f04:	03340b00 	sra	a2,t3,0x10
80103f08:	0a008584 	lh	a1,10(a0)
80103f0c:	00000000 	nop
80103f10:	2a100501 	slt	v0,t0,a1
80103f14:	27004010 	beqz	v0,0x80103fb4
80103f18:	00000000 	nop
80103f1c:	08008384 	lh	v1,8(a0)
80103f20:	00000000 	nop
80103f24:	2a102301 	slt	v0,t1,v1
80103f28:	02004014 	bnez	v0,0x80103f34
80103f2c:	2138c000 	move	a3,a2
80103f30:	ffff6924 	addiu	t1,v1,-1
80103f34:	0300e104 	bgez	a3,0x80103f44
80103f38:	1800e500 	mult	a3,a1
80103f3c:	21380000 	move	a3,zero
80103f40:	1800e500 	mult	a3,a1
80103f44:	2000068e 	lw	a2,32(s0)
80103f48:	00000000 	nop
80103f4c:	0400c624 	addiu	a2,a2,4
80103f50:	12880000 	mflo	s1
80103f54:	cf330408 	j	0x8010cf3c
80103f58:	21102802 	addu	v0,s1,t0
80103f5c:	0000c284 	lh	v0,0(a2)
80103f60:	00000000 	nop
80103f64:	0c005810 	beq	v0,t8,0x80103f98
80103f68:	00000000 	nop
80103f6c:	06008390 	lbu	v1,6(a0)
80103f70:	00000000 	nop
80103f74:	ff006530 	andi	a1,v1,0xff
80103f78:	fe00a22c 	sltiu	v0,a1,254
80103f7c:	06004010 	beqz	v0,0x80103f98
80103f80:	01006224 	addiu	v0,v1,1
80103f84:	060082a0 	sb	v0,6(a0)
80103f88:	40100500 	sll	v0,a1,0x1
80103f8c:	0000c394 	lhu	v1,0(a2)
80103f90:	21108200 	addu	v0,a0,v0
80103f94:	100043a4 	sh	v1,16(v0)
80103f98:	0a008284 	lh	v0,10(a0)
80103f9c:	0100e724 	addiu	a3,a3,1
80103fa0:	40100200 	sll	v0,v0,0x1
80103fa4:	2130c200 	addu	a2,a2,v0
80103fa8:	2a102701 	slt	v0,t1,a3
80103fac:	ebff4010 	beqz	v0,0x80103f5c
80103fb0:	00000000 	nop
80103fb4:	21586f01 	addu	t3,t3,t7
80103fb8:	01000825 	addiu	t0,t0,1
80103fbc:	2a100c01 	slt	v0,t0,t4
80103fc0:	ceff4014 	bnez	v0,0x80103efc
80103fc4:	21504e01 	addu	t2,t2,t6
80103fc8:	2a10a801 	slt	v0,t5,t0
80103fcc:	a8004014 	bnez	v0,0x80104270
80103fd0:	0f80023c 	lui	v0,0x800f
80103fd4:	58cf4f24 	addiu	t7,v0,-12456
80103fd8:	ffff0c24 	li	t4,-1
80103fdc:	034c0a00 	sra	t1,t2,0x10
80103fe0:	2c000005 	bltz	t0,0x80104094
80103fe4:	03340b00 	sra	a2,t3,0x10
80103fe8:	0a008584 	lh	a1,10(a0)
80103fec:	00000000 	nop
80103ff0:	2a100501 	slt	v0,t0,a1
80103ff4:	27004010 	beqz	v0,0x80104094
80103ff8:	00000000 	nop
80103ffc:	08008384 	lh	v1,8(a0)
80104000:	00000000 	nop
80104004:	2a102301 	slt	v0,t1,v1
80104008:	02004014 	bnez	v0,0x80104014
8010400c:	2138c000 	move	a3,a2
80104010:	ffff6924 	addiu	t1,v1,-1
80104014:	0300e104 	bgez	a3,0x80104024
80104018:	1800e500 	mult	a3,a1
8010401c:	21380000 	move	a3,zero
80104020:	1800e500 	mult	a3,a1
80104024:	2000e68d 	lw	a2,32(t7)
80104028:	00000000 	nop
8010402c:	0400c624 	addiu	a2,a2,4
80104030:	12880000 	mflo	s1
80104034:	07340408 	j	0x8010d01c
80104038:	21102802 	addu	v0,s1,t0
8010403c:	0000c284 	lh	v0,0(a2)
80104040:	00000000 	nop
80104044:	0c004c10 	beq	v0,t4,0x80104078
80104048:	00000000 	nop
8010404c:	06008390 	lbu	v1,6(a0)
80104050:	00000000 	nop
80104054:	ff006530 	andi	a1,v1,0xff
80104058:	fe00a22c 	sltiu	v0,a1,254
8010405c:	06004010 	beqz	v0,0x80104078
80104060:	01006224 	addiu	v0,v1,1
80104064:	060082a0 	sb	v0,6(a0)
80104068:	40100500 	sll	v0,a1,0x1
8010406c:	0000c394 	lhu	v1,0(a2)
80104070:	21108200 	addu	v0,a0,v0
80104074:	100043a4 	sh	v1,16(v0)
80104078:	0a008284 	lh	v0,10(a0)
8010407c:	0100e724 	addiu	a3,a3,1
80104080:	40100200 	sll	v0,v0,0x1
80104084:	2130c200 	addu	a2,a2,v0
80104088:	2a102701 	slt	v0,t1,a3
8010408c:	ebff4010 	beqz	v0,0x8010403c
80104090:	00000000 	nop
80104094:	21587901 	addu	t3,t3,t9
80104098:	01000825 	addiu	t0,t0,1
8010409c:	2a10a801 	slt	v0,t5,t0
801040a0:	ceff4010 	beqz	v0,0x80103fdc
801040a4:	21504e01 	addu	t2,t2,t6
801040a8:	83340408 	j	0x8010d20c
801040ac:	00000000 	nop
801040b0:	2a100c01 	slt	v0,t0,t4
801040b4:	36004010 	beqz	v0,0x80104190
801040b8:	0f80023c 	lui	v0,0x800f
801040bc:	58cf5024 	addiu	s0,v0,-12456
801040c0:	ffff1824 	li	t8,-1
801040c4:	034c0a00 	sra	t1,t2,0x10
801040c8:	2c000005 	bltz	t0,0x8010417c
801040cc:	03340b00 	sra	a2,t3,0x10
801040d0:	0a008584 	lh	a1,10(a0)
801040d4:	00000000 	nop
801040d8:	2a100501 	slt	v0,t0,a1
801040dc:	27004010 	beqz	v0,0x8010417c
801040e0:	00000000 	nop
801040e4:	08008384 	lh	v1,8(a0)
801040e8:	00000000 	nop
801040ec:	2a102301 	slt	v0,t1,v1
801040f0:	02004014 	bnez	v0,0x801040fc
801040f4:	2138c000 	move	a3,a2
801040f8:	ffff6924 	addiu	t1,v1,-1
801040fc:	0300e104 	bgez	a3,0x8010410c
80104100:	1800e500 	mult	a3,a1
80104104:	21380000 	move	a3,zero
80104108:	1800e500 	mult	a3,a1
8010410c:	2000068e 	lw	a2,32(s0)
80104110:	00000000 	nop
80104114:	0400c624 	addiu	a2,a2,4
80104118:	12880000 	mflo	s1
8010411c:	41340408 	j	0x8010d104
80104120:	21102802 	addu	v0,s1,t0
80104124:	0000c284 	lh	v0,0(a2)
80104128:	00000000 	nop
8010412c:	0c005810 	beq	v0,t8,0x80104160
80104130:	00000000 	nop
80104134:	06008390 	lbu	v1,6(a0)
80104138:	00000000 	nop
8010413c:	ff006530 	andi	a1,v1,0xff
80104140:	fe00a22c 	sltiu	v0,a1,254
80104144:	06004010 	beqz	v0,0x80104160
80104148:	01006224 	addiu	v0,v1,1
8010414c:	060082a0 	sb	v0,6(a0)
80104150:	40100500 	sll	v0,a1,0x1
80104154:	0000c394 	lhu	v1,0(a2)
80104158:	21108200 	addu	v0,a0,v0
8010415c:	100043a4 	sh	v1,16(v0)
80104160:	0a008284 	lh	v0,10(a0)
80104164:	0100e724 	addiu	a3,a3,1
80104168:	40100200 	sll	v0,v0,0x1
8010416c:	2130c200 	addu	a2,a2,v0
80104170:	2a102701 	slt	v0,t1,a3
80104174:	ebff4010 	beqz	v0,0x80104124
80104178:	00000000 	nop
8010417c:	21504f01 	addu	t2,t2,t7
80104180:	01000825 	addiu	t0,t0,1
80104184:	2a100c01 	slt	v0,t0,t4
80104188:	ceff4014 	bnez	v0,0x801040c4
8010418c:	21586e01 	addu	t3,t3,t6
80104190:	2a10a801 	slt	v0,t5,t0
80104194:	36004014 	bnez	v0,0x80104270
80104198:	0f80023c 	lui	v0,0x800f
8010419c:	58cf4f24 	addiu	t7,v0,-12456
801041a0:	ffff0c24 	li	t4,-1
801041a4:	034c0a00 	sra	t1,t2,0x10
801041a8:	2c000005 	bltz	t0,0x8010425c
801041ac:	03340b00 	sra	a2,t3,0x10
801041b0:	0a008584 	lh	a1,10(a0)
801041b4:	00000000 	nop
801041b8:	2a100501 	slt	v0,t0,a1
801041bc:	27004010 	beqz	v0,0x8010425c
801041c0:	00000000 	nop
801041c4:	08008384 	lh	v1,8(a0)
801041c8:	00000000 	nop
801041cc:	2a102301 	slt	v0,t1,v1
801041d0:	02004014 	bnez	v0,0x801041dc
801041d4:	2138c000 	move	a3,a2
801041d8:	ffff6924 	addiu	t1,v1,-1
801041dc:	0300e104 	bgez	a3,0x801041ec
801041e0:	1800e500 	mult	a3,a1
801041e4:	21380000 	move	a3,zero
801041e8:	1800e500 	mult	a3,a1
801041ec:	2000e68d 	lw	a2,32(t7)
801041f0:	00000000 	nop
801041f4:	0400c624 	addiu	a2,a2,4
801041f8:	12880000 	mflo	s1
801041fc:	79340408 	j	0x8010d1e4
80104200:	21102802 	addu	v0,s1,t0
80104204:	0000c284 	lh	v0,0(a2)
80104208:	00000000 	nop
8010420c:	0c004c10 	beq	v0,t4,0x80104240
80104210:	00000000 	nop
80104214:	06008390 	lbu	v1,6(a0)
80104218:	00000000 	nop
8010421c:	ff006530 	andi	a1,v1,0xff
80104220:	fe00a22c 	sltiu	v0,a1,254
80104224:	06004010 	beqz	v0,0x80104240
80104228:	01006224 	addiu	v0,v1,1
8010422c:	060082a0 	sb	v0,6(a0)
80104230:	40100500 	sll	v0,a1,0x1
80104234:	0000c394 	lhu	v1,0(a2)
80104238:	21108200 	addu	v0,a0,v0
8010423c:	100043a4 	sh	v1,16(v0)
80104240:	0a008284 	lh	v0,10(a0)
80104244:	0100e724 	addiu	a3,a3,1
80104248:	40100200 	sll	v0,v0,0x1
8010424c:	2130c200 	addu	a2,a2,v0
80104250:	2a102701 	slt	v0,t1,a3
80104254:	ebff4010 	beqz	v0,0x80104204
80104258:	00000000 	nop
8010425c:	21586e01 	addu	t3,t3,t6
80104260:	01000825 	addiu	t0,t0,1
80104264:	2a10a801 	slt	v0,t5,t0
80104268:	ceff4010 	beqz	v0,0x801041a4
8010426c:	21505901 	addu	t2,t2,t9
80104270:	0400b18f 	lw	s1,4(sp)
80104274:	0000b08f 	lw	s0,0(sp)
80104278:	0800e003 	jr	ra
8010427c:	0800bd27 	addiu	sp,sp,8
80104280:	0f80023c 	lui	v0,0x800f
80104284:	78cf428c 	lw	v0,-12424(v0)
80104288:	00000000 	nop
8010428c:	0c0082ac 	sw	v0,12(a0)
80104290:	00004394 	lhu	v1,0(v0)
80104294:	00000000 	nop
80104298:	080083a4 	sh	v1,8(a0)
8010429c:	02004294 	lhu	v0,2(v0)
801042a0:	070080a0 	sb	zero,7(a0)
801042a4:	0800e003 	jr	ra
801042a8:	0a0082a4 	sh	v0,10(a0)
801042ac:	e8ffbd27 	addiu	sp,sp,-24
801042b0:	00240400 	sll	a0,a0,0x10
801042b4:	12008014 	bnez	a0,0x80104300
801042b8:	1000bfaf 	sw	ra,16(sp)
801042bc:	1180033c 	lui	v1,0x8011
801042c0:	c0d56324 	addiu	v1,v1,-10816
801042c4:	801f043c 	lui	a0,0x1f80
801042c8:	00140500 	sll	v0,a1,0x10
801042cc:	83130200 	sra	v0,v0,0xe
801042d0:	21104300 	addu	v0,v0,v1
801042d4:	1c02858c 	lw	a1,540(a0)
801042d8:	03000424 	li	a0,3
801042dc:	21380000 	move	a3,zero
801042e0:	00004394 	lhu	v1,0(v0)
801042e4:	02004694 	lhu	a2,2(v0)
801042e8:	40190300 	sll	v1,v1,0x5
801042ec:	2128a300 	addu	a1,a1,v1
801042f0:	0100c624 	addiu	a2,a2,1
801042f4:	40310600 	sll	a2,a2,0x5
801042f8:	aa74000c 	jal	0x8001d2a8
801042fc:	2130a600 	addu	a2,a1,a2
80104300:	1000bf8f 	lw	ra,16(sp)
80104304:	00000000 	nop
80104308:	0800e003 	jr	ra
8010430c:	1800bd27 	addiu	sp,sp,24
80104310:	02010017 	bnez	t8,0x8010471c
80104314:	01180405 	.word	0x5041801
80104318:	0119001a 	blez	s0,0x8010a720
8010431c:	011b001c 	bgtz	zero,0x8010af24
80104320:	011d0409 	j	0x84107404
80104324:	001e011f 	.word	0x1f011e00
80104328:	0020040d 	jal	0x84108000
8010432c:	03210422 	addi	a0,s0,8451
80104330:	05110023 	addi	zero,t8,4357
80104334:	01240025 	addiu	zero,t0,9217
80104338:	ef064000 	.word	0x4006ef
8010433c:	c00e0000 	sll	at,zero,0x1b
80104340:	40000002 	.word	0x2000040
80104344:	380a0000 	.word	0xa38
80104348:	34150000 	.word	0x1534
8010434c:	40008001 	.word	0x1800040
80104350:	4b100000 	.word	0x104b
80104354:	3e150000 	.word	0x153e
80104358:	40008001 	.word	0x1800040
8010435c:	ea060000 	.word	0x6ea
80104360:	b30e0000 	.word	0xeb3
80104364:	40000002 	.word	0x2000040
80104368:	52060000 	.word	0x652
8010436c:	52110000 	.word	0x1152
80104370:	40008001 	.word	0x1800040
80104374:	ef080000 	.word	0x8ef
80104378:	cf140000 	.word	0x14cf
8010437c:	40008001 	.word	0x1800040
80104380:	7c0b0000 	.word	0xb7c
80104384:	a9150000 	.word	0x15a9
80104388:	40008001 	.word	0x1800040
8010438c:	8e110000 	.word	0x118e
80104390:	c7140000 	.word	0x14c7
80104394:	40008001 	.word	0x1800040
80104398:	38140000 	.word	0x1438
8010439c:	57110000 	.word	0x1157
801043a0:	40008001 	.word	0x1800040
801043a4:	ec060000 	.word	0x6ec
801043a8:	ba0e0000 	.word	0xeba
801043ac:	40000002 	.word	0x2000040
801043b0:	f4080000 	.word	0x8f4
801043b4:	c2140000 	srl	v0,zero,0x13
801043b8:	40008001 	.word	0x1800040
801043bc:	090f0000 	.word	0xf09
801043c0:	b8150000 	.word	0x15b8
801043c4:	40008001 	.word	0x1800040
801043c8:	22140000 	.word	0x1422
801043cc:	4e110000 	.word	0x114e
801043d0:	40008001 	.word	0x1800040
801043d4:	f1060000 	.word	0x6f1
801043d8:	c30e0000 	sra	at,zero,0x1b
801043dc:	40000002 	.word	0x2000040
801043e0:	330ac1ff 	.word	0xffc10a33
801043e4:	44150000 	.word	0x1544
801043e8:	40007e00 	.word	0x7e0040
801043ec:	4c100000 	syscall	0x41
801043f0:	3f150000 	.word	0x153f
801043f4:	40000002 	.word	0x2000040
801043f8:	f1060000 	.word	0x6f1
801043fc:	c40e0000 	.word	0xec4
80104400:	40007e00 	.word	0x7e0040
80104404:	340a0000 	.word	0xa34
80104408:	41150000 	.word	0x1541
8010440c:	40008001 	.word	0x1800040
80104410:	4c100000 	syscall	0x41
80104414:	3f150000 	.word	0x153f
80104418:	40008001 	.word	0x1800040
8010441c:	6e0b0000 	.word	0xb6e
80104420:	d3150000 	.word	0x15d3
80104424:	40008001 	.word	0x1800040
80104428:	01042c06 	.word	0x62c0401
8010442c:	80f90c0f 	jal	0x8c33e600
80104430:	0c001b00 	syscall	0x6c00
80104434:	00000000 	nop
80104438:	4cb21080 	lb	s0,-19892(zero)
8010443c:	0104a00a 	j	0x8a801004
80104440:	00fa8015 	bnez	t4,0x80102c44
80104444:	0c01ecff 	.word	0xffec010c
80104448:	00000000 	nop
8010444c:	4cb21080 	lb	s0,-19892(zero)
80104450:	0104d010 	beq	a2,s0,0x80105458
80104454:	00fa3015 	bne	t1,s0,0x80102c58
80104458:	0c021400 	syscall	0x5008
8010445c:	00000000 	nop
80104460:	4cb21080 	lb	s0,-19892(zero)
80104464:	01040006 	bltz	s0,0x8010546c
80104468:	00f6300f 	jal	0x8cc3d800
8010446c:	0c0367ff 	.word	0xff67030c
80104470:	00000000 	nop
80104474:	4cb21080 	lb	s0,-19892(zero)
80104478:	01046006 	bltz	s3,0x80105480
8010447c:	40f6d011 	beq	t6,s0,0x80101d80
80104480:	0c04bdff 	.word	0xffbd040c
80104484:	00000000 	nop
80104488:	4cb21080 	lb	s0,-19892(zero)
8010448c:	01046009 	j	0x85801004
80104490:	40f61015 	bne	t0,s0,0x80101d94
80104494:	0c05ecff 	.word	0xffec050c
80104498:	00000000 	nop
8010449c:	4cb21080 	lb	s0,-19892(zero)
801044a0:	0104e00b 	j	0x8f801004
801044a4:	40f60016 	bnez	s0,0x80101da8
801044a8:	0c06ecff 	.word	0xffec060c
801044ac:	00000000 	nop
801044b0:	4cb21080 	lb	s0,-19892(zero)
801044b4:	01041012 	beq	s0,s0,0x801054bc
801044b8:	40f6c014 	bnez	a2,0x80101dbc
801044bc:	0c071400 	syscall	0x501c
801044c0:	00000000 	nop
801044c4:	4cb21080 	lb	s0,-19892(zero)
801044c8:	01048014 	bnez	a0,0x801054d0
801044cc:	40f6e010 	beqz	a3,0x80101dd0
801044d0:	0c084300 	syscall	0x10c20
801044d4:	00000000 	nop
801044d8:	4cb21080 	lb	s0,-19892(zero)
801044dc:	01040006 	bltz	s0,0x801054e4
801044e0:	40f2300f 	jal	0x8cc3c900
801044e4:	0c0967ff 	.word	0xff67090c
801044e8:	00000000 	nop
801044ec:	4cb21080 	lb	s0,-19892(zero)
801044f0:	01046009 	j	0x85801004
801044f4:	80f21015 	bne	t0,s0,0x80100ef8
801044f8:	0c0aecff 	.word	0xffec0a0c
801044fc:	00000000 	nop
80104500:	4cb21080 	lb	s0,-19892(zero)
80104504:	0104900f 	jal	0x8e401004
80104508:	80f2a015 	bnez	t5,0x80100f0c
8010450c:	0c0b1400 	syscall	0x502c
80104510:	00000000 	nop
80104514:	4cb21080 	lb	s0,-19892(zero)
80104518:	01048014 	bnez	a0,0x80105520
8010451c:	80f2e010 	beqz	a3,0x80100f20
80104520:	0c0c4300 	syscall	0x10c30
80104524:	00000000 	nop
80104528:	4cb21080 	lb	s0,-19892(zero)
8010452c:	01040006 	bltz	s0,0x80105534
80104530:	80ee300f 	jal	0x8cc3ba00
80104534:	0c0d67ff 	.word	0xff670d0c
80104538:	00000000 	nop
8010453c:	4cb21080 	lb	s0,-19892(zero)
80104540:	0104680a 	j	0x89a01004
80104544:	80ef6815 	bne	t3,t0,0x80100348
80104548:	0c0eecff 	.word	0xffec0e0c
8010454c:	00000000 	nop
80104550:	4cb21080 	lb	s0,-19892(zero)
80104554:	01042811 	beq	t1,t0,0x8010555c
80104558:	80eef014 	bne	a3,s0,0x800fff5c
8010455c:	0c0f1400 	syscall	0x503c
80104560:	00000000 	nop
80104564:	4cb21080 	lb	s0,-19892(zero)
80104568:	0104ab06 	.word	0x6ab0401
8010456c:	80ebe80e 	jal	0x8ba3ae00
80104570:	0c1067ff 	.word	0xff67100c
80104574:	00000000 	nop
80104578:	4cb21080 	lb	s0,-19892(zero)
8010457c:	0104a00a 	j	0x8a801004
80104580:	00eb8015 	bnez	t4,0x800ff184
80104584:	0c11ecff 	.word	0xffec110c
80104588:	00000000 	nop
8010458c:	4cb21080 	lb	s0,-19892(zero)
80104590:	0104d010 	beq	a2,s0,0x80105598
80104594:	00eb3015 	bne	t1,s0,0x800ff198
80104598:	0c121400 	syscall	0x5048
8010459c:	00000000 	nop
801045a0:	4cb21080 	lb	s0,-19892(zero)
801045a4:	01046e0b 	j	0x8db81004
801045a8:	40e7d315 	bne	t6,s3,0x800fe2ac
801045ac:	0c130000 	syscall	0x4c
801045b0:	00000000 	nop
801045b4:	4cb21080 	lb	s0,-19892(zero)
801045b8:	ff000000 	.word	0xff
	...
801045cc:	ff000000 	.word	0xff
	...
801045dc:	ff000000 	.word	0xff
	...
801045ec:	68d51080 	lb	s0,-10904(zero)
801045f0:	78d51080 	lb	s0,-10888(zero)
801045f4:	02020081 	lb	zero,514(t0)
801045f8:	2c0e74e7 	swc1	$f20,3628(k1)
801045fc:	6a14be00 	.word	0xbe146a
80104600:	16012840 	.word	0x40280116
80104604:	ff000000 	.word	0xff
	...
80104614:	00010000 	sll	zero,zero,0x4
80104618:	3c005a00 	.word	0x5a003c
8010461c:	00010001 	.word	0x1000100
80104620:	3d004b00 	.word	0x4b003d
80104624:	00001e00 	sll	zero,s8,0x0
80104628:	1e001e00 	.word	0x1e001e
8010462c:	3c001e00 	.word	0x1e003c
80104630:	5a001e00 	.word	0x1e005a
80104634:	78001e00 	.word	0x1e0078
80104638:	96001e00 	.word	0x1e0096
