
rom/extracted/BIN/A0I.BIN:     file format binary


Disassembly of section .data:

80100000 <.data>:
80100000:	1c000000 	.word	0x1c
80100004:	74991080 	lb	s0,-26252(zero)
80100008:	fc971080 	lb	s0,-26628(zero)
8010000c:	1c971080 	lb	s0,-26852(zero)
80100010:	fc971080 	lb	s0,-26628(zero)
80100014:	fc971080 	lb	s0,-26628(zero)
80100018:	fc971080 	lb	s0,-26628(zero)
8010001c:	74991080 	lb	s0,-26252(zero)
80100020:	fc971080 	lb	s0,-26628(zero)
80100024:	b8971080 	lb	s0,-26696(zero)
80100028:	e0971080 	lb	s0,-26656(zero)
8010002c:	a8971080 	lb	s0,-26712(zero)
80100030:	a8971080 	lb	s0,-26712(zero)
80100034:	e0971080 	lb	s0,-26656(zero)
80100038:	e0971080 	lb	s0,-26656(zero)
8010003c:	d8971080 	lb	s0,-26664(zero)
80100040:	e0971080 	lb	s0,-26656(zero)
80100044:	e0971080 	lb	s0,-26656(zero)
80100048:	e0971080 	lb	s0,-26656(zero)
8010004c:	e0971080 	lb	s0,-26656(zero)
80100050:	e0971080 	lb	s0,-26656(zero)
80100054:	e0971080 	lb	s0,-26656(zero)
80100058:	e0971080 	lb	s0,-26656(zero)
8010005c:	e0971080 	lb	s0,-26656(zero)
80100060:	e0971080 	lb	s0,-26656(zero)
80100064:	e0971080 	lb	s0,-26656(zero)
80100068:	e0971080 	lb	s0,-26656(zero)
8010006c:	e0971080 	lb	s0,-26656(zero)
80100070:	c8971080 	lb	s0,-26680(zero)
80100074:	d8971080 	lb	s0,-26664(zero)
80100078:	00000000 	nop
8010007c:	38991080 	lb	s0,-26312(zero)
80100080:	60991080 	lb	s0,-26272(zero)
80100084:	28991080 	lb	s0,-26328(zero)
80100088:	28991080 	lb	s0,-26328(zero)
8010008c:	60991080 	lb	s0,-26272(zero)
80100090:	60991080 	lb	s0,-26272(zero)
80100094:	58991080 	lb	s0,-26280(zero)
80100098:	60991080 	lb	s0,-26272(zero)
8010009c:	60991080 	lb	s0,-26272(zero)
801000a0:	60991080 	lb	s0,-26272(zero)
801000a4:	60991080 	lb	s0,-26272(zero)
801000a8:	60991080 	lb	s0,-26272(zero)
801000ac:	60991080 	lb	s0,-26272(zero)
801000b0:	60991080 	lb	s0,-26272(zero)
801000b4:	60991080 	lb	s0,-26272(zero)
801000b8:	60991080 	lb	s0,-26272(zero)
801000bc:	60991080 	lb	s0,-26272(zero)
801000c0:	60991080 	lb	s0,-26272(zero)
801000c4:	60991080 	lb	s0,-26272(zero)
801000c8:	48991080 	lb	s0,-26296(zero)
801000cc:	58991080 	lb	s0,-26280(zero)
801000d0:	00000000 	nop
801000d4:	149d1080 	lb	s0,-25324(zero)
801000d8:	3c9d1080 	lb	s0,-25284(zero)
801000dc:	049d1080 	lb	s0,-25340(zero)
801000e0:	049d1080 	lb	s0,-25340(zero)
801000e4:	3c9d1080 	lb	s0,-25284(zero)
801000e8:	3c9d1080 	lb	s0,-25284(zero)
801000ec:	349d1080 	lb	s0,-25292(zero)
801000f0:	3c9d1080 	lb	s0,-25284(zero)
801000f4:	3c9d1080 	lb	s0,-25284(zero)
801000f8:	3c9d1080 	lb	s0,-25284(zero)
801000fc:	3c9d1080 	lb	s0,-25284(zero)
80100100:	3c9d1080 	lb	s0,-25284(zero)
80100104:	3c9d1080 	lb	s0,-25284(zero)
80100108:	3c9d1080 	lb	s0,-25284(zero)
8010010c:	3c9d1080 	lb	s0,-25284(zero)
80100110:	3c9d1080 	lb	s0,-25284(zero)
80100114:	3c9d1080 	lb	s0,-25284(zero)
80100118:	3c9d1080 	lb	s0,-25284(zero)
8010011c:	3c9d1080 	lb	s0,-25284(zero)
80100120:	249d1080 	lb	s0,-25308(zero)
80100124:	349d1080 	lb	s0,-25292(zero)
80100128:	c09f1080 	lb	s0,-24640(zero)
8010012c:	a8a01080 	lb	s0,-24408(zero)
80100130:	e0a21080 	lb	s0,-23840(zero)
80100134:	eca31080 	lb	s0,-23572(zero)
80100138:	0ca41080 	lb	s0,-23540(zero)
8010013c:	80a81080 	lb	s0,-22400(zero)
80100140:	90a81080 	lb	s0,-22384(zero)
80100144:	b8a81080 	lb	s0,-22344(zero)
80100148:	d8a81080 	lb	s0,-22312(zero)
8010014c:	04a91080 	lb	s0,-22268(zero)
80100150:	6ca91080 	lb	s0,-22164(zero)
80100154:	d8ffbd27 	addiu	sp,sp,-40
80100158:	1800b2af 	sw	s2,24(sp)
8010015c:	21908000 	move	s2,a0
80100160:	1400b1af 	sw	s1,20(sp)
80100164:	2188a000 	move	s1,a1
80100168:	2000bfaf 	sw	ra,32(sp)
8010016c:	1c00b3af 	sw	s3,28(sp)
80100170:	1000b0af 	sw	s0,16(sp)
80100174:	80002686 	lh	a2,128(s1)
80100178:	038c000c 	jal	0x8002300c
8010017c:	80300600 	sll	a2,a2,0x2
80100180:	6b004010 	beqz	v0,0x80100330
80100184:	801f023c 	lui	v0,0x1f80
80100188:	9c004394 	lhu	v1,156(v0)
8010018c:	01000224 	li	v0,1
80100190:	2b0022a2 	sb	v0,43(s1)
80100194:	801f023c 	lui	v0,0x1f80
80100198:	37014290 	lbu	v0,311(v0)
8010019c:	00000000 	nop
801001a0:	38004014 	bnez	v0,0x80100284
801001a4:	00087324 	addiu	s3,v1,2048
801001a8:	36002496 	lhu	a0,54(s1)
801001ac:	36004296 	lhu	v0,54(s2)
801001b0:	2e002596 	lhu	a1,46(s1)
801001b4:	40015096 	lhu	s0,320(s2)
801001b8:	23208200 	subu	a0,a0,v0
801001bc:	00240400 	sll	a0,a0,0x10
801001c0:	03240400 	sra	a0,a0,0x10
801001c4:	23200400 	negu	a0,a0
801001c8:	2e004296 	lhu	v0,46(s2)
801001cc:	00fc1026 	addiu	s0,s0,-1024
801001d0:	2328a200 	subu	a1,a1,v0
801001d4:	002c0500 	sll	a1,a1,0x10
801001d8:	a415020c 	jal	0x80085690
801001dc:	032c0500 	sra	a1,a1,0x10
801001e0:	00210200 	sll	a0,v0,0x4
801001e4:	00811000 	sll	s0,s0,0x4
801001e8:	23809000 	subu	s0,a0,s0
801001ec:	00841000 	sll	s0,s0,0x10
801001f0:	03841000 	sra	s0,s0,0x10
801001f4:	02000106 	bgez	s0,0x80100200
801001f8:	00000000 	nop
801001fc:	23801000 	negu	s0,s0
80100200:	0010102a 	slti	s0,s0,4096
80100204:	0b000012 	beqz	s0,0x80100234
80100208:	801f033c 	lui	v1,0x1f80
8010020c:	00410224 	li	v0,16640
80100210:	0c80043c 	lui	a0,0x800c
80100214:	8e0162a4 	sh	v0,398(v1)
80100218:	40014396 	lhu	v1,320(s2)
8010021c:	42000224 	li	v0,66
80100220:	40f882a0 	sb	v0,-1984(a0)
80100224:	801f023c 	lui	v0,0x1f80
80100228:	00fc6324 	addiu	v1,v1,-1024
8010022c:	88240408 	j	0x80109220
80100230:	8c0143a4 	sh	v1,396(v0)
80100234:	40014296 	lhu	v0,320(s2)
80100238:	00000000 	nop
8010023c:	00044324 	addiu	v1,v0,1024
80100240:	00110300 	sll	v0,v1,0x4
80100244:	23108200 	subu	v0,a0,v0
80100248:	00140200 	sll	v0,v0,0x10
8010024c:	03140200 	sra	v0,v0,0x10
80100250:	02004104 	bgez	v0,0x8010025c
80100254:	00000000 	nop
80100258:	23100200 	negu	v0,v0
8010025c:	00104228 	slti	v0,v0,4096
80100260:	08004010 	beqz	v0,0x80100284
80100264:	801f023c 	lui	v0,0x1f80
80100268:	8c0143a4 	sh	v1,396(v0)
8010026c:	801f033c 	lui	v1,0x1f80
80100270:	00420224 	li	v0,16896
80100274:	8e0162a4 	sh	v0,398(v1)
80100278:	0c80033c 	lui	v1,0x800c
8010027c:	43000224 	li	v0,67
80100280:	40f862a0 	sb	v0,-1984(v1)
80100284:	80004286 	lh	v0,128(s2)
80100288:	80002386 	lh	v1,128(s1)
8010028c:	801f043c 	lui	a0,0x1f80
80100290:	21104300 	addu	v0,v0,v1
80100294:	8c008394 	lhu	v1,140(a0)
80100298:	50004224 	addiu	v0,v0,80
8010029c:	2a104300 	slt	v0,v0,v1
801002a0:	23004014 	bnez	v0,0x80100330
801002a4:	02000224 	li	v0,2
801002a8:	2b0022a2 	sb	v0,43(s1)
801002ac:	80004286 	lh	v0,128(s2)
801002b0:	80002386 	lh	v1,128(s1)
801002b4:	8c008494 	lhu	a0,140(a0)
801002b8:	21104300 	addu	v0,v0,v1
801002bc:	2a104400 	slt	v0,v0,a0
801002c0:	1b004014 	bnez	v0,0x80100330
801002c4:	00841300 	sll	s0,s3,0x10
801002c8:	03841000 	sra	s0,s0,0x10
801002cc:	d40f020c 	jal	0x80083f50
801002d0:	21200002 	move	a0,s0
801002d4:	80004386 	lh	v1,128(s2)
801002d8:	80002486 	lh	a0,128(s1)
801002dc:	00000000 	nop
801002e0:	21186400 	addu	v1,v1,a0
801002e4:	18004300 	mult	v0,v1
801002e8:	21200002 	move	a0,s0
801002ec:	12380000 	mflo	a3
801002f0:	a00f020c 	jal	0x80083e80
801002f4:	03830700 	sra	s0,a3,0xc
801002f8:	80004386 	lh	v1,128(s2)
801002fc:	80002486 	lh	a0,128(s1)
80100300:	00000000 	nop
80100304:	21186400 	addu	v1,v1,a0
80100308:	18004300 	mult	v0,v1
8010030c:	2e002296 	lhu	v0,46(s1)
80100310:	00000000 	nop
80100314:	21105000 	addu	v0,v0,s0
80100318:	2e0042a6 	sh	v0,46(s2)
8010031c:	36002296 	lhu	v0,54(s1)
80100320:	12380000 	mflo	a3
80100324:	031b0700 	sra	v1,a3,0xc
80100328:	23104300 	subu	v0,v0,v1
8010032c:	360042a6 	sh	v0,54(s2)
80100330:	2000bf8f 	lw	ra,32(sp)
80100334:	1c00b38f 	lw	s3,28(sp)
80100338:	1800b28f 	lw	s2,24(sp)
8010033c:	1400b18f 	lw	s1,20(sp)
80100340:	1000b08f 	lw	s0,16(sp)
80100344:	0800e003 	jr	ra
80100348:	2800bd27 	addiu	sp,sp,40
8010034c:	801f023c 	lui	v0,0x1f80
80100350:	50014284 	lh	v0,336(v0)
80100354:	d8ffbd27 	addiu	sp,sp,-40
80100358:	2000bfaf 	sw	ra,32(sp)
8010035c:	1c00b3af 	sw	s3,28(sp)
80100360:	1800b2af 	sw	s2,24(sp)
80100364:	1400b1af 	sw	s1,20(sp)
80100368:	5e004010 	beqz	v0,0x801004e4
8010036c:	1000b0af 	sw	s0,16(sp)
80100370:	0f80023c 	lui	v0,0x800f
80100374:	3827518c 	lw	s1,10040(v0)
80100378:	00000000 	nop
8010037c:	59002012 	beqz	s1,0x801004e4
80100380:	801f133c 	lui	s3,0x1f80
80100384:	00002292 	lbu	v0,0(s1)
80100388:	00000000 	nop
8010038c:	01004230 	andi	v0,v0,0x1
80100390:	50004010 	beqz	v0,0x801004d4
80100394:	00000000 	nop
80100398:	2b002292 	lbu	v0,43(s1)
8010039c:	00000000 	nop
801003a0:	4c004014 	bnez	v0,0x801004d4
801003a4:	801f023c 	lui	v0,0x1f80
801003a8:	4801528c 	lw	s2,328(v0)
801003ac:	801f023c 	lui	v0,0x1f80
801003b0:	50014290 	lbu	v0,336(v0)
801003b4:	00000000 	nop
801003b8:	820162a2 	sb	v0,386(s3)
801003bc:	ff004230 	andi	v0,v0,0xff
801003c0:	44004010 	beqz	v0,0x801004d4
801003c4:	00000000 	nop
801003c8:	82016292 	lbu	v0,386(s3)
801003cc:	0000508e 	lw	s0,0(s2)
801003d0:	ffff4224 	addiu	v0,v0,-1
801003d4:	820162a2 	sb	v0,386(s3)
801003d8:	00000292 	lbu	v0,0(s0)
801003dc:	00000000 	nop
801003e0:	01004230 	andi	v0,v0,0x1
801003e4:	36004010 	beqz	v0,0x801004c0
801003e8:	04005226 	addiu	s2,s2,4
801003ec:	02000392 	lbu	v1,2(s0)
801003f0:	12000224 	li	v0,18
801003f4:	11006210 	beq	v1,v0,0x8010043c
801003f8:	13006228 	slti	v0,v1,19
801003fc:	05004010 	beqz	v0,0x80100414
80100400:	0c000224 	li	v0,12
80100404:	08006210 	beq	v1,v0,0x80100428
80100408:	801f023c 	lui	v0,0x1f80
8010040c:	18250408 	j	0x80109460
80100410:	00000000 	nop
80100414:	20000224 	li	v0,32
80100418:	0c006210 	beq	v1,v0,0x8010044c
8010041c:	801f023c 	lui	v0,0x1f80
80100420:	18250408 	j	0x80109460
80100424:	00000000 	nop
80100428:	21202002 	move	a0,s1
8010042c:	868d000c 	jal	0x80023618
80100430:	21280002 	move	a1,s0
80100434:	18250408 	j	0x80109460
80100438:	801f023c 	lui	v0,0x1f80
8010043c:	21202002 	move	a0,s1
80100440:	21280002 	move	a1,s0
80100444:	ad85000c 	jal	0x800216b4
80100448:	21300000 	move	a2,zero
8010044c:	21202002 	move	a0,s1
80100450:	c18b000c 	jal	0x80022f04
80100454:	21280002 	move	a1,s0
80100458:	1a004010 	beqz	v0,0x801004c4
8010045c:	801f023c 	lui	v0,0x1f80
80100460:	02002392 	lbu	v1,2(s1)
80100464:	03000224 	li	v0,3
80100468:	03006210 	beq	v1,v0,0x80100478
8010046c:	09000224 	li	v0,9
80100470:	08006214 	bne	v1,v0,0x80100494
80100474:	21202002 	move	a0,s1
80100478:	21202002 	move	a0,s1
8010047c:	21280002 	move	a1,s0
80100480:	21300000 	move	a2,zero
80100484:	2777000c 	jal	0x8001dc9c
80100488:	2138c000 	move	a3,a2
8010048c:	13250408 	j	0x8010944c
80100490:	21184000 	move	v1,v0
80100494:	21280002 	move	a1,s0
80100498:	21300000 	move	a2,zero
8010049c:	187a000c 	jal	0x8001e860
801004a0:	2138c000 	move	a3,a2
801004a4:	21184000 	move	v1,v0
801004a8:	01000224 	li	v0,1
801004ac:	2b0002a2 	sb	v0,43(s0)
801004b0:	80006230 	andi	v0,v1,0x80
801004b4:	03004014 	bnez	v0,0x801004c4
801004b8:	801f023c 	lui	v0,0x1f80
801004bc:	820160a2 	sb	zero,386(s3)
801004c0:	801f023c 	lui	v0,0x1f80
801004c4:	82014290 	lbu	v0,386(v0)
801004c8:	00000000 	nop
801004cc:	beff4014 	bnez	v0,0x801003c8
801004d0:	00000000 	nop
801004d4:	2400318e 	lw	s1,36(s1)
801004d8:	00000000 	nop
801004dc:	a9ff2016 	bnez	s1,0x80100384
801004e0:	00000000 	nop
801004e4:	2000bf8f 	lw	ra,32(sp)
801004e8:	1c00b38f 	lw	s3,28(sp)
801004ec:	1800b28f 	lw	s2,24(sp)
801004f0:	1400b18f 	lw	s1,20(sp)
801004f4:	1000b08f 	lw	s0,16(sp)
801004f8:	0800e003 	jr	ra
801004fc:	2800bd27 	addiu	sp,sp,40
80100500:	d8ffbd27 	addiu	sp,sp,-40
80100504:	801f023c 	lui	v0,0x1f80
80100508:	1c00b3af 	sw	s3,28(sp)
8010050c:	5401538c 	lw	s3,340(v0)
80100510:	801f023c 	lui	v0,0x1f80
80100514:	5c014290 	lbu	v0,348(v0)
80100518:	801f033c 	lui	v1,0x1f80
8010051c:	2400bfaf 	sw	ra,36(sp)
80100520:	2000b4af 	sw	s4,32(sp)
80100524:	1800b2af 	sw	s2,24(sp)
80100528:	1400b1af 	sw	s1,20(sp)
8010052c:	1000b0af 	sw	s0,16(sp)
80100530:	830162a0 	sb	v0,387(v1)
80100534:	ff004230 	andi	v0,v0,0xff
80100538:	72004010 	beqz	v0,0x80100704
8010053c:	801f113c 	lui	s1,0x1f80
80100540:	08001424 	li	s4,8
80100544:	83016290 	lbu	v0,387(v1)
80100548:	0000728e 	lw	s2,0(s3)
8010054c:	ffff4224 	addiu	v0,v0,-1
80100550:	830162a0 	sb	v0,387(v1)
80100554:	00004292 	lbu	v0,0(s2)
80100558:	00000000 	nop
8010055c:	02004230 	andi	v0,v0,0x2
80100560:	63004014 	bnez	v0,0x801006f0
80100564:	04007326 	addiu	s3,s3,4
80100568:	02004392 	lbu	v1,2(s2)
8010056c:	01000224 	li	v0,1
80100570:	0b006210 	beq	v1,v0,0x801005a0
80100574:	02006228 	slti	v0,v1,2
80100578:	05004010 	beqz	v0,0x80100590
8010057c:	04000224 	li	v0,4
80100580:	34006010 	beqz	v1,0x80100654
80100584:	801f033c 	lui	v1,0x1f80
80100588:	a4250408 	j	0x80109690
8010058c:	00000000 	nop
80100590:	30006210 	beq	v1,v0,0x80100654
80100594:	801f033c 	lui	v1,0x1f80
80100598:	a4250408 	j	0x80109690
8010059c:	00000000 	nop
801005a0:	03004292 	lbu	v0,3(s2)
801005a4:	00000000 	nop
801005a8:	52004314 	bne	v0,v1,0x801006f4
801005ac:	801f033c 	lui	v1,0x1f80
801005b0:	801f023c 	lui	v0,0x1f80
801005b4:	50014290 	lbu	v0,336(v0)
801005b8:	5b250408 	j	0x8010956c
801005bc:	820122a2 	sb	v0,386(s1)
801005c0:	82012292 	lbu	v0,386(s1)
801005c4:	00000000 	nop
801005c8:	ffff4224 	addiu	v0,v0,-1
801005cc:	820122a2 	sb	v0,386(s1)
801005d0:	ff004230 	andi	v0,v0,0xff
801005d4:	faff4014 	bnez	v0,0x801005c0
801005d8:	801f023c 	lui	v0,0x1f80
801005dc:	3c01508c 	lw	s0,316(v0)
801005e0:	801f023c 	lui	v0,0x1f80
801005e4:	44014290 	lbu	v0,324(v0)
801005e8:	00000000 	nop
801005ec:	820122a2 	sb	v0,386(s1)
801005f0:	ff004230 	andi	v0,v0,0xff
801005f4:	3f004010 	beqz	v0,0x801006f4
801005f8:	801f033c 	lui	v1,0x1f80
801005fc:	82012292 	lbu	v0,386(s1)
80100600:	0000058e 	lw	a1,0(s0)
80100604:	ffff4224 	addiu	v0,v0,-1
80100608:	820122a2 	sb	v0,386(s1)
8010060c:	0000a290 	lbu	v0,0(a1)
80100610:	00000000 	nop
80100614:	01004230 	andi	v0,v0,0x1
80100618:	07004010 	beqz	v0,0x80100638
8010061c:	04001026 	addiu	s0,s0,4
80100620:	0200a290 	lbu	v0,2(a1)
80100624:	00000000 	nop
80100628:	04005414 	bne	v0,s4,0x8010063c
8010062c:	801f023c 	lui	v0,0x1f80
80100630:	8f90000c 	jal	0x8002423c
80100634:	21204002 	move	a0,s2
80100638:	801f023c 	lui	v0,0x1f80
8010063c:	82014290 	lbu	v0,386(v0)
80100640:	00000000 	nop
80100644:	edff4014 	bnez	v0,0x801005fc
80100648:	801f033c 	lui	v1,0x1f80
8010064c:	a4250408 	j	0x80109690
80100650:	00000000 	nop
80100654:	801f023c 	lui	v0,0x1f80
80100658:	50014290 	lbu	v0,336(v0)
8010065c:	84250408 	j	0x80109610
80100660:	820122a2 	sb	v0,386(s1)
80100664:	82012292 	lbu	v0,386(s1)
80100668:	00000000 	nop
8010066c:	ffff4224 	addiu	v0,v0,-1
80100670:	820122a2 	sb	v0,386(s1)
80100674:	ff004230 	andi	v0,v0,0xff
80100678:	faff4014 	bnez	v0,0x80100664
8010067c:	801f023c 	lui	v0,0x1f80
80100680:	3c01508c 	lw	s0,316(v0)
80100684:	801f023c 	lui	v0,0x1f80
80100688:	44014290 	lbu	v0,324(v0)
8010068c:	00000000 	nop
80100690:	820122a2 	sb	v0,386(s1)
80100694:	ff004230 	andi	v0,v0,0xff
80100698:	16004010 	beqz	v0,0x801006f4
8010069c:	801f033c 	lui	v1,0x1f80
801006a0:	82012292 	lbu	v0,386(s1)
801006a4:	0000058e 	lw	a1,0(s0)
801006a8:	ffff4224 	addiu	v0,v0,-1
801006ac:	820122a2 	sb	v0,386(s1)
801006b0:	0000a290 	lbu	v0,0(a1)
801006b4:	00000000 	nop
801006b8:	01004230 	andi	v0,v0,0x1
801006bc:	07004010 	beqz	v0,0x801006dc
801006c0:	04001026 	addiu	s0,s0,4
801006c4:	0200a290 	lbu	v0,2(a1)
801006c8:	00000000 	nop
801006cc:	04005414 	bne	v0,s4,0x801006e0
801006d0:	801f023c 	lui	v0,0x1f80
801006d4:	8f90000c 	jal	0x8002423c
801006d8:	21204002 	move	a0,s2
801006dc:	801f023c 	lui	v0,0x1f80
801006e0:	82014290 	lbu	v0,386(v0)
801006e4:	00000000 	nop
801006e8:	edff4014 	bnez	v0,0x801006a0
801006ec:	00000000 	nop
801006f0:	801f033c 	lui	v1,0x1f80
801006f4:	83016290 	lbu	v0,387(v1)
801006f8:	00000000 	nop
801006fc:	91ff4014 	bnez	v0,0x80100544
80100700:	00000000 	nop
80100704:	2400bf8f 	lw	ra,36(sp)
80100708:	2000b48f 	lw	s4,32(sp)
8010070c:	1c00b38f 	lw	s3,28(sp)
80100710:	1800b28f 	lw	s2,24(sp)
80100714:	1400b18f 	lw	s1,20(sp)
80100718:	1000b08f 	lw	s0,16(sp)
8010071c:	0800e003 	jr	ra
80100720:	2800bd27 	addiu	sp,sp,40
80100724:	d8ffbd27 	addiu	sp,sp,-40
80100728:	1000b0af 	sw	s0,16(sp)
8010072c:	0e80103c 	lui	s0,0x800e
80100730:	1c00b3af 	sw	s3,28(sp)
80100734:	807e1326 	addiu	s3,s0,32384
80100738:	21206002 	move	a0,s3
8010073c:	2400bfaf 	sw	ra,36(sp)
80100740:	2000b4af 	sw	s4,32(sp)
80100744:	1800b2af 	sw	s2,24(sp)
80100748:	238a000c 	jal	0x8002288c
8010074c:	1400b1af 	sw	s1,20(sp)
80100750:	807e0392 	lbu	v1,32384(s0)
80100754:	00000000 	nop
80100758:	0800622c 	sltiu	v0,v1,8
8010075c:	40004010 	beqz	v0,0x80100860
80100760:	1180023c 	lui	v0,0x8011
80100764:	a08f4224 	addiu	v0,v0,-28768
80100768:	80180300 	sll	v1,v1,0x2
8010076c:	21186200 	addu	v1,v1,v0
80100770:	0000628c 	lw	v0,0(v1)
80100774:	00000000 	nop
80100778:	08004000 	jr	v0
8010077c:	00000000 	nop
80100780:	5801628e 	lw	v0,344(s3)
80100784:	00000000 	nop
80100788:	0200422c 	sltiu	v0,v0,2
8010078c:	92004010 	beqz	v0,0x801009d8
80100790:	801f023c 	lui	v0,0x1f80
80100794:	4801508c 	lw	s0,328(v0)
80100798:	801f023c 	lui	v0,0x1f80
8010079c:	50014290 	lbu	v0,336(v0)
801007a0:	801f033c 	lui	v1,0x1f80
801007a4:	820162a0 	sb	v0,386(v1)
801007a8:	ff004230 	andi	v0,v0,0xff
801007ac:	8a004010 	beqz	v0,0x801009d8
801007b0:	1180023c 	lui	v0,0x8011
801007b4:	21886000 	move	s1,v1
801007b8:	c08f5224 	addiu	s2,v0,-28736
801007bc:	82012292 	lbu	v0,386(s1)
801007c0:	0000058e 	lw	a1,0(s0)
801007c4:	ffff4224 	addiu	v0,v0,-1
801007c8:	820122a2 	sb	v0,386(s1)
801007cc:	0000a290 	lbu	v0,0(a1)
801007d0:	00000000 	nop
801007d4:	01004230 	andi	v0,v0,0x1
801007d8:	1a004010 	beqz	v0,0x80100844
801007dc:	04001026 	addiu	s0,s0,4
801007e0:	0200a290 	lbu	v0,2(a1)
801007e4:	00000000 	nop
801007e8:	f4ff4324 	addiu	v1,v0,-12
801007ec:	1500622c 	sltiu	v0,v1,21
801007f0:	14004010 	beqz	v0,0x80100844
801007f4:	80100300 	sll	v0,v1,0x2
801007f8:	21105200 	addu	v0,v0,s2
801007fc:	0000428c 	lw	v0,0(v0)
80100800:	00000000 	nop
80100804:	08004000 	jr	v0
80100808:	00000000 	nop
8010080c:	b87e000c 	jal	0x8001fae0
80100810:	21206002 	move	a0,s3
80100814:	f9250408 	j	0x801097e4
80100818:	801f033c 	lui	v1,0x1f80
8010081c:	1a82000c 	jal	0x80020868
80100820:	21206002 	move	a0,s3
80100824:	f9250408 	j	0x801097e4
80100828:	801f033c 	lui	v1,0x1f80
8010082c:	d98d000c 	jal	0x80023764
80100830:	21206002 	move	a0,s3
80100834:	f9250408 	j	0x801097e4
80100838:	801f033c 	lui	v1,0x1f80
8010083c:	478c000c 	jal	0x8002311c
80100840:	21206002 	move	a0,s3
80100844:	801f033c 	lui	v1,0x1f80
80100848:	82016290 	lbu	v0,386(v1)
8010084c:	00000000 	nop
80100850:	61004010 	beqz	v0,0x801009d8
80100854:	00000000 	nop
80100858:	d6250408 	j	0x80109758
8010085c:	00000000 	nop
80100860:	d889000c 	jal	0x80022760
80100864:	21206002 	move	a0,s3
80100868:	801f023c 	lui	v0,0x1f80
8010086c:	3c01508c 	lw	s0,316(v0)
80100870:	801f023c 	lui	v0,0x1f80
80100874:	44014290 	lbu	v0,324(v0)
80100878:	801f033c 	lui	v1,0x1f80
8010087c:	820162a0 	sb	v0,386(v1)
80100880:	ff004230 	andi	v0,v0,0xff
80100884:	1e004010 	beqz	v0,0x80100900
80100888:	00000000 	nop
8010088c:	21886000 	move	s1,v1
80100890:	82012292 	lbu	v0,386(s1)
80100894:	0000058e 	lw	a1,0(s0)
80100898:	ffff4224 	addiu	v0,v0,-1
8010089c:	820122a2 	sb	v0,386(s1)
801008a0:	0000a290 	lbu	v0,0(a1)
801008a4:	00000000 	nop
801008a8:	01004230 	andi	v0,v0,0x1
801008ac:	0f004010 	beqz	v0,0x801008ec
801008b0:	04001026 	addiu	s0,s0,4
801008b4:	0c00a390 	lbu	v1,12(a1)
801008b8:	09000224 	li	v0,9
801008bc:	05006214 	bne	v1,v0,0x801008d4
801008c0:	08000224 	li	v0,8
801008c4:	3c24040c 	jal	0x801090f0
801008c8:	21206002 	move	a0,s3
801008cc:	23260408 	j	0x8010988c
801008d0:	801f033c 	lui	v1,0x1f80
801008d4:	0200a390 	lbu	v1,2(a1)
801008d8:	00000000 	nop
801008dc:	04006214 	bne	v1,v0,0x801008f0
801008e0:	801f033c 	lui	v1,0x1f80
801008e4:	7381000c 	jal	0x800205cc
801008e8:	21206002 	move	a0,s3
801008ec:	801f033c 	lui	v1,0x1f80
801008f0:	82016290 	lbu	v0,386(v1)
801008f4:	00000000 	nop
801008f8:	e5ff4014 	bnez	v0,0x80100890
801008fc:	00000000 	nop
80100900:	5801628e 	lw	v0,344(s3)
80100904:	00000000 	nop
80100908:	0200422c 	sltiu	v0,v0,2
8010090c:	32004010 	beqz	v0,0x801009d8
80100910:	801f023c 	lui	v0,0x1f80
80100914:	4801508c 	lw	s0,328(v0)
80100918:	801f023c 	lui	v0,0x1f80
8010091c:	50014290 	lbu	v0,336(v0)
80100920:	801f033c 	lui	v1,0x1f80
80100924:	820162a0 	sb	v0,386(v1)
80100928:	ff004230 	andi	v0,v0,0xff
8010092c:	2a004010 	beqz	v0,0x801009d8
80100930:	1180023c 	lui	v0,0x8011
80100934:	21886000 	move	s1,v1
80100938:	18905224 	addiu	s2,v0,-28648
8010093c:	82012292 	lbu	v0,386(s1)
80100940:	0000058e 	lw	a1,0(s0)
80100944:	ffff4224 	addiu	v0,v0,-1
80100948:	820122a2 	sb	v0,386(s1)
8010094c:	0000a290 	lbu	v0,0(a1)
80100950:	00000000 	nop
80100954:	01004230 	andi	v0,v0,0x1
80100958:	1a004010 	beqz	v0,0x801009c4
8010095c:	04001026 	addiu	s0,s0,4
80100960:	0200a290 	lbu	v0,2(a1)
80100964:	00000000 	nop
80100968:	f4ff4324 	addiu	v1,v0,-12
8010096c:	1500622c 	sltiu	v0,v1,21
80100970:	14004010 	beqz	v0,0x801009c4
80100974:	80100300 	sll	v0,v1,0x2
80100978:	21105200 	addu	v0,v0,s2
8010097c:	0000428c 	lw	v0,0(v0)
80100980:	00000000 	nop
80100984:	08004000 	jr	v0
80100988:	00000000 	nop
8010098c:	b87e000c 	jal	0x8001fae0
80100990:	21206002 	move	a0,s3
80100994:	59260408 	j	0x80109964
80100998:	801f033c 	lui	v1,0x1f80
8010099c:	1a82000c 	jal	0x80020868
801009a0:	21206002 	move	a0,s3
801009a4:	59260408 	j	0x80109964
801009a8:	801f033c 	lui	v1,0x1f80
801009ac:	d98d000c 	jal	0x80023764
801009b0:	21206002 	move	a0,s3
801009b4:	59260408 	j	0x80109964
801009b8:	801f033c 	lui	v1,0x1f80
801009bc:	478c000c 	jal	0x8002311c
801009c0:	21206002 	move	a0,s3
801009c4:	801f033c 	lui	v1,0x1f80
801009c8:	82016290 	lbu	v0,386(v1)
801009cc:	00000000 	nop
801009d0:	daff4014 	bnez	v0,0x8010093c
801009d4:	00000000 	nop
801009d8:	5589000c 	jal	0x80022554
801009dc:	00000000 	nop
801009e0:	801f023c 	lui	v0,0x1f80
801009e4:	44014284 	lh	v0,324(v0)
801009e8:	00000000 	nop
801009ec:	31004010 	beqz	v0,0x80100ab4
801009f0:	0f80023c 	lui	v0,0x800f
801009f4:	3827518c 	lw	s1,10040(v0)
801009f8:	00000000 	nop
801009fc:	2d002012 	beqz	s1,0x80100ab4
80100a00:	00000000 	nop
80100a04:	801f123c 	lui	s2,0x1f80
80100a08:	08001424 	li	s4,8
80100a0c:	00002292 	lbu	v0,0(s1)
80100a10:	00000000 	nop
80100a14:	01004230 	andi	v0,v0,0x1
80100a18:	22004010 	beqz	v0,0x80100aa4
80100a1c:	00000000 	nop
80100a20:	2b002292 	lbu	v0,43(s1)
80100a24:	00000000 	nop
80100a28:	1e004014 	bnez	v0,0x80100aa4
80100a2c:	801f023c 	lui	v0,0x1f80
80100a30:	3c01508c 	lw	s0,316(v0)
80100a34:	801f023c 	lui	v0,0x1f80
80100a38:	44014290 	lbu	v0,324(v0)
80100a3c:	00000000 	nop
80100a40:	820142a2 	sb	v0,386(s2)
80100a44:	ff004230 	andi	v0,v0,0xff
80100a48:	16004010 	beqz	v0,0x80100aa4
80100a4c:	00000000 	nop
80100a50:	82014292 	lbu	v0,386(s2)
80100a54:	0000058e 	lw	a1,0(s0)
80100a58:	ffff4224 	addiu	v0,v0,-1
80100a5c:	820142a2 	sb	v0,386(s2)
80100a60:	0000a290 	lbu	v0,0(a1)
80100a64:	00000000 	nop
80100a68:	01004230 	andi	v0,v0,0x1
80100a6c:	08004010 	beqz	v0,0x80100a90
80100a70:	04001026 	addiu	s0,s0,4
80100a74:	0200a290 	lbu	v0,2(a1)
80100a78:	00000000 	nop
80100a7c:	05005414 	bne	v0,s4,0x80100a94
80100a80:	801f023c 	lui	v0,0x1f80
80100a84:	21202002 	move	a0,s1
80100a88:	e584000c 	jal	0x80021394
80100a8c:	00010624 	li	a2,256
80100a90:	801f023c 	lui	v0,0x1f80
80100a94:	82014290 	lbu	v0,386(v0)
80100a98:	00000000 	nop
80100a9c:	ecff4014 	bnez	v0,0x80100a50
80100aa0:	00000000 	nop
80100aa4:	2400318e 	lw	s1,36(s1)
80100aa8:	00000000 	nop
80100aac:	d7ff2016 	bnez	s1,0x80100a0c
80100ab0:	00000000 	nop
80100ab4:	ba24040c 	jal	0x801092e8
80100ab8:	00000000 	nop
80100abc:	2725040c 	jal	0x8010949c
80100ac0:	00000000 	nop
80100ac4:	0c80023c 	lui	v0,0x800c
80100ac8:	08f84324 	addiu	v1,v0,-2040
80100acc:	0e006290 	lbu	v0,14(v1)
80100ad0:	00000000 	nop
80100ad4:	11004010 	beqz	v0,0x80100b1c
80100ad8:	00000000 	nop
80100adc:	45016292 	lbu	v0,325(s3)
80100ae0:	0a006594 	lhu	a1,10(v1)
80100ae4:	01004230 	andi	v0,v0,0x1
80100ae8:	0c004014 	bnez	v0,0x80100b1c
80100aec:	00140500 	sll	v0,a1,0x10
80100af0:	03140200 	sra	v0,v0,0x10
80100af4:	62006486 	lh	a0,98(s3)
80100af8:	32006386 	lh	v1,50(s3)
80100afc:	23104400 	subu	v0,v0,a0
80100b00:	2a186200 	slt	v1,v1,v0
80100b04:	62006296 	lhu	v0,98(s3)
80100b08:	04006014 	bnez	v1,0x80100b1c
80100b0c:	2310a200 	subu	v0,a1,v0
80100b10:	320062a6 	sh	v0,50(s3)
80100b14:	1e8b000c 	jal	0x80022c78
80100b18:	21206002 	move	a0,s3
80100b1c:	2400bf8f 	lw	ra,36(sp)
80100b20:	2000b48f 	lw	s4,32(sp)
80100b24:	1c00b38f 	lw	s3,28(sp)
80100b28:	1800b28f 	lw	s2,24(sp)
80100b2c:	1400b18f 	lw	s1,20(sp)
80100b30:	1000b08f 	lw	s0,16(sp)
80100b34:	0800e003 	jr	ra
80100b38:	2800bd27 	addiu	sp,sp,40
80100b3c:	e8ffbd27 	addiu	sp,sp,-24
80100b40:	21288000 	move	a1,a0
80100b44:	0c80033c 	lui	v1,0x800c
80100b48:	1000bfaf 	sw	ra,16(sp)
80100b4c:	4501a290 	lbu	v0,325(a1)
80100b50:	12f86694 	lhu	a2,-2030(v1)
80100b54:	01004230 	andi	v0,v0,0x1
80100b58:	0c004014 	bnez	v0,0x80100b8c
80100b5c:	00140600 	sll	v0,a2,0x10
80100b60:	03140200 	sra	v0,v0,0x10
80100b64:	6200a484 	lh	a0,98(a1)
80100b68:	3200a384 	lh	v1,50(a1)
80100b6c:	23104400 	subu	v0,v0,a0
80100b70:	2a186200 	slt	v1,v1,v0
80100b74:	6200a294 	lhu	v0,98(a1)
80100b78:	04006014 	bnez	v1,0x80100b8c
80100b7c:	2310c200 	subu	v0,a2,v0
80100b80:	3200a2a4 	sh	v0,50(a1)
80100b84:	1e8b000c 	jal	0x80022c78
80100b88:	2120a000 	move	a0,a1
80100b8c:	1000bf8f 	lw	ra,16(sp)
80100b90:	00000000 	nop
80100b94:	0800e003 	jr	ra
80100b98:	1800bd27 	addiu	sp,sp,24
80100b9c:	e8ffbd27 	addiu	sp,sp,-24
80100ba0:	0c80023c 	lui	v0,0x800c
80100ba4:	08f84324 	addiu	v1,v0,-2040
80100ba8:	1000bfaf 	sw	ra,16(sp)
80100bac:	0e006290 	lbu	v0,14(v1)
80100bb0:	00000000 	nop
80100bb4:	11004010 	beqz	v0,0x80100bfc
80100bb8:	21288000 	move	a1,a0
80100bbc:	4501a290 	lbu	v0,325(a1)
80100bc0:	0a006694 	lhu	a2,10(v1)
80100bc4:	01004230 	andi	v0,v0,0x1
80100bc8:	0c004014 	bnez	v0,0x80100bfc
80100bcc:	00140600 	sll	v0,a2,0x10
80100bd0:	03140200 	sra	v0,v0,0x10
80100bd4:	6200a484 	lh	a0,98(a1)
80100bd8:	3200a384 	lh	v1,50(a1)
80100bdc:	23104400 	subu	v0,v0,a0
80100be0:	2a186200 	slt	v1,v1,v0
80100be4:	6200a294 	lhu	v0,98(a1)
80100be8:	04006014 	bnez	v1,0x80100bfc
80100bec:	2310c200 	subu	v0,a2,v0
80100bf0:	3200a2a4 	sh	v0,50(a1)
80100bf4:	1e8b000c 	jal	0x80022c78
80100bf8:	2120a000 	move	a0,a1
80100bfc:	1000bf8f 	lw	ra,16(sp)
80100c00:	00000000 	nop
80100c04:	0800e003 	jr	ra
80100c08:	1800bd27 	addiu	sp,sp,24
80100c0c:	e0ffbd27 	addiu	sp,sp,-32
80100c10:	1800b2af 	sw	s2,24(sp)
80100c14:	801f023c 	lui	v0,0x1f80
80100c18:	1000b0af 	sw	s0,16(sp)
80100c1c:	3c01508c 	lw	s0,316(v0)
80100c20:	801f023c 	lui	v0,0x1f80
80100c24:	44014290 	lbu	v0,324(v0)
80100c28:	801f033c 	lui	v1,0x1f80
80100c2c:	1c00bfaf 	sw	ra,28(sp)
80100c30:	1400b1af 	sw	s1,20(sp)
80100c34:	820162a0 	sb	v0,386(v1)
80100c38:	ff004230 	andi	v0,v0,0xff
80100c3c:	1e004010 	beqz	v0,0x80100cb8
80100c40:	21908000 	move	s2,a0
80100c44:	21886000 	move	s1,v1
80100c48:	82012292 	lbu	v0,386(s1)
80100c4c:	0000058e 	lw	a1,0(s0)
80100c50:	ffff4224 	addiu	v0,v0,-1
80100c54:	820122a2 	sb	v0,386(s1)
80100c58:	0000a290 	lbu	v0,0(a1)
80100c5c:	00000000 	nop
80100c60:	01004230 	andi	v0,v0,0x1
80100c64:	0f004010 	beqz	v0,0x80100ca4
80100c68:	04001026 	addiu	s0,s0,4
80100c6c:	0c00a390 	lbu	v1,12(a1)
80100c70:	09000224 	li	v0,9
80100c74:	05006214 	bne	v1,v0,0x80100c8c
80100c78:	08000224 	li	v0,8
80100c7c:	3c24040c 	jal	0x801090f0
80100c80:	21204002 	move	a0,s2
80100c84:	11270408 	j	0x80109c44
80100c88:	801f033c 	lui	v1,0x1f80
80100c8c:	0200a390 	lbu	v1,2(a1)
80100c90:	00000000 	nop
80100c94:	04006214 	bne	v1,v0,0x80100ca8
80100c98:	801f033c 	lui	v1,0x1f80
80100c9c:	7381000c 	jal	0x800205cc
80100ca0:	21204002 	move	a0,s2
80100ca4:	801f033c 	lui	v1,0x1f80
80100ca8:	82016290 	lbu	v0,386(v1)
80100cac:	00000000 	nop
80100cb0:	e5ff4014 	bnez	v0,0x80100c48
80100cb4:	00000000 	nop
80100cb8:	1c00bf8f 	lw	ra,28(sp)
80100cbc:	1800b28f 	lw	s2,24(sp)
80100cc0:	1400b18f 	lw	s1,20(sp)
80100cc4:	1000b08f 	lw	s0,16(sp)
80100cc8:	0800e003 	jr	ra
80100ccc:	2000bd27 	addiu	sp,sp,32
80100cd0:	d8ffbd27 	addiu	sp,sp,-40
80100cd4:	1000b0af 	sw	s0,16(sp)
80100cd8:	801f023c 	lui	v0,0x1f80
80100cdc:	1400b1af 	sw	s1,20(sp)
80100ce0:	4801518c 	lw	s1,328(v0)
80100ce4:	801f023c 	lui	v0,0x1f80
80100ce8:	50014290 	lbu	v0,336(v0)
80100cec:	801f033c 	lui	v1,0x1f80
80100cf0:	2000bfaf 	sw	ra,32(sp)
80100cf4:	1c00b3af 	sw	s3,28(sp)
80100cf8:	1800b2af 	sw	s2,24(sp)
80100cfc:	820162a0 	sb	v0,386(v1)
80100d00:	ff004230 	andi	v0,v0,0xff
80100d04:	2b004010 	beqz	v0,0x80100db4
80100d08:	21808000 	move	s0,a0
80100d0c:	21906000 	move	s2,v1
80100d10:	1180023c 	lui	v0,0x8011
80100d14:	70905324 	addiu	s3,v0,-28560
80100d18:	82014292 	lbu	v0,386(s2)
80100d1c:	0000258e 	lw	a1,0(s1)
80100d20:	ffff4224 	addiu	v0,v0,-1
80100d24:	820142a2 	sb	v0,386(s2)
80100d28:	0000a290 	lbu	v0,0(a1)
80100d2c:	00000000 	nop
80100d30:	01004230 	andi	v0,v0,0x1
80100d34:	1a004010 	beqz	v0,0x80100da0
80100d38:	04003126 	addiu	s1,s1,4
80100d3c:	0200a290 	lbu	v0,2(a1)
80100d40:	00000000 	nop
80100d44:	f4ff4324 	addiu	v1,v0,-12
80100d48:	1500622c 	sltiu	v0,v1,21
80100d4c:	14004010 	beqz	v0,0x80100da0
80100d50:	80100300 	sll	v0,v1,0x2
80100d54:	21105300 	addu	v0,v0,s3
80100d58:	0000428c 	lw	v0,0(v0)
80100d5c:	00000000 	nop
80100d60:	08004000 	jr	v0
80100d64:	00000000 	nop
80100d68:	b87e000c 	jal	0x8001fae0
80100d6c:	21200002 	move	a0,s0
80100d70:	50270408 	j	0x80109d40
80100d74:	801f033c 	lui	v1,0x1f80
80100d78:	1a82000c 	jal	0x80020868
80100d7c:	21200002 	move	a0,s0
80100d80:	50270408 	j	0x80109d40
80100d84:	801f033c 	lui	v1,0x1f80
80100d88:	d98d000c 	jal	0x80023764
80100d8c:	21200002 	move	a0,s0
80100d90:	50270408 	j	0x80109d40
80100d94:	801f033c 	lui	v1,0x1f80
80100d98:	478c000c 	jal	0x8002311c
80100d9c:	21200002 	move	a0,s0
80100da0:	801f033c 	lui	v1,0x1f80
80100da4:	82016290 	lbu	v0,386(v1)
80100da8:	00000000 	nop
80100dac:	daff4014 	bnez	v0,0x80100d18
80100db0:	00000000 	nop
80100db4:	2000bf8f 	lw	ra,32(sp)
80100db8:	1c00b38f 	lw	s3,28(sp)
80100dbc:	1800b28f 	lw	s2,24(sp)
80100dc0:	1400b18f 	lw	s1,20(sp)
80100dc4:	1000b08f 	lw	s0,16(sp)
80100dc8:	0800e003 	jr	ra
80100dcc:	2800bd27 	addiu	sp,sp,40
80100dd0:	801f023c 	lui	v0,0x1f80
80100dd4:	44014284 	lh	v0,324(v0)
80100dd8:	d8ffbd27 	addiu	sp,sp,-40
80100ddc:	2000bfaf 	sw	ra,32(sp)
80100de0:	1c00b3af 	sw	s3,28(sp)
80100de4:	1800b2af 	sw	s2,24(sp)
80100de8:	1400b1af 	sw	s1,20(sp)
80100dec:	31004010 	beqz	v0,0x80100eb4
80100df0:	1000b0af 	sw	s0,16(sp)
80100df4:	0f80023c 	lui	v0,0x800f
80100df8:	3827518c 	lw	s1,10040(v0)
80100dfc:	00000000 	nop
80100e00:	2c002012 	beqz	s1,0x80100eb4
80100e04:	801f123c 	lui	s2,0x1f80
80100e08:	08001324 	li	s3,8
80100e0c:	00002292 	lbu	v0,0(s1)
80100e10:	00000000 	nop
80100e14:	01004230 	andi	v0,v0,0x1
80100e18:	22004010 	beqz	v0,0x80100ea4
80100e1c:	00000000 	nop
80100e20:	2b002292 	lbu	v0,43(s1)
80100e24:	00000000 	nop
80100e28:	1e004014 	bnez	v0,0x80100ea4
80100e2c:	801f023c 	lui	v0,0x1f80
80100e30:	3c01508c 	lw	s0,316(v0)
80100e34:	801f023c 	lui	v0,0x1f80
80100e38:	44014290 	lbu	v0,324(v0)
80100e3c:	00000000 	nop
80100e40:	820142a2 	sb	v0,386(s2)
80100e44:	ff004230 	andi	v0,v0,0xff
80100e48:	16004010 	beqz	v0,0x80100ea4
80100e4c:	00000000 	nop
80100e50:	82014292 	lbu	v0,386(s2)
80100e54:	0000058e 	lw	a1,0(s0)
80100e58:	ffff4224 	addiu	v0,v0,-1
80100e5c:	820142a2 	sb	v0,386(s2)
80100e60:	0000a290 	lbu	v0,0(a1)
80100e64:	00000000 	nop
80100e68:	01004230 	andi	v0,v0,0x1
80100e6c:	08004010 	beqz	v0,0x80100e90
80100e70:	04001026 	addiu	s0,s0,4
80100e74:	0200a290 	lbu	v0,2(a1)
80100e78:	00000000 	nop
80100e7c:	05005314 	bne	v0,s3,0x80100e94
80100e80:	801f023c 	lui	v0,0x1f80
80100e84:	21202002 	move	a0,s1
80100e88:	e584000c 	jal	0x80021394
80100e8c:	00010624 	li	a2,256
80100e90:	801f023c 	lui	v0,0x1f80
80100e94:	82014290 	lbu	v0,386(v0)
80100e98:	00000000 	nop
80100e9c:	ecff4014 	bnez	v0,0x80100e50
80100ea0:	00000000 	nop
80100ea4:	2400318e 	lw	s1,36(s1)
80100ea8:	00000000 	nop
80100eac:	d7ff2016 	bnez	s1,0x80100e0c
80100eb0:	00000000 	nop
80100eb4:	2000bf8f 	lw	ra,32(sp)
80100eb8:	1c00b38f 	lw	s3,28(sp)
80100ebc:	1800b28f 	lw	s2,24(sp)
80100ec0:	1400b18f 	lw	s1,20(sp)
80100ec4:	1000b08f 	lw	s0,16(sp)
80100ec8:	0800e003 	jr	ra
80100ecc:	2800bd27 	addiu	sp,sp,40
80100ed0:	d8ffbd27 	addiu	sp,sp,-40
80100ed4:	1c00b3af 	sw	s3,28(sp)
80100ed8:	21988000 	move	s3,a0
80100edc:	801f023c 	lui	v0,0x1f80
80100ee0:	50014290 	lbu	v0,336(v0)
80100ee4:	801f033c 	lui	v1,0x1f80
80100ee8:	2000bfaf 	sw	ra,32(sp)
80100eec:	1800b2af 	sw	s2,24(sp)
80100ef0:	1400b1af 	sw	s1,20(sp)
80100ef4:	a9270408 	j	0x80109ea4
80100ef8:	1000b0af 	sw	s0,16(sp)
80100efc:	82016290 	lbu	v0,386(v1)
80100f00:	00000000 	nop
80100f04:	ffff4224 	addiu	v0,v0,-1
80100f08:	820162a0 	sb	v0,386(v1)
80100f0c:	ff004230 	andi	v0,v0,0xff
80100f10:	faff4014 	bnez	v0,0x80100efc
80100f14:	801f023c 	lui	v0,0x1f80
80100f18:	3c01508c 	lw	s0,316(v0)
80100f1c:	801f023c 	lui	v0,0x1f80
80100f20:	44014290 	lbu	v0,324(v0)
80100f24:	801f033c 	lui	v1,0x1f80
80100f28:	820162a0 	sb	v0,386(v1)
80100f2c:	ff004230 	andi	v0,v0,0xff
80100f30:	16004010 	beqz	v0,0x80100f8c
80100f34:	21886000 	move	s1,v1
80100f38:	08001224 	li	s2,8
80100f3c:	82012292 	lbu	v0,386(s1)
80100f40:	0000058e 	lw	a1,0(s0)
80100f44:	ffff4224 	addiu	v0,v0,-1
80100f48:	820122a2 	sb	v0,386(s1)
80100f4c:	0000a290 	lbu	v0,0(a1)
80100f50:	00000000 	nop
80100f54:	01004230 	andi	v0,v0,0x1
80100f58:	07004010 	beqz	v0,0x80100f78
80100f5c:	04001026 	addiu	s0,s0,4
80100f60:	0200a290 	lbu	v0,2(a1)
80100f64:	00000000 	nop
80100f68:	04005214 	bne	v0,s2,0x80100f7c
80100f6c:	801f033c 	lui	v1,0x1f80
80100f70:	8f90000c 	jal	0x8002423c
80100f74:	21206002 	move	a0,s3
80100f78:	801f033c 	lui	v1,0x1f80
80100f7c:	82016290 	lbu	v0,386(v1)
80100f80:	00000000 	nop
80100f84:	edff4014 	bnez	v0,0x80100f3c
80100f88:	00000000 	nop
80100f8c:	2000bf8f 	lw	ra,32(sp)
80100f90:	1c00b38f 	lw	s3,28(sp)
80100f94:	1800b28f 	lw	s2,24(sp)
80100f98:	1400b18f 	lw	s1,20(sp)
80100f9c:	1000b08f 	lw	s0,16(sp)
80100fa0:	0800e003 	jr	ra
80100fa4:	2800bd27 	addiu	sp,sp,40
80100fa8:	801f023c 	lui	v0,0x1f80
80100fac:	52014290 	lbu	v0,338(v0)
80100fb0:	d8270408 	j	0x80109f60
80100fb4:	801f033c 	lui	v1,0x1f80
80100fb8:	82016290 	lbu	v0,386(v1)
80100fbc:	00000000 	nop
80100fc0:	ffff4224 	addiu	v0,v0,-1
80100fc4:	820162a0 	sb	v0,386(v1)
80100fc8:	ff004230 	andi	v0,v0,0xff
80100fcc:	faff4014 	bnez	v0,0x80100fb8
80100fd0:	801f023c 	lui	v0,0x1f80
80100fd4:	8000428c 	lw	v0,128(v0)
80100fd8:	0800e003 	jr	ra
80100fdc:	00000000 	nop
80100fe0:	e0ffbd27 	addiu	sp,sp,-32
80100fe4:	1400b1af 	sw	s1,20(sp)
80100fe8:	21888000 	move	s1,a0
80100fec:	1800bfaf 	sw	ra,24(sp)
80100ff0:	1000b0af 	sw	s0,16(sp)
80100ff4:	06002392 	lbu	v1,6(s1)
80100ff8:	00000000 	nop
80100ffc:	0500622c 	sltiu	v0,v1,5
80101000:	66014010 	beqz	v0,0x8010159c
80101004:	1180023c 	lui	v0,0x8011
80101008:	c4904224 	addiu	v0,v0,-28476
8010100c:	80180300 	sll	v1,v1,0x2
80101010:	21186200 	addu	v1,v1,v0
80101014:	0000628c 	lw	v0,0(v1)
80101018:	00000000 	nop
8010101c:	08004000 	jr	v0
80101020:	00000000 	nop
80101024:	21202002 	move	a0,s1
80101028:	450120a2 	sb	zero,325(s1)
8010102c:	644f010c 	jal	0x80053d90
80101030:	460120a2 	sb	zero,326(s1)
80101034:	21202002 	move	a0,s1
80101038:	21280000 	move	a1,zero
8010103c:	8953010c 	jal	0x80054e24
80101040:	2130a000 	move	a2,a1
80101044:	32002296 	lhu	v0,50(s1)
80101048:	21202002 	move	a0,s1
8010104c:	4a0020a6 	sh	zero,74(s1)
80101050:	500020a6 	sh	zero,80(s1)
80101054:	480120a2 	sb	zero,328(s1)
80101058:	08004224 	addiu	v0,v0,8
8010105c:	1351010c 	jal	0x8005444c
80101060:	320022a6 	sh	v0,50(s1)
80101064:	42012286 	lh	v0,322(s1)
80101068:	00000000 	nop
8010106c:	11004014 	bnez	v0,0x801010b4
80101070:	290020a2 	sb	zero,41(s1)
80101074:	44002386 	lh	v1,68(s1)
80101078:	44002296 	lhu	v0,68(s1)
8010107c:	07006014 	bnez	v1,0x8010109c
80101080:	00000000 	nop
80101084:	47012292 	lbu	v0,327(s1)
80101088:	00000000 	nop
8010108c:	0c004014 	bnez	v0,0x801010c0
80101090:	00ec0224 	li	v0,-5120
80101094:	17280408 	j	0x8010a05c
80101098:	00140224 	li	v0,5120
8010109c:	03006018 	blez	v1,0x801010ac
801010a0:	00000000 	nop
801010a4:	17280408 	j	0x8010a05c
801010a8:	00024224 	addiu	v0,v0,512
801010ac:	17280408 	j	0x8010a05c
801010b0:	00fe4224 	addiu	v0,v0,-512
801010b4:	0200401c 	bgtz	v0,0x801010c0
801010b8:	00140224 	li	v0,5120
801010bc:	00ec0224 	li	v0,-5120
801010c0:	440022a6 	sh	v0,68(s1)
801010c4:	47012292 	lbu	v0,327(s1)
801010c8:	00000000 	nop
801010cc:	04004014 	bnez	v0,0x801010e0
801010d0:	c0070224 	li	v0,1984
801010d4:	40000224 	li	v0,64
801010d8:	21280408 	j	0x8010a084
801010dc:	4c0122a6 	sh	v0,332(s1)
801010e0:	4c0122a6 	sh	v0,332(s1)
801010e4:	c0ff0224 	li	v0,-64
801010e8:	4e0122a6 	sh	v0,334(s1)
801010ec:	47012292 	lbu	v0,327(s1)
801010f0:	06002392 	lbu	v1,6(s1)
801010f4:	400020a6 	sh	zero,64(s1)
801010f8:	02004224 	addiu	v0,v0,2
801010fc:	01006324 	addiu	v1,v1,1
80101100:	4a0122a2 	sb	v0,330(s1)
80101104:	490122a2 	sb	v0,329(s1)
80101108:	060023a2 	sb	v1,6(s1)
8010110c:	40002296 	lhu	v0,64(s1)
80101110:	00000000 	nop
80101114:	01004324 	addiu	v1,v0,1
80101118:	00140200 	sll	v0,v0,0x10
8010111c:	03140200 	sra	v0,v0,0x10
80101120:	0c004228 	slti	v0,v0,12
80101124:	02004014 	bnez	v0,0x80101130
80101128:	400023a6 	sh	v1,64(s1)
8010112c:	400020a6 	sh	zero,64(s1)
80101130:	21202002 	move	a0,s1
80101134:	d25a010c 	jal	0x80056b48
80101138:	21280000 	move	a1,zero
8010113c:	5757010c 	jal	0x80055d5c
80101140:	21202002 	move	a0,s1
80101144:	5adb010c 	jal	0x80076d68
80101148:	21202002 	move	a0,s1
8010114c:	21202002 	move	a0,s1
80101150:	32002396 	lhu	v1,50(s1)
80101154:	44002286 	lh	v0,68(s1)
80101158:	08006324 	addiu	v1,v1,8
8010115c:	02004104 	bgez	v0,0x80101168
80101160:	00000000 	nop
80101164:	23100200 	negu	v0,v0
80101168:	320023a6 	sh	v1,50(s1)
8010116c:	c21f0200 	srl	v1,v0,0x1f
80101170:	21104300 	addu	v0,v0,v1
80101174:	43100200 	sra	v0,v0,0x1
80101178:	3000238e 	lw	v1,48(s1)
8010117c:	00120200 	sll	v0,v0,0x8
80101180:	21186200 	addu	v1,v1,v0
80101184:	1351010c 	jal	0x8005444c
80101188:	300023ae 	sw	v1,48(s1)
8010118c:	21202002 	move	a0,s1
80101190:	005b010c 	jal	0x80056c00
80101194:	01000524 	li	a1,1
80101198:	42012296 	lhu	v0,322(s1)
8010119c:	44002396 	lhu	v1,68(s1)
801011a0:	00140200 	sll	v0,v0,0x10
801011a4:	43140200 	sra	v0,v0,0x11
801011a8:	21186200 	addu	v1,v1,v0
801011ac:	440023a6 	sh	v1,68(s1)
801011b0:	001c0300 	sll	v1,v1,0x10
801011b4:	47012292 	lbu	v0,327(s1)
801011b8:	c21f0300 	srl	v1,v1,0x1f
801011bc:	1e004310 	beq	v0,v1,0x80101238
801011c0:	c0071024 	li	s0,1984
801011c4:	77012292 	lbu	v0,375(s1)
801011c8:	00000000 	nop
801011cc:	01004234 	ori	v0,v0,0x1
801011d0:	02006014 	bnez	v1,0x801011dc
801011d4:	770122a2 	sb	v0,375(s1)
801011d8:	40001024 	li	s0,64
801011dc:	21200002 	move	a0,s0
801011e0:	4c012586 	lh	a1,332(s1)
801011e4:	bedd010c 	jal	0x800776f8
801011e8:	40000624 	li	a2,64
801011ec:	21184000 	move	v1,v0
801011f0:	00140300 	sll	v0,v1,0x10
801011f4:	03140200 	sra	v0,v0,0x10
801011f8:	08005014 	bne	v0,s0,0x8010121c
801011fc:	4c0123a6 	sh	v1,332(s1)
80101200:	47012392 	lbu	v1,327(s1)
80101204:	01000224 	li	v0,1
80101208:	770120a2 	sb	zero,375(s1)
8010120c:	4e0120a6 	sh	zero,334(s1)
80101210:	23104300 	subu	v0,v0,v1
80101214:	75280408 	j	0x8010a1d4
80101218:	470122a2 	sb	v0,327(s1)
8010121c:	47012292 	lbu	v0,327(s1)
80101220:	00000000 	nop
80101224:	03004010 	beqz	v0,0x80101234
80101228:	00f86224 	addiu	v0,v1,-2048
8010122c:	75280408 	j	0x8010a1d4
80101230:	4e0122a6 	sh	v0,334(s1)
80101234:	4e0123a6 	sh	v1,334(s1)
80101238:	44002386 	lh	v1,68(s1)
8010123c:	00000000 	nop
80101240:	01406228 	slti	v0,v1,16385
80101244:	03004014 	bnez	v0,0x80101254
80101248:	00c06228 	slti	v0,v1,-16384
8010124c:	7e280408 	j	0x8010a1f8
80101250:	00400224 	li	v0,16384
80101254:	02004010 	beqz	v0,0x80101260
80101258:	00c00224 	li	v0,-16384
8010125c:	440022a6 	sh	v0,68(s1)
80101260:	29002292 	lbu	v0,41(s1)
80101264:	00000000 	nop
80101268:	32004010 	beqz	v0,0x80101334
8010126c:	21202002 	move	a0,s1
80101270:	0956010c 	jal	0x80055824
80101274:	6a0120a2 	sb	zero,362(s1)
80101278:	af004014 	bnez	v0,0x80101538
8010127c:	02000224 	li	v0,2
80101280:	a84c010c 	jal	0x800532a0
80101284:	21202002 	move	a0,s1
80101288:	05004010 	beqz	v0,0x801012a0
8010128c:	00000000 	nop
80101290:	44002286 	lh	v0,68(s1)
80101294:	00000000 	nop
80101298:	c0004014 	bnez	v0,0x8010159c
8010129c:	00000000 	nop
801012a0:	44002386 	lh	v1,68(s1)
801012a4:	00000000 	nop
801012a8:	02006104 	bgez	v1,0x801012b4
801012ac:	21106000 	move	v0,v1
801012b0:	23100200 	negu	v0,v0
801012b4:	00154228 	slti	v0,v0,5376
801012b8:	04004010 	beqz	v0,0x801012cc
801012bc:	04000224 	li	v0,4
801012c0:	060022a2 	sb	v0,6(s1)
801012c4:	4e290408 	j	0x8010a538
801012c8:	070020a2 	sb	zero,7(s1)
801012cc:	06006104 	bgez	v1,0x801012e8
801012d0:	00200224 	li	v0,8192
801012d4:	00e00224 	li	v0,-8192
801012d8:	440022a6 	sh	v0,68(s1)
801012dc:	01000224 	li	v0,1
801012e0:	a3280408 	j	0x8010a28c
801012e4:	470122a2 	sb	v0,327(s1)
801012e8:	440022a6 	sh	v0,68(s1)
801012ec:	470120a2 	sb	zero,327(s1)
801012f0:	21202002 	move	a0,s1
801012f4:	69000524 	li	a1,105
801012f8:	06000624 	li	a2,6
801012fc:	03000224 	li	v0,3
80101300:	000022a2 	sb	v0,0(s1)
80101304:	3c000224 	li	v0,60
80101308:	720122a6 	sh	v0,370(s1)
8010130c:	06002292 	lbu	v0,6(s1)
80101310:	00e00324 	li	v1,-8192
80101314:	6a0120a2 	sb	zero,362(s1)
80101318:	070020a2 	sb	zero,7(s1)
8010131c:	4a0023a6 	sh	v1,74(s1)
80101320:	01004224 	addiu	v0,v0,1
80101324:	4553010c 	jal	0x80054d14
80101328:	060022a2 	sb	v0,6(s1)
8010132c:	4e290408 	j	0x8010a538
80101330:	00000000 	nop
80101334:	515b010c 	jal	0x80056d44
80101338:	21280000 	move	a1,zero
8010133c:	4e290408 	j	0x8010a538
80101340:	00000000 	nop
80101344:	44002296 	lhu	v0,68(s1)
80101348:	00000000 	nop
8010134c:	e0004224 	addiu	v0,v0,224
80101350:	440022a6 	sh	v0,68(s1)
80101354:	00140200 	sll	v0,v0,0x10
80101358:	02004004 	bltz	v0,0x80101364
8010135c:	00000000 	nop
80101360:	440020a6 	sh	zero,68(s1)
80101364:	21202002 	move	a0,s1
80101368:	d25a010c 	jal	0x80056b48
8010136c:	01000524 	li	a1,1
80101370:	5757010c 	jal	0x80055d5c
80101374:	21202002 	move	a0,s1
80101378:	5adb010c 	jal	0x80076d68
8010137c:	21202002 	move	a0,s1
80101380:	4a002296 	lhu	v0,74(s1)
80101384:	00000000 	nop
80101388:	00024224 	addiu	v0,v0,512
8010138c:	4a0022a6 	sh	v0,74(s1)
80101390:	00140200 	sll	v0,v0,0x10
80101394:	03140200 	sra	v0,v0,0x10
80101398:	013e4228 	slti	v0,v0,15873
8010139c:	03004014 	bnez	v0,0x801013ac
801013a0:	21202002 	move	a0,s1
801013a4:	003e0224 	li	v0,15872
801013a8:	4a0022a6 	sh	v0,74(s1)
801013ac:	4a002286 	lh	v0,74(s1)
801013b0:	3000238e 	lw	v1,48(s1)
801013b4:	00120200 	sll	v0,v0,0x8
801013b8:	21186200 	addu	v1,v1,v0
801013bc:	7d50010c 	jal	0x800541f4
801013c0:	300023ae 	sw	v1,48(s1)
801013c4:	4a002286 	lh	v0,74(s1)
801013c8:	00000000 	nop
801013cc:	73004018 	blez	v0,0x8010159c
801013d0:	00000000 	nop
801013d4:	07002292 	lbu	v0,7(s1)
801013d8:	00000000 	nop
801013dc:	03004014 	bnez	v0,0x801013ec
801013e0:	01000224 	li	v0,1
801013e4:	440122a2 	sb	v0,324(s1)
801013e8:	070022a2 	sb	v0,7(s1)
801013ec:	1351010c 	jal	0x8005444c
801013f0:	21202002 	move	a0,s1
801013f4:	29002292 	lbu	v0,41(s1)
801013f8:	00000000 	nop
801013fc:	67004010 	beqz	v0,0x8010159c
80101400:	00000000 	nop
80101404:	534c010c 	jal	0x8005314c
80101408:	21202002 	move	a0,s1
8010140c:	44012292 	lbu	v0,324(s1)
80101410:	00000000 	nop
80101414:	0200422c 	sltiu	v0,v0,2
80101418:	02004010 	beqz	v0,0x80101424
8010141c:	00000000 	nop
80101420:	440120a2 	sb	zero,324(s1)
80101424:	06002292 	lbu	v0,6(s1)
80101428:	21202002 	move	a0,s1
8010142c:	01004224 	addiu	v0,v0,1
80101430:	6650010c 	jal	0x80054198
80101434:	060022a2 	sb	v0,6(s1)
80101438:	21202002 	move	a0,s1
8010143c:	66000524 	li	a1,102
80101440:	4553010c 	jal	0x80054d14
80101444:	04000624 	li	a2,4
80101448:	4e290408 	j	0x8010a538
8010144c:	00000000 	nop
80101450:	5adb010c 	jal	0x80076d68
80101454:	21202002 	move	a0,s1
80101458:	02000324 	li	v1,2
8010145c:	4f004310 	beq	v0,v1,0x8010159c
80101460:	00000000 	nop
80101464:	6a0120a2 	sb	zero,362(s1)
80101468:	36290408 	j	0x8010a4d8
8010146c:	050020a2 	sb	zero,5(s1)
80101470:	21202002 	move	a0,s1
80101474:	d25a010c 	jal	0x80056b48
80101478:	21280000 	move	a1,zero
8010147c:	5757010c 	jal	0x80055d5c
80101480:	21202002 	move	a0,s1
80101484:	5adb010c 	jal	0x80076d68
80101488:	21202002 	move	a0,s1
8010148c:	32002296 	lhu	v0,50(s1)
80101490:	21202002 	move	a0,s1
80101494:	08004224 	addiu	v0,v0,8
80101498:	1351010c 	jal	0x8005444c
8010149c:	320022a6 	sh	v0,50(s1)
801014a0:	44002486 	lh	a0,68(s1)
801014a4:	00000000 	nop
801014a8:	02008104 	bgez	a0,0x801014b4
801014ac:	21108000 	move	v0,a0
801014b0:	23100200 	negu	v0,v0
801014b4:	60ff4224 	addiu	v0,v0,-160
801014b8:	21184000 	move	v1,v0
801014bc:	00140200 	sll	v0,v0,0x10
801014c0:	02004104 	bgez	v0,0x801014cc
801014c4:	00000000 	nop
801014c8:	21180000 	move	v1,zero
801014cc:	03008104 	bgez	a0,0x801014dc
801014d0:	23100300 	negu	v0,v1
801014d4:	1f290408 	j	0x8010a47c
801014d8:	440022a6 	sh	v0,68(s1)
801014dc:	440023a6 	sh	v1,68(s1)
801014e0:	44002386 	lh	v1,68(s1)
801014e4:	00000000 	nop
801014e8:	01246228 	slti	v0,v1,9217
801014ec:	03004014 	bnez	v0,0x801014fc
801014f0:	00dc6228 	slti	v0,v1,-9216
801014f4:	28290408 	j	0x8010a4a0
801014f8:	00240224 	li	v0,9216
801014fc:	02004010 	beqz	v0,0x80101508
80101500:	00dc0224 	li	v0,-9216
80101504:	440022a6 	sh	v0,68(s1)
80101508:	21202002 	move	a0,s1
8010150c:	005b010c 	jal	0x80056c00
80101510:	21280000 	move	a1,zero
80101514:	29002292 	lbu	v0,41(s1)
80101518:	00000000 	nop
8010151c:	1f004010 	beqz	v0,0x8010159c
80101520:	00000000 	nop
80101524:	0956010c 	jal	0x80055824
80101528:	00000000 	nop
8010152c:	06004010 	beqz	v0,0x80101548
80101530:	02000224 	li	v0,2
80101534:	6a0120a2 	sb	zero,362(s1)
80101538:	050022a2 	sb	v0,5(s1)
8010153c:	060020a2 	sb	zero,6(s1)
80101540:	4e290408 	j	0x8010a538
80101544:	070020a2 	sb	zero,7(s1)
80101548:	44002286 	lh	v0,68(s1)
8010154c:	00000000 	nop
80101550:	02004104 	bgez	v0,0x8010155c
80101554:	00000000 	nop
80101558:	23100200 	negu	v0,v0
8010155c:	000a4228 	slti	v0,v0,2560
80101560:	0e004010 	beqz	v0,0x8010159c
80101564:	00000000 	nop
80101568:	a84c010c 	jal	0x800532a0
8010156c:	21202002 	move	a0,s1
80101570:	09004014 	bnez	v0,0x80101598
80101574:	01000224 	li	v0,1
80101578:	21202002 	move	a0,s1
8010157c:	6a0120a2 	sb	zero,362(s1)
80101580:	050020a2 	sb	zero,5(s1)
80101584:	060020a2 	sb	zero,6(s1)
80101588:	6650010c 	jal	0x80054198
8010158c:	070020a2 	sb	zero,7(s1)
80101590:	4e290408 	j	0x8010a538
80101594:	00000000 	nop
80101598:	060022a2 	sb	v0,6(s1)
8010159c:	7154010c 	jal	0x800551c4
801015a0:	21202002 	move	a0,s1
801015a4:	1800bf8f 	lw	ra,24(sp)
801015a8:	1400b18f 	lw	s1,20(sp)
801015ac:	1000b08f 	lw	s0,16(sp)
801015b0:	0800e003 	jr	ra
801015b4:	2000bd27 	addiu	sp,sp,32
801015b8:	e8ffbd27 	addiu	sp,sp,-24
801015bc:	1000b0af 	sw	s0,16(sp)
801015c0:	1400bfaf 	sw	ra,20(sp)
801015c4:	39bc010c 	jal	0x8006f0e4
801015c8:	21808000 	move	s0,a0
801015cc:	21200002 	move	a0,s0
801015d0:	01000224 	li	v0,1
801015d4:	5757010c 	jal	0x80055d5c
801015d8:	010002a2 	sb	v0,1(s0)
801015dc:	21200002 	move	a0,s0
801015e0:	420100a6 	sh	zero,322(s0)
801015e4:	6650010c 	jal	0x80054198
801015e8:	580000a6 	sh	zero,88(s0)
801015ec:	a154010c 	jal	0x80055284
801015f0:	21200002 	move	a0,s0
801015f4:	21200002 	move	a0,s0
801015f8:	02000524 	li	a1,2
801015fc:	4553010c 	jal	0x80054d14
80101600:	21300000 	move	a2,zero
80101604:	57cc000c 	jal	0x8003315c
80101608:	21200002 	move	a0,s0
8010160c:	1400bf8f 	lw	ra,20(sp)
80101610:	1000b08f 	lw	s0,16(sp)
80101614:	0800e003 	jr	ra
80101618:	1800bd27 	addiu	sp,sp,24
8010161c:	d0ffbd27 	addiu	sp,sp,-48
80101620:	2400b1af 	sw	s1,36(sp)
80101624:	21888000 	move	s1,a0
80101628:	0e80023c 	lui	v0,0x800e
8010162c:	2800bfaf 	sw	ra,40(sp)
80101630:	2000b0af 	sw	s0,32(sp)
80101634:	02002392 	lbu	v1,2(s1)
80101638:	00000000 	nop
8010163c:	06006010 	beqz	v1,0x80101658
80101640:	807e4524 	addiu	a1,v0,32384
80101644:	01000224 	li	v0,1
80101648:	16006210 	beq	v1,v0,0x801016a4
8010164c:	00000000 	nop
80101650:	dd290408 	j	0x8010a774
80101654:	00000000 	nop
80101658:	801f033c 	lui	v1,0x1f80
8010165c:	d0006324 	addiu	v1,v1,208
80101660:	42f50224 	li	v0,-2750
80101664:	560020a6 	sh	zero,86(s1)
80101668:	1e0062a4 	sh	v0,30(v1)
8010166c:	02002292 	lbu	v0,2(s1)
80101670:	00000000 	nop
80101674:	01004224 	addiu	v0,v0,1
80101678:	020022a2 	sb	v0,2(s1)
8010167c:	e40c0224 	li	v0,3300
80101680:	020062a4 	sh	v0,2(v1)
80101684:	f4f80224 	li	v0,-1804
80101688:	060062a4 	sh	v0,6(v1)
8010168c:	740e0224 	li	v0,3700
80101690:	0a0062a4 	sh	v0,10(v1)
80101694:	64002292 	lbu	v0,100(s1)
80101698:	00000000 	nop
8010169c:	80004234 	ori	v0,v0,0x80
801016a0:	640022a2 	sb	v0,100(s1)
801016a4:	2a00a390 	lbu	v1,42(a1)
801016a8:	08000224 	li	v0,8
801016ac:	0e006214 	bne	v1,v0,0x801016e8
801016b0:	00000000 	nop
801016b4:	3200a284 	lh	v0,50(a1)
801016b8:	00000000 	nop
801016bc:	00ce4228 	slti	v0,v0,-12800
801016c0:	09004010 	beqz	v0,0x801016e8
801016c4:	00000000 	nop
801016c8:	2e00a284 	lh	v0,46(a1)
801016cc:	00000000 	nop
801016d0:	820e4228 	slti	v0,v0,3714
801016d4:	04004010 	beqz	v0,0x801016e8
801016d8:	820e0224 	li	v0,3714
801016dc:	2e00a2a4 	sh	v0,46(a1)
801016e0:	37080224 	li	v0,2103
801016e4:	3600a2a4 	sh	v0,54(a1)
801016e8:	2e00a294 	lhu	v0,46(a1)
801016ec:	00000000 	nop
801016f0:	0a0022a6 	sh	v0,10(s1)
801016f4:	3200a294 	lhu	v0,50(a1)
801016f8:	21202002 	move	a0,s1
801016fc:	38ff4224 	addiu	v0,v0,-200
80101700:	0e0022a6 	sh	v0,14(s1)
80101704:	3600a294 	lhu	v0,54(a1)
80101708:	08002526 	addiu	a1,s1,8
8010170c:	fdb8010c 	jal	0x8006e3f4
80101710:	120022a6 	sh	v0,18(s1)
80101714:	e40c0224 	li	v0,3300
80101718:	1200a2a7 	sh	v0,18(sp)
8010171c:	740e0224 	li	v0,3700
80101720:	1a00a2a7 	sh	v0,26(sp)
80101724:	0a002586 	lh	a1,10(s1)
80101728:	12002686 	lh	a2,18(s1)
8010172c:	ace0010c 	jal	0x800782b0
80101730:	1000a427 	addiu	a0,sp,16
80101734:	00085024 	addiu	s0,v0,2048
80101738:	00841000 	sll	s0,s0,0x10
8010173c:	03841000 	sra	s0,s0,0x10
80101740:	d40f020c 	jal	0x80083f50
80101744:	21200002 	move	a0,s0
80101748:	21200002 	move	a0,s0
8010174c:	80180200 	sll	v1,v0,0x2
80101750:	21186200 	addu	v1,v1,v0
80101754:	00810300 	sll	s0,v1,0x4
80101758:	23800302 	subu	s0,s0,v1
8010175c:	c0801000 	sll	s0,s0,0x3
80101760:	a00f020c 	jal	0x80083e80
80101764:	03831000 	sra	s0,s0,0xc
80101768:	1200a397 	lhu	v1,18(sp)
8010176c:	00000000 	nop
80101770:	21187000 	addu	v1,v1,s0
80101774:	1200a3a7 	sh	v1,18(sp)
80101778:	80180200 	sll	v1,v0,0x2
8010177c:	21186200 	addu	v1,v1,v0
80101780:	00110300 	sll	v0,v1,0x4
80101784:	23104300 	subu	v0,v0,v1
80101788:	c0100200 	sll	v0,v0,0x3
8010178c:	1a00a397 	lhu	v1,26(sp)
80101790:	03130200 	sra	v0,v0,0xc
80101794:	23186200 	subu	v1,v1,v0
80101798:	1a00a3a7 	sh	v1,26(sp)
8010179c:	0e002296 	lhu	v0,14(s1)
801017a0:	00000000 	nop
801017a4:	80024224 	addiu	v0,v0,640
801017a8:	1600a2a7 	sh	v0,22(sp)
801017ac:	00140200 	sll	v0,v0,0x10
801017b0:	03140200 	sra	v0,v0,0x10
801017b4:	f5f84228 	slti	v0,v0,-1803
801017b8:	03004014 	bnez	v0,0x801017c8
801017bc:	801f043c 	lui	a0,0x1f80
801017c0:	f4f80224 	li	v0,-1804
801017c4:	1600a2a7 	sh	v0,22(sp)
801017c8:	d0008424 	addiu	a0,a0,208
801017cc:	1000a527 	addiu	a1,sp,16
801017d0:	b1b3010c 	jal	0x8006cec4
801017d4:	e0000624 	li	a2,224
801017d8:	2800bf8f 	lw	ra,40(sp)
801017dc:	2400b18f 	lw	s1,36(sp)
801017e0:	2000b08f 	lw	s0,32(sp)
801017e4:	0800e003 	jr	ra
801017e8:	3000bd27 	addiu	sp,sp,48
801017ec:	e8ffbd27 	addiu	sp,sp,-24
801017f0:	1000b0af 	sw	s0,16(sp)
801017f4:	0e80103c 	lui	s0,0x800e
801017f8:	807e1026 	addiu	s0,s0,32384
801017fc:	1400bfaf 	sw	ra,20(sp)
80101800:	6650010c 	jal	0x80054198
80101804:	21200002 	move	a0,s0
80101808:	0c80033c 	lui	v1,0x800c
8010180c:	01000224 	li	v0,1
80101810:	16f862a0 	sb	v0,-2026(v1)
80101814:	40010396 	lhu	v1,320(s0)
80101818:	801f023c 	lui	v0,0x1f80
8010181c:	840140ac 	sw	zero,388(v0)
80101820:	24000224 	li	v0,36
80101824:	050002a2 	sb	v0,5(s0)
80101828:	08000224 	li	v0,8
8010182c:	060000a2 	sb	zero,6(s0)
80101830:	6b0102a2 	sb	v0,363(s0)
80101834:	1400bf8f 	lw	ra,20(sp)
80101838:	1000b08f 	lw	s0,16(sp)
8010183c:	801f023c 	lui	v0,0x1f80
80101840:	100243a4 	sh	v1,528(v0)
80101844:	0800e003 	jr	ra
80101848:	1800bd27 	addiu	sp,sp,24
8010184c:	e8ffbd27 	addiu	sp,sp,-24
80101850:	0c80023c 	lui	v0,0x800c
80101854:	16f840a0 	sb	zero,-2026(v0)
80101858:	0f80023c 	lui	v0,0x800f
8010185c:	6c8040a0 	sb	zero,-32660(v0)
80101860:	801f023c 	lui	v0,0x1f80
80101864:	1000b0af 	sw	s0,16(sp)
80101868:	0e80103c 	lui	s0,0x800e
8010186c:	807e1026 	addiu	s0,s0,32384
80101870:	840140ac 	sw	zero,388(v0)
80101874:	24000224 	li	v0,36
80101878:	21200002 	move	a0,s0
8010187c:	1400bfaf 	sw	ra,20(sp)
80101880:	050002a2 	sb	v0,5(s0)
80101884:	070000a2 	sb	zero,7(s0)
80101888:	6650010c 	jal	0x80054198
8010188c:	060000a2 	sb	zero,6(s0)
80101890:	6b0100a2 	sb	zero,363(s0)
80101894:	1400bf8f 	lw	ra,20(sp)
80101898:	1000b08f 	lw	s0,16(sp)
8010189c:	0800e003 	jr	ra
801018a0:	1800bd27 	addiu	sp,sp,24
801018a4:	e8ffbd27 	addiu	sp,sp,-24
801018a8:	1000b0af 	sw	s0,16(sp)
801018ac:	21808000 	move	s0,a0
801018b0:	1400bfaf 	sw	ra,20(sp)
801018b4:	05000392 	lbu	v1,5(s0)
801018b8:	00000000 	nop
801018bc:	0600622c 	sltiu	v0,v1,6
801018c0:	54004010 	beqz	v0,0x80101a14
801018c4:	1180023c 	lui	v0,0x8011
801018c8:	d8904224 	addiu	v0,v0,-28456
801018cc:	80180300 	sll	v1,v1,0x2
801018d0:	21186200 	addu	v1,v1,v0
801018d4:	0000628c 	lw	v0,0(v1)
801018d8:	00000000 	nop
801018dc:	08004000 	jr	v0
801018e0:	00000000 	nop
801018e4:	05000292 	lbu	v0,5(s0)
801018e8:	0f000324 	li	v1,15
801018ec:	3d2a0408 	j	0x8010a8f4
801018f0:	400003a6 	sh	v1,64(s0)
801018f4:	40000296 	lhu	v0,64(s0)
801018f8:	ffff0324 	li	v1,-1
801018fc:	ffff4224 	addiu	v0,v0,-1
80101900:	400002a6 	sh	v0,64(s0)
80101904:	00140200 	sll	v0,v0,0x10
80101908:	03140200 	sra	v0,v0,0x10
8010190c:	11004310 	beq	v0,v1,0x80101954
80101910:	00000000 	nop
80101914:	6c2a0408 	j	0x8010a9b0
80101918:	00000000 	nop
8010191c:	c5cb010c 	jal	0x80072f14
80101920:	21200002 	move	a0,s0
80101924:	3b004010 	beqz	v0,0x80101a14
80101928:	01000324 	li	v1,1
8010192c:	05000292 	lbu	v0,5(s0)
80101930:	070003a2 	sb	v1,7(s0)
80101934:	3d2a0408 	j	0x8010a8f4
80101938:	000003a2 	sb	v1,0(s0)
8010193c:	0e80023c 	lui	v0,0x800e
80101940:	aa7e4390 	lbu	v1,32426(v0)
80101944:	2a000292 	lbu	v0,42(s0)
80101948:	00000000 	nop
8010194c:	31006210 	beq	v1,v0,0x80101a14
80101950:	00000000 	nop
80101954:	05000292 	lbu	v0,5(s0)
80101958:	00000000 	nop
8010195c:	01004224 	addiu	v0,v0,1
80101960:	6c2a0408 	j	0x8010a9b0
80101964:	050002a2 	sb	v0,5(s0)
80101968:	0e80023c 	lui	v0,0x800e
8010196c:	807e4424 	addiu	a0,v0,32384
80101970:	2a008390 	lbu	v1,42(a0)
80101974:	2a000292 	lbu	v0,42(s0)
80101978:	00000000 	nop
8010197c:	25006214 	bne	v1,v0,0x80101a14
80101980:	00000000 	nop
80101984:	05008290 	lbu	v0,5(a0)
80101988:	00000000 	nop
8010198c:	21004014 	bnez	v0,0x80101a14
80101990:	801f033c 	lui	v1,0x1f80
80101994:	05000292 	lbu	v0,5(s0)
80101998:	00000000 	nop
8010199c:	01004224 	addiu	v0,v0,1
801019a0:	050002a2 	sb	v0,5(s0)
801019a4:	02000224 	li	v0,2
801019a8:	370162a0 	sb	v0,311(v1)
801019ac:	bf000292 	lbu	v0,191(s0)
801019b0:	00000000 	nop
801019b4:	17004010 	beqz	v0,0x80101a14
801019b8:	21280000 	move	a1,zero
801019bc:	17000424 	li	a0,23
801019c0:	64d1010c 	jal	0x80074590
801019c4:	0f000624 	li	a2,15
801019c8:	6c2a0408 	j	0x8010a9b0
801019cc:	00000000 	nop
801019d0:	98cb010c 	jal	0x80072e60
801019d4:	21200002 	move	a0,s0
801019d8:	0e004010 	beqz	v0,0x80101a14
801019dc:	01000324 	li	v1,1
801019e0:	05000292 	lbu	v0,5(s0)
801019e4:	00000000 	nop
801019e8:	01004224 	addiu	v0,v0,1
801019ec:	050002a2 	sb	v0,5(s0)
801019f0:	801f023c 	lui	v0,0x1f80
801019f4:	360243a0 	sb	v1,566(v0)
801019f8:	0c80023c 	lui	v0,0x800c
801019fc:	08f84224 	addiu	v0,v0,-2040
80101a00:	310043a0 	sb	v1,49(v0)
80101a04:	02000324 	li	v1,2
80101a08:	070043a0 	sb	v1,7(v0)
80101a0c:	14060324 	li	v1,1556
80101a10:	320043a4 	sh	v1,50(v0)
80101a14:	1400bf8f 	lw	ra,20(sp)
80101a18:	1000b08f 	lw	s0,16(sp)
80101a1c:	0800e003 	jr	ra
80101a20:	1800bd27 	addiu	sp,sp,24
80101a24:	e0ffbd27 	addiu	sp,sp,-32
80101a28:	1000b0af 	sw	s0,16(sp)
80101a2c:	21808000 	move	s0,a0
80101a30:	1c00bfaf 	sw	ra,28(sp)
80101a34:	1800b2af 	sw	s2,24(sp)
80101a38:	1400b1af 	sw	s1,20(sp)
80101a3c:	04001192 	lbu	s1,4(s0)
80101a40:	01001224 	li	s2,1
80101a44:	72003212 	beq	s1,s2,0x80101c10
80101a48:	0200222a 	slti	v0,s1,2
80101a4c:	05004010 	beqz	v0,0x80101a64
80101a50:	00000000 	nop
80101a54:	0a002012 	beqz	s1,0x80101a80
80101a58:	21200002 	move	a0,s0
80101a5c:	222b0408 	j	0x8010ac88
80101a60:	00000000 	nop
80101a64:	02000224 	li	v0,2
80101a68:	a0002212 	beq	s1,v0,0x80101cec
80101a6c:	03000224 	li	v0,3
80101a70:	9c002212 	beq	s1,v0,0x80101ce4
80101a74:	00000000 	nop
80101a78:	222b0408 	j	0x8010ac88
80101a7c:	00000000 	nop
80101a80:	1180033c 	lui	v1,0x8011
80101a84:	03000292 	lbu	v0,3(s0)
80101a88:	10ca7124 	addiu	s1,v1,-13808
80101a8c:	40100200 	sll	v0,v0,0x1
80101a90:	21105100 	addu	v0,v0,s1
80101a94:	00004690 	lbu	a2,0(v0)
80101a98:	dc46010c 	jal	0x80051b70
80101a9c:	0c000524 	li	a1,12
80101aa0:	92004014 	bnez	v0,0x80101cec
80101aa4:	00000000 	nop
80101aa8:	04000292 	lbu	v0,4(s0)
80101aac:	56000496 	lhu	a0,86(s0)
80101ab0:	03000392 	lbu	v1,3(s0)
80101ab4:	bf0012a2 	sb	s2,191(s0)
80101ab8:	500000a6 	sh	zero,80(s0)
80101abc:	01004224 	addiu	v0,v0,1
80101ac0:	40180300 	sll	v1,v1,0x1
80101ac4:	040002a2 	sb	v0,4(s0)
80101ac8:	28000292 	lbu	v0,40(s0)
80101acc:	21187100 	addu	v1,v1,s1
80101ad0:	5a0004a6 	sh	a0,90(s0)
80101ad4:	80004234 	ori	v0,v0,0x80
80101ad8:	280002a2 	sb	v0,40(s0)
80101adc:	01006290 	lbu	v0,1(v1)
80101ae0:	00000000 	nop
80101ae4:	3e004010 	beqz	v0,0x80101be0
80101ae8:	1180053c 	lui	a1,0x8011
80101aec:	03000392 	lbu	v1,3(s0)
80101af0:	14caa524 	addiu	a1,a1,-13804
80101af4:	2a0002a2 	sb	v0,42(s0)
80101af8:	40100300 	sll	v0,v1,0x1
80101afc:	21104300 	addu	v0,v0,v1
80101b00:	80100200 	sll	v0,v0,0x2
80101b04:	21104500 	addu	v0,v0,a1
80101b08:	00004294 	lhu	v0,0(v0)
80101b0c:	2e000396 	lhu	v1,46(s0)
80101b10:	03000492 	lbu	a0,3(s0)
80101b14:	23104300 	subu	v0,v0,v1
80101b18:	600002a6 	sh	v0,96(s0)
80101b1c:	40100400 	sll	v0,a0,0x1
80101b20:	21104400 	addu	v0,v0,a0
80101b24:	80100200 	sll	v0,v0,0x2
80101b28:	21104500 	addu	v0,v0,a1
80101b2c:	02004294 	lhu	v0,2(v0)
80101b30:	21188000 	move	v1,a0
80101b34:	620002a6 	sh	v0,98(s0)
80101b38:	40100300 	sll	v0,v1,0x1
80101b3c:	21104300 	addu	v0,v0,v1
80101b40:	80100200 	sll	v0,v0,0x2
80101b44:	21104500 	addu	v0,v0,a1
80101b48:	04004294 	lhu	v0,4(v0)
80101b4c:	36000396 	lhu	v1,54(s0)
80101b50:	00000000 	nop
80101b54:	23104300 	subu	v0,v0,v1
80101b58:	640002a6 	sh	v0,100(s0)
80101b5c:	40100400 	sll	v0,a0,0x1
80101b60:	21104400 	addu	v0,v0,a0
80101b64:	80100200 	sll	v0,v0,0x2
80101b68:	21104500 	addu	v0,v0,a1
80101b6c:	06004290 	lbu	v0,6(v0)
80101b70:	21188000 	move	v1,a0
80101b74:	5f0002a2 	sb	v0,95(s0)
80101b78:	40100300 	sll	v0,v1,0x1
80101b7c:	21104300 	addu	v0,v0,v1
80101b80:	80100200 	sll	v0,v0,0x2
80101b84:	21104500 	addu	v0,v0,a1
80101b88:	08004294 	lhu	v0,8(v0)
80101b8c:	00000000 	nop
80101b90:	820002a6 	sh	v0,130(s0)
80101b94:	00140200 	sll	v0,v0,0x10
80101b98:	031c0200 	sra	v1,v0,0x10
80101b9c:	c2170200 	srl	v0,v0,0x1f
80101ba0:	21186200 	addu	v1,v1,v0
80101ba4:	43180300 	sra	v1,v1,0x1
80101ba8:	40100400 	sll	v0,a0,0x1
80101bac:	21104400 	addu	v0,v0,a0
80101bb0:	80100200 	sll	v0,v0,0x2
80101bb4:	21104500 	addu	v0,v0,a1
80101bb8:	800003a6 	sh	v1,128(s0)
80101bbc:	0a004294 	lhu	v0,10(v0)
80101bc0:	000012a2 	sb	s2,0(s0)
80101bc4:	860002a6 	sh	v0,134(s0)
80101bc8:	00140200 	sll	v0,v0,0x10
80101bcc:	031c0200 	sra	v1,v0,0x10
80101bd0:	c2170200 	srl	v0,v0,0x1f
80101bd4:	21186200 	addu	v1,v1,v0
80101bd8:	43180300 	sra	v1,v1,0x1
80101bdc:	840003a6 	sh	v1,132(s0)
80101be0:	03000292 	lbu	v0,3(s0)
80101be4:	290000a2 	sb	zero,41(s0)
80101be8:	40004014 	bnez	v0,0x80101cec
80101bec:	5e0000a2 	sb	zero,94(s0)
80101bf0:	21200002 	move	a0,s0
80101bf4:	00fc0224 	li	v0,-1024
80101bf8:	460000a2 	sb	zero,70(s0)
80101bfc:	bfcb010c 	jal	0x80072efc
80101c00:	500002a6 	sh	v0,80(s0)
80101c04:	02000224 	li	v0,2
80101c08:	222b0408 	j	0x8010ac88
80101c0c:	000002a2 	sb	v0,0(s0)
80101c10:	03000292 	lbu	v0,3(s0)
80101c14:	00000000 	nop
80101c18:	2a004014 	bnez	v0,0x80101cc4
80101c1c:	00000000 	nop
80101c20:	102a040c 	jal	0x8010a840
80101c24:	21200002 	move	a0,s0
80101c28:	07000492 	lbu	a0,7(s0)
80101c2c:	00000000 	nop
80101c30:	07009110 	beq	a0,s1,0x80101c50
80101c34:	02008228 	slti	v0,a0,2
80101c38:	22004014 	bnez	v0,0x80101cc4
80101c3c:	02000224 	li	v0,2
80101c40:	0e008210 	beq	a0,v0,0x80101c7c
80101c44:	ffff0324 	li	v1,-1
80101c48:	182b0408 	j	0x8010ac60
80101c4c:	00000000 	nop
80101c50:	6c000424 	li	a0,108
80101c54:	0ef8010c 	jal	0x8007e038
80101c58:	02000524 	li	a1,2
80101c5c:	19004010 	beqz	v0,0x80101cc4
80101c60:	140002ae 	sw	v0,20(s0)
80101c64:	07000292 	lbu	v0,7(s0)
80101c68:	5a000324 	li	v1,90
80101c6c:	0e0003a6 	sh	v1,14(s0)
80101c70:	01004224 	addiu	v0,v0,1
80101c74:	182b0408 	j	0x8010ac60
80101c78:	070002a2 	sb	v0,7(s0)
80101c7c:	0e000296 	lhu	v0,14(s0)
80101c80:	00000000 	nop
80101c84:	ffff4224 	addiu	v0,v0,-1
80101c88:	0e0002a6 	sh	v0,14(s0)
80101c8c:	00140200 	sll	v0,v0,0x10
80101c90:	03140200 	sra	v0,v0,0x10
80101c94:	0b004314 	bne	v0,v1,0x80101cc4
80101c98:	00000000 	nop
80101c9c:	1400038e 	lw	v1,20(s0)
80101ca0:	00000000 	nop
80101ca4:	04006290 	lbu	v0,4(v1)
80101ca8:	00000000 	nop
80101cac:	0200422c 	sltiu	v0,v0,2
80101cb0:	03004010 	beqz	v0,0x80101cc0
80101cb4:	00000000 	nop
80101cb8:	040064a0 	sb	a0,4(v1)
80101cbc:	140000ae 	sw	zero,20(s0)
80101cc0:	070000a2 	sb	zero,7(s0)
80101cc4:	e3dd010c 	jal	0x8007778c
80101cc8:	21200002 	move	a0,s0
80101ccc:	03004010 	beqz	v0,0x80101cdc
80101cd0:	00000000 	nop
80101cd4:	fe45010c 	jal	0x800517f8
80101cd8:	21200002 	move	a0,s0
80101cdc:	222b0408 	j	0x8010ac88
80101ce0:	290000a2 	sb	zero,41(s0)
80101ce4:	89e9010c 	jal	0x8007a624
80101ce8:	21200002 	move	a0,s0
80101cec:	1c00bf8f 	lw	ra,28(sp)
80101cf0:	1800b28f 	lw	s2,24(sp)
80101cf4:	1400b18f 	lw	s1,20(sp)
80101cf8:	1000b08f 	lw	s0,16(sp)
80101cfc:	0800e003 	jr	ra
80101d00:	2000bd27 	addiu	sp,sp,32
80101d04:	e8ffbd27 	addiu	sp,sp,-24
80101d08:	1000b0af 	sw	s0,16(sp)
80101d0c:	21808000 	move	s0,a0
80101d10:	1400bfaf 	sw	ra,20(sp)
80101d14:	07000692 	lbu	a2,7(s0)
80101d18:	01000224 	li	v0,1
80101d1c:	0800c210 	beq	a2,v0,0x80101d40
80101d20:	0200c228 	slti	v0,a2,2
80101d24:	24004014 	bnez	v0,0x80101db8
80101d28:	00000000 	nop
80101d2c:	02000224 	li	v0,2
80101d30:	0f00c210 	beq	a2,v0,0x80101d70
80101d34:	ffff0324 	li	v1,-1
80101d38:	552b0408 	j	0x8010ad54
80101d3c:	00000000 	nop
80101d40:	00240500 	sll	a0,a1,0x10
80101d44:	03240400 	sra	a0,a0,0x10
80101d48:	0ef8010c 	jal	0x8007e038
80101d4c:	02000524 	li	a1,2
80101d50:	19004010 	beqz	v0,0x80101db8
80101d54:	140002ae 	sw	v0,20(s0)
80101d58:	07000292 	lbu	v0,7(s0)
80101d5c:	5a000324 	li	v1,90
80101d60:	0e0003a6 	sh	v1,14(s0)
80101d64:	01004224 	addiu	v0,v0,1
80101d68:	552b0408 	j	0x8010ad54
80101d6c:	070002a2 	sb	v0,7(s0)
80101d70:	0e000296 	lhu	v0,14(s0)
80101d74:	00000000 	nop
80101d78:	ffff4224 	addiu	v0,v0,-1
80101d7c:	0e0002a6 	sh	v0,14(s0)
80101d80:	00140200 	sll	v0,v0,0x10
80101d84:	03140200 	sra	v0,v0,0x10
80101d88:	0b004314 	bne	v0,v1,0x80101db8
80101d8c:	00000000 	nop
80101d90:	1400038e 	lw	v1,20(s0)
80101d94:	00000000 	nop
80101d98:	04006290 	lbu	v0,4(v1)
80101d9c:	00000000 	nop
80101da0:	0200422c 	sltiu	v0,v0,2
80101da4:	03004010 	beqz	v0,0x80101db4
80101da8:	00000000 	nop
80101dac:	040066a0 	sb	a2,4(v1)
80101db0:	140000ae 	sw	zero,20(s0)
80101db4:	070000a2 	sb	zero,7(s0)
80101db8:	1400bf8f 	lw	ra,20(sp)
80101dbc:	1000b08f 	lw	s0,16(sp)
80101dc0:	0800e003 	jr	ra
80101dc4:	1800bd27 	addiu	sp,sp,24
80101dc8:	e0ffbd27 	addiu	sp,sp,-32
80101dcc:	1000b0af 	sw	s0,16(sp)
80101dd0:	21808000 	move	s0,a0
80101dd4:	1c00bfaf 	sw	ra,28(sp)
80101dd8:	1800b2af 	sw	s2,24(sp)
80101ddc:	1400b1af 	sw	s1,20(sp)
80101de0:	04001192 	lbu	s1,4(s0)
80101de4:	01001224 	li	s2,1
80101de8:	62003212 	beq	s1,s2,0x80101f74
80101dec:	0200222a 	slti	v0,s1,2
80101df0:	05004010 	beqz	v0,0x80101e08
80101df4:	00000000 	nop
80101df8:	0a002012 	beqz	s1,0x80101e24
80101dfc:	00000000 	nop
80101e00:	152c0408 	j	0x8010b054
80101e04:	00000000 	nop
80101e08:	02000224 	li	v0,2
80101e0c:	98002212 	beq	s1,v0,0x80102070
80101e10:	03000224 	li	v0,3
80101e14:	a6002212 	beq	s1,v0,0x801020b0
80101e18:	00000000 	nop
80101e1c:	152c0408 	j	0x8010b054
80101e20:	00000000 	nop
80101e24:	03000292 	lbu	v0,3(s0)
80101e28:	00000000 	nop
80101e2c:	08004014 	bnez	v0,0x80101e50
80101e30:	21200002 	move	a0,s0
80101e34:	0c80023c 	lui	v0,0x800c
80101e38:	59fa4290 	lbu	v0,-1447(v0)
80101e3c:	00000000 	nop
80101e40:	03004010 	beqz	v0,0x80101e50
80101e44:	03000224 	li	v0,3
80101e48:	152c0408 	j	0x8010b054
80101e4c:	040002a2 	sb	v0,4(s0)
80101e50:	03000692 	lbu	a2,3(s0)
80101e54:	0c000524 	li	a1,12
80101e58:	dc46010c 	jal	0x80051b70
80101e5c:	0100c624 	addiu	a2,a2,1
80101e60:	95004014 	bnez	v0,0x801020b8
80101e64:	00100224 	li	v0,4096
80101e68:	b80002a6 	sh	v0,184(s0)
80101e6c:	ba0002a6 	sh	v0,186(s0)
80101e70:	bc0002a6 	sh	v0,188(s0)
80101e74:	04000292 	lbu	v0,4(s0)
80101e78:	03000392 	lbu	v1,3(s0)
80101e7c:	01004224 	addiu	v0,v0,1
80101e80:	0e006014 	bnez	v1,0x80101ebc
80101e84:	040002a2 	sb	v0,4(s0)
80101e88:	01000224 	li	v0,1
80101e8c:	000002a2 	sb	v0,0(s0)
80101e90:	90010224 	li	v0,400
80101e94:	800002a6 	sh	v0,128(s0)
80101e98:	4c040224 	li	v0,1100
80101e9c:	820002a6 	sh	v0,130(s0)
80101ea0:	40010224 	li	v0,320
80101ea4:	840002a6 	sh	v0,132(s0)
80101ea8:	80020224 	li	v0,640
80101eac:	860002a6 	sh	v0,134(s0)
80101eb0:	290000a2 	sb	zero,41(s0)
80101eb4:	ff2b0408 	j	0x8010affc
80101eb8:	2b0000a2 	sb	zero,43(s0)
80101ebc:	28000224 	li	v0,40
80101ec0:	1469020c 	jal	0x8009a450
80101ec4:	400002a6 	sh	v0,64(s0)
80101ec8:	ff0f4230 	andi	v0,v0,0xfff
80101ecc:	1469020c 	jal	0x8009a450
80101ed0:	540002a6 	sh	v0,84(s0)
80101ed4:	ff0f4230 	andi	v0,v0,0xfff
80101ed8:	1469020c 	jal	0x8009a450
80101edc:	580002a6 	sh	v0,88(s0)
80101ee0:	7f004230 	andi	v0,v0,0x7f
80101ee4:	56000486 	lh	a0,86(s0)
80101ee8:	c1ff4224 	addiu	v0,v0,-63
80101eec:	520002a6 	sh	v0,82(s0)
80101ef0:	00040224 	li	v0,1024
80101ef4:	440002a6 	sh	v0,68(s0)
80101ef8:	d40f020c 	jal	0x80083f50
80101efc:	4a0000a6 	sh	zero,74(s0)
80101f00:	56000486 	lh	a0,86(s0)
80101f04:	03110200 	sra	v0,v0,0x4
80101f08:	a00f020c 	jal	0x80083e80
80101f0c:	480002a6 	sh	v0,72(s0)
80101f10:	23100200 	negu	v0,v0
80101f14:	c000038e 	lw	v1,192(s0)
80101f18:	03110200 	sra	v0,v0,0x4
80101f1c:	4c0002a6 	sh	v0,76(s0)
80101f20:	02006294 	lhu	v0,2(v1)
80101f24:	00000000 	nop
80101f28:	4b004224 	addiu	v0,v0,75
80101f2c:	1469020c 	jal	0x8009a450
80101f30:	020062a4 	sh	v0,2(v1)
80101f34:	c000048e 	lw	a0,192(s0)
80101f38:	00000000 	nop
80101f3c:	04008394 	lhu	v1,4(a0)
80101f40:	1f004230 	andi	v0,v0,0x1f
80101f44:	56ff6324 	addiu	v1,v1,-170
80101f48:	23186200 	subu	v1,v1,v0
80101f4c:	040083a4 	sh	v1,4(a0)
80101f50:	c000028e 	lw	v0,192(s0)
80101f54:	00300324 	li	v1,12288
80101f58:	380043a4 	sh	v1,56(v0)
80101f5c:	c000028e 	lw	v0,192(s0)
80101f60:	00000000 	nop
80101f64:	3a0043a4 	sh	v1,58(v0)
80101f68:	c000028e 	lw	v0,192(s0)
80101f6c:	ff2b0408 	j	0x8010affc
80101f70:	3c0043a4 	sh	v1,60(v0)
80101f74:	21200002 	move	a0,s0
80101f78:	afdf010c 	jal	0x80077ebc
80101f7c:	010012a2 	sb	s2,1(s0)
80101f80:	03000292 	lbu	v0,3(s0)
80101f84:	00000000 	nop
80101f88:	4b004010 	beqz	v0,0x801020b8
80101f8c:	00000000 	nop
80101f90:	48000386 	lh	v1,72(s0)
80101f94:	44000286 	lh	v0,68(s0)
80101f98:	00000000 	nop
80101f9c:	18006200 	mult	v1,v0
80101fa0:	4a000496 	lhu	a0,74(s0)
80101fa4:	00000000 	nop
80101fa8:	00240400 	sll	a0,a0,0x10
80101fac:	12280000 	mflo	a1
80101fb0:	4c000386 	lh	v1,76(s0)
80101fb4:	03260400 	sra	a0,a0,0x18
80101fb8:	18006200 	mult	v1,v0
80101fbc:	32000296 	lhu	v0,50(s0)
80101fc0:	44000396 	lhu	v1,68(s0)
80101fc4:	21104400 	addu	v0,v0,a0
80101fc8:	c0ff6324 	addiu	v1,v1,-64
80101fcc:	440003a6 	sh	v1,68(s0)
80101fd0:	001c0300 	sll	v1,v1,0x10
80101fd4:	031c0300 	sra	v1,v1,0x10
80101fd8:	c1006328 	slti	v1,v1,193
80101fdc:	320002a6 	sh	v0,50(s0)
80101fe0:	2c00028e 	lw	v0,44(s0)
80101fe4:	3400048e 	lw	a0,52(s0)
80101fe8:	21104500 	addu	v0,v0,a1
80101fec:	2c0002ae 	sw	v0,44(s0)
80101ff0:	12400000 	mflo	t0
80101ff4:	21208800 	addu	a0,a0,t0
80101ff8:	03006010 	beqz	v1,0x80102008
80101ffc:	340004ae 	sw	a0,52(s0)
80102000:	c0000224 	li	v0,192
80102004:	440002a6 	sh	v0,68(s0)
80102008:	4a000296 	lhu	v0,74(s0)
8010200c:	00000000 	nop
80102010:	00014224 	addiu	v0,v0,256
80102014:	4a0002a6 	sh	v0,74(s0)
80102018:	00140200 	sll	v0,v0,0x10
8010201c:	03140200 	sra	v0,v0,0x10
80102020:	00304228 	slti	v0,v0,12288
80102024:	02004014 	bnez	v0,0x80102030
80102028:	00300224 	li	v0,12288
8010202c:	4a0002a6 	sh	v0,74(s0)
80102030:	c000048e 	lw	a0,192(s0)
80102034:	52000396 	lhu	v1,82(s0)
80102038:	0c008294 	lhu	v0,12(a0)
8010203c:	00000000 	nop
80102040:	21104300 	addu	v0,v0,v1
80102044:	0c0082a4 	sh	v0,12(a0)
80102048:	32000286 	lh	v0,50(s0)
8010204c:	00000000 	nop
80102050:	c0cd4228 	slti	v0,v0,-12864
80102054:	02004014 	bnez	v0,0x80102060
80102058:	03000224 	li	v0,3
8010205c:	040002a2 	sb	v0,4(s0)
80102060:	1146010c 	jal	0x80051844
80102064:	21200002 	move	a0,s0
80102068:	152c0408 	j	0x8010b054
8010206c:	00000000 	nop
80102070:	21200002 	move	a0,s0
80102074:	afdf010c 	jal	0x80077ebc
80102078:	010012a2 	sb	s2,1(s0)
8010207c:	21200002 	move	a0,s0
80102080:	03000224 	li	v0,3
80102084:	040082a0 	sb	v0,4(a0)
80102088:	0c80023c 	lui	v0,0x800c
8010208c:	000091a0 	sb	s1,0(a0)
80102090:	1b2c040c 	jal	0x8010b06c
80102094:	59fa52a0 	sb	s2,-1447(v0)
80102098:	2d000424 	li	a0,45
8010209c:	e5ff0524 	li	a1,-27
801020a0:	64d1010c 	jal	0x80074590
801020a4:	21300000 	move	a2,zero
801020a8:	152c0408 	j	0x8010b054
801020ac:	00000000 	nop
801020b0:	89e9010c 	jal	0x8007a624
801020b4:	21200002 	move	a0,s0
801020b8:	1c00bf8f 	lw	ra,28(sp)
801020bc:	1800b28f 	lw	s2,24(sp)
801020c0:	1400b18f 	lw	s1,20(sp)
801020c4:	1000b08f 	lw	s0,16(sp)
801020c8:	0800e003 	jr	ra
801020cc:	2000bd27 	addiu	sp,sp,32
801020d0:	d0ffbd27 	addiu	sp,sp,-48
801020d4:	1c00b3af 	sw	s3,28(sp)
801020d8:	21988000 	move	s3,a0
801020dc:	2000b4af 	sw	s4,32(sp)
801020e0:	21a00000 	move	s4,zero
801020e4:	1180023c 	lui	v0,0x8011
801020e8:	2400b5af 	sw	s5,36(sp)
801020ec:	64ad5524 	addiu	s5,v0,-21148
801020f0:	1800b2af 	sw	s2,24(sp)
801020f4:	70fe1224 	li	s2,-400
801020f8:	2800bfaf 	sw	ra,40(sp)
801020fc:	1400b1af 	sw	s1,20(sp)
80102100:	1000b0af 	sw	s0,16(sp)
80102104:	21880000 	move	s1,zero
80102108:	21206002 	move	a0,s3
8010210c:	01000524 	li	a1,1
80102110:	04000624 	li	a2,4
80102114:	77cb010c 	jal	0x80072ddc
80102118:	20000724 	li	a3,32
8010211c:	21804000 	move	s0,v0
80102120:	1e000012 	beqz	s0,0x8010219c
80102124:	01002226 	addiu	v0,s1,1
80102128:	030002a2 	sb	v0,3(s0)
8010212c:	ff004230 	andi	v0,v0,0xff
80102130:	40120200 	sll	v0,v0,0x9
80102134:	1a074224 	addiu	v0,v0,1818
80102138:	1c0015ae 	sw	s5,28(s0)
8010213c:	1469020c 	jal	0x8009a450
80102140:	560002a6 	sh	v0,86(s0)
80102144:	56000396 	lhu	v1,86(s0)
80102148:	3f004230 	andi	v0,v0,0x3f
8010214c:	e1ff6324 	addiu	v1,v1,-31
80102150:	21186200 	addu	v1,v1,v0
80102154:	00240300 	sll	a0,v1,0x10
80102158:	03240400 	sra	a0,a0,0x10
8010215c:	d40f020c 	jal	0x80083f50
80102160:	560003a6 	sh	v1,86(s0)
80102164:	2e006396 	lhu	v1,46(s3)
80102168:	03110200 	sra	v0,v0,0x4
8010216c:	21186200 	addu	v1,v1,v0
80102170:	2e0003a6 	sh	v1,46(s0)
80102174:	32006296 	lhu	v0,50(s3)
80102178:	56000486 	lh	a0,86(s0)
8010217c:	21105200 	addu	v0,v0,s2
80102180:	a00f020c 	jal	0x80083e80
80102184:	320002a6 	sh	v0,50(s0)
80102188:	23100200 	negu	v0,v0
8010218c:	36006396 	lhu	v1,54(s3)
80102190:	03110200 	sra	v0,v0,0x4
80102194:	21186200 	addu	v1,v1,v0
80102198:	360003a6 	sh	v1,54(s0)
8010219c:	01003126 	addiu	s1,s1,1
801021a0:	0300222a 	slti	v0,s1,3
801021a4:	d9ff4014 	bnez	v0,0x8010210c
801021a8:	21206002 	move	a0,s3
801021ac:	01009426 	addiu	s4,s4,1
801021b0:	0400822a 	slti	v0,s4,4
801021b4:	d3ff4014 	bnez	v0,0x80102104
801021b8:	c8005226 	addiu	s2,s2,200
801021bc:	2800bf8f 	lw	ra,40(sp)
801021c0:	2400b58f 	lw	s5,36(sp)
801021c4:	2000b48f 	lw	s4,32(sp)
801021c8:	1c00b38f 	lw	s3,28(sp)
801021cc:	1800b28f 	lw	s2,24(sp)
801021d0:	1400b18f 	lw	s1,20(sp)
801021d4:	1000b08f 	lw	s0,16(sp)
801021d8:	0800e003 	jr	ra
801021dc:	3000bd27 	addiu	sp,sp,48
801021e0:	d8ffbd27 	addiu	sp,sp,-40
801021e4:	1800b2af 	sw	s2,24(sp)
801021e8:	21908000 	move	s2,a0
801021ec:	2000b4af 	sw	s4,32(sp)
801021f0:	21a0a000 	move	s4,a1
801021f4:	1180033c 	lui	v1,0x8011
801021f8:	7cca6324 	addiu	v1,v1,-13700
801021fc:	80101400 	sll	v0,s4,0x2
80102200:	21104300 	addu	v0,v0,v1
80102204:	2400bfaf 	sw	ra,36(sp)
80102208:	1c00b3af 	sw	s3,28(sp)
8010220c:	1400b1af 	sw	s1,20(sp)
80102210:	1000b0af 	sw	s0,16(sp)
80102214:	080040a6 	sh	zero,8(s2)
80102218:	0000518c 	lw	s1,0(v0)
8010221c:	00000000 	nop
80102220:	00002392 	lbu	v1,0(s1)
80102224:	ff000224 	li	v0,255
80102228:	43006210 	beq	v1,v0,0x80102338
8010222c:	0c80023c 	lui	v0,0x800c
80102230:	08f85324 	addiu	s3,v0,-2040
80102234:	0c003026 	addiu	s0,s1,12
80102238:	06008012 	beqz	s4,0x80102254
8010223c:	00000000 	nop
80102240:	08004286 	lh	v0,8(s2)
80102244:	00000000 	nop
80102248:	0f004228 	slti	v0,v0,15
8010224c:	35004010 	beqz	v0,0x80102324
80102250:	00000000 	nop
80102254:	feff0392 	lbu	v1,-2(s0)
80102258:	00000000 	nop
8010225c:	0c006010 	beqz	v1,0x80102290
80102260:	01000224 	li	v0,1
80102264:	0a006214 	bne	v1,v0,0x80102290
80102268:	00000000 	nop
8010226c:	f8ff0296 	lhu	v0,-8(s0)
80102270:	00000000 	nop
80102274:	080062a6 	sh	v0,8(s3)
80102278:	faff0296 	lhu	v0,-6(s0)
8010227c:	00000000 	nop
80102280:	0a0062a6 	sh	v0,10(s3)
80102284:	fcff0296 	lhu	v0,-4(s0)
80102288:	00000000 	nop
8010228c:	0c0062a6 	sh	v0,12(s3)
80102290:	00002592 	lbu	a1,0(s1)
80102294:	f5ff0692 	lbu	a2,-11(s0)
80102298:	f6ff0792 	lbu	a3,-10(s0)
8010229c:	77cb010c 	jal	0x80072ddc
801022a0:	21204002 	move	a0,s2
801022a4:	21184000 	move	v1,v0
801022a8:	1e006010 	beqz	v1,0x80102324
801022ac:	00000000 	nop
801022b0:	f8ff0286 	lh	v0,-8(s0)
801022b4:	00000000 	nop
801022b8:	00140200 	sll	v0,v0,0x10
801022bc:	2c0062ac 	sw	v0,44(v1)
801022c0:	faff0286 	lh	v0,-6(s0)
801022c4:	00000000 	nop
801022c8:	00140200 	sll	v0,v0,0x10
801022cc:	300062ac 	sw	v0,48(v1)
801022d0:	fcff0286 	lh	v0,-4(s0)
801022d4:	00000000 	nop
801022d8:	00140200 	sll	v0,v0,0x10
801022dc:	340062ac 	sw	v0,52(v1)
801022e0:	f7ff0292 	lbu	v0,-9(s0)
801022e4:	540060a4 	sh	zero,84(v1)
801022e8:	560060a4 	sh	zero,86(v1)
801022ec:	580060a4 	sh	zero,88(v1)
801022f0:	030062a0 	sb	v0,3(v1)
801022f4:	0000028e 	lw	v0,0(s0)
801022f8:	0a008012 	beqz	s4,0x80102324
801022fc:	1c0062ac 	sw	v0,28(v1)
80102300:	08004286 	lh	v0,8(s2)
80102304:	00000000 	nop
80102308:	80100200 	sll	v0,v0,0x2
8010230c:	21104202 	addu	v0,s2,v0
80102310:	0c0043ac 	sw	v1,12(v0)
80102314:	08004296 	lhu	v0,8(s2)
80102318:	00000000 	nop
8010231c:	01004224 	addiu	v0,v0,1
80102320:	080042a6 	sh	v0,8(s2)
80102324:	10003126 	addiu	s1,s1,16
80102328:	00002392 	lbu	v1,0(s1)
8010232c:	ff000224 	li	v0,255
80102330:	c1ff6214 	bne	v1,v0,0x80102238
80102334:	10001026 	addiu	s0,s0,16
80102338:	2400bf8f 	lw	ra,36(sp)
8010233c:	2000b48f 	lw	s4,32(sp)
80102340:	1c00b38f 	lw	s3,28(sp)
80102344:	1800b28f 	lw	s2,24(sp)
80102348:	1400b18f 	lw	s1,20(sp)
8010234c:	1000b08f 	lw	s0,16(sp)
80102350:	0800e003 	jr	ra
80102354:	2800bd27 	addiu	sp,sp,40
80102358:	e8ffbd27 	addiu	sp,sp,-24
8010235c:	1000b0af 	sw	s0,16(sp)
80102360:	21808000 	move	s0,a0
80102364:	1400bfaf 	sw	ra,20(sp)
80102368:	04000392 	lbu	v1,4(s0)
8010236c:	01000424 	li	a0,1
80102370:	1b006410 	beq	v1,a0,0x801023e0
80102374:	02006228 	slti	v0,v1,2
80102378:	05004010 	beqz	v0,0x80102390
8010237c:	00000000 	nop
80102380:	0a006010 	beqz	v1,0x801023ac
80102384:	00000000 	nop
80102388:	f32c0408 	j	0x8010b3cc
8010238c:	00000000 	nop
80102390:	02000224 	li	v0,2
80102394:	26006210 	beq	v1,v0,0x80102430
80102398:	03000224 	li	v0,3
8010239c:	22006210 	beq	v1,v0,0x80102428
801023a0:	00000000 	nop
801023a4:	f32c0408 	j	0x8010b3cc
801023a8:	00000000 	nop
801023ac:	040004a2 	sb	a0,4(s0)
801023b0:	21200002 	move	a0,s0
801023b4:	5f2c040c 	jal	0x8010b17c
801023b8:	21280000 	move	a1,zero
801023bc:	0f000424 	li	a0,15
801023c0:	3636010c 	jal	0x8004d8d8
801023c4:	21280000 	move	a1,zero
801023c8:	add4010c 	jal	0x800752b4
801023cc:	21200000 	move	a0,zero
801023d0:	49d7010c 	jal	0x80075d24
801023d4:	ff1f0424 	li	a0,8191
801023d8:	f32c0408 	j	0x8010b3cc
801023dc:	00000000 	nop
801023e0:	b49a000c 	jal	0x80026ad0
801023e4:	21200002 	move	a0,s0
801023e8:	05004010 	beqz	v0,0x80102400
801023ec:	0c80023c 	lui	v0,0x800c
801023f0:	03000592 	lbu	a1,3(s0)
801023f4:	5f2c040c 	jal	0x8010b17c
801023f8:	21200002 	move	a0,s0
801023fc:	0c80023c 	lui	v0,0x800c
80102400:	18f94390 	lbu	v1,-1768(v0)
80102404:	ff000224 	li	v0,255
80102408:	03006210 	beq	v1,v0,0x80102418
8010240c:	00000000 	nop
80102410:	0003010c 	jal	0x80040c00
80102414:	64000424 	li	a0,100
80102418:	9a9a000c 	jal	0x80026a68
8010241c:	21200002 	move	a0,s0
80102420:	f32c0408 	j	0x8010b3cc
80102424:	00000000 	nop
80102428:	74eb010c 	jal	0x8007add0
8010242c:	21200002 	move	a0,s0
80102430:	1400bf8f 	lw	ra,20(sp)
80102434:	1000b08f 	lw	s0,16(sp)
80102438:	0800e003 	jr	ra
8010243c:	1800bd27 	addiu	sp,sp,24
80102440:	e8ffbd27 	addiu	sp,sp,-24
80102444:	21688000 	move	t5,a0
80102448:	801f093c 	lui	t1,0x1f80
8010244c:	04002935 	ori	t1,t1,0x4
80102450:	0c80023c 	lui	v0,0x800c
80102454:	44f54a8c 	lw	t2,-2748(v0)
80102458:	2110c000 	move	v0,a2
8010245c:	ffffc624 	addiu	a2,a2,-1
80102460:	ac004010 	beqz	v0,0x80102714
80102464:	801f0e3c 	lui	t6,0x1f80
80102468:	f0000f3c 	lui	t7,0xf0
8010246c:	f0f0ef35 	ori	t7,t7,0xf0f0
80102470:	22008b24 	addiu	t3,a0,34
80102474:	24004825 	addiu	t0,t2,36
80102478:	1000a0c9 	lwc2	$0,16(t5)
8010247c:	1400ac8d 	lw	t4,20(t5)
80102480:	1800a2c9 	lwc2	$2,24(t5)
80102484:	00088c48 	mtc2	t4,$1
80102488:	1c00a4c9 	lwc2	$4,28(t5)
8010248c:	02640c00 	srl	t4,t4,0x10
80102490:	00188c48 	mtc2	t4,$3
80102494:	2000a5c9 	lwc2	$5,32(t5)
80102498:	0000a28d 	lw	v0,0(t5)
8010249c:	00000000 	nop
801024a0:	e0ff02ad 	sw	v0,-32(t0)
801024a4:	3000284a 	c2	0x280030
801024a8:	e6ff628d 	lw	v0,-26(t3)
801024ac:	00000000 	nop
801024b0:	e8ff02ad 	sw	v0,-24(t0)
801024b4:	eaff628d 	lw	v0,-22(t3)
801024b8:	00000000 	nop
801024bc:	f4ff02ad 	sw	v0,-12(t0)
801024c0:	e2ff638d 	lw	v1,-30(t3)
801024c4:	00f84c48 	cfc2	t4,$31
801024c8:	00000000 	nop
801024cc:	0000ccad 	sw	t4,0(t6)
801024d0:	0000c28d 	lw	v0,0(t6)
801024d4:	00000000 	nop
801024d8:	89004004 	bltz	v0,0x80102700
801024dc:	00000000 	nop
801024e0:	0600404b 	c2	0x1400006
801024e4:	24106f00 	and	v0,v1,t7
801024e8:	ecff02ad 	sw	v0,-20(t0)
801024ec:	0000d8e9 	swc2	$24,0(t6)
801024f0:	0000c28d 	lw	v0,0(t6)
801024f4:	00000000 	nop
801024f8:	81004018 	blez	v0,0x80102700
801024fc:	00000000 	nop
80102500:	08004ce9 	swc2	$12,8(t2)
80102504:	14004de9 	swc2	$13,20(t2)
80102508:	20004ee9 	swc2	$14,32(t2)
8010250c:	e4ff0295 	lhu	v0,-28(t0)
80102510:	00000000 	nop
80102514:	4001422c 	sltiu	v0,v0,320
80102518:	0b004014 	bnez	v0,0x80102548
8010251c:	00000000 	nop
80102520:	f0ff0295 	lhu	v0,-16(t0)
80102524:	00000000 	nop
80102528:	4001422c 	sltiu	v0,v0,320
8010252c:	06004014 	bnez	v0,0x80102548
80102530:	00000000 	nop
80102534:	fcff0295 	lhu	v0,-4(t0)
80102538:	00000000 	nop
8010253c:	4001422c 	sltiu	v0,v0,320
80102540:	6f004010 	beqz	v0,0x80102700
80102544:	00000000 	nop
80102548:	e6ff0295 	lhu	v0,-26(t0)
8010254c:	00000000 	nop
80102550:	f000422c 	sltiu	v0,v0,240
80102554:	0b004014 	bnez	v0,0x80102584
80102558:	00000000 	nop
8010255c:	f2ff0295 	lhu	v0,-14(t0)
80102560:	00000000 	nop
80102564:	f000422c 	sltiu	v0,v0,240
80102568:	06004014 	bnez	v0,0x80102584
8010256c:	00000000 	nop
80102570:	feff0295 	lhu	v0,-2(t0)
80102574:	00000000 	nop
80102578:	f000422c 	sltiu	v0,v0,240
8010257c:	60004010 	beqz	v0,0x80102700
80102580:	00000000 	nop
80102584:	00000000 	nop
80102588:	00110300 	sll	v0,v1,0x4
8010258c:	24104f00 	and	v0,v0,t7
80102590:	f8ff02ad 	sw	v0,-8(t0)
80102594:	021e0300 	srl	v1,v1,0x18
80102598:	01000224 	li	v0,1
8010259c:	05006210 	beq	v1,v0,0x801025b4
801025a0:	02000224 	li	v0,2
801025a4:	18006210 	beq	v1,v0,0x80102608
801025a8:	0c00a227 	addiu	v0,sp,12
801025ac:	802d0408 	j	0x8010b600
801025b0:	00000000 	nop
801025b4:	0000b1eb 	swc2	$17,0(sp)
801025b8:	0400a227 	addiu	v0,sp,4
801025bc:	000052e8 	swc2	$18,0(v0)
801025c0:	0800a227 	addiu	v0,sp,8
801025c4:	000053e8 	swc2	$19,0(v0)
801025c8:	0000a78f 	lw	a3,0(sp)
801025cc:	0400a48f 	lw	a0,4(sp)
801025d0:	00000000 	nop
801025d4:	2a108700 	slt	v0,a0,a3
801025d8:	08004010 	beqz	v0,0x801025fc
801025dc:	00000000 	nop
801025e0:	0800a38f 	lw	v1,8(sp)
801025e4:	00000000 	nop
801025e8:	2a106700 	slt	v0,v1,a3
801025ec:	1b004010 	beqz	v0,0x8010265c
801025f0:	83100300 	sra	v0,v1,0x2
801025f4:	7d2d0408 	j	0x8010b5f4
801025f8:	2118e000 	move	v1,a3
801025fc:	0800a38f 	lw	v1,8(sp)
80102600:	7a2d0408 	j	0x8010b5e8
80102604:	2a106400 	slt	v0,v1,a0
80102608:	000051e8 	swc2	$17,0(v0)
8010260c:	1000a227 	addiu	v0,sp,16
80102610:	000052e8 	swc2	$18,0(v0)
80102614:	1400a227 	addiu	v0,sp,20
80102618:	000053e8 	swc2	$19,0(v0)
8010261c:	0c00a78f 	lw	a3,12(sp)
80102620:	1000a48f 	lw	a0,16(sp)
80102624:	00000000 	nop
80102628:	2a10e400 	slt	v0,a3,a0
8010262c:	04004010 	beqz	v0,0x80102640
80102630:	00000000 	nop
80102634:	1400a38f 	lw	v1,20(sp)
80102638:	622d0408 	j	0x8010b588
8010263c:	2a10e300 	slt	v0,a3,v1
80102640:	1400a38f 	lw	v1,20(sp)
80102644:	00000000 	nop
80102648:	2a108300 	slt	v0,a0,v1
8010264c:	03004010 	beqz	v0,0x8010265c
80102650:	83100300 	sra	v0,v1,0x2
80102654:	21188000 	move	v1,a0
80102658:	83100300 	sra	v0,v1,0x2
8010265c:	822d0408 	j	0x8010b608
80102660:	000022ad 	sw	v0,0(t1)
80102664:	2d00584b 	c2	0x158002d
80102668:	000027e9 	swc2	$7,0(t1)
8010266c:	0000228d 	lw	v0,0(t1)
80102670:	00000000 	nop
80102674:	8f014224 	addiu	v0,v0,399
80102678:	b701422c 	sltiu	v0,v0,439
8010267c:	02004010 	beqz	v0,0x80102688
80102680:	28000224 	li	v0,40
80102684:	000022ad 	sw	v0,0(t1)
80102688:	0000228d 	lw	v0,0(t1)
8010268c:	00000000 	nop
80102690:	831a0200 	sra	v1,v0,0xa
80102694:	07106200 	srav	v0,v0,v1
80102698:	401a0300 	sll	v1,v1,0x9
8010269c:	21104300 	addu	v0,v0,v1
801026a0:	000022ad 	sw	v0,0(t1)
801026a4:	fcff4224 	addiu	v0,v0,-4
801026a8:	fc07422c 	sltiu	v0,v0,2044
801026ac:	02004014 	bnez	v0,0x801026b8
801026b0:	ffff0224 	li	v0,-1
801026b4:	000022ad 	sw	v0,0(t1)
801026b8:	0000228d 	lw	v0,0(t1)
801026bc:	00000000 	nop
801026c0:	0f004004 	bltz	v0,0x80102700
801026c4:	0009043c 	lui	a0,0x900
801026c8:	00006295 	lhu	v0,0(t3)
801026cc:	00000000 	nop
801026d0:	000002a5 	sh	v0,0(t0)
801026d4:	0000228d 	lw	v0,0(t1)
801026d8:	00000000 	nop
801026dc:	80100200 	sll	v0,v0,0x2
801026e0:	2110a200 	addu	v0,a1,v0
801026e4:	0000438c 	lw	v1,0(v0)
801026e8:	00000000 	nop
801026ec:	25186400 	or	v1,v1,a0
801026f0:	000043ad 	sw	v1,0(t2)
801026f4:	00004aac 	sw	t2,0(v0)
801026f8:	28000825 	addiu	t0,t0,40
801026fc:	28004a25 	addiu	t2,t2,40
80102700:	24006b25 	addiu	t3,t3,36
80102704:	2400ad25 	addiu	t5,t5,36
80102708:	2110c000 	move	v0,a2
8010270c:	5aff4014 	bnez	v0,0x80102478
80102710:	ffffc624 	addiu	a2,a2,-1
80102714:	0c80023c 	lui	v0,0x800c
80102718:	44f54aac 	sw	t2,-2748(v0)
8010271c:	2110a001 	move	v0,t5
80102720:	0800e003 	jr	ra
80102724:	1800bd27 	addiu	sp,sp,24
80102728:	e0ffbd27 	addiu	sp,sp,-32
8010272c:	21688000 	move	t5,a0
80102730:	801f093c 	lui	t1,0x1f80
80102734:	04002935 	ori	t1,t1,0x4
80102738:	0c80023c 	lui	v0,0x800c
8010273c:	44f54a8c 	lw	t2,-2748(v0)
80102740:	2110c000 	move	v0,a2
80102744:	ffffc624 	addiu	a2,a2,-1
80102748:	d1004010 	beqz	v0,0x80102a90
8010274c:	801f0e3c 	lui	t6,0x1f80
80102750:	f0000f3c 	lui	t7,0xf0
80102754:	f0f0ef35 	ori	t7,t7,0xf0f0
80102758:	10008b24 	addiu	t3,a0,16
8010275c:	30004825 	addiu	t0,t2,48
80102760:	1800ac8d 	lw	t4,24(t5)
80102764:	1400a0c9 	lwc2	$0,20(t5)
80102768:	00088c48 	mtc2	t4,$1
8010276c:	02640c00 	srl	t4,t4,0x10
80102770:	00188c48 	mtc2	t4,$3
80102774:	1c00a2c9 	lwc2	$2,28(t5)
80102778:	2400ac8d 	lw	t4,36(t5)
8010277c:	2000a4c9 	lwc2	$4,32(t5)
80102780:	00288c48 	mtc2	t4,$5
80102784:	f0ff023c 	lui	v0,0xfff0
80102788:	0000a38d 	lw	v1,0(t5)
8010278c:	f0f04234 	ori	v0,v0,0xf0f0
80102790:	24106200 	and	v0,v1,v0
80102794:	d4ff02ad 	sw	v0,-44(t0)
80102798:	3000284a 	c2	0x280030
8010279c:	00190300 	sll	v1,v1,0x4
801027a0:	24186f00 	and	v1,v1,t7
801027a4:	e0ff03ad 	sw	v1,-32(t0)
801027a8:	f4ff638d 	lw	v1,-12(t3)
801027ac:	00f84c48 	cfc2	t4,$31
801027b0:	00000000 	nop
801027b4:	0000ccad 	sw	t4,0(t6)
801027b8:	0000c28d 	lw	v0,0(t6)
801027bc:	00000000 	nop
801027c0:	ae004004 	bltz	v0,0x80102a7c
801027c4:	00000000 	nop
801027c8:	0600404b 	c2	0x1400006
801027cc:	f8ff628d 	lw	v0,-8(t3)
801027d0:	00000000 	nop
801027d4:	dcff02ad 	sw	v0,-36(t0)
801027d8:	0000d8e9 	swc2	$24,0(t6)
801027dc:	0000c28d 	lw	v0,0(t6)
801027e0:	00000000 	nop
801027e4:	a5004018 	blez	v0,0x80102a7c
801027e8:	00000000 	nop
801027ec:	08004ce9 	swc2	$12,8(t2)
801027f0:	14004de9 	swc2	$13,20(t2)
801027f4:	20004ee9 	swc2	$14,32(t2)
801027f8:	2400ac8d 	lw	t4,36(t5)
801027fc:	2800a0c9 	lwc2	$0,40(t5)
80102800:	02640c00 	srl	t4,t4,0x10
80102804:	00088c48 	mtc2	t4,$1
80102808:	24106f00 	and	v0,v1,t7
8010280c:	ecff02ad 	sw	v0,-20(t0)
80102810:	0100184a 	c2	0x180001
80102814:	00110300 	sll	v0,v1,0x4
80102818:	24104f00 	and	v0,v0,t7
8010281c:	f8ff02ad 	sw	v0,-8(t0)
80102820:	fcff628d 	lw	v0,-4(t3)
80102824:	00000000 	nop
80102828:	e8ff02ad 	sw	v0,-24(t0)
8010282c:	00f84c48 	cfc2	t4,$31
80102830:	00000000 	nop
80102834:	0000ccad 	sw	t4,0(t6)
80102838:	0000c28d 	lw	v0,0(t6)
8010283c:	00000000 	nop
80102840:	8e004004 	bltz	v0,0x80102a7c
80102844:	2c004225 	addiu	v0,t2,44
80102848:	00004ee8 	swc2	$14,0(v0)
8010284c:	d8ff0295 	lhu	v0,-40(t0)
80102850:	00000000 	nop
80102854:	4001422c 	sltiu	v0,v0,320
80102858:	10004014 	bnez	v0,0x8010289c
8010285c:	00000000 	nop
80102860:	e4ff0295 	lhu	v0,-28(t0)
80102864:	00000000 	nop
80102868:	4001422c 	sltiu	v0,v0,320
8010286c:	0b004014 	bnez	v0,0x8010289c
80102870:	00000000 	nop
80102874:	f0ff0295 	lhu	v0,-16(t0)
80102878:	00000000 	nop
8010287c:	4001422c 	sltiu	v0,v0,320
80102880:	06004014 	bnez	v0,0x8010289c
80102884:	00000000 	nop
80102888:	fcff0295 	lhu	v0,-4(t0)
8010288c:	00000000 	nop
80102890:	4001422c 	sltiu	v0,v0,320
80102894:	79004010 	beqz	v0,0x80102a7c
80102898:	00000000 	nop
8010289c:	daff0295 	lhu	v0,-38(t0)
801028a0:	00000000 	nop
801028a4:	f000422c 	sltiu	v0,v0,240
801028a8:	10004014 	bnez	v0,0x801028ec
801028ac:	00000000 	nop
801028b0:	e6ff0295 	lhu	v0,-26(t0)
801028b4:	00000000 	nop
801028b8:	f000422c 	sltiu	v0,v0,240
801028bc:	0b004014 	bnez	v0,0x801028ec
801028c0:	00000000 	nop
801028c4:	f2ff0295 	lhu	v0,-14(t0)
801028c8:	00000000 	nop
801028cc:	f000422c 	sltiu	v0,v0,240
801028d0:	06004014 	bnez	v0,0x801028ec
801028d4:	00000000 	nop
801028d8:	feff0295 	lhu	v0,-2(t0)
801028dc:	00000000 	nop
801028e0:	f000422c 	sltiu	v0,v0,240
801028e4:	65004010 	beqz	v0,0x80102a7c
801028e8:	00000000 	nop
801028ec:	021e0300 	srl	v1,v1,0x18
801028f0:	01000224 	li	v0,1
801028f4:	05006210 	beq	v1,v0,0x8010290c
801028f8:	02000224 	li	v0,2
801028fc:	1a006210 	beq	v1,v0,0x80102968
80102900:	1000a227 	addiu	v0,sp,16
80102904:	5d2e0408 	j	0x8010b974
80102908:	00000000 	nop
8010290c:	0000b0eb 	swc2	$16,0(sp)
80102910:	0400a227 	addiu	v0,sp,4
80102914:	000051e8 	swc2	$17,0(v0)
80102918:	0800a227 	addiu	v0,sp,8
8010291c:	000052e8 	swc2	$18,0(v0)
80102920:	0c00a227 	addiu	v0,sp,12
80102924:	000053e8 	swc2	$19,0(v0)
80102928:	0400a78f 	lw	a3,4(sp)
8010292c:	0000a38f 	lw	v1,0(sp)
80102930:	00000000 	nop
80102934:	2a10e300 	slt	v0,a3,v1
80102938:	02004010 	beqz	v0,0x80102944
8010293c:	00000000 	nop
80102940:	21386000 	move	a3,v1
80102944:	0c00a38f 	lw	v1,12(sp)
80102948:	0800a48f 	lw	a0,8(sp)
8010294c:	00000000 	nop
80102950:	2a106400 	slt	v0,v1,a0
80102954:	1a004010 	beqz	v0,0x801029c0
80102958:	2a106700 	slt	v0,v1,a3
8010295c:	21188000 	move	v1,a0
80102960:	572e0408 	j	0x8010b95c
80102964:	2a106700 	slt	v0,v1,a3
80102968:	000050e8 	swc2	$16,0(v0)
8010296c:	1400a227 	addiu	v0,sp,20
80102970:	000051e8 	swc2	$17,0(v0)
80102974:	1800a227 	addiu	v0,sp,24
80102978:	000052e8 	swc2	$18,0(v0)
8010297c:	1c00a227 	addiu	v0,sp,28
80102980:	000053e8 	swc2	$19,0(v0)
80102984:	1400a78f 	lw	a3,20(sp)
80102988:	1000a38f 	lw	v1,16(sp)
8010298c:	00000000 	nop
80102990:	2a106700 	slt	v0,v1,a3
80102994:	02004010 	beqz	v0,0x801029a0
80102998:	00000000 	nop
8010299c:	21386000 	move	a3,v1
801029a0:	1c00a38f 	lw	v1,28(sp)
801029a4:	1800a48f 	lw	a0,24(sp)
801029a8:	00000000 	nop
801029ac:	2a108300 	slt	v0,a0,v1
801029b0:	03004010 	beqz	v0,0x801029c0
801029b4:	2a10e300 	slt	v0,a3,v1
801029b8:	21188000 	move	v1,a0
801029bc:	2a10e300 	slt	v0,a3,v1
801029c0:	03004010 	beqz	v0,0x801029d0
801029c4:	83100300 	sra	v0,v1,0x2
801029c8:	2118e000 	move	v1,a3
801029cc:	83100300 	sra	v0,v1,0x2
801029d0:	5f2e0408 	j	0x8010b97c
801029d4:	000022ad 	sw	v0,0(t1)
801029d8:	2e00684b 	c2	0x168002e
801029dc:	000027e9 	swc2	$7,0(t1)
801029e0:	0000228d 	lw	v0,0(t1)
801029e4:	00000000 	nop
801029e8:	8f014224 	addiu	v0,v0,399
801029ec:	b701422c 	sltiu	v0,v0,439
801029f0:	02004010 	beqz	v0,0x801029fc
801029f4:	28000224 	li	v0,40
801029f8:	000022ad 	sw	v0,0(t1)
801029fc:	0000228d 	lw	v0,0(t1)
80102a00:	00000000 	nop
80102a04:	831a0200 	sra	v1,v0,0xa
80102a08:	07106200 	srav	v0,v0,v1
80102a0c:	401a0300 	sll	v1,v1,0x9
80102a10:	21104300 	addu	v0,v0,v1
80102a14:	000022ad 	sw	v0,0(t1)
80102a18:	fcff4224 	addiu	v0,v0,-4
80102a1c:	fc07422c 	sltiu	v0,v0,2044
80102a20:	02004014 	bnez	v0,0x80102a2c
80102a24:	ffff0224 	li	v0,-1
80102a28:	000022ad 	sw	v0,0(t1)
80102a2c:	0000228d 	lw	v0,0(t1)
80102a30:	00000000 	nop
80102a34:	11004004 	bltz	v0,0x80102a7c
80102a38:	000c043c 	lui	a0,0xc00
80102a3c:	0000628d 	lw	v0,0(t3)
80102a40:	00000000 	nop
80102a44:	f4ff02ad 	sw	v0,-12(t0)
80102a48:	02140200 	srl	v0,v0,0x10
80102a4c:	000002ad 	sw	v0,0(t0)
80102a50:	0000228d 	lw	v0,0(t1)
80102a54:	00000000 	nop
80102a58:	80100200 	sll	v0,v0,0x2
80102a5c:	2110a200 	addu	v0,a1,v0
80102a60:	0000438c 	lw	v1,0(v0)
80102a64:	00000000 	nop
80102a68:	25186400 	or	v1,v1,a0
80102a6c:	000043ad 	sw	v1,0(t2)
80102a70:	00004aac 	sw	t2,0(v0)
80102a74:	34000825 	addiu	t0,t0,52
80102a78:	34004a25 	addiu	t2,t2,52
80102a7c:	2c006b25 	addiu	t3,t3,44
80102a80:	2c00ad25 	addiu	t5,t5,44
80102a84:	2110c000 	move	v0,a2
80102a88:	35ff4014 	bnez	v0,0x80102760
80102a8c:	ffffc624 	addiu	a2,a2,-1
80102a90:	0c80023c 	lui	v0,0x800c
80102a94:	44f54aac 	sw	t2,-2748(v0)
80102a98:	2110a001 	move	v0,t5
80102a9c:	0800e003 	jr	ra
80102aa0:	2000bd27 	addiu	sp,sp,32
80102aa4:	d8ffbd27 	addiu	sp,sp,-40
80102aa8:	2400bfaf 	sw	ra,36(sp)
80102aac:	2000b4af 	sw	s4,32(sp)
80102ab0:	1c00b3af 	sw	s3,28(sp)
80102ab4:	1800b2af 	sw	s2,24(sp)
80102ab8:	1400b1af 	sw	s1,20(sp)
80102abc:	1000b0af 	sw	s0,16(sp)
80102ac0:	06008290 	lbu	v0,6(a0)
80102ac4:	00000000 	nop
80102ac8:	2e004010 	beqz	v0,0x80102b84
80102acc:	10009124 	addiu	s1,a0,16
80102ad0:	40100200 	sll	v0,v0,0x1
80102ad4:	10004224 	addiu	v0,v0,16
80102ad8:	21988200 	addu	s3,a0,v0
80102adc:	0f80023c 	lui	v0,0x800f
80102ae0:	801f033c 	lui	v1,0x1f80
80102ae4:	f8006324 	addiu	v1,v1,248
80102ae8:	c8d8528c 	lw	s2,-10040(v0)
80102aec:	0c00948c 	lw	s4,12(a0)
80102af0:	00006c8c 	lw	t4,0(v1)
80102af4:	04006d8c 	lw	t5,4(v1)
80102af8:	0000cc48 	ctc2	t4,$0
80102afc:	0008cd48 	ctc2	t5,$1
80102b00:	08006c8c 	lw	t4,8(v1)
80102b04:	0c006d8c 	lw	t5,12(v1)
80102b08:	10006e8c 	lw	t6,16(v1)
80102b0c:	0010cc48 	ctc2	t4,$2
80102b10:	0018cd48 	ctc2	t5,$3
80102b14:	0020ce48 	ctc2	t6,$4
80102b18:	801f033c 	lui	v1,0x1f80
80102b1c:	f8006324 	addiu	v1,v1,248
80102b20:	14006c8c 	lw	t4,20(v1)
80102b24:	18006d8c 	lw	t5,24(v1)
80102b28:	0028cc48 	ctc2	t4,$5
80102b2c:	1c006e8c 	lw	t6,28(v1)
80102b30:	0030cd48 	ctc2	t5,$6
80102b34:	0038ce48 	ctc2	t6,$7
80102b38:	2b103302 	sltu	v0,s1,s3
80102b3c:	11004010 	beqz	v0,0x80102b84
80102b40:	21284002 	move	a1,s2
80102b44:	00002496 	lhu	a0,0(s1)
80102b48:	02003126 	addiu	s1,s1,2
80102b4c:	80200400 	sll	a0,a0,0x2
80102b50:	21208402 	addu	a0,s4,a0
80102b54:	0000908c 	lw	s0,0(a0)
80102b58:	04008424 	addiu	a0,a0,4
80102b5c:	f72c040c 	jal	0x8010b3dc
80102b60:	ff000632 	andi	a2,s0,0xff
80102b64:	02841000 	srl	s0,s0,0x10
80102b68:	21204000 	move	a0,v0
80102b6c:	21284002 	move	a1,s2
80102b70:	b12d040c 	jal	0x8010b6c4
80102b74:	ff000632 	andi	a2,s0,0xff
80102b78:	2b103302 	sltu	v0,s1,s3
80102b7c:	f1ff4014 	bnez	v0,0x80102b44
80102b80:	21284002 	move	a1,s2
80102b84:	2400bf8f 	lw	ra,36(sp)
80102b88:	2000b48f 	lw	s4,32(sp)
80102b8c:	1c00b38f 	lw	s3,28(sp)
80102b90:	1800b28f 	lw	s2,24(sp)
80102b94:	1400b18f 	lw	s1,20(sp)
80102b98:	1000b08f 	lw	s0,16(sp)
80102b9c:	0800e003 	jr	ra
80102ba0:	2800bd27 	addiu	sp,sp,40
80102ba4:	f0ffbd27 	addiu	sp,sp,-16
80102ba8:	21688000 	move	t5,a0
80102bac:	801f093c 	lui	t1,0x1f80
80102bb0:	04002935 	ori	t1,t1,0x4
80102bb4:	0c80023c 	lui	v0,0x800c
80102bb8:	44f54a8c 	lw	t2,-2748(v0)
80102bbc:	2110c000 	move	v0,a2
80102bc0:	ffffc624 	addiu	a2,a2,-1
80102bc4:	9b004010 	beqz	v0,0x80102e34
80102bc8:	801f0e3c 	lui	t6,0x1f80
80102bcc:	f0000f3c 	lui	t7,0xf0
80102bd0:	f0f0ef35 	ori	t7,t7,0xf0f0
80102bd4:	22008b24 	addiu	t3,a0,34
80102bd8:	24004825 	addiu	t0,t2,36
80102bdc:	1000a0c9 	lwc2	$0,16(t5)
80102be0:	1400ac8d 	lw	t4,20(t5)
80102be4:	1800a2c9 	lwc2	$2,24(t5)
80102be8:	00088c48 	mtc2	t4,$1
80102bec:	1c00a4c9 	lwc2	$4,28(t5)
80102bf0:	02640c00 	srl	t4,t4,0x10
80102bf4:	00188c48 	mtc2	t4,$3
80102bf8:	2000a5c9 	lwc2	$5,32(t5)
80102bfc:	0000a28d 	lw	v0,0(t5)
80102c00:	00000000 	nop
80102c04:	e0ff02ad 	sw	v0,-32(t0)
80102c08:	3000284a 	c2	0x280030
80102c0c:	e6ff628d 	lw	v0,-26(t3)
80102c10:	00000000 	nop
80102c14:	e8ff02ad 	sw	v0,-24(t0)
80102c18:	eaff628d 	lw	v0,-22(t3)
80102c1c:	00000000 	nop
80102c20:	f4ff02ad 	sw	v0,-12(t0)
80102c24:	e2ff638d 	lw	v1,-30(t3)
80102c28:	00f84c48 	cfc2	t4,$31
80102c2c:	00000000 	nop
80102c30:	0000ccad 	sw	t4,0(t6)
80102c34:	0000c28d 	lw	v0,0(t6)
80102c38:	00000000 	nop
80102c3c:	78004004 	bltz	v0,0x80102e20
80102c40:	00000000 	nop
80102c44:	0600404b 	c2	0x1400006
80102c48:	24106f00 	and	v0,v1,t7
80102c4c:	ecff02ad 	sw	v0,-20(t0)
80102c50:	0000d8e9 	swc2	$24,0(t6)
80102c54:	0000c28d 	lw	v0,0(t6)
80102c58:	00000000 	nop
80102c5c:	70004018 	blez	v0,0x80102e20
80102c60:	00000000 	nop
80102c64:	08004ce9 	swc2	$12,8(t2)
80102c68:	14004de9 	swc2	$13,20(t2)
80102c6c:	20004ee9 	swc2	$14,32(t2)
80102c70:	e4ff0295 	lhu	v0,-28(t0)
80102c74:	00000000 	nop
80102c78:	4001422c 	sltiu	v0,v0,320
80102c7c:	0b004014 	bnez	v0,0x80102cac
80102c80:	00000000 	nop
80102c84:	f0ff0295 	lhu	v0,-16(t0)
80102c88:	00000000 	nop
80102c8c:	4001422c 	sltiu	v0,v0,320
80102c90:	06004014 	bnez	v0,0x80102cac
80102c94:	00000000 	nop
80102c98:	fcff0295 	lhu	v0,-4(t0)
80102c9c:	00000000 	nop
80102ca0:	4001422c 	sltiu	v0,v0,320
80102ca4:	5e004010 	beqz	v0,0x80102e20
80102ca8:	00000000 	nop
80102cac:	e6ff0295 	lhu	v0,-26(t0)
80102cb0:	00000000 	nop
80102cb4:	f000422c 	sltiu	v0,v0,240
80102cb8:	0b004014 	bnez	v0,0x80102ce8
80102cbc:	00110300 	sll	v0,v1,0x4
80102cc0:	f2ff0295 	lhu	v0,-14(t0)
80102cc4:	00000000 	nop
80102cc8:	f000422c 	sltiu	v0,v0,240
80102ccc:	06004014 	bnez	v0,0x80102ce8
80102cd0:	00110300 	sll	v0,v1,0x4
80102cd4:	feff0295 	lhu	v0,-2(t0)
80102cd8:	00000000 	nop
80102cdc:	f000422c 	sltiu	v0,v0,240
80102ce0:	4f004010 	beqz	v0,0x80102e20
80102ce4:	00110300 	sll	v0,v1,0x4
80102ce8:	24104f00 	and	v0,v0,t7
80102cec:	021e0300 	srl	v1,v1,0x18
80102cf0:	2b006010 	beqz	v1,0x80102da0
80102cf4:	f8ff02ad 	sw	v0,-8(t0)
80102cf8:	0000b1eb 	swc2	$17,0(sp)
80102cfc:	0400a227 	addiu	v0,sp,4
80102d00:	000052e8 	swc2	$18,0(v0)
80102d04:	0800a227 	addiu	v0,sp,8
80102d08:	000053e8 	swc2	$19,0(v0)
80102d0c:	01000224 	li	v0,1
80102d10:	11006214 	bne	v1,v0,0x80102d58
80102d14:	00000000 	nop
80102d18:	0000a78f 	lw	a3,0(sp)
80102d1c:	0400a48f 	lw	a0,4(sp)
80102d20:	00000000 	nop
80102d24:	2a108700 	slt	v0,a0,a3
80102d28:	08004010 	beqz	v0,0x80102d4c
80102d2c:	00000000 	nop
80102d30:	0800a38f 	lw	v1,8(sp)
80102d34:	00000000 	nop
80102d38:	2a106700 	slt	v0,v1,a3
80102d3c:	16004010 	beqz	v0,0x80102d98
80102d40:	83100300 	sra	v0,v1,0x2
80102d44:	4c2f0408 	j	0x8010bd30
80102d48:	2118e000 	move	v1,a3
80102d4c:	0800a38f 	lw	v1,8(sp)
80102d50:	492f0408 	j	0x8010bd24
80102d54:	2a106400 	slt	v0,v1,a0
80102d58:	0000a78f 	lw	a3,0(sp)
80102d5c:	0400a48f 	lw	a0,4(sp)
80102d60:	00000000 	nop
80102d64:	2a10e400 	slt	v0,a3,a0
80102d68:	04004010 	beqz	v0,0x80102d7c
80102d6c:	00000000 	nop
80102d70:	0800a38f 	lw	v1,8(sp)
80102d74:	362f0408 	j	0x8010bcd8
80102d78:	2a10e300 	slt	v0,a3,v1
80102d7c:	0800a38f 	lw	v1,8(sp)
80102d80:	00000000 	nop
80102d84:	2a108300 	slt	v0,a0,v1
80102d88:	03004010 	beqz	v0,0x80102d98
80102d8c:	83100300 	sra	v0,v1,0x2
80102d90:	21188000 	move	v1,a0
80102d94:	83100300 	sra	v0,v1,0x2
80102d98:	512f0408 	j	0x8010bd44
80102d9c:	000022ad 	sw	v0,0(t1)
80102da0:	2d00584b 	c2	0x158002d
80102da4:	000027e9 	swc2	$7,0(t1)
80102da8:	0000228d 	lw	v0,0(t1)
80102dac:	00000000 	nop
80102db0:	831a0200 	sra	v1,v0,0xa
80102db4:	07106200 	srav	v0,v0,v1
80102db8:	401a0300 	sll	v1,v1,0x9
80102dbc:	21104300 	addu	v0,v0,v1
80102dc0:	000022ad 	sw	v0,0(t1)
80102dc4:	fcff4224 	addiu	v0,v0,-4
80102dc8:	fc07422c 	sltiu	v0,v0,2044
80102dcc:	02004014 	bnez	v0,0x80102dd8
80102dd0:	ffff0224 	li	v0,-1
80102dd4:	000022ad 	sw	v0,0(t1)
80102dd8:	0000228d 	lw	v0,0(t1)
80102ddc:	00000000 	nop
80102de0:	0f004004 	bltz	v0,0x80102e20
80102de4:	0009043c 	lui	a0,0x900
80102de8:	00006295 	lhu	v0,0(t3)
80102dec:	00000000 	nop
80102df0:	000002a5 	sh	v0,0(t0)
80102df4:	0000228d 	lw	v0,0(t1)
80102df8:	00000000 	nop
80102dfc:	80100200 	sll	v0,v0,0x2
80102e00:	2110a200 	addu	v0,a1,v0
80102e04:	0000438c 	lw	v1,0(v0)
80102e08:	00000000 	nop
80102e0c:	25186400 	or	v1,v1,a0
80102e10:	000043ad 	sw	v1,0(t2)
80102e14:	00004aac 	sw	t2,0(v0)
80102e18:	28000825 	addiu	t0,t0,40
80102e1c:	28004a25 	addiu	t2,t2,40
80102e20:	24006b25 	addiu	t3,t3,36
80102e24:	2400ad25 	addiu	t5,t5,36
80102e28:	2110c000 	move	v0,a2
80102e2c:	6bff4014 	bnez	v0,0x80102bdc
80102e30:	ffffc624 	addiu	a2,a2,-1
80102e34:	0c80023c 	lui	v0,0x800c
80102e38:	44f54aac 	sw	t2,-2748(v0)
80102e3c:	2110a001 	move	v0,t5
80102e40:	0800e003 	jr	ra
80102e44:	1000bd27 	addiu	sp,sp,16
80102e48:	f0ffbd27 	addiu	sp,sp,-16
80102e4c:	21688000 	move	t5,a0
80102e50:	801f093c 	lui	t1,0x1f80
80102e54:	04002935 	ori	t1,t1,0x4
80102e58:	0c80023c 	lui	v0,0x800c
80102e5c:	44f54a8c 	lw	t2,-2748(v0)
80102e60:	2110c000 	move	v0,a2
80102e64:	ffffc624 	addiu	a2,a2,-1
80102e68:	bf004010 	beqz	v0,0x80103168
80102e6c:	801f0e3c 	lui	t6,0x1f80
80102e70:	f0000f3c 	lui	t7,0xf0
80102e74:	f0f0ef35 	ori	t7,t7,0xf0f0
80102e78:	10008b24 	addiu	t3,a0,16
80102e7c:	30004825 	addiu	t0,t2,48
80102e80:	1800ac8d 	lw	t4,24(t5)
80102e84:	1400a0c9 	lwc2	$0,20(t5)
80102e88:	00088c48 	mtc2	t4,$1
80102e8c:	02640c00 	srl	t4,t4,0x10
80102e90:	00188c48 	mtc2	t4,$3
80102e94:	1c00a2c9 	lwc2	$2,28(t5)
80102e98:	2400ac8d 	lw	t4,36(t5)
80102e9c:	2000a4c9 	lwc2	$4,32(t5)
80102ea0:	00288c48 	mtc2	t4,$5
80102ea4:	f0ff023c 	lui	v0,0xfff0
80102ea8:	0000a38d 	lw	v1,0(t5)
80102eac:	f0f04234 	ori	v0,v0,0xf0f0
80102eb0:	24106200 	and	v0,v1,v0
80102eb4:	d4ff02ad 	sw	v0,-44(t0)
80102eb8:	3000284a 	c2	0x280030
80102ebc:	00110300 	sll	v0,v1,0x4
80102ec0:	24104f00 	and	v0,v0,t7
80102ec4:	e0ff02ad 	sw	v0,-32(t0)
80102ec8:	f4ff638d 	lw	v1,-12(t3)
80102ecc:	00f84c48 	cfc2	t4,$31
80102ed0:	00000000 	nop
80102ed4:	0000ccad 	sw	t4,0(t6)
80102ed8:	0000c28d 	lw	v0,0(t6)
80102edc:	00000000 	nop
80102ee0:	9c004004 	bltz	v0,0x80103154
80102ee4:	00000000 	nop
80102ee8:	0600404b 	c2	0x1400006
80102eec:	f8ff628d 	lw	v0,-8(t3)
80102ef0:	00000000 	nop
80102ef4:	dcff02ad 	sw	v0,-36(t0)
80102ef8:	0000d8e9 	swc2	$24,0(t6)
80102efc:	0000c28d 	lw	v0,0(t6)
80102f00:	00000000 	nop
80102f04:	93004018 	blez	v0,0x80103154
80102f08:	00000000 	nop
80102f0c:	08004ce9 	swc2	$12,8(t2)
80102f10:	14004de9 	swc2	$13,20(t2)
80102f14:	20004ee9 	swc2	$14,32(t2)
80102f18:	2400ac8d 	lw	t4,36(t5)
80102f1c:	2800a0c9 	lwc2	$0,40(t5)
80102f20:	02640c00 	srl	t4,t4,0x10
80102f24:	00088c48 	mtc2	t4,$1
80102f28:	24106f00 	and	v0,v1,t7
80102f2c:	ecff02ad 	sw	v0,-20(t0)
80102f30:	0100184a 	c2	0x180001
80102f34:	00110300 	sll	v0,v1,0x4
80102f38:	24104f00 	and	v0,v0,t7
80102f3c:	f8ff02ad 	sw	v0,-8(t0)
80102f40:	fcff628d 	lw	v0,-4(t3)
80102f44:	00000000 	nop
80102f48:	e8ff02ad 	sw	v0,-24(t0)
80102f4c:	00f84c48 	cfc2	t4,$31
80102f50:	00000000 	nop
80102f54:	0000ccad 	sw	t4,0(t6)
80102f58:	0000c28d 	lw	v0,0(t6)
80102f5c:	00000000 	nop
80102f60:	7c004004 	bltz	v0,0x80103154
80102f64:	2c004225 	addiu	v0,t2,44
80102f68:	00004ee8 	swc2	$14,0(v0)
80102f6c:	d8ff0295 	lhu	v0,-40(t0)
80102f70:	00000000 	nop
80102f74:	4001422c 	sltiu	v0,v0,320
80102f78:	10004014 	bnez	v0,0x80102fbc
80102f7c:	00000000 	nop
80102f80:	e4ff0295 	lhu	v0,-28(t0)
80102f84:	00000000 	nop
80102f88:	4001422c 	sltiu	v0,v0,320
80102f8c:	0b004014 	bnez	v0,0x80102fbc
80102f90:	00000000 	nop
80102f94:	f0ff0295 	lhu	v0,-16(t0)
80102f98:	00000000 	nop
80102f9c:	4001422c 	sltiu	v0,v0,320
80102fa0:	06004014 	bnez	v0,0x80102fbc
80102fa4:	00000000 	nop
80102fa8:	fcff0295 	lhu	v0,-4(t0)
80102fac:	00000000 	nop
80102fb0:	4001422c 	sltiu	v0,v0,320
80102fb4:	67004010 	beqz	v0,0x80103154
80102fb8:	00000000 	nop
80102fbc:	daff0295 	lhu	v0,-38(t0)
80102fc0:	00000000 	nop
80102fc4:	f000422c 	sltiu	v0,v0,240
80102fc8:	10004014 	bnez	v0,0x8010300c
80102fcc:	00000000 	nop
80102fd0:	e6ff0295 	lhu	v0,-26(t0)
80102fd4:	00000000 	nop
80102fd8:	f000422c 	sltiu	v0,v0,240
80102fdc:	0b004014 	bnez	v0,0x8010300c
80102fe0:	00000000 	nop
80102fe4:	f2ff0295 	lhu	v0,-14(t0)
80102fe8:	00000000 	nop
80102fec:	f000422c 	sltiu	v0,v0,240
80102ff0:	06004014 	bnez	v0,0x8010300c
80102ff4:	00000000 	nop
80102ff8:	feff0295 	lhu	v0,-2(t0)
80102ffc:	00000000 	nop
80103000:	f000422c 	sltiu	v0,v0,240
80103004:	53004010 	beqz	v0,0x80103154
80103008:	00000000 	nop
8010300c:	fcff628d 	lw	v0,-4(t3)
80103010:	021e0300 	srl	v1,v1,0x18
80103014:	30006010 	beqz	v1,0x801030d8
80103018:	e8ff02ad 	sw	v0,-24(t0)
8010301c:	0000b0eb 	swc2	$16,0(sp)
80103020:	0400a227 	addiu	v0,sp,4
80103024:	000051e8 	swc2	$17,0(v0)
80103028:	0800a227 	addiu	v0,sp,8
8010302c:	000052e8 	swc2	$18,0(v0)
80103030:	0c00a227 	addiu	v0,sp,12
80103034:	000053e8 	swc2	$19,0(v0)
80103038:	01000224 	li	v0,1
8010303c:	11006214 	bne	v1,v0,0x80103084
80103040:	00000000 	nop
80103044:	0400a78f 	lw	a3,4(sp)
80103048:	0000a38f 	lw	v1,0(sp)
8010304c:	00000000 	nop
80103050:	2a10e300 	slt	v0,a3,v1
80103054:	02004010 	beqz	v0,0x80103060
80103058:	00000000 	nop
8010305c:	21386000 	move	a3,v1
80103060:	0c00a38f 	lw	v1,12(sp)
80103064:	0800a48f 	lw	a0,8(sp)
80103068:	00000000 	nop
8010306c:	2a106400 	slt	v0,v1,a0
80103070:	13004010 	beqz	v0,0x801030c0
80103074:	2a106700 	slt	v0,v1,a3
80103078:	21188000 	move	v1,a0
8010307c:	17300408 	j	0x8010c05c
80103080:	2a106700 	slt	v0,v1,a3
80103084:	0400a78f 	lw	a3,4(sp)
80103088:	0000a38f 	lw	v1,0(sp)
8010308c:	00000000 	nop
80103090:	2a106700 	slt	v0,v1,a3
80103094:	02004010 	beqz	v0,0x801030a0
80103098:	00000000 	nop
8010309c:	21386000 	move	a3,v1
801030a0:	0c00a38f 	lw	v1,12(sp)
801030a4:	0800a48f 	lw	a0,8(sp)
801030a8:	00000000 	nop
801030ac:	2a108300 	slt	v0,a0,v1
801030b0:	03004010 	beqz	v0,0x801030c0
801030b4:	2a10e300 	slt	v0,a3,v1
801030b8:	21188000 	move	v1,a0
801030bc:	2a10e300 	slt	v0,a3,v1
801030c0:	03004010 	beqz	v0,0x801030d0
801030c4:	83100300 	sra	v0,v1,0x2
801030c8:	2118e000 	move	v1,a3
801030cc:	83100300 	sra	v0,v1,0x2
801030d0:	3c300408 	j	0x8010c0f0
801030d4:	000022ad 	sw	v0,0(t1)
801030d8:	2e00684b 	c2	0x168002e
801030dc:	000027e9 	swc2	$7,0(t1)
801030e0:	0000228d 	lw	v0,0(t1)
801030e4:	00000000 	nop
801030e8:	831a0200 	sra	v1,v0,0xa
801030ec:	07106200 	srav	v0,v0,v1
801030f0:	401a0300 	sll	v1,v1,0x9
801030f4:	21104300 	addu	v0,v0,v1
801030f8:	000022ad 	sw	v0,0(t1)
801030fc:	fcff4224 	addiu	v0,v0,-4
80103100:	fc07422c 	sltiu	v0,v0,2044
80103104:	02004014 	bnez	v0,0x80103110
80103108:	ffff0224 	li	v0,-1
8010310c:	000022ad 	sw	v0,0(t1)
80103110:	0000248d 	lw	a0,0(t1)
80103114:	00000000 	nop
80103118:	0e008004 	bltz	a0,0x80103154
8010311c:	80200400 	sll	a0,a0,0x2
80103120:	2120a400 	addu	a0,a1,a0
80103124:	0000828c 	lw	v0,0(a0)
80103128:	000c033c 	lui	v1,0xc00
8010312c:	25104300 	or	v0,v0,v1
80103130:	000042ad 	sw	v0,0(t2)
80103134:	00008aac 	sw	t2,0(a0)
80103138:	0000628d 	lw	v0,0(t3)
8010313c:	00000000 	nop
80103140:	f4ff02ad 	sw	v0,-12(t0)
80103144:	02140200 	srl	v0,v0,0x10
80103148:	000002ad 	sw	v0,0(t0)
8010314c:	34000825 	addiu	t0,t0,52
80103150:	34004a25 	addiu	t2,t2,52
80103154:	2c006b25 	addiu	t3,t3,44
80103158:	2c00ad25 	addiu	t5,t5,44
8010315c:	2110c000 	move	v0,a2
80103160:	47ff4014 	bnez	v0,0x80102e80
80103164:	ffffc624 	addiu	a2,a2,-1
80103168:	0c80023c 	lui	v0,0x800c
8010316c:	44f54aac 	sw	t2,-2748(v0)
80103170:	2110a001 	move	v0,t5
80103174:	0800e003 	jr	ra
80103178:	1000bd27 	addiu	sp,sp,16
8010317c:	e0ffbd27 	addiu	sp,sp,-32
80103180:	1400b1af 	sw	s1,20(sp)
80103184:	2188a000 	move	s1,a1
80103188:	1800bfaf 	sw	ra,24(sp)
8010318c:	1000b0af 	sw	s0,16(sp)
80103190:	0000908c 	lw	s0,0(a0)
80103194:	10008424 	addiu	a0,a0,16
80103198:	d02e040c 	jal	0x8010bb40
8010319c:	ffff0632 	andi	a2,s0,0xffff
801031a0:	21204000 	move	a0,v0
801031a4:	21282002 	move	a1,s1
801031a8:	792f040c 	jal	0x8010bde4
801031ac:	02341000 	srl	a2,s0,0x10
801031b0:	1800bf8f 	lw	ra,24(sp)
801031b4:	1400b18f 	lw	s1,20(sp)
801031b8:	1000b08f 	lw	s0,16(sp)
801031bc:	0800e003 	jr	ra
801031c0:	2000bd27 	addiu	sp,sp,32
801031c4:	c0ffbd27 	addiu	sp,sp,-64
801031c8:	3400b3af 	sw	s3,52(sp)
801031cc:	21988000 	move	s3,a0
801031d0:	2800b0af 	sw	s0,40(sp)
801031d4:	801f103c 	lui	s0,0x1f80
801031d8:	d0001026 	addiu	s0,s0,208
801031dc:	3000b2af 	sw	s2,48(sp)
801031e0:	0a80123c 	lui	s2,0x800a
801031e4:	802f0324 	li	v1,12160
801031e8:	3c00bfaf 	sw	ra,60(sp)
801031ec:	3800b4af 	sw	s4,56(sp)
801031f0:	2c00b1af 	sw	s1,44(sp)
801031f4:	22000296 	lhu	v0,34(s0)
801031f8:	0a80113c 	lui	s1,0x800a
801031fc:	903f43ae 	sw	v1,16272(s2)
80103200:	943f238e 	lw	v1,16276(s1)
80103204:	00140200 	sll	v0,v0,0x10
80103208:	03140200 	sra	v0,v0,0x10
8010320c:	23100200 	negu	v0,v0
80103210:	23104300 	subu	v0,v0,v1
80103214:	ff0f5430 	andi	s4,v0,0xfff
80103218:	02000296 	lhu	v0,2(s0)
8010321c:	0a000396 	lhu	v1,10(s0)
80103220:	21208002 	move	a0,s4
80103224:	1000a2a7 	sh	v0,16(sp)
80103228:	a00f020c 	jal	0x80083e80
8010322c:	1200a3a7 	sh	v1,18(sp)
80103230:	903f438e 	lw	v1,16272(s2)
80103234:	00000000 	nop
80103238:	18004300 	mult	v0,v1
8010323c:	21208002 	move	a0,s4
80103240:	1000a297 	lhu	v0,16(sp)
80103244:	12180000 	mflo	v1
80103248:	031b0300 	sra	v1,v1,0xc
8010324c:	21104300 	addu	v0,v0,v1
80103250:	d40f020c 	jal	0x80083f50
80103254:	1800a2a7 	sh	v0,24(sp)
80103258:	903f438e 	lw	v1,16272(s2)
8010325c:	00000000 	nop
80103260:	18004300 	mult	v0,v1
80103264:	22000386 	lh	v1,34(s0)
80103268:	943f228e 	lw	v0,16276(s1)
8010326c:	00000000 	nop
80103270:	23104300 	subu	v0,v0,v1
80103274:	ff0f5430 	andi	s4,v0,0xfff
80103278:	21208002 	move	a0,s4
8010327c:	1200a297 	lhu	v0,18(sp)
80103280:	12400000 	mflo	t0
80103284:	031b0800 	sra	v1,t0,0xc
80103288:	21104300 	addu	v0,v0,v1
8010328c:	a00f020c 	jal	0x80083e80
80103290:	1a00a2a7 	sh	v0,26(sp)
80103294:	903f438e 	lw	v1,16272(s2)
80103298:	00000000 	nop
8010329c:	18004300 	mult	v0,v1
801032a0:	21208002 	move	a0,s4
801032a4:	1000a297 	lhu	v0,16(sp)
801032a8:	12180000 	mflo	v1
801032ac:	031b0300 	sra	v1,v1,0xc
801032b0:	21104300 	addu	v0,v0,v1
801032b4:	d40f020c 	jal	0x80083f50
801032b8:	2000a2a7 	sh	v0,32(sp)
801032bc:	903f438e 	lw	v1,16272(s2)
801032c0:	00000000 	nop
801032c4:	18004300 	mult	v0,v1
801032c8:	20000486 	lh	a0,32(s0)
801032cc:	1200a297 	lhu	v0,18(sp)
801032d0:	12180000 	mflo	v1
801032d4:	031b0300 	sra	v1,v1,0xc
801032d8:	21104300 	addu	v0,v0,v1
801032dc:	a00f020c 	jal	0x80083e80
801032e0:	2200a2a7 	sh	v0,34(sp)
801032e4:	22000486 	lh	a0,34(s0)
801032e8:	02004104 	bgez	v0,0x801032f4
801032ec:	21884000 	move	s1,v0
801032f0:	23881100 	negu	s1,s1
801032f4:	a00f020c 	jal	0x80083e80
801032f8:	23200400 	negu	a0,a0
801032fc:	18005100 	mult	v0,s1
80103300:	22000486 	lh	a0,34(s0)
80103304:	00000000 	nop
80103308:	23200400 	negu	a0,a0
8010330c:	12180000 	mflo	v1
80103310:	d40f020c 	jal	0x80083f50
80103314:	03830300 	sra	s0,v1,0xc
80103318:	18005100 	mult	v0,s1
8010331c:	12400000 	mflo	t0
80103320:	903f438e 	lw	v1,16272(s2)
80103324:	00000000 	nop
80103328:	18000302 	mult	s0,v1
8010332c:	12200000 	mflo	a0
80103330:	036b0800 	sra	t5,t0,0xc
80103334:	00000000 	nop
80103338:	1800a301 	mult	t5,v1
8010333c:	66660b3c 	lui	t3,0x6666
80103340:	67666b35 	ori	t3,t3,0x6667
80103344:	1000a697 	lhu	a2,16(sp)
80103348:	80100400 	sll	v0,a0,0x2
8010334c:	21104400 	addu	v0,v0,a0
80103350:	03840200 	sra	s0,v0,0x10
80103354:	2330d000 	subu	a2,a2,s0
80103358:	12180000 	mflo	v1
8010335c:	00540600 	sll	t2,a2,0x10
80103360:	03140a00 	sra	v0,t2,0x10
80103364:	18004b00 	mult	v0,t3
80103368:	1200a797 	lhu	a3,18(sp)
8010336c:	80100300 	sll	v0,v1,0x2
80103370:	21104300 	addu	v0,v0,v1
80103374:	036c0200 	sra	t5,v0,0x10
80103378:	2338ed00 	subu	a3,a3,t5
8010337c:	10780000 	mfhi	t7
80103380:	00640700 	sll	t4,a3,0x10
80103384:	03140c00 	sra	v0,t4,0x10
80103388:	18004b00 	mult	v0,t3
8010338c:	1800a397 	lhu	v1,24(sp)
80103390:	00000000 	nop
80103394:	23187000 	subu	v1,v1,s0
80103398:	10880000 	mfhi	s1
8010339c:	00440300 	sll	t0,v1,0x10
801033a0:	03140800 	sra	v0,t0,0x10
801033a4:	18004b00 	mult	v0,t3
801033a8:	2000a597 	lhu	a1,32(sp)
801033ac:	21206002 	move	a0,s3
801033b0:	2328b000 	subu	a1,a1,s0
801033b4:	10700000 	mfhi	t6
801033b8:	004c0500 	sll	t1,a1,0x10
801033bc:	03140900 	sra	v0,t1,0x10
801033c0:	18004b00 	mult	v0,t3
801033c4:	2000a5a7 	sh	a1,32(sp)
801033c8:	1a00a597 	lhu	a1,26(sp)
801033cc:	c3570a00 	sra	t2,t2,0x1f
801033d0:	1000a6a7 	sh	a2,16(sp)
801033d4:	2200a697 	lhu	a2,34(sp)
801033d8:	2328ad00 	subu	a1,a1,t5
801033dc:	2330cd00 	subu	a2,a2,t5
801033e0:	1a00a5a7 	sh	a1,26(sp)
801033e4:	002c0500 	sll	a1,a1,0x10
801033e8:	2200a6a7 	sh	a2,34(sp)
801033ec:	1800a3a7 	sh	v1,24(sp)
801033f0:	10180000 	mfhi	v1
801033f4:	00340600 	sll	a2,a2,0x10
801033f8:	03140500 	sra	v0,a1,0x10
801033fc:	18004b00 	mult	v0,t3
80103400:	c3670c00 	sra	t4,t4,0x1f
80103404:	1200a7a7 	sh	a3,18(sp)
80103408:	c3470800 	sra	t0,t0,0x1f
8010340c:	c34f0900 	sra	t1,t1,0x1f
80103410:	c32f0500 	sra	a1,a1,0x1f
80103414:	03120f00 	sra	v0,t7,0x8
80103418:	23104a00 	subu	v0,v0,t2
8010341c:	1000a2a7 	sh	v0,16(sp)
80103420:	03120e00 	sra	v0,t6,0x8
80103424:	23104800 	subu	v0,v0,t0
80103428:	031a0300 	sra	v1,v1,0x8
8010342c:	10380000 	mfhi	a3
80103430:	1800a2a7 	sh	v0,24(sp)
80103434:	03140600 	sra	v0,a2,0x10
80103438:	18004b00 	mult	v0,t3
8010343c:	23186900 	subu	v1,v1,t1
80103440:	c3370600 	sra	a2,a2,0x1f
80103444:	2000a3a7 	sh	v1,32(sp)
80103448:	03121100 	sra	v0,s1,0x8
8010344c:	23104c00 	subu	v0,v0,t4
80103450:	1200a2a7 	sh	v0,18(sp)
80103454:	03120700 	sra	v0,a3,0x8
80103458:	23104500 	subu	v0,v0,a1
8010345c:	1000a527 	addiu	a1,sp,16
80103460:	2000a727 	addiu	a3,sp,32
80103464:	1a00a2a7 	sh	v0,26(sp)
80103468:	10400000 	mfhi	t0
8010346c:	03120800 	sra	v0,t0,0x8
80103470:	23104600 	subu	v0,v0,a2
80103474:	1800a627 	addiu	a2,sp,24
80103478:	2200a2a7 	sh	v0,34(sp)
8010347c:	1031040c 	jal	0x8010c440
80103480:	060080a0 	sb	zero,6(a0)
80103484:	3c00bf8f 	lw	ra,60(sp)
80103488:	3800b48f 	lw	s4,56(sp)
8010348c:	3400b38f 	lw	s3,52(sp)
80103490:	3000b28f 	lw	s2,48(sp)
80103494:	2c00b18f 	lw	s1,44(sp)
80103498:	2800b08f 	lw	s0,40(sp)
8010349c:	0800e003 	jr	ra
801034a0:	4000bd27 	addiu	sp,sp,64
801034a4:	f8ffbd27 	addiu	sp,sp,-8
801034a8:	0400b1af 	sw	s1,4(sp)
801034ac:	0000b0af 	sw	s0,0(sp)
801034b0:	0000a384 	lh	v1,0(a1)
801034b4:	0200a584 	lh	a1,2(a1)
801034b8:	0000c884 	lh	t0,0(a2)
801034bc:	0200cc84 	lh	t4,2(a2)
801034c0:	0000e984 	lh	t1,0(a3)
801034c4:	0200ed84 	lh	t5,2(a3)
801034c8:	03008515 	bne	t4,a1,0x801034d8
801034cc:	2a108501 	slt	v0,t4,a1
801034d0:	40018d11 	beq	t4,t5,0x801039d4
801034d4:	00000000 	nop
801034d8:	06004010 	beqz	v0,0x801034f4
801034dc:	21106000 	move	v0,v1
801034e0:	21180001 	move	v1,t0
801034e4:	21404000 	move	t0,v0
801034e8:	2110a000 	move	v0,a1
801034ec:	21288001 	move	a1,t4
801034f0:	21604000 	move	t4,v0
801034f4:	2a10a501 	slt	v0,t5,a1
801034f8:	06004010 	beqz	v0,0x80103514
801034fc:	21106000 	move	v0,v1
80103500:	21182001 	move	v1,t1
80103504:	21484000 	move	t1,v0
80103508:	2110a000 	move	v0,a1
8010350c:	2128a001 	move	a1,t5
80103510:	21684000 	move	t5,v0
80103514:	2a10ac01 	slt	v0,t5,t4
80103518:	06004010 	beqz	v0,0x80103534
8010351c:	21100001 	move	v0,t0
80103520:	21402001 	move	t0,t1
80103524:	21484000 	move	t1,v0
80103528:	21108001 	move	v0,t4
8010352c:	2160a001 	move	t4,t5
80103530:	21684000 	move	t5,v0
80103534:	23700301 	subu	t6,t0,v1
80103538:	23c02301 	subu	t8,t1,v1
8010353c:	23308501 	subu	a2,t4,a1
80103540:	0a008515 	bne	t4,a1,0x8010356c
80103544:	2338a501 	subu	a3,t5,a1
80103548:	2a106800 	slt	v0,v1,t0
8010354c:	03004010 	beqz	v0,0x8010355c
80103550:	005c0300 	sll	t3,v1,0x10
80103554:	40310408 	j	0x8010c500
80103558:	00540800 	sll	t2,t0,0x10
8010355c:	005c0800 	sll	t3,t0,0x10
80103560:	00540300 	sll	t2,v1,0x10
80103564:	50310408 	j	0x8010c540
80103568:	21780000 	move	t7,zero
8010356c:	00540300 	sll	t2,v1,0x10
80103570:	21584001 	move	t3,t2
80103574:	00140e00 	sll	v0,t6,0x10
80103578:	1a004600 	div	zero,v0,a2
8010357c:	0200c014 	bnez	a2,0x80103588
80103580:	00000000 	nop
80103584:	0d000700 	break	0x7
80103588:	ffff0124 	li	at,-1
8010358c:	0400c114 	bne	a2,at,0x801035a0
80103590:	0080013c 	lui	at,0x8000
80103594:	02004114 	bne	v0,at,0x801035a0
80103598:	00000000 	nop
8010359c:	0d000600 	break	0x6
801035a0:	12780000 	mflo	t7
801035a4:	0100023c 	lui	v0,0x1
801035a8:	03008d15 	bne	t4,t5,0x801035b8
801035ac:	21504201 	addu	t2,t2,v0
801035b0:	63310408 	j	0x8010c58c
801035b4:	21c80000 	move	t9,zero
801035b8:	23102801 	subu	v0,t1,t0
801035bc:	00140200 	sll	v0,v0,0x10
801035c0:	2318ac01 	subu	v1,t5,t4
801035c4:	1a004300 	div	zero,v0,v1
801035c8:	02006014 	bnez	v1,0x801035d4
801035cc:	00000000 	nop
801035d0:	0d000700 	break	0x7
801035d4:	ffff0124 	li	at,-1
801035d8:	04006114 	bne	v1,at,0x801035ec
801035dc:	0080013c 	lui	at,0x8000
801035e0:	02004114 	bne	v0,at,0x801035ec
801035e4:	00000000 	nop
801035e8:	0d000600 	break	0x6
801035ec:	12c80000 	mflo	t9
801035f0:	23100700 	negu	v0,a3
801035f4:	00000000 	nop
801035f8:	18004e00 	mult	v0,t6
801035fc:	12180000 	mflo	v1
	...
80103608:	18000603 	mult	t8,a2
8010360c:	12400000 	mflo	t0
80103610:	00141800 	sll	v0,t8,0x10
80103614:	21186800 	addu	v1,v1,t0
80103618:	1a004700 	div	zero,v0,a3
8010361c:	0200e014 	bnez	a3,0x80103628
80103620:	00000000 	nop
80103624:	0d000700 	break	0x7
80103628:	ffff0124 	li	at,-1
8010362c:	0400e114 	bne	a3,at,0x80103640
80103630:	0080013c 	lui	at,0x8000
80103634:	02004114 	bne	v0,at,0x80103640
80103638:	00000000 	nop
8010363c:	0d000600 	break	0x6
80103640:	12700000 	mflo	t6
80103644:	73006018 	blez	v1,0x80103814
80103648:	2140a000 	move	t0,a1
8010364c:	2a100c01 	slt	v0,t0,t4
80103650:	36004010 	beqz	v0,0x8010372c
80103654:	0f80023c 	lui	v0,0x800f
80103658:	58cf5024 	addiu	s0,v0,-12456
8010365c:	ffff1824 	li	t8,-1
80103660:	034c0a00 	sra	t1,t2,0x10
80103664:	2c000005 	bltz	t0,0x80103718
80103668:	03340b00 	sra	a2,t3,0x10
8010366c:	0a008584 	lh	a1,10(a0)
80103670:	00000000 	nop
80103674:	2a100501 	slt	v0,t0,a1
80103678:	27004010 	beqz	v0,0x80103718
8010367c:	00000000 	nop
80103680:	08008384 	lh	v1,8(a0)
80103684:	00000000 	nop
80103688:	2a102301 	slt	v0,t1,v1
8010368c:	02004014 	bnez	v0,0x80103698
80103690:	2138c000 	move	a3,a2
80103694:	ffff6924 	addiu	t1,v1,-1
80103698:	0300e104 	bgez	a3,0x801036a8
8010369c:	1800e500 	mult	a3,a1
801036a0:	21380000 	move	a3,zero
801036a4:	1800e500 	mult	a3,a1
801036a8:	2000068e 	lw	a2,32(s0)
801036ac:	00000000 	nop
801036b0:	0400c624 	addiu	a2,a2,4
801036b4:	12880000 	mflo	s1
801036b8:	a8310408 	j	0x8010c6a0
801036bc:	21102802 	addu	v0,s1,t0
801036c0:	0000c284 	lh	v0,0(a2)
801036c4:	00000000 	nop
801036c8:	0c005810 	beq	v0,t8,0x801036fc
801036cc:	00000000 	nop
801036d0:	06008390 	lbu	v1,6(a0)
801036d4:	00000000 	nop
801036d8:	ff006530 	andi	a1,v1,0xff
801036dc:	fe00a22c 	sltiu	v0,a1,254
801036e0:	06004010 	beqz	v0,0x801036fc
801036e4:	01006224 	addiu	v0,v1,1
801036e8:	060082a0 	sb	v0,6(a0)
801036ec:	40100500 	sll	v0,a1,0x1
801036f0:	0000c394 	lhu	v1,0(a2)
801036f4:	21108200 	addu	v0,a0,v0
801036f8:	100043a4 	sh	v1,16(v0)
801036fc:	0a008284 	lh	v0,10(a0)
80103700:	0100e724 	addiu	a3,a3,1
80103704:	40100200 	sll	v0,v0,0x1
80103708:	2130c200 	addu	a2,a2,v0
8010370c:	2a102701 	slt	v0,t1,a3
80103710:	ebff4010 	beqz	v0,0x801036c0
80103714:	00000000 	nop
80103718:	21586f01 	addu	t3,t3,t7
8010371c:	01000825 	addiu	t0,t0,1
80103720:	2a100c01 	slt	v0,t0,t4
80103724:	ceff4014 	bnez	v0,0x80103660
80103728:	21504e01 	addu	t2,t2,t6
8010372c:	2a10a801 	slt	v0,t5,t0
80103730:	a8004014 	bnez	v0,0x801039d4
80103734:	0f80023c 	lui	v0,0x800f
80103738:	58cf4f24 	addiu	t7,v0,-12456
8010373c:	ffff0c24 	li	t4,-1
80103740:	034c0a00 	sra	t1,t2,0x10
80103744:	2c000005 	bltz	t0,0x801037f8
80103748:	03340b00 	sra	a2,t3,0x10
8010374c:	0a008584 	lh	a1,10(a0)
80103750:	00000000 	nop
80103754:	2a100501 	slt	v0,t0,a1
80103758:	27004010 	beqz	v0,0x801037f8
8010375c:	00000000 	nop
80103760:	08008384 	lh	v1,8(a0)
80103764:	00000000 	nop
80103768:	2a102301 	slt	v0,t1,v1
8010376c:	02004014 	bnez	v0,0x80103778
80103770:	2138c000 	move	a3,a2
80103774:	ffff6924 	addiu	t1,v1,-1
80103778:	0300e104 	bgez	a3,0x80103788
8010377c:	1800e500 	mult	a3,a1
80103780:	21380000 	move	a3,zero
80103784:	1800e500 	mult	a3,a1
80103788:	2000e68d 	lw	a2,32(t7)
8010378c:	00000000 	nop
80103790:	0400c624 	addiu	a2,a2,4
80103794:	12880000 	mflo	s1
80103798:	e0310408 	j	0x8010c780
8010379c:	21102802 	addu	v0,s1,t0
801037a0:	0000c284 	lh	v0,0(a2)
801037a4:	00000000 	nop
801037a8:	0c004c10 	beq	v0,t4,0x801037dc
801037ac:	00000000 	nop
801037b0:	06008390 	lbu	v1,6(a0)
801037b4:	00000000 	nop
801037b8:	ff006530 	andi	a1,v1,0xff
801037bc:	fe00a22c 	sltiu	v0,a1,254
801037c0:	06004010 	beqz	v0,0x801037dc
801037c4:	01006224 	addiu	v0,v1,1
801037c8:	060082a0 	sb	v0,6(a0)
801037cc:	40100500 	sll	v0,a1,0x1
801037d0:	0000c394 	lhu	v1,0(a2)
801037d4:	21108200 	addu	v0,a0,v0
801037d8:	100043a4 	sh	v1,16(v0)
801037dc:	0a008284 	lh	v0,10(a0)
801037e0:	0100e724 	addiu	a3,a3,1
801037e4:	40100200 	sll	v0,v0,0x1
801037e8:	2130c200 	addu	a2,a2,v0
801037ec:	2a102701 	slt	v0,t1,a3
801037f0:	ebff4010 	beqz	v0,0x801037a0
801037f4:	00000000 	nop
801037f8:	21587901 	addu	t3,t3,t9
801037fc:	01000825 	addiu	t0,t0,1
80103800:	2a10a801 	slt	v0,t5,t0
80103804:	ceff4010 	beqz	v0,0x80103740
80103808:	21504e01 	addu	t2,t2,t6
8010380c:	5c320408 	j	0x8010c970
80103810:	00000000 	nop
80103814:	2a100c01 	slt	v0,t0,t4
80103818:	36004010 	beqz	v0,0x801038f4
8010381c:	0f80023c 	lui	v0,0x800f
80103820:	58cf5024 	addiu	s0,v0,-12456
80103824:	ffff1824 	li	t8,-1
80103828:	034c0a00 	sra	t1,t2,0x10
8010382c:	2c000005 	bltz	t0,0x801038e0
80103830:	03340b00 	sra	a2,t3,0x10
80103834:	0a008584 	lh	a1,10(a0)
80103838:	00000000 	nop
8010383c:	2a100501 	slt	v0,t0,a1
80103840:	27004010 	beqz	v0,0x801038e0
80103844:	00000000 	nop
80103848:	08008384 	lh	v1,8(a0)
8010384c:	00000000 	nop
80103850:	2a102301 	slt	v0,t1,v1
80103854:	02004014 	bnez	v0,0x80103860
80103858:	2138c000 	move	a3,a2
8010385c:	ffff6924 	addiu	t1,v1,-1
80103860:	0300e104 	bgez	a3,0x80103870
80103864:	1800e500 	mult	a3,a1
80103868:	21380000 	move	a3,zero
8010386c:	1800e500 	mult	a3,a1
80103870:	2000068e 	lw	a2,32(s0)
80103874:	00000000 	nop
80103878:	0400c624 	addiu	a2,a2,4
8010387c:	12880000 	mflo	s1
80103880:	1a320408 	j	0x8010c868
80103884:	21102802 	addu	v0,s1,t0
80103888:	0000c284 	lh	v0,0(a2)
8010388c:	00000000 	nop
80103890:	0c005810 	beq	v0,t8,0x801038c4
80103894:	00000000 	nop
80103898:	06008390 	lbu	v1,6(a0)
8010389c:	00000000 	nop
801038a0:	ff006530 	andi	a1,v1,0xff
801038a4:	fe00a22c 	sltiu	v0,a1,254
801038a8:	06004010 	beqz	v0,0x801038c4
801038ac:	01006224 	addiu	v0,v1,1
801038b0:	060082a0 	sb	v0,6(a0)
801038b4:	40100500 	sll	v0,a1,0x1
801038b8:	0000c394 	lhu	v1,0(a2)
801038bc:	21108200 	addu	v0,a0,v0
801038c0:	100043a4 	sh	v1,16(v0)
801038c4:	0a008284 	lh	v0,10(a0)
801038c8:	0100e724 	addiu	a3,a3,1
801038cc:	40100200 	sll	v0,v0,0x1
801038d0:	2130c200 	addu	a2,a2,v0
801038d4:	2a102701 	slt	v0,t1,a3
801038d8:	ebff4010 	beqz	v0,0x80103888
801038dc:	00000000 	nop
801038e0:	21504f01 	addu	t2,t2,t7
801038e4:	01000825 	addiu	t0,t0,1
801038e8:	2a100c01 	slt	v0,t0,t4
801038ec:	ceff4014 	bnez	v0,0x80103828
801038f0:	21586e01 	addu	t3,t3,t6
801038f4:	2a10a801 	slt	v0,t5,t0
801038f8:	36004014 	bnez	v0,0x801039d4
801038fc:	0f80023c 	lui	v0,0x800f
80103900:	58cf4f24 	addiu	t7,v0,-12456
80103904:	ffff0c24 	li	t4,-1
80103908:	034c0a00 	sra	t1,t2,0x10
8010390c:	2c000005 	bltz	t0,0x801039c0
80103910:	03340b00 	sra	a2,t3,0x10
80103914:	0a008584 	lh	a1,10(a0)
80103918:	00000000 	nop
8010391c:	2a100501 	slt	v0,t0,a1
80103920:	27004010 	beqz	v0,0x801039c0
80103924:	00000000 	nop
80103928:	08008384 	lh	v1,8(a0)
8010392c:	00000000 	nop
80103930:	2a102301 	slt	v0,t1,v1
80103934:	02004014 	bnez	v0,0x80103940
80103938:	2138c000 	move	a3,a2
8010393c:	ffff6924 	addiu	t1,v1,-1
80103940:	0300e104 	bgez	a3,0x80103950
80103944:	1800e500 	mult	a3,a1
80103948:	21380000 	move	a3,zero
8010394c:	1800e500 	mult	a3,a1
80103950:	2000e68d 	lw	a2,32(t7)
80103954:	00000000 	nop
80103958:	0400c624 	addiu	a2,a2,4
8010395c:	12880000 	mflo	s1
80103960:	52320408 	j	0x8010c948
80103964:	21102802 	addu	v0,s1,t0
80103968:	0000c284 	lh	v0,0(a2)
8010396c:	00000000 	nop
80103970:	0c004c10 	beq	v0,t4,0x801039a4
80103974:	00000000 	nop
80103978:	06008390 	lbu	v1,6(a0)
8010397c:	00000000 	nop
80103980:	ff006530 	andi	a1,v1,0xff
80103984:	fe00a22c 	sltiu	v0,a1,254
80103988:	06004010 	beqz	v0,0x801039a4
8010398c:	01006224 	addiu	v0,v1,1
80103990:	060082a0 	sb	v0,6(a0)
80103994:	40100500 	sll	v0,a1,0x1
80103998:	0000c394 	lhu	v1,0(a2)
8010399c:	21108200 	addu	v0,a0,v0
801039a0:	100043a4 	sh	v1,16(v0)
801039a4:	0a008284 	lh	v0,10(a0)
801039a8:	0100e724 	addiu	a3,a3,1
801039ac:	40100200 	sll	v0,v0,0x1
801039b0:	2130c200 	addu	a2,a2,v0
801039b4:	2a102701 	slt	v0,t1,a3
801039b8:	ebff4010 	beqz	v0,0x80103968
801039bc:	00000000 	nop
801039c0:	21586e01 	addu	t3,t3,t6
801039c4:	01000825 	addiu	t0,t0,1
801039c8:	2a10a801 	slt	v0,t5,t0
801039cc:	ceff4010 	beqz	v0,0x80103908
801039d0:	21505901 	addu	t2,t2,t9
801039d4:	0400b18f 	lw	s1,4(sp)
801039d8:	0000b08f 	lw	s0,0(sp)
801039dc:	0800e003 	jr	ra
801039e0:	0800bd27 	addiu	sp,sp,8
801039e4:	0f80023c 	lui	v0,0x800f
801039e8:	78cf428c 	lw	v0,-12424(v0)
801039ec:	00000000 	nop
801039f0:	0c0082ac 	sw	v0,12(a0)
801039f4:	00004394 	lhu	v1,0(v0)
801039f8:	00000000 	nop
801039fc:	080083a4 	sh	v1,8(a0)
80103a00:	02004294 	lhu	v0,2(v0)
80103a04:	070080a0 	sb	zero,7(a0)
80103a08:	0800e003 	jr	ra
80103a0c:	0a0082a4 	sh	v0,10(a0)
80103a10:	e8ffbd27 	addiu	sp,sp,-24
80103a14:	00240400 	sll	a0,a0,0x10
80103a18:	12008014 	bnez	a0,0x80103a64
80103a1c:	1000bfaf 	sw	ra,16(sp)
80103a20:	1180033c 	lui	v1,0x8011
80103a24:	b4ca6324 	addiu	v1,v1,-13644
80103a28:	801f043c 	lui	a0,0x1f80
80103a2c:	00140500 	sll	v0,a1,0x10
80103a30:	83130200 	sra	v0,v0,0xe
80103a34:	21104300 	addu	v0,v0,v1
80103a38:	1c02858c 	lw	a1,540(a0)
80103a3c:	03000424 	li	a0,3
80103a40:	21380000 	move	a3,zero
80103a44:	00004394 	lhu	v1,0(v0)
80103a48:	02004694 	lhu	a2,2(v0)
80103a4c:	40190300 	sll	v1,v1,0x5
80103a50:	2128a300 	addu	a1,a1,v1
80103a54:	0100c624 	addiu	a2,a2,1
80103a58:	40310600 	sll	a2,a2,0x5
80103a5c:	aa74000c 	jal	0x8001d2a8
80103a60:	2130a600 	addu	a2,a1,a2
80103a64:	1000bf8f 	lw	ra,16(sp)
80103a68:	00000000 	nop
80103a6c:	0800e003 	jr	ra
80103a70:	1800bd27 	addiu	sp,sp,24
80103a74:	00090000 	sll	at,zero,0x4
80103a78:	0f0cc0ff 	.word	0xffc00c0f
80103a7c:	5d060000 	.word	0x65d
80103a80:	40000002 	.word	0x2000040
80103a84:	0104b00c 	jal	0x82c01004
80103a88:	80f93006 	bltzal	s1,0x8010208c
80103a8c:	0c0061ff 	.word	0xff61000c
80103a90:	00000000 	nop
80103a94:	c0a91080 	lb	s0,-22080(zero)
80103a98:	0104a00f 	jal	0x8e801004
80103a9c:	60cca008 	j	0x82833180
80103aa0:	20000000 	add	zero,zero,zero
80103aa4:	00000000 	nop
80103aa8:	64ad1080 	lb	s0,-21148(zero)
80103aac:	ff000000 	.word	0xff
	...
80103ac0:	ff000000 	.word	0xff
	...
80103ad0:	ff000000 	.word	0xff
	...
80103ae0:	5cca1080 	lb	s0,-13732(zero)
80103ae4:	6cca1080 	lb	s0,-13716(zero)
80103ae8:	02020083 	lb	zero,514(t8)
80103aec:	df0f34cd 	lwc3	$20,4063(t1)
80103af0:	b708c000 	.word	0xc008b7
80103af4:	08012a40 	.word	0x402a0108
80103af8:	ff000000 	.word	0xff
	...
80103b08:	00010000 	sll	zero,zero,0x4
80103b0c:	3c005a00 	.word	0x5a003c
80103b10:	00010001 	.word	0x1000100
80103b14:	3d004b00 	.word	0x4b003d
80103b18:	00001e00 	sll	zero,s8,0x0
80103b1c:	1e001e00 	.word	0x1e001e
80103b20:	3c001e00 	.word	0x1e003c
80103b24:	5a001e00 	.word	0x1e005a
80103b28:	78001e00 	.word	0x1e0078
80103b2c:	96001e00 	.word	0x1e0096
