
rom/extracted/BIN/A0L.BIN:     file format binary


Disassembly of section .data:

80100000 <.data>:
80100000:	1f000000 	.word	0x1f
80100004:	48931080 	lb	s0,-27832(zero)
80100008:	50931080 	lb	s0,-27824(zero)
8010000c:	5c931080 	lb	s0,-27812(zero)
80100010:	6c931080 	lb	s0,-27796(zero)
80100014:	98931080 	lb	s0,-27752(zero)
80100018:	38941080 	lb	s0,-27592(zero)
8010001c:	34961080 	lb	s0,-27084(zero)
80100020:	8c961080 	lb	s0,-26996(zero)
80100024:	04971080 	lb	s0,-26876(zero)
80100028:	2c971080 	lb	s0,-26836(zero)
8010002c:	84971080 	lb	s0,-26748(zero)
80100030:	e4971080 	lb	s0,-26652(zero)
80100034:	a4981080 	lb	s0,-26460(zero)
80100038:	f8981080 	lb	s0,-26376(zero)
8010003c:	60991080 	lb	s0,-26272(zero)
80100040:	a8991080 	lb	s0,-26200(zero)
80100044:	3c9a1080 	lb	s0,-26052(zero)
80100048:	00000000 	nop
8010004c:	a49c1080 	lb	s0,-25436(zero)
80100050:	e49c1080 	lb	s0,-25372(zero)
80100054:	3c9d1080 	lb	s0,-25284(zero)
80100058:	8c9d1080 	lb	s0,-25204(zero)
8010005c:	e49d1080 	lb	s0,-25116(zero)
80100060:	109e1080 	lb	s0,-25072(zero)
80100064:	749e1080 	lb	s0,-24972(zero)
80100068:	cc9e1080 	lb	s0,-24884(zero)
8010006c:	249f1080 	lb	s0,-24796(zero)
80100070:	7c9f1080 	lb	s0,-24708(zero)
80100074:	f89f1080 	lb	s0,-24584(zero)
80100078:	44a01080 	lb	s0,-24508(zero)
8010007c:	88a01080 	lb	s0,-24440(zero)
80100080:	e0a01080 	lb	s0,-24352(zero)
80100084:	30a11080 	lb	s0,-24272(zero)
80100088:	4ca11080 	lb	s0,-24244(zero)
8010008c:	90a11080 	lb	s0,-24176(zero)
80100090:	e4a11080 	lb	s0,-24092(zero)
80100094:	4ca21080 	lb	s0,-23988(zero)
80100098:	9ca21080 	lb	s0,-23908(zero)
8010009c:	e8a21080 	lb	s0,-23832(zero)
801000a0:	38a31080 	lb	s0,-23752(zero)
801000a4:	94a31080 	lb	s0,-23660(zero)
801000a8:	74a41080 	lb	s0,-23436(zero)
801000ac:	18a61080 	lb	s0,-23016(zero)
801000b0:	00000000 	nop
801000b4:	4ca71080 	lb	s0,-22708(zero)
801000b8:	c0a61080 	lb	s0,-22848(zero)
801000bc:	d0a61080 	lb	s0,-22832(zero)
801000c0:	e0a61080 	lb	s0,-22816(zero)
801000c4:	34a71080 	lb	s0,-22732(zero)
801000c8:	44a71080 	lb	s0,-22716(zero)
801000cc:	bc541180 	lb	s1,21692(zero)
801000d0:	98541180 	lb	s1,21656(zero)
801000d4:	74541180 	lb	s1,21620(zero)
801000d8:	74541180 	lb	s1,21620(zero)
801000dc:	2cd21080 	lb	s0,-11732(zero)
801000e0:	00d11080 	lb	s0,-12032(zero)
801000e4:	10d11080 	lb	s0,-12016(zero)
801000e8:	68d11080 	lb	s0,-11928(zero)
801000ec:	b4d11080 	lb	s0,-11852(zero)
801000f0:	ccd61080 	lb	s0,-10548(zero)
801000f4:	ccd61080 	lb	s0,-10548(zero)
801000f8:	ccd61080 	lb	s0,-10548(zero)
801000fc:	ccd61080 	lb	s0,-10548(zero)
80100100:	dcd61080 	lb	s0,-10532(zero)
80100104:	4cd71080 	lb	s0,-10420(zero)
80100108:	28d71080 	lb	s0,-10456(zero)
8010010c:	00d71080 	lb	s0,-10496(zero)
80100110:	0cd81080 	lb	s0,-10228(zero)
80100114:	0cd81080 	lb	s0,-10228(zero)
80100118:	0cd81080 	lb	s0,-10228(zero)
8010011c:	0cd81080 	lb	s0,-10228(zero)
80100120:	acd71080 	lb	s0,-10324(zero)
80100124:	0cd81080 	lb	s0,-10228(zero)
80100128:	f4d71080 	lb	s0,-10252(zero)
8010012c:	c4d71080 	lb	s0,-10300(zero)
80100130:	04de1080 	lb	s0,-8700(zero)
80100134:	60de1080 	lb	s0,-8608(zero)
80100138:	7cde1080 	lb	s0,-8580(zero)
8010013c:	8cde1080 	lb	s0,-8564(zero)
80100140:	dcde1080 	lb	s0,-8484(zero)
80100144:	50f71080 	lb	s0,-2224(zero)
80100148:	ccf71080 	lb	s0,-2100(zero)
8010014c:	50f81080 	lb	s0,-1968(zero)
80100150:	98f81080 	lb	s0,-1896(zero)
80100154:	c0f81080 	lb	s0,-1856(zero)
80100158:	10f91080 	lb	s0,-1776(zero)
8010015c:	f00b1180 	lb	s1,3056(zero)
80100160:	640c1180 	lb	s1,3172(zero)
80100164:	b40c1180 	lb	s1,3252(zero)
80100168:	080d1180 	lb	s1,3336(zero)
8010016c:	580d1180 	lb	s1,3416(zero)
80100170:	c40d1180 	lb	s1,3524(zero)
80100174:	f00d1180 	lb	s1,3568(zero)
80100178:	640e1180 	lb	s1,3684(zero)
8010017c:	cc171180 	lb	s1,6092(zero)
80100180:	e4171180 	lb	s1,6116(zero)
80100184:	f4171180 	lb	s1,6132(zero)
80100188:	04181180 	lb	s1,6148(zero)
8010018c:	1c181180 	lb	s1,6172(zero)
80100190:	c0181180 	lb	s1,6336(zero)
80100194:	34191180 	lb	s1,6452(zero)
80100198:	001a1180 	lb	s1,6656(zero)
8010019c:	d01b1180 	lb	s1,7120(zero)
801001a0:	681a1180 	lb	s1,6760(zero)
801001a4:	181b1180 	lb	s1,6936(zero)
801001a8:	d01b1180 	lb	s1,7120(zero)
801001ac:	281b1180 	lb	s1,6952(zero)
801001b0:	381b1180 	lb	s1,6968(zero)
801001b4:	481b1180 	lb	s1,6984(zero)
801001b8:	d01b1180 	lb	s1,7120(zero)
801001bc:	5c4d4f56 	.word	0x564f4d5c
801001c0:	49455c4c 	.word	0x4c5c4549
801001c4:	4f474f2e 	sltiu	t7,s2,18255
801001c8:	5354523b 	xori	s2,k0,0x5453
801001cc:	31000000 	.word	0x31
801001d0:	5c4d4f56 	.word	0x564f4d5c
801001d4:	49455c45 	.word	0x455c4549
801001d8:	4e442e53 	.word	0x532e444e
801001dc:	54523b31 	andi	k1,t1,0x5254
801001e0:	00000000 	nop
801001e4:	74696d65 	.word	0x656d6974
801001e8:	206f7574 	jalx	0x81d5bc81
801001ec:	20696e20 	addi	t6,v1,26912
801001f0:	7374724e 	c3	0x727473
801001f4:	65787428 	slti	s4,v1,30821
801001f8:	29000000 	.word	0x29
801001fc:	74696d65 	.word	0x656d6974
80100200:	206f7574 	jalx	0x81d5bc81
80100204:	20696e20 	addi	t6,v1,26912
80100208:	7374724e 	c3	0x727473
8010020c:	65787428 	slti	s4,v1,30821
80100210:	29203220 	addi	s2,at,8233
80100214:	74696d65 	.word	0x656d6974
80100218:	20737472 	.word	0x72747320
8010021c:	6e657874 	jalx	0x81e195b9
80100220:	766c6325 	addiu	v1,t3,27766
80100224:	640a0000 	.word	0xa64
80100228:	74696d65 	.word	0x656d6974
8010022c:	206f7574 	jalx	0x81d5bc81
80100230:	20696e20 	addi	t6,v1,26912
80100234:	6465636f 	.word	0x6f636564
80100238:	64696e67 	.word	0x676e6964
8010023c:	20210a00 	.word	0xa2120
80100240:	00000000 	nop
80100244:	d0261180 	lb	s1,9936(zero)
80100248:	14271180 	lb	s1,10004(zero)
8010024c:	14271180 	lb	s1,10004(zero)
80100250:	14271180 	lb	s1,10004(zero)
80100254:	34271180 	lb	s1,10036(zero)
80100258:	84271180 	lb	s1,10116(zero)
8010025c:	24281180 	lb	s1,10276(zero)
80100260:	60291180 	lb	s1,10592(zero)
80100264:	0800e003 	jr	ra
80100268:	00000000 	nop
8010026c:	e8ffbd27 	addiu	sp,sp,-24
80100270:	21288000 	move	a1,a0
80100274:	0c80033c 	lui	v1,0x800c
80100278:	1000bfaf 	sw	ra,16(sp)
8010027c:	4501a290 	lbu	v0,325(a1)
80100280:	12f86694 	lhu	a2,-2030(v1)
80100284:	01004230 	andi	v0,v0,0x1
80100288:	0c004014 	bnez	v0,0x801002bc
8010028c:	00140600 	sll	v0,a2,0x10
80100290:	03140200 	sra	v0,v0,0x10
80100294:	6200a484 	lh	a0,98(a1)
80100298:	3200a384 	lh	v1,50(a1)
8010029c:	23104400 	subu	v0,v0,a0
801002a0:	2a186200 	slt	v1,v1,v0
801002a4:	6200a294 	lhu	v0,98(a1)
801002a8:	04006014 	bnez	v1,0x801002bc
801002ac:	2310c200 	subu	v0,a2,v0
801002b0:	3200a2a4 	sh	v0,50(a1)
801002b4:	1e8b000c 	jal	0x80022c78
801002b8:	2120a000 	move	a0,a1
801002bc:	1000bf8f 	lw	ra,16(sp)
801002c0:	00000000 	nop
801002c4:	0800e003 	jr	ra
801002c8:	1800bd27 	addiu	sp,sp,24
801002cc:	e8ffbd27 	addiu	sp,sp,-24
801002d0:	0c80023c 	lui	v0,0x800c
801002d4:	08f84324 	addiu	v1,v0,-2040
801002d8:	1000bfaf 	sw	ra,16(sp)
801002dc:	0e006290 	lbu	v0,14(v1)
801002e0:	00000000 	nop
801002e4:	11004010 	beqz	v0,0x8010032c
801002e8:	21288000 	move	a1,a0
801002ec:	4501a290 	lbu	v0,325(a1)
801002f0:	0a006694 	lhu	a2,10(v1)
801002f4:	01004230 	andi	v0,v0,0x1
801002f8:	0c004014 	bnez	v0,0x8010032c
801002fc:	00140600 	sll	v0,a2,0x10
80100300:	03140200 	sra	v0,v0,0x10
80100304:	6200a484 	lh	a0,98(a1)
80100308:	3200a384 	lh	v1,50(a1)
8010030c:	23104400 	subu	v0,v0,a0
80100310:	2a186200 	slt	v1,v1,v0
80100314:	6200a294 	lhu	v0,98(a1)
80100318:	04006014 	bnez	v1,0x8010032c
8010031c:	2310c200 	subu	v0,a2,v0
80100320:	3200a2a4 	sh	v0,50(a1)
80100324:	1e8b000c 	jal	0x80022c78
80100328:	2120a000 	move	a0,a1
8010032c:	1000bf8f 	lw	ra,16(sp)
80100330:	00000000 	nop
80100334:	0800e003 	jr	ra
80100338:	1800bd27 	addiu	sp,sp,24
8010033c:	801f023c 	lui	v0,0x1f80
80100340:	8000428c 	lw	v0,128(v0)
80100344:	0800e003 	jr	ra
80100348:	00000000 	nop
8010034c:	d8ffbd27 	addiu	sp,sp,-40
80100350:	1c00b3af 	sw	s3,28(sp)
80100354:	21988000 	move	s3,a0
80100358:	1000b0af 	sw	s0,16(sp)
8010035c:	0c80103c 	lui	s0,0x800c
80100360:	70f81026 	addiu	s0,s0,-1936
80100364:	2400bfaf 	sw	ra,36(sp)
80100368:	2000b4af 	sw	s4,32(sp)
8010036c:	1800b2af 	sw	s2,24(sp)
80100370:	1400b1af 	sw	s1,20(sp)
80100374:	a154010c 	jal	0x80055284
80100378:	e50500a2 	sb	zero,1509(s0)
8010037c:	01000392 	lbu	v1,1(s0)
80100380:	00000000 	nop
80100384:	0600622c 	sltiu	v0,v1,6
80100388:	4b004010 	beqz	v0,0x801004b8
8010038c:	1180023c 	lui	v0,0x8011
80100390:	a08f4224 	addiu	v0,v0,-28768
80100394:	80180300 	sll	v1,v1,0x2
80100398:	21186200 	addu	v1,v1,v0
8010039c:	0000628c 	lw	v0,0(v1)
801003a0:	00000000 	nop
801003a4:	08004000 	jr	v0
801003a8:	00000000 	nop
801003ac:	15250408 	j	0x80109454
801003b0:	010060a2 	sb	zero,1(s3)
801003b4:	01000224 	li	v0,1
801003b8:	e1240408 	j	0x80109384
801003bc:	010062a2 	sb	v0,1(s3)
801003c0:	01000224 	li	v0,1
801003c4:	010062a2 	sb	v0,1(s3)
801003c8:	13250408 	j	0x8010944c
801003cc:	21206002 	move	a0,s3
801003d0:	21206002 	move	a0,s3
801003d4:	01000224 	li	v0,1
801003d8:	010062a2 	sb	v0,1(s3)
801003dc:	00080224 	li	v0,2048
801003e0:	57cc000c 	jal	0x8003315c
801003e4:	560062a6 	sh	v0,86(s3)
801003e8:	01000424 	li	a0,1
801003ec:	d508010c 	jal	0x80042354
801003f0:	06000524 	li	a1,6
801003f4:	16250408 	j	0x80109458
801003f8:	21206002 	move	a0,s3
801003fc:	21206002 	move	a0,s3
80100400:	01000224 	li	v0,1
80100404:	57cc000c 	jal	0x8003315c
80100408:	010062a2 	sb	v0,1(s3)
8010040c:	0c80023c 	lui	v0,0x800c
80100410:	58fa4290 	lbu	v0,-1448(v0)
80100414:	00000000 	nop
80100418:	02004014 	bnez	v0,0x80100424
8010041c:	27001424 	li	s4,39
80100420:	26001424 	li	s4,38
80100424:	09006292 	lbu	v0,9(s3)
80100428:	00000000 	nop
8010042c:	22004010 	beqz	v0,0x801004b8
80100430:	21900000 	move	s2,zero
80100434:	1180023c 	lui	v0,0x8011
80100438:	e0785124 	addiu	s1,v0,30944
8010043c:	21806002 	move	s0,s3
80100440:	21288002 	move	a1,s4
80100444:	c000048e 	lw	a0,192(s0)
80100448:	c146010c 	jal	0x80051b04
8010044c:	21304002 	move	a2,s2
80100450:	c000038e 	lw	v1,192(s0)
80100454:	02002296 	lhu	v0,2(s1)
80100458:	00000000 	nop
8010045c:	000062a4 	sh	v0,0(v1)
80100460:	c000038e 	lw	v1,192(s0)
80100464:	04002296 	lhu	v0,4(s1)
80100468:	01005226 	addiu	s2,s2,1
8010046c:	020062a4 	sh	v0,2(v1)
80100470:	c000038e 	lw	v1,192(s0)
80100474:	06002296 	lhu	v0,6(s1)
80100478:	08003126 	addiu	s1,s1,8
8010047c:	040062a4 	sh	v0,4(v1)
80100480:	09006292 	lbu	v0,9(s3)
80100484:	00000000 	nop
80100488:	2a104202 	slt	v0,s2,v0
8010048c:	ecff4014 	bnez	v0,0x80100440
80100490:	04001026 	addiu	s0,s0,4
80100494:	16250408 	j	0x80109458
80100498:	21206002 	move	a0,s3
8010049c:	21206002 	move	a0,s3
801004a0:	01000224 	li	v0,1
801004a4:	010062a2 	sb	v0,1(s3)
801004a8:	00080224 	li	v0,2048
801004ac:	560062a6 	sh	v0,86(s3)
801004b0:	57cc000c 	jal	0x8003315c
801004b4:	00000000 	nop
801004b8:	21206002 	move	a0,s3
801004bc:	420160a6 	sh	zero,322(s3)
801004c0:	6650010c 	jal	0x80054198
801004c4:	580060a6 	sh	zero,88(s3)
801004c8:	21206002 	move	a0,s3
801004cc:	02000524 	li	a1,2
801004d0:	4553010c 	jal	0x80054d14
801004d4:	21300000 	move	a2,zero
801004d8:	801f033c 	lui	v1,0x1f80
801004dc:	01000224 	li	v0,1
801004e0:	370162a0 	sb	v0,311(v1)
801004e4:	04000224 	li	v0,4
801004e8:	040062a2 	sb	v0,4(s3)
801004ec:	21000224 	li	v0,33
801004f0:	050062a2 	sb	v0,5(s3)
801004f4:	060060a2 	sb	zero,6(s3)
801004f8:	070060a2 	sb	zero,7(s3)
801004fc:	2400bf8f 	lw	ra,36(sp)
80100500:	2000b48f 	lw	s4,32(sp)
80100504:	1c00b38f 	lw	s3,28(sp)
80100508:	1800b28f 	lw	s2,24(sp)
8010050c:	1400b18f 	lw	s1,20(sp)
80100510:	1000b08f 	lw	s0,16(sp)
80100514:	0800e003 	jr	ra
80100518:	2800bd27 	addiu	sp,sp,40
8010051c:	0c80023c 	lui	v0,0x800c
80100520:	58fa4290 	lbu	v0,-1448(v0)
80100524:	d8ffbd27 	addiu	sp,sp,-40
80100528:	2000b4af 	sw	s4,32(sp)
8010052c:	21a08000 	move	s4,a0
80100530:	1c00b3af 	sw	s3,28(sp)
80100534:	27001324 	li	s3,39
80100538:	2400bfaf 	sw	ra,36(sp)
8010053c:	1800b2af 	sw	s2,24(sp)
80100540:	1400b1af 	sw	s1,20(sp)
80100544:	02004014 	bnez	v0,0x80100550
80100548:	1000b0af 	sw	s0,16(sp)
8010054c:	26001324 	li	s3,38
80100550:	09008292 	lbu	v0,9(s4)
80100554:	00000000 	nop
80100558:	19004010 	beqz	v0,0x801005c0
8010055c:	21900000 	move	s2,zero
80100560:	1180023c 	lui	v0,0x8011
80100564:	e0785124 	addiu	s1,v0,30944
80100568:	21808002 	move	s0,s4
8010056c:	21286002 	move	a1,s3
80100570:	c000048e 	lw	a0,192(s0)
80100574:	c146010c 	jal	0x80051b04
80100578:	21304002 	move	a2,s2
8010057c:	c000038e 	lw	v1,192(s0)
80100580:	02002296 	lhu	v0,2(s1)
80100584:	00000000 	nop
80100588:	000062a4 	sh	v0,0(v1)
8010058c:	c000038e 	lw	v1,192(s0)
80100590:	04002296 	lhu	v0,4(s1)
80100594:	01005226 	addiu	s2,s2,1
80100598:	020062a4 	sh	v0,2(v1)
8010059c:	c000038e 	lw	v1,192(s0)
801005a0:	06002296 	lhu	v0,6(s1)
801005a4:	08003126 	addiu	s1,s1,8
801005a8:	040062a4 	sh	v0,4(v1)
801005ac:	09008292 	lbu	v0,9(s4)
801005b0:	00000000 	nop
801005b4:	2a104202 	slt	v0,s2,v0
801005b8:	ecff4014 	bnez	v0,0x8010056c
801005bc:	04001026 	addiu	s0,s0,4
801005c0:	2400bf8f 	lw	ra,36(sp)
801005c4:	2000b48f 	lw	s4,32(sp)
801005c8:	1c00b38f 	lw	s3,28(sp)
801005cc:	1800b28f 	lw	s2,24(sp)
801005d0:	1400b18f 	lw	s1,20(sp)
801005d4:	1000b08f 	lw	s0,16(sp)
801005d8:	0800e003 	jr	ra
801005dc:	2800bd27 	addiu	sp,sp,40
801005e0:	e8ffbd27 	addiu	sp,sp,-24
801005e4:	1000b0af 	sw	s0,16(sp)
801005e8:	21808000 	move	s0,a0
801005ec:	1400bfaf 	sw	ra,20(sp)
801005f0:	02000392 	lbu	v1,2(s0)
801005f4:	00000000 	nop
801005f8:	05006010 	beqz	v1,0x80100610
801005fc:	01000224 	li	v0,1
80100600:	19006210 	beq	v1,v0,0x80100668
80100604:	00000000 	nop
80100608:	0b260408 	j	0x8010982c
8010060c:	00000000 	nop
80100610:	21200000 	move	a0,zero
80100614:	21288000 	move	a1,a0
80100618:	0b42010c 	jal	0x8005082c
8010061c:	21308000 	move	a2,a0
80100620:	c775000c 	jal	0x8001d71c
80100624:	0b000424 	li	a0,11
80100628:	0c80023c 	lui	v0,0x800c
8010062c:	55fa40a0 	sb	zero,-1451(v0)
80100630:	02000292 	lbu	v0,2(s0)
80100634:	030000a2 	sb	zero,3(s0)
80100638:	01004224 	addiu	v0,v0,1
8010063c:	0c34040c 	jal	0x8010d030
80100640:	020002a2 	sb	v0,2(s0)
80100644:	ff00043c 	lui	a0,0xff
80100648:	ffff8434 	ori	a0,a0,0xffff
8010064c:	21280000 	move	a1,zero
80100650:	2130a000 	move	a2,a1
80100654:	1f000224 	li	v0,31
80100658:	72fa010c 	jal	0x8007e9c8
8010065c:	6a0002a6 	sh	v0,106(s0)
80100660:	0b260408 	j	0x8010982c
80100664:	00000000 	nop
80100668:	03000392 	lbu	v1,3(s0)
8010066c:	00000000 	nop
80100670:	0600622c 	sltiu	v0,v1,6
80100674:	86004010 	beqz	v0,0x80100890
80100678:	1180023c 	lui	v0,0x8011
8010067c:	b88f4224 	addiu	v0,v0,-28744
80100680:	80180300 	sll	v1,v1,0x2
80100684:	21186200 	addu	v1,v1,v0
80100688:	0000628c 	lw	v0,0(v1)
8010068c:	00000000 	nop
80100690:	08004000 	jr	v0
80100694:	00000000 	nop
80100698:	21280000 	move	a1,zero
8010069c:	6a000486 	lh	a0,106(s0)
801006a0:	01000624 	li	a2,1
801006a4:	c0200400 	sll	a0,a0,0x3
801006a8:	ff008430 	andi	a0,a0,0xff
801006ac:	00140400 	sll	v0,a0,0x10
801006b0:	001a0400 	sll	v1,a0,0x8
801006b4:	25104300 	or	v0,v0,v1
801006b8:	72fa010c 	jal	0x8007e9c8
801006bc:	25204400 	or	a0,v0,a0
801006c0:	6a000286 	lh	v0,106(s0)
801006c4:	6a000396 	lhu	v1,106(s0)
801006c8:	02004010 	beqz	v0,0x801006d4
801006cc:	ffff6224 	addiu	v0,v1,-1
801006d0:	6a0002a6 	sh	v0,106(s0)
801006d4:	1a33040c 	jal	0x8010cc68
801006d8:	21200000 	move	a0,zero
801006dc:	6c004010 	beqz	v0,0x80100890
801006e0:	1f000324 	li	v1,31
801006e4:	03000292 	lbu	v0,3(s0)
801006e8:	08260408 	j	0x80109820
801006ec:	6a0003a6 	sh	v1,106(s0)
801006f0:	21280000 	move	a1,zero
801006f4:	6a000486 	lh	a0,106(s0)
801006f8:	01000624 	li	a2,1
801006fc:	c0200400 	sll	a0,a0,0x3
80100700:	23200400 	negu	a0,a0
80100704:	ff008430 	andi	a0,a0,0xff
80100708:	00140400 	sll	v0,a0,0x10
8010070c:	001a0400 	sll	v1,a0,0x8
80100710:	25104300 	or	v0,v0,v1
80100714:	72fa010c 	jal	0x8007e9c8
80100718:	25204400 	or	a0,v0,a0
8010071c:	6a000286 	lh	v0,106(s0)
80100720:	6a000396 	lhu	v1,106(s0)
80100724:	02004010 	beqz	v0,0x80100730
80100728:	ffff6224 	addiu	v0,v1,-1
8010072c:	6a0002a6 	sh	v0,106(s0)
80100730:	1a33040c 	jal	0x8010cc68
80100734:	21200000 	move	a0,zero
80100738:	6a000286 	lh	v0,106(s0)
8010073c:	00000000 	nop
80100740:	53004014 	bnez	v0,0x80100890
80100744:	00000000 	nop
80100748:	03000292 	lbu	v0,3(s0)
8010074c:	00000000 	nop
80100750:	01004224 	addiu	v0,v0,1
80100754:	0c34040c 	jal	0x8010d030
80100758:	030002a2 	sb	v0,3(s0)
8010075c:	14000224 	li	v0,20
80100760:	0b260408 	j	0x8010982c
80100764:	680002a6 	sh	v0,104(s0)
80100768:	68000296 	lhu	v0,104(s0)
8010076c:	00000000 	nop
80100770:	ffff4224 	addiu	v0,v0,-1
80100774:	680002a6 	sh	v0,104(s0)
80100778:	00140200 	sll	v0,v0,0x10
8010077c:	44004014 	bnez	v0,0x80100890
80100780:	1f000324 	li	v1,31
80100784:	03000292 	lbu	v0,3(s0)
80100788:	08260408 	j	0x80109820
8010078c:	6a0003a6 	sh	v1,106(s0)
80100790:	21280000 	move	a1,zero
80100794:	6a000486 	lh	a0,106(s0)
80100798:	01000624 	li	a2,1
8010079c:	c0200400 	sll	a0,a0,0x3
801007a0:	ff008430 	andi	a0,a0,0xff
801007a4:	00140400 	sll	v0,a0,0x10
801007a8:	001a0400 	sll	v1,a0,0x8
801007ac:	25104300 	or	v0,v0,v1
801007b0:	72fa010c 	jal	0x8007e9c8
801007b4:	25204400 	or	a0,v0,a0
801007b8:	6a000286 	lh	v0,106(s0)
801007bc:	6a000396 	lhu	v1,106(s0)
801007c0:	02004010 	beqz	v0,0x801007cc
801007c4:	ffff6224 	addiu	v0,v1,-1
801007c8:	6a0002a6 	sh	v0,106(s0)
801007cc:	1a33040c 	jal	0x8010cc68
801007d0:	01000424 	li	a0,1
801007d4:	2e004010 	beqz	v0,0x80100890
801007d8:	1f000324 	li	v1,31
801007dc:	03000292 	lbu	v0,3(s0)
801007e0:	08260408 	j	0x80109820
801007e4:	6a0003a6 	sh	v1,106(s0)
801007e8:	21280000 	move	a1,zero
801007ec:	6a000486 	lh	a0,106(s0)
801007f0:	01000624 	li	a2,1
801007f4:	c0200400 	sll	a0,a0,0x3
801007f8:	23200400 	negu	a0,a0
801007fc:	ff008430 	andi	a0,a0,0xff
80100800:	00140400 	sll	v0,a0,0x10
80100804:	001a0400 	sll	v1,a0,0x8
80100808:	25104300 	or	v0,v0,v1
8010080c:	72fa010c 	jal	0x8007e9c8
80100810:	25204400 	or	a0,v0,a0
80100814:	6a000286 	lh	v0,106(s0)
80100818:	6a000396 	lhu	v1,106(s0)
8010081c:	02004010 	beqz	v0,0x80100828
80100820:	ffff6224 	addiu	v0,v1,-1
80100824:	6a0002a6 	sh	v0,106(s0)
80100828:	1a33040c 	jal	0x8010cc68
8010082c:	01000424 	li	a0,1
80100830:	6a000286 	lh	v0,106(s0)
80100834:	00000000 	nop
80100838:	11004010 	beqz	v0,0x80100880
8010083c:	00000000 	nop
80100840:	0b260408 	j	0x8010982c
80100844:	00000000 	nop
80100848:	801f023c 	lui	v0,0x1f80
8010084c:	3801438c 	lw	v1,312(v0)
80100850:	01000224 	li	v0,1
80100854:	4a0062a4 	sh	v0,74(v1)
80100858:	02000224 	li	v0,2
8010085c:	4c0062a4 	sh	v0,76(v1)
80100860:	06000224 	li	v0,6
80100864:	4e0062a4 	sh	v0,78(v1)
80100868:	0c80023c 	lui	v0,0x800c
8010086c:	08f84224 	addiu	v0,v0,-2040
80100870:	03000324 	li	v1,3
80100874:	310043a0 	sb	v1,49(v0)
80100878:	01150324 	li	v1,5377
8010087c:	320043a4 	sh	v1,50(v0)
80100880:	03000292 	lbu	v0,3(s0)
80100884:	00000000 	nop
80100888:	01004224 	addiu	v0,v0,1
8010088c:	030002a2 	sb	v0,3(s0)
80100890:	1400bf8f 	lw	ra,20(sp)
80100894:	1000b08f 	lw	s0,16(sp)
80100898:	0800e003 	jr	ra
8010089c:	1800bd27 	addiu	sp,sp,24
801008a0:	e0ffbd27 	addiu	sp,sp,-32
801008a4:	1000b0af 	sw	s0,16(sp)
801008a8:	21808000 	move	s0,a0
801008ac:	1c00bfaf 	sw	ra,28(sp)
801008b0:	1800b2af 	sw	s2,24(sp)
801008b4:	1400b1af 	sw	s1,20(sp)
801008b8:	02000492 	lbu	a0,2(s0)
801008bc:	00000000 	nop
801008c0:	05008010 	beqz	a0,0x801008d8
801008c4:	01000224 	li	v0,1
801008c8:	87008210 	beq	a0,v0,0x80100ae8
801008cc:	00000000 	nop
801008d0:	11270408 	j	0x80109c44
801008d4:	21200002 	move	a0,s0
801008d8:	03000392 	lbu	v1,3(s0)
801008dc:	00000000 	nop
801008e0:	0500622c 	sltiu	v0,v1,5
801008e4:	ef004010 	beqz	v0,0x80100ca4
801008e8:	1180023c 	lui	v0,0x8011
801008ec:	d08f4224 	addiu	v0,v0,-28720
801008f0:	80180300 	sll	v1,v1,0x2
801008f4:	21186200 	addu	v1,v1,v0
801008f8:	0000628c 	lw	v0,0(v1)
801008fc:	00000000 	nop
80100900:	08004000 	jr	v0
80100904:	00000000 	nop
80100908:	21200002 	move	a0,s0
8010090c:	1180053c 	lui	a1,0x8011
80100910:	64000292 	lbu	v0,100(s0)
80100914:	e44ea524 	addiu	a1,a1,20196
80100918:	80004234 	ori	v0,v0,0x80
8010091c:	640002a2 	sb	v0,100(s0)
80100920:	0c80023c 	lui	v0,0x800c
80100924:	55fa40a0 	sb	zero,-1451(v0)
80100928:	f4b2010c 	jal	0x8006cbd0
8010092c:	6a0000a6 	sh	zero,106(s0)
80100930:	00160424 	li	a0,5632
80100934:	08000526 	addiu	a1,s0,8
80100938:	3c000324 	li	v1,60
8010093c:	03000292 	lbu	v0,3(s0)
80100940:	21300000 	move	a2,zero
80100944:	680003a6 	sh	v1,104(s0)
80100948:	01004224 	addiu	v0,v0,1
8010094c:	5bc4000c 	jal	0x8003116c
80100950:	030002a2 	sb	v0,3(s0)
80100954:	11270408 	j	0x80109c44
80100958:	21200002 	move	a0,s0
8010095c:	68000296 	lhu	v0,104(s0)
80100960:	00000000 	nop
80100964:	ffff4224 	addiu	v0,v0,-1
80100968:	680002a6 	sh	v0,104(s0)
8010096c:	00140200 	sll	v0,v0,0x10
80100970:	cd004014 	bnez	v0,0x80100ca8
80100974:	21200002 	move	a0,s0
80100978:	1180053c 	lui	a1,0x8011
8010097c:	6a000696 	lhu	a2,106(s0)
80100980:	083da524 	addiu	a1,a1,15624
80100984:	00140600 	sll	v0,a2,0x10
80100988:	03140200 	sra	v0,v0,0x10
8010098c:	40180200 	sll	v1,v0,0x1
80100990:	21186200 	addu	v1,v1,v0
80100994:	80180300 	sll	v1,v1,0x2
80100998:	21286500 	addu	a1,v1,a1
8010099c:	03000292 	lbu	v0,3(s0)
801009a0:	0100c624 	addiu	a2,a2,1
801009a4:	6a0006a6 	sh	a2,106(s0)
801009a8:	01004224 	addiu	v0,v0,1
801009ac:	f4b2010c 	jal	0x8006cbd0
801009b0:	030002a2 	sb	v0,3(s0)
801009b4:	0c80033c 	lui	v1,0x800c
801009b8:	01000224 	li	v0,1
801009bc:	10270408 	j	0x80109c40
801009c0:	55fa62a0 	sb	v0,-1451(v1)
801009c4:	21200002 	move	a0,s0
801009c8:	1180053c 	lui	a1,0x8011
801009cc:	6a000696 	lhu	a2,106(s0)
801009d0:	083da524 	addiu	a1,a1,15624
801009d4:	00140600 	sll	v0,a2,0x10
801009d8:	03140200 	sra	v0,v0,0x10
801009dc:	40180200 	sll	v1,v0,0x1
801009e0:	21186200 	addu	v1,v1,v0
801009e4:	80180300 	sll	v1,v1,0x2
801009e8:	21286500 	addu	a1,v1,a1
801009ec:	0100c624 	addiu	a2,a2,1
801009f0:	f4b2010c 	jal	0x8006cbd0
801009f4:	6a0006a6 	sh	a2,106(s0)
801009f8:	03000292 	lbu	v0,3(s0)
801009fc:	00000000 	nop
80100a00:	01004224 	addiu	v0,v0,1
80100a04:	10270408 	j	0x80109c40
80100a08:	030002a2 	sb	v0,3(s0)
80100a0c:	1180023c 	lui	v0,0x8011
80100a10:	083d5224 	addiu	s2,v0,15624
80100a14:	6a000286 	lh	v0,106(s0)
80100a18:	ffff1124 	li	s1,-1
80100a1c:	19005110 	beq	v0,s1,0x80100a84
80100a20:	21200002 	move	a0,s0
80100a24:	40280200 	sll	a1,v0,0x1
80100a28:	2128a200 	addu	a1,a1,v0
80100a2c:	80280500 	sll	a1,a1,0x2
80100a30:	f4b2010c 	jal	0x8006cbd0
80100a34:	2128b200 	addu	a1,a1,s2
80100a38:	6a000396 	lhu	v1,106(s0)
80100a3c:	00000000 	nop
80100a40:	01006324 	addiu	v1,v1,1
80100a44:	6a0003a6 	sh	v1,106(s0)
80100a48:	001c0300 	sll	v1,v1,0x10
80100a4c:	031c0300 	sra	v1,v1,0x10
80100a50:	40100300 	sll	v0,v1,0x1
80100a54:	21104300 	addu	v0,v0,v1
80100a58:	80100200 	sll	v0,v0,0x2
80100a5c:	21105200 	addu	v0,v0,s2
80100a60:	00004284 	lh	v0,0(v0)
80100a64:	00000000 	nop
80100a68:	02004014 	bnez	v0,0x80100a74
80100a6c:	00000000 	nop
80100a70:	6a0011a6 	sh	s1,106(s0)
80100a74:	6a000286 	lh	v0,106(s0)
80100a78:	00000000 	nop
80100a7c:	8a005114 	bne	v0,s1,0x80100ca8
80100a80:	21200002 	move	a0,s0
80100a84:	03000292 	lbu	v0,3(s0)
80100a88:	0c80033c 	lui	v1,0x800c
80100a8c:	01004224 	addiu	v0,v0,1
80100a90:	030002a2 	sb	v0,3(s0)
80100a94:	02000224 	li	v0,2
80100a98:	10270408 	j	0x80109c40
80100a9c:	0ff862a0 	sb	v0,-2033(v1)
80100aa0:	0c80023c 	lui	v0,0x800c
80100aa4:	0ff84290 	lbu	v0,-2033(v0)
80100aa8:	00000000 	nop
80100aac:	7e004014 	bnez	v0,0x80100ca8
80100ab0:	21200002 	move	a0,s0
80100ab4:	0c80033c 	lui	v1,0x800c
80100ab8:	04000224 	li	v0,4
80100abc:	1180053c 	lui	a1,0x8011
80100ac0:	55fa62a0 	sb	v0,-1451(v1)
80100ac4:	02000292 	lbu	v0,2(s0)
80100ac8:	bc31a524 	addiu	a1,a1,12732
80100acc:	030000a2 	sb	zero,3(s0)
80100ad0:	6a0000a6 	sh	zero,106(s0)
80100ad4:	01004224 	addiu	v0,v0,1
80100ad8:	f4b2010c 	jal	0x8006cbd0
80100adc:	020002a2 	sb	v0,2(s0)
80100ae0:	11270408 	j	0x80109c44
80100ae4:	21200002 	move	a0,s0
80100ae8:	03000392 	lbu	v1,3(s0)
80100aec:	00000000 	nop
80100af0:	1c006410 	beq	v1,a0,0x80100b64
80100af4:	02006228 	slti	v0,v1,2
80100af8:	05004010 	beqz	v0,0x80100b10
80100afc:	02000224 	li	v0,2
80100b00:	09006010 	beqz	v1,0x80100b28
80100b04:	0c80023c 	lui	v0,0x800c
80100b08:	11270408 	j	0x80109c44
80100b0c:	21200002 	move	a0,s0
80100b10:	1f006210 	beq	v1,v0,0x80100b90
80100b14:	03000224 	li	v0,3
80100b18:	49006210 	beq	v1,v0,0x80100c40
80100b1c:	21200002 	move	a0,s0
80100b20:	11270408 	j	0x80109c44
80100b24:	00000000 	nop
80100b28:	0ff844a0 	sb	a0,-2033(v0)
80100b2c:	21200002 	move	a0,s0
80100b30:	1180053c 	lui	a1,0x8011
80100b34:	6a000286 	lh	v0,106(s0)
80100b38:	bc31a524 	addiu	a1,a1,12732
80100b3c:	40180200 	sll	v1,v0,0x1
80100b40:	21186200 	addu	v1,v1,v0
80100b44:	80180300 	sll	v1,v1,0x2
80100b48:	03000292 	lbu	v0,3(s0)
80100b4c:	21286500 	addu	a1,v1,a1
80100b50:	01004224 	addiu	v0,v0,1
80100b54:	f4b2010c 	jal	0x8006cbd0
80100b58:	030002a2 	sb	v0,3(s0)
80100b5c:	11270408 	j	0x80109c44
80100b60:	21200002 	move	a0,s0
80100b64:	0c80023c 	lui	v0,0x800c
80100b68:	0ff84290 	lbu	v0,-2033(v0)
80100b6c:	00000000 	nop
80100b70:	4d004014 	bnez	v0,0x80100ca8
80100b74:	21200002 	move	a0,s0
80100b78:	02000224 	li	v0,2
80100b7c:	0c80033c 	lui	v1,0x800c
80100b80:	030002a2 	sb	v0,3(s0)
80100b84:	05000224 	li	v0,5
80100b88:	11270408 	j	0x80109c44
80100b8c:	55fa62a0 	sb	v0,-1451(v1)
80100b90:	1180023c 	lui	v0,0x8011
80100b94:	bc315124 	addiu	s1,v0,12732
80100b98:	6a000286 	lh	v0,106(s0)
80100b9c:	ffff1224 	li	s2,-1
80100ba0:	16005210 	beq	v0,s2,0x80100bfc
80100ba4:	21200002 	move	a0,s0
80100ba8:	40280200 	sll	a1,v0,0x1
80100bac:	2128a200 	addu	a1,a1,v0
80100bb0:	80280500 	sll	a1,a1,0x2
80100bb4:	f4b2010c 	jal	0x8006cbd0
80100bb8:	2128b100 	addu	a1,a1,s1
80100bbc:	6a000396 	lhu	v1,106(s0)
80100bc0:	00000000 	nop
80100bc4:	01006324 	addiu	v1,v1,1
80100bc8:	6a0003a6 	sh	v1,106(s0)
80100bcc:	001c0300 	sll	v1,v1,0x10
80100bd0:	031c0300 	sra	v1,v1,0x10
80100bd4:	40100300 	sll	v0,v1,0x1
80100bd8:	21104300 	addu	v0,v0,v1
80100bdc:	80100200 	sll	v0,v0,0x2
80100be0:	21105100 	addu	v0,v0,s1
80100be4:	00004284 	lh	v0,0(v0)
80100be8:	00000000 	nop
80100bec:	02004014 	bnez	v0,0x80100bf8
80100bf0:	00000000 	nop
80100bf4:	6a0012a6 	sh	s2,106(s0)
80100bf8:	6a000286 	lh	v0,106(s0)
80100bfc:	00000000 	nop
80100c00:	dd004228 	slti	v0,v0,221
80100c04:	28004014 	bnez	v0,0x80100ca8
80100c08:	21200002 	move	a0,s0
80100c0c:	0c80033c 	lui	v1,0x800c
80100c10:	02000292 	lbu	v0,2(s0)
80100c14:	08f86324 	addiu	v1,v1,-2040
80100c18:	030000a2 	sb	zero,3(s0)
80100c1c:	01004224 	addiu	v0,v0,1
80100c20:	020002a2 	sb	v0,2(s0)
80100c24:	02000224 	li	v0,2
80100c28:	070062a0 	sb	v0,7(v1)
80100c2c:	03000224 	li	v0,3
80100c30:	310062a0 	sb	v0,49(v1)
80100c34:	02150224 	li	v0,5378
80100c38:	11270408 	j	0x80109c44
80100c3c:	320062a4 	sh	v0,50(v1)
80100c40:	1180023c 	lui	v0,0x8011
80100c44:	bc315124 	addiu	s1,v0,12732
80100c48:	6a000286 	lh	v0,106(s0)
80100c4c:	ffff1224 	li	s2,-1
80100c50:	14005210 	beq	v0,s2,0x80100ca4
80100c54:	40280200 	sll	a1,v0,0x1
80100c58:	2128a200 	addu	a1,a1,v0
80100c5c:	80280500 	sll	a1,a1,0x2
80100c60:	f4b2010c 	jal	0x8006cbd0
80100c64:	2128b100 	addu	a1,a1,s1
80100c68:	6a000396 	lhu	v1,106(s0)
80100c6c:	00000000 	nop
80100c70:	01006324 	addiu	v1,v1,1
80100c74:	6a0003a6 	sh	v1,106(s0)
80100c78:	001c0300 	sll	v1,v1,0x10
80100c7c:	031c0300 	sra	v1,v1,0x10
80100c80:	40100300 	sll	v0,v1,0x1
80100c84:	21104300 	addu	v0,v0,v1
80100c88:	80100200 	sll	v0,v0,0x2
80100c8c:	21105100 	addu	v0,v0,s1
80100c90:	00004284 	lh	v0,0(v0)
80100c94:	00000000 	nop
80100c98:	03004014 	bnez	v0,0x80100ca8
80100c9c:	21200002 	move	a0,s0
80100ca0:	6a0012a6 	sh	s2,106(s0)
80100ca4:	21200002 	move	a0,s0
80100ca8:	ecb8010c 	jal	0x8006e3b0
80100cac:	38008524 	addiu	a1,a0,56
80100cb0:	1c00bf8f 	lw	ra,28(sp)
80100cb4:	1800b28f 	lw	s2,24(sp)
80100cb8:	1400b18f 	lw	s1,20(sp)
80100cbc:	1000b08f 	lw	s0,16(sp)
80100cc0:	0800e003 	jr	ra
80100cc4:	2000bd27 	addiu	sp,sp,32
80100cc8:	d8ffbd27 	addiu	sp,sp,-40
80100ccc:	2000b0af 	sw	s0,32(sp)
80100cd0:	21808000 	move	s0,a0
80100cd4:	2400bfaf 	sw	ra,36(sp)
80100cd8:	02000392 	lbu	v1,2(s0)
80100cdc:	00000000 	nop
80100ce0:	0a00622c 	sltiu	v0,v1,10
80100ce4:	c6004010 	beqz	v0,0x80101000
80100ce8:	1180023c 	lui	v0,0x8011
80100cec:	e88f4224 	addiu	v0,v0,-28696
80100cf0:	80180300 	sll	v1,v1,0x2
80100cf4:	21186200 	addu	v1,v1,v0
80100cf8:	0000628c 	lw	v0,0(v1)
80100cfc:	00000000 	nop
80100d00:	08004000 	jr	v0
80100d04:	00000000 	nop
80100d08:	21200002 	move	a0,s0
80100d0c:	1180053c 	lui	a1,0x8011
80100d10:	fc4ea524 	addiu	a1,a1,20220
80100d14:	0c80023c 	lui	v0,0x800c
80100d18:	55fa40a0 	sb	zero,-1451(v0)
80100d1c:	01000224 	li	v0,1
80100d20:	6a0002a6 	sh	v0,106(s0)
80100d24:	02000292 	lbu	v0,2(s0)
80100d28:	64000392 	lbu	v1,100(s0)
80100d2c:	01004224 	addiu	v0,v0,1
80100d30:	80006334 	ori	v1,v1,0x80
80100d34:	020002a2 	sb	v0,2(s0)
80100d38:	f4b2010c 	jal	0x8006cbd0
80100d3c:	640003a2 	sb	v1,100(s0)
80100d40:	e7270408 	j	0x80109f9c
80100d44:	680000a6 	sh	zero,104(s0)
80100d48:	0c80023c 	lui	v0,0x800c
80100d4c:	57fa4390 	lbu	v1,-1449(v0)
80100d50:	01000224 	li	v0,1
80100d54:	ab006214 	bne	v1,v0,0x80101004
80100d58:	21200002 	move	a0,s0
80100d5c:	1180053c 	lui	a1,0x8011
80100d60:	6a000696 	lhu	a2,106(s0)
80100d64:	fc4ea524 	addiu	a1,a1,20220
80100d68:	00140600 	sll	v0,a2,0x10
80100d6c:	03140200 	sra	v0,v0,0x10
80100d70:	40180200 	sll	v1,v0,0x1
80100d74:	21186200 	addu	v1,v1,v0
80100d78:	80180300 	sll	v1,v1,0x2
80100d7c:	21286500 	addu	a1,v1,a1
80100d80:	02000292 	lbu	v0,2(s0)
80100d84:	0100c624 	addiu	a2,a2,1
80100d88:	6a0006a6 	sh	a2,106(s0)
80100d8c:	01004224 	addiu	v0,v0,1
80100d90:	f4b2010c 	jal	0x8006cbd0
80100d94:	020002a2 	sb	v0,2(s0)
80100d98:	e8270408 	j	0x80109fa0
80100d9c:	21200002 	move	a0,s0
80100da0:	0c80023c 	lui	v0,0x800c
80100da4:	57fa4390 	lbu	v1,-1449(v0)
80100da8:	03000224 	li	v0,3
80100dac:	95006214 	bne	v1,v0,0x80101004
80100db0:	21200002 	move	a0,s0
80100db4:	1e000624 	li	a2,30
80100db8:	1180053c 	lui	a1,0x8011
80100dbc:	6a000796 	lhu	a3,106(s0)
80100dc0:	fc4ea524 	addiu	a1,a1,20220
80100dc4:	00140700 	sll	v0,a3,0x10
80100dc8:	03140200 	sra	v0,v0,0x10
80100dcc:	40180200 	sll	v1,v0,0x1
80100dd0:	21186200 	addu	v1,v1,v0
80100dd4:	80180300 	sll	v1,v1,0x2
80100dd8:	21286500 	addu	a1,v1,a1
80100ddc:	0100e724 	addiu	a3,a3,1
80100de0:	07b3010c 	jal	0x8006cc1c
80100de4:	6a0007a6 	sh	a3,106(s0)
80100de8:	e3270408 	j	0x80109f8c
80100dec:	00000000 	nop
80100df0:	73b3010c 	jal	0x8006cdcc
80100df4:	21200002 	move	a0,s0
80100df8:	0c80023c 	lui	v0,0x800c
80100dfc:	57fa4390 	lbu	v1,-1449(v0)
80100e00:	05000224 	li	v0,5
80100e04:	7f006214 	bne	v1,v0,0x80101004
80100e08:	21200002 	move	a0,s0
80100e0c:	1e000624 	li	a2,30
80100e10:	1180053c 	lui	a1,0x8011
80100e14:	6a000796 	lhu	a3,106(s0)
80100e18:	fc4ea524 	addiu	a1,a1,20220
80100e1c:	00140700 	sll	v0,a3,0x10
80100e20:	03140200 	sra	v0,v0,0x10
80100e24:	40180200 	sll	v1,v0,0x1
80100e28:	21186200 	addu	v1,v1,v0
80100e2c:	80180300 	sll	v1,v1,0x2
80100e30:	21286500 	addu	a1,v1,a1
80100e34:	0100e724 	addiu	a3,a3,1
80100e38:	07b3010c 	jal	0x8006cc1c
80100e3c:	6a0007a6 	sh	a3,106(s0)
80100e40:	e3270408 	j	0x80109f8c
80100e44:	00000000 	nop
80100e48:	73b3010c 	jal	0x8006cdcc
80100e4c:	21200002 	move	a0,s0
80100e50:	0c80023c 	lui	v0,0x800c
80100e54:	57fa4390 	lbu	v1,-1449(v0)
80100e58:	06000224 	li	v0,6
80100e5c:	69006214 	bne	v1,v0,0x80101004
80100e60:	21200002 	move	a0,s0
80100e64:	02000292 	lbu	v0,2(s0)
80100e68:	14000324 	li	v1,20
80100e6c:	e4270408 	j	0x80109f90
80100e70:	680003a6 	sh	v1,104(s0)
80100e74:	68000296 	lhu	v0,104(s0)
80100e78:	00000000 	nop
80100e7c:	ffff4224 	addiu	v0,v0,-1
80100e80:	680002a6 	sh	v0,104(s0)
80100e84:	00140200 	sll	v0,v0,0x10
80100e88:	5e004014 	bnez	v0,0x80101004
80100e8c:	21200002 	move	a0,s0
80100e90:	1e000624 	li	a2,30
80100e94:	1180053c 	lui	a1,0x8011
80100e98:	6a000796 	lhu	a3,106(s0)
80100e9c:	fc4ea524 	addiu	a1,a1,20220
80100ea0:	00140700 	sll	v0,a3,0x10
80100ea4:	03140200 	sra	v0,v0,0x10
80100ea8:	40180200 	sll	v1,v0,0x1
80100eac:	21186200 	addu	v1,v1,v0
80100eb0:	80180300 	sll	v1,v1,0x2
80100eb4:	21286500 	addu	a1,v1,a1
80100eb8:	02000292 	lbu	v0,2(s0)
80100ebc:	0100e724 	addiu	a3,a3,1
80100ec0:	6a0007a6 	sh	a3,106(s0)
80100ec4:	01004224 	addiu	v0,v0,1
80100ec8:	07b3010c 	jal	0x8006cc1c
80100ecc:	020002a2 	sb	v0,2(s0)
80100ed0:	e8270408 	j	0x80109fa0
80100ed4:	21200002 	move	a0,s0
80100ed8:	73b3010c 	jal	0x8006cdcc
80100edc:	21200002 	move	a0,s0
80100ee0:	0c80023c 	lui	v0,0x800c
80100ee4:	57fa4390 	lbu	v1,-1449(v0)
80100ee8:	0e000224 	li	v0,14
80100eec:	45006214 	bne	v1,v0,0x80101004
80100ef0:	21200002 	move	a0,s0
80100ef4:	1e000624 	li	a2,30
80100ef8:	1180053c 	lui	a1,0x8011
80100efc:	6a000796 	lhu	a3,106(s0)
80100f00:	fc4ea524 	addiu	a1,a1,20220
80100f04:	00140700 	sll	v0,a3,0x10
80100f08:	03140200 	sra	v0,v0,0x10
80100f0c:	40180200 	sll	v1,v0,0x1
80100f10:	21186200 	addu	v1,v1,v0
80100f14:	80180300 	sll	v1,v1,0x2
80100f18:	21286500 	addu	a1,v1,a1
80100f1c:	0100e724 	addiu	a3,a3,1
80100f20:	07b3010c 	jal	0x8006cc1c
80100f24:	6a0007a6 	sh	a3,106(s0)
80100f28:	e3270408 	j	0x80109f8c
80100f2c:	00000000 	nop
80100f30:	73b3010c 	jal	0x8006cdcc
80100f34:	21200002 	move	a0,s0
80100f38:	0c80023c 	lui	v0,0x800c
80100f3c:	57fa4390 	lbu	v1,-1449(v0)
80100f40:	0f000224 	li	v0,15
80100f44:	2f006214 	bne	v1,v0,0x80101004
80100f48:	21200002 	move	a0,s0
80100f4c:	1e000624 	li	a2,30
80100f50:	1180053c 	lui	a1,0x8011
80100f54:	6a000796 	lhu	a3,106(s0)
80100f58:	fc4ea524 	addiu	a1,a1,20220
80100f5c:	00140700 	sll	v0,a3,0x10
80100f60:	03140200 	sra	v0,v0,0x10
80100f64:	40180200 	sll	v1,v0,0x1
80100f68:	21186200 	addu	v1,v1,v0
80100f6c:	80180300 	sll	v1,v1,0x2
80100f70:	21286500 	addu	a1,v1,a1
80100f74:	0100e724 	addiu	a3,a3,1
80100f78:	07b3010c 	jal	0x8006cc1c
80100f7c:	6a0007a6 	sh	a3,106(s0)
80100f80:	e3270408 	j	0x80109f8c
80100f84:	00000000 	nop
80100f88:	73b3010c 	jal	0x8006cdcc
80100f8c:	21200002 	move	a0,s0
80100f90:	0c80023c 	lui	v0,0x800c
80100f94:	57fa4390 	lbu	v1,-1449(v0)
80100f98:	18000224 	li	v0,24
80100f9c:	19006214 	bne	v1,v0,0x80101004
80100fa0:	21200002 	move	a0,s0
80100fa4:	3c000624 	li	a2,60
80100fa8:	1180053c 	lui	a1,0x8011
80100fac:	6a000796 	lhu	a3,106(s0)
80100fb0:	fc4ea524 	addiu	a1,a1,20220
80100fb4:	00140700 	sll	v0,a3,0x10
80100fb8:	03140200 	sra	v0,v0,0x10
80100fbc:	40180200 	sll	v1,v0,0x1
80100fc0:	21186200 	addu	v1,v1,v0
80100fc4:	80180300 	sll	v1,v1,0x2
80100fc8:	21286500 	addu	a1,v1,a1
80100fcc:	0100e724 	addiu	a3,a3,1
80100fd0:	07b3010c 	jal	0x8006cc1c
80100fd4:	6a0007a6 	sh	a3,106(s0)
80100fd8:	e3270408 	j	0x80109f8c
80100fdc:	00000000 	nop
80100fe0:	73b3010c 	jal	0x8006cdcc
80100fe4:	21200002 	move	a0,s0
80100fe8:	06004010 	beqz	v0,0x80101004
80100fec:	21200002 	move	a0,s0
80100ff0:	02000292 	lbu	v0,2(s0)
80100ff4:	00000000 	nop
80100ff8:	01004224 	addiu	v0,v0,1
80100ffc:	020002a2 	sb	v0,2(s0)
80101000:	21200002 	move	a0,s0
80101004:	ecb8010c 	jal	0x8006e3b0
80101008:	38008524 	addiu	a1,a0,56
8010100c:	2400bf8f 	lw	ra,36(sp)
80101010:	2000b08f 	lw	s0,32(sp)
80101014:	0800e003 	jr	ra
80101018:	2800bd27 	addiu	sp,sp,40
8010101c:	d8ffbd27 	addiu	sp,sp,-40
80101020:	2000b0af 	sw	s0,32(sp)
80101024:	21808000 	move	s0,a0
80101028:	2400bfaf 	sw	ra,36(sp)
8010102c:	02000392 	lbu	v1,2(s0)
80101030:	00000000 	nop
80101034:	0800622c 	sltiu	v0,v1,8
80101038:	83004010 	beqz	v0,0x80101248
8010103c:	1180023c 	lui	v0,0x8011
80101040:	10904224 	addiu	v0,v0,-28656
80101044:	80180300 	sll	v1,v1,0x2
80101048:	21186200 	addu	v1,v1,v0
8010104c:	0000628c 	lw	v0,0(v1)
80101050:	00000000 	nop
80101054:	08004000 	jr	v0
80101058:	00000000 	nop
8010105c:	21200002 	move	a0,s0
80101060:	1180053c 	lui	a1,0x8011
80101064:	684fa524 	addiu	a1,a1,20328
80101068:	0c80023c 	lui	v0,0x800c
8010106c:	55fa40a0 	sb	zero,-1451(v0)
80101070:	01000224 	li	v0,1
80101074:	6a0002a6 	sh	v0,106(s0)
80101078:	02000292 	lbu	v0,2(s0)
8010107c:	64000392 	lbu	v1,100(s0)
80101080:	01004224 	addiu	v0,v0,1
80101084:	80006334 	ori	v1,v1,0x80
80101088:	020002a2 	sb	v0,2(s0)
8010108c:	f4b2010c 	jal	0x8006cbd0
80101090:	640003a2 	sb	v1,100(s0)
80101094:	c775000c 	jal	0x8001d71c
80101098:	0c000424 	li	a0,12
8010109c:	3c000224 	li	v0,60
801010a0:	79280408 	j	0x8010a1e4
801010a4:	680002a6 	sh	v0,104(s0)
801010a8:	0c80023c 	lui	v0,0x800c
801010ac:	e4e04290 	lbu	v0,-7964(v0)
801010b0:	00000000 	nop
801010b4:	80004230 	andi	v0,v0,0x80
801010b8:	08004010 	beqz	v0,0x801010dc
801010bc:	00000000 	nop
801010c0:	68000296 	lhu	v0,104(s0)
801010c4:	00000000 	nop
801010c8:	ffff4224 	addiu	v0,v0,-1
801010cc:	680002a6 	sh	v0,104(s0)
801010d0:	00140200 	sll	v0,v0,0x10
801010d4:	5d004014 	bnez	v0,0x8010124c
801010d8:	21200002 	move	a0,s0
801010dc:	02000292 	lbu	v0,2(s0)
801010e0:	3c000324 	li	v1,60
801010e4:	76280408 	j	0x8010a1d8
801010e8:	680003a6 	sh	v1,104(s0)
801010ec:	68000296 	lhu	v0,104(s0)
801010f0:	00000000 	nop
801010f4:	ffff4224 	addiu	v0,v0,-1
801010f8:	680002a6 	sh	v0,104(s0)
801010fc:	00140200 	sll	v0,v0,0x10
80101100:	52004014 	bnez	v0,0x8010124c
80101104:	21200002 	move	a0,s0
80101108:	1180053c 	lui	a1,0x8011
8010110c:	6a000696 	lhu	a2,106(s0)
80101110:	684fa524 	addiu	a1,a1,20328
80101114:	00140600 	sll	v0,a2,0x10
80101118:	03140200 	sra	v0,v0,0x10
8010111c:	40180200 	sll	v1,v0,0x1
80101120:	21186200 	addu	v1,v1,v0
80101124:	80180300 	sll	v1,v1,0x2
80101128:	21286500 	addu	a1,v1,a1
8010112c:	0100c624 	addiu	a2,a2,1
80101130:	6a0006a6 	sh	a2,106(s0)
80101134:	07b3010c 	jal	0x8006cc1c
80101138:	3c000624 	li	a2,60
8010113c:	75280408 	j	0x8010a1d4
80101140:	00000000 	nop
80101144:	73b3010c 	jal	0x8006cdcc
80101148:	21200002 	move	a0,s0
8010114c:	3e004010 	beqz	v0,0x80101248
80101150:	21200002 	move	a0,s0
80101154:	1180053c 	lui	a1,0x8011
80101158:	6a000696 	lhu	a2,106(s0)
8010115c:	684fa524 	addiu	a1,a1,20328
80101160:	00140600 	sll	v0,a2,0x10
80101164:	03140200 	sra	v0,v0,0x10
80101168:	40180200 	sll	v1,v0,0x1
8010116c:	21186200 	addu	v1,v1,v0
80101170:	80180300 	sll	v1,v1,0x2
80101174:	21286500 	addu	a1,v1,a1
80101178:	0100c624 	addiu	a2,a2,1
8010117c:	f4b2010c 	jal	0x8006cbd0
80101180:	6a0006a6 	sh	a2,106(s0)
80101184:	0c80033c 	lui	v1,0x800c
80101188:	01000224 	li	v0,1
8010118c:	75280408 	j	0x8010a1d4
80101190:	55fa62a0 	sb	v0,-1451(v1)
80101194:	0c80023c 	lui	v0,0x800c
80101198:	57fa4390 	lbu	v1,-1449(v0)
8010119c:	01000224 	li	v0,1
801011a0:	2a006214 	bne	v1,v0,0x8010124c
801011a4:	21200002 	move	a0,s0
801011a8:	75280408 	j	0x8010a1d4
801011ac:	00000000 	nop
801011b0:	21200002 	move	a0,s0
801011b4:	1180053c 	lui	a1,0x8011
801011b8:	6a000696 	lhu	a2,106(s0)
801011bc:	684fa524 	addiu	a1,a1,20328
801011c0:	00140600 	sll	v0,a2,0x10
801011c4:	03140200 	sra	v0,v0,0x10
801011c8:	40180200 	sll	v1,v0,0x1
801011cc:	21186200 	addu	v1,v1,v0
801011d0:	80180300 	sll	v1,v1,0x2
801011d4:	21286500 	addu	a1,v1,a1
801011d8:	0100c624 	addiu	a2,a2,1
801011dc:	f4b2010c 	jal	0x8006cbd0
801011e0:	6a0006a6 	sh	a2,106(s0)
801011e4:	0c80033c 	lui	v1,0x800c
801011e8:	02000224 	li	v0,2
801011ec:	75280408 	j	0x8010a1d4
801011f0:	55fa62a0 	sb	v0,-1451(v1)
801011f4:	0c80023c 	lui	v0,0x800c
801011f8:	55fa4390 	lbu	v1,-1451(v0)
801011fc:	03000224 	li	v0,3
80101200:	12006214 	bne	v1,v0,0x8010124c
80101204:	21200002 	move	a0,s0
80101208:	1180053c 	lui	a1,0x8011
8010120c:	6a000696 	lhu	a2,106(s0)
80101210:	684fa524 	addiu	a1,a1,20328
80101214:	00140600 	sll	v0,a2,0x10
80101218:	03140200 	sra	v0,v0,0x10
8010121c:	40180200 	sll	v1,v0,0x1
80101220:	21186200 	addu	v1,v1,v0
80101224:	80180300 	sll	v1,v1,0x2
80101228:	21286500 	addu	a1,v1,a1
8010122c:	0100c624 	addiu	a2,a2,1
80101230:	f4b2010c 	jal	0x8006cbd0
80101234:	6a0006a6 	sh	a2,106(s0)
80101238:	02000292 	lbu	v0,2(s0)
8010123c:	00000000 	nop
80101240:	01004224 	addiu	v0,v0,1
80101244:	020002a2 	sb	v0,2(s0)
80101248:	21200002 	move	a0,s0
8010124c:	ecb8010c 	jal	0x8006e3b0
80101250:	38008524 	addiu	a1,a0,56
80101254:	2400bf8f 	lw	ra,36(sp)
80101258:	2000b08f 	lw	s0,32(sp)
8010125c:	0800e003 	jr	ra
80101260:	2800bd27 	addiu	sp,sp,40
80101264:	d8ffbd27 	addiu	sp,sp,-40
80101268:	1800b2af 	sw	s2,24(sp)
8010126c:	21908000 	move	s2,a0
80101270:	2000bfaf 	sw	ra,32(sp)
80101274:	1c00b3af 	sw	s3,28(sp)
80101278:	1400b1af 	sw	s1,20(sp)
8010127c:	1000b0af 	sw	s0,16(sp)
80101280:	02004392 	lbu	v1,2(s2)
80101284:	00000000 	nop
80101288:	0700622c 	sltiu	v0,v1,7
8010128c:	0b014010 	beqz	v0,0x801016bc
80101290:	1180023c 	lui	v0,0x8011
80101294:	30904224 	addiu	v0,v0,-28624
80101298:	80180300 	sll	v1,v1,0x2
8010129c:	21186200 	addu	v1,v1,v0
801012a0:	0000628c 	lw	v0,0(v1)
801012a4:	00000000 	nop
801012a8:	08004000 	jr	v0
801012ac:	00000000 	nop
801012b0:	21204002 	move	a0,s2
801012b4:	1180053c 	lui	a1,0x8011
801012b8:	684fa524 	addiu	a1,a1,20328
801012bc:	3c00a524 	addiu	a1,a1,60
801012c0:	0c80023c 	lui	v0,0x800c
801012c4:	55fa40a0 	sb	zero,-1451(v0)
801012c8:	06000224 	li	v0,6
801012cc:	6a0042a6 	sh	v0,106(s2)
801012d0:	02004292 	lbu	v0,2(s2)
801012d4:	64004392 	lbu	v1,100(s2)
801012d8:	01004224 	addiu	v0,v0,1
801012dc:	80006334 	ori	v1,v1,0x80
801012e0:	020042a2 	sb	v0,2(s2)
801012e4:	f4b2010c 	jal	0x8006cbd0
801012e8:	640043a2 	sb	v1,100(s2)
801012ec:	c775000c 	jal	0x8001d71c
801012f0:	0d000424 	li	a0,13
801012f4:	3c000224 	li	v0,60
801012f8:	96290408 	j	0x8010a658
801012fc:	680042a6 	sh	v0,104(s2)
80101300:	0c80023c 	lui	v0,0x800c
80101304:	e4e04290 	lbu	v0,-7964(v0)
80101308:	00000000 	nop
8010130c:	80004230 	andi	v0,v0,0x80
80101310:	09004010 	beqz	v0,0x80101338
80101314:	0c80033c 	lui	v1,0x800c
80101318:	68004296 	lhu	v0,104(s2)
8010131c:	00000000 	nop
80101320:	ffff4224 	addiu	v0,v0,-1
80101324:	680042a6 	sh	v0,104(s2)
80101328:	00140200 	sll	v0,v0,0x10
8010132c:	e4004014 	bnez	v0,0x801016c0
80101330:	21204002 	move	a0,s2
80101334:	0c80033c 	lui	v1,0x800c
80101338:	01000224 	li	v0,1
8010133c:	ebf962a0 	sb	v0,-1557(v1)
80101340:	02004292 	lbu	v0,2(s2)
80101344:	e3280408 	j	0x8010a38c
80101348:	01004224 	addiu	v0,v0,1
8010134c:	0c80023c 	lui	v0,0x800c
80101350:	57fa4390 	lbu	v1,-1449(v0)
80101354:	01000224 	li	v0,1
80101358:	d9006214 	bne	v1,v0,0x801016c0
8010135c:	21204002 	move	a0,s2
80101360:	1180053c 	lui	a1,0x8011
80101364:	6a004696 	lhu	a2,106(s2)
80101368:	684fa524 	addiu	a1,a1,20328
8010136c:	00140600 	sll	v0,a2,0x10
80101370:	03140200 	sra	v0,v0,0x10
80101374:	40180200 	sll	v1,v0,0x1
80101378:	21186200 	addu	v1,v1,v0
8010137c:	80180300 	sll	v1,v1,0x2
80101380:	21286500 	addu	a1,v1,a1
80101384:	0100c624 	addiu	a2,a2,1
80101388:	f4b2010c 	jal	0x8006cbd0
8010138c:	6a0046a6 	sh	a2,106(s2)
80101390:	02004292 	lbu	v0,2(s2)
80101394:	e3280408 	j	0x8010a38c
80101398:	01004224 	addiu	v0,v0,1
8010139c:	0c80023c 	lui	v0,0x800c
801013a0:	57fa4390 	lbu	v1,-1449(v0)
801013a4:	04000224 	li	v0,4
801013a8:	c5006214 	bne	v1,v0,0x801016c0
801013ac:	21204002 	move	a0,s2
801013b0:	1180053c 	lui	a1,0x8011
801013b4:	6a004696 	lhu	a2,106(s2)
801013b8:	684fa524 	addiu	a1,a1,20328
801013bc:	00140600 	sll	v0,a2,0x10
801013c0:	03140200 	sra	v0,v0,0x10
801013c4:	40180200 	sll	v1,v0,0x1
801013c8:	21186200 	addu	v1,v1,v0
801013cc:	80180300 	sll	v1,v1,0x2
801013d0:	21286500 	addu	a1,v1,a1
801013d4:	0100c624 	addiu	a2,a2,1
801013d8:	f4b2010c 	jal	0x8006cbd0
801013dc:	6a0046a6 	sh	a2,106(s2)
801013e0:	02004292 	lbu	v0,2(s2)
801013e4:	3c000324 	li	v1,60
801013e8:	680043a6 	sh	v1,104(s2)
801013ec:	01004224 	addiu	v0,v0,1
801013f0:	96290408 	j	0x8010a658
801013f4:	020042a2 	sb	v0,2(s2)
801013f8:	68004296 	lhu	v0,104(s2)
801013fc:	00000000 	nop
80101400:	ffff4224 	addiu	v0,v0,-1
80101404:	680042a6 	sh	v0,104(s2)
80101408:	00140200 	sll	v0,v0,0x10
8010140c:	ac004014 	bnez	v0,0x801016c0
80101410:	21204002 	move	a0,s2
80101414:	1180053c 	lui	a1,0x8011
80101418:	6a004696 	lhu	a2,106(s2)
8010141c:	684fa524 	addiu	a1,a1,20328
80101420:	00140600 	sll	v0,a2,0x10
80101424:	03140200 	sra	v0,v0,0x10
80101428:	40180200 	sll	v1,v0,0x1
8010142c:	21186200 	addu	v1,v1,v0
80101430:	80180300 	sll	v1,v1,0x2
80101434:	21286500 	addu	a1,v1,a1
80101438:	02004292 	lbu	v0,2(s2)
8010143c:	0100c624 	addiu	a2,a2,1
80101440:	6a0046a6 	sh	a2,106(s2)
80101444:	01004224 	addiu	v0,v0,1
80101448:	f4b2010c 	jal	0x8006cbd0
8010144c:	020042a2 	sb	v0,2(s2)
80101450:	801f023c 	lui	v0,0x1f80
80101454:	4c02538c 	lw	s3,588(v0)
80101458:	eab2010c 	jal	0x8006cba8
8010145c:	2c006426 	addiu	a0,s3,44
80101460:	801f033c 	lui	v1,0x1f80
80101464:	d0006324 	addiu	v1,v1,208
80101468:	0a007194 	lhu	s1,10(v1)
8010146c:	36006296 	lhu	v0,54(s3)
80101470:	02007094 	lhu	s0,2(v1)
80101474:	23882202 	subu	s1,s1,v0
80101478:	008c1100 	sll	s1,s1,0x10
8010147c:	038c1100 	sra	s1,s1,0x10
80101480:	2e006296 	lhu	v0,46(s3)
80101484:	23201100 	negu	a0,s1
80101488:	23800202 	subu	s0,s0,v0
8010148c:	00841000 	sll	s0,s0,0x10
80101490:	03841000 	sra	s0,s0,0x10
80101494:	a415020c 	jal	0x80085690
80101498:	21280002 	move	a1,s0
8010149c:	18001002 	mult	s0,s0
801014a0:	12180000 	mflo	v1
	...
801014ac:	18003102 	mult	s1,s1
801014b0:	ff0f4230 	andi	v0,v0,0xfff
801014b4:	520042a6 	sh	v0,82(s2)
801014b8:	12300000 	mflo	a2
801014bc:	2010020c 	jal	0x80084080
801014c0:	21206600 	addu	a0,v1,a2
801014c4:	580042ae 	sw	v0,88(s2)
801014c8:	7c0040a6 	sh	zero,124(s2)
801014cc:	7a0040a6 	sh	zero,122(s2)
801014d0:	96290408 	j	0x8010a658
801014d4:	780040a6 	sh	zero,120(s2)
801014d8:	801f023c 	lui	v0,0x1f80
801014dc:	52004486 	lh	a0,82(s2)
801014e0:	4c02538c 	lw	s3,588(v0)
801014e4:	d40f020c 	jal	0x80083f50
801014e8:	00000000 	nop
801014ec:	5800438e 	lw	v1,88(s2)
801014f0:	00000000 	nop
801014f4:	18004300 	mult	v0,v1
801014f8:	52004486 	lh	a0,82(s2)
801014fc:	2e007096 	lhu	s0,46(s3)
80101500:	12380000 	mflo	a3
80101504:	03130700 	sra	v0,a3,0xc
80101508:	a00f020c 	jal	0x80083e80
8010150c:	21800202 	addu	s0,s0,v0
80101510:	5800438e 	lw	v1,88(s2)
80101514:	00000000 	nop
80101518:	18004300 	mult	v0,v1
8010151c:	801f023c 	lui	v0,0x1f80
80101520:	36006396 	lhu	v1,54(s3)
80101524:	d0004424 	addiu	a0,v0,208
80101528:	020090a4 	sh	s0,2(a0)
8010152c:	12380000 	mflo	a3
80101530:	03130700 	sra	v0,a3,0xc
80101534:	23186200 	subu	v1,v1,v0
80101538:	0a0083a4 	sh	v1,10(a0)
8010153c:	52004286 	lh	v0,82(s2)
80101540:	00000000 	nop
80101544:	81004228 	slti	v0,v0,129
80101548:	0c004014 	bnez	v0,0x8010157c
8010154c:	21800000 	move	s0,zero
80101550:	78004296 	lhu	v0,120(s2)
80101554:	00000000 	nop
80101558:	01004224 	addiu	v0,v0,1
8010155c:	780042a6 	sh	v0,120(s2)
80101560:	00140200 	sll	v0,v0,0x10
80101564:	03140200 	sra	v0,v0,0x10
80101568:	11004228 	slti	v0,v0,17
8010156c:	29004014 	bnez	v0,0x80101614
80101570:	10000224 	li	v0,16
80101574:	6c290408 	j	0x8010a5b0
80101578:	780042a6 	sh	v0,120(s2)
8010157c:	78004296 	lhu	v0,120(s2)
80101580:	00000000 	nop
80101584:	ffff4224 	addiu	v0,v0,-1
80101588:	780042a6 	sh	v0,120(s2)
8010158c:	00140200 	sll	v0,v0,0x10
80101590:	03140200 	sra	v0,v0,0x10
80101594:	04004228 	slti	v0,v0,4
80101598:	02004010 	beqz	v0,0x801015a4
8010159c:	04000224 	li	v0,4
801015a0:	780042a6 	sh	v0,120(s2)
801015a4:	3e004296 	lhu	v0,62(s2)
801015a8:	00000000 	nop
801015ac:	fcff4224 	addiu	v0,v0,-4
801015b0:	3e0042a6 	sh	v0,62(s2)
801015b4:	00140200 	sll	v0,v0,0x10
801015b8:	32006386 	lh	v1,50(s3)
801015bc:	03140200 	sra	v0,v0,0x10
801015c0:	38ff6324 	addiu	v1,v1,-200
801015c4:	2a104300 	slt	v0,v0,v1
801015c8:	32006396 	lhu	v1,50(s3)
801015cc:	03004010 	beqz	v0,0x801015dc
801015d0:	38ff6224 	addiu	v0,v1,-200
801015d4:	3e0042a6 	sh	v0,62(s2)
801015d8:	01001024 	li	s0,1
801015dc:	06008294 	lhu	v0,6(a0)
801015e0:	00000000 	nop
801015e4:	08004224 	addiu	v0,v0,8
801015e8:	060082a4 	sh	v0,6(a0)
801015ec:	00140200 	sll	v0,v0,0x10
801015f0:	32006386 	lh	v1,50(s3)
801015f4:	03140200 	sra	v0,v0,0x10
801015f8:	70fe6324 	addiu	v1,v1,-400
801015fc:	2a186200 	slt	v1,v1,v0
80101600:	32006296 	lhu	v0,50(s3)
80101604:	03006010 	beqz	v1,0x80101614
80101608:	70fe4224 	addiu	v0,v0,-400
8010160c:	060082a4 	sh	v0,6(a0)
80101610:	02001036 	ori	s0,s0,0x2
80101614:	78004386 	lh	v1,120(s2)
80101618:	5800428e 	lw	v0,88(s2)
8010161c:	00000000 	nop
80101620:	23104300 	subu	v0,v0,v1
80101624:	580042ae 	sw	v0,88(s2)
80101628:	20034228 	slti	v0,v0,800
8010162c:	02004010 	beqz	v0,0x80101638
80101630:	20030224 	li	v0,800
80101634:	580042ae 	sw	v0,88(s2)
80101638:	52004296 	lhu	v0,82(s2)
8010163c:	78004396 	lhu	v1,120(s2)
80101640:	00000000 	nop
80101644:	23104300 	subu	v0,v0,v1
80101648:	520042a6 	sh	v0,82(s2)
8010164c:	00140200 	sll	v0,v0,0x10
80101650:	02004104 	bgez	v0,0x8010165c
80101654:	03000224 	li	v0,3
80101658:	520040a6 	sh	zero,82(s2)
8010165c:	18000216 	bne	s0,v0,0x801016c0
80101660:	21204002 	move	a0,s2
80101664:	0c80023c 	lui	v0,0x800c
80101668:	01000324 	li	v1,1
8010166c:	55fa43a0 	sb	v1,-1451(v0)
80101670:	96000224 	li	v0,150
80101674:	97290408 	j	0x8010a65c
80101678:	680042a6 	sh	v0,104(s2)
8010167c:	68004296 	lhu	v0,104(s2)
80101680:	00000000 	nop
80101684:	ffff4224 	addiu	v0,v0,-1
80101688:	680042a6 	sh	v0,104(s2)
8010168c:	00140200 	sll	v0,v0,0x10
80101690:	0b004014 	bnez	v0,0x801016c0
80101694:	21204002 	move	a0,s2
80101698:	02004292 	lbu	v0,2(s2)
8010169c:	02000324 	li	v1,2
801016a0:	01004224 	addiu	v0,v0,1
801016a4:	020042a2 	sb	v0,2(s2)
801016a8:	0c80023c 	lui	v0,0x800c
801016ac:	08f84224 	addiu	v0,v0,-2040
801016b0:	070043a0 	sb	v1,7(v0)
801016b4:	08000324 	li	v1,8
801016b8:	310043a0 	sb	v1,49(v0)
801016bc:	21204002 	move	a0,s2
801016c0:	ecb8010c 	jal	0x8006e3b0
801016c4:	38008524 	addiu	a1,a0,56
801016c8:	2000bf8f 	lw	ra,32(sp)
801016cc:	1c00b38f 	lw	s3,28(sp)
801016d0:	1800b28f 	lw	s2,24(sp)
801016d4:	1400b18f 	lw	s1,20(sp)
801016d8:	1000b08f 	lw	s0,16(sp)
801016dc:	0800e003 	jr	ra
801016e0:	2800bd27 	addiu	sp,sp,40
801016e4:	0c80023c 	lui	v0,0x800c
801016e8:	71f84390 	lbu	v1,-1935(v0)
801016ec:	e8ffbd27 	addiu	sp,sp,-24
801016f0:	1000b0af 	sw	s0,16(sp)
801016f4:	21808000 	move	s0,a0
801016f8:	0600622c 	sltiu	v0,v1,6
801016fc:	2c004010 	beqz	v0,0x801017b0
80101700:	1400bfaf 	sw	ra,20(sp)
80101704:	1180023c 	lui	v0,0x8011
80101708:	50904224 	addiu	v0,v0,-28592
8010170c:	80180300 	sll	v1,v1,0x2
80101710:	21186200 	addu	v1,v1,v0
80101714:	0000628c 	lw	v0,0(v1)
80101718:	00000000 	nop
8010171c:	08004000 	jr	v0
80101720:	00000000 	nop
80101724:	0f26040c 	jal	0x8010983c
80101728:	21200002 	move	a0,s0
8010172c:	d4290408 	j	0x8010a750
80101730:	0c80033c 	lui	v1,0x800c
80101734:	1927040c 	jal	0x80109c64
80101738:	21200002 	move	a0,s0
8010173c:	d4290408 	j	0x8010a750
80101740:	0c80033c 	lui	v1,0x800c
80101744:	02000292 	lbu	v0,2(s0)
80101748:	00000000 	nop
8010174c:	19004014 	bnez	v0,0x801017b4
80101750:	0c80033c 	lui	v1,0x800c
80101754:	21200002 	move	a0,s0
80101758:	0c80023c 	lui	v0,0x800c
8010175c:	1180053c 	lui	a1,0x8011
80101760:	55fa40a0 	sb	zero,-1451(v0)
80101764:	64000292 	lbu	v0,100(s0)
80101768:	5c4fa524 	addiu	a1,a1,20316
8010176c:	80004234 	ori	v0,v0,0x80
80101770:	f4b2010c 	jal	0x8006cbd0
80101774:	640002a2 	sb	v0,100(s0)
80101778:	21200002 	move	a0,s0
8010177c:	ecb8010c 	jal	0x8006e3b0
80101780:	38000526 	addiu	a1,s0,56
80101784:	02000292 	lbu	v0,2(s0)
80101788:	00000000 	nop
8010178c:	01004224 	addiu	v0,v0,1
80101790:	d3290408 	j	0x8010a74c
80101794:	020002a2 	sb	v0,2(s0)
80101798:	ee27040c 	jal	0x80109fb8
8010179c:	21200002 	move	a0,s0
801017a0:	d4290408 	j	0x8010a750
801017a4:	0c80033c 	lui	v1,0x800c
801017a8:	8028040c 	jal	0x8010a200
801017ac:	21200002 	move	a0,s0
801017b0:	0c80033c 	lui	v1,0x800c
801017b4:	1400bf8f 	lw	ra,20(sp)
801017b8:	1000b08f 	lw	s0,16(sp)
801017bc:	01000224 	li	v0,1
801017c0:	4cf862a0 	sb	v0,-1972(v1)
801017c4:	0800e003 	jr	ra
801017c8:	1800bd27 	addiu	sp,sp,24
801017cc:	e8ffbd27 	addiu	sp,sp,-24
801017d0:	1000b0af 	sw	s0,16(sp)
801017d4:	21808000 	move	s0,a0
801017d8:	1400bfaf 	sw	ra,20(sp)
801017dc:	02000292 	lbu	v0,2(s0)
801017e0:	00000000 	nop
801017e4:	0f004014 	bnez	v0,0x80101824
801017e8:	0c80023c 	lui	v0,0x800c
801017ec:	1180053c 	lui	a1,0x8011
801017f0:	55fa40a0 	sb	zero,-1451(v0)
801017f4:	64000292 	lbu	v0,100(s0)
801017f8:	5c4fa524 	addiu	a1,a1,20316
801017fc:	80004234 	ori	v0,v0,0x80
80101800:	f4b2010c 	jal	0x8006cbd0
80101804:	640002a2 	sb	v0,100(s0)
80101808:	21200002 	move	a0,s0
8010180c:	ecb8010c 	jal	0x8006e3b0
80101810:	38000526 	addiu	a1,s0,56
80101814:	02000292 	lbu	v0,2(s0)
80101818:	00000000 	nop
8010181c:	01004224 	addiu	v0,v0,1
80101820:	020002a2 	sb	v0,2(s0)
80101824:	1400bf8f 	lw	ra,20(sp)
80101828:	1000b08f 	lw	s0,16(sp)
8010182c:	0800e003 	jr	ra
80101830:	1800bd27 	addiu	sp,sp,24
80101834:	0800e003 	jr	ra
80101838:	00000000 	nop
8010183c:	0800e003 	jr	ra
80101840:	00000000 	nop
80101844:	d8ffbd27 	addiu	sp,sp,-40
80101848:	1800b2af 	sw	s2,24(sp)
8010184c:	21908000 	move	s2,a0
80101850:	2000b4af 	sw	s4,32(sp)
80101854:	21a0a000 	move	s4,a1
80101858:	1180033c 	lui	v1,0x8011
8010185c:	48546324 	addiu	v1,v1,21576
80101860:	80101400 	sll	v0,s4,0x2
80101864:	21104300 	addu	v0,v0,v1
80101868:	2400bfaf 	sw	ra,36(sp)
8010186c:	1c00b3af 	sw	s3,28(sp)
80101870:	1400b1af 	sw	s1,20(sp)
80101874:	1000b0af 	sw	s0,16(sp)
80101878:	080040a6 	sh	zero,8(s2)
8010187c:	0000518c 	lw	s1,0(v0)
80101880:	00000000 	nop
80101884:	00002392 	lbu	v1,0(s1)
80101888:	ff000224 	li	v0,255
8010188c:	43006210 	beq	v1,v0,0x8010199c
80101890:	0c80023c 	lui	v0,0x800c
80101894:	08f85324 	addiu	s3,v0,-2040
80101898:	0c003026 	addiu	s0,s1,12
8010189c:	06008012 	beqz	s4,0x801018b8
801018a0:	00000000 	nop
801018a4:	08004286 	lh	v0,8(s2)
801018a8:	00000000 	nop
801018ac:	0f004228 	slti	v0,v0,15
801018b0:	35004010 	beqz	v0,0x80101988
801018b4:	00000000 	nop
801018b8:	feff0392 	lbu	v1,-2(s0)
801018bc:	00000000 	nop
801018c0:	0c006010 	beqz	v1,0x801018f4
801018c4:	01000224 	li	v0,1
801018c8:	0a006214 	bne	v1,v0,0x801018f4
801018cc:	00000000 	nop
801018d0:	f8ff0296 	lhu	v0,-8(s0)
801018d4:	00000000 	nop
801018d8:	080062a6 	sh	v0,8(s3)
801018dc:	faff0296 	lhu	v0,-6(s0)
801018e0:	00000000 	nop
801018e4:	0a0062a6 	sh	v0,10(s3)
801018e8:	fcff0296 	lhu	v0,-4(s0)
801018ec:	00000000 	nop
801018f0:	0c0062a6 	sh	v0,12(s3)
801018f4:	00002592 	lbu	a1,0(s1)
801018f8:	f5ff0692 	lbu	a2,-11(s0)
801018fc:	f6ff0792 	lbu	a3,-10(s0)
80101900:	77cb010c 	jal	0x80072ddc
80101904:	21204002 	move	a0,s2
80101908:	21184000 	move	v1,v0
8010190c:	1e006010 	beqz	v1,0x80101988
80101910:	00000000 	nop
80101914:	f8ff0286 	lh	v0,-8(s0)
80101918:	00000000 	nop
8010191c:	00140200 	sll	v0,v0,0x10
80101920:	2c0062ac 	sw	v0,44(v1)
80101924:	faff0286 	lh	v0,-6(s0)
80101928:	00000000 	nop
8010192c:	00140200 	sll	v0,v0,0x10
80101930:	300062ac 	sw	v0,48(v1)
80101934:	fcff0286 	lh	v0,-4(s0)
80101938:	00000000 	nop
8010193c:	00140200 	sll	v0,v0,0x10
80101940:	340062ac 	sw	v0,52(v1)
80101944:	f7ff0292 	lbu	v0,-9(s0)
80101948:	540060a4 	sh	zero,84(v1)
8010194c:	560060a4 	sh	zero,86(v1)
80101950:	580060a4 	sh	zero,88(v1)
80101954:	030062a0 	sb	v0,3(v1)
80101958:	0000028e 	lw	v0,0(s0)
8010195c:	0a008012 	beqz	s4,0x80101988
80101960:	1c0062ac 	sw	v0,28(v1)
80101964:	08004286 	lh	v0,8(s2)
80101968:	00000000 	nop
8010196c:	80100200 	sll	v0,v0,0x2
80101970:	21104202 	addu	v0,s2,v0
80101974:	0c0043ac 	sw	v1,12(v0)
80101978:	08004296 	lhu	v0,8(s2)
8010197c:	00000000 	nop
80101980:	01004224 	addiu	v0,v0,1
80101984:	080042a6 	sh	v0,8(s2)
80101988:	10003126 	addiu	s1,s1,16
8010198c:	00002392 	lbu	v1,0(s1)
80101990:	ff000224 	li	v0,255
80101994:	c1ff6214 	bne	v1,v0,0x8010189c
80101998:	10001026 	addiu	s0,s0,16
8010199c:	2400bf8f 	lw	ra,36(sp)
801019a0:	2000b48f 	lw	s4,32(sp)
801019a4:	1c00b38f 	lw	s3,28(sp)
801019a8:	1800b28f 	lw	s2,24(sp)
801019ac:	1400b18f 	lw	s1,20(sp)
801019b0:	1000b08f 	lw	s0,16(sp)
801019b4:	0800e003 	jr	ra
801019b8:	2800bd27 	addiu	sp,sp,40
801019bc:	e8ffbd27 	addiu	sp,sp,-24
801019c0:	1000b0af 	sw	s0,16(sp)
801019c4:	21808000 	move	s0,a0
801019c8:	1400bfaf 	sw	ra,20(sp)
801019cc:	04000392 	lbu	v1,4(s0)
801019d0:	01000624 	li	a2,1
801019d4:	18006610 	beq	v1,a2,0x80101a38
801019d8:	02006228 	slti	v0,v1,2
801019dc:	05004010 	beqz	v0,0x801019f4
801019e0:	00000000 	nop
801019e4:	0a006010 	beqz	v1,0x80101a10
801019e8:	21200002 	move	a0,s0
801019ec:	8f2a0408 	j	0x8010aa3c
801019f0:	00000000 	nop
801019f4:	02000224 	li	v0,2
801019f8:	29006210 	beq	v1,v0,0x80101aa0
801019fc:	03000224 	li	v0,3
80101a00:	25006210 	beq	v1,v0,0x80101a98
80101a04:	00000000 	nop
80101a08:	8f2a0408 	j	0x8010aa3c
80101a0c:	00000000 	nop
80101a10:	21280000 	move	a1,zero
80101a14:	f829040c 	jal	0x8010a7e0
80101a18:	040086a0 	sb	a2,4(a0)
80101a1c:	add4010c 	jal	0x800752b4
80101a20:	21200000 	move	a0,zero
80101a24:	49d7010c 	jal	0x80075d24
80101a28:	ff1f0424 	li	a0,8191
80101a2c:	0c80023c 	lui	v0,0x800c
80101a30:	8f2a0408 	j	0x8010aa3c
80101a34:	50f840ac 	sw	zero,-1968(v0)
80101a38:	b49a000c 	jal	0x80026ad0
80101a3c:	21200002 	move	a0,s0
80101a40:	04004010 	beqz	v0,0x80101a54
80101a44:	00000000 	nop
80101a48:	03000592 	lbu	a1,3(s0)
80101a4c:	f829040c 	jal	0x8010a7e0
80101a50:	21200002 	move	a0,s0
80101a54:	9a9a000c 	jal	0x80026a68
80101a58:	21200002 	move	a0,s0
80101a5c:	0c80023c 	lui	v0,0x800c
80101a60:	80ed4384 	lh	v1,-4736(v0)
80101a64:	0b000224 	li	v0,11
80101a68:	0d006214 	bne	v1,v0,0x80101aa0
80101a6c:	0c80023c 	lui	v0,0x800c
80101a70:	08f85024 	addiu	s0,v0,-2040
80101a74:	4800028e 	lw	v0,72(s0)
80101a78:	00000000 	nop
80101a7c:	08004010 	beqz	v0,0x80101aa0
80101a80:	7f000524 	li	a1,127
80101a84:	0b000424 	li	a0,11
80101a88:	9d37020c 	jal	0x8008de74
80101a8c:	1c020624 	li	a2,540
80101a90:	8f2a0408 	j	0x8010aa3c
80101a94:	480000ae 	sw	zero,72(s0)
80101a98:	74eb010c 	jal	0x8007add0
80101a9c:	21200002 	move	a0,s0
80101aa0:	1400bf8f 	lw	ra,20(sp)
80101aa4:	1000b08f 	lw	s0,16(sp)
80101aa8:	0800e003 	jr	ra
80101aac:	1800bd27 	addiu	sp,sp,24
80101ab0:	e8ffbd27 	addiu	sp,sp,-24
80101ab4:	21688000 	move	t5,a0
80101ab8:	801f093c 	lui	t1,0x1f80
80101abc:	04002935 	ori	t1,t1,0x4
80101ac0:	0c80023c 	lui	v0,0x800c
80101ac4:	44f54a8c 	lw	t2,-2748(v0)
80101ac8:	2110c000 	move	v0,a2
80101acc:	ffffc624 	addiu	a2,a2,-1
80101ad0:	af004010 	beqz	v0,0x80101d90
80101ad4:	801f0e3c 	lui	t6,0x1f80
80101ad8:	f0000f3c 	lui	t7,0xf0
80101adc:	f0f0ef35 	ori	t7,t7,0xf0f0
80101ae0:	22008b24 	addiu	t3,a0,34
80101ae4:	24004825 	addiu	t0,t2,36
80101ae8:	1000a0c9 	lwc2	$0,16(t5)
80101aec:	1400ac8d 	lw	t4,20(t5)
80101af0:	1800a2c9 	lwc2	$2,24(t5)
80101af4:	00088c48 	mtc2	t4,$1
80101af8:	1c00a4c9 	lwc2	$4,28(t5)
80101afc:	02640c00 	srl	t4,t4,0x10
80101b00:	00188c48 	mtc2	t4,$3
80101b04:	2000a5c9 	lwc2	$5,32(t5)
80101b08:	0000a28d 	lw	v0,0(t5)
80101b0c:	00000000 	nop
80101b10:	e0ff02ad 	sw	v0,-32(t0)
80101b14:	3000284a 	c2	0x280030
80101b18:	e6ff628d 	lw	v0,-26(t3)
80101b1c:	00000000 	nop
80101b20:	e8ff02ad 	sw	v0,-24(t0)
80101b24:	eaff628d 	lw	v0,-22(t3)
80101b28:	00000000 	nop
80101b2c:	f4ff02ad 	sw	v0,-12(t0)
80101b30:	e2ff638d 	lw	v1,-30(t3)
80101b34:	00f84c48 	cfc2	t4,$31
80101b38:	00000000 	nop
80101b3c:	0000ccad 	sw	t4,0(t6)
80101b40:	0000c28d 	lw	v0,0(t6)
80101b44:	00000000 	nop
80101b48:	8c004004 	bltz	v0,0x80101d7c
80101b4c:	00000000 	nop
80101b50:	0600404b 	c2	0x1400006
80101b54:	24106f00 	and	v0,v1,t7
80101b58:	ecff02ad 	sw	v0,-20(t0)
80101b5c:	0000d8e9 	swc2	$24,0(t6)
80101b60:	0000c28d 	lw	v0,0(t6)
80101b64:	00000000 	nop
80101b68:	84004018 	blez	v0,0x80101d7c
80101b6c:	00000000 	nop
80101b70:	08004ce9 	swc2	$12,8(t2)
80101b74:	14004de9 	swc2	$13,20(t2)
80101b78:	20004ee9 	swc2	$14,32(t2)
80101b7c:	e4ff0295 	lhu	v0,-28(t0)
80101b80:	00000000 	nop
80101b84:	4001422c 	sltiu	v0,v0,320
80101b88:	0b004014 	bnez	v0,0x80101bb8
80101b8c:	00000000 	nop
80101b90:	f0ff0295 	lhu	v0,-16(t0)
80101b94:	00000000 	nop
80101b98:	4001422c 	sltiu	v0,v0,320
80101b9c:	06004014 	bnez	v0,0x80101bb8
80101ba0:	00000000 	nop
80101ba4:	fcff0295 	lhu	v0,-4(t0)
80101ba8:	00000000 	nop
80101bac:	4001422c 	sltiu	v0,v0,320
80101bb0:	72004010 	beqz	v0,0x80101d7c
80101bb4:	00000000 	nop
80101bb8:	e6ff0295 	lhu	v0,-26(t0)
80101bbc:	00000000 	nop
80101bc0:	f000422c 	sltiu	v0,v0,240
80101bc4:	0b004014 	bnez	v0,0x80101bf4
80101bc8:	00110300 	sll	v0,v1,0x4
80101bcc:	f2ff0295 	lhu	v0,-14(t0)
80101bd0:	00000000 	nop
80101bd4:	f000422c 	sltiu	v0,v0,240
80101bd8:	06004014 	bnez	v0,0x80101bf4
80101bdc:	00110300 	sll	v0,v1,0x4
80101be0:	feff0295 	lhu	v0,-2(t0)
80101be4:	00000000 	nop
80101be8:	f000422c 	sltiu	v0,v0,240
80101bec:	63004010 	beqz	v0,0x80101d7c
80101bf0:	00110300 	sll	v0,v1,0x4
80101bf4:	24104f00 	and	v0,v0,t7
80101bf8:	f8ff02ad 	sw	v0,-8(t0)
80101bfc:	02160300 	srl	v0,v1,0x18
80101c00:	03004330 	andi	v1,v0,0x3
80101c04:	01000224 	li	v0,1
80101c08:	05006210 	beq	v1,v0,0x80101c20
80101c0c:	02000224 	li	v0,2
80101c10:	1f006210 	beq	v1,v0,0x80101c90
80101c14:	0c00a227 	addiu	v0,sp,12
80101c18:	262b0408 	j	0x8010ac98
80101c1c:	00000000 	nop
80101c20:	0000b1eb 	swc2	$17,0(sp)
80101c24:	0400a227 	addiu	v0,sp,4
80101c28:	000052e8 	swc2	$18,0(v0)
80101c2c:	0800a227 	addiu	v0,sp,8
80101c30:	000053e8 	swc2	$19,0(v0)
80101c34:	0000a78f 	lw	a3,0(sp)
80101c38:	0400a48f 	lw	a0,4(sp)
80101c3c:	00000000 	nop
80101c40:	2a108700 	slt	v0,a0,a3
80101c44:	08004010 	beqz	v0,0x80101c68
80101c48:	00000000 	nop
80101c4c:	0800a38f 	lw	v1,8(sp)
80101c50:	00000000 	nop
80101c54:	2a106700 	slt	v0,v1,a3
80101c58:	0a004010 	beqz	v0,0x80101c84
80101c5c:	83100300 	sra	v0,v1,0x2
80101c60:	072b0408 	j	0x8010ac1c
80101c64:	2118e000 	move	v1,a3
80101c68:	0800a38f 	lw	v1,8(sp)
80101c6c:	00000000 	nop
80101c70:	2a106400 	slt	v0,v1,a0
80101c74:	03004010 	beqz	v0,0x80101c84
80101c78:	83100300 	sra	v0,v1,0x2
80101c7c:	21188000 	move	v1,a0
80101c80:	83100300 	sra	v0,v1,0x2
80101c84:	64004224 	addiu	v0,v0,100
80101c88:	282b0408 	j	0x8010aca0
80101c8c:	000022ad 	sw	v0,0(t1)
80101c90:	000051e8 	swc2	$17,0(v0)
80101c94:	1000a227 	addiu	v0,sp,16
80101c98:	000052e8 	swc2	$18,0(v0)
80101c9c:	1400a227 	addiu	v0,sp,20
80101ca0:	000053e8 	swc2	$19,0(v0)
80101ca4:	0c00a78f 	lw	a3,12(sp)
80101ca8:	1000a48f 	lw	a0,16(sp)
80101cac:	00000000 	nop
80101cb0:	2a108700 	slt	v0,a0,a3
80101cb4:	08004010 	beqz	v0,0x80101cd8
80101cb8:	00000000 	nop
80101cbc:	1400a38f 	lw	v1,20(sp)
80101cc0:	00000000 	nop
80101cc4:	2a106700 	slt	v0,v1,a3
80101cc8:	0a004010 	beqz	v0,0x80101cf4
80101ccc:	83100300 	sra	v0,v1,0x2
80101cd0:	232b0408 	j	0x8010ac8c
80101cd4:	2118e000 	move	v1,a3
80101cd8:	1400a38f 	lw	v1,20(sp)
80101cdc:	00000000 	nop
80101ce0:	2a106400 	slt	v0,v1,a0
80101ce4:	03004010 	beqz	v0,0x80101cf4
80101ce8:	83100300 	sra	v0,v1,0x2
80101cec:	21188000 	move	v1,a0
80101cf0:	83100300 	sra	v0,v1,0x2
80101cf4:	282b0408 	j	0x8010aca0
80101cf8:	000022ad 	sw	v0,0(t1)
80101cfc:	2d00584b 	c2	0x158002d
80101d00:	000027e9 	swc2	$7,0(t1)
80101d04:	0000228d 	lw	v0,0(t1)
80101d08:	00000000 	nop
80101d0c:	831a0200 	sra	v1,v0,0xa
80101d10:	07106200 	srav	v0,v0,v1
80101d14:	401a0300 	sll	v1,v1,0x9
80101d18:	21104300 	addu	v0,v0,v1
80101d1c:	000022ad 	sw	v0,0(t1)
80101d20:	fcff4224 	addiu	v0,v0,-4
80101d24:	fc07422c 	sltiu	v0,v0,2044
80101d28:	02004014 	bnez	v0,0x80101d34
80101d2c:	ffff0224 	li	v0,-1
80101d30:	000022ad 	sw	v0,0(t1)
80101d34:	0000228d 	lw	v0,0(t1)
80101d38:	00000000 	nop
80101d3c:	0f004004 	bltz	v0,0x80101d7c
80101d40:	0009043c 	lui	a0,0x900
80101d44:	00006295 	lhu	v0,0(t3)
80101d48:	00000000 	nop
80101d4c:	000002a5 	sh	v0,0(t0)
80101d50:	0000228d 	lw	v0,0(t1)
80101d54:	00000000 	nop
80101d58:	80100200 	sll	v0,v0,0x2
80101d5c:	2110a200 	addu	v0,a1,v0
80101d60:	0000438c 	lw	v1,0(v0)
80101d64:	00000000 	nop
80101d68:	25186400 	or	v1,v1,a0
80101d6c:	000043ad 	sw	v1,0(t2)
80101d70:	00004aac 	sw	t2,0(v0)
80101d74:	28000825 	addiu	t0,t0,40
80101d78:	28004a25 	addiu	t2,t2,40
80101d7c:	24006b25 	addiu	t3,t3,36
80101d80:	2400ad25 	addiu	t5,t5,36
80101d84:	2110c000 	move	v0,a2
80101d88:	57ff4014 	bnez	v0,0x80101ae8
80101d8c:	ffffc624 	addiu	a2,a2,-1
80101d90:	0c80023c 	lui	v0,0x800c
80101d94:	44f54aac 	sw	t2,-2748(v0)
80101d98:	2110a001 	move	v0,t5
80101d9c:	0800e003 	jr	ra
80101da0:	1800bd27 	addiu	sp,sp,24
80101da4:	e0ffbd27 	addiu	sp,sp,-32
80101da8:	21688000 	move	t5,a0
80101dac:	801f093c 	lui	t1,0x1f80
80101db0:	04002935 	ori	t1,t1,0x4
80101db4:	0c80023c 	lui	v0,0x800c
80101db8:	44f54a8c 	lw	t2,-2748(v0)
80101dbc:	2110c000 	move	v0,a2
80101dc0:	ffffc624 	addiu	a2,a2,-1
80101dc4:	d0004010 	beqz	v0,0x80102108
80101dc8:	801f0e3c 	lui	t6,0x1f80
80101dcc:	f0000f3c 	lui	t7,0xf0
80101dd0:	f0f0ef35 	ori	t7,t7,0xf0f0
80101dd4:	10008b24 	addiu	t3,a0,16
80101dd8:	30004825 	addiu	t0,t2,48
80101ddc:	1800ac8d 	lw	t4,24(t5)
80101de0:	1400a0c9 	lwc2	$0,20(t5)
80101de4:	00088c48 	mtc2	t4,$1
80101de8:	02640c00 	srl	t4,t4,0x10
80101dec:	00188c48 	mtc2	t4,$3
80101df0:	1c00a2c9 	lwc2	$2,28(t5)
80101df4:	2400ac8d 	lw	t4,36(t5)
80101df8:	2000a4c9 	lwc2	$4,32(t5)
80101dfc:	00288c48 	mtc2	t4,$5
80101e00:	f0ff023c 	lui	v0,0xfff0
80101e04:	0000a38d 	lw	v1,0(t5)
80101e08:	f0f04234 	ori	v0,v0,0xf0f0
80101e0c:	24106200 	and	v0,v1,v0
80101e10:	d4ff02ad 	sw	v0,-44(t0)
80101e14:	3000284a 	c2	0x280030
80101e18:	00190300 	sll	v1,v1,0x4
80101e1c:	24186f00 	and	v1,v1,t7
80101e20:	e0ff03ad 	sw	v1,-32(t0)
80101e24:	f4ff638d 	lw	v1,-12(t3)
80101e28:	00f84c48 	cfc2	t4,$31
80101e2c:	00000000 	nop
80101e30:	0000ccad 	sw	t4,0(t6)
80101e34:	0000c28d 	lw	v0,0(t6)
80101e38:	00000000 	nop
80101e3c:	ad004004 	bltz	v0,0x801020f4
80101e40:	00000000 	nop
80101e44:	0600404b 	c2	0x1400006
80101e48:	f8ff628d 	lw	v0,-8(t3)
80101e4c:	00000000 	nop
80101e50:	dcff02ad 	sw	v0,-36(t0)
80101e54:	0000d8e9 	swc2	$24,0(t6)
80101e58:	0000c28d 	lw	v0,0(t6)
80101e5c:	00000000 	nop
80101e60:	a4004018 	blez	v0,0x801020f4
80101e64:	00000000 	nop
80101e68:	08004ce9 	swc2	$12,8(t2)
80101e6c:	14004de9 	swc2	$13,20(t2)
80101e70:	20004ee9 	swc2	$14,32(t2)
80101e74:	2400ac8d 	lw	t4,36(t5)
80101e78:	2800a0c9 	lwc2	$0,40(t5)
80101e7c:	02640c00 	srl	t4,t4,0x10
80101e80:	00088c48 	mtc2	t4,$1
80101e84:	24106f00 	and	v0,v1,t7
80101e88:	ecff02ad 	sw	v0,-20(t0)
80101e8c:	0100184a 	c2	0x180001
80101e90:	00110300 	sll	v0,v1,0x4
80101e94:	24104f00 	and	v0,v0,t7
80101e98:	f8ff02ad 	sw	v0,-8(t0)
80101e9c:	fcff628d 	lw	v0,-4(t3)
80101ea0:	00000000 	nop
80101ea4:	e8ff02ad 	sw	v0,-24(t0)
80101ea8:	00f84c48 	cfc2	t4,$31
80101eac:	00000000 	nop
80101eb0:	0000ccad 	sw	t4,0(t6)
80101eb4:	0000c28d 	lw	v0,0(t6)
80101eb8:	00000000 	nop
80101ebc:	8d004004 	bltz	v0,0x801020f4
80101ec0:	2c004225 	addiu	v0,t2,44
80101ec4:	00004ee8 	swc2	$14,0(v0)
80101ec8:	d8ff0295 	lhu	v0,-40(t0)
80101ecc:	00000000 	nop
80101ed0:	4001422c 	sltiu	v0,v0,320
80101ed4:	10004014 	bnez	v0,0x80101f18
80101ed8:	00000000 	nop
80101edc:	e4ff0295 	lhu	v0,-28(t0)
80101ee0:	00000000 	nop
80101ee4:	4001422c 	sltiu	v0,v0,320
80101ee8:	0b004014 	bnez	v0,0x80101f18
80101eec:	00000000 	nop
80101ef0:	f0ff0295 	lhu	v0,-16(t0)
80101ef4:	00000000 	nop
80101ef8:	4001422c 	sltiu	v0,v0,320
80101efc:	06004014 	bnez	v0,0x80101f18
80101f00:	00000000 	nop
80101f04:	fcff0295 	lhu	v0,-4(t0)
80101f08:	00000000 	nop
80101f0c:	4001422c 	sltiu	v0,v0,320
80101f10:	78004010 	beqz	v0,0x801020f4
80101f14:	00000000 	nop
80101f18:	daff0295 	lhu	v0,-38(t0)
80101f1c:	00000000 	nop
80101f20:	f000422c 	sltiu	v0,v0,240
80101f24:	10004014 	bnez	v0,0x80101f68
80101f28:	02160300 	srl	v0,v1,0x18
80101f2c:	e6ff0295 	lhu	v0,-26(t0)
80101f30:	00000000 	nop
80101f34:	f000422c 	sltiu	v0,v0,240
80101f38:	0b004014 	bnez	v0,0x80101f68
80101f3c:	02160300 	srl	v0,v1,0x18
80101f40:	f2ff0295 	lhu	v0,-14(t0)
80101f44:	00000000 	nop
80101f48:	f000422c 	sltiu	v0,v0,240
80101f4c:	06004014 	bnez	v0,0x80101f68
80101f50:	02160300 	srl	v0,v1,0x18
80101f54:	feff0295 	lhu	v0,-2(t0)
80101f58:	00000000 	nop
80101f5c:	f000422c 	sltiu	v0,v0,240
80101f60:	64004010 	beqz	v0,0x801020f4
80101f64:	02160300 	srl	v0,v1,0x18
80101f68:	03004330 	andi	v1,v0,0x3
80101f6c:	01000224 	li	v0,1
80101f70:	05006210 	beq	v1,v0,0x80101f88
80101f74:	02000224 	li	v0,2
80101f78:	1f006210 	beq	v1,v0,0x80101ff8
80101f7c:	1000a227 	addiu	v0,sp,16
80101f80:	022c0408 	j	0x8010b008
80101f84:	00000000 	nop
80101f88:	0000b0eb 	swc2	$16,0(sp)
80101f8c:	0400a227 	addiu	v0,sp,4
80101f90:	000051e8 	swc2	$17,0(v0)
80101f94:	0800a227 	addiu	v0,sp,8
80101f98:	000052e8 	swc2	$18,0(v0)
80101f9c:	0c00a227 	addiu	v0,sp,12
80101fa0:	000053e8 	swc2	$19,0(v0)
80101fa4:	0400a78f 	lw	a3,4(sp)
80101fa8:	0000a38f 	lw	v1,0(sp)
80101fac:	00000000 	nop
80101fb0:	2a10e300 	slt	v0,a3,v1
80101fb4:	02004010 	beqz	v0,0x80101fc0
80101fb8:	00000000 	nop
80101fbc:	21386000 	move	a3,v1
80101fc0:	0c00a38f 	lw	v1,12(sp)
80101fc4:	0800a48f 	lw	a0,8(sp)
80101fc8:	00000000 	nop
80101fcc:	2a106400 	slt	v0,v1,a0
80101fd0:	03004010 	beqz	v0,0x80101fe0
80101fd4:	2a106700 	slt	v0,v1,a3
80101fd8:	21188000 	move	v1,a0
80101fdc:	2a106700 	slt	v0,v1,a3
80101fe0:	03004010 	beqz	v0,0x80101ff0
80101fe4:	83100300 	sra	v0,v1,0x2
80101fe8:	2118e000 	move	v1,a3
80101fec:	83100300 	sra	v0,v1,0x2
80101ff0:	042c0408 	j	0x8010b010
80101ff4:	000022ad 	sw	v0,0(t1)
80101ff8:	000050e8 	swc2	$16,0(v0)
80101ffc:	1400a227 	addiu	v0,sp,20
80102000:	000051e8 	swc2	$17,0(v0)
80102004:	1800a227 	addiu	v0,sp,24
80102008:	000052e8 	swc2	$18,0(v0)
8010200c:	1c00a227 	addiu	v0,sp,28
80102010:	000053e8 	swc2	$19,0(v0)
80102014:	1400a78f 	lw	a3,20(sp)
80102018:	1000a38f 	lw	v1,16(sp)
8010201c:	00000000 	nop
80102020:	2a10e300 	slt	v0,a3,v1
80102024:	02004010 	beqz	v0,0x80102030
80102028:	00000000 	nop
8010202c:	21386000 	move	a3,v1
80102030:	1c00a38f 	lw	v1,28(sp)
80102034:	1800a48f 	lw	a0,24(sp)
80102038:	00000000 	nop
8010203c:	2a106400 	slt	v0,v1,a0
80102040:	03004010 	beqz	v0,0x80102050
80102044:	2a106700 	slt	v0,v1,a3
80102048:	21188000 	move	v1,a0
8010204c:	2a106700 	slt	v0,v1,a3
80102050:	03004010 	beqz	v0,0x80102060
80102054:	83100300 	sra	v0,v1,0x2
80102058:	2118e000 	move	v1,a3
8010205c:	83100300 	sra	v0,v1,0x2
80102060:	64004224 	addiu	v0,v0,100
80102064:	042c0408 	j	0x8010b010
80102068:	000022ad 	sw	v0,0(t1)
8010206c:	2e00684b 	c2	0x168002e
80102070:	000027e9 	swc2	$7,0(t1)
80102074:	0000228d 	lw	v0,0(t1)
80102078:	00000000 	nop
8010207c:	831a0200 	sra	v1,v0,0xa
80102080:	07106200 	srav	v0,v0,v1
80102084:	401a0300 	sll	v1,v1,0x9
80102088:	21104300 	addu	v0,v0,v1
8010208c:	000022ad 	sw	v0,0(t1)
80102090:	fcff4224 	addiu	v0,v0,-4
80102094:	fc07422c 	sltiu	v0,v0,2044
80102098:	02004014 	bnez	v0,0x801020a4
8010209c:	ffff0224 	li	v0,-1
801020a0:	000022ad 	sw	v0,0(t1)
801020a4:	0000228d 	lw	v0,0(t1)
801020a8:	00000000 	nop
801020ac:	11004004 	bltz	v0,0x801020f4
801020b0:	000c043c 	lui	a0,0xc00
801020b4:	0000628d 	lw	v0,0(t3)
801020b8:	00000000 	nop
801020bc:	f4ff02ad 	sw	v0,-12(t0)
801020c0:	02140200 	srl	v0,v0,0x10
801020c4:	000002ad 	sw	v0,0(t0)
801020c8:	0000228d 	lw	v0,0(t1)
801020cc:	00000000 	nop
801020d0:	80100200 	sll	v0,v0,0x2
801020d4:	2110a200 	addu	v0,a1,v0
801020d8:	0000438c 	lw	v1,0(v0)
801020dc:	00000000 	nop
801020e0:	25186400 	or	v1,v1,a0
801020e4:	000043ad 	sw	v1,0(t2)
801020e8:	00004aac 	sw	t2,0(v0)
801020ec:	34000825 	addiu	t0,t0,52
801020f0:	34004a25 	addiu	t2,t2,52
801020f4:	2c006b25 	addiu	t3,t3,44
801020f8:	2c00ad25 	addiu	t5,t5,44
801020fc:	2110c000 	move	v0,a2
80102100:	36ff4014 	bnez	v0,0x80101ddc
80102104:	ffffc624 	addiu	a2,a2,-1
80102108:	0c80023c 	lui	v0,0x800c
8010210c:	44f54aac 	sw	t2,-2748(v0)
80102110:	2110a001 	move	v0,t5
80102114:	0800e003 	jr	ra
80102118:	2000bd27 	addiu	sp,sp,32
8010211c:	d8ffbd27 	addiu	sp,sp,-40
80102120:	2400bfaf 	sw	ra,36(sp)
80102124:	2000b4af 	sw	s4,32(sp)
80102128:	1c00b3af 	sw	s3,28(sp)
8010212c:	1800b2af 	sw	s2,24(sp)
80102130:	1400b1af 	sw	s1,20(sp)
80102134:	1000b0af 	sw	s0,16(sp)
80102138:	06008290 	lbu	v0,6(a0)
8010213c:	00000000 	nop
80102140:	2e004010 	beqz	v0,0x801021fc
80102144:	801f073c 	lui	a3,0x1f80
80102148:	f800e724 	addiu	a3,a3,248
8010214c:	0000ec8c 	lw	t4,0(a3)
80102150:	0400ed8c 	lw	t5,4(a3)
80102154:	0000cc48 	ctc2	t4,$0
80102158:	0008cd48 	ctc2	t5,$1
8010215c:	0800ec8c 	lw	t4,8(a3)
80102160:	0c00ed8c 	lw	t5,12(a3)
80102164:	1000ee8c 	lw	t6,16(a3)
80102168:	0010cc48 	ctc2	t4,$2
8010216c:	0018cd48 	ctc2	t5,$3
80102170:	0020ce48 	ctc2	t6,$4
80102174:	801f073c 	lui	a3,0x1f80
80102178:	f800e724 	addiu	a3,a3,248
8010217c:	1400ec8c 	lw	t4,20(a3)
80102180:	1800ed8c 	lw	t5,24(a3)
80102184:	0028cc48 	ctc2	t4,$5
80102188:	1c00ee8c 	lw	t6,28(a3)
8010218c:	0030cd48 	ctc2	t5,$6
80102190:	0038ce48 	ctc2	t6,$7
80102194:	10009124 	addiu	s1,a0,16
80102198:	40100200 	sll	v0,v0,0x1
8010219c:	10004224 	addiu	v0,v0,16
801021a0:	21988200 	addu	s3,a0,v0
801021a4:	0f80023c 	lui	v0,0x800f
801021a8:	2b183302 	sltu	v1,s1,s3
801021ac:	c8d8528c 	lw	s2,-10040(v0)
801021b0:	0c00948c 	lw	s4,12(a0)
801021b4:	11006010 	beqz	v1,0x801021fc
801021b8:	21284002 	move	a1,s2
801021bc:	00002496 	lhu	a0,0(s1)
801021c0:	02003126 	addiu	s1,s1,2
801021c4:	80200400 	sll	a0,a0,0x2
801021c8:	21208402 	addu	a0,s4,a0
801021cc:	0000908c 	lw	s0,0(a0)
801021d0:	04008424 	addiu	a0,a0,4
801021d4:	932a040c 	jal	0x8010aa4c
801021d8:	ff000632 	andi	a2,s0,0xff
801021dc:	02841000 	srl	s0,s0,0x10
801021e0:	21204000 	move	a0,v0
801021e4:	21284002 	move	a1,s2
801021e8:	502b040c 	jal	0x8010ad40
801021ec:	ff000632 	andi	a2,s0,0xff
801021f0:	2b103302 	sltu	v0,s1,s3
801021f4:	f1ff4014 	bnez	v0,0x801021bc
801021f8:	21284002 	move	a1,s2
801021fc:	2400bf8f 	lw	ra,36(sp)
80102200:	2000b48f 	lw	s4,32(sp)
80102204:	1c00b38f 	lw	s3,28(sp)
80102208:	1800b28f 	lw	s2,24(sp)
8010220c:	1400b18f 	lw	s1,20(sp)
80102210:	1000b08f 	lw	s0,16(sp)
80102214:	0800e003 	jr	ra
80102218:	2800bd27 	addiu	sp,sp,40
8010221c:	e0ffbd27 	addiu	sp,sp,-32
80102220:	1400b1af 	sw	s1,20(sp)
80102224:	2188a000 	move	s1,a1
80102228:	1800bfaf 	sw	ra,24(sp)
8010222c:	1000b0af 	sw	s0,16(sp)
80102230:	0000908c 	lw	s0,0(a0)
80102234:	10008424 	addiu	a0,a0,16
80102238:	7b4b040c 	jal	0x80112dec
8010223c:	ffff0632 	andi	a2,s0,0xffff
80102240:	21204000 	move	a0,v0
80102244:	21282002 	move	a1,s1
80102248:	ef4b040c 	jal	0x80112fbc
8010224c:	02341000 	srl	a2,s0,0x10
80102250:	1800bf8f 	lw	ra,24(sp)
80102254:	1400b18f 	lw	s1,20(sp)
80102258:	1000b08f 	lw	s0,16(sp)
8010225c:	0800e003 	jr	ra
80102260:	2000bd27 	addiu	sp,sp,32
80102264:	c0ffbd27 	addiu	sp,sp,-64
80102268:	3800b4af 	sw	s4,56(sp)
8010226c:	21a08000 	move	s4,a0
80102270:	3000b2af 	sw	s2,48(sp)
80102274:	0a80123c 	lui	s2,0x800a
80102278:	2800b0af 	sw	s0,40(sp)
8010227c:	801f103c 	lui	s0,0x1f80
80102280:	3c00bfaf 	sw	ra,60(sp)
80102284:	3400b3af 	sw	s3,52(sp)
80102288:	2c00b1af 	sw	s1,44(sp)
8010228c:	0c00828e 	lw	v0,12(s4)
80102290:	d0001026 	addiu	s0,s0,208
80102294:	00004394 	lhu	v1,0(v0)
80102298:	0a80113c 	lui	s1,0x800a
8010229c:	080083a6 	sh	v1,8(s4)
801022a0:	02004394 	lhu	v1,2(v0)
801022a4:	80570224 	li	v0,22400
801022a8:	903f42ae 	sw	v0,16272(s2)
801022ac:	0a0083a6 	sh	v1,10(s4)
801022b0:	22000296 	lhu	v0,34(s0)
801022b4:	c7010324 	li	v1,455
801022b8:	943f23ae 	sw	v1,16276(s1)
801022bc:	0a000386 	lh	v1,10(s0)
801022c0:	00140200 	sll	v0,v0,0x10
801022c4:	03140200 	sra	v0,v0,0x10
801022c8:	23100200 	negu	v0,v0
801022cc:	39fe4224 	addiu	v0,v0,-455
801022d0:	ff0f5330 	andi	s3,v0,0xfff
801022d4:	02000286 	lh	v0,2(s0)
801022d8:	21206002 	move	a0,s3
801022dc:	1400a3af 	sw	v1,20(sp)
801022e0:	a00f020c 	jal	0x80083e80
801022e4:	1000a2af 	sw	v0,16(sp)
801022e8:	903f438e 	lw	v1,16272(s2)
801022ec:	00000000 	nop
801022f0:	18004300 	mult	v0,v1
801022f4:	21206002 	move	a0,s3
801022f8:	1000a28f 	lw	v0,16(sp)
801022fc:	12180000 	mflo	v1
80102300:	031b0300 	sra	v1,v1,0xc
80102304:	21104300 	addu	v0,v0,v1
80102308:	d40f020c 	jal	0x80083f50
8010230c:	1800a2af 	sw	v0,24(sp)
80102310:	903f438e 	lw	v1,16272(s2)
80102314:	00000000 	nop
80102318:	18004300 	mult	v0,v1
8010231c:	22000386 	lh	v1,34(s0)
80102320:	943f228e 	lw	v0,16276(s1)
80102324:	00000000 	nop
80102328:	23104300 	subu	v0,v0,v1
8010232c:	ff0f5330 	andi	s3,v0,0xfff
80102330:	21206002 	move	a0,s3
80102334:	1400a28f 	lw	v0,20(sp)
80102338:	12400000 	mflo	t0
8010233c:	031b0800 	sra	v1,t0,0xc
80102340:	21104300 	addu	v0,v0,v1
80102344:	a00f020c 	jal	0x80083e80
80102348:	1c00a2af 	sw	v0,28(sp)
8010234c:	903f438e 	lw	v1,16272(s2)
80102350:	00000000 	nop
80102354:	18004300 	mult	v0,v1
80102358:	21206002 	move	a0,s3
8010235c:	1000a28f 	lw	v0,16(sp)
80102360:	12180000 	mflo	v1
80102364:	031b0300 	sra	v1,v1,0xc
80102368:	21104300 	addu	v0,v0,v1
8010236c:	d40f020c 	jal	0x80083f50
80102370:	2000a2af 	sw	v0,32(sp)
80102374:	903f438e 	lw	v1,16272(s2)
80102378:	00000000 	nop
8010237c:	18004300 	mult	v0,v1
80102380:	20000486 	lh	a0,32(s0)
80102384:	1400a28f 	lw	v0,20(sp)
80102388:	12180000 	mflo	v1
8010238c:	031b0300 	sra	v1,v1,0xc
80102390:	21104300 	addu	v0,v0,v1
80102394:	a00f020c 	jal	0x80083e80
80102398:	2400a2af 	sw	v0,36(sp)
8010239c:	22000486 	lh	a0,34(s0)
801023a0:	02004104 	bgez	v0,0x801023ac
801023a4:	21884000 	move	s1,v0
801023a8:	23881100 	negu	s1,s1
801023ac:	a00f020c 	jal	0x80083e80
801023b0:	23200400 	negu	a0,a0
801023b4:	18005100 	mult	v0,s1
801023b8:	22000486 	lh	a0,34(s0)
801023bc:	00000000 	nop
801023c0:	23200400 	negu	a0,a0
801023c4:	12180000 	mflo	v1
801023c8:	d40f020c 	jal	0x80083f50
801023cc:	03830300 	sra	s0,v1,0xc
801023d0:	18005100 	mult	v0,s1
801023d4:	12400000 	mflo	t0
801023d8:	903f438e 	lw	v1,16272(s2)
801023dc:	00000000 	nop
801023e0:	18000302 	mult	s0,v1
801023e4:	12200000 	mflo	a0
801023e8:	03130800 	sra	v0,t0,0xc
801023ec:	00000000 	nop
801023f0:	18004300 	mult	v0,v1
801023f4:	6666093c 	lui	t1,0x6666
801023f8:	67662935 	ori	t1,t1,0x6667
801023fc:	1000a68f 	lw	a2,16(sp)
80102400:	80100400 	sll	v0,a0,0x2
80102404:	21104400 	addu	v0,v0,a0
80102408:	12180000 	mflo	v1
8010240c:	03840200 	sra	s0,v0,0x10
80102410:	2330d000 	subu	a2,a2,s0
80102414:	1800c900 	mult	a2,t1
80102418:	1400a88f 	lw	t0,20(sp)
8010241c:	80100300 	sll	v0,v1,0x2
80102420:	21104300 	addu	v0,v0,v1
80102424:	10600000 	mfhi	t4
80102428:	03140200 	sra	v0,v0,0x10
8010242c:	23400201 	subu	t0,t0,v0
80102430:	18000901 	mult	t0,t1
80102434:	1800a38f 	lw	v1,24(sp)
80102438:	10680000 	mfhi	t5
8010243c:	23187000 	subu	v1,v1,s0
80102440:	00000000 	nop
80102444:	18006900 	mult	v1,t1
80102448:	2000a48f 	lw	a0,32(sp)
8010244c:	10780000 	mfhi	t7
80102450:	23209000 	subu	a0,a0,s0
80102454:	00000000 	nop
80102458:	18008900 	mult	a0,t1
8010245c:	1c00a58f 	lw	a1,28(sp)
80102460:	2400a78f 	lw	a3,36(sp)
80102464:	1000a6af 	sw	a2,16(sp)
80102468:	2000a4af 	sw	a0,32(sp)
8010246c:	2328a200 	subu	a1,a1,v0
80102470:	10580000 	mfhi	t3
80102474:	2338e200 	subu	a3,a3,v0
80102478:	c3370600 	sra	a2,a2,0x1f
8010247c:	1800a900 	mult	a1,t1
80102480:	1c00a5af 	sw	a1,28(sp)
80102484:	2400a7af 	sw	a3,36(sp)
80102488:	1400a8af 	sw	t0,20(sp)
8010248c:	1800a3af 	sw	v1,24(sp)
80102490:	03120c00 	sra	v0,t4,0x8
80102494:	23104600 	subu	v0,v0,a2
80102498:	c3470800 	sra	t0,t0,0x1f
8010249c:	1000a2af 	sw	v0,16(sp)
801024a0:	c31f0300 	sra	v1,v1,0x1f
801024a4:	03120f00 	sra	v0,t7,0x8
801024a8:	23104300 	subu	v0,v0,v1
801024ac:	10500000 	mfhi	t2
801024b0:	c3270400 	sra	a0,a0,0x1f
801024b4:	1800a2af 	sw	v0,24(sp)
801024b8:	1800e900 	mult	a3,t1
801024bc:	03120b00 	sra	v0,t3,0x8
801024c0:	23104400 	subu	v0,v0,a0
801024c4:	2000a2af 	sw	v0,32(sp)
801024c8:	03120d00 	sra	v0,t5,0x8
801024cc:	23104800 	subu	v0,v0,t0
801024d0:	c32f0500 	sra	a1,a1,0x1f
801024d4:	1400a2af 	sw	v0,20(sp)
801024d8:	03120a00 	sra	v0,t2,0x8
801024dc:	23104500 	subu	v0,v0,a1
801024e0:	c33f0700 	sra	a3,a3,0x1f
801024e4:	1c00a2af 	sw	v0,28(sp)
801024e8:	10180000 	mfhi	v1
801024ec:	03120300 	sra	v0,v1,0x8
801024f0:	23104700 	subu	v0,v0,a3
801024f4:	2400a2af 	sw	v0,36(sp)
801024f8:	0c80023c 	lui	v0,0x800c
801024fc:	060080a2 	sb	zero,6(s4)
80102500:	71f84390 	lbu	v1,-1935(v0)
80102504:	00000000 	nop
80102508:	09006010 	beqz	v1,0x80102530
8010250c:	02000224 	li	v0,2
80102510:	07006210 	beq	v1,v0,0x80102530
80102514:	03000224 	li	v0,3
80102518:	05006210 	beq	v1,v0,0x80102530
8010251c:	21208002 	move	a0,s4
80102520:	1000a527 	addiu	a1,sp,16
80102524:	1800a627 	addiu	a2,sp,24
80102528:	872d040c 	jal	0x8010b61c
8010252c:	2000a727 	addiu	a3,sp,32
80102530:	3c00bf8f 	lw	ra,60(sp)
80102534:	3800b48f 	lw	s4,56(sp)
80102538:	3400b38f 	lw	s3,52(sp)
8010253c:	3000b28f 	lw	s2,48(sp)
80102540:	2c00b18f 	lw	s1,44(sp)
80102544:	2800b08f 	lw	s0,40(sp)
80102548:	0800e003 	jr	ra
8010254c:	4000bd27 	addiu	sp,sp,64
80102550:	4900a004 	bltz	a1,0x80102678
80102554:	00000000 	nop
80102558:	0a008284 	lh	v0,10(a0)
8010255c:	00000000 	nop
80102560:	2a10a200 	slt	v0,a1,v0
80102564:	44004010 	beqz	v0,0x80102678
80102568:	00000000 	nop
8010256c:	08008294 	lhu	v0,8(a0)
80102570:	00000000 	nop
80102574:	004c0200 	sll	t1,v0,0x10
80102578:	03440900 	sra	t0,t1,0x10
8010257c:	2a10e800 	slt	v0,a3,t0
80102580:	02004014 	bnez	v0,0x8010258c
80102584:	00000000 	nop
80102588:	ffff0725 	addiu	a3,t0,-1
8010258c:	0200c104 	bgez	a2,0x80102598
80102590:	0c80023c 	lui	v0,0x800c
80102594:	21300000 	move	a2,zero
80102598:	71f84390 	lbu	v1,-1935(v0)
8010259c:	01000224 	li	v0,1
801025a0:	0a006214 	bne	v1,v0,0x801025cc
801025a4:	c2170900 	srl	v0,t1,0x1f
801025a8:	21100201 	addu	v0,t0,v0
801025ac:	43180200 	sra	v1,v0,0x1
801025b0:	2a10e300 	slt	v0,a3,v1
801025b4:	30004014 	bnez	v0,0x80102678
801025b8:	2a10c300 	slt	v0,a2,v1
801025bc:	0b004010 	beqz	v0,0x801025ec
801025c0:	00000000 	nop
801025c4:	622d0408 	j	0x8010b588
801025c8:	21306000 	move	a2,v1
801025cc:	21100201 	addu	v0,t0,v0
801025d0:	43180200 	sra	v1,v0,0x1
801025d4:	2a106600 	slt	v0,v1,a2
801025d8:	27004014 	bnez	v0,0x80102678
801025dc:	2a106700 	slt	v0,v1,a3
801025e0:	02004010 	beqz	v0,0x801025ec
801025e4:	00000000 	nop
801025e8:	21386000 	move	a3,v1
801025ec:	0a008284 	lh	v0,10(a0)
801025f0:	00000000 	nop
801025f4:	1800c200 	mult	a2,v0
801025f8:	0c00888c 	lw	t0,12(a0)
801025fc:	00000000 	nop
80102600:	04000825 	addiu	t0,t0,4
80102604:	12500000 	mflo	t2
80102608:	21104501 	addu	v0,t2,a1
8010260c:	40100200 	sll	v0,v0,0x1
80102610:	21400201 	addu	t0,t0,v0
80102614:	2a10e600 	slt	v0,a3,a2
80102618:	17004014 	bnez	v0,0x80102678
8010261c:	ffff0924 	li	t1,-1
80102620:	00000285 	lh	v0,0(t0)
80102624:	00000000 	nop
80102628:	0c004910 	beq	v0,t1,0x8010265c
8010262c:	00000000 	nop
80102630:	06008390 	lbu	v1,6(a0)
80102634:	00000000 	nop
80102638:	ff006530 	andi	a1,v1,0xff
8010263c:	fe00a22c 	sltiu	v0,a1,254
80102640:	06004010 	beqz	v0,0x8010265c
80102644:	01006224 	addiu	v0,v1,1
80102648:	060082a0 	sb	v0,6(a0)
8010264c:	40100500 	sll	v0,a1,0x1
80102650:	00000395 	lhu	v1,0(t0)
80102654:	21108200 	addu	v0,a0,v0
80102658:	100043a4 	sh	v1,16(v0)
8010265c:	0a008284 	lh	v0,10(a0)
80102660:	0100c624 	addiu	a2,a2,1
80102664:	40100200 	sll	v0,v0,0x1
80102668:	21400201 	addu	t0,t0,v0
8010266c:	2a10e600 	slt	v0,a3,a2
80102670:	ebff4010 	beqz	v0,0x80102620
80102674:	00000000 	nop
80102678:	0800e003 	jr	ra
8010267c:	00000000 	nop
80102680:	c8ffbd27 	addiu	sp,sp,-56
80102684:	3000beaf 	sw	s8,48(sp)
80102688:	21f08000 	move	s8,a0
8010268c:	3400bfaf 	sw	ra,52(sp)
80102690:	2c00b7af 	sw	s7,44(sp)
80102694:	2800b6af 	sw	s6,40(sp)
80102698:	2400b5af 	sw	s5,36(sp)
8010269c:	2000b4af 	sw	s4,32(sp)
801026a0:	1c00b3af 	sw	s3,28(sp)
801026a4:	1800b2af 	sw	s2,24(sp)
801026a8:	1400b1af 	sw	s1,20(sp)
801026ac:	1000b0af 	sw	s0,16(sp)
801026b0:	0000a38c 	lw	v1,0(a1)
801026b4:	0400a58c 	lw	a1,4(a1)
801026b8:	0000c48c 	lw	a0,0(a2)
801026bc:	0400d38c 	lw	s3,4(a2)
801026c0:	0000e88c 	lw	t0,0(a3)
801026c4:	0400f48c 	lw	s4,4(a3)
801026c8:	03006516 	bne	s3,a1,0x801026d8
801026cc:	2a106502 	slt	v0,s3,a1
801026d0:	93007412 	beq	s3,s4,0x80102920
801026d4:	00000000 	nop
801026d8:	06004010 	beqz	v0,0x801026f4
801026dc:	21106000 	move	v0,v1
801026e0:	21188000 	move	v1,a0
801026e4:	21204000 	move	a0,v0
801026e8:	2110a000 	move	v0,a1
801026ec:	21286002 	move	a1,s3
801026f0:	21984000 	move	s3,v0
801026f4:	2a108502 	slt	v0,s4,a1
801026f8:	06004010 	beqz	v0,0x80102714
801026fc:	21106000 	move	v0,v1
80102700:	21180001 	move	v1,t0
80102704:	21404000 	move	t0,v0
80102708:	2110a000 	move	v0,a1
8010270c:	21288002 	move	a1,s4
80102710:	21a04000 	move	s4,v0
80102714:	2a109302 	slt	v0,s4,s3
80102718:	06004010 	beqz	v0,0x80102734
8010271c:	21108000 	move	v0,a0
80102720:	21200001 	move	a0,t0
80102724:	21404000 	move	t0,v0
80102728:	21106002 	move	v0,s3
8010272c:	21988002 	move	s3,s4
80102730:	21a04000 	move	s4,v0
80102734:	23488300 	subu	t1,a0,v1
80102738:	23500301 	subu	t2,t0,v1
8010273c:	23306502 	subu	a2,s3,a1
80102740:	0a006516 	bne	s3,a1,0x8010276c
80102744:	23388502 	subu	a3,s4,a1
80102748:	2a106400 	slt	v0,v1,a0
8010274c:	03004010 	beqz	v0,0x8010275c
80102750:	00940300 	sll	s2,v1,0x10
80102754:	c02d0408 	j	0x8010b700
80102758:	008c0400 	sll	s1,a0,0x10
8010275c:	00940400 	sll	s2,a0,0x10
80102760:	008c0300 	sll	s1,v1,0x10
80102764:	d02d0408 	j	0x8010b740
80102768:	21b00000 	move	s6,zero
8010276c:	008c0300 	sll	s1,v1,0x10
80102770:	21902002 	move	s2,s1
80102774:	00140900 	sll	v0,t1,0x10
80102778:	1a004600 	div	zero,v0,a2
8010277c:	0200c014 	bnez	a2,0x80102788
80102780:	00000000 	nop
80102784:	0d000700 	break	0x7
80102788:	ffff0124 	li	at,-1
8010278c:	0400c114 	bne	a2,at,0x801027a0
80102790:	0080013c 	lui	at,0x8000
80102794:	02004114 	bne	v0,at,0x801027a0
80102798:	00000000 	nop
8010279c:	0d000600 	break	0x6
801027a0:	12b00000 	mflo	s6
801027a4:	0100023c 	lui	v0,0x1
801027a8:	03007416 	bne	s3,s4,0x801027b8
801027ac:	21882202 	addu	s1,s1,v0
801027b0:	e32d0408 	j	0x8010b78c
801027b4:	21b80000 	move	s7,zero
801027b8:	23100401 	subu	v0,t0,a0
801027bc:	00140200 	sll	v0,v0,0x10
801027c0:	23189302 	subu	v1,s4,s3
801027c4:	1a004300 	div	zero,v0,v1
801027c8:	02006014 	bnez	v1,0x801027d4
801027cc:	00000000 	nop
801027d0:	0d000700 	break	0x7
801027d4:	ffff0124 	li	at,-1
801027d8:	04006114 	bne	v1,at,0x801027ec
801027dc:	0080013c 	lui	at,0x8000
801027e0:	02004114 	bne	v0,at,0x801027ec
801027e4:	00000000 	nop
801027e8:	0d000600 	break	0x6
801027ec:	12b80000 	mflo	s7
801027f0:	23100700 	negu	v0,a3
801027f4:	00000000 	nop
801027f8:	18004900 	mult	v0,t1
801027fc:	12180000 	mflo	v1
	...
80102808:	18004601 	mult	t2,a2
8010280c:	12400000 	mflo	t0
80102810:	00140a00 	sll	v0,t2,0x10
80102814:	21186800 	addu	v1,v1,t0
80102818:	1a004700 	div	zero,v0,a3
8010281c:	0200e014 	bnez	a3,0x80102828
80102820:	00000000 	nop
80102824:	0d000700 	break	0x7
80102828:	ffff0124 	li	at,-1
8010282c:	0400e114 	bne	a3,at,0x80102840
80102830:	0080013c 	lui	at,0x8000
80102834:	02004114 	bne	v0,at,0x80102840
80102838:	00000000 	nop
8010283c:	0d000600 	break	0x6
80102840:	12a80000 	mflo	s5
80102844:	1d006018 	blez	v1,0x801028bc
80102848:	2180a000 	move	s0,a1
8010284c:	2a101302 	slt	v0,s0,s3
80102850:	0c004010 	beqz	v0,0x80102884
80102854:	2a109002 	slt	v0,s4,s0
80102858:	2120c003 	move	a0,s8
8010285c:	21280002 	move	a1,s0
80102860:	03341200 	sra	a2,s2,0x10
80102864:	3b2d040c 	jal	0x8010b4ec
80102868:	033c1100 	sra	a3,s1,0x10
8010286c:	21905602 	addu	s2,s2,s6
80102870:	01001026 	addiu	s0,s0,1
80102874:	2a101302 	slt	v0,s0,s3
80102878:	f7ff4014 	bnez	v0,0x80102858
8010287c:	21883502 	addu	s1,s1,s5
80102880:	2a109002 	slt	v0,s4,s0
80102884:	26004014 	bnez	v0,0x80102920
80102888:	00000000 	nop
8010288c:	2120c003 	move	a0,s8
80102890:	21280002 	move	a1,s0
80102894:	03341200 	sra	a2,s2,0x10
80102898:	3b2d040c 	jal	0x8010b4ec
8010289c:	033c1100 	sra	a3,s1,0x10
801028a0:	21905702 	addu	s2,s2,s7
801028a4:	01001026 	addiu	s0,s0,1
801028a8:	2a109002 	slt	v0,s4,s0
801028ac:	f7ff4010 	beqz	v0,0x8010288c
801028b0:	21883502 	addu	s1,s1,s5
801028b4:	2f2e0408 	j	0x8010b8bc
801028b8:	00000000 	nop
801028bc:	2a101302 	slt	v0,s0,s3
801028c0:	15004010 	beqz	v0,0x80102918
801028c4:	2a109002 	slt	v0,s4,s0
801028c8:	2120c003 	move	a0,s8
801028cc:	21280002 	move	a1,s0
801028d0:	03341200 	sra	a2,s2,0x10
801028d4:	3b2d040c 	jal	0x8010b4ec
801028d8:	033c1100 	sra	a3,s1,0x10
801028dc:	21883602 	addu	s1,s1,s6
801028e0:	01001026 	addiu	s0,s0,1
801028e4:	2a101302 	slt	v0,s0,s3
801028e8:	f7ff4014 	bnez	v0,0x801028c8
801028ec:	21905502 	addu	s2,s2,s5
801028f0:	2d2e0408 	j	0x8010b8b4
801028f4:	2a109002 	slt	v0,s4,s0
801028f8:	21280002 	move	a1,s0
801028fc:	03341200 	sra	a2,s2,0x10
80102900:	3b2d040c 	jal	0x8010b4ec
80102904:	033c1100 	sra	a3,s1,0x10
80102908:	21905502 	addu	s2,s2,s5
8010290c:	21883702 	addu	s1,s1,s7
80102910:	01001026 	addiu	s0,s0,1
80102914:	2a109002 	slt	v0,s4,s0
80102918:	f7ff4010 	beqz	v0,0x801028f8
8010291c:	2120c003 	move	a0,s8
80102920:	3400bf8f 	lw	ra,52(sp)
80102924:	3000be8f 	lw	s8,48(sp)
80102928:	2c00b78f 	lw	s7,44(sp)
8010292c:	2800b68f 	lw	s6,40(sp)
80102930:	2400b58f 	lw	s5,36(sp)
80102934:	2000b48f 	lw	s4,32(sp)
80102938:	1c00b38f 	lw	s3,28(sp)
8010293c:	1800b28f 	lw	s2,24(sp)
80102940:	1400b18f 	lw	s1,20(sp)
80102944:	1000b08f 	lw	s0,16(sp)
80102948:	0800e003 	jr	ra
8010294c:	3800bd27 	addiu	sp,sp,56
80102950:	0f80023c 	lui	v0,0x800f
80102954:	78cf428c 	lw	v0,-12424(v0)
80102958:	00000000 	nop
8010295c:	0c0082ac 	sw	v0,12(a0)
80102960:	00004394 	lhu	v1,0(v0)
80102964:	00000000 	nop
80102968:	080083a4 	sh	v1,8(a0)
8010296c:	02004294 	lhu	v0,2(v0)
80102970:	070080a0 	sb	zero,7(a0)
80102974:	0800e003 	jr	ra
80102978:	0a0082a4 	sh	v0,10(a0)
8010297c:	21388000 	move	a3,a0
80102980:	0f80023c 	lui	v0,0x800f
80102984:	01000a24 	li	t2,1
80102988:	0000e390 	lbu	v1,0(a3)
8010298c:	84cf488c 	lw	t0,-12412(v0)
80102990:	47006a10 	beq	v1,t2,0x80102ab0
80102994:	f8ffbd27 	addiu	sp,sp,-8
80102998:	02006228 	slti	v0,v1,2
8010299c:	88004010 	beqz	v0,0x80102bc0
801029a0:	00000000 	nop
801029a4:	86006014 	bnez	v1,0x80102bc0
801029a8:	e338063c 	lui	a2,0x38e3
801029ac:	0000eaa0 	sb	t2,0(a3)
801029b0:	0300e0a0 	sb	zero,3(a3)
801029b4:	00000295 	lhu	v0,0(t0)
801029b8:	00000000 	nop
801029bc:	0400e2a4 	sh	v0,4(a3)
801029c0:	02000295 	lhu	v0,2(t0)
801029c4:	00000000 	nop
801029c8:	0600e2a4 	sh	v0,6(a3)
801029cc:	04000295 	lhu	v0,4(t0)
801029d0:	00000000 	nop
801029d4:	0800e2a4 	sh	v0,8(a3)
801029d8:	06000295 	lhu	v0,6(t0)
801029dc:	00000000 	nop
801029e0:	0a00e2a4 	sh	v0,10(a3)
801029e4:	08000295 	lhu	v0,8(t0)
801029e8:	00000000 	nop
801029ec:	0c00e2a4 	sh	v0,12(a3)
801029f0:	0a000295 	lhu	v0,10(t0)
801029f4:	00000000 	nop
801029f8:	0e00e2a4 	sh	v0,14(a3)
801029fc:	0c000291 	lbu	v0,12(t0)
80102a00:	00000000 	nop
80102a04:	1000e2a0 	sb	v0,16(a3)
80102a08:	0d000291 	lbu	v0,13(t0)
80102a0c:	00000000 	nop
80102a10:	1100e2a0 	sb	v0,17(a3)
80102a14:	0e000595 	lhu	a1,14(t0)
80102a18:	10000495 	lhu	a0,16(t0)
80102a1c:	00090224 	li	v0,2304
80102a20:	2c00e2a4 	sh	v0,44(a3)
80102a24:	ffff4330 	andi	v1,v0,0xffff
80102a28:	1000e290 	lbu	v0,16(a3)
80102a2c:	00000000 	nop
80102a30:	18006200 	mult	v1,v0
80102a34:	12100000 	mflo	v0
80102a38:	398ec634 	ori	a2,a2,0x8e39
80102a3c:	00000000 	nop
80102a40:	18004600 	mult	v0,a2
80102a44:	e8080224 	li	v0,2280
80102a48:	2e00e2a4 	sh	v0,46(a3)
80102a4c:	ffff4330 	andi	v1,v0,0xffff
80102a50:	10480000 	mfhi	t1
80102a54:	1100e290 	lbu	v0,17(a3)
80102a58:	00000000 	nop
80102a5c:	18006200 	mult	v1,v0
80102a60:	ffff8430 	andi	a0,a0,0xffff
80102a64:	12100000 	mflo	v0
80102a68:	ffffa530 	andi	a1,a1,0xffff
80102a6c:	00000000 	nop
80102a70:	18004600 	mult	v0,a2
80102a74:	14000325 	addiu	v1,t0,20
80102a78:	21206400 	addu	a0,v1,a0
80102a7c:	21288500 	addu	a1,a0,a1
80102a80:	1c00e5ac 	sw	a1,28(a3)
80102a84:	1800e3ac 	sw	v1,24(a3)
80102a88:	1400e4ac 	sw	a0,20(a3)
80102a8c:	2110a000 	move	v0,a1
80102a90:	3400e2ac 	sw	v0,52(a3)
80102a94:	43110900 	sra	v0,t1,0x5
80102a98:	3000e2a4 	sh	v0,48(a3)
80102a9c:	10300000 	mfhi	a2
80102aa0:	43110600 	sra	v0,a2,0x5
80102aa4:	3200e2a4 	sh	v0,50(a3)
80102aa8:	d72e0408 	j	0x8010bb5c
80102aac:	3800eaa0 	sb	t2,56(a3)
80102ab0:	801f023c 	lui	v0,0x1f80
80102ab4:	f2004384 	lh	v1,242(v0)
80102ab8:	2c00e294 	lhu	v0,44(a3)
80102abc:	00000000 	nop
80102ac0:	18006200 	mult	v1,v0
80102ac4:	40014224 	addiu	v0,v0,320
80102ac8:	43100200 	sra	v0,v0,0x1
80102acc:	12580000 	mflo	t3
80102ad0:	031b0b00 	sra	v1,t3,0xc
80102ad4:	23284300 	subu	a1,v0,v1
80102ad8:	0700a104 	bgez	a1,0x80102af8
80102adc:	00000000 	nop
80102ae0:	3000e294 	lhu	v0,48(a3)
80102ae4:	00000000 	nop
80102ae8:	2128a200 	addu	a1,a1,v0
80102aec:	ffffa004 	bltz	a1,0x80102aec
80102af0:	2128a200 	addu	a1,a1,v0
80102af4:	2328a200 	subu	a1,a1,v0
80102af8:	3000e394 	lhu	v1,48(a3)
80102afc:	00000000 	nop
80102b00:	2a10a300 	slt	v0,a1,v1
80102b04:	07004014 	bnez	v0,0x80102b24
80102b08:	801f023c 	lui	v0,0x1f80
80102b0c:	2328a300 	subu	a1,a1,v1
80102b10:	2a10a300 	slt	v0,a1,v1
80102b14:	feff4010 	beqz	v0,0x80102b10
80102b18:	2328a300 	subu	a1,a1,v1
80102b1c:	2128a300 	addu	a1,a1,v1
80102b20:	801f023c 	lui	v0,0x1f80
80102b24:	f0004384 	lh	v1,240(v0)
80102b28:	2e00e294 	lhu	v0,46(a3)
80102b2c:	00000000 	nop
80102b30:	18006200 	mult	v1,v0
80102b34:	1100e290 	lbu	v0,17(a3)
80102b38:	00000000 	nop
80102b3c:	c0100200 	sll	v0,v0,0x3
80102b40:	12580000 	mflo	t3
80102b44:	031b0b00 	sra	v1,t3,0xc
80102b48:	21186200 	addu	v1,v1,v0
80102b4c:	e0ff6324 	addiu	v1,v1,-32
80102b50:	07006104 	bgez	v1,0x80102b70
80102b54:	00000000 	nop
80102b58:	3200e294 	lhu	v0,50(a3)
80102b5c:	00000000 	nop
80102b60:	21186200 	addu	v1,v1,v0
80102b64:	ffff6004 	bltz	v1,0x80102b64
80102b68:	21186200 	addu	v1,v1,v0
80102b6c:	23186200 	subu	v1,v1,v0
80102b70:	3200e494 	lhu	a0,50(a3)
80102b74:	00000000 	nop
80102b78:	2a106400 	slt	v0,v1,a0
80102b7c:	06004014 	bnez	v0,0x80102b98
80102b80:	00000000 	nop
80102b84:	23186400 	subu	v1,v1,a0
80102b88:	2a106400 	slt	v0,v1,a0
80102b8c:	feff4010 	beqz	v0,0x80102b88
80102b90:	23186400 	subu	v1,v1,a0
80102b94:	21186400 	addu	v1,v1,a0
80102b98:	3800e290 	lbu	v0,56(a3)
80102b9c:	00000000 	nop
80102ba0:	ffff4224 	addiu	v0,v0,-1
80102ba4:	3800e2a0 	sb	v0,56(a3)
80102ba8:	00160200 	sll	v0,v0,0x18
80102bac:	0200401c 	bgtz	v0,0x80102bb8
80102bb0:	01000224 	li	v0,1
80102bb4:	0300e2a0 	sb	v0,3(a3)
80102bb8:	2800e5a4 	sh	a1,40(a3)
80102bbc:	2a00e3a4 	sh	v1,42(a3)
80102bc0:	0800e003 	jr	ra
80102bc4:	0800bd27 	addiu	sp,sp,8
80102bc8:	ac00053c 	lui	a1,0xac
80102bcc:	0606a534 	ori	a1,a1,0x606
80102bd0:	ea00063c 	lui	a2,0xea
80102bd4:	9898c634 	ori	a2,a2,0x9898
80102bd8:	21480000 	move	t1,zero
80102bdc:	38000d24 	li	t5,56
80102be0:	40010a24 	li	t2,320
80102be4:	0f800c3c 	lui	t4,0x800f
80102be8:	00080b3c 	lui	t3,0x800
80102bec:	0c80043c 	lui	a0,0x800c
80102bf0:	801f023c 	lui	v0,0x1f80
80102bf4:	f0004384 	lh	v1,240(v0)
80102bf8:	44f5878c 	lw	a3,-2748(a0)
80102bfc:	c0100300 	sll	v0,v1,0x3
80102c00:	21104300 	addu	v0,v0,v1
80102c04:	c0100200 	sll	v0,v0,0x3
80102c08:	23104300 	subu	v0,v0,v1
80102c0c:	80100200 	sll	v0,v0,0x2
80102c10:	21104300 	addu	v0,v0,v1
80102c14:	c0100200 	sll	v0,v0,0x3
80102c18:	23100200 	negu	v0,v0
80102c1c:	03130200 	sra	v0,v0,0xc
80102c20:	78004224 	addiu	v0,v0,120
80102c24:	2140e000 	move	t0,a3
80102c28:	48fe4324 	addiu	v1,v0,-440
80102c2c:	0a00e3a4 	sh	v1,10(a3)
80102c30:	1200e3a4 	sh	v1,18(a3)
80102c34:	c4ff4324 	addiu	v1,v0,-60
80102c38:	3c004424 	addiu	a0,v0,60
80102c3c:	1a00e3a4 	sh	v1,26(a3)
80102c40:	2200e3a4 	sh	v1,34(a3)
80102c44:	2e00e3a4 	sh	v1,46(a3)
80102c48:	3600e3a4 	sh	v1,54(a3)
80102c4c:	3900033c 	lui	v1,0x39
80102c50:	3e00e2a4 	sh	v0,62(a3)
80102c54:	4600e2a4 	sh	v0,70(a3)
80102c58:	5200e2a4 	sh	v0,82(a3)
80102c5c:	5a00e2a4 	sh	v0,90(a3)
80102c60:	e0014224 	addiu	v0,v0,480
80102c64:	0c00e5ac 	sw	a1,12(a3)
80102c68:	0400e5ac 	sw	a1,4(a3)
80102c6c:	1c00e5ac 	sw	a1,28(a3)
80102c70:	1400e5ac 	sw	a1,20(a3)
80102c74:	3000e5ac 	sw	a1,48(a3)
80102c78:	2800e5ac 	sw	a1,40(a3)
80102c7c:	4000e6ac 	sw	a2,64(a3)
80102c80:	3800e6ac 	sw	a2,56(a3)
80102c84:	6200e4a4 	sh	a0,98(a3)
80102c88:	6a00e4a4 	sh	a0,106(a3)
80102c8c:	5400e6ac 	sw	a2,84(a3)
80102c90:	4c00e6ac 	sw	a2,76(a3)
80102c94:	6400e3ac 	sw	v1,100(a3)
80102c98:	5c00e3ac 	sw	v1,92(a3)
80102c9c:	7600e4a4 	sh	a0,118(a3)
80102ca0:	7e00e4a4 	sh	a0,126(a3)
80102ca4:	8600e2a4 	sh	v0,134(a3)
80102ca8:	8e00e2a4 	sh	v0,142(a3)
80102cac:	7800e3ac 	sw	v1,120(a3)
80102cb0:	7000e3ac 	sw	v1,112(a3)
80102cb4:	8800e3ac 	sw	v1,136(a3)
80102cb8:	8000e3ac 	sw	v1,128(a3)
80102cbc:	07000da1 	sb	t5,7(t0)
80102cc0:	080000a5 	sh	zero,8(t0)
80102cc4:	10000aa5 	sh	t2,16(t0)
80102cc8:	180000a5 	sh	zero,24(t0)
80102ccc:	20000aa5 	sh	t2,32(t0)
80102cd0:	c8d8828d 	lw	v0,-10040(t4)
80102cd4:	00000000 	nop
80102cd8:	fc1f438c 	lw	v1,8188(v0)
80102cdc:	00000000 	nop
80102ce0:	25186b00 	or	v1,v1,t3
80102ce4:	000003ad 	sw	v1,0(t0)
80102ce8:	fc1f48ac 	sw	t0,8188(v0)
80102cec:	01002925 	addiu	t1,t1,1
80102cf0:	04002229 	slti	v0,t1,4
80102cf4:	f1ff4014 	bnez	v0,0x80102cbc
80102cf8:	24000825 	addiu	t0,t0,36
80102cfc:	9000e724 	addiu	a3,a3,144
80102d00:	0c80023c 	lui	v0,0x800c
80102d04:	0800e003 	jr	ra
80102d08:	44f547ac 	sw	a3,-2748(v0)
80102d0c:	d8ffbd27 	addiu	sp,sp,-40
80102d10:	f800073c 	lui	a3,0xf8
80102d14:	a8f8e734 	ori	a3,a3,0xf8a8
80102d18:	f800053c 	lui	a1,0xf8
80102d1c:	547ca534 	ori	a1,a1,0x7c54
80102d20:	ba00063c 	lui	a2,0xba
80102d24:	2a3ec634 	ori	a2,a2,0x3e2a
80102d28:	21400000 	move	t0,zero
80102d2c:	38000c24 	li	t4,56
80102d30:	40010924 	li	t1,320
80102d34:	0f800b3c 	lui	t3,0x800f
80102d38:	801f023c 	lui	v0,0x1f80
80102d3c:	f0004384 	lh	v1,240(v0)
80102d40:	0c80043c 	lui	a0,0x800c
80102d44:	1c00b1af 	sw	s1,28(sp)
80102d48:	44f5918c 	lw	s1,-2748(a0)
80102d4c:	00080a3c 	lui	t2,0x800
80102d50:	2000bfaf 	sw	ra,32(sp)
80102d54:	1800b0af 	sw	s0,24(sp)
80102d58:	c0100300 	sll	v0,v1,0x3
80102d5c:	21104300 	addu	v0,v0,v1
80102d60:	c0100200 	sll	v0,v0,0x3
80102d64:	23104300 	subu	v0,v0,v1
80102d68:	80100200 	sll	v0,v0,0x2
80102d6c:	21104300 	addu	v0,v0,v1
80102d70:	c0100200 	sll	v0,v0,0x3
80102d74:	23100200 	negu	v0,v0
80102d78:	03130200 	sra	v0,v0,0xc
80102d7c:	90004224 	addiu	v0,v0,144
80102d80:	21202002 	move	a0,s1
80102d84:	3c004324 	addiu	v1,v0,60
80102d88:	1a0023a6 	sh	v1,26(s1)
80102d8c:	220023a6 	sh	v1,34(s1)
80102d90:	2e0023a6 	sh	v1,46(s1)
80102d94:	360023a6 	sh	v1,54(s1)
80102d98:	78004324 	addiu	v1,v0,120
80102d9c:	0a0022a6 	sh	v0,10(s1)
80102da0:	120022a6 	sh	v0,18(s1)
80102da4:	40014224 	addiu	v0,v0,320
80102da8:	620022a6 	sh	v0,98(s1)
80102dac:	6a0022a6 	sh	v0,106(s1)
80102db0:	7c00023c 	lui	v0,0x7c
80102db4:	0c0027ae 	sw	a3,12(s1)
80102db8:	040027ae 	sw	a3,4(s1)
80102dbc:	1c0025ae 	sw	a1,28(s1)
80102dc0:	140025ae 	sw	a1,20(s1)
80102dc4:	3e0023a6 	sh	v1,62(s1)
80102dc8:	460023a6 	sh	v1,70(s1)
80102dcc:	300025ae 	sw	a1,48(s1)
80102dd0:	280025ae 	sw	a1,40(s1)
80102dd4:	400026ae 	sw	a2,64(s1)
80102dd8:	380026ae 	sw	a2,56(s1)
80102ddc:	520023a6 	sh	v1,82(s1)
80102de0:	5a0023a6 	sh	v1,90(s1)
80102de4:	540026ae 	sw	a2,84(s1)
80102de8:	4c0026ae 	sw	a2,76(s1)
80102dec:	640022ae 	sw	v0,100(s1)
80102df0:	5c0022ae 	sw	v0,92(s1)
80102df4:	07008ca0 	sb	t4,7(a0)
80102df8:	080080a4 	sh	zero,8(a0)
80102dfc:	100089a4 	sh	t1,16(a0)
80102e00:	180080a4 	sh	zero,24(a0)
80102e04:	200089a4 	sh	t1,32(a0)
80102e08:	c8d8628d 	lw	v0,-10040(t3)
80102e0c:	00000000 	nop
80102e10:	f81f438c 	lw	v1,8184(v0)
80102e14:	00000000 	nop
80102e18:	25186a00 	or	v1,v1,t2
80102e1c:	000083ac 	sw	v1,0(a0)
80102e20:	f81f44ac 	sw	a0,8184(v0)
80102e24:	01000825 	addiu	t0,t0,1
80102e28:	03000229 	slti	v0,t0,3
80102e2c:	f1ff4014 	bnez	v0,0x80102df4
80102e30:	24008424 	addiu	a0,a0,36
80102e34:	6c003126 	addiu	s1,s1,108
80102e38:	0c80103c 	lui	s0,0x800c
80102e3c:	21202002 	move	a0,s1
80102e40:	21280000 	move	a1,zero
80102e44:	01000624 	li	a2,1
80102e48:	2138a000 	move	a3,a1
80102e4c:	44f511ae 	sw	s1,-2748(s0)
80102e50:	780f020c 	jal	0x80083de0
80102e54:	1000a0af 	sw	zero,16(sp)
80102e58:	0f80023c 	lui	v0,0x800f
80102e5c:	c8d8448c 	lw	a0,-10040(v0)
80102e60:	00000000 	nop
80102e64:	f81f828c 	lw	v0,8184(a0)
80102e68:	0002033c 	lui	v1,0x200
80102e6c:	25104300 	or	v0,v0,v1
80102e70:	000022ae 	sw	v0,0(s1)
80102e74:	f81f91ac 	sw	s1,8184(a0)
80102e78:	0c002226 	addiu	v0,s1,12
80102e7c:	2000bf8f 	lw	ra,32(sp)
80102e80:	1c00b18f 	lw	s1,28(sp)
80102e84:	44f502ae 	sw	v0,-2748(s0)
80102e88:	1800b08f 	lw	s0,24(sp)
80102e8c:	0800e003 	jr	ra
80102e90:	2800bd27 	addiu	sp,sp,40
80102e94:	a0ffbd27 	addiu	sp,sp,-96
80102e98:	4000b2af 	sw	s2,64(sp)
80102e9c:	21908000 	move	s2,a0
80102ea0:	5c00bfaf 	sw	ra,92(sp)
80102ea4:	5800beaf 	sw	s8,88(sp)
80102ea8:	5400b7af 	sw	s7,84(sp)
80102eac:	5000b6af 	sw	s6,80(sp)
80102eb0:	4c00b5af 	sw	s5,76(sp)
80102eb4:	4800b4af 	sw	s4,72(sp)
80102eb8:	4400b3af 	sw	s3,68(sp)
80102ebc:	3c00b1af 	sw	s1,60(sp)
80102ec0:	3800b0af 	sw	s0,56(sp)
80102ec4:	10004292 	lbu	v0,16(s2)
80102ec8:	00000000 	nop
80102ecc:	40800200 	sll	s0,v0,0x1
80102ed0:	0c80023c 	lui	v0,0x800c
80102ed4:	70f84524 	addiu	a1,v0,-1936
80102ed8:	11004292 	lbu	v0,17(s2)
80102edc:	00000000 	nop
80102ee0:	18000202 	mult	s0,v0
80102ee4:	01000324 	li	v1,1
80102ee8:	28005496 	lhu	s4,40(s2)
80102eec:	2a005396 	lhu	s3,42(s2)
80102ef0:	0100a490 	lbu	a0,1(a1)
80102ef4:	12b00000 	mflo	s6
80102ef8:	0a008314 	bne	a0,v1,0x80102f24
80102efc:	21a80000 	move	s5,zero
80102f00:	e501a290 	lbu	v0,485(a1)
80102f04:	00000000 	nop
80102f08:	0400422c 	sltiu	v0,v0,4
80102f0c:	bf004010 	beqz	v0,0x8010320c
80102f10:	00000000 	nop
80102f14:	d92e040c 	jal	0x8010bb64
80102f18:	00000000 	nop
80102f1c:	6a300408 	j	0x8010c1a8
80102f20:	00000000 	nop
80102f24:	0400822c 	sltiu	v0,a0,4
80102f28:	b8004014 	bnez	v0,0x8010320c
80102f2c:	05000224 	li	v0,5
80102f30:	04008214 	bne	a0,v0,0x80102f44
80102f34:	60ff9926 	addiu	t9,s4,-160
80102f38:	2a2f040c 	jal	0x8010bca8
80102f3c:	00000000 	nop
80102f40:	60ff9926 	addiu	t9,s4,-160
80102f44:	88ff6326 	addiu	v1,s3,-120
80102f48:	00140300 	sll	v0,v1,0x10
80102f4c:	03150200 	sra	v0,v0,0x14
80102f50:	21504000 	move	t2,v0
80102f54:	08004104 	bgez	v0,0x80102f78
80102f58:	21c06000 	move	t8,v1
80102f5c:	11004392 	lbu	v1,17(s2)
80102f60:	00000000 	nop
80102f64:	21104301 	addu	v0,t2,v1
80102f68:	21504000 	move	t2,v0
80102f6c:	00140200 	sll	v0,v0,0x10
80102f70:	fdff4004 	bltz	v0,0x80102f68
80102f74:	21104301 	addu	v0,t2,v1
80102f78:	00140a00 	sll	v0,t2,0x10
80102f7c:	11004392 	lbu	v1,17(s2)
80102f80:	03140200 	sra	v0,v0,0x10
80102f84:	2a104300 	slt	v0,v0,v1
80102f88:	0b004014 	bnez	v0,0x80102fb8
80102f8c:	23101400 	negu	v0,s4
80102f90:	11004492 	lbu	a0,17(s2)
80102f94:	00000000 	nop
80102f98:	23104401 	subu	v0,t2,a0
80102f9c:	21504000 	move	t2,v0
80102fa0:	00140200 	sll	v0,v0,0x10
80102fa4:	03140200 	sra	v0,v0,0x10
80102fa8:	2a104300 	slt	v0,v0,v1
80102fac:	fbff4010 	beqz	v0,0x80102f9c
80102fb0:	23104401 	subu	v0,t2,a0
80102fb4:	23101400 	negu	v0,s4
80102fb8:	98005424 	addiu	s4,v0,152
80102fbc:	23101300 	negu	v0,s3
80102fc0:	70005324 	addiu	s3,v0,112
80102fc4:	00140a00 	sll	v0,t2,0x10
80102fc8:	03140200 	sra	v0,v0,0x10
80102fcc:	18005000 	mult	v0,s0
80102fd0:	001c1900 	sll	v1,t9,0x10
80102fd4:	031d0300 	sra	v1,v1,0x14
80102fd8:	12500000 	mflo	t2
80102fdc:	08006104 	bgez	v1,0x80103000
80102fe0:	21586000 	move	t3,v1
80102fe4:	10004392 	lbu	v1,16(s2)
80102fe8:	00000000 	nop
80102fec:	21106301 	addu	v0,t3,v1
80102ff0:	21584000 	move	t3,v0
80102ff4:	00140200 	sll	v0,v0,0x10
80102ff8:	fdff4004 	bltz	v0,0x80102ff0
80102ffc:	21106301 	addu	v0,t3,v1
80103000:	00140b00 	sll	v0,t3,0x10
80103004:	10004392 	lbu	v1,16(s2)
80103008:	03140200 	sra	v0,v0,0x10
8010300c:	2a104300 	slt	v0,v0,v1
80103010:	0a004014 	bnez	v0,0x8010303c
80103014:	00000000 	nop
80103018:	10004492 	lbu	a0,16(s2)
8010301c:	00000000 	nop
80103020:	23106401 	subu	v0,t3,a0
80103024:	21584000 	move	t3,v0
80103028:	00140200 	sll	v0,v0,0x10
8010302c:	03140200 	sra	v0,v0,0x10
80103030:	2a104300 	slt	v0,v0,v1
80103034:	fbff4010 	beqz	v0,0x80103024
80103038:	23106401 	subu	v0,t3,a0
8010303c:	40580b00 	sll	t3,t3,0x1
80103040:	0c80023c 	lui	v0,0x800c
80103044:	21780003 	move	t7,t8
80103048:	44f5518c 	lw	s1,-2748(v0)
8010304c:	01000224 	li	v0,1
80103050:	56004010 	beqz	v0,0x801031ac
80103054:	1800b1af 	sw	s1,24(sp)
80103058:	00141300 	sll	v0,s3,0x10
8010305c:	03f40200 	sra	s8,v0,0x10
80103060:	01001724 	li	s7,1
80103064:	3000b7af 	sw	s7,48(sp)
80103068:	00141400 	sll	v0,s4,0x10
8010306c:	039c0200 	sra	s3,v0,0x10
80103070:	21406001 	move	t0,t3
80103074:	21482003 	move	t1,t9
80103078:	f0ffe231 	andi	v0,t7,0xfff0
8010307c:	3000b78f 	lw	s7,48(sp)
80103080:	00000000 	nop
80103084:	3800e012 	beqz	s7,0x80103168
80103088:	21705e00 	addu	t6,v0,s8
8010308c:	00140a00 	sll	v0,t2,0x10
80103090:	036c0200 	sra	t5,v0,0x10
80103094:	00140900 	sll	v0,t1,0x10
80103098:	03140200 	sra	v0,v0,0x10
8010309c:	60014c24 	addiu	t4,v0,352
801030a0:	f0ff2626 	addiu	a2,s1,-16
801030a4:	00140800 	sll	v0,t0,0x10
801030a8:	02000325 	addiu	v1,t0,2
801030ac:	21406000 	move	t0,v1
801030b0:	03140200 	sra	v0,v0,0x10
801030b4:	2110a201 	addu	v0,t5,v0
801030b8:	001c0300 	sll	v1,v1,0x10
801030bc:	031c0300 	sra	v1,v1,0x10
801030c0:	1400448e 	lw	a0,20(s2)
801030c4:	2a187000 	slt	v1,v1,s0
801030c8:	21208200 	addu	a0,a0,v0
801030cc:	00008794 	lhu	a3,0(a0)
801030d0:	02006014 	bnez	v1,0x801030dc
801030d4:	21a82002 	move	s5,s1
801030d8:	21400000 	move	t0,zero
801030dc:	807d053c 	lui	a1,0x7d80
801030e0:	8080a534 	ori	a1,a1,0x8080
801030e4:	10003126 	addiu	s1,s1,16
801030e8:	f0ff2231 	andi	v0,t1,0xfff0
801030ec:	21105300 	addu	v0,v0,s3
801030f0:	ffff4230 	andi	v0,v0,0xffff
801030f4:	001c0e00 	sll	v1,t6,0x10
801030f8:	25104300 	or	v0,v0,v1
801030fc:	00190700 	sll	v1,a3,0x4
80103100:	f0006330 	andi	v1,v1,0xf0
80103104:	1800c2ac 	sw	v0,24(a2)
80103108:	f000e230 	andi	v0,a3,0xf0
8010310c:	00120200 	sll	v0,v0,0x8
80103110:	25186200 	or	v1,v1,v0
80103114:	1c00c3a4 	sh	v1,28(a2)
80103118:	10002325 	addiu	v1,t1,16
8010311c:	21486000 	move	t1,v1
80103120:	06004496 	lhu	a0,6(s2)
80103124:	03000224 	li	v0,3
80103128:	1300c2a0 	sb	v0,19(a2)
8010312c:	7c000224 	li	v0,124
80103130:	1400c5ac 	sw	a1,20(a2)
80103134:	1700c2a0 	sb	v0,23(a2)
80103138:	000fe230 	andi	v0,a3,0xf00
8010313c:	82100200 	srl	v0,v0,0x2
80103140:	001c0300 	sll	v1,v1,0x10
80103144:	031c0300 	sra	v1,v1,0x10
80103148:	2a186c00 	slt	v1,v1,t4
8010314c:	21208200 	addu	a0,a0,v0
80103150:	1e00c4a4 	sh	a0,30(a2)
80103154:	1000c624 	addiu	a2,a2,16
80103158:	0003023c 	lui	v0,0x300
8010315c:	25102202 	or	v0,s1,v0
80103160:	d0ff6014 	bnez	v1,0x801030a4
80103164:	0000c2ac 	sw	v0,0(a2)
80103168:	21185001 	addu	v1,t2,s0
8010316c:	00140300 	sll	v0,v1,0x10
80103170:	03140200 	sra	v0,v0,0x10
80103174:	2a105600 	slt	v0,v0,s6
80103178:	02004014 	bnez	v0,0x80103184
8010317c:	21506000 	move	t2,v1
80103180:	23507600 	subu	t2,v1,s6
80103184:	1000e325 	addiu	v1,t7,16
80103188:	21786000 	move	t7,v1
8010318c:	001c0300 	sll	v1,v1,0x10
80103190:	031c0300 	sra	v1,v1,0x10
80103194:	00141800 	sll	v0,t8,0x10
80103198:	03140200 	sra	v0,v0,0x10
8010319c:	00014224 	addiu	v0,v0,256
801031a0:	2a186200 	slt	v1,v1,v0
801031a4:	b3ff6014 	bnez	v1,0x80103074
801031a8:	21406001 	move	t0,t3
801031ac:	00ff043c 	lui	a0,0xff00
801031b0:	0f80103c 	lui	s0,0x800f
801031b4:	21280000 	move	a1,zero
801031b8:	2130a000 	move	a2,a1
801031bc:	c8d8038e 	lw	v1,-10040(s0)
801031c0:	0000a28e 	lw	v0,0(s5)
801031c4:	fc1f638c 	lw	v1,8188(v1)
801031c8:	24104400 	and	v0,v0,a0
801031cc:	25104300 	or	v0,v0,v1
801031d0:	0000a2ae 	sw	v0,0(s5)
801031d4:	04004796 	lhu	a3,4(s2)
801031d8:	21202002 	move	a0,s1
801031dc:	780f020c 	jal	0x80083de0
801031e0:	1000a0af 	sw	zero,16(sp)
801031e4:	0002023c 	lui	v0,0x200
801031e8:	1800b78f 	lw	s7,24(sp)
801031ec:	21182002 	move	v1,s1
801031f0:	2510e202 	or	v0,s7,v0
801031f4:	000022ae 	sw	v0,0(s1)
801031f8:	c8d8028e 	lw	v0,-10040(s0)
801031fc:	0c003126 	addiu	s1,s1,12
80103200:	fc1f43ac 	sw	v1,8188(v0)
80103204:	0c80023c 	lui	v0,0x800c
80103208:	44f551ac 	sw	s1,-2748(v0)
8010320c:	5c00bf8f 	lw	ra,92(sp)
80103210:	5800be8f 	lw	s8,88(sp)
80103214:	5400b78f 	lw	s7,84(sp)
80103218:	5000b68f 	lw	s6,80(sp)
8010321c:	4c00b58f 	lw	s5,76(sp)
80103220:	4800b48f 	lw	s4,72(sp)
80103224:	4400b38f 	lw	s3,68(sp)
80103228:	4000b28f 	lw	s2,64(sp)
8010322c:	3c00b18f 	lw	s1,60(sp)
80103230:	3800b08f 	lw	s0,56(sp)
80103234:	0800e003 	jr	ra
80103238:	6000bd27 	addiu	sp,sp,96
8010323c:	90ffbd27 	addiu	sp,sp,-112
80103240:	6400b5af 	sw	s5,100(sp)
80103244:	21a88000 	move	s5,a0
80103248:	0c80023c 	lui	v0,0x800c
8010324c:	5400b1af 	sw	s1,84(sp)
80103250:	6000b126 	addiu	s1,s5,96
80103254:	5c00b3af 	sw	s3,92(sp)
80103258:	08001324 	li	s3,8
8010325c:	5800b2af 	sw	s2,88(sp)
80103260:	44f5528c 	lw	s2,-2748(v0)
80103264:	0c80023c 	lui	v0,0x800c
80103268:	6800bfaf 	sw	ra,104(sp)
8010326c:	6000b4af 	sw	s4,96(sp)
80103270:	5000b0af 	sw	s0,80(sp)
80103274:	4000a396 	lhu	v1,64(s5)
80103278:	55fa4290 	lbu	v0,-1451(v0)
8010327c:	001c0300 	sll	v1,v1,0x10
80103280:	031e0300 	sra	v1,v1,0x18
80103284:	0400422c 	sltiu	v0,v0,4
80103288:	6a014014 	bnez	v0,0x80103834
8010328c:	40a10300 	sll	s4,v1,0x5
80103290:	5400a426 	addiu	a0,s5,84
80103294:	801f103c 	lui	s0,0x1f80
80103298:	00001026 	addiu	s0,s0,0
8010329c:	2015020c 	jal	0x80085480
801032a0:	21280002 	move	a1,s0
801032a4:	08002286 	lh	v0,8(s1)
801032a8:	00000000 	nop
801032ac:	3000a2af 	sw	v0,48(sp)
801032b0:	0a002286 	lh	v0,10(s1)
801032b4:	21200002 	move	a0,s0
801032b8:	3400a2af 	sw	v0,52(sp)
801032bc:	0c002286 	lh	v0,12(s1)
801032c0:	3000a527 	addiu	a1,sp,48
801032c4:	4811020c 	jal	0x80084520
801032c8:	3800a2af 	sw	v0,56(sp)
801032cc:	801f0b3c 	lui	t3,0x1f80
801032d0:	f8006b25 	addiu	t3,t3,248
801032d4:	00006c8d 	lw	t4,0(t3)
801032d8:	04006d8d 	lw	t5,4(t3)
801032dc:	0000cc48 	ctc2	t4,$0
801032e0:	0008cd48 	ctc2	t5,$1
801032e4:	08006c8d 	lw	t4,8(t3)
801032e8:	0c006d8d 	lw	t5,12(t3)
801032ec:	10006e8d 	lw	t6,16(t3)
801032f0:	0010cc48 	ctc2	t4,$2
801032f4:	0018cd48 	ctc2	t5,$3
801032f8:	0020ce48 	ctc2	t6,$4
801032fc:	00000c96 	lhu	t4,0(s0)
80103300:	06000d96 	lhu	t5,6(s0)
80103304:	0c000e96 	lhu	t6,12(s0)
80103308:	00488c48 	mtc2	t4,$9
8010330c:	00508d48 	mtc2	t5,$10
80103310:	00588e48 	mtc2	t6,$11
	...
8010331c:	12e0494a 	c2	0x49e012
80103320:	00480c48 	mfc2	t4,$9
80103324:	00500d48 	mfc2	t5,$10
80103328:	00580e48 	mfc2	t6,$11
8010332c:	00000ca6 	sh	t4,0(s0)
80103330:	06000da6 	sh	t5,6(s0)
80103334:	0c000ea6 	sh	t6,12(s0)
80103338:	801f0b3c 	lui	t3,0x1f80
8010333c:	02006b25 	addiu	t3,t3,2
80103340:	00006c95 	lhu	t4,0(t3)
80103344:	06006d95 	lhu	t5,6(t3)
80103348:	0c006e95 	lhu	t6,12(t3)
8010334c:	00488c48 	mtc2	t4,$9
80103350:	00508d48 	mtc2	t5,$10
80103354:	00588e48 	mtc2	t6,$11
	...
80103360:	12e0494a 	c2	0x49e012
80103364:	801f0b3c 	lui	t3,0x1f80
80103368:	02006b25 	addiu	t3,t3,2
8010336c:	00480c48 	mfc2	t4,$9
80103370:	00500d48 	mfc2	t5,$10
80103374:	00580e48 	mfc2	t6,$11
80103378:	00006ca5 	sh	t4,0(t3)
8010337c:	06006da5 	sh	t5,6(t3)
80103380:	0c006ea5 	sh	t6,12(t3)
80103384:	801f0b3c 	lui	t3,0x1f80
80103388:	04006b25 	addiu	t3,t3,4
8010338c:	00006c95 	lhu	t4,0(t3)
80103390:	06006d95 	lhu	t5,6(t3)
80103394:	0c006e95 	lhu	t6,12(t3)
80103398:	00488c48 	mtc2	t4,$9
8010339c:	00508d48 	mtc2	t5,$10
801033a0:	00588e48 	mtc2	t6,$11
	...
801033ac:	12e0494a 	c2	0x49e012
801033b0:	801f0b3c 	lui	t3,0x1f80
801033b4:	04006b25 	addiu	t3,t3,4
801033b8:	00480c48 	mfc2	t4,$9
801033bc:	00500d48 	mfc2	t5,$10
801033c0:	00580e48 	mfc2	t6,$11
801033c4:	00006ca5 	sh	t4,0(t3)
801033c8:	06006da5 	sh	t5,6(t3)
801033cc:	0c006ea5 	sh	t6,12(t3)
801033d0:	2e00a296 	lhu	v0,46(s5)
801033d4:	00000000 	nop
801033d8:	4000a2a7 	sh	v0,64(sp)
801033dc:	3200a296 	lhu	v0,50(s5)
801033e0:	00000000 	nop
801033e4:	4200a2a7 	sh	v0,66(sp)
801033e8:	3600a296 	lhu	v0,54(s5)
801033ec:	00000000 	nop
801033f0:	4400a2a7 	sh	v0,68(sp)
801033f4:	4000a227 	addiu	v0,sp,64
801033f8:	000040c8 	lwc2	$0,0(v0)
801033fc:	040041c8 	lwc2	$1,4(v0)
	...
80103408:	1260484a 	c2	0x486012
8010340c:	801f0b3c 	lui	t3,0x1f80
80103410:	14006b25 	addiu	t3,t3,20
80103414:	000079e9 	swc2	$25,0(t3)
80103418:	04007ae9 	swc2	$26,4(t3)
8010341c:	08007be9 	swc2	$27,8(t3)
80103420:	801f043c 	lui	a0,0x1f80
80103424:	d0008424 	addiu	a0,a0,208
80103428:	1400028e 	lw	v0,20(s0)
8010342c:	3c00838c 	lw	v1,60(a0)
80103430:	00000000 	nop
80103434:	21104300 	addu	v0,v0,v1
80103438:	140002ae 	sw	v0,20(s0)
8010343c:	1800028e 	lw	v0,24(s0)
80103440:	4000858c 	lw	a1,64(a0)
80103444:	1c00038e 	lw	v1,28(s0)
80103448:	4400848c 	lw	a0,68(a0)
8010344c:	21104500 	addu	v0,v0,a1
80103450:	21186400 	addu	v1,v1,a0
80103454:	180002ae 	sw	v0,24(s0)
80103458:	1c0003ae 	sw	v1,28(s0)
8010345c:	00000c8e 	lw	t4,0(s0)
80103460:	04000d8e 	lw	t5,4(s0)
80103464:	0000cc48 	ctc2	t4,$0
80103468:	0008cd48 	ctc2	t5,$1
8010346c:	08000c8e 	lw	t4,8(s0)
80103470:	0c000d8e 	lw	t5,12(s0)
80103474:	10000e8e 	lw	t6,16(s0)
80103478:	0010cc48 	ctc2	t4,$2
8010347c:	0018cd48 	ctc2	t5,$3
80103480:	0020ce48 	ctc2	t6,$4
80103484:	14000c8e 	lw	t4,20(s0)
80103488:	18000d8e 	lw	t5,24(s0)
8010348c:	0028cc48 	ctc2	t4,$5
80103490:	1c000e8e 	lw	t6,28(s0)
80103494:	0030cd48 	ctc2	t5,$6
80103498:	0038ce48 	ctc2	t6,$7
8010349c:	1180023c 	lui	v0,0x8011
801034a0:	e0544724 	addiu	a3,v0,21728
801034a4:	1800aa27 	addiu	t2,sp,24
801034a8:	4800a927 	addiu	t1,sp,72
801034ac:	1800e524 	addiu	a1,a3,24
801034b0:	30004626 	addiu	a2,s2,48
801034b4:	0400a280 	lb	v0,4(a1)
801034b8:	00000000 	nop
801034bc:	18005300 	mult	v0,s3
801034c0:	ecffa88c 	lw	t0,-20(a1)
801034c4:	12580000 	mflo	t3
801034c8:	1000aba7 	sh	t3,16(sp)
801034cc:	0600a280 	lb	v0,6(a1)
801034d0:	00000000 	nop
801034d4:	18005300 	mult	v0,s3
801034d8:	12580000 	mflo	t3
801034dc:	1200aba7 	sh	t3,18(sp)
801034e0:	f7ffa280 	lb	v0,-9(a1)
801034e4:	00000000 	nop
801034e8:	18005300 	mult	v0,s3
801034ec:	12580000 	mflo	t3
801034f0:	1400aba7 	sh	t3,20(sp)
801034f4:	0500a280 	lb	v0,5(a1)
801034f8:	00000000 	nop
801034fc:	18005300 	mult	v0,s3
80103500:	12580000 	mflo	t3
80103504:	1800aba7 	sh	t3,24(sp)
80103508:	0700a280 	lb	v0,7(a1)
8010350c:	00000000 	nop
80103510:	18005300 	mult	v0,s3
80103514:	12580000 	mflo	t3
80103518:	1a00aba7 	sh	t3,26(sp)
8010351c:	fbffa280 	lb	v0,-5(a1)
80103520:	00000000 	nop
80103524:	18005300 	mult	v0,s3
80103528:	12580000 	mflo	t3
8010352c:	1c00aba7 	sh	t3,28(sp)
80103530:	0800a280 	lb	v0,8(a1)
80103534:	00000000 	nop
80103538:	18005300 	mult	v0,s3
8010353c:	12580000 	mflo	t3
80103540:	2000aba7 	sh	t3,32(sp)
80103544:	0a00a280 	lb	v0,10(a1)
80103548:	00000000 	nop
8010354c:	18005300 	mult	v0,s3
80103550:	12580000 	mflo	t3
80103554:	2200aba7 	sh	t3,34(sp)
80103558:	ffffa280 	lb	v0,-1(a1)
8010355c:	00000000 	nop
80103560:	18005300 	mult	v0,s3
80103564:	12580000 	mflo	t3
80103568:	2400aba7 	sh	t3,36(sp)
8010356c:	0900a280 	lb	v0,9(a1)
80103570:	00000000 	nop
80103574:	18005300 	mult	v0,s3
80103578:	12580000 	mflo	t3
8010357c:	2800aba7 	sh	t3,40(sp)
80103580:	0b00a280 	lb	v0,11(a1)
80103584:	00000000 	nop
80103588:	18005300 	mult	v0,s3
8010358c:	12580000 	mflo	t3
80103590:	2a00aba7 	sh	t3,42(sp)
80103594:	0300a280 	lb	v0,3(a1)
80103598:	00000000 	nop
8010359c:	18005300 	mult	v0,s3
801035a0:	2000a327 	addiu	v1,sp,32
801035a4:	1000a227 	addiu	v0,sp,16
801035a8:	12580000 	mflo	t3
801035ac:	2c00aba7 	sh	t3,44(sp)
801035b0:	000040c8 	lwc2	$0,0(v0)
801035b4:	040041c8 	lwc2	$1,4(v0)
801035b8:	000042c9 	lwc2	$2,0(t2)
801035bc:	040043c9 	lwc2	$3,4(t2)
801035c0:	000064c8 	lwc2	$4,0(v1)
801035c4:	040065c8 	lwc2	$5,4(v1)
	...
801035d8:	3000284a 	c2	0x280030
	...
801035ec:	00f84c48 	cfc2	t4,$31
801035f0:	00000000 	nop
801035f4:	00002cad 	sw	t4,0(t1)
801035f8:	4800a28f 	lw	v0,72(sp)
801035fc:	00000000 	nop
80103600:	60004004 	bltz	v0,0x80103784
80103604:	00000000 	nop
80103608:	08004cea 	swc2	$12,8(s2)
8010360c:	14004dea 	swc2	$13,20(s2)
80103610:	20004eea 	swc2	$14,32(s2)
80103614:	2800a227 	addiu	v0,sp,40
80103618:	000040c8 	lwc2	$0,0(v0)
8010361c:	040041c8 	lwc2	$1,4(v0)
	...
80103630:	0100184a 	c2	0x180001
	...
80103644:	00f84c48 	cfc2	t4,$31
80103648:	00000000 	nop
8010364c:	00002cad 	sw	t4,0(t1)
80103650:	4800a28f 	lw	v0,72(sp)
80103654:	00000000 	nop
80103658:	4a004004 	bltz	v0,0x80103784
8010365c:	2c004226 	addiu	v0,s2,44
80103660:	00004ee8 	swc2	$14,0(v0)
	...
80103670:	2e00684b 	c2	0x168002e
80103674:	4c00a227 	addiu	v0,sp,76
80103678:	000047e8 	swc2	$7,0(v0)
8010367c:	4c00a28f 	lw	v0,76(sp)
80103680:	00000000 	nop
80103684:	9cff4224 	addiu	v0,v0,-100
80103688:	831a0200 	sra	v1,v0,0xa
8010368c:	07106200 	srav	v0,v0,v1
80103690:	401a0300 	sll	v1,v1,0x9
80103694:	21104300 	addu	v0,v0,v1
80103698:	4c00a2af 	sw	v0,76(sp)
8010369c:	fcff4224 	addiu	v0,v0,-4
801036a0:	fc07422c 	sltiu	v0,v0,2044
801036a4:	02004014 	bnez	v0,0x801036b0
801036a8:	ffff0224 	li	v0,-1
801036ac:	4c00a2af 	sw	v0,76(sp)
801036b0:	4c00a28f 	lw	v0,76(sp)
801036b4:	00000000 	nop
801036b8:	32004004 	bltz	v0,0x80103784
801036bc:	ff00023c 	lui	v0,0xff
801036c0:	ffff4234 	ori	v0,v0,0xffff
801036c4:	7f00043c 	lui	a0,0x7f
801036c8:	f4ffa38c 	lw	v1,-12(a1)
801036cc:	ffff8434 	ori	a0,a0,0xffff
801036d0:	24186200 	and	v1,v1,v0
801036d4:	003e023c 	lui	v0,0x3e00
801036d8:	25186200 	or	v1,v1,v0
801036dc:	d4ffc3ac 	sw	v1,-44(a2)
801036e0:	0000e28c 	lw	v0,0(a3)
801036e4:	24200401 	and	a0,t0,a0
801036e8:	e8ffc4ac 	sw	a0,-24(a2)
801036ec:	e8ffc390 	lbu	v1,-24(a2)
801036f0:	dcffc2ac 	sw	v0,-36(a2)
801036f4:	f0ffa28c 	lw	v0,-16(a1)
801036f8:	00000000 	nop
801036fc:	f4ffc2ac 	sw	v0,-12(a2)
80103700:	03140200 	sra	v0,v0,0x10
80103704:	0000c2ac 	sw	v0,0(a2)
80103708:	f8ffa28c 	lw	v0,-8(a1)
8010370c:	00000000 	nop
80103710:	e0ffc2ac 	sw	v0,-32(a2)
80103714:	fcffa28c 	lw	v0,-4(a1)
80103718:	00000000 	nop
8010371c:	ecffc2ac 	sw	v0,-20(a2)
80103720:	0000a48c 	lw	a0,0(a1)
80103724:	dcffc290 	lbu	v0,-36(a2)
80103728:	21187400 	addu	v1,v1,s4
8010372c:	e8ffc3a0 	sb	v1,-24(a2)
80103730:	0000c390 	lbu	v1,0(a2)
80103734:	21105400 	addu	v0,v0,s4
80103738:	dcffc2a0 	sb	v0,-36(a2)
8010373c:	f4ffc290 	lbu	v0,-12(a2)
80103740:	21187400 	addu	v1,v1,s4
80103744:	0000c3a0 	sb	v1,0(a2)
80103748:	f8ffc4ac 	sw	a0,-8(a2)
8010374c:	21105400 	addu	v0,v0,s4
80103750:	f4ffc2a0 	sb	v0,-12(a2)
80103754:	0f80033c 	lui	v1,0x800f
80103758:	4c00a28f 	lw	v0,76(sp)
8010375c:	c8d8648c 	lw	a0,-10040(v1)
80103760:	80100200 	sll	v0,v0,0x2
80103764:	21208200 	addu	a0,a0,v0
80103768:	0000828c 	lw	v0,0(a0)
8010376c:	000c033c 	lui	v1,0xc00
80103770:	25104300 	or	v0,v0,v1
80103774:	000042ae 	sw	v0,0(s2)
80103778:	000092ac 	sw	s2,0(a0)
8010377c:	3400c624 	addiu	a2,a2,52
80103780:	34005226 	addiu	s2,s2,52
80103784:	2400a524 	addiu	a1,a1,36
80103788:	4aff001d 	bgtz	t0,0x801034b4
8010378c:	2400e724 	addiu	a3,a3,36
80103790:	0c80023c 	lui	v0,0x800c
80103794:	6000b026 	addiu	s0,s5,96
80103798:	44f552ac 	sw	s2,-2748(v0)
8010379c:	801f123c 	lui	s2,0x1f80
801037a0:	0c80023c 	lui	v0,0x800c
801037a4:	4000a396 	lhu	v1,64(s5)
801037a8:	55fa4290 	lbu	v0,-1451(v0)
801037ac:	001c0300 	sll	v1,v1,0x10
801037b0:	0400422c 	sltiu	v0,v0,4
801037b4:	1f004014 	bnez	v0,0x80103834
801037b8:	038e0300 	sra	s1,v1,0x18
801037bc:	78ca000c 	jal	0x800329e0
801037c0:	06000424 	li	a0,6
801037c4:	000000ca 	lwc2	$0,0(s0)
801037c8:	040001ca 	lwc2	$1,4(s0)
801037cc:	f3c5000c 	jal	0x800317cc
801037d0:	9cff0424 	li	a0,-100
801037d4:	17004014 	bnez	v0,0x80103834
801037d8:	00000000 	nop
801037dc:	10000386 	lh	v1,16(s0)
801037e0:	8400428e 	lw	v0,132(s2)
801037e4:	00000000 	nop
801037e8:	18004300 	mult	v0,v1
801037ec:	801f023c 	lui	v0,0x1f80
801037f0:	12580000 	mflo	t3
801037f4:	c31a0b00 	sra	v1,t3,0xb
801037f8:	840043ae 	sw	v1,132(s2)
801037fc:	880043ac 	sw	v1,136(v0)
80103800:	0300a392 	lbu	v1,3(s5)
80103804:	08000224 	li	v0,8
80103808:	03006214 	bne	v1,v0,0x80103818
8010380c:	1180033c 	lui	v1,0x8011
80103810:	ef310408 	j	0x8010c7bc
80103814:	7c586324 	addiu	v1,v1,22652
80103818:	1180033c 	lui	v1,0x8011
8010381c:	64586324 	addiu	v1,v1,22628
80103820:	80101100 	sll	v0,s1,0x2
80103824:	21104300 	addu	v0,v0,v1
80103828:	0000448c 	lw	a0,0(v0)
8010382c:	3bca000c 	jal	0x800328ec
80103830:	00000000 	nop
80103834:	6800bf8f 	lw	ra,104(sp)
80103838:	6400b58f 	lw	s5,100(sp)
8010383c:	6000b48f 	lw	s4,96(sp)
80103840:	5c00b38f 	lw	s3,92(sp)
80103844:	5800b28f 	lw	s2,88(sp)
80103848:	5400b18f 	lw	s1,84(sp)
8010384c:	5000b08f 	lw	s0,80(sp)
80103850:	0800e003 	jr	ra
80103854:	7000bd27 	addiu	sp,sp,112
80103858:	b0ffbd27 	addiu	sp,sp,-80
8010385c:	2c00b1af 	sw	s1,44(sp)
80103860:	21888000 	move	s1,a0
80103864:	3000b2af 	sw	s2,48(sp)
80103868:	1200123c 	lui	s2,0x12
8010386c:	87d65236 	ori	s2,s2,0xd687
80103870:	06000424 	li	a0,6
80103874:	1180023c 	lui	v0,0x8011
80103878:	4c00bfaf 	sw	ra,76(sp)
8010387c:	4800beaf 	sw	s8,72(sp)
80103880:	4400b7af 	sw	s7,68(sp)
80103884:	4000b6af 	sw	s6,64(sp)
80103888:	3c00b5af 	sw	s5,60(sp)
8010388c:	3800b4af 	sw	s4,56(sp)
80103890:	3400b3af 	sw	s3,52(sp)
80103894:	2800b0af 	sw	s0,40(sp)
80103898:	68904a24 	addiu	t2,v0,-28568
8010389c:	0000478d 	lw	a3,0(t2)
801038a0:	0400488d 	lw	t0,4(t2)
801038a4:	0800498d 	lw	t1,8(t2)
801038a8:	1000a7af 	sw	a3,16(sp)
801038ac:	1400a8af 	sw	t0,20(sp)
801038b0:	1800a9af 	sw	t1,24(sp)
801038b4:	0c00478d 	lw	a3,12(t2)
801038b8:	00000000 	nop
801038bc:	1c00a7af 	sw	a3,28(sp)
801038c0:	801f023c 	lui	v0,0x1f80
801038c4:	78ca000c 	jal	0x800329e0
801038c8:	84005524 	addiu	s5,v0,132
801038cc:	21380000 	move	a3,zero
801038d0:	2140e000 	move	t0,a3
801038d4:	2148e000 	move	t1,a3
801038d8:	00a8c748 	ctc2	a3,$21
801038dc:	00b0c848 	ctc2	t0,$22
801038e0:	00b8c948 	ctc2	t1,$23
801038e4:	0e80103c 	lui	s0,0x800e
801038e8:	807e1026 	addiu	s0,s0,32384
801038ec:	56000486 	lh	a0,86(s0)
801038f0:	d40f020c 	jal	0x80083f50
801038f4:	00000000 	nop
801038f8:	56000486 	lh	a0,86(s0)
801038fc:	a00f020c 	jal	0x80083e80
80103900:	40980200 	sll	s3,v0,0x1
80103904:	5000248e 	lw	a0,80(s1)
80103908:	00000000 	nop
8010390c:	80180400 	sll	v1,a0,0x2
80103910:	21186400 	addu	v1,v1,a0
80103914:	40180300 	sll	v1,v1,0x1
80103918:	18006302 	mult	s3,v1
8010391c:	12200000 	mflo	a0
80103920:	40880200 	sll	s1,v0,0x1
80103924:	00000000 	nop
80103928:	18002302 	mult	s1,v1
8010392c:	21800000 	move	s0,zero
80103930:	801f023c 	lui	v0,0x1f80
80103934:	d0005424 	addiu	s4,v0,208
80103938:	801f023c 	lui	v0,0x1f80
8010393c:	60015e84 	lh	s8,352(v0)
80103940:	801f023c 	lui	v0,0x1f80
80103944:	62015784 	lh	s7,354(v0)
80103948:	801f023c 	lui	v0,0x1f80
8010394c:	64015684 	lh	s6,356(v0)
80103950:	039b0400 	sra	s3,a0,0xc
80103954:	12180000 	mflo	v1
80103958:	038b0300 	sra	s1,v1,0xc
8010395c:	1180023c 	lui	v0,0x8011
80103960:	9458468c 	lw	a2,22676(v0)
80103964:	00000000 	nop
80103968:	18004602 	mult	s2,a2
8010396c:	21205302 	addu	a0,s2,s3
80103970:	ff3f8430 	andi	a0,a0,0x3fff
80103974:	12380000 	mflo	a3
80103978:	2120c403 	addu	a0,s8,a0
8010397c:	0100f224 	addiu	s2,a3,1
80103980:	18004602 	mult	s2,a2
80103984:	00e08424 	addiu	a0,a0,-8192
80103988:	2000a4a7 	sh	a0,32(sp)
8010398c:	00240400 	sll	a0,a0,0x10
80103990:	03240400 	sra	a0,a0,0x10
80103994:	02008286 	lh	v0,2(s4)
80103998:	06008386 	lh	v1,6(s4)
8010399c:	23208200 	subu	a0,a0,v0
801039a0:	ff3f4232 	andi	v0,s2,0x3fff
801039a4:	2110e202 	addu	v0,s7,v0
801039a8:	00e04224 	addiu	v0,v0,-8192
801039ac:	002c0200 	sll	a1,v0,0x10
801039b0:	12380000 	mflo	a3
801039b4:	032c0500 	sra	a1,a1,0x10
801039b8:	0100f224 	addiu	s2,a3,1
801039bc:	18004602 	mult	s2,a2
801039c0:	2328a300 	subu	a1,a1,v1
801039c4:	2200a2a7 	sh	v0,34(sp)
801039c8:	0a008386 	lh	v1,10(s4)
801039cc:	21105102 	addu	v0,s2,s1
801039d0:	ff3f4230 	andi	v0,v0,0x3fff
801039d4:	2110c202 	addu	v0,s6,v0
801039d8:	00e04224 	addiu	v0,v0,-8192
801039dc:	00340200 	sll	a2,v0,0x10
801039e0:	03340600 	sra	a2,a2,0x10
801039e4:	2330c300 	subu	a2,a2,v1
801039e8:	2400a2a7 	sh	v0,36(sp)
801039ec:	12380000 	mflo	a3
801039f0:	90e0010c 	jal	0x80078240
801039f4:	0100f224 	addiu	s2,a3,1
801039f8:	c2100200 	srl	v0,v0,0x3
801039fc:	801f083c 	lui	t0,0x1f80
80103a00:	90000825 	addiu	t0,t0,144
80103a04:	000002ad 	sw	v0,0(t0)
80103a08:	2000a227 	addiu	v0,sp,32
80103a0c:	000040c8 	lwc2	$0,0(v0)
80103a10:	040041c8 	lwc2	$1,4(v0)
80103a14:	f3c5000c 	jal	0x800317cc
80103a18:	21200000 	move	a0,zero
80103a1c:	0d004014 	bnez	v0,0x80103a54
80103a20:	21280000 	move	a1,zero
80103a24:	2130a000 	move	a2,a1
80103a28:	03000232 	andi	v0,s0,0x3
80103a2c:	80100200 	sll	v0,v0,0x2
80103a30:	2118a203 	addu	v1,sp,v0
80103a34:	801f093c 	lui	t1,0x1f80
80103a38:	88002925 	addiu	t1,t1,136
80103a3c:	0000a28e 	lw	v0,0(s5)
80103a40:	1000648c 	lw	a0,16(v1)
80103a44:	40100200 	sll	v0,v0,0x1
80103a48:	0000a2ae 	sw	v0,0(s5)
80103a4c:	1fa1000c 	jal	0x8002847c
80103a50:	000022ad 	sw	v0,0(t1)
80103a54:	01001026 	addiu	s0,s0,1
80103a58:	4000022a 	slti	v0,s0,64
80103a5c:	bfff4014 	bnez	v0,0x8010395c
80103a60:	00000000 	nop
80103a64:	4c00bf8f 	lw	ra,76(sp)
80103a68:	4800be8f 	lw	s8,72(sp)
80103a6c:	4400b78f 	lw	s7,68(sp)
80103a70:	4000b68f 	lw	s6,64(sp)
80103a74:	3c00b58f 	lw	s5,60(sp)
80103a78:	3800b48f 	lw	s4,56(sp)
80103a7c:	3400b38f 	lw	s3,52(sp)
80103a80:	3000b28f 	lw	s2,48(sp)
80103a84:	2c00b18f 	lw	s1,44(sp)
80103a88:	2800b08f 	lw	s0,40(sp)
80103a8c:	0800e003 	jr	ra
80103a90:	5000bd27 	addiu	sp,sp,80
80103a94:	b8ffbd27 	addiu	sp,sp,-72
80103a98:	1180033c 	lui	v1,0x8011
80103a9c:	2400b1af 	sw	s1,36(sp)
80103aa0:	80011124 	li	s1,384
80103aa4:	9858628c 	lw	v0,22680(v1)
80103aa8:	1180043c 	lui	a0,0x8011
80103aac:	4400bfaf 	sw	ra,68(sp)
80103ab0:	4000beaf 	sw	s8,64(sp)
80103ab4:	3c00b7af 	sw	s7,60(sp)
80103ab8:	3800b6af 	sw	s6,56(sp)
80103abc:	3400b5af 	sw	s5,52(sp)
80103ac0:	3000b4af 	sw	s4,48(sp)
80103ac4:	2c00b3af 	sw	s3,44(sp)
80103ac8:	2800b2af 	sw	s2,40(sp)
80103acc:	2000b0af 	sw	s0,32(sp)
80103ad0:	88004224 	addiu	v0,v0,136
80103ad4:	985862ac 	sw	v0,22680(v1)
80103ad8:	1280033c 	lui	v1,0x8012
80103adc:	9c58828c 	lw	v0,22684(a0)
80103ae0:	cca6638c 	lw	v1,-22836(v1)
80103ae4:	20004224 	addiu	v0,v0,32
80103ae8:	03006104 	bgez	v1,0x80103af8
80103aec:	9c5882ac 	sw	v0,22684(a0)
80103af0:	a8320408 	j	0x8010caa0
80103af4:	21880000 	move	s1,zero
80103af8:	18007100 	mult	v1,s1
80103afc:	12480000 	mflo	t1
80103b00:	038a0900 	sra	s1,t1,0x8
80103b04:	1180103c 	lui	s0,0x8011
80103b08:	9858048e 	lw	a0,22680(s0)
80103b0c:	d40f020c 	jal	0x80083f50
80103b10:	80001524 	li	s5,128
80103b14:	18005100 	mult	v0,s1
80103b18:	9858048e 	lw	a0,22680(s0)
80103b1c:	12100000 	mflo	v0
80103b20:	40180200 	sll	v1,v0,0x1
80103b24:	21186200 	addu	v1,v1,v0
80103b28:	831c0300 	sra	v1,v1,0x12
80103b2c:	a00f020c 	jal	0x80083e80
80103b30:	1800a3a7 	sh	v1,24(sp)
80103b34:	18005100 	mult	v0,s1
80103b38:	21880000 	move	s1,zero
80103b3c:	0c80023c 	lui	v0,0x800c
80103b40:	21984000 	move	s3,v0
80103b44:	ff00123c 	lui	s2,0xff
80103b48:	ffff5236 	ori	s2,s2,0xffff
80103b4c:	00ff173c 	lui	s7,0xff00
80103b50:	44f5708e 	lw	s0,-2748(s3)
80103b54:	21280000 	move	a1,zero
80103b58:	21200002 	move	a0,s0
80103b5c:	12180000 	mflo	v1
80103b60:	6c0f020c 	jal	0x80083db0
80103b64:	83f40300 	sra	s8,v1,0x12
80103b68:	ff00063c 	lui	a2,0xff
80103b6c:	ffffc634 	ori	a2,a2,0xffff
80103b70:	0f80023c 	lui	v0,0x800f
80103b74:	21b04000 	move	s6,v0
80103b78:	2138e002 	move	a3,s7
80103b7c:	801f023c 	lui	v0,0x1f80
80103b80:	0000048e 	lw	a0,0(s0)
80103b84:	35014390 	lbu	v1,309(v0)
80103b88:	c8d8c58e 	lw	a1,-10040(s6)
80103b8c:	24208700 	and	a0,a0,a3
80103b90:	0100632c 	sltiu	v1,v1,1
80103b94:	0000a28c 	lw	v0,0(a1)
80103b98:	00a20300 	sll	s4,v1,0x8
80103b9c:	24104600 	and	v0,v0,a2
80103ba0:	25208200 	or	a0,a0,v0
80103ba4:	24300602 	and	a2,s0,a2
80103ba8:	000004ae 	sw	a0,0(s0)
80103bac:	0000a28c 	lw	v0,0(a1)
80103bb0:	0c001026 	addiu	s0,s0,12
80103bb4:	44f570ae 	sw	s0,-2748(s3)
80103bb8:	24104700 	and	v0,v0,a3
80103bbc:	25104600 	or	v0,v0,a2
80103bc0:	0000a2ac 	sw	v0,0(a1)
80103bc4:	44f5708e 	lw	s0,-2748(s3)
80103bc8:	00000000 	nop
80103bcc:	060015a2 	sb	s5,6(s0)
80103bd0:	050015a2 	sb	s5,5(s0)
80103bd4:	040015a2 	sb	s5,4(s0)
80103bd8:	1800a997 	lhu	t1,24(sp)
80103bdc:	21200002 	move	a0,s0
80103be0:	0a001ea6 	sh	s8,10(s0)
80103be4:	0d0000a2 	sb	zero,13(s0)
80103be8:	0c0000a2 	sb	zero,12(s0)
80103bec:	0e0000a6 	sh	zero,14(s0)
80103bf0:	21102902 	addu	v0,s1,t1
80103bf4:	080002a6 	sh	v0,8(s0)
80103bf8:	40000224 	li	v0,64
80103bfc:	100002a6 	sh	v0,16(s0)
80103c00:	00010224 	li	v0,256
80103c04:	300f020c 	jal	0x80083cc0
80103c08:	120002a6 	sh	v0,18(s0)
80103c0c:	21200002 	move	a0,s0
80103c10:	1c0f020c 	jal	0x80083c70
80103c14:	01000524 	li	a1,1
80103c18:	01000524 	li	a1,1
80103c1c:	ff032832 	andi	t0,s1,0x3ff
80103c20:	40003126 	addiu	s1,s1,64
80103c24:	02391400 	srl	a3,s4,0x4
80103c28:	82410800 	srl	t0,t0,0x6
80103c2c:	00010835 	ori	t0,t0,0x100
80103c30:	2538e800 	or	a3,a3,t0
80103c34:	c8d8c68e 	lw	a2,-10040(s6)
80103c38:	0000038e 	lw	v1,0(s0)
80103c3c:	0000c28c 	lw	v0,0(a2)
80103c40:	24187700 	and	v1,v1,s7
80103c44:	24105200 	and	v0,v0,s2
80103c48:	25186200 	or	v1,v1,v0
80103c4c:	000003ae 	sw	v1,0(s0)
80103c50:	24181202 	and	v1,s0,s2
80103c54:	14001026 	addiu	s0,s0,20
80103c58:	0000c28c 	lw	v0,0(a2)
80103c5c:	21200002 	move	a0,s0
80103c60:	44f570ae 	sw	s0,-2748(s3)
80103c64:	24105700 	and	v0,v0,s7
80103c68:	25104300 	or	v0,v0,v1
80103c6c:	0000c2ac 	sw	v0,0(a2)
80103c70:	2130a000 	move	a2,a1
80103c74:	780f020c 	jal	0x80083de0
80103c78:	1000a0af 	sw	zero,16(sp)
80103c7c:	c8d8c48e 	lw	a0,-10040(s6)
80103c80:	0c0f020c 	jal	0x80083c30
80103c84:	21280002 	move	a1,s0
80103c88:	0c001026 	addiu	s0,s0,12
80103c8c:	ffff2232 	andi	v0,s1,0xffff
80103c90:	4001422c 	sltiu	v0,v0,320
80103c94:	cbff4014 	bnez	v0,0x80103bc4
80103c98:	44f570ae 	sw	s0,-2748(s3)
80103c9c:	4400bf8f 	lw	ra,68(sp)
80103ca0:	4000be8f 	lw	s8,64(sp)
80103ca4:	3c00b78f 	lw	s7,60(sp)
80103ca8:	3800b68f 	lw	s6,56(sp)
80103cac:	3400b58f 	lw	s5,52(sp)
80103cb0:	3000b48f 	lw	s4,48(sp)
80103cb4:	2c00b38f 	lw	s3,44(sp)
80103cb8:	2800b28f 	lw	s2,40(sp)
80103cbc:	2400b18f 	lw	s1,36(sp)
80103cc0:	2000b08f 	lw	s0,32(sp)
80103cc4:	0800e003 	jr	ra
80103cc8:	4800bd27 	addiu	sp,sp,72
80103ccc:	b0ffbd27 	addiu	sp,sp,-80
80103cd0:	4800beaf 	sw	s8,72(sp)
80103cd4:	21f08000 	move	s8,a0
80103cd8:	4c00bfaf 	sw	ra,76(sp)
80103cdc:	4400b7af 	sw	s7,68(sp)
80103ce0:	4000b6af 	sw	s6,64(sp)
80103ce4:	3c00b5af 	sw	s5,60(sp)
80103ce8:	3800b4af 	sw	s4,56(sp)
80103cec:	3400b3af 	sw	s3,52(sp)
80103cf0:	3000b2af 	sw	s2,48(sp)
80103cf4:	2c00b1af 	sw	s1,44(sp)
80103cf8:	8c32040c 	jal	0x8010ca30
80103cfc:	2800b0af 	sw	s0,40(sp)
80103d00:	0400c017 	bnez	s8,0x80103d14
80103d04:	683f0824 	li	t0,16232
80103d08:	1c00a8af 	sw	t0,28(sp)
80103d0c:	2f330408 	j	0x8010ccbc
80103d10:	283f0824 	li	t0,16168
80103d14:	e83f0824 	li	t0,16360
80103d18:	1c00a8af 	sw	t0,28(sp)
80103d1c:	a83f0824 	li	t0,16296
80103d20:	2000a8af 	sw	t0,32(sp)
80103d24:	1280043c 	lui	a0,0x8012
80103d28:	d0a6828c 	lw	v0,-22832(a0)
80103d2c:	00000000 	nop
80103d30:	0b004014 	bnez	v0,0x80103d60
80103d34:	1280033c 	lui	v1,0x8012
80103d38:	cca6628c 	lw	v0,-22836(v1)
80103d3c:	00000000 	nop
80103d40:	06004224 	addiu	v0,v0,6
80103d44:	cca662ac 	sw	v0,-22836(v1)
80103d48:	00014228 	slti	v0,v0,256
80103d4c:	0a004014 	bnez	v0,0x80103d78
80103d50:	1280023c 	lui	v0,0x8012
80103d54:	01000224 	li	v0,1
80103d58:	44330408 	j	0x8010cd10
80103d5c:	d0a682ac 	sw	v0,-22832(a0)
80103d60:	cca6628c 	lw	v0,-22836(v1)
80103d64:	00000000 	nop
80103d68:	02004018 	blez	v0,0x80103d74
80103d6c:	fcff4224 	addiu	v0,v0,-4
80103d70:	cca662ac 	sw	v0,-22836(v1)
80103d74:	1280023c 	lui	v0,0x8012
80103d78:	c8a6428c 	lw	v0,-22840(v0)
80103d7c:	1280043c 	lui	a0,0x8012
80103d80:	40100200 	sll	v0,v0,0x1
80103d84:	a6ff4324 	addiu	v1,v0,-90
80103d88:	00016228 	slti	v0,v1,256
80103d8c:	04004014 	bnez	v0,0x80103da0
80103d90:	c4a683ac 	sw	v1,-22844(a0)
80103d94:	ff000224 	li	v0,255
80103d98:	52330408 	j	0x8010cd48
80103d9c:	c4a682ac 	sw	v0,-22844(a0)
80103da0:	03006104 	bgez	v1,0x80103db0
80103da4:	21a00000 	move	s4,zero
80103da8:	c4a680ac 	sw	zero,-22844(a0)
80103dac:	21a00000 	move	s4,zero
80103db0:	0c80153c 	lui	s5,0x800c
80103db4:	1280043c 	lui	a0,0x8012
80103db8:	c8a6838c 	lw	v1,-22840(a0)
80103dbc:	01001624 	li	s6,1
80103dc0:	21106000 	move	v0,v1
80103dc4:	21187600 	addu	v1,v1,s6
80103dc8:	e6004228 	slti	v0,v0,230
80103dcc:	26105600 	xor	v0,v0,s6
80103dd0:	1800a2af 	sw	v0,24(sp)
80103dd4:	c8a683ac 	sw	v1,-22840(a0)
80103dd8:	04008016 	bnez	s4,0x80103dec
80103ddc:	1280083c 	lui	t0,0x8012
80103de0:	c4a6028d 	lw	v0,-22844(t0)
80103de4:	66330408 	j	0x8010cd98
80103de8:	43200200 	sra	a0,v0,0x1
80103dec:	c4a6038d 	lw	v1,-22844(t0)
80103df0:	00010224 	li	v0,256
80103df4:	23104300 	subu	v0,v0,v1
80103df8:	43200200 	sra	a0,v0,0x1
80103dfc:	00140400 	sll	v0,a0,0x10
80103e00:	001a0400 	sll	v1,a0,0x8
80103e04:	25104300 	or	v0,v0,v1
80103e08:	25b84400 	or	s7,v0,a0
80103e0c:	21980000 	move	s3,zero
80103e10:	21906002 	move	s2,s3
80103e14:	21886002 	move	s1,s3
80103e18:	0001023c 	lui	v0,0x100
80103e1c:	44f5b08e 	lw	s0,-2748(s5)
80103e20:	80004234 	ori	v0,v0,0x80
80103e24:	040017ae 	sw	s7,4(s0)
80103e28:	100002ae 	sw	v0,16(s0)
80103e2c:	0a0000a6 	sh	zero,10(s0)
80103e30:	04009616 	bne	s4,s6,0x80103e44
80103e34:	0d0000a2 	sb	zero,13(s0)
80103e38:	2000a897 	lhu	t0,32(sp)
80103e3c:	7b330408 	j	0x8010cdec
80103e40:	0e0008a6 	sh	t0,14(s0)
80103e44:	1c00a897 	lhu	t0,28(sp)
80103e48:	00000000 	nop
80103e4c:	0e0008a6 	sh	t0,14(s0)
80103e50:	0c00d617 	bne	s8,s6,0x80103e84
80103e54:	00000000 	nop
80103e58:	07006016 	bnez	s3,0x80103e78
80103e5c:	c0ff2226 	addiu	v0,s1,-64
80103e60:	40000224 	li	v0,64
80103e64:	0c0002a2 	sb	v0,12(s0)
80103e68:	40000224 	li	v0,64
80103e6c:	100002a6 	sh	v0,16(s0)
80103e70:	8a330408 	j	0x8010ce28
80103e74:	080000a6 	sh	zero,8(s0)
80103e78:	0c0000a2 	sb	zero,12(s0)
80103e7c:	8a330408 	j	0x8010ce28
80103e80:	080002a6 	sh	v0,8(s0)
80103e84:	0c0000a2 	sb	zero,12(s0)
80103e88:	080011a6 	sh	s1,8(s0)
80103e8c:	300f020c 	jal	0x80083cc0
80103e90:	21200002 	move	a0,s0
80103e94:	04008016 	bnez	s4,0x80103ea8
80103e98:	21280000 	move	a1,zero
80103e9c:	21200002 	move	a0,s0
80103ea0:	92330408 	j	0x8010ce48
80103ea4:	01000524 	li	a1,1
80103ea8:	21200002 	move	a0,s0
80103eac:	1c0f020c 	jal	0x80083c70
80103eb0:	00000000 	nop
80103eb4:	21280002 	move	a1,s0
80103eb8:	0f80083c 	lui	t0,0x800f
80103ebc:	c8d8048d 	lw	a0,-10040(t0)
80103ec0:	14001026 	addiu	s0,s0,20
80103ec4:	0c0f020c 	jal	0x80083c30
80103ec8:	10008424 	addiu	a0,a0,16
80103ecc:	0300d617 	bne	s8,s6,0x80103edc
80103ed0:	44f5b0ae 	sw	s0,-2748(s5)
80103ed4:	9f330408 	j	0x8010ce7c
80103ed8:	c0024726 	addiu	a3,s2,704
80103edc:	40024726 	addiu	a3,s2,576
80103ee0:	01000524 	li	a1,1
80103ee4:	40005226 	addiu	s2,s2,64
80103ee8:	80003126 	addiu	s1,s1,128
80103eec:	21986502 	addu	s3,s3,a1
80103ef0:	ff03e730 	andi	a3,a3,0x3ff
80103ef4:	83390700 	sra	a3,a3,0x6
80103ef8:	2130a000 	move	a2,a1
80103efc:	44f5b08e 	lw	s0,-2748(s5)
80103f00:	a000e734 	ori	a3,a3,0xa0
80103f04:	1000a0af 	sw	zero,16(sp)
80103f08:	780f020c 	jal	0x80083de0
80103f0c:	21200002 	move	a0,s0
80103f10:	21280002 	move	a1,s0
80103f14:	0f80083c 	lui	t0,0x800f
80103f18:	c8d8048d 	lw	a0,-10040(t0)
80103f1c:	0c001026 	addiu	s0,s0,12
80103f20:	0c0f020c 	jal	0x80083c30
80103f24:	10008424 	addiu	a0,a0,16
80103f28:	0300622a 	slti	v0,s3,3
80103f2c:	baff4014 	bnez	v0,0x80103e18
80103f30:	44f5b0ae 	sw	s0,-2748(s5)
80103f34:	01009426 	addiu	s4,s4,1
80103f38:	0200822a 	slti	v0,s4,2
80103f3c:	a6ff4014 	bnez	v0,0x80103dd8
80103f40:	0c80113c 	lui	s1,0x800c
80103f44:	44f5308e 	lw	s0,-2748(s1)
80103f48:	01000524 	li	a1,1
80103f4c:	6c0f020c 	jal	0x80083db0
80103f50:	21200002 	move	a0,s0
80103f54:	ff00043c 	lui	a0,0xff
80103f58:	ffff8434 	ori	a0,a0,0xffff
80103f5c:	0f80023c 	lui	v0,0x800f
80103f60:	00ff063c 	lui	a2,0xff00
80103f64:	c8d8458c 	lw	a1,-10040(v0)
80103f68:	0000038e 	lw	v1,0(s0)
80103f6c:	fc1fa28c 	lw	v0,8188(a1)
80103f70:	24186600 	and	v1,v1,a2
80103f74:	24104400 	and	v0,v0,a0
80103f78:	25186200 	or	v1,v1,v0
80103f7c:	24200402 	and	a0,s0,a0
80103f80:	000003ae 	sw	v1,0(s0)
80103f84:	fc1fa28c 	lw	v0,8188(a1)
80103f88:	0c001026 	addiu	s0,s0,12
80103f8c:	44f530ae 	sw	s0,-2748(s1)
80103f90:	24104600 	and	v0,v0,a2
80103f94:	25104400 	or	v0,v0,a0
80103f98:	fc1fa2ac 	sw	v0,8188(a1)
80103f9c:	1800a28f 	lw	v0,24(sp)
80103fa0:	4c00bf8f 	lw	ra,76(sp)
80103fa4:	4800be8f 	lw	s8,72(sp)
80103fa8:	4400b78f 	lw	s7,68(sp)
80103fac:	4000b68f 	lw	s6,64(sp)
80103fb0:	3c00b58f 	lw	s5,60(sp)
80103fb4:	3800b48f 	lw	s4,56(sp)
80103fb8:	3400b38f 	lw	s3,52(sp)
80103fbc:	3000b28f 	lw	s2,48(sp)
80103fc0:	2c00b18f 	lw	s1,44(sp)
80103fc4:	2800b08f 	lw	s0,40(sp)
80103fc8:	0800e003 	jr	ra
80103fcc:	5000bd27 	addiu	sp,sp,80
80103fd0:	e8ffbd27 	addiu	sp,sp,-24
80103fd4:	21308000 	move	a2,a0
80103fd8:	1000bfaf 	sw	ra,16(sp)
80103fdc:	0400c390 	lbu	v1,4(a2)
80103fe0:	01000424 	li	a0,1
80103fe4:	0e006410 	beq	v1,a0,0x80104020
80103fe8:	02006228 	slti	v0,v1,2
80103fec:	05004010 	beqz	v0,0x80104004
80103ff0:	00000000 	nop
80103ff4:	08006010 	beqz	v1,0x80104018
80103ff8:	00000000 	nop
80103ffc:	08340408 	j	0x8010d020
80104000:	00000000 	nop
80104004:	04006228 	slti	v0,v1,4
80104008:	1e004010 	beqz	v0,0x80104084
8010400c:	00000000 	nop
80104010:	06340408 	j	0x8010d018
80104014:	00000000 	nop
80104018:	5000c0ac 	sw	zero,80(a2)
8010401c:	0400c4a0 	sb	a0,4(a2)
80104020:	801f023c 	lui	v0,0x1f80
80104024:	801f033c 	lui	v1,0x1f80
80104028:	801f043c 	lui	a0,0x1f80
8010402c:	60014594 	lhu	a1,352(v0)
80104030:	62016394 	lhu	v1,354(v1)
80104034:	5000c28c 	lw	v0,80(a2)
80104038:	64018494 	lhu	a0,356(a0)
8010403c:	f6ff4224 	addiu	v0,v0,-10
80104040:	5000c2ac 	sw	v0,80(a2)
80104044:	0c80023c 	lui	v0,0x800c
80104048:	2c00c5a4 	sh	a1,44(a2)
8010404c:	2e00c3a4 	sh	v1,46(a2)
80104050:	3000c4a4 	sh	a0,48(a2)
80104054:	55fa4290 	lbu	v0,-1451(v0)
80104058:	00000000 	nop
8010405c:	0400422c 	sltiu	v0,v0,4
80104060:	03004010 	beqz	v0,0x80104070
80104064:	01000224 	li	v0,1
80104068:	08340408 	j	0x8010d020
8010406c:	0100c2a0 	sb	v0,1(a2)
80104070:	03000224 	li	v0,3
80104074:	08340408 	j	0x8010d020
80104078:	0400c2a0 	sb	v0,4(a2)
8010407c:	89e9010c 	jal	0x8007a624
80104080:	2120c000 	move	a0,a2
80104084:	1000bf8f 	lw	ra,16(sp)
80104088:	00000000 	nop
8010408c:	0800e003 	jr	ra
80104090:	1800bd27 	addiu	sp,sp,24
80104094:	1280023c 	lui	v0,0x8012
80104098:	c4a640ac 	sw	zero,-22844(v0)
8010409c:	1280023c 	lui	v0,0x8012
801040a0:	1280033c 	lui	v1,0x8012
801040a4:	c8a640ac 	sw	zero,-22840(v0)
801040a8:	00ff0224 	li	v0,-256
801040ac:	cca662ac 	sw	v0,-22836(v1)
801040b0:	1280023c 	lui	v0,0x8012
801040b4:	0800e003 	jr	ra
801040b8:	d0a640ac 	sw	zero,-22832(v0)
801040bc:	d8ffbd27 	addiu	sp,sp,-40
801040c0:	2000b2af 	sw	s2,32(sp)
801040c4:	0c80123c 	lui	s2,0x800c
801040c8:	1800b0af 	sw	s0,24(sp)
801040cc:	44f5508e 	lw	s0,-2748(s2)
801040d0:	3800a28f 	lw	v0,56(sp)
801040d4:	1c00b1af 	sw	s1,28(sp)
801040d8:	21888000 	move	s1,a0
801040dc:	2400bfaf 	sw	ra,36(sp)
801040e0:	21200002 	move	a0,s0
801040e4:	780f020c 	jal	0x80083de0
801040e8:	1000a2af 	sw	v0,16(sp)
801040ec:	21280002 	move	a1,s0
801040f0:	0f80023c 	lui	v0,0x800f
801040f4:	c8d8448c 	lw	a0,-10040(v0)
801040f8:	80881100 	sll	s1,s1,0x2
801040fc:	0c0f020c 	jal	0x80083c30
80104100:	21209100 	addu	a0,a0,s1
80104104:	2400bf8f 	lw	ra,36(sp)
80104108:	0c001026 	addiu	s0,s0,12
8010410c:	44f550ae 	sw	s0,-2748(s2)
80104110:	2000b28f 	lw	s2,32(sp)
80104114:	1c00b18f 	lw	s1,28(sp)
80104118:	1800b08f 	lw	s0,24(sp)
8010411c:	0800e003 	jr	ra
80104120:	2800bd27 	addiu	sp,sp,40
80104124:	d8ffbd27 	addiu	sp,sp,-40
80104128:	2000b0af 	sw	s0,32(sp)
8010412c:	21808000 	move	s0,a0
80104130:	2400bfaf 	sw	ra,36(sp)
80104134:	07000392 	lbu	v1,7(s0)
80104138:	00000000 	nop
8010413c:	0500622c 	sltiu	v0,v1,5
80104140:	53004010 	beqz	v0,0x80104290
80104144:	1180023c 	lui	v0,0x8011
80104148:	78904224 	addiu	v0,v0,-28552
8010414c:	80180300 	sll	v1,v1,0x2
80104150:	21186200 	addu	v1,v1,v0
80104154:	0000628c 	lw	v0,0(v1)
80104158:	00000000 	nop
8010415c:	08004000 	jr	v0
80104160:	00000000 	nop
80104164:	07000292 	lbu	v0,7(s0)
80104168:	40010324 	li	v1,320
8010416c:	89340408 	j	0x8010d224
80104170:	600003a6 	sh	v1,96(s0)
80104174:	60000286 	lh	v0,96(s0)
80104178:	60000396 	lhu	v1,96(s0)
8010417c:	08ff4224 	addiu	v0,v0,-248
80104180:	83100200 	sra	v0,v0,0x2
80104184:	21204000 	move	a0,v0
80104188:	02004228 	slti	v0,v0,2
8010418c:	03004010 	beqz	v0,0x8010419c
80104190:	23106400 	subu	v0,v1,a0
80104194:	02000424 	li	a0,2
80104198:	23106400 	subu	v0,v1,a0
8010419c:	600002a6 	sh	v0,96(s0)
801041a0:	00140200 	sll	v0,v0,0x10
801041a4:	03140200 	sra	v0,v0,0x10
801041a8:	f9004228 	slti	v0,v0,249
801041ac:	07004010 	beqz	v0,0x801041cc
801041b0:	f8000224 	li	v0,248
801041b4:	600002a6 	sh	v0,96(s0)
801041b8:	07000292 	lbu	v0,7(s0)
801041bc:	7f000324 	li	v1,127
801041c0:	620003a6 	sh	v1,98(s0)
801041c4:	01004224 	addiu	v0,v0,1
801041c8:	070002a2 	sb	v0,7(s0)
801041cc:	1800a427 	addiu	a0,sp,24
801041d0:	1000a727 	addiu	a3,sp,16
801041d4:	1280023c 	lui	v0,0x8012
801041d8:	d4a6458c 	lw	a1,-22828(v0)
801041dc:	0f80023c 	lui	v0,0x800f
801041e0:	80cf468c 	lw	a2,-12416(v0)
801041e4:	60000396 	lhu	v1,96(s0)
801041e8:	7f000224 	li	v0,127
801041ec:	1000a2a3 	sb	v0,16(sp)
801041f0:	b8000224 	li	v0,184
801041f4:	1100a0a3 	sb	zero,17(sp)
801041f8:	1200a0a7 	sh	zero,18(sp)
801041fc:	1e00a0a7 	sh	zero,30(sp)
80104200:	1c00a0a7 	sh	zero,28(sp)
80104204:	1a00a2a7 	sh	v0,26(sp)
80104208:	b7f9010c 	jal	0x8007e6dc
8010420c:	1800a3a7 	sh	v1,24(sp)
80104210:	8b340408 	j	0x8010d22c
80104214:	00000000 	nop
80104218:	1800a427 	addiu	a0,sp,24
8010421c:	1280023c 	lui	v0,0x8012
80104220:	d4a6458c 	lw	a1,-22828(v0)
80104224:	0f80023c 	lui	v0,0x800f
80104228:	1000a727 	addiu	a3,sp,16
8010422c:	80cf468c 	lw	a2,-12416(v0)
80104230:	60000896 	lhu	t0,96(s0)
80104234:	62000392 	lbu	v1,98(s0)
80104238:	b8000224 	li	v0,184
8010423c:	1100a0a3 	sb	zero,17(sp)
80104240:	1200a0a7 	sh	zero,18(sp)
80104244:	1e00a0a7 	sh	zero,30(sp)
80104248:	1c00a0a7 	sh	zero,28(sp)
8010424c:	1a00a2a7 	sh	v0,26(sp)
80104250:	1000a3a3 	sb	v1,16(sp)
80104254:	b7f9010c 	jal	0x8007e6dc
80104258:	1800a8a7 	sh	t0,24(sp)
8010425c:	62000296 	lhu	v0,98(s0)
80104260:	00000000 	nop
80104264:	f8ff4224 	addiu	v0,v0,-8
80104268:	620002a6 	sh	v0,98(s0)
8010426c:	00140200 	sll	v0,v0,0x10
80104270:	03140200 	sra	v0,v0,0x10
80104274:	10004228 	slti	v0,v0,16
80104278:	05004010 	beqz	v0,0x80104290
8010427c:	00000000 	nop
80104280:	07000292 	lbu	v0,7(s0)
80104284:	620000a6 	sh	zero,98(s0)
80104288:	01004224 	addiu	v0,v0,1
8010428c:	070002a2 	sb	v0,7(s0)
80104290:	2400bf8f 	lw	ra,36(sp)
80104294:	2000b08f 	lw	s0,32(sp)
80104298:	0800e003 	jr	ra
8010429c:	2800bd27 	addiu	sp,sp,40
801042a0:	e8ffbd27 	addiu	sp,sp,-24
801042a4:	1000b0af 	sw	s0,16(sp)
801042a8:	21808000 	move	s0,a0
801042ac:	1400bfaf 	sw	ra,20(sp)
801042b0:	04000392 	lbu	v1,4(s0)
801042b4:	01000224 	li	v0,1
801042b8:	37006210 	beq	v1,v0,0x80104398
801042bc:	02006228 	slti	v0,v1,2
801042c0:	05004010 	beqz	v0,0x801042d8
801042c4:	00000000 	nop
801042c8:	0a006010 	beqz	v1,0x801042f4
801042cc:	0c80023c 	lui	v0,0x800c
801042d0:	14350408 	j	0x8010d450
801042d4:	00000000 	nop
801042d8:	02000224 	li	v0,2
801042dc:	75006210 	beq	v1,v0,0x801044b4
801042e0:	03000224 	li	v0,3
801042e4:	71006210 	beq	v1,v0,0x801044ac
801042e8:	00000000 	nop
801042ec:	14350408 	j	0x8010d450
801042f0:	00000000 	nop
801042f4:	70f84224 	addiu	v0,v0,-1936
801042f8:	0c80033c 	lui	v1,0x800c
801042fc:	7b0140a0 	sb	zero,379(v0)
80104300:	e60140a0 	sb	zero,486(v0)
80104304:	e70140a0 	sb	zero,487(v0)
80104308:	54f860ac 	sw	zero,-1964(v1)
8010430c:	01004390 	lbu	v1,1(v0)
80104310:	04000224 	li	v0,4
80104314:	10006210 	beq	v1,v0,0x80104358
80104318:	05006228 	slti	v0,v1,5
8010431c:	05004010 	beqz	v0,0x80104334
80104320:	02000224 	li	v0,2
80104324:	08006210 	beq	v1,v0,0x80104348
80104328:	21200002 	move	a0,s0
8010432c:	c7340408 	j	0x8010d31c
80104330:	00000000 	nop
80104334:	05000224 	li	v0,5
80104338:	0c006210 	beq	v1,v0,0x8010436c
8010433c:	21200002 	move	a0,s0
80104340:	c7340408 	j	0x8010d31c
80104344:	00000000 	nop
80104348:	21280000 	move	a1,zero
8010434c:	1180063c 	lui	a2,0x8011
80104350:	c5340408 	j	0x8010d314
80104354:	ac58c624 	addiu	a2,a2,22700
80104358:	21200002 	move	a0,s0
8010435c:	21280000 	move	a1,zero
80104360:	1180063c 	lui	a2,0x8011
80104364:	c5340408 	j	0x8010d314
80104368:	f459c624 	addiu	a2,a2,23028
8010436c:	21280000 	move	a1,zero
80104370:	1180063c 	lui	a2,0x8011
80104374:	145ac624 	addiu	a2,a2,23060
80104378:	3703010c 	jal	0x80040cdc
8010437c:	00000000 	nop
80104380:	04000292 	lbu	v0,4(s0)
80104384:	02000324 	li	v1,2
80104388:	700003a2 	sb	v1,112(s0)
8010438c:	01004224 	addiu	v0,v0,1
80104390:	14350408 	j	0x8010d450
80104394:	040002a2 	sb	v0,4(s0)
80104398:	0c80023c 	lui	v0,0x800c
8010439c:	71f84390 	lbu	v1,-1935(v0)
801043a0:	04000224 	li	v0,4
801043a4:	23006210 	beq	v1,v0,0x80104434
801043a8:	05006228 	slti	v0,v1,5
801043ac:	05004010 	beqz	v0,0x801043c4
801043b0:	02000224 	li	v0,2
801043b4:	08006210 	beq	v1,v0,0x801043d8
801043b8:	0c80033c 	lui	v1,0x800c
801043bc:	0d350408 	j	0x8010d434
801043c0:	08f86324 	addiu	v1,v1,-2040
801043c4:	05000224 	li	v0,5
801043c8:	29006210 	beq	v1,v0,0x80104470
801043cc:	0c80033c 	lui	v1,0x800c
801043d0:	0d350408 	j	0x8010d434
801043d4:	08f86324 	addiu	v1,v1,-2040
801043d8:	05000292 	lbu	v0,5(s0)
801043dc:	00000000 	nop
801043e0:	10004014 	bnez	v0,0x80104424
801043e4:	00000000 	nop
801043e8:	2604010c 	jal	0x80041098
801043ec:	21200002 	move	a0,s0
801043f0:	70000392 	lbu	v1,112(s0)
801043f4:	ff000224 	li	v0,255
801043f8:	0a006214 	bne	v1,v0,0x80104424
801043fc:	0c80023c 	lui	v0,0x800c
80104400:	08f84224 	addiu	v0,v0,-2040
80104404:	03000324 	li	v1,3
80104408:	310043a0 	sb	v1,49(v0)
8010440c:	03150324 	li	v1,5379
80104410:	320043a4 	sh	v1,50(v0)
80104414:	05000292 	lbu	v0,5(s0)
80104418:	00000000 	nop
8010441c:	01004224 	addiu	v0,v0,1
80104420:	050002a2 	sb	v0,5(s0)
80104424:	3034040c 	jal	0x8010d0c0
80104428:	21200002 	move	a0,s0
8010442c:	0c350408 	j	0x8010d430
80104430:	0c80033c 	lui	v1,0x800c
80104434:	2604010c 	jal	0x80041098
80104438:	21200002 	move	a0,s0
8010443c:	70000392 	lbu	v1,112(s0)
80104440:	ff000224 	li	v0,255
80104444:	13006214 	bne	v1,v0,0x80104494
80104448:	0c80033c 	lui	v1,0x800c
8010444c:	08f86324 	addiu	v1,v1,-2040
80104450:	02000224 	li	v0,2
80104454:	03000424 	li	a0,3
80104458:	070062a0 	sb	v0,7(v1)
8010445c:	05150224 	li	v0,5381
80104460:	310064a0 	sb	a0,49(v1)
80104464:	320062a4 	sh	v0,50(v1)
80104468:	0b350408 	j	0x8010d42c
8010446c:	040004a2 	sb	a0,4(s0)
80104470:	2604010c 	jal	0x80041098
80104474:	21200002 	move	a0,s0
80104478:	70000392 	lbu	v1,112(s0)
8010447c:	ff000224 	li	v0,255
80104480:	04006214 	bne	v1,v0,0x80104494
80104484:	0c80033c 	lui	v1,0x800c
80104488:	03000224 	li	v0,3
8010448c:	040002a2 	sb	v0,4(s0)
80104490:	0c80033c 	lui	v1,0x800c
80104494:	08f86324 	addiu	v1,v1,-2040
80104498:	4c00628c 	lw	v0,76(v1)
8010449c:	00000000 	nop
801044a0:	01004224 	addiu	v0,v0,1
801044a4:	14350408 	j	0x8010d450
801044a8:	4c0062ac 	sw	v0,76(v1)
801044ac:	89e9010c 	jal	0x8007a624
801044b0:	21200002 	move	a0,s0
801044b4:	1400bf8f 	lw	ra,20(sp)
801044b8:	1000b08f 	lw	s0,16(sp)
801044bc:	0800e003 	jr	ra
801044c0:	1800bd27 	addiu	sp,sp,24
801044c4:	72008390 	lbu	v1,114(a0)
801044c8:	0c80023c 	lui	v0,0x800c
801044cc:	41f843a0 	sb	v1,-1983(v0)
801044d0:	0800e003 	jr	ra
801044d4:	01000224 	li	v0,1
801044d8:	07008290 	lbu	v0,7(a0)
801044dc:	72008390 	lbu	v1,114(a0)
801044e0:	00000000 	nop
801044e4:	21104300 	addu	v0,v0,v1
801044e8:	070082a0 	sb	v0,7(a0)
801044ec:	0800e003 	jr	ra
801044f0:	01000224 	li	v0,1
801044f4:	e8ffbd27 	addiu	sp,sp,-24
801044f8:	1000b0af 	sw	s0,16(sp)
801044fc:	21808000 	move	s0,a0
80104500:	1400bfaf 	sw	ra,20(sp)
80104504:	05000292 	lbu	v0,5(s0)
80104508:	00000000 	nop
8010450c:	10004014 	bnez	v0,0x80104550
80104510:	00000000 	nop
80104514:	2604010c 	jal	0x80041098
80104518:	00000000 	nop
8010451c:	70000392 	lbu	v1,112(s0)
80104520:	ff000224 	li	v0,255
80104524:	0a006214 	bne	v1,v0,0x80104550
80104528:	0c80023c 	lui	v0,0x800c
8010452c:	08f84224 	addiu	v0,v0,-2040
80104530:	03000324 	li	v1,3
80104534:	310043a0 	sb	v1,49(v0)
80104538:	03150324 	li	v1,5379
8010453c:	320043a4 	sh	v1,50(v0)
80104540:	05000292 	lbu	v0,5(s0)
80104544:	00000000 	nop
80104548:	01004224 	addiu	v0,v0,1
8010454c:	050002a2 	sb	v0,5(s0)
80104550:	3034040c 	jal	0x8010d0c0
80104554:	21200002 	move	a0,s0
80104558:	1400bf8f 	lw	ra,20(sp)
8010455c:	1000b08f 	lw	s0,16(sp)
80104560:	0800e003 	jr	ra
80104564:	1800bd27 	addiu	sp,sp,24
80104568:	e8ffbd27 	addiu	sp,sp,-24
8010456c:	1000b0af 	sw	s0,16(sp)
80104570:	1400bfaf 	sw	ra,20(sp)
80104574:	2604010c 	jal	0x80041098
80104578:	21808000 	move	s0,a0
8010457c:	70000392 	lbu	v1,112(s0)
80104580:	ff000224 	li	v0,255
80104584:	09006214 	bne	v1,v0,0x801045ac
80104588:	0c80033c 	lui	v1,0x800c
8010458c:	08f86324 	addiu	v1,v1,-2040
80104590:	02000224 	li	v0,2
80104594:	03000424 	li	a0,3
80104598:	070062a0 	sb	v0,7(v1)
8010459c:	05150224 	li	v0,5381
801045a0:	310064a0 	sb	a0,49(v1)
801045a4:	320062a4 	sh	v0,50(v1)
801045a8:	040004a2 	sb	a0,4(s0)
801045ac:	1400bf8f 	lw	ra,20(sp)
801045b0:	1000b08f 	lw	s0,16(sp)
801045b4:	0800e003 	jr	ra
801045b8:	1800bd27 	addiu	sp,sp,24
801045bc:	e8ffbd27 	addiu	sp,sp,-24
801045c0:	1000b0af 	sw	s0,16(sp)
801045c4:	1400bfaf 	sw	ra,20(sp)
801045c8:	2604010c 	jal	0x80041098
801045cc:	21808000 	move	s0,a0
801045d0:	70000392 	lbu	v1,112(s0)
801045d4:	ff000224 	li	v0,255
801045d8:	02006214 	bne	v1,v0,0x801045e4
801045dc:	03000224 	li	v0,3
801045e0:	040002a2 	sb	v0,4(s0)
801045e4:	1400bf8f 	lw	ra,20(sp)
801045e8:	1000b08f 	lw	s0,16(sp)
801045ec:	0800e003 	jr	ra
801045f0:	1800bd27 	addiu	sp,sp,24
801045f4:	e8ffbd27 	addiu	sp,sp,-24
801045f8:	1000bfaf 	sw	ra,16(sp)
801045fc:	04008390 	lbu	v1,4(a0)
80104600:	01000524 	li	a1,1
80104604:	20006510 	beq	v1,a1,0x80104688
80104608:	60008724 	addiu	a3,a0,96
8010460c:	02006228 	slti	v0,v1,2
80104610:	05004010 	beqz	v0,0x80104628
80104614:	00000000 	nop
80104618:	08006010 	beqz	v1,0x8010463c
8010461c:	20000224 	li	v0,32
80104620:	38360408 	j	0x8010d8e0
80104624:	00000000 	nop
80104628:	04006228 	slti	v0,v1,4
8010462c:	c5004010 	beqz	v0,0x80104944
80104630:	00000000 	nop
80104634:	36360408 	j	0x8010d8d8
80104638:	00000000 	nop
8010463c:	0b0082a0 	sb	v0,11(a0)
80104640:	1180023c 	lui	v0,0x8011
80104644:	d8c14224 	addiu	v0,v0,-15912
80104648:	180082ac 	sw	v0,24(a0)
8010464c:	46000224 	li	v0,70
80104650:	800082a4 	sh	v0,128(a0)
80104654:	8c000224 	li	v0,140
80104658:	820082a4 	sh	v0,130(a0)
8010465c:	02000224 	li	v0,2
80104660:	000082a0 	sb	v0,0(a0)
80104664:	00010224 	li	v0,256
80104668:	040085a0 	sb	a1,4(a0)
8010466c:	050080a0 	sb	zero,5(a0)
80104670:	060080a0 	sb	zero,6(a0)
80104674:	070080a0 	sb	zero,7(a0)
80104678:	400080a4 	sh	zero,64(a0)
8010467c:	420082a4 	sh	v0,66(a0)
80104680:	290080a0 	sb	zero,41(a0)
80104684:	440080a4 	sh	zero,68(a0)
80104688:	40008394 	lhu	v1,64(a0)
8010468c:	00000000 	nop
80104690:	00016224 	addiu	v0,v1,256
80104694:	400082a4 	sh	v0,64(a0)
80104698:	00140200 	sll	v0,v0,0x10
8010469c:	03140200 	sra	v0,v0,0x10
801046a0:	00064228 	slti	v0,v0,1536
801046a4:	02004014 	bnez	v0,0x801046b0
801046a8:	00fb6224 	addiu	v0,v1,-1280
801046ac:	400082a4 	sh	v0,64(a0)
801046b0:	42008384 	lh	v1,66(a0)
801046b4:	00000000 	nop
801046b8:	40100300 	sll	v0,v1,0x1
801046bc:	21104300 	addu	v0,v0,v1
801046c0:	c0300200 	sll	a2,v0,0x3
801046c4:	80100200 	sll	v0,v0,0x2
801046c8:	23104300 	subu	v0,v0,v1
801046cc:	0200c104 	bgez	a2,0x801046d8
801046d0:	80290200 	sll	a1,v0,0x6
801046d4:	1f00c624 	addiu	a2,a2,31
801046d8:	43110600 	sra	v0,a2,0x5
801046dc:	0c00e2a4 	sh	v0,12(a3)
801046e0:	0800e2a4 	sh	v0,8(a3)
801046e4:	00140200 	sll	v0,v0,0x10
801046e8:	03140200 	sra	v0,v0,0x10
801046ec:	00104228 	slti	v0,v0,4096
801046f0:	03004010 	beqz	v0,0x80104700
801046f4:	00100224 	li	v0,4096
801046f8:	0c00e2a4 	sh	v0,12(a3)
801046fc:	0800e2a4 	sh	v0,8(a3)
80104700:	03008390 	lbu	v1,3(a0)
80104704:	00000000 	nop
80104708:	0800622c 	sltiu	v0,v1,8
8010470c:	2e004010 	beqz	v0,0x801047c8
80104710:	1180023c 	lui	v0,0x8011
80104714:	8c904224 	addiu	v0,v0,-28532
80104718:	80180300 	sll	v1,v1,0x2
8010471c:	21186200 	addu	v1,v1,v0
80104720:	0000628c 	lw	v0,0(v1)
80104724:	00000000 	nop
80104728:	08004000 	jr	v0
8010472c:	00000000 	nop
80104730:	2300a104 	bgez	a1,0x801047c0
80104734:	2110a000 	move	v0,a1
80104738:	d7350408 	j	0x8010d75c
8010473c:	1f00a224 	addiu	v0,a1,31
80104740:	0bb6023c 	lui	v0,0xb60b
80104744:	b7604234 	ori	v0,v0,0x60b7
80104748:	1800a200 	mult	a1,v0
8010474c:	c31f0500 	sra	v1,a1,0x1f
80104750:	10400000 	mfhi	t0
80104754:	21100501 	addu	v0,t0,a1
80104758:	43110200 	sra	v0,v0,0x5
8010475c:	d8350408 	j	0x8010d760
80104760:	23104300 	subu	v0,v0,v1
80104764:	0bb6023c 	lui	v0,0xb60b
80104768:	b7604234 	ori	v0,v0,0x60b7
8010476c:	23180500 	negu	v1,a1
80104770:	18006200 	mult	v1,v0
80104774:	10400000 	mfhi	t0
80104778:	21100301 	addu	v0,t0,v1
8010477c:	43110200 	sra	v0,v0,0x5
80104780:	c31f0300 	sra	v1,v1,0x1f
80104784:	d8350408 	j	0x8010d760
80104788:	23104300 	subu	v0,v0,v1
8010478c:	0bb6023c 	lui	v0,0xb60b
80104790:	b7604234 	ori	v0,v0,0x60b7
80104794:	1800a200 	mult	a1,v0
80104798:	c31f0500 	sra	v1,a1,0x1f
8010479c:	10400000 	mfhi	t0
801047a0:	21100501 	addu	v0,t0,a1
801047a4:	43110200 	sra	v0,v0,0x5
801047a8:	d8350408 	j	0x8010d760
801047ac:	23104300 	subu	v0,v0,v1
801047b0:	2110a000 	move	v0,a1
801047b4:	02004104 	bgez	v0,0x801047c0
801047b8:	00000000 	nop
801047bc:	1f004224 	addiu	v0,v0,31
801047c0:	43110200 	sra	v0,v0,0x5
801047c4:	0a00e2a4 	sh	v0,10(a3)
801047c8:	2e008294 	lhu	v0,46(a0)
801047cc:	00000000 	nop
801047d0:	0000e2a4 	sh	v0,0(a3)
801047d4:	36008294 	lhu	v0,54(a0)
801047d8:	00000000 	nop
801047dc:	0400e2a4 	sh	v0,4(a3)
801047e0:	03008390 	lbu	v1,3(a0)
801047e4:	00000000 	nop
801047e8:	0800622c 	sltiu	v0,v1,8
801047ec:	2c004010 	beqz	v0,0x801048a0
801047f0:	1180023c 	lui	v0,0x8011
801047f4:	ac904224 	addiu	v0,v0,-28500
801047f8:	80180300 	sll	v1,v1,0x2
801047fc:	21186200 	addu	v1,v1,v0
80104800:	0000628c 	lw	v0,0(v1)
80104804:	00000000 	nop
80104808:	08004000 	jr	v0
8010480c:	00000000 	nop
80104810:	42008384 	lh	v1,66(a0)
80104814:	00000000 	nop
80104818:	80110300 	sll	v0,v1,0x6
8010481c:	23104300 	subu	v0,v0,v1
80104820:	08360408 	j	0x8010d820
80104824:	c0180200 	sll	v1,v0,0x3
80104828:	42008384 	lh	v1,66(a0)
8010482c:	00000000 	nop
80104830:	80110300 	sll	v0,v1,0x6
80104834:	23104300 	subu	v0,v0,v1
80104838:	c0180200 	sll	v1,v0,0x3
8010483c:	02006104 	bgez	v1,0x80104848
80104840:	00000000 	nop
80104844:	ff006324 	addiu	v1,v1,255
80104848:	32008294 	lhu	v0,50(a0)
8010484c:	031a0300 	sra	v1,v1,0x8
80104850:	0e360408 	j	0x8010d838
80104854:	21104300 	addu	v0,v0,v1
80104858:	42008384 	lh	v1,66(a0)
8010485c:	00000000 	nop
80104860:	80110300 	sll	v0,v1,0x6
80104864:	23104300 	subu	v0,v0,v1
80104868:	08360408 	j	0x8010d820
8010486c:	c0180200 	sll	v1,v0,0x3
80104870:	42008384 	lh	v1,66(a0)
80104874:	00000000 	nop
80104878:	c0100300 	sll	v0,v1,0x3
8010487c:	23104300 	subu	v0,v0,v1
80104880:	c0190200 	sll	v1,v0,0x7
80104884:	02006104 	bgez	v1,0x80104890
80104888:	00000000 	nop
8010488c:	ff006324 	addiu	v1,v1,255
80104890:	32008294 	lhu	v0,50(a0)
80104894:	031a0300 	sra	v1,v1,0x8
80104898:	23104300 	subu	v0,v0,v1
8010489c:	0200e2a4 	sh	v0,2(a3)
801048a0:	42008284 	lh	v0,66(a0)
801048a4:	00000000 	nop
801048a8:	00110200 	sll	v0,v0,0x4
801048ac:	1000e2a4 	sh	v0,16(a3)
801048b0:	03008390 	lbu	v1,3(a0)
801048b4:	08000224 	li	v0,8
801048b8:	09006210 	beq	v1,v0,0x801048e0
801048bc:	00000000 	nop
801048c0:	32008294 	lhu	v0,50(a0)
801048c4:	0200e394 	lhu	v1,2(a3)
801048c8:	00000000 	nop
801048cc:	23104300 	subu	v0,v0,v1
801048d0:	c8004224 	addiu	v0,v0,200
801048d4:	860082a4 	sh	v0,134(a0)
801048d8:	29360408 	j	0x8010d8a4
801048dc:	840082a4 	sh	v0,132(a0)
801048e0:	32008284 	lh	v0,50(a0)
801048e4:	840080a4 	sh	zero,132(a0)
801048e8:	0200e384 	lh	v1,2(a3)
801048ec:	00000000 	nop
801048f0:	23104300 	subu	v0,v0,v1
801048f4:	02004104 	bgez	v0,0x80104900
801048f8:	00000000 	nop
801048fc:	23100200 	negu	v0,v0
80104900:	c8004224 	addiu	v0,v0,200
80104904:	860082a4 	sh	v0,134(a0)
80104908:	64000224 	li	v0,100
8010490c:	800082a4 	sh	v0,128(a0)
80104910:	c8000224 	li	v0,200
80104914:	820082a4 	sh	v0,130(a0)
80104918:	801f023c 	lui	v0,0x1f80
8010491c:	540080a4 	sh	zero,84(a0)
80104920:	f2004294 	lhu	v0,242(v0)
80104924:	580080a4 	sh	zero,88(a0)
80104928:	23100200 	negu	v0,v0
8010492c:	0fdc010c 	jal	0x8007703c
80104930:	560082a4 	sh	v0,86(a0)
80104934:	38360408 	j	0x8010d8e0
80104938:	00000000 	nop
8010493c:	89e9010c 	jal	0x8007a624
80104940:	00000000 	nop
80104944:	1000bf8f 	lw	ra,16(sp)
80104948:	00000000 	nop
8010494c:	0800e003 	jr	ra
80104950:	1800bd27 	addiu	sp,sp,24
80104954:	e0ffbd27 	addiu	sp,sp,-32
80104958:	1000b0af 	sw	s0,16(sp)
8010495c:	21808000 	move	s0,a0
80104960:	1c00bfaf 	sw	ra,28(sp)
80104964:	1800b2af 	sw	s2,24(sp)
80104968:	1400b1af 	sw	s1,20(sp)
8010496c:	04001192 	lbu	s1,4(s0)
80104970:	01001224 	li	s2,1
80104974:	42003212 	beq	s1,s2,0x80104a80
80104978:	0200222a 	slti	v0,s1,2
8010497c:	05004010 	beqz	v0,0x80104994
80104980:	00000000 	nop
80104984:	0a002012 	beqz	s1,0x801049b0
80104988:	21200002 	move	a0,s0
8010498c:	cb360408 	j	0x8010db2c
80104990:	00000000 	nop
80104994:	02000224 	li	v0,2
80104998:	7d002212 	beq	s1,v0,0x80104b90
8010499c:	03000224 	li	v0,3
801049a0:	79002212 	beq	s1,v0,0x80104b88
801049a4:	00000000 	nop
801049a8:	cb360408 	j	0x8010db2c
801049ac:	00000000 	nop
801049b0:	0c000524 	li	a1,12
801049b4:	0f80023c 	lui	v0,0x800f
801049b8:	58cf5124 	addiu	s1,v0,-12456
801049bc:	4800268e 	lw	a2,72(s1)
801049c0:	0a80073c 	lui	a3,0x800a
801049c4:	7846010c 	jal	0x800519e0
801049c8:	c84be724 	addiu	a3,a3,19400
801049cc:	70004014 	bnez	v0,0x80104b90
801049d0:	1180033c 	lui	v1,0x8011
801049d4:	0c80053c 	lui	a1,0x800c
801049d8:	70f8a524 	addiu	a1,a1,-1936
801049dc:	4c00228e 	lw	v0,76(s1)
801049e0:	b45c6324 	addiu	v1,v1,23732
801049e4:	3c0002ae 	sw	v0,60(s0)
801049e8:	0100a290 	lbu	v0,1(a1)
801049ec:	21200002 	move	a0,s0
801049f0:	40100200 	sll	v0,v0,0x1
801049f4:	21104300 	addu	v0,v0,v1
801049f8:	1180033c 	lui	v1,0x8011
801049fc:	00004294 	lhu	v0,0(v0)
80104a00:	9c5c6324 	addiu	v1,v1,23708
80104a04:	560002a6 	sh	v0,86(s0)
80104a08:	0100a290 	lbu	v0,1(a1)
80104a0c:	1280053c 	lui	a1,0x8012
80104a10:	80100200 	sll	v0,v0,0x2
80104a14:	21104300 	addu	v0,v0,v1
80104a18:	0000468c 	lw	a2,0(v0)
80104a1c:	3703010c 	jal	0x80040cdc
80104a20:	54b1a524 	addiu	a1,a1,-20140
80104a24:	21200002 	move	a0,s0
80104a28:	21280000 	move	a1,zero
80104a2c:	c605010c 	jal	0x80041718
80104a30:	2130a000 	move	a2,a1
80104a34:	04000392 	lbu	v1,4(s0)
80104a38:	8c000224 	li	v0,140
80104a3c:	800002a6 	sh	v0,128(s0)
80104a40:	18010224 	li	v0,280
80104a44:	820002a6 	sh	v0,130(s0)
80104a48:	88000224 	li	v0,136
80104a4c:	840002a6 	sh	v0,132(s0)
80104a50:	10010224 	li	v0,272
80104a54:	860002a6 	sh	v0,134(s0)
80104a58:	000c0224 	li	v0,3072
80104a5c:	700012a2 	sb	s2,112(s0)
80104a60:	b80002a6 	sh	v0,184(s0)
80104a64:	ba0002a6 	sh	v0,186(s0)
80104a68:	bc0002a6 	sh	v0,188(s0)
80104a6c:	500000a6 	sh	zero,80(s0)
80104a70:	600000a6 	sh	zero,96(s0)
80104a74:	01006324 	addiu	v1,v1,1
80104a78:	cb360408 	j	0x8010db2c
80104a7c:	040003a2 	sb	v1,4(s0)
80104a80:	21200002 	move	a0,s0
80104a84:	9fdf010c 	jal	0x80077e7c
80104a88:	010011a2 	sb	s1,1(s0)
80104a8c:	2604010c 	jal	0x80041098
80104a90:	21200002 	move	a0,s0
80104a94:	0c80023c 	lui	v0,0x800c
80104a98:	41f84290 	lbu	v0,-1983(v0)
80104a9c:	00000000 	nop
80104aa0:	0f004014 	bnez	v0,0x80104ae0
80104aa4:	0c80023c 	lui	v0,0x800c
80104aa8:	50000296 	lhu	v0,80(s0)
80104aac:	00000000 	nop
80104ab0:	40004224 	addiu	v0,v0,64
80104ab4:	00240200 	sll	a0,v0,0x10
80104ab8:	03240400 	sra	a0,a0,0x10
80104abc:	a00f020c 	jal	0x80083e80
80104ac0:	500002a6 	sh	v0,80(s0)
80104ac4:	21200002 	move	a0,s0
80104ac8:	3000038e 	lw	v1,48(s0)
80104acc:	40110200 	sll	v0,v0,0x5
80104ad0:	21186200 	addu	v1,v1,v0
80104ad4:	4306010c 	jal	0x8004190c
80104ad8:	300003ae 	sw	v1,48(s0)
80104adc:	0c80023c 	lui	v0,0x800c
80104ae0:	71f84390 	lbu	v1,-1935(v0)
80104ae4:	04000224 	li	v0,4
80104ae8:	07006210 	beq	v1,v0,0x80104b08
80104aec:	05006228 	slti	v0,v1,5
80104af0:	21004014 	bnez	v0,0x80104b78
80104af4:	05000224 	li	v0,5
80104af8:	15006210 	beq	v1,v0,0x80104b50
80104afc:	801f023c 	lui	v0,0x1f80
80104b00:	c5360408 	j	0x8010db14
80104b04:	00000000 	nop
80104b08:	05000292 	lbu	v0,5(s0)
80104b0c:	00000000 	nop
80104b10:	19005114 	bne	v0,s1,0x80104b78
80104b14:	00000000 	nop
80104b18:	32000296 	lhu	v0,50(s0)
80104b1c:	00000000 	nop
80104b20:	f8ff4224 	addiu	v0,v0,-8
80104b24:	320002a6 	sh	v0,50(s0)
80104b28:	00140200 	sll	v0,v0,0x10
80104b2c:	03140200 	sra	v0,v0,0x10
80104b30:	cdf74228 	slti	v0,v0,-2099
80104b34:	10004010 	beqz	v0,0x80104b78
80104b38:	00000000 	nop
80104b3c:	05000292 	lbu	v0,5(s0)
80104b40:	00000000 	nop
80104b44:	01004224 	addiu	v0,v0,1
80104b48:	c5360408 	j	0x8010db14
80104b4c:	050002a2 	sb	v0,5(s0)
80104b50:	801f033c 	lui	v1,0x1f80
80104b54:	36000686 	lh	a2,54(s0)
80104b58:	64014484 	lh	a0,356(v0)
80104b5c:	60016284 	lh	v0,352(v1)
80104b60:	2e000586 	lh	a1,46(s0)
80104b64:	2320c400 	subu	a0,a2,a0
80104b68:	a415020c 	jal	0x80085690
80104b6c:	23284500 	subu	a1,v0,a1
80104b70:	ff0f4230 	andi	v0,v0,0xfff
80104b74:	560002a6 	sh	v0,86(s0)
80104b78:	3f46010c 	jal	0x800518fc
80104b7c:	21200002 	move	a0,s0
80104b80:	cb360408 	j	0x8010db2c
80104b84:	00000000 	nop
80104b88:	89e9010c 	jal	0x8007a624
80104b8c:	21200002 	move	a0,s0
80104b90:	1c00bf8f 	lw	ra,28(sp)
80104b94:	1800b28f 	lw	s2,24(sp)
80104b98:	1400b18f 	lw	s1,20(sp)
80104b9c:	1000b08f 	lw	s0,16(sp)
80104ba0:	0800e003 	jr	ra
80104ba4:	2000bd27 	addiu	sp,sp,32
80104ba8:	72008384 	lh	v1,114(a0)
80104bac:	00000000 	nop
80104bb0:	21186400 	addu	v1,v1,a0
80104bb4:	04006290 	lbu	v0,4(v1)
80104bb8:	00000000 	nop
80104bbc:	01004224 	addiu	v0,v0,1
80104bc0:	040062a0 	sb	v0,4(v1)
80104bc4:	0800e003 	jr	ra
80104bc8:	01000224 	li	v0,1
80104bcc:	e0ffbd27 	addiu	sp,sp,-32
80104bd0:	1000b0af 	sw	s0,16(sp)
80104bd4:	21808000 	move	s0,a0
80104bd8:	1c00bfaf 	sw	ra,28(sp)
80104bdc:	1800b2af 	sw	s2,24(sp)
80104be0:	1400b1af 	sw	s1,20(sp)
80104be4:	04001192 	lbu	s1,4(s0)
80104be8:	01001224 	li	s2,1
80104bec:	42003212 	beq	s1,s2,0x80104cf8
80104bf0:	0200222a 	slti	v0,s1,2
80104bf4:	05004010 	beqz	v0,0x80104c0c
80104bf8:	00000000 	nop
80104bfc:	0a002012 	beqz	s1,0x80104c28
80104c00:	21200002 	move	a0,s0
80104c04:	de370408 	j	0x8010df78
80104c08:	00000000 	nop
80104c0c:	02000224 	li	v0,2
80104c10:	f2002212 	beq	s1,v0,0x80104fdc
80104c14:	03000224 	li	v0,3
80104c18:	ee002212 	beq	s1,v0,0x80104fd4
80104c1c:	00000000 	nop
80104c20:	de370408 	j	0x8010df78
80104c24:	00000000 	nop
80104c28:	0f000524 	li	a1,15
80104c2c:	0f80023c 	lui	v0,0x800f
80104c30:	58cf5124 	addiu	s1,v0,-12456
80104c34:	9400268e 	lw	a2,148(s1)
80104c38:	1180073c 	lui	a3,0x8011
80104c3c:	7846010c 	jal	0x800519e0
80104c40:	6878e724 	addiu	a3,a3,30824
80104c44:	e5004014 	bnez	v0,0x80104fdc
80104c48:	1180033c 	lui	v1,0x8011
80104c4c:	0c80053c 	lui	a1,0x800c
80104c50:	70f8a524 	addiu	a1,a1,-1936
80104c54:	3800228e 	lw	v0,56(s1)
80104c58:	50606324 	addiu	v1,v1,24656
80104c5c:	3c0002ae 	sw	v0,60(s0)
80104c60:	0100a290 	lbu	v0,1(a1)
80104c64:	21200002 	move	a0,s0
80104c68:	40100200 	sll	v0,v0,0x1
80104c6c:	21104300 	addu	v0,v0,v1
80104c70:	1180033c 	lui	v1,0x8011
80104c74:	00004294 	lhu	v0,0(v0)
80104c78:	38606324 	addiu	v1,v1,24632
80104c7c:	560002a6 	sh	v0,86(s0)
80104c80:	0100a290 	lbu	v0,1(a1)
80104c84:	1280053c 	lui	a1,0x8012
80104c88:	80100200 	sll	v0,v0,0x2
80104c8c:	21104300 	addu	v0,v0,v1
80104c90:	0000468c 	lw	a2,0(v0)
80104c94:	3703010c 	jal	0x80040cdc
80104c98:	38a7a524 	addiu	a1,a1,-22728
80104c9c:	21200002 	move	a0,s0
80104ca0:	09000524 	li	a1,9
80104ca4:	c605010c 	jal	0x80041718
80104ca8:	21300000 	move	a2,zero
80104cac:	60000224 	li	v0,96
80104cb0:	800002a6 	sh	v0,128(s0)
80104cb4:	c0000224 	li	v0,192
80104cb8:	820002a6 	sh	v0,130(s0)
80104cbc:	80000224 	li	v0,128
80104cc0:	840002a6 	sh	v0,132(s0)
80104cc4:	f0000224 	li	v0,240
80104cc8:	860002a6 	sh	v0,134(s0)
80104ccc:	04000292 	lbu	v0,4(s0)
80104cd0:	0b000392 	lbu	v1,11(s0)
80104cd4:	700012a2 	sb	s2,112(s0)
80104cd8:	5e0000a2 	sb	zero,94(s0)
80104cdc:	600000a6 	sh	zero,96(s0)
80104ce0:	01004224 	addiu	v0,v0,1
80104ce4:	c0006330 	andi	v1,v1,0xc0
80104ce8:	80006334 	ori	v1,v1,0x80
80104cec:	040002a2 	sb	v0,4(s0)
80104cf0:	de370408 	j	0x8010df78
80104cf4:	0b0003a2 	sb	v1,11(s0)
80104cf8:	21200002 	move	a0,s0
80104cfc:	9fdf010c 	jal	0x80077e7c
80104d00:	010011a2 	sb	s1,1(s0)
80104d04:	2604010c 	jal	0x80041098
80104d08:	21200002 	move	a0,s0
80104d0c:	5e000292 	lbu	v0,94(s0)
80104d10:	00000000 	nop
80104d14:	04004014 	bnez	v0,0x80104d28
80104d18:	0c80023c 	lui	v0,0x800c
80104d1c:	4306010c 	jal	0x8004190c
80104d20:	21200002 	move	a0,s0
80104d24:	0c80023c 	lui	v0,0x800c
80104d28:	71f84390 	lbu	v1,-1935(v0)
80104d2c:	04000224 	li	v0,4
80104d30:	07006210 	beq	v1,v0,0x80104d50
80104d34:	05006228 	slti	v0,v1,5
80104d38:	a2004014 	bnez	v0,0x80104fc4
80104d3c:	05000224 	li	v0,5
80104d40:	3d006210 	beq	v1,v0,0x80104e38
80104d44:	00000000 	nop
80104d48:	d8370408 	j	0x8010df60
80104d4c:	00000000 	nop
80104d50:	05000392 	lbu	v1,5(s0)
80104d54:	00000000 	nop
80104d58:	05007110 	beq	v1,s1,0x80104d70
80104d5c:	02000224 	li	v0,2
80104d60:	18006210 	beq	v1,v0,0x80104dc4
80104d64:	00000000 	nop
80104d68:	d8370408 	j	0x8010df60
80104d6c:	00000000 	nop
80104d70:	56000486 	lh	a0,86(s0)
80104d74:	000c0224 	li	v0,3072
80104d78:	d40f020c 	jal	0x80083f50
80104d7c:	440002a6 	sh	v0,68(s0)
80104d80:	56000486 	lh	a0,86(s0)
80104d84:	03110200 	sra	v0,v0,0x4
80104d88:	a00f020c 	jal	0x80083e80
80104d8c:	480002a6 	sh	v0,72(s0)
80104d90:	23100200 	negu	v0,v0
80104d94:	03110200 	sra	v0,v0,0x4
80104d98:	4c0002a6 	sh	v0,76(s0)
80104d9c:	00e00224 	li	v0,-8192
80104da0:	4a0002a6 	sh	v0,74(s0)
80104da4:	00010224 	li	v0,256
80104da8:	500002a6 	sh	v0,80(s0)
80104dac:	0b000292 	lbu	v0,11(s0)
80104db0:	05000392 	lbu	v1,5(s0)
80104db4:	3f004230 	andi	v0,v0,0x3f
80104db8:	01006324 	addiu	v1,v1,1
80104dbc:	0b0002a2 	sb	v0,11(s0)
80104dc0:	050003a2 	sb	v1,5(s0)
80104dc4:	48000386 	lh	v1,72(s0)
80104dc8:	44000286 	lh	v0,68(s0)
80104dcc:	00000000 	nop
80104dd0:	18006200 	mult	v1,v0
80104dd4:	4c000586 	lh	a1,76(s0)
80104dd8:	21204000 	move	a0,v0
80104ddc:	4a000386 	lh	v1,74(s0)
80104de0:	3000028e 	lw	v0,48(s0)
80104de4:	12300000 	mflo	a2
80104de8:	001a0300 	sll	v1,v1,0x8
80104dec:	21104300 	addu	v0,v0,v1
80104df0:	1800a400 	mult	a1,a0
80104df4:	300002ae 	sw	v0,48(s0)
80104df8:	4a000296 	lhu	v0,74(s0)
80104dfc:	2c00038e 	lw	v1,44(s0)
80104e00:	50000496 	lhu	a0,80(s0)
80104e04:	21186600 	addu	v1,v1,a2
80104e08:	2c0003ae 	sw	v1,44(s0)
80104e0c:	32000386 	lh	v1,50(s0)
80104e10:	21104400 	addu	v0,v0,a0
80104e14:	50fb6328 	slti	v1,v1,-1200
80104e18:	4a0002a6 	sh	v0,74(s0)
80104e1c:	3400028e 	lw	v0,52(s0)
80104e20:	12480000 	mflo	t1
80104e24:	21104900 	addu	v0,v0,t1
80104e28:	66006014 	bnez	v1,0x80104fc4
80104e2c:	340002ae 	sw	v0,52(s0)
80104e30:	d4370408 	j	0x8010df50
80104e34:	00000000 	nop
80104e38:	05000392 	lbu	v1,5(s0)
80104e3c:	00000000 	nop
80104e40:	0500622c 	sltiu	v0,v1,5
80104e44:	5f004010 	beqz	v0,0x80104fc4
80104e48:	1180023c 	lui	v0,0x8011
80104e4c:	cc904224 	addiu	v0,v0,-28468
80104e50:	80180300 	sll	v1,v1,0x2
80104e54:	21186200 	addu	v1,v1,v0
80104e58:	0000628c 	lw	v0,0(v1)
80104e5c:	00000000 	nop
80104e60:	08004000 	jr	v0
80104e64:	00000000 	nop
80104e68:	0b000292 	lbu	v0,11(s0)
80104e6c:	05000392 	lbu	v1,5(s0)
80104e70:	3f004230 	andi	v0,v0,0x3f
80104e74:	01006324 	addiu	v1,v1,1
80104e78:	0b0002a2 	sb	v0,11(s0)
80104e7c:	801f023c 	lui	v0,0x1f80
80104e80:	050003a2 	sb	v1,5(s0)
80104e84:	4802448c 	lw	a0,584(v0)
80104e88:	2e000296 	lhu	v0,46(s0)
80104e8c:	2e008394 	lhu	v1,46(a0)
80104e90:	00000000 	nop
80104e94:	23104300 	subu	v0,v0,v1
80104e98:	4e0002a6 	sh	v0,78(s0)
80104e9c:	32000296 	lhu	v0,50(s0)
80104ea0:	32008394 	lhu	v1,50(a0)
80104ea4:	00000000 	nop
80104ea8:	23104300 	subu	v0,v0,v1
80104eac:	500002a6 	sh	v0,80(s0)
80104eb0:	36000296 	lhu	v0,54(s0)
80104eb4:	36008394 	lhu	v1,54(a0)
80104eb8:	00000000 	nop
80104ebc:	23104300 	subu	v0,v0,v1
80104ec0:	520002a6 	sh	v0,82(s0)
80104ec4:	3f47040c 	jal	0x80111cfc
80104ec8:	21200002 	move	a0,s0
80104ecc:	32000296 	lhu	v0,50(s0)
80104ed0:	00000000 	nop
80104ed4:	14004224 	addiu	v0,v0,20
80104ed8:	d8370408 	j	0x8010df60
80104edc:	320002a6 	sh	v0,50(s0)
80104ee0:	3f47040c 	jal	0x80111cfc
80104ee4:	21200002 	move	a0,s0
80104ee8:	d8370408 	j	0x8010df60
80104eec:	00000000 	nop
80104ef0:	56000486 	lh	a0,86(s0)
80104ef4:	000c0224 	li	v0,3072
80104ef8:	d40f020c 	jal	0x80083f50
80104efc:	440002a6 	sh	v0,68(s0)
80104f00:	56000486 	lh	a0,86(s0)
80104f04:	03110200 	sra	v0,v0,0x4
80104f08:	a00f020c 	jal	0x80083e80
80104f0c:	480002a6 	sh	v0,72(s0)
80104f10:	23100200 	negu	v0,v0
80104f14:	03110200 	sra	v0,v0,0x4
80104f18:	4c0002a6 	sh	v0,76(s0)
80104f1c:	00e00224 	li	v0,-8192
80104f20:	4a0002a6 	sh	v0,74(s0)
80104f24:	00010224 	li	v0,256
80104f28:	500002a6 	sh	v0,80(s0)
80104f2c:	05000292 	lbu	v0,5(s0)
80104f30:	1e000324 	li	v1,30
80104f34:	400003a6 	sh	v1,64(s0)
80104f38:	01004224 	addiu	v0,v0,1
80104f3c:	050002a2 	sb	v0,5(s0)
80104f40:	48000386 	lh	v1,72(s0)
80104f44:	44000286 	lh	v0,68(s0)
80104f48:	00000000 	nop
80104f4c:	18006200 	mult	v1,v0
80104f50:	4c000586 	lh	a1,76(s0)
80104f54:	44000486 	lh	a0,68(s0)
80104f58:	4a000386 	lh	v1,74(s0)
80104f5c:	3000028e 	lw	v0,48(s0)
80104f60:	001a0300 	sll	v1,v1,0x8
80104f64:	21104300 	addu	v0,v0,v1
80104f68:	300002ae 	sw	v0,48(s0)
80104f6c:	12300000 	mflo	a2
80104f70:	4a000296 	lhu	v0,74(s0)
80104f74:	50000396 	lhu	v1,80(s0)
80104f78:	1800a400 	mult	a1,a0
80104f7c:	21104300 	addu	v0,v0,v1
80104f80:	4a0002a6 	sh	v0,74(s0)
80104f84:	2c00028e 	lw	v0,44(s0)
80104f88:	3400038e 	lw	v1,52(s0)
80104f8c:	40000496 	lhu	a0,64(s0)
80104f90:	21104600 	addu	v0,v0,a2
80104f94:	2c0002ae 	sw	v0,44(s0)
80104f98:	ffff8424 	addiu	a0,a0,-1
80104f9c:	400004a6 	sh	a0,64(s0)
80104fa0:	00240400 	sll	a0,a0,0x10
80104fa4:	12480000 	mflo	t1
80104fa8:	21186900 	addu	v1,v1,t1
80104fac:	0500801c 	bgtz	a0,0x80104fc4
80104fb0:	340003ae 	sw	v1,52(s0)
80104fb4:	05000292 	lbu	v0,5(s0)
80104fb8:	00000000 	nop
80104fbc:	01004224 	addiu	v0,v0,1
80104fc0:	050002a2 	sb	v0,5(s0)
80104fc4:	3f46010c 	jal	0x800518fc
80104fc8:	21200002 	move	a0,s0
80104fcc:	de370408 	j	0x8010df78
80104fd0:	00000000 	nop
80104fd4:	89e9010c 	jal	0x8007a624
80104fd8:	21200002 	move	a0,s0
80104fdc:	1c00bf8f 	lw	ra,28(sp)
80104fe0:	1800b28f 	lw	s2,24(sp)
80104fe4:	1400b18f 	lw	s1,20(sp)
80104fe8:	1000b08f 	lw	s0,16(sp)
80104fec:	0800e003 	jr	ra
80104ff0:	2000bd27 	addiu	sp,sp,32
80104ff4:	72008384 	lh	v1,114(a0)
80104ff8:	00000000 	nop
80104ffc:	21186400 	addu	v1,v1,a0
80105000:	04006290 	lbu	v0,4(v1)
80105004:	00000000 	nop
80105008:	01004224 	addiu	v0,v0,1
8010500c:	040062a0 	sb	v0,4(v1)
80105010:	0800e003 	jr	ra
80105014:	01000224 	li	v0,1
80105018:	01000224 	li	v0,1
8010501c:	5e0082a0 	sb	v0,94(a0)
80105020:	0800e003 	jr	ra
80105024:	01000224 	li	v0,1
80105028:	0c80023c 	lui	v0,0x800c
8010502c:	41f84290 	lbu	v0,-1983(v0)
80105030:	00000000 	nop
80105034:	03004014 	bnez	v0,0x80105044
80105038:	01000224 	li	v0,1
8010503c:	0800e003 	jr	ra
80105040:	21100000 	move	v0,zero
80105044:	5e0082a0 	sb	v0,94(a0)
80105048:	0800e003 	jr	ra
8010504c:	01000224 	li	v0,1
80105050:	d8ffbd27 	addiu	sp,sp,-40
80105054:	1c00b3af 	sw	s3,28(sp)
80105058:	21988000 	move	s3,a0
8010505c:	2000bfaf 	sw	ra,32(sp)
80105060:	1800b2af 	sw	s2,24(sp)
80105064:	1400b1af 	sw	s1,20(sp)
80105068:	1000b0af 	sw	s0,16(sp)
8010506c:	04006492 	lbu	a0,4(s3)
80105070:	01001124 	li	s1,1
80105074:	6f009110 	beq	a0,s1,0x80105234
80105078:	02008228 	slti	v0,a0,2
8010507c:	05004010 	beqz	v0,0x80105094
80105080:	00000000 	nop
80105084:	0a008010 	beqz	a0,0x801050b0
80105088:	21206002 	move	a0,s3
8010508c:	ee380408 	j	0x8010e3b8
80105090:	00000000 	nop
80105094:	02000224 	li	v0,2
80105098:	e0008210 	beq	a0,v0,0x8010541c
8010509c:	03000224 	li	v0,3
801050a0:	dc008210 	beq	a0,v0,0x80105414
801050a4:	00000000 	nop
801050a8:	ee380408 	j	0x8010e3b8
801050ac:	00000000 	nop
801050b0:	0f000524 	li	a1,15
801050b4:	0f80023c 	lui	v0,0x800f
801050b8:	58cf5024 	addiu	s0,v0,-12456
801050bc:	5800068e 	lw	a2,88(s0)
801050c0:	1180073c 	lui	a3,0x8011
801050c4:	7846010c 	jal	0x800519e0
801050c8:	3873e724 	addiu	a3,a3,29496
801050cc:	d3004014 	bnez	v0,0x8010541c
801050d0:	0c80023c 	lui	v0,0x800c
801050d4:	70f85224 	addiu	s2,v0,-1936
801050d8:	01004292 	lbu	v0,1(s2)
801050dc:	00000000 	nop
801050e0:	08005110 	beq	v0,s1,0x80105104
801050e4:	16000524 	li	a1,22
801050e8:	c000648e 	lw	a0,192(s3)
801050ec:	c146010c 	jal	0x80051b04
801050f0:	10000624 	li	a2,16
801050f4:	16000524 	li	a1,22
801050f8:	c400648e 	lw	a0,196(s3)
801050fc:	c146010c 	jal	0x80051b04
80105100:	0f000624 	li	a2,15
80105104:	21206002 	move	a0,s3
80105108:	1280053c 	lui	a1,0x8012
8010510c:	2cafa524 	addiu	a1,a1,-20692
80105110:	0a80063c 	lui	a2,0x800a
80105114:	04006292 	lbu	v0,4(s3)
80105118:	183dc624 	addiu	a2,a2,15640
8010511c:	01004224 	addiu	v0,v0,1
80105120:	3703010c 	jal	0x80040cdc
80105124:	040062a2 	sb	v0,4(s3)
80105128:	8000038e 	lw	v1,128(s0)
8010512c:	03000224 	li	v0,3
80105130:	7b0062a2 	sb	v0,123(s3)
80105134:	50000224 	li	v0,80
80105138:	800062a6 	sh	v0,128(s3)
8010513c:	a0000224 	li	v0,160
80105140:	820062a6 	sh	v0,130(s3)
80105144:	840062a6 	sh	v0,132(s3)
80105148:	40010224 	li	v0,320
8010514c:	860062a6 	sh	v0,134(s3)
80105150:	3c0063ae 	sw	v1,60(s3)
80105154:	01005092 	lbu	s0,1(s2)
80105158:	02000224 	li	v0,2
8010515c:	11000212 	beq	s0,v0,0x801051a4
80105160:	0300022a 	slti	v0,s0,3
80105164:	05004010 	beqz	v0,0x8010517c
80105168:	00000000 	nop
8010516c:	08001112 	beq	s0,s1,0x80105190
80105170:	21206002 	move	a0,s3
80105174:	ee380408 	j	0x8010e3b8
80105178:	00000000 	nop
8010517c:	05000224 	li	v0,5
80105180:	1b000212 	beq	s0,v0,0x801051f0
80105184:	21206002 	move	a0,s3
80105188:	ee380408 	j	0x8010e3b8
8010518c:	00000000 	nop
80105190:	01000524 	li	a1,1
80105194:	c605010c 	jal	0x80041718
80105198:	21300000 	move	a2,zero
8010519c:	ee380408 	j	0x8010e3b8
801051a0:	00000000 	nop
801051a4:	21206002 	move	a0,s3
801051a8:	03000524 	li	a1,3
801051ac:	bc010224 	li	v0,444
801051b0:	0e80033c 	lui	v1,0x800e
801051b4:	560062a6 	sh	v0,86(s3)
801051b8:	09030224 	li	v0,777
801051bc:	d67e62a4 	sh	v0,32470(v1)
801051c0:	0b006292 	lbu	v0,11(s3)
801051c4:	21300000 	move	a2,zero
801051c8:	c0004230 	andi	v0,v0,0xc0
801051cc:	80004234 	ori	v0,v0,0x80
801051d0:	c605010c 	jal	0x80041718
801051d4:	0b0062a2 	sb	v0,11(s3)
801051d8:	21206002 	move	a0,s3
801051dc:	1180053c 	lui	a1,0x8011
801051e0:	5a03010c 	jal	0x80040d68
801051e4:	5c60a524 	addiu	a1,a1,24668
801051e8:	ee380408 	j	0x8010e3b8
801051ec:	700070a2 	sb	s0,112(s3)
801051f0:	03000524 	li	a1,3
801051f4:	0b006292 	lbu	v0,11(s3)
801051f8:	21300000 	move	a2,zero
801051fc:	c0004230 	andi	v0,v0,0xc0
80105200:	80004234 	ori	v0,v0,0x80
80105204:	c605010c 	jal	0x80041718
80105208:	0b0062a2 	sb	v0,11(s3)
8010520c:	801f023c 	lui	v0,0x1f80
80105210:	60014584 	lh	a1,352(v0)
80105214:	801f023c 	lui	v0,0x1f80
80105218:	64014684 	lh	a2,356(v0)
8010521c:	ace0010c 	jal	0x800782b0
80105220:	2c006426 	addiu	a0,s3,44
80105224:	560062a6 	sh	v0,86(s3)
80105228:	801f023c 	lui	v0,0x1f80
8010522c:	ee380408 	j	0x8010e3b8
80105230:	4c0253ac 	sw	s3,588(v0)
80105234:	0c80023c 	lui	v0,0x800c
80105238:	70f84524 	addiu	a1,v0,-1936
8010523c:	0100a390 	lbu	v1,1(a1)
80105240:	02000224 	li	v0,2
80105244:	2c006210 	beq	v1,v0,0x801052f8
80105248:	03006228 	slti	v0,v1,3
8010524c:	05004010 	beqz	v0,0x80105264
80105250:	05000224 	li	v0,5
80105254:	07006410 	beq	v1,a0,0x80105274
80105258:	801f033c 	lui	v1,0x1f80
8010525c:	de380408 	j	0x8010e378
80105260:	21206002 	move	a0,s3
80105264:	33006210 	beq	v1,v0,0x80105334
80105268:	00000000 	nop
8010526c:	de380408 	j	0x8010e378
80105270:	21206002 	move	a0,s3
80105274:	c0006524 	addiu	a1,v1,192
80105278:	801f123c 	lui	s2,0x1f80
8010527c:	a0005126 	addiu	s1,s2,160
80105280:	21302002 	move	a2,s1
80105284:	801f103c 	lui	s0,0x1f80
80105288:	4802048e 	lw	a0,584(s0)
8010528c:	abff0224 	li	v0,-85
80105290:	c00062a4 	sh	v0,192(v1)
80105294:	82ff0224 	li	v0,-126
80105298:	0200a2a4 	sh	v0,2(a1)
8010529c:	1f000224 	li	v0,31
801052a0:	0400a2a4 	sh	v0,4(a1)
801052a4:	1c11020c 	jal	0x80084470
801052a8:	98008424 	addiu	a0,a0,152
801052ac:	4802048e 	lw	a0,584(s0)
801052b0:	a0004396 	lhu	v1,160(s2)
801052b4:	2e008294 	lhu	v0,46(a0)
801052b8:	00000000 	nop
801052bc:	21104300 	addu	v0,v0,v1
801052c0:	2e0062a6 	sh	v0,46(s3)
801052c4:	32008294 	lhu	v0,50(a0)
801052c8:	04002396 	lhu	v1,4(s1)
801052cc:	00000000 	nop
801052d0:	21104300 	addu	v0,v0,v1
801052d4:	320062a6 	sh	v0,50(s3)
801052d8:	36008294 	lhu	v0,54(a0)
801052dc:	08002396 	lhu	v1,8(s1)
801052e0:	00000000 	nop
801052e4:	21104300 	addu	v0,v0,v1
801052e8:	360062a6 	sh	v0,54(s3)
801052ec:	56008294 	lhu	v0,86(a0)
801052f0:	dd380408 	j	0x8010e374
801052f4:	560062a6 	sh	v0,86(s3)
801052f8:	05006292 	lbu	v0,5(s3)
801052fc:	00000000 	nop
80105300:	36004014 	bnez	v0,0x801053dc
80105304:	21206002 	move	a0,s3
80105308:	2604010c 	jal	0x80041098
8010530c:	21206002 	move	a0,s3
80105310:	70006392 	lbu	v1,112(s3)
80105314:	ff000224 	li	v0,255
80105318:	2f006214 	bne	v1,v0,0x801053d8
8010531c:	00000000 	nop
80105320:	05006292 	lbu	v0,5(s3)
80105324:	00000000 	nop
80105328:	01004224 	addiu	v0,v0,1
8010532c:	dd380408 	j	0x8010e374
80105330:	050062a2 	sb	v0,5(s3)
80105334:	05006292 	lbu	v0,5(s3)
80105338:	00000000 	nop
8010533c:	05004010 	beqz	v0,0x80105354
80105340:	00000000 	nop
80105344:	0b004410 	beq	v0,a0,0x80105374
80105348:	801f023c 	lui	v0,0x1f80
8010534c:	d2380408 	j	0x8010e348
80105350:	00000000 	nop
80105354:	e601a290 	lbu	v0,486(a1)
80105358:	00000000 	nop
8010535c:	0200422c 	sltiu	v0,v0,2
80105360:	12004014 	bnez	v0,0x801053ac
80105364:	801f023c 	lui	v0,0x1f80
80105368:	21206002 	move	a0,s3
8010536c:	cb380408 	j	0x8010e32c
80105370:	08000524 	li	a1,8
80105374:	e701a290 	lbu	v0,487(a1)
80105378:	00000000 	nop
8010537c:	0300422c 	sltiu	v0,v0,3
80105380:	0a004014 	bnez	v0,0x801053ac
80105384:	801f023c 	lui	v0,0x1f80
80105388:	21206002 	move	a0,s3
8010538c:	0a000524 	li	a1,10
80105390:	c605010c 	jal	0x80041718
80105394:	04000624 	li	a2,4
80105398:	05006292 	lbu	v0,5(s3)
8010539c:	00000000 	nop
801053a0:	01004224 	addiu	v0,v0,1
801053a4:	050062a2 	sb	v0,5(s3)
801053a8:	801f023c 	lui	v0,0x1f80
801053ac:	60014584 	lh	a1,352(v0)
801053b0:	801f023c 	lui	v0,0x1f80
801053b4:	64014684 	lh	a2,356(v0)
801053b8:	ace0010c 	jal	0x800782b0
801053bc:	2c006426 	addiu	a0,s3,44
801053c0:	00140200 	sll	v0,v0,0x10
801053c4:	03240200 	sra	a0,v0,0x10
801053c8:	56006586 	lh	a1,86(s3)
801053cc:	bedd010c 	jal	0x800776f8
801053d0:	80000624 	li	a2,128
801053d4:	560062a6 	sh	v0,86(s3)
801053d8:	21206002 	move	a0,s3
801053dc:	01000224 	li	v0,1
801053e0:	9fdf010c 	jal	0x80077e7c
801053e4:	010062a2 	sb	v0,1(s3)
801053e8:	3f46010c 	jal	0x800518fc
801053ec:	21206002 	move	a0,s3
801053f0:	0c80023c 	lui	v0,0x800c
801053f4:	41f84290 	lbu	v0,-1983(v0)
801053f8:	00000000 	nop
801053fc:	07004014 	bnez	v0,0x8010541c
80105400:	00000000 	nop
80105404:	4306010c 	jal	0x8004190c
80105408:	21206002 	move	a0,s3
8010540c:	ee380408 	j	0x8010e3b8
80105410:	00000000 	nop
80105414:	89e9010c 	jal	0x8007a624
80105418:	21206002 	move	a0,s3
8010541c:	2000bf8f 	lw	ra,32(sp)
80105420:	1c00b38f 	lw	s3,28(sp)
80105424:	1800b28f 	lw	s2,24(sp)
80105428:	1400b18f 	lw	s1,20(sp)
8010542c:	1000b08f 	lw	s0,16(sp)
80105430:	0800e003 	jr	ra
80105434:	2800bd27 	addiu	sp,sp,40
80105438:	e8ffbd27 	addiu	sp,sp,-24
8010543c:	1000bfaf 	sw	ra,16(sp)
80105440:	72008284 	lh	v0,114(a0)
80105444:	00000000 	nop
80105448:	00804230 	andi	v0,v0,0x8000
8010544c:	06004014 	bnez	v0,0x80105468
80105450:	0f80023c 	lui	v0,0x800f
80105454:	0f80023c 	lui	v0,0x800f
80105458:	1280033c 	lui	v1,0x8012
8010545c:	d8cf428c 	lw	v0,-12328(v0)
80105460:	04390408 	j	0x8010e410
80105464:	2caf6324 	addiu	v1,v1,-20692
80105468:	1280033c 	lui	v1,0x8012
8010546c:	90cf428c 	lw	v0,-12400(v0)
80105470:	38a76324 	addiu	v1,v1,-22728
80105474:	7c0083ac 	sw	v1,124(a0)
80105478:	3c0082ac 	sw	v0,60(a0)
8010547c:	72008594 	lhu	a1,114(a0)
80105480:	21300000 	move	a2,zero
80105484:	c605010c 	jal	0x80041718
80105488:	ff0fa530 	andi	a1,a1,0xfff
8010548c:	1000bf8f 	lw	ra,16(sp)
80105490:	01000224 	li	v0,1
80105494:	0800e003 	jr	ra
80105498:	1800bd27 	addiu	sp,sp,24
8010549c:	e8ffbd27 	addiu	sp,sp,-24
801054a0:	01000524 	li	a1,1
801054a4:	1000bfaf 	sw	ra,16(sp)
801054a8:	c605010c 	jal	0x80041718
801054ac:	21300000 	move	a2,zero
801054b0:	1000bf8f 	lw	ra,16(sp)
801054b4:	00000000 	nop
801054b8:	0800e003 	jr	ra
801054bc:	1800bd27 	addiu	sp,sp,24
801054c0:	d8ffbd27 	addiu	sp,sp,-40
801054c4:	1c00b3af 	sw	s3,28(sp)
801054c8:	21988000 	move	s3,a0
801054cc:	801f053c 	lui	a1,0x1f80
801054d0:	abff0224 	li	v0,-85
801054d4:	c000a2a4 	sh	v0,192(a1)
801054d8:	c000a524 	addiu	a1,a1,192
801054dc:	82ff0224 	li	v0,-126
801054e0:	2000bfaf 	sw	ra,32(sp)
801054e4:	1800b2af 	sw	s2,24(sp)
801054e8:	1400b1af 	sw	s1,20(sp)
801054ec:	1000b0af 	sw	s0,16(sp)
801054f0:	0200a2a4 	sh	v0,2(a1)
801054f4:	1f000224 	li	v0,31
801054f8:	801f113c 	lui	s1,0x1f80
801054fc:	801f123c 	lui	s2,0x1f80
80105500:	a0005026 	addiu	s0,s2,160
80105504:	4802248e 	lw	a0,584(s1)
80105508:	21300002 	move	a2,s0
8010550c:	0400a2a4 	sh	v0,4(a1)
80105510:	1c11020c 	jal	0x80084470
80105514:	98008424 	addiu	a0,a0,152
80105518:	4802248e 	lw	a0,584(s1)
8010551c:	a0004396 	lhu	v1,160(s2)
80105520:	2e008294 	lhu	v0,46(a0)
80105524:	00000000 	nop
80105528:	21104300 	addu	v0,v0,v1
8010552c:	2e0062a6 	sh	v0,46(s3)
80105530:	32008294 	lhu	v0,50(a0)
80105534:	04000396 	lhu	v1,4(s0)
80105538:	00000000 	nop
8010553c:	21104300 	addu	v0,v0,v1
80105540:	320062a6 	sh	v0,50(s3)
80105544:	36008294 	lhu	v0,54(a0)
80105548:	08000396 	lhu	v1,8(s0)
8010554c:	00000000 	nop
80105550:	21104300 	addu	v0,v0,v1
80105554:	360062a6 	sh	v0,54(s3)
80105558:	56008294 	lhu	v0,86(a0)
8010555c:	00000000 	nop
80105560:	560062a6 	sh	v0,86(s3)
80105564:	2000bf8f 	lw	ra,32(sp)
80105568:	1c00b38f 	lw	s3,28(sp)
8010556c:	1800b28f 	lw	s2,24(sp)
80105570:	1400b18f 	lw	s1,20(sp)
80105574:	1000b08f 	lw	s0,16(sp)
80105578:	0800e003 	jr	ra
8010557c:	2800bd27 	addiu	sp,sp,40
80105580:	72008384 	lh	v1,114(a0)
80105584:	0c80023c 	lui	v0,0x800c
80105588:	50f843ac 	sw	v1,-1968(v0)
8010558c:	0800e003 	jr	ra
80105590:	01000224 	li	v0,1
80105594:	e8ffbd27 	addiu	sp,sp,-24
80105598:	1000b0af 	sw	s0,16(sp)
8010559c:	21808000 	move	s0,a0
801055a0:	bc010224 	li	v0,444
801055a4:	0e80033c 	lui	v1,0x800e
801055a8:	1400bfaf 	sw	ra,20(sp)
801055ac:	560002a6 	sh	v0,86(s0)
801055b0:	09030224 	li	v0,777
801055b4:	03000524 	li	a1,3
801055b8:	d67e62a4 	sh	v0,32470(v1)
801055bc:	0b000292 	lbu	v0,11(s0)
801055c0:	21300000 	move	a2,zero
801055c4:	c0004230 	andi	v0,v0,0xc0
801055c8:	80004234 	ori	v0,v0,0x80
801055cc:	c605010c 	jal	0x80041718
801055d0:	0b0002a2 	sb	v0,11(s0)
801055d4:	21200002 	move	a0,s0
801055d8:	1180053c 	lui	a1,0x8011
801055dc:	5a03010c 	jal	0x80040d68
801055e0:	5c60a524 	addiu	a1,a1,24668
801055e4:	02000224 	li	v0,2
801055e8:	700002a2 	sb	v0,112(s0)
801055ec:	1400bf8f 	lw	ra,20(sp)
801055f0:	1000b08f 	lw	s0,16(sp)
801055f4:	0800e003 	jr	ra
801055f8:	1800bd27 	addiu	sp,sp,24
801055fc:	e8ffbd27 	addiu	sp,sp,-24
80105600:	1000b0af 	sw	s0,16(sp)
80105604:	21808000 	move	s0,a0
80105608:	1400bfaf 	sw	ra,20(sp)
8010560c:	05000292 	lbu	v0,5(s0)
80105610:	00000000 	nop
80105614:	0b004014 	bnez	v0,0x80105644
80105618:	00000000 	nop
8010561c:	2604010c 	jal	0x80041098
80105620:	00000000 	nop
80105624:	70000392 	lbu	v1,112(s0)
80105628:	ff000224 	li	v0,255
8010562c:	05006214 	bne	v1,v0,0x80105644
80105630:	00000000 	nop
80105634:	05000292 	lbu	v0,5(s0)
80105638:	00000000 	nop
8010563c:	01004224 	addiu	v0,v0,1
80105640:	050002a2 	sb	v0,5(s0)
80105644:	1400bf8f 	lw	ra,20(sp)
80105648:	1000b08f 	lw	s0,16(sp)
8010564c:	0800e003 	jr	ra
80105650:	1800bd27 	addiu	sp,sp,24
80105654:	e8ffbd27 	addiu	sp,sp,-24
80105658:	1000b0af 	sw	s0,16(sp)
8010565c:	21808000 	move	s0,a0
80105660:	03000524 	li	a1,3
80105664:	1400bfaf 	sw	ra,20(sp)
80105668:	0b000292 	lbu	v0,11(s0)
8010566c:	21300000 	move	a2,zero
80105670:	c0004230 	andi	v0,v0,0xc0
80105674:	80004234 	ori	v0,v0,0x80
80105678:	c605010c 	jal	0x80041718
8010567c:	0b0002a2 	sb	v0,11(s0)
80105680:	801f023c 	lui	v0,0x1f80
80105684:	60014584 	lh	a1,352(v0)
80105688:	801f023c 	lui	v0,0x1f80
8010568c:	64014684 	lh	a2,356(v0)
80105690:	ace0010c 	jal	0x800782b0
80105694:	2c000426 	addiu	a0,s0,44
80105698:	560002a6 	sh	v0,86(s0)
8010569c:	1400bf8f 	lw	ra,20(sp)
801056a0:	801f023c 	lui	v0,0x1f80
801056a4:	4c0250ac 	sw	s0,588(v0)
801056a8:	1000b08f 	lw	s0,16(sp)
801056ac:	0800e003 	jr	ra
801056b0:	1800bd27 	addiu	sp,sp,24
801056b4:	e8ffbd27 	addiu	sp,sp,-24
801056b8:	1000b0af 	sw	s0,16(sp)
801056bc:	21808000 	move	s0,a0
801056c0:	1400bfaf 	sw	ra,20(sp)
801056c4:	05000392 	lbu	v1,5(s0)
801056c8:	00000000 	nop
801056cc:	05006010 	beqz	v1,0x801056e4
801056d0:	01000224 	li	v0,1
801056d4:	0c006210 	beq	v1,v0,0x80105708
801056d8:	801f023c 	lui	v0,0x1f80
801056dc:	b8390408 	j	0x8010e6e0
801056e0:	00000000 	nop
801056e4:	0c80023c 	lui	v0,0x800c
801056e8:	56fa4290 	lbu	v0,-1450(v0)
801056ec:	00000000 	nop
801056f0:	0200422c 	sltiu	v0,v0,2
801056f4:	13004014 	bnez	v0,0x80105744
801056f8:	801f023c 	lui	v0,0x1f80
801056fc:	21200002 	move	a0,s0
80105700:	b1390408 	j	0x8010e6c4
80105704:	08000524 	li	a1,8
80105708:	0c80023c 	lui	v0,0x800c
8010570c:	57fa4290 	lbu	v0,-1449(v0)
80105710:	00000000 	nop
80105714:	0300422c 	sltiu	v0,v0,3
80105718:	0a004014 	bnez	v0,0x80105744
8010571c:	801f023c 	lui	v0,0x1f80
80105720:	21200002 	move	a0,s0
80105724:	0a000524 	li	a1,10
80105728:	c605010c 	jal	0x80041718
8010572c:	04000624 	li	a2,4
80105730:	05000292 	lbu	v0,5(s0)
80105734:	00000000 	nop
80105738:	01004224 	addiu	v0,v0,1
8010573c:	050002a2 	sb	v0,5(s0)
80105740:	801f023c 	lui	v0,0x1f80
80105744:	60014584 	lh	a1,352(v0)
80105748:	801f023c 	lui	v0,0x1f80
8010574c:	64014684 	lh	a2,356(v0)
80105750:	ace0010c 	jal	0x800782b0
80105754:	2c000426 	addiu	a0,s0,44
80105758:	00140200 	sll	v0,v0,0x10
8010575c:	03240200 	sra	a0,v0,0x10
80105760:	56000586 	lh	a1,86(s0)
80105764:	bedd010c 	jal	0x800776f8
80105768:	80000624 	li	a2,128
8010576c:	560002a6 	sh	v0,86(s0)
80105770:	1400bf8f 	lw	ra,20(sp)
80105774:	1000b08f 	lw	s0,16(sp)
80105778:	0800e003 	jr	ra
8010577c:	1800bd27 	addiu	sp,sp,24
80105780:	e0ffbd27 	addiu	sp,sp,-32
80105784:	1000b0af 	sw	s0,16(sp)
80105788:	21808000 	move	s0,a0
8010578c:	1800bfaf 	sw	ra,24(sp)
80105790:	1400b1af 	sw	s1,20(sp)
80105794:	05001192 	lbu	s1,5(s0)
80105798:	01000324 	li	v1,1
8010579c:	12002312 	beq	s1,v1,0x801057e8
801057a0:	0200222a 	slti	v0,s1,2
801057a4:	05004010 	beqz	v0,0x801057bc
801057a8:	00000000 	nop
801057ac:	08002012 	beqz	s1,0x801057d0
801057b0:	21200002 	move	a0,s0
801057b4:	293a0408 	j	0x8010e8a4
801057b8:	00000000 	nop
801057bc:	02000224 	li	v0,2
801057c0:	39002212 	beq	s1,v0,0x801058a8
801057c4:	00000000 	nop
801057c8:	293a0408 	j	0x8010e8a4
801057cc:	00000000 	nop
801057d0:	1280053c 	lui	a1,0x8012
801057d4:	3cada524 	addiu	a1,a1,-21188
801057d8:	1180063c 	lui	a2,0x8011
801057dc:	7463c624 	addiu	a2,a2,25460
801057e0:	0c3a0408 	j	0x8010e830
801057e4:	050003a2 	sb	v1,5(s0)
801057e8:	2604010c 	jal	0x80041098
801057ec:	21200002 	move	a0,s0
801057f0:	70000392 	lbu	v1,112(s0)
801057f4:	ff000224 	li	v0,255
801057f8:	43006214 	bne	v1,v0,0x80105908
801057fc:	00000000 	nop
80105800:	05000292 	lbu	v0,5(s0)
80105804:	00000000 	nop
80105808:	01004224 	addiu	v0,v0,1
8010580c:	050002a2 	sb	v0,5(s0)
80105810:	0c80023c 	lui	v0,0x800c
80105814:	08f84224 	addiu	v0,v0,-2040
80105818:	5000448c 	lw	a0,80(v0)
8010581c:	5400428c 	lw	v0,84(v0)
80105820:	85008328 	slti	v1,a0,133
80105824:	0e006010 	beqz	v1,0x80105860
80105828:	04000324 	li	v1,4
8010582c:	64008228 	slti	v0,a0,100
80105830:	02004014 	bnez	v0,0x8010583c
80105834:	02000224 	li	v0,2
80105838:	03000224 	li	v0,3
8010583c:	7a0002a2 	sb	v0,122(s0)
80105840:	21200002 	move	a0,s0
80105844:	1280053c 	lui	a1,0x8012
80105848:	3cada524 	addiu	a1,a1,-21188
8010584c:	1180063c 	lui	a2,0x8011
80105850:	3703010c 	jal	0x80040cdc
80105854:	bc62c624 	addiu	a2,a2,25276
80105858:	0e3a0408 	j	0x8010e838
8010585c:	bf0000a2 	sb	zero,191(s0)
80105860:	05004314 	bne	v0,v1,0x80105878
80105864:	05000224 	li	v0,5
80105868:	7a0002a2 	sb	v0,122(s0)
8010586c:	02000224 	li	v0,2
80105870:	073a0408 	j	0x8010e81c
80105874:	bf0002a2 	sb	v0,191(s0)
80105878:	7a0003a2 	sb	v1,122(s0)
8010587c:	bf0011a2 	sb	s1,191(s0)
80105880:	21200002 	move	a0,s0
80105884:	1280053c 	lui	a1,0x8012
80105888:	3cada524 	addiu	a1,a1,-21188
8010588c:	1180063c 	lui	a2,0x8011
80105890:	dc62c624 	addiu	a2,a2,25308
80105894:	3703010c 	jal	0x80040cdc
80105898:	00000000 	nop
8010589c:	02000224 	li	v0,2
801058a0:	293a0408 	j	0x8010e8a4
801058a4:	700002a2 	sb	v0,112(s0)
801058a8:	2604010c 	jal	0x80041098
801058ac:	21200002 	move	a0,s0
801058b0:	70000392 	lbu	v1,112(s0)
801058b4:	ff000224 	li	v0,255
801058b8:	13006214 	bne	v1,v0,0x80105908
801058bc:	00000000 	nop
801058c0:	05000292 	lbu	v0,5(s0)
801058c4:	00000000 	nop
801058c8:	01004224 	addiu	v0,v0,1
801058cc:	bbd3010c 	jal	0x80074eec
801058d0:	050002a2 	sb	v0,5(s0)
801058d4:	0c80023c 	lui	v0,0x800c
801058d8:	08f84324 	addiu	v1,v0,-2040
801058dc:	070071a0 	sb	s1,7(v1)
801058e0:	bf000292 	lbu	v0,191(s0)
801058e4:	00000000 	nop
801058e8:	04004014 	bnez	v0,0x801058fc
801058ec:	03000224 	li	v0,3
801058f0:	08000224 	li	v0,8
801058f4:	293a0408 	j	0x8010e8a4
801058f8:	310062a0 	sb	v0,49(v1)
801058fc:	310062a0 	sb	v0,49(v1)
80105900:	04150224 	li	v0,5380
80105904:	320062a4 	sh	v0,50(v1)
80105908:	1800bf8f 	lw	ra,24(sp)
8010590c:	1400b18f 	lw	s1,20(sp)
80105910:	1000b08f 	lw	s0,16(sp)
80105914:	0800e003 	jr	ra
80105918:	2000bd27 	addiu	sp,sp,32
8010591c:	e0ffbd27 	addiu	sp,sp,-32
80105920:	1000b0af 	sw	s0,16(sp)
80105924:	21808000 	move	s0,a0
80105928:	1800bfaf 	sw	ra,24(sp)
8010592c:	1400b1af 	sw	s1,20(sp)
80105930:	04000492 	lbu	a0,4(s0)
80105934:	01000224 	li	v0,1
80105938:	7b008210 	beq	a0,v0,0x80105b28
8010593c:	02008228 	slti	v0,a0,2
80105940:	05004010 	beqz	v0,0x80105958
80105944:	00000000 	nop
80105948:	0a008010 	beqz	a0,0x80105974
8010594c:	21200002 	move	a0,s0
80105950:	df3a0408 	j	0x8010eb7c
80105954:	00000000 	nop
80105958:	02000224 	li	v0,2
8010595c:	a0008210 	beq	a0,v0,0x80105be0
80105960:	03000224 	li	v0,3
80105964:	9c008210 	beq	a0,v0,0x80105bd8
80105968:	00000000 	nop
8010596c:	df3a0408 	j	0x8010eb7c
80105970:	00000000 	nop
80105974:	0d000524 	li	a1,13
80105978:	0f80023c 	lui	v0,0x800f
8010597c:	58cf5124 	addiu	s1,v0,-12456
80105980:	6000268e 	lw	a2,96(s1)
80105984:	1180073c 	lui	a3,0x8011
80105988:	7846010c 	jal	0x800519e0
8010598c:	3874e724 	addiu	a3,a3,29752
80105990:	93004014 	bnez	v0,0x80105be0
80105994:	50000224 	li	v0,80
80105998:	8800238e 	lw	v1,136(s1)
8010599c:	800002a6 	sh	v0,128(s0)
801059a0:	a0000224 	li	v0,160
801059a4:	820002a6 	sh	v0,130(s0)
801059a8:	840002a6 	sh	v0,132(s0)
801059ac:	20010224 	li	v0,288
801059b0:	860002a6 	sh	v0,134(s0)
801059b4:	04000292 	lbu	v0,4(s0)
801059b8:	00000000 	nop
801059bc:	01004224 	addiu	v0,v0,1
801059c0:	040002a2 	sb	v0,4(s0)
801059c4:	0c80023c 	lui	v0,0x800c
801059c8:	3c0003ae 	sw	v1,60(s0)
801059cc:	0b000392 	lbu	v1,11(s0)
801059d0:	70f84624 	addiu	a2,v0,-1936
801059d4:	c0006330 	andi	v1,v1,0xc0
801059d8:	80006334 	ori	v1,v1,0x80
801059dc:	0b0003a2 	sb	v1,11(s0)
801059e0:	0100c390 	lbu	v1,1(a2)
801059e4:	04000224 	li	v0,4
801059e8:	3d006210 	beq	v1,v0,0x80105ae0
801059ec:	05006228 	slti	v0,v1,5
801059f0:	05004010 	beqz	v0,0x80105a08
801059f4:	03000224 	li	v0,3
801059f8:	08006210 	beq	v1,v0,0x80105a1c
801059fc:	ff000424 	li	a0,255
80105a00:	df3a0408 	j	0x8010eb7c
80105a04:	00000000 	nop
80105a08:	05000224 	li	v0,5
80105a0c:	39006210 	beq	v1,v0,0x80105af4
80105a10:	21200002 	move	a0,s0
80105a14:	df3a0408 	j	0x8010eb7c
80105a18:	00000000 	nop
80105a1c:	c900c290 	lbu	v0,201(a2)
80105a20:	00000000 	nop
80105a24:	06004414 	bne	v0,a0,0x80105a40
80105a28:	0c80033c 	lui	v1,0x800c
80105a2c:	08f86324 	addiu	v1,v1,-2040
80105a30:	5400628c 	lw	v0,84(v1)
80105a34:	00000000 	nop
80105a38:	01004224 	addiu	v0,v0,1
80105a3c:	540062ac 	sw	v0,84(v1)
80105a40:	ca00c290 	lbu	v0,202(a2)
80105a44:	00000000 	nop
80105a48:	06004414 	bne	v0,a0,0x80105a64
80105a4c:	0c80033c 	lui	v1,0x800c
80105a50:	08f86324 	addiu	v1,v1,-2040
80105a54:	5400628c 	lw	v0,84(v1)
80105a58:	00000000 	nop
80105a5c:	01004224 	addiu	v0,v0,1
80105a60:	540062ac 	sw	v0,84(v1)
80105a64:	cc00c290 	lbu	v0,204(a2)
80105a68:	00000000 	nop
80105a6c:	06004414 	bne	v0,a0,0x80105a88
80105a70:	0c80033c 	lui	v1,0x800c
80105a74:	08f86324 	addiu	v1,v1,-2040
80105a78:	5400628c 	lw	v0,84(v1)
80105a7c:	00000000 	nop
80105a80:	01004224 	addiu	v0,v0,1
80105a84:	540062ac 	sw	v0,84(v1)
80105a88:	cd00c290 	lbu	v0,205(a2)
80105a8c:	00000000 	nop
80105a90:	07004414 	bne	v0,a0,0x80105ab0
80105a94:	21200002 	move	a0,s0
80105a98:	0c80033c 	lui	v1,0x800c
80105a9c:	08f86324 	addiu	v1,v1,-2040
80105aa0:	5400628c 	lw	v0,84(v1)
80105aa4:	00000000 	nop
80105aa8:	01004224 	addiu	v0,v0,1
80105aac:	540062ac 	sw	v0,84(v1)
80105ab0:	1280053c 	lui	a1,0x8012
80105ab4:	3cada524 	addiu	a1,a1,-21188
80105ab8:	0c80033c 	lui	v1,0x800c
80105abc:	08f86324 	addiu	v1,v1,-2040
80105ac0:	3a00c284 	lh	v0,58(a2)
80105ac4:	5400678c 	lw	a3,84(v1)
80105ac8:	21300000 	move	a2,zero
80105acc:	23104700 	subu	v0,v0,a3
80105ad0:	10df010c 	jal	0x80077c40
80105ad4:	500062ac 	sw	v0,80(v1)
80105ad8:	df3a0408 	j	0x8010eb7c
80105adc:	00000000 	nop
80105ae0:	21200002 	move	a0,s0
80105ae4:	1280053c 	lui	a1,0x8012
80105ae8:	3cada524 	addiu	a1,a1,-21188
80105aec:	a73a0408 	j	0x8010ea9c
80105af0:	21300000 	move	a2,zero
80105af4:	1280053c 	lui	a1,0x8012
80105af8:	3cada524 	addiu	a1,a1,-21188
80105afc:	01000624 	li	a2,1
80105b00:	10df010c 	jal	0x80077c40
80105b04:	00000000 	nop
80105b08:	801f023c 	lui	v0,0x1f80
80105b0c:	60014584 	lh	a1,352(v0)
80105b10:	801f023c 	lui	v0,0x1f80
80105b14:	64014684 	lh	a2,356(v0)
80105b18:	ace0010c 	jal	0x800782b0
80105b1c:	2c000426 	addiu	a0,s0,44
80105b20:	df3a0408 	j	0x8010eb7c
80105b24:	560002a6 	sh	v0,86(s0)
80105b28:	0c80023c 	lui	v0,0x800c
80105b2c:	71f84390 	lbu	v1,-1935(v0)
80105b30:	03000224 	li	v0,3
80105b34:	05006214 	bne	v1,v0,0x80105b4c
80105b38:	03006228 	slti	v0,v1,3
80105b3c:	c739040c 	jal	0x8010e71c
80105b40:	21200002 	move	a0,s0
80105b44:	d43a0408 	j	0x8010eb50
80105b48:	01000224 	li	v0,1
80105b4c:	19004014 	bnez	v0,0x80105bb4
80105b50:	01000224 	li	v0,1
80105b54:	06006228 	slti	v0,v1,6
80105b58:	15004010 	beqz	v0,0x80105bb0
80105b5c:	0c80023c 	lui	v0,0x800c
80105b60:	41f84290 	lbu	v0,-1983(v0)
80105b64:	00000000 	nop
80105b68:	06004010 	beqz	v0,0x80105b84
80105b6c:	801f023c 	lui	v0,0x1f80
80105b70:	010004a2 	sb	a0,1(s0)
80105b74:	9fdf010c 	jal	0x80077e7c
80105b78:	21200002 	move	a0,s0
80105b7c:	df3a0408 	j	0x8010eb7c
80105b80:	00000000 	nop
80105b84:	60014584 	lh	a1,352(v0)
80105b88:	801f023c 	lui	v0,0x1f80
80105b8c:	64014684 	lh	a2,356(v0)
80105b90:	ace0010c 	jal	0x800782b0
80105b94:	2c000426 	addiu	a0,s0,44
80105b98:	00140200 	sll	v0,v0,0x10
80105b9c:	03240200 	sra	a0,v0,0x10
80105ba0:	56000586 	lh	a1,86(s0)
80105ba4:	bedd010c 	jal	0x800776f8
80105ba8:	80000624 	li	a2,128
80105bac:	560002a6 	sh	v0,86(s0)
80105bb0:	01000224 	li	v0,1
80105bb4:	010002a2 	sb	v0,1(s0)
80105bb8:	9fdf010c 	jal	0x80077e7c
80105bbc:	21200002 	move	a0,s0
80105bc0:	4306010c 	jal	0x8004190c
80105bc4:	21200002 	move	a0,s0
80105bc8:	3f46010c 	jal	0x800518fc
80105bcc:	21200002 	move	a0,s0
80105bd0:	df3a0408 	j	0x8010eb7c
80105bd4:	00000000 	nop
80105bd8:	89e9010c 	jal	0x8007a624
80105bdc:	21200002 	move	a0,s0
80105be0:	1800bf8f 	lw	ra,24(sp)
80105be4:	1400b18f 	lw	s1,20(sp)
80105be8:	1000b08f 	lw	s0,16(sp)
80105bec:	0800e003 	jr	ra
80105bf0:	2000bd27 	addiu	sp,sp,32
80105bf4:	e8ffbd27 	addiu	sp,sp,-24
80105bf8:	1000b0af 	sw	s0,16(sp)
80105bfc:	21808000 	move	s0,a0
80105c00:	21280000 	move	a1,zero
80105c04:	03000624 	li	a2,3
80105c08:	1400bfaf 	sw	ra,20(sp)
80105c0c:	77cb010c 	jal	0x80072ddc
80105c10:	10000724 	li	a3,16
80105c14:	21204000 	move	a0,v0
80105c18:	0a008010 	beqz	a0,0x80105c44
80105c1c:	21100000 	move	v0,zero
80105c20:	1180023c 	lui	v0,0x8011
80105c24:	44174224 	addiu	v0,v0,5956
80105c28:	1c0082ac 	sw	v0,28(a0)
80105c2c:	05000224 	li	v0,5
80105c30:	030082a0 	sb	v0,3(a0)
80105c34:	bf000392 	lbu	v1,191(s0)
80105c38:	01000224 	li	v0,1
80105c3c:	ffff6324 	addiu	v1,v1,-1
80105c40:	5e0083a0 	sb	v1,94(a0)
80105c44:	1400bf8f 	lw	ra,20(sp)
80105c48:	1000b08f 	lw	s0,16(sp)
80105c4c:	0800e003 	jr	ra
80105c50:	1800bd27 	addiu	sp,sp,24
80105c54:	e8ffbd27 	addiu	sp,sp,-24
80105c58:	1000bfaf 	sw	ra,16(sp)
80105c5c:	bf008290 	lbu	v0,191(a0)
80105c60:	01000324 	li	v1,1
80105c64:	03004314 	bne	v0,v1,0x80105c74
80105c68:	0c80023c 	lui	v0,0x800c
80105c6c:	053b0408 	j	0x8010ec14
80105c70:	58fa40a0 	sb	zero,-1448(v0)
80105c74:	58fa43a0 	sb	v1,-1448(v0)
80105c78:	0e80043c 	lui	a0,0x800e
80105c7c:	2e25040c 	jal	0x801094b8
80105c80:	807e8424 	addiu	a0,a0,32384
80105c84:	1000bf8f 	lw	ra,16(sp)
80105c88:	01000224 	li	v0,1
80105c8c:	0800e003 	jr	ra
80105c90:	1800bd27 	addiu	sp,sp,24
80105c94:	e0ffbd27 	addiu	sp,sp,-32
80105c98:	1000b0af 	sw	s0,16(sp)
80105c9c:	21808000 	move	s0,a0
80105ca0:	0e80023c 	lui	v0,0x800e
80105ca4:	1400b1af 	sw	s1,20(sp)
80105ca8:	807e5124 	addiu	s1,v0,32384
80105cac:	1180023c 	lui	v0,0x8011
80105cb0:	1800bfaf 	sw	ra,24(sp)
80105cb4:	72000486 	lh	a0,114(s0)
80105cb8:	ec634224 	addiu	v0,v0,25580
80105cbc:	40180400 	sll	v1,a0,0x1
80105cc0:	21186400 	addu	v1,v1,a0
80105cc4:	40180300 	sll	v1,v1,0x1
80105cc8:	78000492 	lbu	a0,120(s0)
80105ccc:	00000000 	nop
80105cd0:	06008010 	beqz	a0,0x80105cec
80105cd4:	21286200 	addu	a1,v1,v0
80105cd8:	01000224 	li	v0,1
80105cdc:	4c008210 	beq	a0,v0,0x80105e10
80105ce0:	21100000 	move	v0,zero
80105ce4:	c53b0408 	j	0x8010ef14
80105ce8:	00000000 	nop
80105cec:	21000224 	li	v0,33
80105cf0:	050022a2 	sb	v0,5(s1)
80105cf4:	060020a2 	sb	zero,6(s1)
80105cf8:	0000a294 	lhu	v0,0(a1)
80105cfc:	2e002396 	lhu	v1,46(s1)
80105d00:	00000000 	nop
80105d04:	23104300 	subu	v0,v0,v1
80105d08:	480002a6 	sh	v0,72(s0)
80105d0c:	0200a294 	lhu	v0,2(a1)
80105d10:	32002396 	lhu	v1,50(s1)
80105d14:	00000000 	nop
80105d18:	23104300 	subu	v0,v0,v1
80105d1c:	4a0002a6 	sh	v0,74(s0)
80105d20:	0400a394 	lhu	v1,4(a1)
80105d24:	36002296 	lhu	v0,54(s1)
80105d28:	00000000 	nop
80105d2c:	23186200 	subu	v1,v1,v0
80105d30:	00140300 	sll	v0,v1,0x10
80105d34:	03140200 	sra	v0,v0,0x10
80105d38:	18004200 	mult	v0,v0
80105d3c:	12200000 	mflo	a0
80105d40:	48000286 	lh	v0,72(s0)
80105d44:	00000000 	nop
80105d48:	18004200 	mult	v0,v0
80105d4c:	4c0003a6 	sh	v1,76(s0)
80105d50:	12400000 	mflo	t0
80105d54:	2010020c 	jal	0x80084080
80105d58:	21208800 	addu	a0,a0,t0
80105d5c:	4992043c 	lui	a0,0x9249
80105d60:	93248434 	ori	a0,a0,0x2493
80105d64:	00140200 	sll	v0,v0,0x10
80105d68:	031c0200 	sra	v1,v0,0x10
80105d6c:	18006400 	mult	v1,a0
80105d70:	c3170200 	sra	v0,v0,0x1f
80105d74:	10400000 	mfhi	t0
80105d78:	21180301 	addu	v1,t0,v1
80105d7c:	03190300 	sra	v1,v1,0x4
80105d80:	23186200 	subu	v1,v1,v0
80105d84:	640003a6 	sh	v1,100(s0)
80105d88:	001c0300 	sll	v1,v1,0x10
80105d8c:	02006014 	bnez	v1,0x80105d98
80105d90:	01000224 	li	v0,1
80105d94:	640002a6 	sh	v0,100(s0)
80105d98:	64000386 	lh	v1,100(s0)
80105d9c:	00100224 	li	v0,4096
80105da0:	1a004300 	div	zero,v0,v1
80105da4:	02006014 	bnez	v1,0x80105db0
80105da8:	00000000 	nop
80105dac:	0d000700 	break	0x7
80105db0:	ffff0124 	li	at,-1
80105db4:	04006114 	bne	v1,at,0x80105dc8
80105db8:	0080013c 	lui	at,0x8000
80105dbc:	02004114 	bne	v0,at,0x80105dc8
80105dc0:	00000000 	nop
80105dc4:	0d000600 	break	0x6
80105dc8:	12180000 	mflo	v1
80105dcc:	48000586 	lh	a1,72(s0)
80105dd0:	4c000486 	lh	a0,76(s0)
80105dd4:	440002a6 	sh	v0,68(s0)
80105dd8:	23200400 	negu	a0,a0
80105ddc:	a415020c 	jal	0x80085690
80105de0:	640003a6 	sh	v1,100(s0)
80105de4:	21202002 	move	a0,s1
80105de8:	0c000524 	li	a1,12
80105dec:	04000624 	li	a2,4
80105df0:	ff0f4230 	andi	v0,v0,0xfff
80105df4:	6b53010c 	jal	0x80054dac
80105df8:	560082a4 	sh	v0,86(a0)
80105dfc:	78000292 	lbu	v0,120(s0)
80105e00:	00000000 	nop
80105e04:	01004224 	addiu	v0,v0,1
80105e08:	c43b0408 	j	0x8010ef10
80105e0c:	780002a2 	sb	v0,120(s0)
80105e10:	44000296 	lhu	v0,68(s0)
80105e14:	64000396 	lhu	v1,100(s0)
80105e18:	00000000 	nop
80105e1c:	23104300 	subu	v0,v0,v1
80105e20:	440002a6 	sh	v0,68(s0)
80105e24:	00140200 	sll	v0,v0,0x10
80105e28:	0200401c 	bgtz	v0,0x80105e34
80105e2c:	00000000 	nop
80105e30:	440000a6 	sh	zero,68(s0)
80105e34:	44000386 	lh	v1,68(s0)
80105e38:	48000286 	lh	v0,72(s0)
80105e3c:	00000000 	nop
80105e40:	18006200 	mult	v1,v0
80105e44:	12180000 	mflo	v1
80105e48:	02006104 	bgez	v1,0x80105e54
80105e4c:	00000000 	nop
80105e50:	ff0f6324 	addiu	v1,v1,4095
80105e54:	0000a294 	lhu	v0,0(a1)
80105e58:	031b0300 	sra	v1,v1,0xc
80105e5c:	23104300 	subu	v0,v0,v1
80105e60:	2e0022a6 	sh	v0,46(s1)
80105e64:	44000386 	lh	v1,68(s0)
80105e68:	4a000286 	lh	v0,74(s0)
80105e6c:	00000000 	nop
80105e70:	18006200 	mult	v1,v0
80105e74:	12180000 	mflo	v1
80105e78:	02006104 	bgez	v1,0x80105e84
80105e7c:	00000000 	nop
80105e80:	ff0f6324 	addiu	v1,v1,4095
80105e84:	0200a294 	lhu	v0,2(a1)
80105e88:	031b0300 	sra	v1,v1,0xc
80105e8c:	23104300 	subu	v0,v0,v1
80105e90:	320022a6 	sh	v0,50(s1)
80105e94:	44000386 	lh	v1,68(s0)
80105e98:	4c000286 	lh	v0,76(s0)
80105e9c:	00000000 	nop
80105ea0:	18006200 	mult	v1,v0
80105ea4:	12180000 	mflo	v1
80105ea8:	02006104 	bgez	v1,0x80105eb4
80105eac:	00000000 	nop
80105eb0:	ff0f6324 	addiu	v1,v1,4095
80105eb4:	0400a294 	lhu	v0,4(a1)
80105eb8:	031b0300 	sra	v1,v1,0xc
80105ebc:	23104300 	subu	v0,v0,v1
80105ec0:	360022a6 	sh	v0,54(s1)
80105ec4:	44000286 	lh	v0,68(s0)
80105ec8:	00000000 	nop
80105ecc:	2a004010 	beqz	v0,0x80105f78
80105ed0:	01000224 	li	v0,1
80105ed4:	68000586 	lh	a1,104(s0)
80105ed8:	68000396 	lhu	v1,104(s0)
80105edc:	2600a010 	beqz	a1,0x80105f78
80105ee0:	21100000 	move	v0,zero
80105ee4:	6a000286 	lh	v0,106(s0)
80105ee8:	6a000492 	lbu	a0,106(s0)
80105eec:	00ff4230 	andi	v0,v0,0xff00
80105ef0:	03320200 	sra	a2,v0,0x8
80105ef4:	3f006230 	andi	v0,v1,0x3f
80105ef8:	08004010 	beqz	v0,0x80105f1c
80105efc:	801f023c 	lui	v0,0x1f80
80105f00:	7c014294 	lhu	v0,380(v0)
80105f04:	00000000 	nop
80105f08:	24104500 	and	v0,v0,a1
80105f0c:	1a004014 	bnez	v0,0x80105f78
80105f10:	21100000 	move	v0,zero
80105f14:	bd3b0408 	j	0x8010eef4
80105f18:	21280000 	move	a1,zero
80105f1c:	80006230 	andi	v0,v1,0x80
80105f20:	15004010 	beqz	v0,0x80105f78
80105f24:	21100000 	move	v0,zero
80105f28:	3800228e 	lw	v0,56(s1)
80105f2c:	00000000 	nop
80105f30:	04004290 	lbu	v0,4(v0)
80105f34:	00000000 	nop
80105f38:	0c004010 	beqz	v0,0x80105f6c
80105f3c:	40006230 	andi	v0,v1,0x40
80105f40:	0d004014 	bnez	v0,0x80105f78
80105f44:	21100000 	move	v0,zero
80105f48:	40006234 	ori	v0,v1,0x40
80105f4c:	680002a6 	sh	v0,104(s0)
80105f50:	ff008430 	andi	a0,a0,0xff
80105f54:	21280000 	move	a1,zero
80105f58:	00360600 	sll	a2,a2,0x18
80105f5c:	64d1010c 	jal	0x80074590
80105f60:	03360600 	sra	a2,a2,0x18
80105f64:	c53b0408 	j	0x8010ef14
80105f68:	21100000 	move	v0,zero
80105f6c:	bfff6230 	andi	v0,v1,0xffbf
80105f70:	680002a6 	sh	v0,104(s0)
80105f74:	21100000 	move	v0,zero
80105f78:	1800bf8f 	lw	ra,24(sp)
80105f7c:	1400b18f 	lw	s1,20(sp)
80105f80:	1000b08f 	lw	s0,16(sp)
80105f84:	0800e003 	jr	ra
80105f88:	2000bd27 	addiu	sp,sp,32
80105f8c:	d8ffbd27 	addiu	sp,sp,-40
80105f90:	1800b2af 	sw	s2,24(sp)
80105f94:	21908000 	move	s2,a0
80105f98:	0e80043c 	lui	a0,0x800e
80105f9c:	1c00b3af 	sw	s3,28(sp)
80105fa0:	2000bfaf 	sw	ra,32(sp)
80105fa4:	1400b1af 	sw	s1,20(sp)
80105fa8:	1000b0af 	sw	s0,16(sp)
80105fac:	78004392 	lbu	v1,120(s2)
80105fb0:	01001024 	li	s0,1
80105fb4:	52007010 	beq	v1,s0,0x80106100
80105fb8:	807e9324 	addiu	s3,a0,32384
80105fbc:	02006228 	slti	v0,v1,2
80105fc0:	05004010 	beqz	v0,0x80105fd8
80105fc4:	02000224 	li	v0,2
80105fc8:	09006010 	beqz	v1,0x80105ff0
80105fcc:	21100000 	move	v0,zero
80105fd0:	8d3c0408 	j	0x8010f234
80105fd4:	00000000 	nop
80105fd8:	6a006210 	beq	v1,v0,0x80106184
80105fdc:	03000224 	li	v0,3
80105fe0:	74006210 	beq	v1,v0,0x801061b4
80105fe4:	21100000 	move	v0,zero
80105fe8:	8d3c0408 	j	0x8010f234
80105fec:	00000000 	nop
80105ff0:	807e80a0 	sb	zero,32384(a0)
80105ff4:	2e006396 	lhu	v1,46(s3)
80105ff8:	21000224 	li	v0,33
80105ffc:	050062a2 	sb	v0,5(s3)
80106000:	f41e0224 	li	v0,7924
80106004:	060060a2 	sb	zero,6(s3)
80106008:	23104300 	subu	v0,v0,v1
8010600c:	480042a6 	sh	v0,72(s2)
80106010:	36006396 	lhu	v1,54(s3)
80106014:	7a360224 	li	v0,13946
80106018:	23104300 	subu	v0,v0,v1
8010601c:	4c0042a6 	sh	v0,76(s2)
80106020:	4c004286 	lh	v0,76(s2)
80106024:	00000000 	nop
80106028:	18004200 	mult	v0,v0
8010602c:	12180000 	mflo	v1
80106030:	48004286 	lh	v0,72(s2)
80106034:	00000000 	nop
80106038:	18004200 	mult	v0,v0
8010603c:	00d40224 	li	v0,-11264
80106040:	4a0042a6 	sh	v0,74(s2)
80106044:	12400000 	mflo	t0
80106048:	2010020c 	jal	0x80084080
8010604c:	21206800 	addu	a0,v1,t0
80106050:	aa2a043c 	lui	a0,0x2aaa
80106054:	abaa8434 	ori	a0,a0,0xaaab
80106058:	00140200 	sll	v0,v0,0x10
8010605c:	031c0200 	sra	v1,v0,0x10
80106060:	18006400 	mult	v1,a0
80106064:	c3170200 	sra	v0,v0,0x1f
80106068:	10180000 	mfhi	v1
8010606c:	83180300 	sra	v1,v1,0x2
80106070:	23186200 	subu	v1,v1,v0
80106074:	640043a6 	sh	v1,100(s2)
80106078:	001c0300 	sll	v1,v1,0x10
8010607c:	02006014 	bnez	v1,0x80106088
80106080:	00000000 	nop
80106084:	640050a6 	sh	s0,100(s2)
80106088:	64004386 	lh	v1,100(s2)
8010608c:	00100224 	li	v0,4096
80106090:	1a004300 	div	zero,v0,v1
80106094:	02006014 	bnez	v1,0x801060a0
80106098:	00000000 	nop
8010609c:	0d000700 	break	0x7
801060a0:	ffff0124 	li	at,-1
801060a4:	04006114 	bne	v1,at,0x801060b8
801060a8:	0080013c 	lui	at,0x8000
801060ac:	02004114 	bne	v0,at,0x801060b8
801060b0:	00000000 	nop
801060b4:	0d000600 	break	0x6
801060b8:	12180000 	mflo	v1
801060bc:	48004586 	lh	a1,72(s2)
801060c0:	4c004486 	lh	a0,76(s2)
801060c4:	440042a6 	sh	v0,68(s2)
801060c8:	23200400 	negu	a0,a0
801060cc:	a415020c 	jal	0x80085690
801060d0:	640043a6 	sh	v1,100(s2)
801060d4:	21206002 	move	a0,s3
801060d8:	66000524 	li	a1,102
801060dc:	02000624 	li	a2,2
801060e0:	ff0f4230 	andi	v0,v0,0xfff
801060e4:	6b53010c 	jal	0x80054dac
801060e8:	560082a4 	sh	v0,86(a0)
801060ec:	78004292 	lbu	v0,120(s2)
801060f0:	00000000 	nop
801060f4:	01004224 	addiu	v0,v0,1
801060f8:	8c3c0408 	j	0x8010f230
801060fc:	780042a2 	sb	v0,120(s2)
80106100:	4a004286 	lh	v0,74(s2)
80106104:	00000000 	nop
80106108:	21004004 	bltz	v0,0x80106190
8010610c:	000e4228 	slti	v0,v0,3584
80106110:	09006292 	lbu	v0,9(s3)
80106114:	00000000 	nop
80106118:	0c004010 	beqz	v0,0x8010614c
8010611c:	21800000 	move	s0,zero
80106120:	21886002 	move	s1,s3
80106124:	2f000524 	li	a1,47
80106128:	21300002 	move	a2,s0
8010612c:	c000248e 	lw	a0,192(s1)
80106130:	c146010c 	jal	0x80051b04
80106134:	04003126 	addiu	s1,s1,4
80106138:	09006292 	lbu	v0,9(s3)
8010613c:	01001026 	addiu	s0,s0,1
80106140:	2a100202 	slt	v0,s0,v0
80106144:	f7ff4014 	bnez	v0,0x80106124
80106148:	00000000 	nop
8010614c:	21206002 	move	a0,s3
80106150:	67000524 	li	a1,103
80106154:	6b53010c 	jal	0x80054dac
80106158:	04000624 	li	a2,4
8010615c:	21204002 	move	a0,s2
80106160:	cf47040c 	jal	0x80111f3c
80106164:	21280000 	move	a1,zero
80106168:	21204002 	move	a0,s2
8010616c:	cf47040c 	jal	0x80111f3c
80106170:	01000524 	li	a1,1
80106174:	78004292 	lbu	v0,120(s2)
80106178:	00000000 	nop
8010617c:	01004224 	addiu	v0,v0,1
80106180:	780042a2 	sb	v0,120(s2)
80106184:	4a004286 	lh	v0,74(s2)
80106188:	00000000 	nop
8010618c:	000e4228 	slti	v0,v0,3584
80106190:	08004014 	bnez	v0,0x801061b4
80106194:	21206002 	move	a0,s3
80106198:	19000524 	li	a1,25
8010619c:	6b53010c 	jal	0x80054dac
801061a0:	04000624 	li	a2,4
801061a4:	78004292 	lbu	v0,120(s2)
801061a8:	00000000 	nop
801061ac:	01004224 	addiu	v0,v0,1
801061b0:	780042a2 	sb	v0,120(s2)
801061b4:	44004296 	lhu	v0,68(s2)
801061b8:	64004396 	lhu	v1,100(s2)
801061bc:	00000000 	nop
801061c0:	23104300 	subu	v0,v0,v1
801061c4:	440042a6 	sh	v0,68(s2)
801061c8:	00140200 	sll	v0,v0,0x10
801061cc:	0200401c 	bgtz	v0,0x801061d8
801061d0:	00000000 	nop
801061d4:	440040a6 	sh	zero,68(s2)
801061d8:	44004386 	lh	v1,68(s2)
801061dc:	48004286 	lh	v0,72(s2)
801061e0:	00000000 	nop
801061e4:	18006200 	mult	v1,v0
801061e8:	12180000 	mflo	v1
801061ec:	02006104 	bgez	v1,0x801061f8
801061f0:	00000000 	nop
801061f4:	ff0f6324 	addiu	v1,v1,4095
801061f8:	031b0300 	sra	v1,v1,0xc
801061fc:	f41e0224 	li	v0,7924
80106200:	23104300 	subu	v0,v0,v1
80106204:	2e0062a6 	sh	v0,46(s3)
80106208:	44004386 	lh	v1,68(s2)
8010620c:	4c004286 	lh	v0,76(s2)
80106210:	00000000 	nop
80106214:	18006200 	mult	v1,v0
80106218:	12180000 	mflo	v1
8010621c:	02006104 	bgez	v1,0x80106228
80106220:	00000000 	nop
80106224:	ff0f6324 	addiu	v1,v1,4095
80106228:	031b0300 	sra	v1,v1,0xc
8010622c:	7a360224 	li	v0,13946
80106230:	23104300 	subu	v0,v0,v1
80106234:	360062a6 	sh	v0,54(s3)
80106238:	4a004286 	lh	v0,74(s2)
8010623c:	3000638e 	lw	v1,48(s3)
80106240:	00120200 	sll	v0,v0,0x8
80106244:	21186200 	addu	v1,v1,v0
80106248:	300063ae 	sw	v1,48(s3)
8010624c:	4a004296 	lhu	v0,74(s2)
80106250:	00000000 	nop
80106254:	80014224 	addiu	v0,v0,384
80106258:	4a0042a6 	sh	v0,74(s2)
8010625c:	32006286 	lh	v0,50(s3)
80106260:	00000000 	nop
80106264:	2efc4228 	slti	v0,v0,-978
80106268:	02004014 	bnez	v0,0x80106274
8010626c:	2efc0224 	li	v0,-978
80106270:	320062a6 	sh	v0,50(s3)
80106274:	44004286 	lh	v0,68(s2)
80106278:	00000000 	nop
8010627c:	06004014 	bnez	v0,0x80106298
80106280:	21100000 	move	v0,zero
80106284:	32006486 	lh	a0,50(s3)
80106288:	2efc0324 	li	v1,-978
8010628c:	02008310 	beq	a0,v1,0x80106298
80106290:	01000224 	li	v0,1
80106294:	21100000 	move	v0,zero
80106298:	2000bf8f 	lw	ra,32(sp)
8010629c:	1c00b38f 	lw	s3,28(sp)
801062a0:	1800b28f 	lw	s2,24(sp)
801062a4:	1400b18f 	lw	s1,20(sp)
801062a8:	1000b08f 	lw	s0,16(sp)
801062ac:	0800e003 	jr	ra
801062b0:	2800bd27 	addiu	sp,sp,40
801062b4:	0c80023c 	lui	v0,0x800c
801062b8:	41f84290 	lbu	v0,-1983(v0)
801062bc:	e8ffbd27 	addiu	sp,sp,-24
801062c0:	1000b0af 	sw	s0,16(sp)
801062c4:	21808000 	move	s0,a0
801062c8:	06004010 	beqz	v0,0x801062e4
801062cc:	1400bfaf 	sw	ra,20(sp)
801062d0:	01000224 	li	v0,1
801062d4:	9fdf010c 	jal	0x80077e7c
801062d8:	010002a2 	sb	v0,1(s0)
801062dc:	cf3c0408 	j	0x8010f33c
801062e0:	00000000 	nop
801062e4:	05000392 	lbu	v1,5(s0)
801062e8:	00000000 	nop
801062ec:	05006010 	beqz	v1,0x80106304
801062f0:	01000224 	li	v0,1
801062f4:	0c006210 	beq	v1,v0,0x80106328
801062f8:	801f023c 	lui	v0,0x1f80
801062fc:	bc3c0408 	j	0x8010f2f0
80106300:	00000000 	nop
80106304:	0c80023c 	lui	v0,0x800c
80106308:	56fa4290 	lbu	v0,-1450(v0)
8010630c:	00000000 	nop
80106310:	0f004010 	beqz	v0,0x80106350
80106314:	01000224 	li	v0,1
80106318:	050002a2 	sb	v0,5(s0)
8010631c:	21200002 	move	a0,s0
80106320:	b93c0408 	j	0x8010f2e4
80106324:	21284000 	move	a1,v0
80106328:	0c80023c 	lui	v0,0x800c
8010632c:	57fa4290 	lbu	v0,-1449(v0)
80106330:	00000000 	nop
80106334:	06004010 	beqz	v0,0x80106350
80106338:	02000224 	li	v0,2
8010633c:	050002a2 	sb	v0,5(s0)
80106340:	21200002 	move	a0,s0
80106344:	21280000 	move	a1,zero
80106348:	c605010c 	jal	0x80041718
8010634c:	04000624 	li	a2,4
80106350:	801f023c 	lui	v0,0x1f80
80106354:	60014584 	lh	a1,352(v0)
80106358:	801f023c 	lui	v0,0x1f80
8010635c:	64014684 	lh	a2,356(v0)
80106360:	ace0010c 	jal	0x800782b0
80106364:	2c000426 	addiu	a0,s0,44
80106368:	00140200 	sll	v0,v0,0x10
8010636c:	03240200 	sra	a0,v0,0x10
80106370:	56000586 	lh	a1,86(s0)
80106374:	bedd010c 	jal	0x800776f8
80106378:	80000624 	li	a2,128
8010637c:	21200002 	move	a0,s0
80106380:	560002a6 	sh	v0,86(s0)
80106384:	01000224 	li	v0,1
80106388:	9fdf010c 	jal	0x80077e7c
8010638c:	010002a2 	sb	v0,1(s0)
80106390:	4306010c 	jal	0x8004190c
80106394:	21200002 	move	a0,s0
80106398:	3f46010c 	jal	0x800518fc
8010639c:	21200002 	move	a0,s0
801063a0:	1400bf8f 	lw	ra,20(sp)
801063a4:	1000b08f 	lw	s0,16(sp)
801063a8:	0800e003 	jr	ra
801063ac:	1800bd27 	addiu	sp,sp,24
801063b0:	e0ffbd27 	addiu	sp,sp,-32
801063b4:	1000b0af 	sw	s0,16(sp)
801063b8:	21808000 	move	s0,a0
801063bc:	1800bfaf 	sw	ra,24(sp)
801063c0:	1400b1af 	sw	s1,20(sp)
801063c4:	04000392 	lbu	v1,4(s0)
801063c8:	01000224 	li	v0,1
801063cc:	47006210 	beq	v1,v0,0x801064ec
801063d0:	02006228 	slti	v0,v1,2
801063d4:	05004010 	beqz	v0,0x801063ec
801063d8:	00000000 	nop
801063dc:	0a006010 	beqz	v1,0x80106408
801063e0:	21200002 	move	a0,s0
801063e4:	563d0408 	j	0x8010f558
801063e8:	00000000 	nop
801063ec:	02000224 	li	v0,2
801063f0:	72006210 	beq	v1,v0,0x801065bc
801063f4:	03000224 	li	v0,3
801063f8:	6e006210 	beq	v1,v0,0x801065b4
801063fc:	00000000 	nop
80106400:	563d0408 	j	0x8010f558
80106404:	00000000 	nop
80106408:	11000524 	li	a1,17
8010640c:	0f80023c 	lui	v0,0x800f
80106410:	58cf5124 	addiu	s1,v0,-12456
80106414:	5000268e 	lw	a2,80(s1)
80106418:	1180073c 	lui	a3,0x8011
8010641c:	7846010c 	jal	0x800519e0
80106420:	b073e724 	addiu	a3,a3,29616
80106424:	65004014 	bnez	v0,0x801065bc
80106428:	1280053c 	lui	a1,0x8012
8010642c:	21200002 	move	a0,s0
80106430:	80aca524 	addiu	a1,a1,-21376
80106434:	0a80063c 	lui	a2,0x800a
80106438:	04000292 	lbu	v0,4(s0)
8010643c:	183dc624 	addiu	a2,a2,15640
80106440:	01004224 	addiu	v0,v0,1
80106444:	3703010c 	jal	0x80040cdc
80106448:	040002a2 	sb	v0,4(s0)
8010644c:	21200002 	move	a0,s0
80106450:	21280000 	move	a1,zero
80106454:	9000228e 	lw	v0,144(s1)
80106458:	2130a000 	move	a2,a1
8010645c:	c605010c 	jal	0x80041718
80106460:	3c0002ae 	sw	v0,60(s0)
80106464:	60000224 	li	v0,96
80106468:	800002a6 	sh	v0,128(s0)
8010646c:	c0000224 	li	v0,192
80106470:	820002a6 	sh	v0,130(s0)
80106474:	a0000224 	li	v0,160
80106478:	840002a6 	sh	v0,132(s0)
8010647c:	0b000292 	lbu	v0,11(s0)
80106480:	50010324 	li	v1,336
80106484:	860003a6 	sh	v1,134(s0)
80106488:	c0004230 	andi	v0,v0,0xc0
8010648c:	80004234 	ori	v0,v0,0x80
80106490:	0b0002a2 	sb	v0,11(s0)
80106494:	0c80023c 	lui	v0,0x800c
80106498:	71f84390 	lbu	v1,-1935(v0)
8010649c:	04000224 	li	v0,4
801064a0:	0b006214 	bne	v1,v0,0x801064d0
801064a4:	801f023c 	lui	v0,0x1f80
801064a8:	21200002 	move	a0,s0
801064ac:	1180053c 	lui	a1,0x8011
801064b0:	f863a524 	addiu	a1,a1,25592
801064b4:	0e80033c 	lui	v1,0x800e
801064b8:	00080224 	li	v0,2048
801064bc:	5a03010c 	jal	0x80040d68
801064c0:	d67e62a4 	sh	v0,32470(v1)
801064c4:	02000224 	li	v0,2
801064c8:	700002a2 	sb	v0,112(s0)
801064cc:	801f023c 	lui	v0,0x1f80
801064d0:	60014584 	lh	a1,352(v0)
801064d4:	801f023c 	lui	v0,0x1f80
801064d8:	64014684 	lh	a2,356(v0)
801064dc:	ace0010c 	jal	0x800782b0
801064e0:	2c000426 	addiu	a0,s0,44
801064e4:	563d0408 	j	0x8010f558
801064e8:	560002a6 	sh	v0,86(s0)
801064ec:	0c80023c 	lui	v0,0x800c
801064f0:	70f84524 	addiu	a1,v0,-1936
801064f4:	0100a490 	lbu	a0,1(a1)
801064f8:	04000224 	li	v0,4
801064fc:	05008210 	beq	a0,v0,0x80106514
80106500:	05000224 	li	v0,5
80106504:	27008210 	beq	a0,v0,0x801065a4
80106508:	00000000 	nop
8010650c:	563d0408 	j	0x8010f558
80106510:	00000000 	nop
80106514:	e501a290 	lbu	v0,485(a1)
80106518:	00000000 	nop
8010651c:	0200422c 	sltiu	v0,v0,2
80106520:	02004014 	bnez	v0,0x8010652c
80106524:	00000000 	nop
80106528:	010003a2 	sb	v1,1(s0)
8010652c:	05000292 	lbu	v0,5(s0)
80106530:	00000000 	nop
80106534:	0f004014 	bnez	v0,0x80106574
80106538:	00000000 	nop
8010653c:	2604010c 	jal	0x80041098
80106540:	21200002 	move	a0,s0
80106544:	70000392 	lbu	v1,112(s0)
80106548:	ff000224 	li	v0,255
8010654c:	09006214 	bne	v1,v0,0x80106574
80106550:	0c80033c 	lui	v1,0x800c
80106554:	08f86324 	addiu	v1,v1,-2040
80106558:	02000224 	li	v0,2
8010655c:	03000424 	li	a0,3
80106560:	070062a0 	sb	v0,7(v1)
80106564:	05150224 	li	v0,5381
80106568:	310064a0 	sb	a0,49(v1)
8010656c:	320062a4 	sh	v0,50(v1)
80106570:	040004a2 	sb	a0,4(s0)
80106574:	01000292 	lbu	v0,1(s0)
80106578:	00000000 	nop
8010657c:	0f004010 	beqz	v0,0x801065bc
80106580:	00000000 	nop
80106584:	9fdf010c 	jal	0x80077e7c
80106588:	21200002 	move	a0,s0
8010658c:	4306010c 	jal	0x8004190c
80106590:	21200002 	move	a0,s0
80106594:	3f46010c 	jal	0x800518fc
80106598:	21200002 	move	a0,s0
8010659c:	563d0408 	j	0x8010f558
801065a0:	00000000 	nop
801065a4:	943c040c 	jal	0x8010f250
801065a8:	21200002 	move	a0,s0
801065ac:	563d0408 	j	0x8010f558
801065b0:	00000000 	nop
801065b4:	89e9010c 	jal	0x8007a624
801065b8:	21200002 	move	a0,s0
801065bc:	1800bf8f 	lw	ra,24(sp)
801065c0:	1400b18f 	lw	s1,20(sp)
801065c4:	1000b08f 	lw	s0,16(sp)
801065c8:	0800e003 	jr	ra
801065cc:	2000bd27 	addiu	sp,sp,32
801065d0:	e0ffbd27 	addiu	sp,sp,-32
801065d4:	1800b2af 	sw	s2,24(sp)
801065d8:	21908000 	move	s2,a0
801065dc:	1c00bfaf 	sw	ra,28(sp)
801065e0:	1400b1af 	sw	s1,20(sp)
801065e4:	1000b0af 	sw	s0,16(sp)
801065e8:	04005092 	lbu	s0,4(s2)
801065ec:	01001124 	li	s1,1
801065f0:	4f001112 	beq	s0,s1,0x80106730
801065f4:	0200022a 	slti	v0,s0,2
801065f8:	05004010 	beqz	v0,0x80106610
801065fc:	00000000 	nop
80106600:	0a000012 	beqz	s0,0x8010662c
80106604:	21204002 	move	a0,s2
80106608:	8c3e0408 	j	0x8010fa30
8010660c:	00000000 	nop
80106610:	02000224 	li	v0,2
80106614:	1f010212 	beq	s0,v0,0x80106a94
80106618:	03000224 	li	v0,3
8010661c:	1b010212 	beq	s0,v0,0x80106a8c
80106620:	00000000 	nop
80106624:	8c3e0408 	j	0x8010fa30
80106628:	00000000 	nop
8010662c:	12000524 	li	a1,18
80106630:	0f80023c 	lui	v0,0x800f
80106634:	58cf5024 	addiu	s0,v0,-12456
80106638:	1400068e 	lw	a2,20(s0)
8010663c:	0a80073c 	lui	a3,0x800a
80106640:	7846010c 	jal	0x800519e0
80106644:	e843e724 	addiu	a3,a3,17384
80106648:	12014014 	bnez	v0,0x80106a94
8010664c:	8c000224 	li	v0,140
80106650:	1800048e 	lw	a0,24(s0)
80106654:	04004392 	lbu	v1,4(s2)
80106658:	800042a6 	sh	v0,128(s2)
8010665c:	18010224 	li	v0,280
80106660:	820042a6 	sh	v0,130(s2)
80106664:	88000224 	li	v0,136
80106668:	840042a6 	sh	v0,132(s2)
8010666c:	10010224 	li	v0,272
80106670:	860042a6 	sh	v0,134(s2)
80106674:	0c80023c 	lui	v0,0x800c
80106678:	01006324 	addiu	v1,v1,1
8010667c:	3c0044ae 	sw	a0,60(s2)
80106680:	040043a2 	sb	v1,4(s2)
80106684:	71f84390 	lbu	v1,-1935(v0)
80106688:	00000000 	nop
8010668c:	05007110 	beq	v1,s1,0x801066a4
80106690:	05000224 	li	v0,5
80106694:	16006210 	beq	v1,v0,0x801066f0
80106698:	21204002 	move	a0,s2
8010669c:	8c3e0408 	j	0x8010fa30
801066a0:	00000000 	nop
801066a4:	21204002 	move	a0,s2
801066a8:	0280053c 	lui	a1,0x8002
801066ac:	54b3a524 	addiu	a1,a1,-19628
801066b0:	03000624 	li	a2,3
801066b4:	10df010c 	jal	0x80077c40
801066b8:	420040a6 	sh	zero,66(s2)
801066bc:	0e80043c 	lui	a0,0x800e
801066c0:	807e8424 	addiu	a0,a0,32384
801066c4:	e4000524 	li	a1,228
801066c8:	4553010c 	jal	0x80054d14
801066cc:	21300000 	move	a2,zero
801066d0:	50000224 	li	v0,80
801066d4:	2e0042a6 	sh	v0,46(s2)
801066d8:	b0ff0224 	li	v0,-80
801066dc:	360042a6 	sh	v0,54(s2)
801066e0:	801f023c 	lui	v0,0x1f80
801066e4:	320040a6 	sh	zero,50(s2)
801066e8:	8c3e0408 	j	0x8010fa30
801066ec:	480252ac 	sw	s2,584(v0)
801066f0:	0280053c 	lui	a1,0x8002
801066f4:	54b3a524 	addiu	a1,a1,-19628
801066f8:	10df010c 	jal	0x80077c40
801066fc:	05000624 	li	a2,5
80106700:	801f023c 	lui	v0,0x1f80
80106704:	60014584 	lh	a1,352(v0)
80106708:	801f023c 	lui	v0,0x1f80
8010670c:	64014684 	lh	a2,356(v0)
80106710:	ace0010c 	jal	0x800782b0
80106714:	2c004426 	addiu	a0,s2,44
80106718:	0b004392 	lbu	v1,11(s2)
8010671c:	560042a6 	sh	v0,86(s2)
80106720:	c0006330 	andi	v1,v1,0xc0
80106724:	40006334 	ori	v1,v1,0x40
80106728:	8c3e0408 	j	0x8010fa30
8010672c:	0b0043a2 	sb	v1,11(s2)
80106730:	0c80023c 	lui	v0,0x800c
80106734:	41f84290 	lbu	v0,-1983(v0)
80106738:	00000000 	nop
8010673c:	06004010 	beqz	v0,0x80106758
80106740:	00000000 	nop
80106744:	010050a2 	sb	s0,1(s2)
80106748:	9fdf010c 	jal	0x80077e7c
8010674c:	21204002 	move	a0,s2
80106750:	8c3e0408 	j	0x8010fa30
80106754:	00000000 	nop
80106758:	4306010c 	jal	0x8004190c
8010675c:	21204002 	move	a0,s2
80106760:	0c80023c 	lui	v0,0x800c
80106764:	71f84390 	lbu	v1,-1935(v0)
80106768:	00000000 	nop
8010676c:	05007010 	beq	v1,s0,0x80106784
80106770:	05000224 	li	v0,5
80106774:	be006210 	beq	v1,v0,0x80106a70
80106778:	21204002 	move	a0,s2
8010677c:	863e0408 	j	0x8010fa18
80106780:	00000000 	nop
80106784:	05004392 	lbu	v1,5(s2)
80106788:	00000000 	nop
8010678c:	0600622c 	sltiu	v0,v1,6
80106790:	91004010 	beqz	v0,0x801069d8
80106794:	1180023c 	lui	v0,0x8011
80106798:	e0904224 	addiu	v0,v0,-28448
8010679c:	80180300 	sll	v1,v1,0x2
801067a0:	21186200 	addu	v1,v1,v0
801067a4:	0000628c 	lw	v0,0(v1)
801067a8:	00000000 	nop
801067ac:	08004000 	jr	v0
801067b0:	00000000 	nop
801067b4:	0c80023c 	lui	v0,0x800c
801067b8:	55fa4390 	lbu	v1,-1451(v0)
801067bc:	01000224 	li	v0,1
801067c0:	86006214 	bne	v1,v0,0x801069dc
801067c4:	98004426 	addiu	a0,s2,152
801067c8:	ffff0524 	li	a1,-1
801067cc:	05004292 	lbu	v0,5(s2)
801067d0:	42004486 	lh	a0,66(s2)
801067d4:	01004224 	addiu	v0,v0,1
801067d8:	050042a2 	sb	v0,5(s2)
801067dc:	1180023c 	lui	v0,0x8011
801067e0:	7d008510 	beq	a0,a1,0x801069d8
801067e4:	b0644224 	addiu	v0,v0,25776
801067e8:	40180400 	sll	v1,a0,0x1
801067ec:	21186400 	addu	v1,v1,a0
801067f0:	40180300 	sll	v1,v1,0x1
801067f4:	21186200 	addu	v1,v1,v0
801067f8:	00006294 	lhu	v0,0(v1)
801067fc:	00000000 	nop
80106800:	2e0042a6 	sh	v0,46(s2)
80106804:	02006294 	lhu	v0,2(v1)
80106808:	00000000 	nop
8010680c:	320042a6 	sh	v0,50(s2)
80106810:	42004296 	lhu	v0,66(s2)
80106814:	04006394 	lhu	v1,4(v1)
80106818:	01004224 	addiu	v0,v0,1
8010681c:	420042a6 	sh	v0,66(s2)
80106820:	00140200 	sll	v0,v0,0x10
80106824:	03140200 	sra	v0,v0,0x10
80106828:	5a3e0408 	j	0x8010f968
8010682c:	7c014228 	slti	v0,v0,380
80106830:	1180023c 	lui	v0,0x8011
80106834:	42004486 	lh	a0,66(s2)
80106838:	ffff0524 	li	a1,-1
8010683c:	15008510 	beq	a0,a1,0x80106894
80106840:	b0644224 	addiu	v0,v0,25776
80106844:	40180400 	sll	v1,a0,0x1
80106848:	21186400 	addu	v1,v1,a0
8010684c:	40180300 	sll	v1,v1,0x1
80106850:	21186200 	addu	v1,v1,v0
80106854:	00006294 	lhu	v0,0(v1)
80106858:	00000000 	nop
8010685c:	2e0042a6 	sh	v0,46(s2)
80106860:	02006294 	lhu	v0,2(v1)
80106864:	00000000 	nop
80106868:	320042a6 	sh	v0,50(s2)
8010686c:	42004296 	lhu	v0,66(s2)
80106870:	04006394 	lhu	v1,4(v1)
80106874:	01004224 	addiu	v0,v0,1
80106878:	420042a6 	sh	v0,66(s2)
8010687c:	00140200 	sll	v0,v0,0x10
80106880:	03140200 	sra	v0,v0,0x10
80106884:	7c014228 	slti	v0,v0,380
80106888:	02004014 	bnez	v0,0x80106894
8010688c:	360043a6 	sh	v1,54(s2)
80106890:	420045a6 	sh	a1,66(s2)
80106894:	0c80023c 	lui	v0,0x800c
80106898:	55fa4390 	lbu	v1,-1451(v0)
8010689c:	04000224 	li	v0,4
801068a0:	4d006214 	bne	v1,v0,0x801069d8
801068a4:	00000000 	nop
801068a8:	05004292 	lbu	v0,5(s2)
801068ac:	2c3e0408 	j	0x8010f8b0
801068b0:	420040a6 	sh	zero,66(s2)
801068b4:	1180033c 	lui	v1,0x8011
801068b8:	986d6594 	lhu	a1,28056(v1)
801068bc:	986d6324 	addiu	v1,v1,28056
801068c0:	2e0045a6 	sh	a1,46(s2)
801068c4:	02006294 	lhu	v0,2(v1)
801068c8:	2c004426 	addiu	a0,s2,44
801068cc:	320042a6 	sh	v0,50(s2)
801068d0:	04006294 	lhu	v0,4(v1)
801068d4:	002c0500 	sll	a1,a1,0x10
801068d8:	360042a6 	sh	v0,54(s2)
801068dc:	04006684 	lh	a2,4(v1)
801068e0:	ace0010c 	jal	0x800782b0
801068e4:	032c0500 	sra	a1,a1,0x10
801068e8:	05004392 	lbu	v1,5(s2)
801068ec:	560042a6 	sh	v0,86(s2)
801068f0:	01006324 	addiu	v1,v1,1
801068f4:	5d3e0408 	j	0x8010f974
801068f8:	050043a2 	sb	v1,5(s2)
801068fc:	0c80023c 	lui	v0,0x800c
80106900:	55fa4390 	lbu	v1,-1451(v0)
80106904:	05000224 	li	v0,5
80106908:	33006214 	bne	v1,v0,0x801069d8
8010690c:	00000000 	nop
80106910:	05004292 	lbu	v0,5(s2)
80106914:	00000000 	nop
80106918:	01004224 	addiu	v0,v0,1
8010691c:	5d3e0408 	j	0x8010f974
80106920:	050042a2 	sb	v0,5(s2)
80106924:	1180033c 	lui	v1,0x8011
80106928:	42004486 	lh	a0,66(s2)
8010692c:	986d6324 	addiu	v1,v1,28056
80106930:	40100400 	sll	v0,a0,0x1
80106934:	21104400 	addu	v0,v0,a0
80106938:	40100200 	sll	v0,v0,0x1
8010693c:	21104300 	addu	v0,v0,v1
80106940:	00004584 	lh	a1,0(v0)
80106944:	04004684 	lh	a2,4(v0)
80106948:	ace0010c 	jal	0x800782b0
8010694c:	2c004426 	addiu	a0,s2,44
80106950:	42004386 	lh	v1,66(s2)
80106954:	00000000 	nop
80106958:	dd006328 	slti	v1,v1,221
8010695c:	05006014 	bnez	v1,0x80106974
80106960:	560042a6 	sh	v0,86(s2)
80106964:	05004292 	lbu	v0,5(s2)
80106968:	00000000 	nop
8010696c:	01004224 	addiu	v0,v0,1
80106970:	050042a2 	sb	v0,5(s2)
80106974:	1180023c 	lui	v0,0x8011
80106978:	42004486 	lh	a0,66(s2)
8010697c:	ffff0524 	li	a1,-1
80106980:	15008510 	beq	a0,a1,0x801069d8
80106984:	986d4224 	addiu	v0,v0,28056
80106988:	40180400 	sll	v1,a0,0x1
8010698c:	21186400 	addu	v1,v1,a0
80106990:	40180300 	sll	v1,v1,0x1
80106994:	21186200 	addu	v1,v1,v0
80106998:	00006294 	lhu	v0,0(v1)
8010699c:	00000000 	nop
801069a0:	2e0042a6 	sh	v0,46(s2)
801069a4:	02006294 	lhu	v0,2(v1)
801069a8:	00000000 	nop
801069ac:	320042a6 	sh	v0,50(s2)
801069b0:	42004296 	lhu	v0,66(s2)
801069b4:	04006394 	lhu	v1,4(v1)
801069b8:	01004224 	addiu	v0,v0,1
801069bc:	420042a6 	sh	v0,66(s2)
801069c0:	00140200 	sll	v0,v0,0x10
801069c4:	03140200 	sra	v0,v0,0x10
801069c8:	f0004228 	slti	v0,v0,240
801069cc:	02004014 	bnez	v0,0x801069d8
801069d0:	360043a6 	sh	v1,54(s2)
801069d4:	420045a6 	sh	a1,66(s2)
801069d8:	98004426 	addiu	a0,s2,152
801069dc:	801f033c 	lui	v1,0x1f80
801069e0:	c0006524 	addiu	a1,v1,192
801069e4:	801f113c 	lui	s1,0x1f80
801069e8:	a0003026 	addiu	s0,s1,160
801069ec:	21300002 	move	a2,s0
801069f0:	fbff0224 	li	v0,-5
801069f4:	c00062a4 	sh	v0,192(v1)
801069f8:	92ff0224 	li	v0,-110
801069fc:	0200a2a4 	sh	v0,2(a1)
80106a00:	1c11020c 	jal	0x80084470
80106a04:	0400a0a4 	sh	zero,4(a1)
80106a08:	21204002 	move	a0,s2
80106a0c:	0e80063c 	lui	a2,0x800e
80106a10:	2e004396 	lhu	v1,46(s2)
80106a14:	a0002296 	lhu	v0,160(s1)
80106a18:	807ec624 	addiu	a2,a2,32384
80106a1c:	21186200 	addu	v1,v1,v0
80106a20:	2e00c3a4 	sh	v1,46(a2)
80106a24:	32004596 	lhu	a1,50(s2)
80106a28:	04000796 	lhu	a3,4(s0)
80106a2c:	801f023c 	lui	v0,0x1f80
80106a30:	600143a4 	sh	v1,352(v0)
80106a34:	2128a700 	addu	a1,a1,a3
80106a38:	3200c5a4 	sh	a1,50(a2)
80106a3c:	36004396 	lhu	v1,54(s2)
80106a40:	08000796 	lhu	a3,8(s0)
80106a44:	801f023c 	lui	v0,0x1f80
80106a48:	620145a4 	sh	a1,354(v0)
80106a4c:	21186700 	addu	v1,v1,a3
80106a50:	3600c3a4 	sh	v1,54(a2)
80106a54:	56004596 	lhu	a1,86(s2)
80106a58:	801f023c 	lui	v0,0x1f80
80106a5c:	640143a4 	sh	v1,356(v0)
80106a60:	01000224 	li	v0,1
80106a64:	5600c5a4 	sh	a1,86(a2)
80106a68:	843e0408 	j	0x8010fa10
80106a6c:	010042a2 	sb	v0,1(s2)
80106a70:	010050a2 	sb	s0,1(s2)
80106a74:	9fdf010c 	jal	0x80077e7c
80106a78:	00000000 	nop
80106a7c:	3f46010c 	jal	0x800518fc
80106a80:	21204002 	move	a0,s2
80106a84:	8c3e0408 	j	0x8010fa30
80106a88:	00000000 	nop
80106a8c:	89e9010c 	jal	0x8007a624
80106a90:	21204002 	move	a0,s2
80106a94:	1c00bf8f 	lw	ra,28(sp)
80106a98:	1800b28f 	lw	s2,24(sp)
80106a9c:	1400b18f 	lw	s1,20(sp)
80106aa0:	1000b08f 	lw	s0,16(sp)
80106aa4:	0800e003 	jr	ra
80106aa8:	2000bd27 	addiu	sp,sp,32
80106aac:	e0ffbd27 	addiu	sp,sp,-32
80106ab0:	1000b0af 	sw	s0,16(sp)
80106ab4:	21808000 	move	s0,a0
80106ab8:	1800bfaf 	sw	ra,24(sp)
80106abc:	1400b1af 	sw	s1,20(sp)
80106ac0:	04000492 	lbu	a0,4(s0)
80106ac4:	01000224 	li	v0,1
80106ac8:	3f008210 	beq	a0,v0,0x80106bc8
80106acc:	02008228 	slti	v0,a0,2
80106ad0:	05004010 	beqz	v0,0x80106ae8
80106ad4:	00000000 	nop
80106ad8:	0a008010 	beqz	a0,0x80106b04
80106adc:	21200002 	move	a0,s0
80106ae0:	113f0408 	j	0x8010fc44
80106ae4:	00000000 	nop
80106ae8:	02000224 	li	v0,2
80106aec:	6e008210 	beq	a0,v0,0x80106ca8
80106af0:	03000224 	li	v0,3
80106af4:	6a008210 	beq	a0,v0,0x80106ca0
80106af8:	00000000 	nop
80106afc:	113f0408 	j	0x8010fc44
80106b00:	00000000 	nop
80106b04:	0f000524 	li	a1,15
80106b08:	0f80023c 	lui	v0,0x800f
80106b0c:	58cf5124 	addiu	s1,v0,-12456
80106b10:	7c00268e 	lw	a2,124(s1)
80106b14:	1180073c 	lui	a3,0x8011
80106b18:	7846010c 	jal	0x800519e0
80106b1c:	f077e724 	addiu	a3,a3,30704
80106b20:	61004014 	bnez	v0,0x80106ca8
80106b24:	00000000 	nop
80106b28:	3800228e 	lw	v0,56(s1)
80106b2c:	00000000 	nop
80106b30:	3c0002ae 	sw	v0,60(s0)
80106b34:	0c80023c 	lui	v0,0x800c
80106b38:	71f84390 	lbu	v1,-1935(v0)
80106b3c:	04000224 	li	v0,4
80106b40:	05006214 	bne	v1,v0,0x80106b58
80106b44:	21200002 	move	a0,s0
80106b48:	1280053c 	lui	a1,0x8012
80106b4c:	38a7a524 	addiu	a1,a1,-22728
80106b50:	c03e0408 	j	0x8010fb00
80106b54:	11000624 	li	a2,17
80106b58:	1280053c 	lui	a1,0x8012
80106b5c:	38a7a524 	addiu	a1,a1,-22728
80106b60:	02000624 	li	a2,2
80106b64:	10df010c 	jal	0x80077c40
80106b68:	00000000 	nop
80106b6c:	2c000426 	addiu	a0,s0,44
80106b70:	80000224 	li	v0,128
80106b74:	800002a6 	sh	v0,128(s0)
80106b78:	00010224 	li	v0,256
80106b7c:	820002a6 	sh	v0,130(s0)
80106b80:	e0000224 	li	v0,224
80106b84:	840002a6 	sh	v0,132(s0)
80106b88:	04000292 	lbu	v0,4(s0)
80106b8c:	0b000392 	lbu	v1,11(s0)
80106b90:	01004224 	addiu	v0,v0,1
80106b94:	c0006330 	andi	v1,v1,0xc0
80106b98:	80006334 	ori	v1,v1,0x80
80106b9c:	040002a2 	sb	v0,4(s0)
80106ba0:	801f023c 	lui	v0,0x1f80
80106ba4:	0b0003a2 	sb	v1,11(s0)
80106ba8:	60014584 	lh	a1,352(v0)
80106bac:	801f023c 	lui	v0,0x1f80
80106bb0:	64014684 	lh	a2,356(v0)
80106bb4:	80010224 	li	v0,384
80106bb8:	ace0010c 	jal	0x800782b0
80106bbc:	860002a6 	sh	v0,134(s0)
80106bc0:	113f0408 	j	0x8010fc44
80106bc4:	560002a6 	sh	v0,86(s0)
80106bc8:	0c80023c 	lui	v0,0x800c
80106bcc:	70f84524 	addiu	a1,v0,-1936
80106bd0:	0100a390 	lbu	v1,1(a1)
80106bd4:	04000224 	li	v0,4
80106bd8:	0e006214 	bne	v1,v0,0x80106c14
80106bdc:	0c80023c 	lui	v0,0x800c
80106be0:	05000292 	lbu	v0,5(s0)
80106be4:	00000000 	nop
80106be8:	2f004014 	bnez	v0,0x80106ca8
80106bec:	00000000 	nop
80106bf0:	e501a290 	lbu	v0,485(a1)
80106bf4:	00000000 	nop
80106bf8:	0200422c 	sltiu	v0,v0,2
80106bfc:	03004014 	bnez	v0,0x80106c0c
80106c00:	00000000 	nop
80106c04:	113f0408 	j	0x8010fc44
80106c08:	050004a2 	sb	a0,5(s0)
80106c0c:	073f0408 	j	0x8010fc1c
80106c10:	010004a2 	sb	a0,1(s0)
80106c14:	41f84290 	lbu	v0,-1983(v0)
80106c18:	00000000 	nop
80106c1c:	06004010 	beqz	v0,0x80106c38
80106c20:	00000000 	nop
80106c24:	010004a2 	sb	a0,1(s0)
80106c28:	9fdf010c 	jal	0x80077e7c
80106c2c:	21200002 	move	a0,s0
80106c30:	113f0408 	j	0x8010fc44
80106c34:	00000000 	nop
80106c38:	05000292 	lbu	v0,5(s0)
80106c3c:	00000000 	nop
80106c40:	0e004014 	bnez	v0,0x80106c7c
80106c44:	01000224 	li	v0,1
80106c48:	e701a290 	lbu	v0,487(a1)
80106c4c:	00000000 	nop
80106c50:	0300422c 	sltiu	v0,v0,3
80106c54:	09004014 	bnez	v0,0x80106c7c
80106c58:	01000224 	li	v0,1
80106c5c:	050004a2 	sb	a0,5(s0)
80106c60:	21200002 	move	a0,s0
80106c64:	1280053c 	lui	a1,0x8012
80106c68:	38a7a524 	addiu	a1,a1,-22728
80106c6c:	11000624 	li	a2,17
80106c70:	3fdf010c 	jal	0x80077cfc
80106c74:	04000724 	li	a3,4
80106c78:	01000224 	li	v0,1
80106c7c:	010002a2 	sb	v0,1(s0)
80106c80:	9fdf010c 	jal	0x80077e7c
80106c84:	21200002 	move	a0,s0
80106c88:	4306010c 	jal	0x8004190c
80106c8c:	21200002 	move	a0,s0
80106c90:	3f46010c 	jal	0x800518fc
80106c94:	21200002 	move	a0,s0
80106c98:	113f0408 	j	0x8010fc44
80106c9c:	00000000 	nop
80106ca0:	89e9010c 	jal	0x8007a624
80106ca4:	21200002 	move	a0,s0
80106ca8:	1800bf8f 	lw	ra,24(sp)
80106cac:	1400b18f 	lw	s1,20(sp)
80106cb0:	1000b08f 	lw	s0,16(sp)
80106cb4:	0800e003 	jr	ra
80106cb8:	2000bd27 	addiu	sp,sp,32
80106cbc:	e0ffbd27 	addiu	sp,sp,-32
80106cc0:	1000b0af 	sw	s0,16(sp)
80106cc4:	21808000 	move	s0,a0
80106cc8:	1800bfaf 	sw	ra,24(sp)
80106ccc:	1400b1af 	sw	s1,20(sp)
80106cd0:	04000392 	lbu	v1,4(s0)
80106cd4:	01000224 	li	v0,1
80106cd8:	34006210 	beq	v1,v0,0x80106dac
80106cdc:	02006228 	slti	v0,v1,2
80106ce0:	05004010 	beqz	v0,0x80106cf8
80106ce4:	00000000 	nop
80106ce8:	0a006010 	beqz	v1,0x80106d14
80106cec:	21200002 	move	a0,s0
80106cf0:	683f0408 	j	0x8010fda0
80106cf4:	00000000 	nop
80106cf8:	02000224 	li	v0,2
80106cfc:	41006210 	beq	v1,v0,0x80106e04
80106d00:	03000224 	li	v0,3
80106d04:	3d006210 	beq	v1,v0,0x80106dfc
80106d08:	00000000 	nop
80106d0c:	683f0408 	j	0x8010fda0
80106d10:	00000000 	nop
80106d14:	11000524 	li	a1,17
80106d18:	0f80023c 	lui	v0,0x800f
80106d1c:	58cf5124 	addiu	s1,v0,-12456
80106d20:	5400268e 	lw	a2,84(s1)
80106d24:	1180073c 	lui	a3,0x8011
80106d28:	7846010c 	jal	0x800519e0
80106d2c:	a074e724 	addiu	a3,a3,29856
80106d30:	34004014 	bnez	v0,0x80106e04
80106d34:	1280053c 	lui	a1,0x8012
80106d38:	21200002 	move	a0,s0
80106d3c:	acaea524 	addiu	a1,a1,-20820
80106d40:	8c00228e 	lw	v0,140(s1)
80106d44:	01000624 	li	a2,1
80106d48:	10df010c 	jal	0x80077c40
80106d4c:	3c0002ae 	sw	v0,60(s0)
80106d50:	2c000426 	addiu	a0,s0,44
80106d54:	80000224 	li	v0,128
80106d58:	800002a6 	sh	v0,128(s0)
80106d5c:	00010224 	li	v0,256
80106d60:	820002a6 	sh	v0,130(s0)
80106d64:	a0000224 	li	v0,160
80106d68:	840002a6 	sh	v0,132(s0)
80106d6c:	04000292 	lbu	v0,4(s0)
80106d70:	0b000392 	lbu	v1,11(s0)
80106d74:	01004224 	addiu	v0,v0,1
80106d78:	c0006330 	andi	v1,v1,0xc0
80106d7c:	80006334 	ori	v1,v1,0x80
80106d80:	040002a2 	sb	v0,4(s0)
80106d84:	801f023c 	lui	v0,0x1f80
80106d88:	0b0003a2 	sb	v1,11(s0)
80106d8c:	60014584 	lh	a1,352(v0)
80106d90:	801f023c 	lui	v0,0x1f80
80106d94:	64014684 	lh	a2,356(v0)
80106d98:	30010224 	li	v0,304
80106d9c:	ace0010c 	jal	0x800782b0
80106da0:	860002a6 	sh	v0,134(s0)
80106da4:	683f0408 	j	0x8010fda0
80106da8:	560002a6 	sh	v0,86(s0)
80106dac:	05000292 	lbu	v0,5(s0)
80106db0:	00000000 	nop
80106db4:	13004014 	bnez	v0,0x80106e04
80106db8:	0c80023c 	lui	v0,0x800c
80106dbc:	55fa4290 	lbu	v0,-1451(v0)
80106dc0:	00000000 	nop
80106dc4:	0200422c 	sltiu	v0,v0,2
80106dc8:	03004014 	bnez	v0,0x80106dd8
80106dcc:	00000000 	nop
80106dd0:	683f0408 	j	0x8010fda0
80106dd4:	050003a2 	sb	v1,5(s0)
80106dd8:	010003a2 	sb	v1,1(s0)
80106ddc:	9fdf010c 	jal	0x80077e7c
80106de0:	21200002 	move	a0,s0
80106de4:	4306010c 	jal	0x8004190c
80106de8:	21200002 	move	a0,s0
80106dec:	3f46010c 	jal	0x800518fc
80106df0:	21200002 	move	a0,s0
80106df4:	683f0408 	j	0x8010fda0
80106df8:	00000000 	nop
80106dfc:	89e9010c 	jal	0x8007a624
80106e00:	21200002 	move	a0,s0
80106e04:	1800bf8f 	lw	ra,24(sp)
80106e08:	1400b18f 	lw	s1,20(sp)
80106e0c:	1000b08f 	lw	s0,16(sp)
80106e10:	0800e003 	jr	ra
80106e14:	2000bd27 	addiu	sp,sp,32
80106e18:	e0ffbd27 	addiu	sp,sp,-32
80106e1c:	1000b0af 	sw	s0,16(sp)
80106e20:	21808000 	move	s0,a0
80106e24:	1800bfaf 	sw	ra,24(sp)
80106e28:	1400b1af 	sw	s1,20(sp)
80106e2c:	04000392 	lbu	v1,4(s0)
80106e30:	01000224 	li	v0,1
80106e34:	34006210 	beq	v1,v0,0x80106f08
80106e38:	02006228 	slti	v0,v1,2
80106e3c:	05004010 	beqz	v0,0x80106e54
80106e40:	00000000 	nop
80106e44:	0a006010 	beqz	v1,0x80106e70
80106e48:	21200002 	move	a0,s0
80106e4c:	bf3f0408 	j	0x8010fefc
80106e50:	00000000 	nop
80106e54:	02000224 	li	v0,2
80106e58:	41006210 	beq	v1,v0,0x80106f60
80106e5c:	03000224 	li	v0,3
80106e60:	3d006210 	beq	v1,v0,0x80106f58
80106e64:	00000000 	nop
80106e68:	bf3f0408 	j	0x8010fefc
80106e6c:	00000000 	nop
80106e70:	0f000524 	li	a1,15
80106e74:	0f80023c 	lui	v0,0x800f
80106e78:	58cf5124 	addiu	s1,v0,-12456
80106e7c:	7400268e 	lw	a2,116(s1)
80106e80:	1180073c 	lui	a3,0x8011
80106e84:	7846010c 	jal	0x800519e0
80106e88:	9075e724 	addiu	a3,a3,30096
80106e8c:	34004014 	bnez	v0,0x80106f60
80106e90:	1280053c 	lui	a1,0x8012
80106e94:	21200002 	move	a0,s0
80106e98:	38a7a524 	addiu	a1,a1,-22728
80106e9c:	3800228e 	lw	v0,56(s1)
80106ea0:	07000624 	li	a2,7
80106ea4:	10df010c 	jal	0x80077c40
80106ea8:	3c0002ae 	sw	v0,60(s0)
80106eac:	2c000426 	addiu	a0,s0,44
80106eb0:	5a000224 	li	v0,90
80106eb4:	800002a6 	sh	v0,128(s0)
80106eb8:	b4000224 	li	v0,180
80106ebc:	820002a6 	sh	v0,130(s0)
80106ec0:	80000224 	li	v0,128
80106ec4:	840002a6 	sh	v0,132(s0)
80106ec8:	04000292 	lbu	v0,4(s0)
80106ecc:	0b000392 	lbu	v1,11(s0)
80106ed0:	01004224 	addiu	v0,v0,1
80106ed4:	c0006330 	andi	v1,v1,0xc0
80106ed8:	80006334 	ori	v1,v1,0x80
80106edc:	040002a2 	sb	v0,4(s0)
80106ee0:	801f023c 	lui	v0,0x1f80
80106ee4:	0b0003a2 	sb	v1,11(s0)
80106ee8:	60014584 	lh	a1,352(v0)
80106eec:	801f023c 	lui	v0,0x1f80
80106ef0:	64014684 	lh	a2,356(v0)
80106ef4:	e0000224 	li	v0,224
80106ef8:	ace0010c 	jal	0x800782b0
80106efc:	860002a6 	sh	v0,134(s0)
80106f00:	bf3f0408 	j	0x8010fefc
80106f04:	560002a6 	sh	v0,86(s0)
80106f08:	05000292 	lbu	v0,5(s0)
80106f0c:	00000000 	nop
80106f10:	13004014 	bnez	v0,0x80106f60
80106f14:	0c80023c 	lui	v0,0x800c
80106f18:	55fa4290 	lbu	v0,-1451(v0)
80106f1c:	00000000 	nop
80106f20:	0200422c 	sltiu	v0,v0,2
80106f24:	03004014 	bnez	v0,0x80106f34
80106f28:	00000000 	nop
80106f2c:	bf3f0408 	j	0x8010fefc
80106f30:	050003a2 	sb	v1,5(s0)
80106f34:	010003a2 	sb	v1,1(s0)
80106f38:	9fdf010c 	jal	0x80077e7c
80106f3c:	21200002 	move	a0,s0
80106f40:	4306010c 	jal	0x8004190c
80106f44:	21200002 	move	a0,s0
80106f48:	3f46010c 	jal	0x800518fc
80106f4c:	21200002 	move	a0,s0
80106f50:	bf3f0408 	j	0x8010fefc
80106f54:	00000000 	nop
80106f58:	89e9010c 	jal	0x8007a624
80106f5c:	21200002 	move	a0,s0
80106f60:	1800bf8f 	lw	ra,24(sp)
80106f64:	1400b18f 	lw	s1,20(sp)
80106f68:	1000b08f 	lw	s0,16(sp)
80106f6c:	0800e003 	jr	ra
80106f70:	2000bd27 	addiu	sp,sp,32
80106f74:	e0ffbd27 	addiu	sp,sp,-32
80106f78:	1400b1af 	sw	s1,20(sp)
80106f7c:	21888000 	move	s1,a0
80106f80:	1800bfaf 	sw	ra,24(sp)
80106f84:	1000b0af 	sw	s0,16(sp)
80106f88:	04003092 	lbu	s0,4(s1)
80106f8c:	01000224 	li	v0,1
80106f90:	34000212 	beq	s0,v0,0x80107064
80106f94:	0200022a 	slti	v0,s0,2
80106f98:	05004010 	beqz	v0,0x80106fb0
80106f9c:	00000000 	nop
80106fa0:	0a000012 	beqz	s0,0x80106fcc
80106fa4:	21202002 	move	a0,s1
80106fa8:	20400408 	j	0x80110080
80106fac:	00000000 	nop
80106fb0:	02000224 	li	v0,2
80106fb4:	4b000212 	beq	s0,v0,0x801070e4
80106fb8:	03000224 	li	v0,3
80106fbc:	47000212 	beq	s0,v0,0x801070dc
80106fc0:	00000000 	nop
80106fc4:	20400408 	j	0x80110080
80106fc8:	00000000 	nop
80106fcc:	0f000524 	li	a1,15
80106fd0:	0f80023c 	lui	v0,0x800f
80106fd4:	58cf5024 	addiu	s0,v0,-12456
80106fd8:	6800068e 	lw	a2,104(s0)
80106fdc:	1180073c 	lui	a3,0x8011
80106fe0:	7846010c 	jal	0x800519e0
80106fe4:	8876e724 	addiu	a3,a3,30344
80106fe8:	3e004014 	bnez	v0,0x801070e4
80106fec:	1280053c 	lui	a1,0x8012
80106ff0:	21202002 	move	a0,s1
80106ff4:	38a7a524 	addiu	a1,a1,-22728
80106ff8:	3800028e 	lw	v0,56(s0)
80106ffc:	03000624 	li	a2,3
80107000:	10df010c 	jal	0x80077c40
80107004:	3c0022ae 	sw	v0,60(s1)
80107008:	2c002426 	addiu	a0,s1,44
8010700c:	60000224 	li	v0,96
80107010:	800022a6 	sh	v0,128(s1)
80107014:	c0000224 	li	v0,192
80107018:	820022a6 	sh	v0,130(s1)
8010701c:	80000224 	li	v0,128
80107020:	840022a6 	sh	v0,132(s1)
80107024:	04002292 	lbu	v0,4(s1)
80107028:	0b002392 	lbu	v1,11(s1)
8010702c:	01004224 	addiu	v0,v0,1
80107030:	c0006330 	andi	v1,v1,0xc0
80107034:	80006334 	ori	v1,v1,0x80
80107038:	040022a2 	sb	v0,4(s1)
8010703c:	801f023c 	lui	v0,0x1f80
80107040:	0b0023a2 	sb	v1,11(s1)
80107044:	60014584 	lh	a1,352(v0)
80107048:	801f023c 	lui	v0,0x1f80
8010704c:	64014684 	lh	a2,356(v0)
80107050:	00010224 	li	v0,256
80107054:	ace0010c 	jal	0x800782b0
80107058:	860022a6 	sh	v0,134(s1)
8010705c:	20400408 	j	0x80110080
80107060:	560022a6 	sh	v0,86(s1)
80107064:	0c80023c 	lui	v0,0x800c
80107068:	41f84290 	lbu	v0,-1983(v0)
8010706c:	00000000 	nop
80107070:	06004010 	beqz	v0,0x8010708c
80107074:	801f023c 	lui	v0,0x1f80
80107078:	010030a2 	sb	s0,1(s1)
8010707c:	9fdf010c 	jal	0x80077e7c
80107080:	21202002 	move	a0,s1
80107084:	20400408 	j	0x80110080
80107088:	00000000 	nop
8010708c:	60014584 	lh	a1,352(v0)
80107090:	801f023c 	lui	v0,0x1f80
80107094:	64014684 	lh	a2,356(v0)
80107098:	ace0010c 	jal	0x800782b0
8010709c:	2c002426 	addiu	a0,s1,44
801070a0:	00140200 	sll	v0,v0,0x10
801070a4:	03240200 	sra	a0,v0,0x10
801070a8:	56002586 	lh	a1,86(s1)
801070ac:	bedd010c 	jal	0x800776f8
801070b0:	80000624 	li	a2,128
801070b4:	21202002 	move	a0,s1
801070b8:	560022a6 	sh	v0,86(s1)
801070bc:	9fdf010c 	jal	0x80077e7c
801070c0:	010030a2 	sb	s0,1(s1)
801070c4:	4306010c 	jal	0x8004190c
801070c8:	21202002 	move	a0,s1
801070cc:	3f46010c 	jal	0x800518fc
801070d0:	21202002 	move	a0,s1
801070d4:	20400408 	j	0x80110080
801070d8:	00000000 	nop
801070dc:	89e9010c 	jal	0x8007a624
801070e0:	21202002 	move	a0,s1
801070e4:	1800bf8f 	lw	ra,24(sp)
801070e8:	1400b18f 	lw	s1,20(sp)
801070ec:	1000b08f 	lw	s0,16(sp)
801070f0:	0800e003 	jr	ra
801070f4:	2000bd27 	addiu	sp,sp,32
801070f8:	e0ffbd27 	addiu	sp,sp,-32
801070fc:	1400b1af 	sw	s1,20(sp)
80107100:	21888000 	move	s1,a0
80107104:	1800bfaf 	sw	ra,24(sp)
80107108:	1000b0af 	sw	s0,16(sp)
8010710c:	04003092 	lbu	s0,4(s1)
80107110:	01000224 	li	v0,1
80107114:	34000212 	beq	s0,v0,0x801071e8
80107118:	0200022a 	slti	v0,s0,2
8010711c:	05004010 	beqz	v0,0x80107134
80107120:	00000000 	nop
80107124:	0a000012 	beqz	s0,0x80107150
80107128:	21202002 	move	a0,s1
8010712c:	81400408 	j	0x80110204
80107130:	00000000 	nop
80107134:	02000224 	li	v0,2
80107138:	4b000212 	beq	s0,v0,0x80107268
8010713c:	03000224 	li	v0,3
80107140:	47000212 	beq	s0,v0,0x80107260
80107144:	00000000 	nop
80107148:	81400408 	j	0x80110204
8010714c:	00000000 	nop
80107150:	0f000524 	li	a1,15
80107154:	0f80023c 	lui	v0,0x800f
80107158:	58cf5024 	addiu	s0,v0,-12456
8010715c:	6c00068e 	lw	a2,108(s0)
80107160:	1180073c 	lui	a3,0x8011
80107164:	7846010c 	jal	0x800519e0
80107168:	1076e724 	addiu	a3,a3,30224
8010716c:	3e004014 	bnez	v0,0x80107268
80107170:	1280053c 	lui	a1,0x8012
80107174:	21202002 	move	a0,s1
80107178:	38a7a524 	addiu	a1,a1,-22728
8010717c:	3800028e 	lw	v0,56(s0)
80107180:	01000624 	li	a2,1
80107184:	10df010c 	jal	0x80077c40
80107188:	3c0022ae 	sw	v0,60(s1)
8010718c:	2c002426 	addiu	a0,s1,44
80107190:	60000224 	li	v0,96
80107194:	800022a6 	sh	v0,128(s1)
80107198:	c0000224 	li	v0,192
8010719c:	820022a6 	sh	v0,130(s1)
801071a0:	80000224 	li	v0,128
801071a4:	840022a6 	sh	v0,132(s1)
801071a8:	04002292 	lbu	v0,4(s1)
801071ac:	0b002392 	lbu	v1,11(s1)
801071b0:	01004224 	addiu	v0,v0,1
801071b4:	c0006330 	andi	v1,v1,0xc0
801071b8:	80006334 	ori	v1,v1,0x80
801071bc:	040022a2 	sb	v0,4(s1)
801071c0:	801f023c 	lui	v0,0x1f80
801071c4:	0b0023a2 	sb	v1,11(s1)
801071c8:	60014584 	lh	a1,352(v0)
801071cc:	801f023c 	lui	v0,0x1f80
801071d0:	64014684 	lh	a2,356(v0)
801071d4:	e0000224 	li	v0,224
801071d8:	ace0010c 	jal	0x800782b0
801071dc:	860022a6 	sh	v0,134(s1)
801071e0:	81400408 	j	0x80110204
801071e4:	560022a6 	sh	v0,86(s1)
801071e8:	0c80023c 	lui	v0,0x800c
801071ec:	41f84290 	lbu	v0,-1983(v0)
801071f0:	00000000 	nop
801071f4:	06004010 	beqz	v0,0x80107210
801071f8:	801f023c 	lui	v0,0x1f80
801071fc:	010030a2 	sb	s0,1(s1)
80107200:	9fdf010c 	jal	0x80077e7c
80107204:	21202002 	move	a0,s1
80107208:	81400408 	j	0x80110204
8010720c:	00000000 	nop
80107210:	60014584 	lh	a1,352(v0)
80107214:	801f023c 	lui	v0,0x1f80
80107218:	64014684 	lh	a2,356(v0)
8010721c:	ace0010c 	jal	0x800782b0
80107220:	2c002426 	addiu	a0,s1,44
80107224:	00140200 	sll	v0,v0,0x10
80107228:	03240200 	sra	a0,v0,0x10
8010722c:	56002586 	lh	a1,86(s1)
80107230:	bedd010c 	jal	0x800776f8
80107234:	80000624 	li	a2,128
80107238:	21202002 	move	a0,s1
8010723c:	560022a6 	sh	v0,86(s1)
80107240:	9fdf010c 	jal	0x80077e7c
80107244:	010030a2 	sb	s0,1(s1)
80107248:	4306010c 	jal	0x8004190c
8010724c:	21202002 	move	a0,s1
80107250:	3f46010c 	jal	0x800518fc
80107254:	21202002 	move	a0,s1
80107258:	81400408 	j	0x80110204
8010725c:	00000000 	nop
80107260:	89e9010c 	jal	0x8007a624
80107264:	21202002 	move	a0,s1
80107268:	1800bf8f 	lw	ra,24(sp)
8010726c:	1400b18f 	lw	s1,20(sp)
80107270:	1000b08f 	lw	s0,16(sp)
80107274:	0800e003 	jr	ra
80107278:	2000bd27 	addiu	sp,sp,32
8010727c:	e0ffbd27 	addiu	sp,sp,-32
80107280:	1400b1af 	sw	s1,20(sp)
80107284:	21888000 	move	s1,a0
80107288:	1800bfaf 	sw	ra,24(sp)
8010728c:	1000b0af 	sw	s0,16(sp)
80107290:	04003092 	lbu	s0,4(s1)
80107294:	01000224 	li	v0,1
80107298:	34000212 	beq	s0,v0,0x8010736c
8010729c:	0200022a 	slti	v0,s0,2
801072a0:	05004010 	beqz	v0,0x801072b8
801072a4:	00000000 	nop
801072a8:	0a000012 	beqz	s0,0x801072d4
801072ac:	21202002 	move	a0,s1
801072b0:	e2400408 	j	0x80110388
801072b4:	00000000 	nop
801072b8:	02000224 	li	v0,2
801072bc:	4b000212 	beq	s0,v0,0x801073ec
801072c0:	03000224 	li	v0,3
801072c4:	47000212 	beq	s0,v0,0x801073e4
801072c8:	00000000 	nop
801072cc:	e2400408 	j	0x80110388
801072d0:	00000000 	nop
801072d4:	0f000524 	li	a1,15
801072d8:	0f80023c 	lui	v0,0x800f
801072dc:	58cf5024 	addiu	s0,v0,-12456
801072e0:	7000068e 	lw	a2,112(s0)
801072e4:	1180073c 	lui	a3,0x8011
801072e8:	7846010c 	jal	0x800519e0
801072ec:	0077e724 	addiu	a3,a3,30464
801072f0:	3e004014 	bnez	v0,0x801073ec
801072f4:	1280053c 	lui	a1,0x8012
801072f8:	21202002 	move	a0,s1
801072fc:	38a7a524 	addiu	a1,a1,-22728
80107300:	3800028e 	lw	v0,56(s0)
80107304:	21300000 	move	a2,zero
80107308:	10df010c 	jal	0x80077c40
8010730c:	3c0022ae 	sw	v0,60(s1)
80107310:	2c002426 	addiu	a0,s1,44
80107314:	60000224 	li	v0,96
80107318:	800022a6 	sh	v0,128(s1)
8010731c:	c0000224 	li	v0,192
80107320:	820022a6 	sh	v0,130(s1)
80107324:	80000224 	li	v0,128
80107328:	840022a6 	sh	v0,132(s1)
8010732c:	04002292 	lbu	v0,4(s1)
80107330:	0b002392 	lbu	v1,11(s1)
80107334:	01004224 	addiu	v0,v0,1
80107338:	c0006330 	andi	v1,v1,0xc0
8010733c:	80006334 	ori	v1,v1,0x80
80107340:	040022a2 	sb	v0,4(s1)
80107344:	801f023c 	lui	v0,0x1f80
80107348:	0b0023a2 	sb	v1,11(s1)
8010734c:	60014584 	lh	a1,352(v0)
80107350:	801f023c 	lui	v0,0x1f80
80107354:	64014684 	lh	a2,356(v0)
80107358:	d0000224 	li	v0,208
8010735c:	ace0010c 	jal	0x800782b0
80107360:	860022a6 	sh	v0,134(s1)
80107364:	e2400408 	j	0x80110388
80107368:	560022a6 	sh	v0,86(s1)
8010736c:	0c80023c 	lui	v0,0x800c
80107370:	41f84290 	lbu	v0,-1983(v0)
80107374:	00000000 	nop
80107378:	06004010 	beqz	v0,0x80107394
8010737c:	801f023c 	lui	v0,0x1f80
80107380:	010030a2 	sb	s0,1(s1)
80107384:	9fdf010c 	jal	0x80077e7c
80107388:	21202002 	move	a0,s1
8010738c:	e2400408 	j	0x80110388
80107390:	00000000 	nop
80107394:	60014584 	lh	a1,352(v0)
80107398:	801f023c 	lui	v0,0x1f80
8010739c:	64014684 	lh	a2,356(v0)
801073a0:	ace0010c 	jal	0x800782b0
801073a4:	2c002426 	addiu	a0,s1,44
801073a8:	00140200 	sll	v0,v0,0x10
801073ac:	03240200 	sra	a0,v0,0x10
801073b0:	56002586 	lh	a1,86(s1)
801073b4:	bedd010c 	jal	0x800776f8
801073b8:	80000624 	li	a2,128
801073bc:	21202002 	move	a0,s1
801073c0:	560022a6 	sh	v0,86(s1)
801073c4:	9fdf010c 	jal	0x80077e7c
801073c8:	010030a2 	sb	s0,1(s1)
801073cc:	4306010c 	jal	0x8004190c
801073d0:	21202002 	move	a0,s1
801073d4:	3f46010c 	jal	0x800518fc
801073d8:	21202002 	move	a0,s1
801073dc:	e2400408 	j	0x80110388
801073e0:	00000000 	nop
801073e4:	89e9010c 	jal	0x8007a624
801073e8:	21202002 	move	a0,s1
801073ec:	1800bf8f 	lw	ra,24(sp)
801073f0:	1400b18f 	lw	s1,20(sp)
801073f4:	1000b08f 	lw	s0,16(sp)
801073f8:	0800e003 	jr	ra
801073fc:	2000bd27 	addiu	sp,sp,32
80107400:	e0ffbd27 	addiu	sp,sp,-32
80107404:	1400b1af 	sw	s1,20(sp)
80107408:	21888000 	move	s1,a0
8010740c:	1800bfaf 	sw	ra,24(sp)
80107410:	1000b0af 	sw	s0,16(sp)
80107414:	04003092 	lbu	s0,4(s1)
80107418:	01000224 	li	v0,1
8010741c:	3e000212 	beq	s0,v0,0x80107518
80107420:	0200022a 	slti	v0,s0,2
80107424:	05004010 	beqz	v0,0x8010743c
80107428:	00000000 	nop
8010742c:	0a000012 	beqz	s0,0x80107458
80107430:	21202002 	move	a0,s1
80107434:	4d410408 	j	0x80110534
80107438:	00000000 	nop
8010743c:	02000224 	li	v0,2
80107440:	55000212 	beq	s0,v0,0x80107598
80107444:	03000224 	li	v0,3
80107448:	51000212 	beq	s0,v0,0x80107590
8010744c:	00000000 	nop
80107450:	4d410408 	j	0x80110534
80107454:	00000000 	nop
80107458:	0f000524 	li	a1,15
8010745c:	0f80023c 	lui	v0,0x800f
80107460:	58cf5024 	addiu	s0,v0,-12456
80107464:	6400068e 	lw	a2,100(s0)
80107468:	1180073c 	lui	a3,0x8011
8010746c:	7846010c 	jal	0x800519e0
80107470:	1875e724 	addiu	a3,a3,29976
80107474:	48004014 	bnez	v0,0x80107598
80107478:	00000000 	nop
8010747c:	3800028e 	lw	v0,56(s0)
80107480:	00000000 	nop
80107484:	3c0022ae 	sw	v0,60(s1)
80107488:	0c80023c 	lui	v0,0x800c
8010748c:	71f84390 	lbu	v1,-1935(v0)
80107490:	04000224 	li	v0,4
80107494:	05006214 	bne	v1,v0,0x801074ac
80107498:	21202002 	move	a0,s1
8010749c:	1280053c 	lui	a1,0x8012
801074a0:	38a7a524 	addiu	a1,a1,-22728
801074a4:	15410408 	j	0x80110454
801074a8:	21304000 	move	a2,v0
801074ac:	1280053c 	lui	a1,0x8012
801074b0:	38a7a524 	addiu	a1,a1,-22728
801074b4:	05000624 	li	a2,5
801074b8:	10df010c 	jal	0x80077c40
801074bc:	00000000 	nop
801074c0:	2c002426 	addiu	a0,s1,44
801074c4:	00010224 	li	v0,256
801074c8:	820022a6 	sh	v0,130(s1)
801074cc:	04002292 	lbu	v0,4(s1)
801074d0:	80000324 	li	v1,128
801074d4:	800023a6 	sh	v1,128(s1)
801074d8:	840023a6 	sh	v1,132(s1)
801074dc:	0b002392 	lbu	v1,11(s1)
801074e0:	01004224 	addiu	v0,v0,1
801074e4:	c0006330 	andi	v1,v1,0xc0
801074e8:	80006334 	ori	v1,v1,0x80
801074ec:	040022a2 	sb	v0,4(s1)
801074f0:	801f023c 	lui	v0,0x1f80
801074f4:	0b0023a2 	sb	v1,11(s1)
801074f8:	60014584 	lh	a1,352(v0)
801074fc:	801f023c 	lui	v0,0x1f80
80107500:	64014684 	lh	a2,356(v0)
80107504:	44010224 	li	v0,324
80107508:	ace0010c 	jal	0x800782b0
8010750c:	860022a6 	sh	v0,134(s1)
80107510:	4d410408 	j	0x80110534
80107514:	560022a6 	sh	v0,86(s1)
80107518:	0c80023c 	lui	v0,0x800c
8010751c:	41f84290 	lbu	v0,-1983(v0)
80107520:	00000000 	nop
80107524:	06004010 	beqz	v0,0x80107540
80107528:	801f023c 	lui	v0,0x1f80
8010752c:	010030a2 	sb	s0,1(s1)
80107530:	9fdf010c 	jal	0x80077e7c
80107534:	21202002 	move	a0,s1
80107538:	4d410408 	j	0x80110534
8010753c:	00000000 	nop
80107540:	60014584 	lh	a1,352(v0)
80107544:	801f023c 	lui	v0,0x1f80
80107548:	64014684 	lh	a2,356(v0)
8010754c:	ace0010c 	jal	0x800782b0
80107550:	2c002426 	addiu	a0,s1,44
80107554:	00140200 	sll	v0,v0,0x10
80107558:	03240200 	sra	a0,v0,0x10
8010755c:	56002586 	lh	a1,86(s1)
80107560:	bedd010c 	jal	0x800776f8
80107564:	80000624 	li	a2,128
80107568:	21202002 	move	a0,s1
8010756c:	560022a6 	sh	v0,86(s1)
80107570:	9fdf010c 	jal	0x80077e7c
80107574:	010030a2 	sb	s0,1(s1)
80107578:	4306010c 	jal	0x8004190c
8010757c:	21202002 	move	a0,s1
80107580:	3f46010c 	jal	0x800518fc
80107584:	21202002 	move	a0,s1
80107588:	4d410408 	j	0x80110534
8010758c:	00000000 	nop
80107590:	89e9010c 	jal	0x8007a624
80107594:	21202002 	move	a0,s1
80107598:	1800bf8f 	lw	ra,24(sp)
8010759c:	1400b18f 	lw	s1,20(sp)
801075a0:	1000b08f 	lw	s0,16(sp)
801075a4:	0800e003 	jr	ra
801075a8:	2000bd27 	addiu	sp,sp,32
801075ac:	e0ffbd27 	addiu	sp,sp,-32
801075b0:	1000b0af 	sw	s0,16(sp)
801075b4:	21808000 	move	s0,a0
801075b8:	1800bfaf 	sw	ra,24(sp)
801075bc:	1400b1af 	sw	s1,20(sp)
801075c0:	04001192 	lbu	s1,4(s0)
801075c4:	01000224 	li	v0,1
801075c8:	34002212 	beq	s1,v0,0x8010769c
801075cc:	0200222a 	slti	v0,s1,2
801075d0:	05004010 	beqz	v0,0x801075e8
801075d4:	00000000 	nop
801075d8:	0a002012 	beqz	s1,0x80107604
801075dc:	21200002 	move	a0,s0
801075e0:	a5410408 	j	0x80110694
801075e4:	00000000 	nop
801075e8:	02000224 	li	v0,2
801075ec:	42002212 	beq	s1,v0,0x801076f8
801075f0:	03000224 	li	v0,3
801075f4:	3e002212 	beq	s1,v0,0x801076f0
801075f8:	00000000 	nop
801075fc:	a5410408 	j	0x80110694
80107600:	00000000 	nop
80107604:	0f000524 	li	a1,15
80107608:	0f80023c 	lui	v0,0x800f
8010760c:	58cf5124 	addiu	s1,v0,-12456
80107610:	7800268e 	lw	a2,120(s1)
80107614:	1180073c 	lui	a3,0x8011
80107618:	7846010c 	jal	0x800519e0
8010761c:	7877e724 	addiu	a3,a3,30584
80107620:	35004014 	bnez	v0,0x801076f8
80107624:	1280053c 	lui	a1,0x8012
80107628:	21200002 	move	a0,s0
8010762c:	38a7a524 	addiu	a1,a1,-22728
80107630:	3800228e 	lw	v0,56(s1)
80107634:	10000624 	li	a2,16
80107638:	10df010c 	jal	0x80077c40
8010763c:	3c0002ae 	sw	v0,60(s0)
80107640:	2c000426 	addiu	a0,s0,44
80107644:	60000224 	li	v0,96
80107648:	800002a6 	sh	v0,128(s0)
8010764c:	c0000224 	li	v0,192
80107650:	820002a6 	sh	v0,130(s0)
80107654:	80000224 	li	v0,128
80107658:	840002a6 	sh	v0,132(s0)
8010765c:	04000292 	lbu	v0,4(s0)
80107660:	0b000392 	lbu	v1,11(s0)
80107664:	01004224 	addiu	v0,v0,1
80107668:	c0006330 	andi	v1,v1,0xc0
8010766c:	80006334 	ori	v1,v1,0x80
80107670:	040002a2 	sb	v0,4(s0)
80107674:	801f023c 	lui	v0,0x1f80
80107678:	0b0003a2 	sb	v1,11(s0)
8010767c:	60014584 	lh	a1,352(v0)
80107680:	801f023c 	lui	v0,0x1f80
80107684:	64014684 	lh	a2,356(v0)
80107688:	3a010224 	li	v0,314
8010768c:	ace0010c 	jal	0x800782b0
80107690:	860002a6 	sh	v0,134(s0)
80107694:	a5410408 	j	0x80110694
80107698:	560002a6 	sh	v0,86(s0)
8010769c:	801f023c 	lui	v0,0x1f80
801076a0:	60014584 	lh	a1,352(v0)
801076a4:	801f023c 	lui	v0,0x1f80
801076a8:	64014684 	lh	a2,356(v0)
801076ac:	ace0010c 	jal	0x800782b0
801076b0:	2c000426 	addiu	a0,s0,44
801076b4:	00140200 	sll	v0,v0,0x10
801076b8:	03240200 	sra	a0,v0,0x10
801076bc:	56000586 	lh	a1,86(s0)
801076c0:	bedd010c 	jal	0x800776f8
801076c4:	80000624 	li	a2,128
801076c8:	21200002 	move	a0,s0
801076cc:	560002a6 	sh	v0,86(s0)
801076d0:	9fdf010c 	jal	0x80077e7c
801076d4:	010011a2 	sb	s1,1(s0)
801076d8:	4306010c 	jal	0x8004190c
801076dc:	21200002 	move	a0,s0
801076e0:	3f46010c 	jal	0x800518fc
801076e4:	21200002 	move	a0,s0
801076e8:	a5410408 	j	0x80110694
801076ec:	00000000 	nop
801076f0:	89e9010c 	jal	0x8007a624
801076f4:	21200002 	move	a0,s0
801076f8:	1800bf8f 	lw	ra,24(sp)
801076fc:	1400b18f 	lw	s1,20(sp)
80107700:	1000b08f 	lw	s0,16(sp)
80107704:	0800e003 	jr	ra
80107708:	2000bd27 	addiu	sp,sp,32
8010770c:	e8ffbd27 	addiu	sp,sp,-24
80107710:	00240400 	sll	a0,a0,0x10
80107714:	03240400 	sra	a0,a0,0x10
80107718:	01000224 	li	v0,1
8010771c:	11008210 	beq	a0,v0,0x80107764
80107720:	1000bfaf 	sw	ra,16(sp)
80107724:	02008228 	slti	v0,a0,2
80107728:	05004010 	beqz	v0,0x80107740
8010772c:	00000000 	nop
80107730:	08008010 	beqz	a0,0x80107754
80107734:	1280023c 	lui	v0,0x8012
80107738:	d9410408 	j	0x80110764
8010773c:	00000000 	nop
80107740:	02000224 	li	v0,2
80107744:	0c008210 	beq	a0,v0,0x80107778
80107748:	1280023c 	lui	v0,0x8012
8010774c:	d9410408 	j	0x80110764
80107750:	00000000 	nop
80107754:	bca54224 	addiu	v0,v0,-23108
80107758:	03000724 	li	a3,3
8010775c:	c8410408 	j	0x80110720
80107760:	21300000 	move	a2,zero
80107764:	1280023c 	lui	v0,0x8012
80107768:	d4a54224 	addiu	v0,v0,-23084
8010776c:	1f000724 	li	a3,31
80107770:	c8410408 	j	0x80110720
80107774:	4b030624 	li	a2,843
80107778:	40a64224 	addiu	v0,v0,-22976
8010777c:	12000724 	li	a3,18
80107780:	3b040624 	li	a2,1083
80107784:	801f043c 	lui	a0,0x1f80
80107788:	001c0500 	sll	v1,a1,0x10
8010778c:	831b0300 	sra	v1,v1,0xe
80107790:	21186200 	addu	v1,v1,v0
80107794:	1c02858c 	lw	a1,540(a0)
80107798:	2120e000 	move	a0,a3
8010779c:	00006294 	lhu	v0,0(v1)
801077a0:	21380000 	move	a3,zero
801077a4:	40110200 	sll	v0,v0,0x5
801077a8:	2128a200 	addu	a1,a1,v0
801077ac:	40110600 	sll	v0,a2,0x5
801077b0:	02006694 	lhu	a2,2(v1)
801077b4:	2128a200 	addu	a1,a1,v0
801077b8:	0100c624 	addiu	a2,a2,1
801077bc:	40310600 	sll	a2,a2,0x5
801077c0:	aa74000c 	jal	0x8001d2a8
801077c4:	2130a600 	addu	a2,a1,a2
801077c8:	1000bf8f 	lw	ra,16(sp)
801077cc:	00000000 	nop
801077d0:	0800e003 	jr	ra
801077d4:	1800bd27 	addiu	sp,sp,24
801077d8:	e8ffbd27 	addiu	sp,sp,-24
801077dc:	0a000424 	li	a0,10
801077e0:	1180053c 	lui	a1,0x8011
801077e4:	e079a524 	addiu	a1,a1,31200
801077e8:	1000b0af 	sw	s0,16(sp)
801077ec:	0a80103c 	lui	s0,0x800a
801077f0:	7e4f0786 	lh	a3,20350(s0)
801077f4:	1400bfaf 	sw	ra,20(sp)
801077f8:	12d5010c 	jal	0x80075448
801077fc:	16000624 	li	a2,22
80107800:	0b000424 	li	a0,11
80107804:	1280053c 	lui	a1,0x8012
80107808:	a88aa524 	addiu	a1,a1,-30040
8010780c:	7e4f0786 	lh	a3,20350(s0)
80107810:	12d5010c 	jal	0x80075448
80107814:	10000624 	li	a2,16
80107818:	0c000424 	li	a0,12
8010781c:	1280053c 	lui	a1,0x8012
80107820:	a09aa524 	addiu	a1,a1,-25952
80107824:	7e4f0786 	lh	a3,20350(s0)
80107828:	12d5010c 	jal	0x80075448
8010782c:	10000624 	li	a2,16
80107830:	1400bf8f 	lw	ra,20(sp)
80107834:	1000b08f 	lw	s0,16(sp)
80107838:	0800e003 	jr	ra
8010783c:	1800bd27 	addiu	sp,sp,24
80107840:	d8ffbd27 	addiu	sp,sp,-40
80107844:	1c00b3af 	sw	s3,28(sp)
80107848:	21988000 	move	s3,a0
8010784c:	02000224 	li	v0,2
80107850:	2000bfaf 	sw	ra,32(sp)
80107854:	1800b2af 	sw	s2,24(sp)
80107858:	1400b1af 	sw	s1,20(sp)
8010785c:	1000b0af 	sw	s0,16(sp)
80107860:	080062a2 	sb	v0,8(s3)
80107864:	0f80023c 	lui	v0,0x800f
80107868:	98d04284 	lh	v0,-12136(v0)
8010786c:	00000000 	nop
80107870:	02004228 	slti	v0,v0,2
80107874:	03004010 	beqz	v0,0x80107884
80107878:	03000224 	li	v0,3
8010787c:	3f420408 	j	0x801108fc
80107880:	040062a2 	sb	v0,4(s3)
80107884:	21900000 	move	s2,zero
80107888:	08006392 	lbu	v1,8(s3)
8010788c:	02000224 	li	v0,2
80107890:	090062a2 	sb	v0,9(s3)
80107894:	28006010 	beqz	v1,0x80107938
80107898:	0d0060a2 	sb	zero,13(s3)
8010789c:	1280023c 	lui	v0,0x8012
801078a0:	78a65124 	addiu	s1,v0,-22920
801078a4:	21806002 	move	s0,s3
801078a8:	baea010c 	jal	0x8007aae8
801078ac:	01005226 	addiu	s2,s2,1
801078b0:	c00002ae 	sw	v0,192(s0)
801078b4:	00002396 	lhu	v1,0(s1)
801078b8:	00000000 	nop
801078bc:	060043a4 	sh	v1,6(v0)
801078c0:	c000038e 	lw	v1,192(s0)
801078c4:	02002296 	lhu	v0,2(s1)
801078c8:	00000000 	nop
801078cc:	000062a4 	sh	v0,0(v1)
801078d0:	c000038e 	lw	v1,192(s0)
801078d4:	04002296 	lhu	v0,4(s1)
801078d8:	00000000 	nop
801078dc:	020062a4 	sh	v0,2(v1)
801078e0:	c000038e 	lw	v1,192(s0)
801078e4:	06002296 	lhu	v0,6(s1)
801078e8:	00000000 	nop
801078ec:	040062a4 	sh	v0,4(v1)
801078f0:	c000028e 	lw	v0,192(s0)
801078f4:	00000000 	nop
801078f8:	080040a4 	sh	zero,8(v0)
801078fc:	c000028e 	lw	v0,192(s0)
80107900:	00000000 	nop
80107904:	0a0040a4 	sh	zero,10(v0)
80107908:	c000028e 	lw	v0,192(s0)
8010790c:	0c000524 	li	a1,12
80107910:	0c0040a4 	sh	zero,12(v0)
80107914:	08002686 	lh	a2,8(s1)
80107918:	c000048e 	lw	a0,192(s0)
8010791c:	c146010c 	jal	0x80051b04
80107920:	0a003126 	addiu	s1,s1,10
80107924:	08006292 	lbu	v0,8(s3)
80107928:	00000000 	nop
8010792c:	2a104202 	slt	v0,s2,v0
80107930:	ddff4014 	bnez	v0,0x801078a8
80107934:	04001026 	addiu	s0,s0,4
80107938:	8c000424 	li	a0,140
8010793c:	0b006392 	lbu	v1,11(s3)
80107940:	18010224 	li	v0,280
80107944:	800064a6 	sh	a0,128(s3)
80107948:	820062a6 	sh	v0,130(s3)
8010794c:	840064a6 	sh	a0,132(s3)
80107950:	860064a6 	sh	a0,134(s3)
80107954:	c0006330 	andi	v1,v1,0xc0
80107958:	80006334 	ori	v1,v1,0x80
8010795c:	0b0063a2 	sb	v1,11(s3)
80107960:	2000bf8f 	lw	ra,32(sp)
80107964:	1c00b38f 	lw	s3,28(sp)
80107968:	1800b28f 	lw	s2,24(sp)
8010796c:	1400b18f 	lw	s1,20(sp)
80107970:	1000b08f 	lw	s0,16(sp)
80107974:	0800e003 	jr	ra
80107978:	2800bd27 	addiu	sp,sp,40
8010797c:	d8ffbd27 	addiu	sp,sp,-40
80107980:	1c00b3af 	sw	s3,28(sp)
80107984:	21988000 	move	s3,a0
80107988:	03000224 	li	v0,3
8010798c:	2000bfaf 	sw	ra,32(sp)
80107990:	1800b2af 	sw	s2,24(sp)
80107994:	1400b1af 	sw	s1,20(sp)
80107998:	1000b0af 	sw	s0,16(sp)
8010799c:	080062a2 	sb	v0,8(s3)
801079a0:	0f80023c 	lui	v0,0x800f
801079a4:	98d04284 	lh	v0,-12136(v0)
801079a8:	03000324 	li	v1,3
801079ac:	2a104300 	slt	v0,v0,v1
801079b0:	03004010 	beqz	v0,0x801079c0
801079b4:	21900000 	move	s2,zero
801079b8:	8a420408 	j	0x80110a28
801079bc:	040063a2 	sb	v1,4(s3)
801079c0:	08006292 	lbu	v0,8(s3)
801079c4:	090063a2 	sb	v1,9(s3)
801079c8:	28004010 	beqz	v0,0x80107a6c
801079cc:	0d0060a2 	sb	zero,13(s3)
801079d0:	1280023c 	lui	v0,0x8012
801079d4:	8ca65124 	addiu	s1,v0,-22900
801079d8:	21806002 	move	s0,s3
801079dc:	baea010c 	jal	0x8007aae8
801079e0:	01005226 	addiu	s2,s2,1
801079e4:	c00002ae 	sw	v0,192(s0)
801079e8:	00002396 	lhu	v1,0(s1)
801079ec:	00000000 	nop
801079f0:	060043a4 	sh	v1,6(v0)
801079f4:	c000038e 	lw	v1,192(s0)
801079f8:	02002296 	lhu	v0,2(s1)
801079fc:	00000000 	nop
80107a00:	000062a4 	sh	v0,0(v1)
80107a04:	c000038e 	lw	v1,192(s0)
80107a08:	04002296 	lhu	v0,4(s1)
80107a0c:	00000000 	nop
80107a10:	020062a4 	sh	v0,2(v1)
80107a14:	c000038e 	lw	v1,192(s0)
80107a18:	06002296 	lhu	v0,6(s1)
80107a1c:	00000000 	nop
80107a20:	040062a4 	sh	v0,4(v1)
80107a24:	c000028e 	lw	v0,192(s0)
80107a28:	00000000 	nop
80107a2c:	080040a4 	sh	zero,8(v0)
80107a30:	c000028e 	lw	v0,192(s0)
80107a34:	00000000 	nop
80107a38:	0a0040a4 	sh	zero,10(v0)
80107a3c:	c000028e 	lw	v0,192(s0)
80107a40:	0c000524 	li	a1,12
80107a44:	0c0040a4 	sh	zero,12(v0)
80107a48:	08002686 	lh	a2,8(s1)
80107a4c:	c000048e 	lw	a0,192(s0)
80107a50:	c146010c 	jal	0x80051b04
80107a54:	0a003126 	addiu	s1,s1,10
80107a58:	08006292 	lbu	v0,8(s3)
80107a5c:	00000000 	nop
80107a60:	2a104202 	slt	v0,s2,v0
80107a64:	ddff4014 	bnez	v0,0x801079dc
80107a68:	04001026 	addiu	s0,s0,4
80107a6c:	21206002 	move	a0,s3
80107a70:	c000628e 	lw	v0,192(s3)
80107a74:	00040324 	li	v1,1024
80107a78:	0a0043a4 	sh	v1,10(v0)
80107a7c:	fe45010c 	jal	0x800517f8
80107a80:	5e0060a2 	sb	zero,94(s3)
80107a84:	801f023c 	lui	v0,0x1f80
80107a88:	480253ac 	sw	s3,584(v0)
80107a8c:	2000bf8f 	lw	ra,32(sp)
80107a90:	1c00b38f 	lw	s3,28(sp)
80107a94:	1800b28f 	lw	s2,24(sp)
80107a98:	1400b18f 	lw	s1,20(sp)
80107a9c:	1000b08f 	lw	s0,16(sp)
80107aa0:	0800e003 	jr	ra
80107aa4:	2800bd27 	addiu	sp,sp,40
80107aa8:	c0ffbd27 	addiu	sp,sp,-64
80107aac:	3400b5af 	sw	s5,52(sp)
80107ab0:	21a88000 	move	s5,a0
80107ab4:	3800bfaf 	sw	ra,56(sp)
80107ab8:	3000b4af 	sw	s4,48(sp)
80107abc:	2c00b3af 	sw	s3,44(sp)
80107ac0:	2800b2af 	sw	s2,40(sp)
80107ac4:	2400b1af 	sw	s1,36(sp)
80107ac8:	2000b0af 	sw	s0,32(sp)
80107acc:	4e00a286 	lh	v0,78(s5)
80107ad0:	00000000 	nop
80107ad4:	80004228 	slti	v0,v0,128
80107ad8:	41004014 	bnez	v0,0x80107be0
80107adc:	801f023c 	lui	v0,0x1f80
80107ae0:	7c014294 	lhu	v0,380(v0)
80107ae4:	00000000 	nop
80107ae8:	03004230 	andi	v0,v0,0x3
80107aec:	3c004014 	bnez	v0,0x80107be0
80107af0:	801f123c 	lui	s2,0x1f80
80107af4:	c0005026 	addiu	s0,s2,192
80107af8:	21280002 	move	a1,s0
80107afc:	c8001124 	li	s1,200
80107b00:	801f133c 	lui	s3,0x1f80
80107b04:	a0007426 	addiu	s4,s3,160
80107b08:	c00051a6 	sh	s1,192(s2)
80107b0c:	020011a6 	sh	s1,2(s0)
80107b10:	040011a6 	sh	s1,4(s0)
80107b14:	c000a48e 	lw	a0,192(s5)
80107b18:	21308002 	move	a2,s4
80107b1c:	1c11020c 	jal	0x80084470
80107b20:	18008424 	addiu	a0,a0,24
80107b24:	c400a28e 	lw	v0,196(s5)
80107b28:	a0006396 	lhu	v1,160(s3)
80107b2c:	2c004294 	lhu	v0,44(v0)
80107b30:	08000424 	li	a0,8
80107b34:	21104300 	addu	v0,v0,v1
80107b38:	1200a2a7 	sh	v0,18(sp)
80107b3c:	c400a28e 	lw	v0,196(s5)
80107b40:	02000396 	lhu	v1,2(s0)
80107b44:	30004294 	lhu	v0,48(v0)
80107b48:	1000a527 	addiu	a1,sp,16
80107b4c:	21104300 	addu	v0,v0,v1
80107b50:	1600a2a7 	sh	v0,22(sp)
80107b54:	c400a28e 	lw	v0,196(s5)
80107b58:	08008396 	lhu	v1,8(s4)
80107b5c:	34004294 	lhu	v0,52(v0)
80107b60:	ceff0624 	li	a2,-50
80107b64:	21104300 	addu	v0,v0,v1
80107b68:	5bc4000c 	jal	0x8003116c
80107b6c:	1a00a2a7 	sh	v0,26(sp)
80107b70:	21280002 	move	a1,s0
80107b74:	38ff0224 	li	v0,-200
80107b78:	c00042a6 	sh	v0,192(s2)
80107b7c:	020011a6 	sh	s1,2(s0)
80107b80:	040011a6 	sh	s1,4(s0)
80107b84:	c000a48e 	lw	a0,192(s5)
80107b88:	21308002 	move	a2,s4
80107b8c:	1c11020c 	jal	0x80084470
80107b90:	18008424 	addiu	a0,a0,24
80107b94:	c800a28e 	lw	v0,200(s5)
80107b98:	a0006396 	lhu	v1,160(s3)
80107b9c:	2c004294 	lhu	v0,44(v0)
80107ba0:	08000424 	li	a0,8
80107ba4:	21104300 	addu	v0,v0,v1
80107ba8:	1200a2a7 	sh	v0,18(sp)
80107bac:	c800a28e 	lw	v0,200(s5)
80107bb0:	02000396 	lhu	v1,2(s0)
80107bb4:	30004294 	lhu	v0,48(v0)
80107bb8:	1000a527 	addiu	a1,sp,16
80107bbc:	21104300 	addu	v0,v0,v1
80107bc0:	1600a2a7 	sh	v0,22(sp)
80107bc4:	c800a28e 	lw	v0,200(s5)
80107bc8:	08008396 	lhu	v1,8(s4)
80107bcc:	34004294 	lhu	v0,52(v0)
80107bd0:	ceff0624 	li	a2,-50
80107bd4:	21104300 	addu	v0,v0,v1
80107bd8:	5bc4000c 	jal	0x8003116c
80107bdc:	1a00a2a7 	sh	v0,26(sp)
80107be0:	3800bf8f 	lw	ra,56(sp)
80107be4:	3400b58f 	lw	s5,52(sp)
80107be8:	3000b48f 	lw	s4,48(sp)
80107bec:	2c00b38f 	lw	s3,44(sp)
80107bf0:	2800b28f 	lw	s2,40(sp)
80107bf4:	2400b18f 	lw	s1,36(sp)
80107bf8:	2000b08f 	lw	s0,32(sp)
80107bfc:	0800e003 	jr	ra
80107c00:	4000bd27 	addiu	sp,sp,64
80107c04:	d8ffbd27 	addiu	sp,sp,-40
80107c08:	1000b0af 	sw	s0,16(sp)
80107c0c:	21808000 	move	s0,a0
80107c10:	0e80023c 	lui	v0,0x800e
80107c14:	2000bfaf 	sw	ra,32(sp)
80107c18:	1c00b3af 	sw	s3,28(sp)
80107c1c:	1800b2af 	sw	s2,24(sp)
80107c20:	1400b1af 	sw	s1,20(sp)
80107c24:	05000392 	lbu	v1,5(s0)
80107c28:	807e5324 	addiu	s3,v0,32384
80107c2c:	0800622c 	sltiu	v0,v1,8
80107c30:	c6004010 	beqz	v0,0x80107f4c
80107c34:	1180023c 	lui	v0,0x8011
80107c38:	f8904224 	addiu	v0,v0,-28424
80107c3c:	80180300 	sll	v1,v1,0x2
80107c40:	21186200 	addu	v1,v1,v0
80107c44:	0000628c 	lw	v0,0(v1)
80107c48:	00000000 	nop
80107c4c:	08004000 	jr	v0
80107c50:	00000000 	nop
80107c54:	05000292 	lbu	v0,5(s0)
80107c58:	2e000396 	lhu	v1,46(s0)
80107c5c:	4e0000a6 	sh	zero,78(s0)
80107c60:	500000a6 	sh	zero,80(s0)
80107c64:	480000a6 	sh	zero,72(s0)
80107c68:	01004224 	addiu	v0,v0,1
80107c6c:	050002a2 	sb	v0,5(s0)
80107c70:	2e006296 	lhu	v0,46(s3)
80107c74:	00000000 	nop
80107c78:	23104300 	subu	v0,v0,v1
80107c7c:	4e0062a6 	sh	v0,78(s3)
80107c80:	32006296 	lhu	v0,50(s3)
80107c84:	32000396 	lhu	v1,50(s0)
80107c88:	21206002 	move	a0,s3
80107c8c:	23104300 	subu	v0,v0,v1
80107c90:	500062a6 	sh	v0,80(s3)
80107c94:	36006296 	lhu	v0,54(s3)
80107c98:	36000396 	lhu	v1,54(s0)
80107c9c:	ee000524 	li	a1,238
80107ca0:	23104300 	subu	v0,v0,v1
80107ca4:	520062a6 	sh	v0,82(s3)
80107ca8:	2e000296 	lhu	v0,46(s0)
80107cac:	32000396 	lhu	v1,50(s0)
80107cb0:	36000796 	lhu	a3,54(s0)
80107cb4:	21300000 	move	a2,zero
80107cb8:	600002a6 	sh	v0,96(s0)
80107cbc:	620003a6 	sh	v1,98(s0)
80107cc0:	4553010c 	jal	0x80054d14
80107cc4:	640007a6 	sh	a3,100(s0)
80107cc8:	0c80023c 	lui	v0,0x800c
80107ccc:	57fa4290 	lbu	v0,-1449(v0)
80107cd0:	00000000 	nop
80107cd4:	0300422c 	sltiu	v0,v0,3
80107cd8:	05004014 	bnez	v0,0x80107cf0
80107cdc:	8c000324 	li	v1,140
80107ce0:	05000292 	lbu	v0,5(s0)
80107ce4:	400003a6 	sh	v1,64(s0)
80107ce8:	01004224 	addiu	v0,v0,1
80107cec:	050002a2 	sb	v0,5(s0)
80107cf0:	50000296 	lhu	v0,80(s0)
80107cf4:	00000000 	nop
80107cf8:	40004224 	addiu	v0,v0,64
80107cfc:	00240200 	sll	a0,v0,0x10
80107d00:	03240400 	sra	a0,a0,0x10
80107d04:	a00f020c 	jal	0x80083e80
80107d08:	500002a6 	sh	v0,80(s0)
80107d0c:	3000038e 	lw	v1,48(s0)
80107d10:	53430408 	j	0x80110d4c
80107d14:	40110200 	sll	v0,v0,0x5
80107d18:	40000296 	lhu	v0,64(s0)
80107d1c:	00000000 	nop
80107d20:	ffff4224 	addiu	v0,v0,-1
80107d24:	400002a6 	sh	v0,64(s0)
80107d28:	00140200 	sll	v0,v0,0x10
80107d2c:	05004104 	bgez	v0,0x80107d44
80107d30:	00000000 	nop
80107d34:	05000292 	lbu	v0,5(s0)
80107d38:	00000000 	nop
80107d3c:	01004224 	addiu	v0,v0,1
80107d40:	050002a2 	sb	v0,5(s0)
80107d44:	50000296 	lhu	v0,80(s0)
80107d48:	00000000 	nop
80107d4c:	40004224 	addiu	v0,v0,64
80107d50:	00240200 	sll	a0,v0,0x10
80107d54:	03240400 	sra	a0,a0,0x10
80107d58:	a00f020c 	jal	0x80083e80
80107d5c:	500002a6 	sh	v0,80(s0)
80107d60:	3000038e 	lw	v1,48(s0)
80107d64:	53430408 	j	0x80110d4c
80107d68:	40110200 	sll	v0,v0,0x5
80107d6c:	4e000296 	lhu	v0,78(s0)
80107d70:	00000000 	nop
80107d74:	08004224 	addiu	v0,v0,8
80107d78:	4e0002a6 	sh	v0,78(s0)
80107d7c:	00140200 	sll	v0,v0,0x10
80107d80:	03140200 	sra	v0,v0,0x10
80107d84:	00014228 	slti	v0,v0,256
80107d88:	04004014 	bnez	v0,0x80107d9c
80107d8c:	3c000324 	li	v1,60
80107d90:	05000292 	lbu	v0,5(s0)
80107d94:	87430408 	j	0x80110e1c
80107d98:	400003a6 	sh	v1,64(s0)
80107d9c:	50000486 	lh	a0,80(s0)
80107da0:	a00f020c 	jal	0x80083e80
80107da4:	00000000 	nop
80107da8:	3000038e 	lw	v1,48(s0)
80107dac:	00110200 	sll	v0,v0,0x4
80107db0:	21186200 	addu	v1,v1,v0
80107db4:	ba430408 	j	0x80110ee8
80107db8:	300003ae 	sw	v1,48(s0)
80107dbc:	40000296 	lhu	v0,64(s0)
80107dc0:	ffff0324 	li	v1,-1
80107dc4:	ffff4224 	addiu	v0,v0,-1
80107dc8:	400002a6 	sh	v0,64(s0)
80107dcc:	00140200 	sll	v0,v0,0x10
80107dd0:	03140200 	sra	v0,v0,0x10
80107dd4:	04004314 	bne	v0,v1,0x80107de8
80107dd8:	003c0324 	li	v1,15360
80107ddc:	05000292 	lbu	v0,5(s0)
80107de0:	87430408 	j	0x80110e1c
80107de4:	480003a6 	sh	v1,72(s0)
80107de8:	1469020c 	jal	0x8009a450
80107dec:	00000000 	nop
80107df0:	03004230 	andi	v0,v0,0x3
80107df4:	feff4224 	addiu	v0,v0,-2
80107df8:	80180200 	sll	v1,v0,0x2
80107dfc:	21186200 	addu	v1,v1,v0
80107e00:	40180300 	sll	v1,v1,0x1
80107e04:	801f043c 	lui	a0,0x1f80
80107e08:	60000296 	lhu	v0,96(s0)
80107e0c:	7c018494 	lhu	a0,380(a0)
80107e10:	21104300 	addu	v0,v0,v1
80107e14:	01008430 	andi	a0,a0,0x1
80107e18:	2e0002a6 	sh	v0,46(s0)
80107e1c:	80100400 	sll	v0,a0,0x2
80107e20:	94430408 	j	0x80110e50
80107e24:	21104400 	addu	v0,v0,a0
80107e28:	0c80023c 	lui	v0,0x800c
80107e2c:	55fa4390 	lbu	v1,-1451(v0)
80107e30:	01000224 	li	v0,1
80107e34:	16006214 	bne	v1,v0,0x80107e90
80107e38:	801f033c 	lui	v1,0x1f80
80107e3c:	05000292 	lbu	v0,5(s0)
80107e40:	64000324 	li	v1,100
80107e44:	400003a6 	sh	v1,64(s0)
80107e48:	01004224 	addiu	v0,v0,1
80107e4c:	8a430408 	j	0x80110e28
80107e50:	050002a2 	sb	v0,5(s0)
80107e54:	40000296 	lhu	v0,64(s0)
80107e58:	ffff0324 	li	v1,-1
80107e5c:	ffff4224 	addiu	v0,v0,-1
80107e60:	400002a6 	sh	v0,64(s0)
80107e64:	00140200 	sll	v0,v0,0x10
80107e68:	03140200 	sra	v0,v0,0x10
80107e6c:	08004314 	bne	v0,v1,0x80107e90
80107e70:	801f033c 	lui	v1,0x1f80
80107e74:	05000292 	lbu	v0,5(s0)
80107e78:	00d00324 	li	v1,-12288
80107e7c:	4a0003a6 	sh	v1,74(s0)
80107e80:	01004224 	addiu	v0,v0,1
80107e84:	ba430408 	j	0x80110ee8
80107e88:	050002a2 	sb	v0,5(s0)
80107e8c:	801f033c 	lui	v1,0x1f80
80107e90:	48000486 	lh	a0,72(s0)
80107e94:	2c00028e 	lw	v0,44(s0)
80107e98:	7c016394 	lhu	v1,380(v1)
80107e9c:	00220400 	sll	a0,a0,0x8
80107ea0:	23104400 	subu	v0,v0,a0
80107ea4:	01006330 	andi	v1,v1,0x1
80107ea8:	2c0002ae 	sw	v0,44(s0)
80107eac:	80100300 	sll	v0,v1,0x2
80107eb0:	21104300 	addu	v0,v0,v1
80107eb4:	62000396 	lhu	v1,98(s0)
80107eb8:	40100200 	sll	v0,v0,0x1
80107ebc:	21186200 	addu	v1,v1,v0
80107ec0:	ba430408 	j	0x80110ee8
80107ec4:	320003a6 	sh	v1,50(s0)
80107ec8:	58000296 	lhu	v0,88(s0)
80107ecc:	00000000 	nop
80107ed0:	80004224 	addiu	v0,v0,128
80107ed4:	580002a6 	sh	v0,88(s0)
80107ed8:	56000296 	lhu	v0,86(s0)
80107edc:	58000386 	lh	v1,88(s0)
80107ee0:	20004224 	addiu	v0,v0,32
80107ee4:	01056328 	slti	v1,v1,1281
80107ee8:	03006014 	bnez	v1,0x80107ef8
80107eec:	560002a6 	sh	v0,86(s0)
80107ef0:	00050224 	li	v0,1280
80107ef4:	580002a6 	sh	v0,88(s0)
80107ef8:	4a000296 	lhu	v0,74(s0)
80107efc:	00000000 	nop
80107f00:	00024224 	addiu	v0,v0,512
80107f04:	4a0002a6 	sh	v0,74(s0)
80107f08:	00140200 	sll	v0,v0,0x10
80107f0c:	03140200 	sra	v0,v0,0x10
80107f10:	01104228 	slti	v0,v0,4097
80107f14:	05004014 	bnez	v0,0x80107f2c
80107f18:	01000324 	li	v1,1
80107f1c:	0c80023c 	lui	v0,0x800c
80107f20:	050000a2 	sb	zero,5(s0)
80107f24:	5e0003a2 	sb	v1,94(s0)
80107f28:	41f843a0 	sb	v1,-1983(v0)
80107f2c:	4a000286 	lh	v0,74(s0)
80107f30:	3000038e 	lw	v1,48(s0)
80107f34:	36000496 	lhu	a0,54(s0)
80107f38:	00120200 	sll	v0,v0,0x8
80107f3c:	21186200 	addu	v1,v1,v0
80107f40:	f1ff8424 	addiu	a0,a0,-15
80107f44:	300003ae 	sw	v1,48(s0)
80107f48:	360004a6 	sh	a0,54(s0)
80107f4c:	c400048e 	lw	a0,196(s0)
80107f50:	4e000396 	lhu	v1,78(s0)
80107f54:	08008294 	lhu	v0,8(a0)
80107f58:	00000000 	nop
80107f5c:	21104300 	addu	v0,v0,v1
80107f60:	080082a4 	sh	v0,8(a0)
80107f64:	c800048e 	lw	a0,200(s0)
80107f68:	4e000396 	lhu	v1,78(s0)
80107f6c:	08008294 	lhu	v0,8(a0)
80107f70:	00000000 	nop
80107f74:	21104300 	addu	v0,v0,v1
80107f78:	080082a4 	sh	v0,8(a0)
80107f7c:	58000286 	lh	v0,88(s0)
80107f80:	00000000 	nop
80107f84:	01024228 	slti	v0,v0,513
80107f88:	23004010 	beqz	v0,0x80108018
80107f8c:	801f083c 	lui	t0,0x1f80
80107f90:	c0000525 	addiu	a1,t0,192
80107f94:	801f123c 	lui	s2,0x1f80
80107f98:	a0005026 	addiu	s0,s2,160
80107f9c:	21300002 	move	a2,s0
80107fa0:	801f113c 	lui	s1,0x1f80
80107fa4:	4e006396 	lhu	v1,78(s3)
80107fa8:	50006796 	lhu	a3,80(s3)
80107fac:	4802248e 	lw	a0,584(s1)
80107fb0:	52006296 	lhu	v0,82(s3)
80107fb4:	98008424 	addiu	a0,a0,152
80107fb8:	c00003a5 	sh	v1,192(t0)
80107fbc:	0200a7a4 	sh	a3,2(a1)
80107fc0:	1c11020c 	jal	0x80084470
80107fc4:	0400a2a4 	sh	v0,4(a1)
80107fc8:	4802248e 	lw	a0,584(s1)
80107fcc:	a0004396 	lhu	v1,160(s2)
80107fd0:	2e008294 	lhu	v0,46(a0)
80107fd4:	00000000 	nop
80107fd8:	21104300 	addu	v0,v0,v1
80107fdc:	2e0062a6 	sh	v0,46(s3)
80107fe0:	32008294 	lhu	v0,50(a0)
80107fe4:	04000396 	lhu	v1,4(s0)
80107fe8:	00000000 	nop
80107fec:	21104300 	addu	v0,v0,v1
80107ff0:	320062a6 	sh	v0,50(s3)
80107ff4:	36008394 	lhu	v1,54(a0)
80107ff8:	08000596 	lhu	a1,8(s0)
80107ffc:	2e006496 	lhu	a0,46(s3)
80108000:	21186500 	addu	v1,v1,a1
80108004:	360063a6 	sh	v1,54(s3)
80108008:	32006396 	lhu	v1,50(s3)
8010800c:	801f023c 	lui	v0,0x1f80
80108010:	19440408 	j	0x80111064
80108014:	600144a4 	sh	a0,352(v0)
80108018:	06000392 	lbu	v1,6(s0)
8010801c:	00000000 	nop
80108020:	05006010 	beqz	v1,0x80108038
80108024:	01000224 	li	v0,1
80108028:	0d006210 	beq	v1,v0,0x80108060
8010802c:	00000000 	nop
80108030:	15440408 	j	0x80111054
80108034:	00000000 	nop
80108038:	21206002 	move	a0,s3
8010803c:	40000524 	li	a1,64
80108040:	21300000 	move	a2,zero
80108044:	4553010c 	jal	0x80054d14
80108048:	060002a2 	sb	v0,6(s0)
8010804c:	00d00224 	li	v0,-12288
80108050:	4a0002a6 	sh	v0,74(s0)
80108054:	00020224 	li	v0,512
80108058:	15440408 	j	0x80111054
8010805c:	500002a6 	sh	v0,80(s0)
80108060:	4a000386 	lh	v1,74(s0)
80108064:	3000628e 	lw	v0,48(s3)
80108068:	36006496 	lhu	a0,54(s3)
8010806c:	001a0300 	sll	v1,v1,0x8
80108070:	21104300 	addu	v0,v0,v1
80108074:	0a008424 	addiu	a0,a0,10
80108078:	300062ae 	sw	v0,48(s3)
8010807c:	360064a6 	sh	a0,54(s3)
80108080:	4a000296 	lhu	v0,74(s0)
80108084:	50000396 	lhu	v1,80(s0)
80108088:	00000000 	nop
8010808c:	21104300 	addu	v0,v0,v1
80108090:	4a0002a6 	sh	v0,74(s0)
80108094:	00140200 	sll	v0,v0,0x10
80108098:	03140200 	sra	v0,v0,0x10
8010809c:	01404228 	slti	v0,v0,16385
801080a0:	05004014 	bnez	v0,0x801080b8
801080a4:	00000000 	nop
801080a8:	06000292 	lbu	v0,6(s0)
801080ac:	00000000 	nop
801080b0:	01004224 	addiu	v0,v0,1
801080b4:	060002a2 	sb	v0,6(s0)
801080b8:	2e006396 	lhu	v1,46(s3)
801080bc:	801f023c 	lui	v0,0x1f80
801080c0:	600143a4 	sh	v1,352(v0)
801080c4:	32006396 	lhu	v1,50(s3)
801080c8:	801f023c 	lui	v0,0x1f80
801080cc:	620143a4 	sh	v1,354(v0)
801080d0:	36006396 	lhu	v1,54(s3)
801080d4:	801f023c 	lui	v0,0x1f80
801080d8:	640143a4 	sh	v1,356(v0)
801080dc:	2000bf8f 	lw	ra,32(sp)
801080e0:	1c00b38f 	lw	s3,28(sp)
801080e4:	1800b28f 	lw	s2,24(sp)
801080e8:	1400b18f 	lw	s1,20(sp)
801080ec:	1000b08f 	lw	s0,16(sp)
801080f0:	0800e003 	jr	ra
801080f4:	2800bd27 	addiu	sp,sp,40
801080f8:	c8ffbd27 	addiu	sp,sp,-56
801080fc:	2800b2af 	sw	s2,40(sp)
80108100:	21908000 	move	s2,a0
80108104:	0c80023c 	lui	v0,0x800c
80108108:	70f84424 	addiu	a0,v0,-1936
8010810c:	3000bfaf 	sw	ra,48(sp)
80108110:	2c00b3af 	sw	s3,44(sp)
80108114:	2400b1af 	sw	s1,36(sp)
80108118:	2000b0af 	sw	s0,32(sp)
8010811c:	01008390 	lbu	v1,1(a0)
80108120:	04000224 	li	v0,4
80108124:	05006210 	beq	v1,v0,0x8010813c
80108128:	05000224 	li	v0,5
8010812c:	0a006210 	beq	v1,v0,0x80108158
80108130:	00000000 	nop
80108134:	9f440408 	j	0x8011127c
80108138:	00000000 	nop
8010813c:	e5018290 	lbu	v0,485(a0)
80108140:	00000000 	nop
80108144:	0200422c 	sltiu	v0,v0,2
80108148:	65004014 	bnez	v0,0x801082e0
8010814c:	01000224 	li	v0,1
80108150:	9f440408 	j	0x8011127c
80108154:	010042a2 	sb	v0,1(s2)
80108158:	5e004392 	lbu	v1,94(s2)
8010815c:	00000000 	nop
80108160:	05006010 	beqz	v1,0x80108178
80108164:	01000224 	li	v0,1
80108168:	3a006210 	beq	v1,v0,0x80108254
8010816c:	01000224 	li	v0,1
80108170:	9d440408 	j	0x80111274
80108174:	010042a2 	sb	v0,1(s2)
80108178:	e842040c 	jal	0x80110ba0
8010817c:	21204002 	move	a0,s2
80108180:	fe45010c 	jal	0x800517f8
80108184:	21204002 	move	a0,s2
80108188:	9142040c 	jal	0x80110a44
8010818c:	21204002 	move	a0,s2
80108190:	48004286 	lh	v0,72(s2)
80108194:	00000000 	nop
80108198:	4d004010 	beqz	v0,0x801082d0
8010819c:	801f023c 	lui	v0,0x1f80
801081a0:	7c014294 	lhu	v0,380(v0)
801081a4:	00000000 	nop
801081a8:	07004230 	andi	v0,v0,0x7
801081ac:	49004014 	bnez	v0,0x801082d4
801081b0:	01000224 	li	v0,1
801081b4:	58004286 	lh	v0,88(s2)
801081b8:	00000000 	nop
801081bc:	02004018 	blez	v0,0x801081c8
801081c0:	0d001324 	li	s3,13
801081c4:	0e001324 	li	s3,14
801081c8:	801f033c 	lui	v1,0x1f80
801081cc:	c0006524 	addiu	a1,v1,192
801081d0:	64000224 	li	v0,100
801081d4:	c00062a4 	sh	v0,192(v1)
801081d8:	fcfe0224 	li	v0,-260
801081dc:	0200a2a4 	sh	v0,2(a1)
801081e0:	ca010224 	li	v0,458
801081e4:	801f113c 	lui	s1,0x1f80
801081e8:	a0003026 	addiu	s0,s1,160
801081ec:	0400a2a4 	sh	v0,4(a1)
801081f0:	c000448e 	lw	a0,192(s2)
801081f4:	21300002 	move	a2,s0
801081f8:	1c11020c 	jal	0x80084470
801081fc:	18008424 	addiu	a0,a0,24
80108200:	c000428e 	lw	v0,192(s2)
80108204:	a0002396 	lhu	v1,160(s1)
80108208:	2c004294 	lhu	v0,44(v0)
8010820c:	21206002 	move	a0,s3
80108210:	21104300 	addu	v0,v0,v1
80108214:	1200a2a7 	sh	v0,18(sp)
80108218:	c000428e 	lw	v0,192(s2)
8010821c:	04000396 	lhu	v1,4(s0)
80108220:	30004294 	lhu	v0,48(v0)
80108224:	1000a527 	addiu	a1,sp,16
80108228:	21104300 	addu	v0,v0,v1
8010822c:	1600a2a7 	sh	v0,22(sp)
80108230:	c000428e 	lw	v0,192(s2)
80108234:	08000396 	lhu	v1,8(s0)
80108238:	34004294 	lhu	v0,52(v0)
8010823c:	ceff0624 	li	a2,-50
80108240:	21104300 	addu	v0,v0,v1
80108244:	5bc4000c 	jal	0x8003116c
80108248:	1a00a2a7 	sh	v0,26(sp)
8010824c:	9c440408 	j	0x80111270
80108250:	01000224 	li	v0,1
80108254:	05004292 	lbu	v0,5(s2)
80108258:	00000000 	nop
8010825c:	05004010 	beqz	v0,0x80108274
80108260:	00000000 	nop
80108264:	07004310 	beq	v0,v1,0x80108284
80108268:	ffff0324 	li	v1,-1
8010826c:	99440408 	j	0x80111264
80108270:	00000000 	nop
80108274:	78000224 	li	v0,120
80108278:	050043a2 	sb	v1,5(s2)
8010827c:	99440408 	j	0x80111264
80108280:	400042a6 	sh	v0,64(s2)
80108284:	40004296 	lhu	v0,64(s2)
80108288:	00000000 	nop
8010828c:	ffff4224 	addiu	v0,v0,-1
80108290:	400042a6 	sh	v0,64(s2)
80108294:	00140200 	sll	v0,v0,0x10
80108298:	03140200 	sra	v0,v0,0x10
8010829c:	0a004314 	bne	v0,v1,0x801082c8
801082a0:	02000324 	li	v1,2
801082a4:	05004292 	lbu	v0,5(s2)
801082a8:	00000000 	nop
801082ac:	01004224 	addiu	v0,v0,1
801082b0:	050042a2 	sb	v0,5(s2)
801082b4:	0c80023c 	lui	v0,0x800c
801082b8:	08f84224 	addiu	v0,v0,-2040
801082bc:	070043a0 	sb	v1,7(v0)
801082c0:	08000324 	li	v1,8
801082c4:	310043a0 	sb	v1,49(v0)
801082c8:	fe45010c 	jal	0x800517f8
801082cc:	21204002 	move	a0,s2
801082d0:	01000224 	li	v0,1
801082d4:	010042a2 	sb	v0,1(s2)
801082d8:	afdf010c 	jal	0x80077ebc
801082dc:	21204002 	move	a0,s2
801082e0:	3000bf8f 	lw	ra,48(sp)
801082e4:	2c00b38f 	lw	s3,44(sp)
801082e8:	2800b28f 	lw	s2,40(sp)
801082ec:	2400b18f 	lw	s1,36(sp)
801082f0:	2000b08f 	lw	s0,32(sp)
801082f4:	0800e003 	jr	ra
801082f8:	3800bd27 	addiu	sp,sp,56
801082fc:	0c80023c 	lui	v0,0x800c
80108300:	58fa4290 	lbu	v0,-1448(v0)
80108304:	a8ffbd27 	addiu	sp,sp,-88
80108308:	3400b1af 	sw	s1,52(sp)
8010830c:	21888000 	move	s1,a0
80108310:	5000bfaf 	sw	ra,80(sp)
80108314:	4c00b7af 	sw	s7,76(sp)
80108318:	4800b6af 	sw	s6,72(sp)
8010831c:	4400b5af 	sw	s5,68(sp)
80108320:	4000b4af 	sw	s4,64(sp)
80108324:	3c00b3af 	sw	s3,60(sp)
80108328:	3800b2af 	sw	s2,56(sp)
8010832c:	0200422c 	sltiu	v0,v0,2
80108330:	04004014 	bnez	v0,0x80108344
80108334:	3000b0af 	sw	s0,48(sp)
80108338:	03000224 	li	v0,3
8010833c:	5e450408 	j	0x80111578
80108340:	040022a2 	sb	v0,4(s1)
80108344:	05002392 	lbu	v1,5(s1)
80108348:	00000000 	nop
8010834c:	05006010 	beqz	v1,0x80108364
80108350:	01000224 	li	v0,1
80108354:	27006210 	beq	v1,v0,0x801083f4
80108358:	00000000 	nop
8010835c:	5e450408 	j	0x80111578
80108360:	00000000 	nop
80108364:	050022a2 	sb	v0,5(s1)
80108368:	21900000 	move	s2,zero
8010836c:	00141200 	sll	v0,s2,0x10
80108370:	c3130200 	sra	v0,v0,0xf
80108374:	21102202 	addu	v0,s1,v0
80108378:	600040a4 	sh	zero,96(v0)
8010837c:	01004226 	addiu	v0,s2,1
80108380:	21904000 	move	s2,v0
80108384:	00140200 	sll	v0,v0,0x10
80108388:	03140200 	sra	v0,v0,0x10
8010838c:	10004228 	slti	v0,v0,16
80108390:	f7ff4014 	bnez	v0,0x80108370
80108394:	00141200 	sll	v0,s2,0x10
80108398:	0e002396 	lhu	v1,14(s1)
8010839c:	08000224 	li	v0,8
801083a0:	5a0020a6 	sh	zero,90(s1)
801083a4:	820022a6 	sh	v0,130(s1)
801083a8:	420020a6 	sh	zero,66(s1)
801083ac:	5e0020a2 	sb	zero,94(s1)
801083b0:	001c0300 	sll	v1,v1,0x10
801083b4:	03140300 	sra	v0,v1,0x10
801083b8:	c21f0300 	srl	v1,v1,0x1f
801083bc:	21104300 	addu	v0,v0,v1
801083c0:	0e002396 	lhu	v1,14(s1)
801083c4:	43100200 	sra	v0,v0,0x1
801083c8:	01006330 	andi	v1,v1,0x1
801083cc:	04006010 	beqz	v1,0x801083e0
801083d0:	5f0022a2 	sb	v0,95(s1)
801083d4:	ff004230 	andi	v0,v0,0xff
801083d8:	e3440408 	j	0x8011138c
801083dc:	c0100200 	sll	v0,v0,0x3
801083e0:	5f002292 	lbu	v0,95(s1)
801083e4:	00000000 	nop
801083e8:	c0100200 	sll	v0,v0,0x3
801083ec:	fcff4224 	addiu	v0,v0,-4
801083f0:	5f0022a2 	sb	v0,95(s1)
801083f4:	5e002292 	lbu	v0,94(s1)
801083f8:	00000000 	nop
801083fc:	01004224 	addiu	v0,v0,1
80108400:	5e0022a2 	sb	v0,94(s1)
80108404:	01004230 	andi	v0,v0,0x1
80108408:	05004014 	bnez	v0,0x80108420
8010840c:	00000000 	nop
80108410:	42002296 	lhu	v0,66(s1)
80108414:	00000000 	nop
80108418:	01004224 	addiu	v0,v0,1
8010841c:	420022a6 	sh	v0,66(s1)
80108420:	801f103c 	lui	s0,0x1f80
80108424:	f8001026 	addiu	s0,s0,248
80108428:	9811020c 	jal	0x80084660
8010842c:	21200002 	move	a0,s0
80108430:	a411020c 	jal	0x80084690
80108434:	21200002 	move	a0,s0
80108438:	21900000 	move	s2,zero
8010843c:	54002296 	lhu	v0,84(s1)
80108440:	801f103c 	lui	s0,0x1f80
80108444:	c00002a6 	sh	v0,192(s0)
80108448:	5a002486 	lh	a0,90(s1)
8010844c:	a00f020c 	jal	0x80083e80
80108450:	c0001026 	addiu	s0,s0,192
80108454:	40180200 	sll	v1,v0,0x1
80108458:	21186200 	addu	v1,v1,v0
8010845c:	00190300 	sll	v1,v1,0x4
80108460:	56002296 	lhu	v0,86(s1)
80108464:	031b0300 	sra	v1,v1,0xc
80108468:	21104300 	addu	v0,v0,v1
8010846c:	020002a6 	sh	v0,2(s0)
80108470:	58002296 	lhu	v0,88(s1)
80108474:	21200002 	move	a0,s0
80108478:	040082a4 	sh	v0,4(a0)
8010847c:	5a002296 	lhu	v0,90(s1)
80108480:	2800a527 	addiu	a1,sp,40
80108484:	00014224 	addiu	v0,v0,256
80108488:	ff0f4230 	andi	v0,v0,0xfff
8010848c:	e8fd000c 	jal	0x8003f7a0
80108490:	5a0022a6 	sh	v0,90(s1)
80108494:	2800a497 	lhu	a0,40(sp)
80108498:	5f002392 	lbu	v1,95(s1)
8010849c:	2a00a687 	lh	a2,42(sp)
801084a0:	1900a2a3 	sb	v0,25(sp)
801084a4:	1800a0a3 	sb	zero,24(sp)
801084a8:	2400a0a7 	sh	zero,36(sp)
801084ac:	2600a0a7 	sh	zero,38(sp)
801084b0:	0e002286 	lh	v0,14(s1)
801084b4:	23208300 	subu	a0,a0,v1
801084b8:	0f80033c 	lui	v1,0x800f
801084bc:	58cf758c 	lw	s5,-12456(v1)
801084c0:	46004018 	blez	v0,0x801085dc
801084c4:	44003026 	addiu	s0,s1,68
801084c8:	00a40400 	sll	s4,a0,0x10
801084cc:	009c0600 	sll	s3,a2,0x10
801084d0:	0c80023c 	lui	v0,0x800c
801084d4:	08f85724 	addiu	s7,v0,-2040
801084d8:	0180023c 	lui	v0,0x8001
801084dc:	34735624 	addiu	s6,v0,29492
801084e0:	00141200 	sll	v0,s2,0x10
801084e4:	033c0200 	sra	a3,v0,0x10
801084e8:	0600e014 	bnez	a3,0x80108504
801084ec:	21202002 	move	a0,s1
801084f0:	032c1400 	sra	a1,s4,0x10
801084f4:	12c7010c 	jal	0x80071c48
801084f8:	03341300 	sra	a2,s3,0x10
801084fc:	2b450408 	j	0x801114ac
80108500:	00000000 	nop
80108504:	032c1400 	sra	a1,s4,0x10
80108508:	3dc7010c 	jal	0x80071cf4
8010850c:	03341300 	sra	a2,s3,0x10
80108510:	2e002296 	lhu	v0,46(s1)
80108514:	00000000 	nop
80108518:	2000a2a7 	sh	v0,32(sp)
8010851c:	32002296 	lhu	v0,50(s1)
80108520:	00000000 	nop
80108524:	2200a2a7 	sh	v0,34(sp)
80108528:	00000292 	lbu	v0,0(s0)
8010852c:	5400e38e 	lw	v1,84(s7)
80108530:	1100a0a3 	sb	zero,17(sp)
80108534:	11006010 	beqz	v1,0x8010857c
80108538:	1000a2a3 	sb	v0,16(sp)
8010853c:	00141200 	sll	v0,s2,0x10
80108540:	0e002486 	lh	a0,14(s1)
80108544:	031c0200 	sra	v1,v0,0x10
80108548:	feff8224 	addiu	v0,a0,-2
8010854c:	04006214 	bne	v1,v0,0x80108560
80108550:	ffff8224 	addiu	v0,a0,-1
80108554:	68000324 	li	v1,104
80108558:	4a450408 	j	0x80111528
8010855c:	7e7c0224 	li	v0,31870
80108560:	06006214 	bne	v1,v0,0x8010857c
80108564:	00000000 	nop
80108568:	7c68020c 	jal	0x8009a1f0
8010856c:	1000a427 	addiu	a0,sp,16
80108570:	69004324 	addiu	v1,v0,105
80108574:	4a450408 	j	0x80111528
80108578:	7e7c0224 	li	v0,31870
8010857c:	7c68020c 	jal	0x8009a1f0
80108580:	1000a427 	addiu	a0,sp,16
80108584:	69004324 	addiu	v1,v0,105
80108588:	3e7c0224 	li	v0,31806
8010858c:	5c0022a6 	sh	v0,92(s1)
80108590:	2000a427 	addiu	a0,sp,32
80108594:	2130a002 	move	a2,s5
80108598:	5c002296 	lhu	v0,92(s1)
8010859c:	1800a727 	addiu	a3,sp,24
801085a0:	1a00a2a7 	sh	v0,26(sp)
801085a4:	00140300 	sll	v0,v1,0x10
801085a8:	83130200 	sra	v0,v0,0xe
801085ac:	21105600 	addu	v0,v0,s6
801085b0:	0000458c 	lw	a1,0(v0)
801085b4:	6ef8010c 	jal	0x8007e1b8
801085b8:	01001026 	addiu	s0,s0,1
801085bc:	01004226 	addiu	v0,s2,1
801085c0:	21904000 	move	s2,v0
801085c4:	00140200 	sll	v0,v0,0x10
801085c8:	0e002386 	lh	v1,14(s1)
801085cc:	03140200 	sra	v0,v0,0x10
801085d0:	2a104300 	slt	v0,v0,v1
801085d4:	c3ff4014 	bnez	v0,0x801084e4
801085d8:	00141200 	sll	v0,s2,0x10
801085dc:	5000bf8f 	lw	ra,80(sp)
801085e0:	4c00b78f 	lw	s7,76(sp)
801085e4:	4800b68f 	lw	s6,72(sp)
801085e8:	4400b58f 	lw	s5,68(sp)
801085ec:	4000b48f 	lw	s4,64(sp)
801085f0:	3c00b38f 	lw	s3,60(sp)
801085f4:	3800b28f 	lw	s2,56(sp)
801085f8:	3400b18f 	lw	s1,52(sp)
801085fc:	3000b08f 	lw	s0,48(sp)
80108600:	0800e003 	jr	ra
80108604:	5800bd27 	addiu	sp,sp,88
80108608:	d8ffbd27 	addiu	sp,sp,-40
8010860c:	1800b2af 	sw	s2,24(sp)
80108610:	21908000 	move	s2,a0
80108614:	01000424 	li	a0,1
80108618:	2000bfaf 	sw	ra,32(sp)
8010861c:	1c00b3af 	sw	s3,28(sp)
80108620:	1400b1af 	sw	s1,20(sp)
80108624:	1000b0af 	sw	s0,16(sp)
80108628:	05004392 	lbu	v1,5(s2)
8010862c:	1000538e 	lw	s3,16(s2)
80108630:	17006410 	beq	v1,a0,0x80108690
80108634:	02006228 	slti	v0,v1,2
80108638:	05004010 	beqz	v0,0x80108650
8010863c:	02000224 	li	v0,2
80108640:	07006010 	beqz	v1,0x80108660
80108644:	01000224 	li	v0,1
80108648:	ca450408 	j	0x80111728
8010864c:	010042a2 	sb	v0,1(s2)
80108650:	2a006210 	beq	v1,v0,0x801086fc
80108654:	01000224 	li	v0,1
80108658:	ca450408 	j	0x80111728
8010865c:	010042a2 	sb	v0,1(s2)
80108660:	00d00224 	li	v0,-12288
80108664:	4a0042a6 	sh	v0,74(s2)
80108668:	80020224 	li	v0,640
8010866c:	500042a6 	sh	v0,80(s2)
80108670:	20000224 	li	v0,32
80108674:	400042a6 	sh	v0,64(s2)
80108678:	40000224 	li	v0,64
8010867c:	600042a6 	sh	v0,96(s2)
80108680:	f0ff0224 	li	v0,-16
80108684:	050044a2 	sb	a0,5(s2)
80108688:	620042a6 	sh	v0,98(s2)
8010868c:	640040a6 	sh	zero,100(s2)
80108690:	36004296 	lhu	v0,54(s2)
80108694:	3000438e 	lw	v1,48(s2)
80108698:	fbff4224 	addiu	v0,v0,-5
8010869c:	360042a6 	sh	v0,54(s2)
801086a0:	4a004286 	lh	v0,74(s2)
801086a4:	50004496 	lhu	a0,80(s2)
801086a8:	00120200 	sll	v0,v0,0x8
801086ac:	21186200 	addu	v1,v1,v0
801086b0:	300043ae 	sw	v1,48(s2)
801086b4:	4a004396 	lhu	v1,74(s2)
801086b8:	40004296 	lhu	v0,64(s2)
801086bc:	21186400 	addu	v1,v1,a0
801086c0:	ffff4224 	addiu	v0,v0,-1
801086c4:	400042a6 	sh	v0,64(s2)
801086c8:	00140200 	sll	v0,v0,0x10
801086cc:	03140200 	sra	v0,v0,0x10
801086d0:	4a0043a6 	sh	v1,74(s2)
801086d4:	ffff0324 	li	v1,-1
801086d8:	2b004314 	bne	v0,v1,0x80108788
801086dc:	01000224 	li	v0,1
801086e0:	05004292 	lbu	v0,5(s2)
801086e4:	0c80033c 	lui	v1,0x800c
801086e8:	01004224 	addiu	v0,v0,1
801086ec:	050042a2 	sb	v0,5(s2)
801086f0:	03000224 	li	v0,3
801086f4:	c8450408 	j	0x80111720
801086f8:	58fa62a0 	sb	v0,-1448(v1)
801086fc:	0c80023c 	lui	v0,0x800c
80108700:	58fa4290 	lbu	v0,-1448(v0)
80108704:	00000000 	nop
80108708:	0400422c 	sltiu	v0,v0,4
8010870c:	07004014 	bnez	v0,0x8010872c
80108710:	98006426 	addiu	a0,s3,152
80108714:	03000224 	li	v0,3
80108718:	040042a2 	sb	v0,4(s2)
8010871c:	362c010c 	jal	0x8004b0d8
80108720:	21204002 	move	a0,s2
80108724:	c9450408 	j	0x80111724
80108728:	01000224 	li	v0,1
8010872c:	801f103c 	lui	s0,0x1f80
80108730:	a0001126 	addiu	s1,s0,160
80108734:	60004526 	addiu	a1,s2,96
80108738:	1c11020c 	jal	0x80084470
8010873c:	21302002 	move	a2,s1
80108740:	dc00628e 	lw	v0,220(s3)
80108744:	a0000396 	lhu	v1,160(s0)
80108748:	2c004294 	lhu	v0,44(v0)
8010874c:	00000000 	nop
80108750:	21104300 	addu	v0,v0,v1
80108754:	2e0042a6 	sh	v0,46(s2)
80108758:	dc00628e 	lw	v0,220(s3)
8010875c:	00000000 	nop
80108760:	30004294 	lhu	v0,48(v0)
80108764:	00000000 	nop
80108768:	320042a6 	sh	v0,50(s2)
8010876c:	dc00628e 	lw	v0,220(s3)
80108770:	08002396 	lhu	v1,8(s1)
80108774:	34004294 	lhu	v0,52(v0)
80108778:	00000000 	nop
8010877c:	21104300 	addu	v0,v0,v1
80108780:	360042a6 	sh	v0,54(s2)
80108784:	01000224 	li	v0,1
80108788:	010042a2 	sb	v0,1(s2)
8010878c:	2000bf8f 	lw	ra,32(sp)
80108790:	1c00b38f 	lw	s3,28(sp)
80108794:	1800b28f 	lw	s2,24(sp)
80108798:	1400b18f 	lw	s1,20(sp)
8010879c:	1000b08f 	lw	s0,16(sp)
801087a0:	0800e003 	jr	ra
801087a4:	2800bd27 	addiu	sp,sp,40
801087a8:	e8ffbd27 	addiu	sp,sp,-24
801087ac:	1000b0af 	sw	s0,16(sp)
801087b0:	21808000 	move	s0,a0
801087b4:	1400bfaf 	sw	ra,20(sp)
801087b8:	04000392 	lbu	v1,4(s0)
801087bc:	01000424 	li	a0,1
801087c0:	b6006410 	beq	v1,a0,0x80108a9c
801087c4:	02006228 	slti	v0,v1,2
801087c8:	05004010 	beqz	v0,0x801087e0
801087cc:	00000000 	nop
801087d0:	0a006010 	beqz	v1,0x801087fc
801087d4:	00000000 	nop
801087d8:	f9460408 	j	0x80111be4
801087dc:	00000000 	nop
801087e0:	02000224 	li	v0,2
801087e4:	18016210 	beq	v1,v0,0x80108c48
801087e8:	03000224 	li	v0,3
801087ec:	14016210 	beq	v1,v0,0x80108c40
801087f0:	00000000 	nop
801087f4:	f9460408 	j	0x80111be4
801087f8:	00000000 	nop
801087fc:	03000392 	lbu	v1,3(s0)
80108800:	00000000 	nop
80108804:	0800622c 	sltiu	v0,v1,8
80108808:	0f014010 	beqz	v0,0x80108c48
8010880c:	040004a2 	sb	a0,4(s0)
80108810:	1180023c 	lui	v0,0x8011
80108814:	18914224 	addiu	v0,v0,-28392
80108818:	80180300 	sll	v1,v1,0x2
8010881c:	21186200 	addu	v1,v1,v0
80108820:	0000628c 	lw	v0,0(v1)
80108824:	00000000 	nop
80108828:	08004000 	jr	v0
8010882c:	00000000 	nop
80108830:	21200002 	move	a0,s0
80108834:	0c000524 	li	a1,12
80108838:	dc46010c 	jal	0x80051b70
8010883c:	05000624 	li	a2,5
80108840:	c2460408 	j	0x80111b08
80108844:	00000000 	nop
80108848:	f741040c 	jal	0x801107dc
8010884c:	21200002 	move	a0,s0
80108850:	f9460408 	j	0x80111be4
80108854:	00000000 	nop
80108858:	4642040c 	jal	0x80110918
8010885c:	21200002 	move	a0,s0
80108860:	f9460408 	j	0x80111be4
80108864:	00000000 	nop
80108868:	21200002 	move	a0,s0
8010886c:	0c000524 	li	a1,12
80108870:	dc46010c 	jal	0x80051b70
80108874:	06000624 	li	a2,6
80108878:	c2460408 	j	0x80111b08
8010887c:	00000000 	nop
80108880:	05000292 	lbu	v0,5(s0)
80108884:	00000000 	nop
80108888:	1d004014 	bnez	v0,0x80108900
8010888c:	0c80023c 	lui	v0,0x800c
80108890:	01000224 	li	v0,1
80108894:	050002a2 	sb	v0,5(s0)
80108898:	0c80023c 	lui	v0,0x800c
8010889c:	08f84224 	addiu	v0,v0,-2040
801088a0:	5400448c 	lw	a0,84(v0)
801088a4:	00000000 	nop
801088a8:	0a008010 	beqz	a0,0x801088d4
801088ac:	00000000 	nop
801088b0:	5000438c 	lw	v1,80(v0)
801088b4:	00000000 	nop
801088b8:	40100300 	sll	v0,v1,0x1
801088bc:	21104300 	addu	v0,v0,v1
801088c0:	c0100200 	sll	v0,v0,0x3
801088c4:	21104300 	addu	v0,v0,v1
801088c8:	80100200 	sll	v0,v0,0x2
801088cc:	1d460408 	j	0x80111874
801088d0:	21204400 	addu	a0,v0,a0
801088d4:	5000448c 	lw	a0,80(v0)
801088d8:	8de5010c 	jal	0x80079634
801088dc:	44000526 	addiu	a1,s0,68
801088e0:	2e000396 	lhu	v1,46(s0)
801088e4:	32000496 	lhu	a0,50(s0)
801088e8:	36000596 	lhu	a1,54(s0)
801088ec:	0e0002a6 	sh	v0,14(s0)
801088f0:	540003a6 	sh	v1,84(s0)
801088f4:	560004a6 	sh	a0,86(s0)
801088f8:	580005a6 	sh	a1,88(s0)
801088fc:	0c80023c 	lui	v0,0x800c
80108900:	58fa4290 	lbu	v0,-1448(v0)
80108904:	00000000 	nop
80108908:	04004010 	beqz	v0,0x8010891c
8010890c:	01000224 	li	v0,1
80108910:	040002a2 	sb	v0,4(s0)
80108914:	f9460408 	j	0x80111be4
80108918:	050000a2 	sb	zero,5(s0)
8010891c:	f9460408 	j	0x80111be4
80108920:	040000a2 	sb	zero,4(s0)
80108924:	0f80023c 	lui	v0,0x800f
80108928:	80cf428c 	lw	v0,-12416(v0)
8010892c:	5e000392 	lbu	v1,94(s0)
80108930:	00000000 	nop
80108934:	06006014 	bnez	v1,0x80108950
80108938:	3c0002ae 	sw	v0,60(s0)
8010893c:	21200002 	move	a0,s0
80108940:	1280053c 	lui	a1,0x8012
80108944:	d4a6a524 	addiu	a1,a1,-22828
80108948:	3f460408 	j	0x801118fc
8010894c:	01000624 	li	a2,1
80108950:	21200002 	move	a0,s0
80108954:	1280053c 	lui	a1,0x8012
80108958:	d4a6a524 	addiu	a1,a1,-22828
8010895c:	02000624 	li	a2,2
80108960:	cede010c 	jal	0x80077b38
80108964:	00000000 	nop
80108968:	10000224 	li	v0,16
8010896c:	0b0002a2 	sb	v0,11(s0)
80108970:	40060224 	li	v0,1600
80108974:	2e0002a6 	sh	v0,46(s0)
80108978:	a4fc0224 	li	v0,-860
8010897c:	320002a6 	sh	v0,50(s0)
80108980:	60090224 	li	v0,2400
80108984:	5c0000a6 	sh	zero,92(s0)
80108988:	5a0000a6 	sh	zero,90(s0)
8010898c:	470000a2 	sb	zero,71(s0)
80108990:	f9460408 	j	0x80111be4
80108994:	360002a6 	sh	v0,54(s0)
80108998:	0f80023c 	lui	v0,0x800f
8010899c:	80cf428c 	lw	v0,-12416(v0)
801089a0:	00000000 	nop
801089a4:	3c0002ae 	sw	v0,60(s0)
801089a8:	0c80023c 	lui	v0,0x800c
801089ac:	58fa4290 	lbu	v0,-1448(v0)
801089b0:	00000000 	nop
801089b4:	02004014 	bnez	v0,0x801089c0
801089b8:	04000624 	li	a2,4
801089bc:	03000624 	li	a2,3
801089c0:	5e000292 	lbu	v0,94(s0)
801089c4:	00000000 	nop
801089c8:	02004010 	beqz	v0,0x801089d4
801089cc:	21200002 	move	a0,s0
801089d0:	0200c624 	addiu	a2,a2,2
801089d4:	1280053c 	lui	a1,0x8012
801089d8:	cede010c 	jal	0x80077b38
801089dc:	d4a6a524 	addiu	a1,a1,-22828
801089e0:	10000224 	li	v0,16
801089e4:	0b0002a2 	sb	v0,11(s0)
801089e8:	801f023c 	lui	v0,0x1f80
801089ec:	801f033c 	lui	v1,0x1f80
801089f0:	470000a2 	sb	zero,71(s0)
801089f4:	60014294 	lhu	v0,352(v0)
801089f8:	64016394 	lhu	v1,356(v1)
801089fc:	5e000492 	lbu	a0,94(s0)
80108a00:	5c0000a6 	sh	zero,92(s0)
80108a04:	5a0000a6 	sh	zero,90(s0)
80108a08:	2e0002a6 	sh	v0,46(s0)
80108a0c:	600002a6 	sh	v0,96(s0)
80108a10:	360003a6 	sh	v1,54(s0)
80108a14:	0a008010 	beqz	a0,0x80108a40
80108a18:	640003a6 	sh	v1,100(s0)
80108a1c:	801f023c 	lui	v0,0x1f80
80108a20:	62014294 	lhu	v0,354(v0)
80108a24:	40000324 	li	v1,64
80108a28:	660000a6 	sh	zero,102(s0)
80108a2c:	680003a6 	sh	v1,104(s0)
80108a30:	6aff4224 	addiu	v0,v0,-150
80108a34:	320002a6 	sh	v0,50(s0)
80108a38:	f9460408 	j	0x80111be4
80108a3c:	620002a6 	sh	v0,98(s0)
80108a40:	78050224 	li	v0,1400
80108a44:	660002a6 	sh	v0,102(s0)
80108a48:	801f023c 	lui	v0,0x1f80
80108a4c:	62014394 	lhu	v1,354(v0)
80108a50:	80000224 	li	v0,128
80108a54:	680002a6 	sh	v0,104(s0)
80108a58:	320003a6 	sh	v1,50(s0)
80108a5c:	f9460408 	j	0x80111be4
80108a60:	620003a6 	sh	v1,98(s0)
80108a64:	21200002 	move	a0,s0
80108a68:	1280053c 	lui	a1,0x8012
80108a6c:	d4a6a524 	addiu	a1,a1,-22828
80108a70:	0f80023c 	lui	v0,0x800f
80108a74:	80cf428c 	lw	v0,-12416(v0)
80108a78:	07000624 	li	a2,7
80108a7c:	cede010c 	jal	0x80077b38
80108a80:	3c0002ae 	sw	v0,60(s0)
80108a84:	10000224 	li	v0,16
80108a88:	5c0000a6 	sh	zero,92(s0)
80108a8c:	0b0002a2 	sb	v0,11(s0)
80108a90:	5a0000a6 	sh	zero,90(s0)
80108a94:	f9460408 	j	0x80111be4
80108a98:	470000a2 	sb	zero,71(s0)
80108a9c:	03000392 	lbu	v1,3(s0)
80108aa0:	00000000 	nop
80108aa4:	0800622c 	sltiu	v0,v1,8
80108aa8:	67004010 	beqz	v0,0x80108c48
80108aac:	1180023c 	lui	v0,0x8011
80108ab0:	38914224 	addiu	v0,v0,-28360
80108ab4:	80180300 	sll	v1,v1,0x2
80108ab8:	21186200 	addu	v1,v1,v0
80108abc:	0000628c 	lw	v0,0(v1)
80108ac0:	00000000 	nop
80108ac4:	08004000 	jr	v0
80108ac8:	00000000 	nop
80108acc:	05000392 	lbu	v1,5(s0)
80108ad0:	00000000 	nop
80108ad4:	05006010 	beqz	v1,0x80108aec
80108ad8:	01000224 	li	v0,1
80108adc:	0c006210 	beq	v1,v0,0x80108b10
80108ae0:	01000224 	li	v0,1
80108ae4:	c0460408 	j	0x80111b00
80108ae8:	010002a2 	sb	v0,1(s0)
80108aec:	0c80023c 	lui	v0,0x800c
80108af0:	58fa4290 	lbu	v0,-1448(v0)
80108af4:	00000000 	nop
80108af8:	0200422c 	sltiu	v0,v0,2
80108afc:	18004014 	bnez	v0,0x80108b60
80108b00:	01000224 	li	v0,1
80108b04:	01000224 	li	v0,1
80108b08:	be460408 	j	0x80111af8
80108b0c:	050002a2 	sb	v0,5(s0)
80108b10:	c400038e 	lw	v1,196(s0)
80108b14:	00000000 	nop
80108b18:	08006294 	lhu	v0,8(v1)
80108b1c:	00000000 	nop
80108b20:	80ff4224 	addiu	v0,v0,-128
80108b24:	080062a4 	sh	v0,8(v1)
80108b28:	c400028e 	lw	v0,196(s0)
80108b2c:	00000000 	nop
80108b30:	08004284 	lh	v0,8(v0)
80108b34:	00000000 	nop
80108b38:	01f94228 	slti	v0,v0,-1791
80108b3c:	07004010 	beqz	v0,0x80108b5c
80108b40:	0c80033c 	lui	v1,0x800c
80108b44:	05000292 	lbu	v0,5(s0)
80108b48:	00000000 	nop
80108b4c:	01004224 	addiu	v0,v0,1
80108b50:	050002a2 	sb	v0,5(s0)
80108b54:	03000224 	li	v0,3
80108b58:	58fa62a0 	sb	v0,-1448(v1)
80108b5c:	01000224 	li	v0,1
80108b60:	010002a2 	sb	v0,1(s0)
80108b64:	9fdf010c 	jal	0x80077e7c
80108b68:	21200002 	move	a0,s0
80108b6c:	fe45010c 	jal	0x800517f8
80108b70:	21200002 	move	a0,s0
80108b74:	f9460408 	j	0x80111be4
80108b78:	00000000 	nop
80108b7c:	2544040c 	jal	0x80111094
80108b80:	21200002 	move	a0,s0
80108b84:	f9460408 	j	0x80111be4
80108b88:	00000000 	nop
80108b8c:	a644040c 	jal	0x80111298
80108b90:	21200002 	move	a0,s0
80108b94:	f9460408 	j	0x80111be4
80108b98:	00000000 	nop
80108b9c:	6945040c 	jal	0x801115a4
80108ba0:	21200002 	move	a0,s0
80108ba4:	f9460408 	j	0x80111be4
80108ba8:	00000000 	nop
80108bac:	66000486 	lh	a0,102(s0)
80108bb0:	60000396 	lhu	v1,96(s0)
80108bb4:	01000224 	li	v0,1
80108bb8:	010002a2 	sb	v0,1(s0)
80108bbc:	a00f020c 	jal	0x80083e80
80108bc0:	2e0003a6 	sh	v1,46(s0)
80108bc4:	00110200 	sll	v0,v0,0x4
80108bc8:	03130200 	sra	v0,v0,0xc
80108bcc:	02004104 	bgez	v0,0x80108bd8
80108bd0:	00000000 	nop
80108bd4:	23100200 	negu	v0,v0
80108bd8:	62000396 	lhu	v1,98(s0)
80108bdc:	66000486 	lh	a0,102(s0)
80108be0:	23186200 	subu	v1,v1,v0
80108be4:	d40f020c 	jal	0x80083f50
80108be8:	320003a6 	sh	v1,50(s0)
80108bec:	68000386 	lh	v1,104(s0)
80108bf0:	00000000 	nop
80108bf4:	18004300 	mult	v0,v1
80108bf8:	64000296 	lhu	v0,100(s0)
80108bfc:	12380000 	mflo	a3
80108c00:	031b0700 	sra	v1,a3,0xc
80108c04:	21104300 	addu	v0,v0,v1
80108c08:	1469020c 	jal	0x8009a450
80108c0c:	360002a6 	sh	v0,54(s0)
80108c10:	03004230 	andi	v0,v0,0x3
80108c14:	62000396 	lhu	v1,98(s0)
80108c18:	66000496 	lhu	a0,102(s0)
80108c1c:	04006324 	addiu	v1,v1,4
80108c20:	21186200 	addu	v1,v1,v0
80108c24:	30008424 	addiu	a0,a0,48
80108c28:	620003a6 	sh	v1,98(s0)
80108c2c:	f9460408 	j	0x80111be4
80108c30:	660004a6 	sh	a0,102(s0)
80108c34:	01000224 	li	v0,1
80108c38:	f9460408 	j	0x80111be4
80108c3c:	010002a2 	sb	v0,1(s0)
80108c40:	89e9010c 	jal	0x8007a624
80108c44:	21200002 	move	a0,s0
80108c48:	1400bf8f 	lw	ra,20(sp)
80108c4c:	1000b08f 	lw	s0,16(sp)
80108c50:	0800e003 	jr	ra
80108c54:	1800bd27 	addiu	sp,sp,24
80108c58:	e8ffbd27 	addiu	sp,sp,-24
80108c5c:	1000b0af 	sw	s0,16(sp)
80108c60:	21808000 	move	s0,a0
80108c64:	0c000524 	li	a1,12
80108c68:	1400bfaf 	sw	ra,20(sp)
80108c6c:	dc46010c 	jal	0x80051b70
80108c70:	05000624 	li	a2,5
80108c74:	fe45010c 	jal	0x800517f8
80108c78:	21200002 	move	a0,s0
80108c7c:	1400bf8f 	lw	ra,20(sp)
80108c80:	1000b08f 	lw	s0,16(sp)
80108c84:	0800e003 	jr	ra
80108c88:	1800bd27 	addiu	sp,sp,24
80108c8c:	01000224 	li	v0,1
80108c90:	0800e003 	jr	ra
80108c94:	010082a0 	sb	v0,1(a0)
80108c98:	e8ffbd27 	addiu	sp,sp,-24
80108c9c:	1000b0af 	sw	s0,16(sp)
80108ca0:	21808000 	move	s0,a0
80108ca4:	1400bfaf 	sw	ra,20(sp)
80108ca8:	05000392 	lbu	v1,5(s0)
80108cac:	00000000 	nop
80108cb0:	05006010 	beqz	v1,0x80108cc8
80108cb4:	01000224 	li	v0,1
80108cb8:	0c006210 	beq	v1,v0,0x80108cec
80108cbc:	01000224 	li	v0,1
80108cc0:	37470408 	j	0x80111cdc
80108cc4:	21200002 	move	a0,s0
80108cc8:	0c80023c 	lui	v0,0x800c
80108ccc:	58fa4290 	lbu	v0,-1448(v0)
80108cd0:	00000000 	nop
80108cd4:	0200422c 	sltiu	v0,v0,2
80108cd8:	18004014 	bnez	v0,0x80108d3c
80108cdc:	01000224 	li	v0,1
80108ce0:	01000224 	li	v0,1
80108ce4:	35470408 	j	0x80111cd4
80108ce8:	050002a2 	sb	v0,5(s0)
80108cec:	c400038e 	lw	v1,196(s0)
80108cf0:	00000000 	nop
80108cf4:	08006294 	lhu	v0,8(v1)
80108cf8:	00000000 	nop
80108cfc:	80ff4224 	addiu	v0,v0,-128
80108d00:	080062a4 	sh	v0,8(v1)
80108d04:	c400028e 	lw	v0,196(s0)
80108d08:	00000000 	nop
80108d0c:	08004284 	lh	v0,8(v0)
80108d10:	00000000 	nop
80108d14:	01f94228 	slti	v0,v0,-1791
80108d18:	07004010 	beqz	v0,0x80108d38
80108d1c:	0c80033c 	lui	v1,0x800c
80108d20:	05000292 	lbu	v0,5(s0)
80108d24:	00000000 	nop
80108d28:	01004224 	addiu	v0,v0,1
80108d2c:	050002a2 	sb	v0,5(s0)
80108d30:	03000224 	li	v0,3
80108d34:	58fa62a0 	sb	v0,-1448(v1)
80108d38:	01000224 	li	v0,1
80108d3c:	21200002 	move	a0,s0
80108d40:	9fdf010c 	jal	0x80077e7c
80108d44:	010002a2 	sb	v0,1(s0)
80108d48:	fe45010c 	jal	0x800517f8
80108d4c:	21200002 	move	a0,s0
80108d50:	1400bf8f 	lw	ra,20(sp)
80108d54:	1000b08f 	lw	s0,16(sp)
80108d58:	0800e003 	jr	ra
80108d5c:	1800bd27 	addiu	sp,sp,24
80108d60:	d8ffbd27 	addiu	sp,sp,-40
80108d64:	1400b1af 	sw	s1,20(sp)
80108d68:	21888000 	move	s1,a0
80108d6c:	801f053c 	lui	a1,0x1f80
80108d70:	1800b2af 	sw	s2,24(sp)
80108d74:	801f123c 	lui	s2,0x1f80
80108d78:	1c00b3af 	sw	s3,28(sp)
80108d7c:	801f133c 	lui	s3,0x1f80
80108d80:	1000b0af 	sw	s0,16(sp)
80108d84:	a0007026 	addiu	s0,s3,160
80108d88:	2000bfaf 	sw	ra,32(sp)
80108d8c:	4e002296 	lhu	v0,78(s1)
80108d90:	4802448e 	lw	a0,584(s2)
80108d94:	21300002 	move	a2,s0
80108d98:	c000a2a4 	sh	v0,192(a1)
80108d9c:	50002296 	lhu	v0,80(s1)
80108da0:	c000a524 	addiu	a1,a1,192
80108da4:	0200a2a4 	sh	v0,2(a1)
80108da8:	52002296 	lhu	v0,82(s1)
80108dac:	98008424 	addiu	a0,a0,152
80108db0:	1c11020c 	jal	0x80084470
80108db4:	0400a2a4 	sh	v0,4(a1)
80108db8:	4802448e 	lw	a0,584(s2)
80108dbc:	a0006396 	lhu	v1,160(s3)
80108dc0:	2e008294 	lhu	v0,46(a0)
80108dc4:	00000000 	nop
80108dc8:	21104300 	addu	v0,v0,v1
80108dcc:	2e0022a6 	sh	v0,46(s1)
80108dd0:	32008294 	lhu	v0,50(a0)
80108dd4:	04000396 	lhu	v1,4(s0)
80108dd8:	00000000 	nop
80108ddc:	21104300 	addu	v0,v0,v1
80108de0:	320022a6 	sh	v0,50(s1)
80108de4:	36008294 	lhu	v0,54(a0)
80108de8:	08000396 	lhu	v1,8(s0)
80108dec:	00000000 	nop
80108df0:	21104300 	addu	v0,v0,v1
80108df4:	360022a6 	sh	v0,54(s1)
80108df8:	2000bf8f 	lw	ra,32(sp)
80108dfc:	1c00b38f 	lw	s3,28(sp)
80108e00:	1800b28f 	lw	s2,24(sp)
80108e04:	1400b18f 	lw	s1,20(sp)
80108e08:	1000b08f 	lw	s0,16(sp)
80108e0c:	0800e003 	jr	ra
80108e10:	2800bd27 	addiu	sp,sp,40
80108e14:	e8ffbd27 	addiu	sp,sp,-24
80108e18:	1000b0af 	sw	s0,16(sp)
80108e1c:	21808000 	move	s0,a0
80108e20:	0c000524 	li	a1,12
80108e24:	1400bfaf 	sw	ra,20(sp)
80108e28:	dc46010c 	jal	0x80051b70
80108e2c:	06000624 	li	a2,6
80108e30:	fe45010c 	jal	0x800517f8
80108e34:	21200002 	move	a0,s0
80108e38:	1400bf8f 	lw	ra,20(sp)
80108e3c:	1000b08f 	lw	s0,16(sp)
80108e40:	0800e003 	jr	ra
80108e44:	1800bd27 	addiu	sp,sp,24
80108e48:	01000224 	li	v0,1
80108e4c:	0800e003 	jr	ra
80108e50:	010082a0 	sb	v0,1(a0)
80108e54:	e8ffbd27 	addiu	sp,sp,-24
80108e58:	1000b0af 	sw	s0,16(sp)
80108e5c:	21808000 	move	s0,a0
80108e60:	1400bfaf 	sw	ra,20(sp)
80108e64:	05000292 	lbu	v0,5(s0)
80108e68:	00000000 	nop
80108e6c:	1d004014 	bnez	v0,0x80108ee4
80108e70:	0c80023c 	lui	v0,0x800c
80108e74:	01000224 	li	v0,1
80108e78:	050002a2 	sb	v0,5(s0)
80108e7c:	0c80023c 	lui	v0,0x800c
80108e80:	08f84224 	addiu	v0,v0,-2040
80108e84:	5400448c 	lw	a0,84(v0)
80108e88:	00000000 	nop
80108e8c:	0a008010 	beqz	a0,0x80108eb8
80108e90:	00000000 	nop
80108e94:	5000438c 	lw	v1,80(v0)
80108e98:	00000000 	nop
80108e9c:	40100300 	sll	v0,v1,0x1
80108ea0:	21104300 	addu	v0,v0,v1
80108ea4:	c0100200 	sll	v0,v0,0x3
80108ea8:	21104300 	addu	v0,v0,v1
80108eac:	80100200 	sll	v0,v0,0x2
80108eb0:	96470408 	j	0x80111e58
80108eb4:	21204400 	addu	a0,v0,a0
80108eb8:	5000448c 	lw	a0,80(v0)
80108ebc:	8de5010c 	jal	0x80079634
80108ec0:	44000526 	addiu	a1,s0,68
80108ec4:	2e000396 	lhu	v1,46(s0)
80108ec8:	32000496 	lhu	a0,50(s0)
80108ecc:	36000596 	lhu	a1,54(s0)
80108ed0:	0e0002a6 	sh	v0,14(s0)
80108ed4:	540003a6 	sh	v1,84(s0)
80108ed8:	560004a6 	sh	a0,86(s0)
80108edc:	580005a6 	sh	a1,88(s0)
80108ee0:	0c80023c 	lui	v0,0x800c
80108ee4:	58fa4290 	lbu	v0,-1448(v0)
80108ee8:	00000000 	nop
80108eec:	04004010 	beqz	v0,0x80108f00
80108ef0:	01000224 	li	v0,1
80108ef4:	040002a2 	sb	v0,4(s0)
80108ef8:	a8470408 	j	0x80111ea0
80108efc:	050000a2 	sb	zero,5(s0)
80108f00:	040000a2 	sb	zero,4(s0)
80108f04:	1400bf8f 	lw	ra,20(sp)
80108f08:	1000b08f 	lw	s0,16(sp)
80108f0c:	0800e003 	jr	ra
80108f10:	1800bd27 	addiu	sp,sp,24
80108f14:	0f80023c 	lui	v0,0x800f
80108f18:	80cf428c 	lw	v0,-12416(v0)
80108f1c:	e8ffbd27 	addiu	sp,sp,-24
80108f20:	1000b0af 	sw	s0,16(sp)
80108f24:	21808000 	move	s0,a0
80108f28:	1400bfaf 	sw	ra,20(sp)
80108f2c:	5e000392 	lbu	v1,94(s0)
80108f30:	00000000 	nop
80108f34:	05006014 	bnez	v1,0x80108f4c
80108f38:	3c0002ae 	sw	v0,60(s0)
80108f3c:	1280053c 	lui	a1,0x8012
80108f40:	d4a6a524 	addiu	a1,a1,-22828
80108f44:	be470408 	j	0x80111ef8
80108f48:	01000624 	li	a2,1
80108f4c:	21200002 	move	a0,s0
80108f50:	1280053c 	lui	a1,0x8012
80108f54:	d4a6a524 	addiu	a1,a1,-22828
80108f58:	02000624 	li	a2,2
80108f5c:	cede010c 	jal	0x80077b38
80108f60:	00000000 	nop
80108f64:	10000224 	li	v0,16
80108f68:	0b0002a2 	sb	v0,11(s0)
80108f6c:	40060224 	li	v0,1600
80108f70:	2e0002a6 	sh	v0,46(s0)
80108f74:	a4fc0224 	li	v0,-860
80108f78:	320002a6 	sh	v0,50(s0)
80108f7c:	60090224 	li	v0,2400
80108f80:	5c0000a6 	sh	zero,92(s0)
80108f84:	5a0000a6 	sh	zero,90(s0)
80108f88:	470000a2 	sb	zero,71(s0)
80108f8c:	360002a6 	sh	v0,54(s0)
80108f90:	1400bf8f 	lw	ra,20(sp)
80108f94:	1000b08f 	lw	s0,16(sp)
80108f98:	0800e003 	jr	ra
80108f9c:	1800bd27 	addiu	sp,sp,24
80108fa0:	e0ffbd27 	addiu	sp,sp,-32
80108fa4:	1400b1af 	sw	s1,20(sp)
80108fa8:	21888000 	move	s1,a0
80108fac:	1000b0af 	sw	s0,16(sp)
80108fb0:	2180a000 	move	s0,a1
80108fb4:	21200000 	move	a0,zero
80108fb8:	21288000 	move	a1,a0
80108fbc:	03000624 	li	a2,3
80108fc0:	1800bfaf 	sw	ra,24(sp)
80108fc4:	77cb010c 	jal	0x80072ddc
80108fc8:	10000724 	li	a3,16
80108fcc:	21184000 	move	v1,v0
80108fd0:	07006010 	beqz	v1,0x80108ff0
80108fd4:	1180023c 	lui	v0,0x8011
80108fd8:	44174224 	addiu	v0,v0,5956
80108fdc:	1c0062ac 	sw	v0,28(v1)
80108fe0:	06000224 	li	v0,6
80108fe4:	030062a0 	sb	v0,3(v1)
80108fe8:	5e0070a0 	sb	s0,94(v1)
80108fec:	100071ac 	sw	s1,16(v1)
80108ff0:	1800bf8f 	lw	ra,24(sp)
80108ff4:	1400b18f 	lw	s1,20(sp)
80108ff8:	1000b08f 	lw	s0,16(sp)
80108ffc:	21106000 	move	v0,v1
80109000:	0800e003 	jr	ra
80109004:	2000bd27 	addiu	sp,sp,32
80109008:	0f80023c 	lui	v0,0x800f
8010900c:	80cf428c 	lw	v0,-12416(v0)
80109010:	e8ffbd27 	addiu	sp,sp,-24
80109014:	1000b0af 	sw	s0,16(sp)
80109018:	21808000 	move	s0,a0
8010901c:	1400bfaf 	sw	ra,20(sp)
80109020:	3c0002ae 	sw	v0,60(s0)
80109024:	0c80023c 	lui	v0,0x800c
80109028:	58fa4290 	lbu	v0,-1448(v0)
8010902c:	00000000 	nop
80109030:	02004014 	bnez	v0,0x8010903c
80109034:	04000624 	li	a2,4
80109038:	03000624 	li	a2,3
8010903c:	5e000292 	lbu	v0,94(s0)
80109040:	00000000 	nop
80109044:	02004010 	beqz	v0,0x80109050
80109048:	00000000 	nop
8010904c:	0200c624 	addiu	a2,a2,2
80109050:	1280053c 	lui	a1,0x8012
80109054:	21200002 	move	a0,s0
80109058:	cede010c 	jal	0x80077b38
8010905c:	d4a6a524 	addiu	a1,a1,-22828
80109060:	10000224 	li	v0,16
80109064:	0b0002a2 	sb	v0,11(s0)
80109068:	801f023c 	lui	v0,0x1f80
8010906c:	801f033c 	lui	v1,0x1f80
80109070:	470000a2 	sb	zero,71(s0)
80109074:	60014294 	lhu	v0,352(v0)
80109078:	64016394 	lhu	v1,356(v1)
8010907c:	5e000492 	lbu	a0,94(s0)
80109080:	5c0000a6 	sh	zero,92(s0)
80109084:	5a0000a6 	sh	zero,90(s0)
80109088:	2e0002a6 	sh	v0,46(s0)
8010908c:	600002a6 	sh	v0,96(s0)
80109090:	360003a6 	sh	v1,54(s0)
80109094:	0a008010 	beqz	a0,0x801090c0
80109098:	640003a6 	sh	v1,100(s0)
8010909c:	801f023c 	lui	v0,0x1f80
801090a0:	62014294 	lhu	v0,354(v0)
801090a4:	40000324 	li	v1,64
801090a8:	660000a6 	sh	zero,102(s0)
801090ac:	680003a6 	sh	v1,104(s0)
801090b0:	6aff4224 	addiu	v0,v0,-150
801090b4:	320002a6 	sh	v0,50(s0)
801090b8:	1f480408 	j	0x8011207c
801090bc:	620002a6 	sh	v0,98(s0)
801090c0:	78050224 	li	v0,1400
801090c4:	660002a6 	sh	v0,102(s0)
801090c8:	801f023c 	lui	v0,0x1f80
801090cc:	62014394 	lhu	v1,354(v0)
801090d0:	80000224 	li	v0,128
801090d4:	680002a6 	sh	v0,104(s0)
801090d8:	320003a6 	sh	v1,50(s0)
801090dc:	620003a6 	sh	v1,98(s0)
801090e0:	1400bf8f 	lw	ra,20(sp)
801090e4:	1000b08f 	lw	s0,16(sp)
801090e8:	0800e003 	jr	ra
801090ec:	1800bd27 	addiu	sp,sp,24
801090f0:	e8ffbd27 	addiu	sp,sp,-24
801090f4:	1000b0af 	sw	s0,16(sp)
801090f8:	21808000 	move	s0,a0
801090fc:	1400bfaf 	sw	ra,20(sp)
80109100:	66000486 	lh	a0,102(s0)
80109104:	60000396 	lhu	v1,96(s0)
80109108:	01000224 	li	v0,1
8010910c:	010002a2 	sb	v0,1(s0)
80109110:	a00f020c 	jal	0x80083e80
80109114:	2e0003a6 	sh	v1,46(s0)
80109118:	00110200 	sll	v0,v0,0x4
8010911c:	03130200 	sra	v0,v0,0xc
80109120:	02004104 	bgez	v0,0x8010912c
80109124:	00000000 	nop
80109128:	23100200 	negu	v0,v0
8010912c:	62000396 	lhu	v1,98(s0)
80109130:	66000486 	lh	a0,102(s0)
80109134:	23186200 	subu	v1,v1,v0
80109138:	d40f020c 	jal	0x80083f50
8010913c:	320003a6 	sh	v1,50(s0)
80109140:	68000386 	lh	v1,104(s0)
80109144:	00000000 	nop
80109148:	18004300 	mult	v0,v1
8010914c:	64000296 	lhu	v0,100(s0)
80109150:	12280000 	mflo	a1
80109154:	031b0500 	sra	v1,a1,0xc
80109158:	21104300 	addu	v0,v0,v1
8010915c:	1469020c 	jal	0x8009a450
80109160:	360002a6 	sh	v0,54(s0)
80109164:	03004230 	andi	v0,v0,0x3
80109168:	62000396 	lhu	v1,98(s0)
8010916c:	66000496 	lhu	a0,102(s0)
80109170:	04006324 	addiu	v1,v1,4
80109174:	21186200 	addu	v1,v1,v0
80109178:	30008424 	addiu	a0,a0,48
8010917c:	620003a6 	sh	v1,98(s0)
80109180:	660004a6 	sh	a0,102(s0)
80109184:	1400bf8f 	lw	ra,20(sp)
80109188:	1000b08f 	lw	s0,16(sp)
8010918c:	0800e003 	jr	ra
80109190:	1800bd27 	addiu	sp,sp,24
80109194:	e8ffbd27 	addiu	sp,sp,-24
80109198:	1000b0af 	sw	s0,16(sp)
8010919c:	21808000 	move	s0,a0
801091a0:	0f80023c 	lui	v0,0x800f
801091a4:	1280053c 	lui	a1,0x8012
801091a8:	d4a6a524 	addiu	a1,a1,-22828
801091ac:	80cf428c 	lw	v0,-12416(v0)
801091b0:	07000624 	li	a2,7
801091b4:	1400bfaf 	sw	ra,20(sp)
801091b8:	cede010c 	jal	0x80077b38
801091bc:	3c0002ae 	sw	v0,60(s0)
801091c0:	10000224 	li	v0,16
801091c4:	5c0000a6 	sh	zero,92(s0)
801091c8:	0b0002a2 	sb	v0,11(s0)
801091cc:	5a0000a6 	sh	zero,90(s0)
801091d0:	470000a2 	sb	zero,71(s0)
801091d4:	1400bf8f 	lw	ra,20(sp)
801091d8:	1000b08f 	lw	s0,16(sp)
801091dc:	0800e003 	jr	ra
801091e0:	1800bd27 	addiu	sp,sp,24
801091e4:	01000224 	li	v0,1
801091e8:	0800e003 	jr	ra
801091ec:	010082a0 	sb	v0,1(a0)
801091f0:	e8ffbd27 	addiu	sp,sp,-24
801091f4:	1000b0af 	sw	s0,16(sp)
801091f8:	21808000 	move	s0,a0
801091fc:	1400bfaf 	sw	ra,20(sp)
80109200:	78000392 	lbu	v1,120(s0)
80109204:	01000224 	li	v0,1
80109208:	18006210 	beq	v1,v0,0x8010926c
8010920c:	02006228 	slti	v0,v1,2
80109210:	05004010 	beqz	v0,0x80109228
80109214:	02000224 	li	v0,2
80109218:	09006010 	beqz	v1,0x80109240
8010921c:	21100000 	move	v0,zero
80109220:	a9480408 	j	0x801122a4
80109224:	00000000 	nop
80109228:	20006210 	beq	v1,v0,0x801092ac
8010922c:	03000224 	li	v0,3
80109230:	31006210 	beq	v1,v0,0x801092f8
80109234:	21100000 	move	v0,zero
80109238:	a9480408 	j	0x801122a4
8010923c:	00000000 	nop
80109240:	74000286 	lh	v0,116(s0)
80109244:	00000000 	nop
80109248:	04004004 	bltz	v0,0x8010925c
8010924c:	00000000 	nop
80109250:	74000292 	lbu	v0,116(s0)
80109254:	00000000 	nop
80109258:	7a0002a2 	sb	v0,122(s0)
8010925c:	78000292 	lbu	v0,120(s0)
80109260:	00000000 	nop
80109264:	01004224 	addiu	v0,v0,1
80109268:	780002a2 	sb	v0,120(s0)
8010926c:	03000624 	li	a2,3
80109270:	72000496 	lhu	a0,114(s0)
80109274:	7a000592 	lbu	a1,122(s0)
80109278:	00108434 	ori	a0,a0,0x1000
8010927c:	00240400 	sll	a0,a0,0x10
80109280:	bef7010c 	jal	0x8007def8
80109284:	03240400 	sra	a0,a0,0x10
80109288:	1e004010 	beqz	v0,0x80109304
8010928c:	100002ae 	sw	v0,16(s0)
80109290:	0c80023c 	lui	v0,0x800c
80109294:	70f84224 	addiu	v0,v0,-1936
80109298:	e6014390 	lbu	v1,486(v0)
8010929c:	00000000 	nop
801092a0:	01006324 	addiu	v1,v1,1
801092a4:	a0480408 	j	0x80112280
801092a8:	e60143a0 	sb	v1,486(v0)
801092ac:	1000048e 	lw	a0,16(s0)
801092b0:	00000000 	nop
801092b4:	04008290 	lbu	v0,4(a0)
801092b8:	00000000 	nop
801092bc:	12004314 	bne	v0,v1,0x80109308
801092c0:	21100000 	move	v0,zero
801092c4:	03000224 	li	v0,3
801092c8:	0c80033c 	lui	v1,0x800c
801092cc:	70f86324 	addiu	v1,v1,-1936
801092d0:	040082a0 	sb	v0,4(a0)
801092d4:	e7016290 	lbu	v0,487(v1)
801092d8:	00000000 	nop
801092dc:	01004224 	addiu	v0,v0,1
801092e0:	e70162a0 	sb	v0,487(v1)
801092e4:	78000292 	lbu	v0,120(s0)
801092e8:	00000000 	nop
801092ec:	01004224 	addiu	v0,v0,1
801092f0:	a8480408 	j	0x801122a0
801092f4:	780002a2 	sb	v0,120(s0)
801092f8:	100000ae 	sw	zero,16(s0)
801092fc:	a9480408 	j	0x801122a4
80109300:	01000224 	li	v0,1
80109304:	21100000 	move	v0,zero
80109308:	1400bf8f 	lw	ra,20(sp)
8010930c:	1000b08f 	lw	s0,16(sp)
80109310:	0800e003 	jr	ra
80109314:	1800bd27 	addiu	sp,sp,24
80109318:	d0ffbd27 	addiu	sp,sp,-48
8010931c:	1000b0af 	sw	s0,16(sp)
80109320:	21808000 	move	s0,a0
80109324:	0e80023c 	lui	v0,0x800e
80109328:	1800b2af 	sw	s2,24(sp)
8010932c:	2400b5af 	sw	s5,36(sp)
80109330:	01001524 	li	s5,1
80109334:	2800bfaf 	sw	ra,40(sp)
80109338:	2000b4af 	sw	s4,32(sp)
8010933c:	1c00b3af 	sw	s3,28(sp)
80109340:	1400b1af 	sw	s1,20(sp)
80109344:	6c00138e 	lw	s3,108(s0)
80109348:	78000392 	lbu	v1,120(s0)
8010934c:	0a007496 	lhu	s4,10(s3)
80109350:	66007510 	beq	v1,s5,0x801094ec
80109354:	807e5224 	addiu	s2,v0,32384
80109358:	02006228 	slti	v0,v1,2
8010935c:	05004010 	beqz	v0,0x80109374
80109360:	02000224 	li	v0,2
80109364:	07006010 	beqz	v1,0x80109384
80109368:	21100000 	move	v0,zero
8010936c:	8f490408 	j	0x8011263c
80109370:	00000000 	nop
80109374:	6c006210 	beq	v1,v0,0x80109528
80109378:	21100000 	move	v0,zero
8010937c:	8f490408 	j	0x8011263c
80109380:	00000000 	nop
80109384:	21000224 	li	v0,33
80109388:	050042a2 	sb	v0,5(s2)
8010938c:	060040a2 	sb	zero,6(s2)
80109390:	64000296 	lhu	v0,100(s0)
80109394:	00000000 	nop
80109398:	00140200 	sll	v0,v0,0x10
8010939c:	03160200 	sra	v0,v0,0x18
801093a0:	02004014 	bnez	v0,0x801093ac
801093a4:	21884000 	move	s1,v0
801093a8:	0a001124 	li	s1,10
801093ac:	74000296 	lhu	v0,116(s0)
801093b0:	2e004396 	lhu	v1,46(s2)
801093b4:	00000000 	nop
801093b8:	23104300 	subu	v0,v0,v1
801093bc:	76000396 	lhu	v1,118(s0)
801093c0:	480002a6 	sh	v0,72(s0)
801093c4:	36004296 	lhu	v0,54(s2)
801093c8:	00000000 	nop
801093cc:	23186200 	subu	v1,v1,v0
801093d0:	00140300 	sll	v0,v1,0x10
801093d4:	03140200 	sra	v0,v0,0x10
801093d8:	18004200 	mult	v0,v0
801093dc:	12200000 	mflo	a0
801093e0:	48000286 	lh	v0,72(s0)
801093e4:	00000000 	nop
801093e8:	18004200 	mult	v0,v0
801093ec:	4c0003a6 	sh	v1,76(s0)
801093f0:	12400000 	mflo	t0
801093f4:	2010020c 	jal	0x80084080
801093f8:	21208800 	addu	a0,a0,t0
801093fc:	00140200 	sll	v0,v0,0x10
80109400:	03140200 	sra	v0,v0,0x10
80109404:	001c1100 	sll	v1,s1,0x10
80109408:	031c0300 	sra	v1,v1,0x10
8010940c:	1a004300 	div	zero,v0,v1
80109410:	02006014 	bnez	v1,0x8010941c
80109414:	00000000 	nop
80109418:	0d000700 	break	0x7
8010941c:	ffff0124 	li	at,-1
80109420:	04006114 	bne	v1,at,0x80109434
80109424:	0080013c 	lui	at,0x8000
80109428:	02004114 	bne	v0,at,0x80109434
8010942c:	00000000 	nop
80109430:	0d000600 	break	0x6
80109434:	12100000 	mflo	v0
80109438:	00000000 	nop
8010943c:	640002a6 	sh	v0,100(s0)
80109440:	00140200 	sll	v0,v0,0x10
80109444:	02004014 	bnez	v0,0x80109450
80109448:	00000000 	nop
8010944c:	640015a6 	sh	s5,100(s0)
80109450:	64000386 	lh	v1,100(s0)
80109454:	00100224 	li	v0,4096
80109458:	1a004300 	div	zero,v0,v1
8010945c:	02006014 	bnez	v1,0x80109468
80109460:	00000000 	nop
80109464:	0d000700 	break	0x7
80109468:	ffff0124 	li	at,-1
8010946c:	04006114 	bne	v1,at,0x80109480
80109470:	0080013c 	lui	at,0x8000
80109474:	02004114 	bne	v0,at,0x80109480
80109478:	00000000 	nop
8010947c:	0d000600 	break	0x6
80109480:	12180000 	mflo	v1
80109484:	440002a6 	sh	v0,68(s0)
80109488:	00141400 	sll	v0,s4,0x10
8010948c:	640003a6 	sh	v1,100(s0)
80109490:	031c0200 	sra	v1,v0,0x10
80109494:	ffff0224 	li	v0,-1
80109498:	05006210 	beq	v1,v0,0x801094b0
8010949c:	00000000 	nop
801094a0:	09006014 	bnez	v1,0x801094c8
801094a4:	02000224 	li	v0,2
801094a8:	8e490408 	j	0x80112638
801094ac:	780002a2 	sb	v0,120(s0)
801094b0:	4c000486 	lh	a0,76(s0)
801094b4:	48000586 	lh	a1,72(s0)
801094b8:	a415020c 	jal	0x80085690
801094bc:	23200400 	negu	a0,a0
801094c0:	ff0f4230 	andi	v0,v0,0xfff
801094c4:	560042a6 	sh	v0,86(s2)
801094c8:	4c000486 	lh	a0,76(s0)
801094cc:	48000586 	lh	a1,72(s0)
801094d0:	a415020c 	jal	0x80085690
801094d4:	23200400 	negu	a0,a0
801094d8:	78000392 	lbu	v1,120(s0)
801094dc:	ff0f4230 	andi	v0,v0,0xfff
801094e0:	660002a6 	sh	v0,102(s0)
801094e4:	01006324 	addiu	v1,v1,1
801094e8:	780003a2 	sb	v1,120(s0)
801094ec:	21204002 	move	a0,s2
801094f0:	66000586 	lh	a1,102(s0)
801094f4:	0e05010c 	jal	0x80041438
801094f8:	00010624 	li	a2,256
801094fc:	06004010 	beqz	v0,0x80109518
80109500:	00141400 	sll	v0,s4,0x10
80109504:	78000292 	lbu	v0,120(s0)
80109508:	00000000 	nop
8010950c:	01004224 	addiu	v0,v0,1
80109510:	780002a2 	sb	v0,120(s0)
80109514:	00141400 	sll	v0,s4,0x10
80109518:	03140200 	sra	v0,v0,0x10
8010951c:	01000324 	li	v1,1
80109520:	5f004310 	beq	v0,v1,0x801096a0
80109524:	21100000 	move	v0,zero
80109528:	21204002 	move	a0,s2
8010952c:	72000596 	lhu	a1,114(s0)
80109530:	04000624 	li	a2,4
80109534:	4553010c 	jal	0x80054d14
80109538:	ff0fa530 	andi	a1,a1,0xfff
8010953c:	44000296 	lhu	v0,68(s0)
80109540:	64000396 	lhu	v1,100(s0)
80109544:	00000000 	nop
80109548:	23104300 	subu	v0,v0,v1
8010954c:	440002a6 	sh	v0,68(s0)
80109550:	00140200 	sll	v0,v0,0x10
80109554:	0200401c 	bgtz	v0,0x80109560
80109558:	00000000 	nop
8010955c:	440000a6 	sh	zero,68(s0)
80109560:	44000386 	lh	v1,68(s0)
80109564:	48000286 	lh	v0,72(s0)
80109568:	00000000 	nop
8010956c:	18006200 	mult	v1,v0
80109570:	12180000 	mflo	v1
80109574:	02006104 	bgez	v1,0x80109580
80109578:	00000000 	nop
8010957c:	ff0f6324 	addiu	v1,v1,4095
80109580:	04006296 	lhu	v0,4(s3)
80109584:	031b0300 	sra	v1,v1,0xc
80109588:	23104300 	subu	v0,v0,v1
8010958c:	2e0042a6 	sh	v0,46(s2)
80109590:	44000386 	lh	v1,68(s0)
80109594:	4c000286 	lh	v0,76(s0)
80109598:	00000000 	nop
8010959c:	18006200 	mult	v1,v0
801095a0:	12180000 	mflo	v1
801095a4:	02006104 	bgez	v1,0x801095b0
801095a8:	00000000 	nop
801095ac:	ff0f6324 	addiu	v1,v1,4095
801095b0:	06006296 	lhu	v0,6(s3)
801095b4:	031b0300 	sra	v1,v1,0xc
801095b8:	23104300 	subu	v0,v0,v1
801095bc:	360042a6 	sh	v0,54(s2)
801095c0:	44000286 	lh	v0,68(s0)
801095c4:	00000000 	nop
801095c8:	0c004014 	bnez	v0,0x801095fc
801095cc:	00000000 	nop
801095d0:	72000286 	lh	v0,114(s0)
801095d4:	00000000 	nop
801095d8:	00804230 	andi	v0,v0,0x8000
801095dc:	30004014 	bnez	v0,0x801096a0
801095e0:	01000224 	li	v0,1
801095e4:	21204002 	move	a0,s2
801095e8:	02000524 	li	a1,2
801095ec:	6b53010c 	jal	0x80054dac
801095f0:	04000624 	li	a2,4
801095f4:	8f490408 	j	0x8011263c
801095f8:	01000224 	li	v0,1
801095fc:	68000586 	lh	a1,104(s0)
80109600:	68000396 	lhu	v1,104(s0)
80109604:	2600a010 	beqz	a1,0x801096a0
80109608:	21100000 	move	v0,zero
8010960c:	6a000286 	lh	v0,106(s0)
80109610:	6a000492 	lbu	a0,106(s0)
80109614:	00ff4230 	andi	v0,v0,0xff00
80109618:	03320200 	sra	a2,v0,0x8
8010961c:	3f006230 	andi	v0,v1,0x3f
80109620:	08004010 	beqz	v0,0x80109644
80109624:	801f023c 	lui	v0,0x1f80
80109628:	7c014294 	lhu	v0,380(v0)
8010962c:	00000000 	nop
80109630:	24104500 	and	v0,v0,a1
80109634:	1a004014 	bnez	v0,0x801096a0
80109638:	21100000 	move	v0,zero
8010963c:	87490408 	j	0x8011261c
80109640:	21280000 	move	a1,zero
80109644:	80006230 	andi	v0,v1,0x80
80109648:	15004010 	beqz	v0,0x801096a0
8010964c:	21100000 	move	v0,zero
80109650:	3800428e 	lw	v0,56(s2)
80109654:	00000000 	nop
80109658:	04004290 	lbu	v0,4(v0)
8010965c:	00000000 	nop
80109660:	0c004010 	beqz	v0,0x80109694
80109664:	40006230 	andi	v0,v1,0x40
80109668:	0d004014 	bnez	v0,0x801096a0
8010966c:	21100000 	move	v0,zero
80109670:	40006234 	ori	v0,v1,0x40
80109674:	680002a6 	sh	v0,104(s0)
80109678:	ff008430 	andi	a0,a0,0xff
8010967c:	21280000 	move	a1,zero
80109680:	00360600 	sll	a2,a2,0x18
80109684:	64d1010c 	jal	0x80074590
80109688:	03360600 	sra	a2,a2,0x18
8010968c:	8f490408 	j	0x8011263c
80109690:	21100000 	move	v0,zero
80109694:	bfff6230 	andi	v0,v1,0xffbf
80109698:	680002a6 	sh	v0,104(s0)
8010969c:	21100000 	move	v0,zero
801096a0:	2800bf8f 	lw	ra,40(sp)
801096a4:	2400b58f 	lw	s5,36(sp)
801096a8:	2000b48f 	lw	s4,32(sp)
801096ac:	1c00b38f 	lw	s3,28(sp)
801096b0:	1800b28f 	lw	s2,24(sp)
801096b4:	1400b18f 	lw	s1,20(sp)
801096b8:	1000b08f 	lw	s0,16(sp)
801096bc:	0800e003 	jr	ra
801096c0:	3000bd27 	addiu	sp,sp,48
801096c4:	801f023c 	lui	v0,0x1f80
801096c8:	9d014290 	lbu	v0,413(v0)
801096cc:	b8ffbd27 	addiu	sp,sp,-72
801096d0:	3c00b1af 	sw	s1,60(sp)
801096d4:	21888000 	move	s1,a0
801096d8:	4400bfaf 	sw	ra,68(sp)
801096dc:	4000b2af 	sw	s2,64(sp)
801096e0:	05004010 	beqz	v0,0x801096f8
801096e4:	3800b0af 	sw	s0,56(sp)
801096e8:	801f023c 	lui	v0,0x1f80
801096ec:	3801438c 	lw	v1,312(v0)
801096f0:	07000224 	li	v0,7
801096f4:	4e0062a4 	sh	v0,78(v1)
801096f8:	801f023c 	lui	v0,0x1f80
801096fc:	3801428c 	lw	v0,312(v0)
80109700:	00000000 	nop
80109704:	4e004394 	lhu	v1,78(v0)
80109708:	00000000 	nop
8010970c:	0800622c 	sltiu	v0,v1,8
80109710:	c2004010 	beqz	v0,0x80109a1c
80109714:	1180023c 	lui	v0,0x8011
80109718:	e0914224 	addiu	v0,v0,-28192
8010971c:	80180300 	sll	v1,v1,0x2
80109720:	21186200 	addu	v1,v1,v0
80109724:	0000628c 	lw	v0,0(v1)
80109728:	00000000 	nop
8010972c:	08004000 	jr	v0
80109730:	00000000 	nop
80109734:	801f023c 	lui	v0,0x1f80
80109738:	3801448c 	lw	a0,312(v0)
8010973c:	00000000 	nop
80109740:	4e008294 	lhu	v0,78(a0)
80109744:	80000324 	li	v1,128
80109748:	690091a0 	sb	s1,105(a0)
8010974c:	3000a3a3 	sb	v1,48(sp)
80109750:	01004224 	addiu	v0,v0,1
80109754:	4e0082a4 	sh	v0,78(a0)
80109758:	0e000424 	li	a0,14
8010975c:	3000a527 	addiu	a1,sp,48
80109760:	eb26020c 	jal	0x80089bac
80109764:	21300000 	move	a2,zero
80109768:	fcff4010 	beqz	v0,0x8010975c
8010976c:	0e000424 	li	a0,14
80109770:	6f4a0408 	j	0x801129bc
80109774:	21100000 	move	v0,zero
80109778:	801f023c 	lui	v0,0x1f80
8010977c:	3801438c 	lw	v1,312(v0)
80109780:	00000000 	nop
80109784:	4e006294 	lhu	v0,78(v1)
80109788:	00000000 	nop
8010978c:	01004224 	addiu	v0,v0,1
80109790:	6e4a0408 	j	0x801129b8
80109794:	4e0062a4 	sh	v0,78(v1)
80109798:	1280033c 	lui	v1,0x8012
8010979c:	aca66324 	addiu	v1,v1,-22868
801097a0:	40101100 	sll	v0,s1,0x1
801097a4:	21105100 	addu	v0,v0,s1
801097a8:	80100200 	sll	v0,v0,0x2
801097ac:	21104300 	addu	v0,v0,v1
801097b0:	0000458c 	lw	a1,0(v0)
801097b4:	3c2e020c 	jal	0x8008b8f0
801097b8:	1800a427 	addiu	a0,sp,24
801097bc:	801f023c 	lui	v0,0x1f80
801097c0:	3801458c 	lw	a1,312(v0)
801097c4:	801f043c 	lui	a0,0x1f80
801097c8:	4e00a294 	lhu	v0,78(a1)
801097cc:	01000324 	li	v1,1
801097d0:	9c0183a0 	sb	v1,412(a0)
801097d4:	01004224 	addiu	v0,v0,1
801097d8:	8cd6010c 	jal	0x80075a30
801097dc:	4e00a2a4 	sh	v0,78(a1)
801097e0:	6f4a0408 	j	0x801129bc
801097e4:	21100000 	move	v0,zero
801097e8:	801f103c 	lui	s0,0x1f80
801097ec:	00001026 	addiu	s0,s0,0
801097f0:	21200002 	move	a0,s0
801097f4:	21280000 	move	a1,zero
801097f8:	2130a000 	move	a2,a1
801097fc:	00010224 	li	v0,256
80109800:	2138a000 	move	a3,a1
80109804:	b84a040c 	jal	0x80112ae0
80109808:	1000a2af 	sw	v0,16(sp)
8010980c:	1800a427 	addiu	a0,sp,24
80109810:	1180053c 	lui	a1,0x8011
80109814:	e84a040c 	jal	0x80112ba0
80109818:	d429a524 	addiu	a1,a1,10708
8010981c:	1280033c 	lui	v1,0x8012
80109820:	aca66324 	addiu	v1,v1,-22868
80109824:	40101100 	sll	v0,s1,0x1
80109828:	21105100 	addu	v0,v0,s1
8010982c:	80100200 	sll	v0,v0,0x2
80109830:	21104300 	addu	v0,v0,v1
80109834:	08004584 	lh	a1,8(v0)
80109838:	104b040c 	jal	0x80112c40
8010983c:	21200002 	move	a0,s0
80109840:	ffff0324 	li	v1,-1
80109844:	0a004314 	bne	v0,v1,0x80109870
80109848:	801f023c 	lui	v0,0x1f80
8010984c:	1180043c 	lui	a0,0x8011
80109850:	cc69020c 	jal	0x8009a730
80109854:	80918424 	addiu	a0,a0,-28288
80109858:	21100000 	move	v0,zero
8010985c:	801f033c 	lui	v1,0x1f80
80109860:	3801648c 	lw	a0,312(v1)
80109864:	07000324 	li	v1,7
80109868:	6f4a0408 	j	0x801129bc
8010986c:	4e0083a4 	sh	v1,78(a0)
80109870:	3801438c 	lw	v1,312(v0)
80109874:	00000000 	nop
80109878:	4e006294 	lhu	v0,78(v1)
8010987c:	00000000 	nop
80109880:	01004224 	addiu	v0,v0,1
80109884:	4e0062a4 	sh	v0,78(v1)
80109888:	801f023c 	lui	v0,0x1f80
8010988c:	00005024 	addiu	s0,v0,0
80109890:	0800028e 	lw	v0,8(s0)
80109894:	00000000 	nop
80109898:	80100200 	sll	v0,v0,0x2
8010989c:	21105000 	addu	v0,v0,s0
801098a0:	0000448c 	lw	a0,0(v0)
801098a4:	e171020c 	jal	0x8009c784
801098a8:	21280000 	move	a1,zero
801098ac:	30000586 	lh	a1,48(s0)
801098b0:	32000286 	lh	v0,50(s0)
801098b4:	00000000 	nop
801098b8:	1800a200 	mult	a1,v0
801098bc:	1400028e 	lw	v0,20(s0)
801098c0:	00000000 	nop
801098c4:	80100200 	sll	v0,v0,0x2
801098c8:	21105000 	addu	v0,v0,s0
801098cc:	0c00448c 	lw	a0,12(v0)
801098d0:	12280000 	mflo	a1
801098d4:	c2170500 	srl	v0,a1,0x1f
801098d8:	2128a200 	addu	a1,a1,v0
801098dc:	0072020c 	jal	0x8009c800
801098e0:	43280500 	sra	a1,a1,0x1
801098e4:	1280033c 	lui	v1,0x8012
801098e8:	aca66324 	addiu	v1,v1,-22868
801098ec:	40101100 	sll	v0,s1,0x1
801098f0:	21105100 	addu	v0,v0,s1
801098f4:	80100200 	sll	v0,v0,0x2
801098f8:	21104300 	addu	v0,v0,v1
801098fc:	08004584 	lh	a1,8(v0)
80109900:	104b040c 	jal	0x80112c40
80109904:	21200002 	move	a0,s0
80109908:	ffff0324 	li	v1,-1
8010990c:	08004314 	bne	v0,v1,0x80109930
80109910:	00000000 	nop
80109914:	1180043c 	lui	a0,0x8011
80109918:	cc69020c 	jal	0x8009a730
8010991c:	98918424 	addiu	a0,a0,-28264
80109920:	801f023c 	lui	v0,0x1f80
80109924:	3801438c 	lw	v1,312(v0)
80109928:	07000224 	li	v0,7
8010992c:	4e0062a4 	sh	v0,78(v1)
80109930:	3400028e 	lw	v0,52(s0)
80109934:	00000000 	nop
80109938:	18004014 	bnez	v0,0x8010999c
8010993c:	8000113c 	lui	s1,0x80
80109940:	1180123c 	lui	s2,0x8011
80109944:	ffff3126 	addiu	s1,s1,-1
80109948:	10002016 	bnez	s1,0x8010998c
8010994c:	00000000 	nop
80109950:	cc69020c 	jal	0x8009a730
80109954:	c4914426 	addiu	a0,s2,-28220
80109958:	801f023c 	lui	v0,0x1f80
8010995c:	35014290 	lbu	v0,309(v0)
80109960:	01000324 	li	v1,1
80109964:	340003ae 	sw	v1,52(s0)
80109968:	280002ae 	sw	v0,40(s0)
8010996c:	c0100200 	sll	v0,v0,0x3
80109970:	21105000 	addu	v0,v0,s0
80109974:	18004394 	lhu	v1,24(v0)
80109978:	00000000 	nop
8010997c:	2c0003a6 	sh	v1,44(s0)
80109980:	1a004294 	lhu	v0,26(v0)
80109984:	00000000 	nop
80109988:	2e0002a6 	sh	v0,46(s0)
8010998c:	3400028e 	lw	v0,52(s0)
80109990:	00000000 	nop
80109994:	ecff4010 	beqz	v0,0x80109948
80109998:	ffff3126 	addiu	s1,s1,-1
8010999c:	801f023c 	lui	v0,0x1f80
801099a0:	801f033c 	lui	v1,0x1f80
801099a4:	340040ac 	sw	zero,52(v0)
801099a8:	02000224 	li	v0,2
801099ac:	9c0162a0 	sb	v0,412(v1)
801099b0:	0f80033c 	lui	v1,0x800f
801099b4:	01000224 	li	v0,1
801099b8:	9c8062a4 	sh	v0,-32612(v1)
801099bc:	6f4a0408 	j	0x801129bc
801099c0:	21100000 	move	v0,zero
801099c4:	c073000c 	jal	0x8001cf00
801099c8:	21200000 	move	a0,zero
801099cc:	0872020c 	jal	0x8009c820
801099d0:	21200000 	move	a0,zero
801099d4:	2f72020c 	jal	0x8009c8bc
801099d8:	21200000 	move	a0,zero
801099dc:	5033020c 	jal	0x8008cd40
801099e0:	00000000 	nop
801099e4:	3833020c 	jal	0x8008cce0
801099e8:	00000000 	nop
801099ec:	09000424 	li	a0,9
801099f0:	21280000 	move	a1,zero
801099f4:	8727020c 	jal	0x80089e1c
801099f8:	2130a000 	move	a2,a1
801099fc:	fcff4010 	beqz	v0,0x801099f0
80109a00:	09000424 	li	a0,9
80109a04:	01000224 	li	v0,1
80109a08:	801f033c 	lui	v1,0x1f80
80109a0c:	9c0160a0 	sb	zero,412(v1)
80109a10:	801f033c 	lui	v1,0x1f80
80109a14:	6f4a0408 	j	0x801129bc
80109a18:	9d0160a0 	sb	zero,413(v1)
80109a1c:	21100000 	move	v0,zero
80109a20:	4400bf8f 	lw	ra,68(sp)
80109a24:	4000b28f 	lw	s2,64(sp)
80109a28:	3c00b18f 	lw	s1,60(sp)
80109a2c:	3800b08f 	lw	s0,56(sp)
80109a30:	0800e003 	jr	ra
80109a34:	4800bd27 	addiu	sp,sp,72
80109a38:	e0ffbd27 	addiu	sp,sp,-32
80109a3c:	801f023c 	lui	v0,0x1f80
80109a40:	00004624 	addiu	a2,v0,0
80109a44:	01000524 	li	a1,1
80109a48:	1c00bfaf 	sw	ra,28(sp)
80109a4c:	1800b0af 	sw	s0,24(sp)
80109a50:	2f00c888 	lwl	t0,47(a2)
80109a54:	2c00c898 	lwr	t0,44(a2)
80109a58:	3300c988 	lwl	t1,51(a2)
80109a5c:	3000c998 	lwr	t1,48(a2)
80109a60:	1300a8ab 	swl	t0,19(sp)
80109a64:	1000a8bb 	swr	t0,16(sp)
80109a68:	1700a9ab 	swl	t1,23(sp)
80109a6c:	1400a9bb 	swr	t1,20(sp)
80109a70:	1400d08c 	lw	s0,20(a2)
80109a74:	2c00c394 	lhu	v1,44(a2)
80109a78:	2800c28c 	lw	v0,40(a2)
80109a7c:	2338b000 	subu	a3,a1,s0
80109a80:	10006324 	addiu	v1,v1,16
80109a84:	2c00c3a4 	sh	v1,44(a2)
80109a88:	001c0300 	sll	v1,v1,0x10
80109a8c:	c0100200 	sll	v0,v0,0x3
80109a90:	21104600 	addu	v0,v0,a2
80109a94:	1400c7ac 	sw	a3,20(a2)
80109a98:	18004484 	lh	a0,24(v0)
80109a9c:	1c004284 	lh	v0,28(v0)
80109aa0:	031c0300 	sra	v1,v1,0x10
80109aa4:	21208200 	addu	a0,a0,v0
80109aa8:	2a186400 	slt	v1,v1,a0
80109aac:	0f006010 	beqz	v1,0x80109aec
80109ab0:	801f023c 	lui	v0,0x1f80
80109ab4:	3000c584 	lh	a1,48(a2)
80109ab8:	3200c284 	lh	v0,50(a2)
80109abc:	00000000 	nop
80109ac0:	1800a200 	mult	a1,v0
80109ac4:	80100700 	sll	v0,a3,0x2
80109ac8:	21104600 	addu	v0,v0,a2
80109acc:	0c00448c 	lw	a0,12(v0)
80109ad0:	12280000 	mflo	a1
80109ad4:	c2170500 	srl	v0,a1,0x1f
80109ad8:	2128a200 	addu	a1,a1,v0
80109adc:	0072020c 	jal	0x8009c800
80109ae0:	43280500 	sra	a1,a1,0x1
80109ae4:	ae4a0408 	j	0x80112ab8
80109ae8:	801f033c 	lui	v1,0x1f80
80109aec:	35014290 	lbu	v0,309(v0)
80109af0:	3400c5ac 	sw	a1,52(a2)
80109af4:	2800c2ac 	sw	v0,40(a2)
80109af8:	c0100200 	sll	v0,v0,0x3
80109afc:	21104600 	addu	v0,v0,a2
80109b00:	18004394 	lhu	v1,24(v0)
80109b04:	00000000 	nop
80109b08:	2c00c3a4 	sh	v1,44(a2)
80109b0c:	1a004294 	lhu	v0,26(v0)
80109b10:	00000000 	nop
80109b14:	2e00c2a4 	sh	v0,46(a2)
80109b18:	801f033c 	lui	v1,0x1f80
80109b1c:	00006324 	addiu	v1,v1,0
80109b20:	80101000 	sll	v0,s0,0x2
80109b24:	21104300 	addu	v0,v0,v1
80109b28:	0c00458c 	lw	a1,12(v0)
80109b2c:	8604020c 	jal	0x80081218
80109b30:	1000a427 	addiu	a0,sp,16
80109b34:	1c00bf8f 	lw	ra,28(sp)
80109b38:	1800b08f 	lw	s0,24(sp)
80109b3c:	0800e003 	jr	ra
80109b40:	2000bd27 	addiu	sp,sp,32
80109b44:	0100093c 	lui	t1,0x1
80109b48:	00202935 	ori	t1,t1,0x2000
80109b4c:	02000a3c 	lui	t2,0x2
80109b50:	00404a35 	ori	t2,t2,0x4000
80109b54:	02000b3c 	lui	t3,0x2
80109b58:	801f023c 	lui	v0,0x1f80
80109b5c:	1280033c 	lui	v1,0x8012
80109b60:	3801428c 	lw	v0,312(v0)
80109b64:	aca66324 	addiu	v1,v1,-22868
80109b68:	69004890 	lbu	t0,105(v0)
80109b6c:	00606b35 	ori	t3,t3,0x6000
80109b70:	40100800 	sll	v0,t0,0x1
80109b74:	21104800 	addu	v0,v0,t0
80109b78:	80100200 	sll	v0,v0,0x2
80109b7c:	21104300 	addu	v0,v0,v1
80109b80:	1000a38f 	lw	v1,16(sp)
80109b84:	0400488c 	lw	t0,4(v0)
80109b88:	801f023c 	lui	v0,0x1f80
80109b8c:	080080ac 	sw	zero,8(a0)
80109b90:	140080ac 	sw	zero,20(a0)
80109b94:	180085a4 	sh	a1,24(a0)
80109b98:	1a0086a4 	sh	a2,26(a0)
80109b9c:	200087a4 	sh	a3,32(a0)
80109ba0:	340080ac 	sw	zero,52(a0)
80109ba4:	220083a4 	sh	v1,34(a0)
80109ba8:	35014390 	lbu	v1,309(v0)
80109bac:	01000224 	li	v0,1
80109bb0:	21480901 	addu	t1,t0,t1
80109bb4:	21500a01 	addu	t2,t0,t2
80109bb8:	000088ac 	sw	t0,0(a0)
80109bbc:	21400b01 	addu	t0,t0,t3
80109bc0:	040089ac 	sw	t1,4(a0)
80109bc4:	0c008aac 	sw	t2,12(a0)
80109bc8:	100088ac 	sw	t0,16(a0)
80109bcc:	23104300 	subu	v0,v0,v1
80109bd0:	280082ac 	sw	v0,40(a0)
80109bd4:	c0100200 	sll	v0,v0,0x3
80109bd8:	21108200 	addu	v0,a0,v0
80109bdc:	18004394 	lhu	v1,24(v0)
80109be0:	00000000 	nop
80109be4:	2c0083a4 	sh	v1,44(a0)
80109be8:	1a004394 	lhu	v1,26(v0)
80109bec:	10000224 	li	v0,16
80109bf0:	300082a4 	sh	v0,48(a0)
80109bf4:	f0000224 	li	v0,240
80109bf8:	320082a4 	sh	v0,50(a0)
80109bfc:	0800e003 	jr	ra
80109c00:	2e0083a4 	sh	v1,46(a0)
80109c04:	d8ffbd27 	addiu	sp,sp,-40
80109c08:	2000b2af 	sw	s2,32(sp)
80109c0c:	21908000 	move	s2,a0
80109c10:	1c00b1af 	sw	s1,28(sp)
80109c14:	2188a000 	move	s1,a1
80109c18:	801f023c 	lui	v0,0x1f80
80109c1c:	3801428c 	lw	v0,312(v0)
80109c20:	1280033c 	lui	v1,0x8012
80109c24:	2400bfaf 	sw	ra,36(sp)
80109c28:	1800b0af 	sw	s0,24(sp)
80109c2c:	69004590 	lbu	a1,105(v0)
80109c30:	aca66324 	addiu	v1,v1,-22868
80109c34:	40100500 	sll	v0,a1,0x1
80109c38:	21104500 	addu	v0,v0,a1
80109c3c:	80100200 	sll	v0,v0,0x2
80109c40:	21104300 	addu	v0,v0,v1
80109c44:	0400508c 	lw	s0,4(v0)
80109c48:	8871020c 	jal	0x8009c620
80109c4c:	21200000 	move	a0,zero
80109c50:	2f72020c 	jal	0x8009c8bc
80109c54:	21202002 	move	a0,s1
80109c58:	0200043c 	lui	a0,0x2
80109c5c:	00808434 	ori	a0,a0,0x8000
80109c60:	20000524 	li	a1,32
80109c64:	1c26020c 	jal	0x80089870
80109c68:	21200402 	addu	a0,s0,a0
80109c6c:	21200000 	move	a0,zero
80109c70:	01000524 	li	a1,1
80109c74:	ffff0624 	li	a2,-1
80109c78:	21388000 	move	a3,a0
80109c7c:	ac33020c 	jal	0x8008ceb0
80109c80:	1000a0af 	sw	zero,16(sp)
80109c84:	664b040c 	jal	0x80112d98
80109c88:	21204002 	move	a0,s2
80109c8c:	2400bf8f 	lw	ra,36(sp)
80109c90:	2000b28f 	lw	s2,32(sp)
80109c94:	1c00b18f 	lw	s1,28(sp)
80109c98:	1800b08f 	lw	s0,24(sp)
80109c9c:	0800e003 	jr	ra
80109ca0:	2800bd27 	addiu	sp,sp,40
80109ca4:	d8ffbd27 	addiu	sp,sp,-40
80109ca8:	1800b2af 	sw	s2,24(sp)
80109cac:	21908000 	move	s2,a0
80109cb0:	1c00b3af 	sw	s3,28(sp)
80109cb4:	2198a000 	move	s3,a1
80109cb8:	1400b1af 	sw	s1,20(sp)
80109cbc:	d0071124 	li	s1,2000
80109cc0:	2000bfaf 	sw	ra,32(sp)
80109cc4:	1000b0af 	sw	s0,16(sp)
80109cc8:	21204002 	move	a0,s2
80109ccc:	374b040c 	jal	0x80112cdc
80109cd0:	21286002 	move	a1,s3
80109cd4:	21804000 	move	s0,v0
80109cd8:	0e000012 	beqz	s0,0x80109d14
80109cdc:	01000224 	li	v0,1
80109ce0:	0800438e 	lw	v1,8(s2)
80109ce4:	00000000 	nop
80109ce8:	23104300 	subu	v0,v0,v1
80109cec:	080042ae 	sw	v0,8(s2)
80109cf0:	80100200 	sll	v0,v0,0x2
80109cf4:	21104202 	addu	v0,s2,v0
80109cf8:	0000458c 	lw	a1,0(v0)
80109cfc:	3873020c 	jal	0x8009cce0
80109d00:	21200002 	move	a0,s0
80109d04:	d033020c 	jal	0x8008cf40
80109d08:	21200002 	move	a0,s0
80109d0c:	304b0408 	j	0x80112cc0
80109d10:	21100000 	move	v0,zero
80109d14:	ffff3126 	addiu	s1,s1,-1
80109d18:	ecff2016 	bnez	s1,0x80109ccc
80109d1c:	21204002 	move	a0,s2
80109d20:	ffff0224 	li	v0,-1
80109d24:	2000bf8f 	lw	ra,32(sp)
80109d28:	1c00b38f 	lw	s3,28(sp)
80109d2c:	1800b28f 	lw	s2,24(sp)
80109d30:	1400b18f 	lw	s1,20(sp)
80109d34:	1000b08f 	lw	s0,16(sp)
80109d38:	0800e003 	jr	ra
80109d3c:	2800bd27 	addiu	sp,sp,40
80109d40:	d8ffbd27 	addiu	sp,sp,-40
80109d44:	1c00b1af 	sw	s1,28(sp)
80109d48:	21888000 	move	s1,a0
80109d4c:	2000b2af 	sw	s2,32(sp)
80109d50:	2190a000 	move	s2,a1
80109d54:	1800b0af 	sw	s0,24(sp)
80109d58:	d0071024 	li	s0,2000
80109d5c:	2400bfaf 	sw	ra,36(sp)
80109d60:	1000a427 	addiu	a0,sp,16
80109d64:	0c34020c 	jal	0x8008d030
80109d68:	1400a527 	addiu	a1,sp,20
80109d6c:	05004010 	beqz	v0,0x80109d84
80109d70:	ffff1026 	addiu	s0,s0,-1
80109d74:	fbff0016 	bnez	s0,0x80109d64
80109d78:	1000a427 	addiu	a0,sp,16
80109d7c:	604b0408 	j	0x80112d80
80109d80:	21100000 	move	v0,zero
80109d84:	1400a28f 	lw	v0,20(sp)
80109d88:	00000000 	nop
80109d8c:	0800428c 	lw	v0,8(v0)
80109d90:	00000000 	nop
80109d94:	2b105200 	sltu	v0,v0,s2
80109d98:	04004014 	bnez	v0,0x80109dac
80109d9c:	801f023c 	lui	v0,0x1f80
80109da0:	3801438c 	lw	v1,312(v0)
80109da4:	07000224 	li	v0,7
80109da8:	4e0062a4 	sh	v0,78(v1)
80109dac:	1400a48f 	lw	a0,20(sp)
80109db0:	1000a28f 	lw	v0,16(sp)
80109db4:	10008394 	lhu	v1,16(a0)
80109db8:	0800858c 	lw	a1,8(a0)
80109dbc:	240023a6 	sh	v1,36(s1)
80109dc0:	1c0023a6 	sh	v1,28(s1)
80109dc4:	12008394 	lhu	v1,18(a0)
80109dc8:	00000000 	nop
80109dcc:	260023a6 	sh	v1,38(s1)
80109dd0:	1e0023a6 	sh	v1,30(s1)
80109dd4:	12008494 	lhu	a0,18(a0)
80109dd8:	801f033c 	lui	v1,0x1f80
80109ddc:	500265ac 	sw	a1,592(v1)
80109de0:	320024a6 	sh	a0,50(s1)
80109de4:	2400bf8f 	lw	ra,36(sp)
80109de8:	2000b28f 	lw	s2,32(sp)
80109dec:	1c00b18f 	lw	s1,28(sp)
80109df0:	1800b08f 	lw	s0,24(sp)
80109df4:	0800e003 	jr	ra
80109df8:	2800bd27 	addiu	sp,sp,40
80109dfc:	e0ffbd27 	addiu	sp,sp,-32
80109e00:	1000b0af 	sw	s0,16(sp)
80109e04:	21808000 	move	s0,a0
80109e08:	1400b1af 	sw	s1,20(sp)
80109e0c:	c0011124 	li	s1,448
80109e10:	1800bfaf 	sw	ra,24(sp)
80109e14:	02000424 	li	a0,2
80109e18:	21280002 	move	a1,s0
80109e1c:	eb26020c 	jal	0x80089bac
80109e20:	21300000 	move	a2,zero
80109e24:	fcff4010 	beqz	v0,0x80109e18
80109e28:	02000424 	li	a0,2
80109e2c:	0c33020c 	jal	0x8008cc30
80109e30:	21202002 	move	a0,s1
80109e34:	f7ff4010 	beqz	v0,0x80109e14
80109e38:	00000000 	nop
80109e3c:	1800bf8f 	lw	ra,24(sp)
80109e40:	1400b18f 	lw	s1,20(sp)
80109e44:	1000b08f 	lw	s0,16(sp)
80109e48:	0800e003 	jr	ra
80109e4c:	2000bd27 	addiu	sp,sp,32
80109e50:	7100c010 	beqz	a2,0x8010a018
80109e54:	21408000 	move	t0,a0
80109e58:	2148c000 	move	t1,a2
80109e5c:	0c800a3c 	lui	t2,0x800c
80109e60:	44f54a8d 	lw	t2,-2748(t2)
80109e64:	f0ff0b3c 	lui	t3,0xfff0
80109e68:	f0f06b35 	ori	t3,t3,0xf0f0
80109e6c:	100000c9 	lwc2	$0,16(t0)
80109e70:	1400028d 	lw	v0,20(t0)
80109e74:	180002c9 	lwc2	$2,24(t0)
80109e78:	00088248 	mtc2	v0,$1
80109e7c:	1c0004c9 	lwc2	$4,28(t0)
80109e80:	02140200 	srl	v0,v0,0x10
80109e84:	2000038d 	lw	v1,32(t0)
80109e88:	00188248 	mtc2	v0,$3
80109e8c:	00288348 	mtc2	v1,$5
80109e90:	021c0300 	srl	v1,v1,0x10
80109e94:	240043ad 	sw	v1,36(t2)
80109e98:	3000284a 	c2	0x280030
80109e9c:	0800038d 	lw	v1,8(t0)
80109ea0:	0c000c8d 	lw	t4,12(t0)
80109ea4:	00000d8d 	lw	t5,0(t0)
80109ea8:	04000e8d 	lw	t6,4(t0)
80109eac:	00f84248 	cfc2	v0,$31
80109eb0:	0c0043ad 	sw	v1,12(t2)
80109eb4:	53004004 	bltz	v0,0x8010a004
80109eb8:	18004cad 	sw	t4,24(t2)
80109ebc:	00600348 	mfc2	v1,$12
80109ec0:	08004ce9 	swc2	$12,8(t2)
80109ec4:	00680c48 	mfc2	t4,$13
80109ec8:	14004de9 	swc2	$13,20(t2)
80109ecc:	00700f48 	mfc2	t7,$14
80109ed0:	20004ee9 	swc2	$14,32(t2)
80109ed4:	f000193c 	lui	t9,0xf0
80109ed8:	2bc07900 	sltu	t8,v1,t9
80109edc:	05000017 	bnez	t8,0x80109ef4
80109ee0:	2b109901 	sltu	v0,t4,t9
80109ee4:	03004014 	bnez	v0,0x80109ef4
80109ee8:	2bc0f901 	sltu	t8,t7,t9
80109eec:	45000013 	beqz	t8,0x8010a004
80109ef0:	00000000 	nop
80109ef4:	4001193c 	lui	t9,0x140
80109ef8:	001c0300 	sll	v1,v1,0x10
80109efc:	00640c00 	sll	t4,t4,0x10
80109f00:	007c0f00 	sll	t7,t7,0x10
80109f04:	2bc07900 	sltu	t8,v1,t9
80109f08:	05000017 	bnez	t8,0x80109f20
80109f0c:	2b109901 	sltu	v0,t4,t9
80109f10:	03004014 	bnez	v0,0x80109f20
80109f14:	2bc0f901 	sltu	t8,t7,t9
80109f18:	3a000013 	beqz	t8,0x8010a004
80109f1c:	00000000 	nop
80109f20:	0600404b 	c2	0x1400006
80109f24:	2410cb01 	and	v0,t6,t3
80109f28:	100042ad 	sw	v0,16(t2)
80109f2c:	00c90e00 	sll	t9,t6,0x4
80109f30:	04004dad 	sw	t5,4(t2)
80109f34:	00c00248 	mfc2	v0,$24
80109f38:	24c82b03 	and	t9,t9,t3
80109f3c:	31004018 	blez	v0,0x8010a004
80109f40:	1c0059ad 	sw	t9,28(t2)
80109f44:	02760e00 	srl	t6,t6,0x18
80109f48:	1b00c011 	beqz	t6,0x80109fb8
80109f4c:	0200cc31 	andi	t4,t6,0x2
80109f50:	00880248 	mfc2	v0,$17
80109f54:	00000000 	nop
80109f58:	00900d48 	mfc2	t5,$18
80109f5c:	00000000 	nop
80109f60:	00980f48 	mfc2	t7,$19
80109f64:	00000000 	nop
80109f68:	0a008015 	bnez	t4,0x80109f94
80109f6c:	22c04d00 	sub	t8,v0,t5
80109f70:	0200001f 	bgtz	t8,0x80109f7c
80109f74:	00000000 	nop
80109f78:	2110a001 	move	v0,t5
80109f7c:	22c04f00 	sub	t8,v0,t7
80109f80:	1000001f 	bgtz	t8,0x80109fc4
80109f84:	83100200 	sra	v0,v0,0x2
80109f88:	2110e001 	move	v0,t7
80109f8c:	d84b0408 	j	0x80112f60
80109f90:	83100200 	sra	v0,v0,0x2
80109f94:	02000007 	bltz	t8,0x80109fa0
80109f98:	00000000 	nop
80109f9c:	2110a001 	move	v0,t5
80109fa0:	22c04f00 	sub	t8,v0,t7
80109fa4:	07000007 	bltz	t8,0x80109fc4
80109fa8:	83100200 	sra	v0,v0,0x2
80109fac:	2110e001 	move	v0,t7
80109fb0:	d84b0408 	j	0x80112f60
80109fb4:	83100200 	sra	v0,v0,0x2
80109fb8:	2d00584b 	c2	0x158002d
80109fbc:	00380248 	mfc2	v0,$7
80109fc0:	00000000 	nop
80109fc4:	831a0200 	sra	v1,v0,0xa
80109fc8:	07106200 	srav	v0,v0,v1
80109fcc:	401a0300 	sll	v1,v1,0x9
80109fd0:	20104300 	add	v0,v0,v1
80109fd4:	01f84320 	addi	v1,v0,-2047
80109fd8:	0a006104 	bgez	v1,0x8010a004
80109fdc:	fcff4c20 	addi	t4,v0,-4
80109fe0:	08008019 	blez	t4,0x8010a004
80109fe4:	80100200 	sll	v0,v0,0x2
80109fe8:	2010a200 	add	v0,a1,v0
80109fec:	0000438c 	lw	v1,0(v0)
80109ff0:	00004aac 	sw	t2,0(v0)
80109ff4:	00090c3c 	lui	t4,0x900
80109ff8:	25186c00 	or	v1,v1,t4
80109ffc:	000043ad 	sw	v1,0(t2)
8010a000:	28004a21 	addi	t2,t2,40
8010a004:	ffff2921 	addi	t1,t1,-1
8010a008:	98ff2015 	bnez	t1,0x80109e6c
8010a00c:	24000821 	addi	t0,t0,36
8010a010:	0c80013c 	lui	at,0x800c
8010a014:	44f52aac 	sw	t2,-2748(at)
8010a018:	0800e003 	jr	ra
8010a01c:	25100800 	or	v0,zero,t0
8010a020:	7d00c010 	beqz	a2,0x8010a218
8010a024:	25400400 	or	t0,zero,a0
8010a028:	25480600 	or	t1,zero,a2
8010a02c:	0c800a3c 	lui	t2,0x800c
8010a030:	44f54a8d 	lw	t2,-2748(t2)
8010a034:	f0ff0b3c 	lui	t3,0xfff0
8010a038:	f0f06b35 	ori	t3,t3,0xf0f0
8010a03c:	140000c9 	lwc2	$0,20(t0)
8010a040:	1800028d 	lw	v0,24(t0)
8010a044:	1c0002c9 	lwc2	$2,28(t0)
8010a048:	00088248 	mtc2	v0,$1
8010a04c:	200004c9 	lwc2	$4,32(t0)
8010a050:	02140200 	srl	v0,v0,0x10
8010a054:	2400188d 	lw	t8,36(t0)
8010a058:	00188248 	mtc2	v0,$3
8010a05c:	00289848 	mtc2	t8,$5
	...
8010a068:	3000284a 	c2	0x280030
8010a06c:	00f84248 	cfc2	v0,$31
8010a070:	00000000 	nop
8010a074:	63004004 	bltz	v0,0x8010a204
8010a078:	00000000 	nop
	...
8010a084:	0600404b 	c2	0x1400006
8010a088:	00c00248 	mfc2	v0,$24
8010a08c:	00000000 	nop
8010a090:	5c004018 	blez	v0,0x8010a204
8010a094:	00000000 	nop
8010a098:	08004ce9 	swc2	$12,8(t2)
8010a09c:	14004de9 	swc2	$13,20(t2)
8010a0a0:	20004ee9 	swc2	$14,32(t2)
8010a0a4:	0800038d 	lw	v1,8(t0)
8010a0a8:	0c000c8d 	lw	t4,12(t0)
8010a0ac:	00000d8d 	lw	t5,0(t0)
8010a0b0:	04000e8d 	lw	t6,4(t0)
8010a0b4:	10000f8d 	lw	t7,16(t0)
8010a0b8:	0c0043ad 	sw	v1,12(t2)
8010a0bc:	18004cad 	sw	t4,24(t2)
8010a0c0:	2410ab01 	and	v0,t5,t3
8010a0c4:	040042ad 	sw	v0,4(t2)
8010a0c8:	00690d00 	sll	t5,t5,0x4
8010a0cc:	2468ab01 	and	t5,t5,t3
8010a0d0:	10004dad 	sw	t5,16(t2)
8010a0d4:	2410cb01 	and	v0,t6,t3
8010a0d8:	1c0042ad 	sw	v0,28(t2)
8010a0dc:	00c90e00 	sll	t9,t6,0x4
8010a0e0:	24c82b03 	and	t9,t9,t3
8010a0e4:	280059ad 	sw	t9,40(t2)
8010a0e8:	24004fad 	sw	t7,36(t2)
8010a0ec:	027c0f00 	srl	t7,t7,0x10
8010a0f0:	30004fad 	sw	t7,48(t2)
8010a0f4:	280000c9 	lwc2	$0,40(t0)
8010a0f8:	02c41800 	srl	t8,t8,0x10
8010a0fc:	00089848 	mtc2	t8,$1
	...
8010a108:	0100184a 	c2	0x180001
8010a10c:	00f84248 	cfc2	v0,$31
8010a110:	00000000 	nop
8010a114:	3b004004 	bltz	v0,0x8010a204
8010a118:	00000000 	nop
8010a11c:	2c004ee9 	swc2	$14,44(t2)
8010a120:	02760e00 	srl	t6,t6,0x18
8010a124:	2400c011 	beqz	t6,0x8010a1b8
8010a128:	0200c331 	andi	v1,t6,0x2
8010a12c:	00800248 	mfc2	v0,$16
8010a130:	00000000 	nop
8010a134:	00880c48 	mfc2	t4,$17
8010a138:	00000000 	nop
8010a13c:	00900d48 	mfc2	t5,$18
8010a140:	00000000 	nop
8010a144:	00980f48 	mfc2	t7,$19
8010a148:	00000000 	nop
8010a14c:	2270af01 	sub	t6,t5,t7
8010a150:	0d006014 	bnez	v1,0x8010a188
8010a154:	22c04c00 	sub	t8,v0,t4
8010a158:	0200001f 	bgtz	t8,0x8010a164
8010a15c:	00000000 	nop
8010a160:	21108001 	move	v0,t4
8010a164:	0200c01d 	bgtz	t6,0x8010a170
8010a168:	00000000 	nop
8010a16c:	2168e001 	move	t5,t7
8010a170:	22c04d00 	sub	t8,v0,t5
8010a174:	1300001f 	bgtz	t8,0x8010a1c4
8010a178:	83100200 	sra	v0,v0,0x2
8010a17c:	2110a001 	move	v0,t5
8010a180:	584c0408 	j	0x80113160
8010a184:	83100200 	sra	v0,v0,0x2
8010a188:	02000007 	bltz	t8,0x8010a194
8010a18c:	00000000 	nop
8010a190:	21108001 	move	v0,t4
8010a194:	0200c005 	bltz	t6,0x8010a1a0
8010a198:	00000000 	nop
8010a19c:	2168e001 	move	t5,t7
8010a1a0:	22c04d00 	sub	t8,v0,t5
8010a1a4:	07000007 	bltz	t8,0x8010a1c4
8010a1a8:	83100200 	sra	v0,v0,0x2
8010a1ac:	2110a001 	move	v0,t5
8010a1b0:	584c0408 	j	0x80113160
8010a1b4:	83100200 	sra	v0,v0,0x2
8010a1b8:	2e00684b 	c2	0x168002e
8010a1bc:	00380248 	mfc2	v0,$7
8010a1c0:	00000000 	nop
8010a1c4:	831a0200 	sra	v1,v0,0xa
8010a1c8:	07106200 	srav	v0,v0,v1
8010a1cc:	401a0300 	sll	v1,v1,0x9
8010a1d0:	20104300 	add	v0,v0,v1
8010a1d4:	01f84320 	addi	v1,v0,-2047
8010a1d8:	0a006104 	bgez	v1,0x8010a204
8010a1dc:	fcff4c20 	addi	t4,v0,-4
8010a1e0:	08008019 	blez	t4,0x8010a204
8010a1e4:	80100200 	sll	v0,v0,0x2
8010a1e8:	2010a200 	add	v0,a1,v0
8010a1ec:	0000438c 	lw	v1,0(v0)
8010a1f0:	00004aac 	sw	t2,0(v0)
8010a1f4:	000c0c3c 	lui	t4,0xc00
8010a1f8:	25186c00 	or	v1,v1,t4
8010a1fc:	000043ad 	sw	v1,0(t2)
8010a200:	34004a21 	addi	t2,t2,52
8010a204:	ffff2921 	addi	t1,t1,-1
8010a208:	8cff2015 	bnez	t1,0x8010a03c
8010a20c:	2c000821 	addi	t0,t0,44
8010a210:	0c80013c 	lui	at,0x800c
8010a214:	44f52aac 	sw	t2,-2748(at)
8010a218:	0800e003 	jr	ra
8010a21c:	25100800 	or	v0,zero,t0
8010a220:	5561b0dd 	.word	0xddb06155
8010a224:	5806946c 	.word	0x6c940658
8010a228:	94ee131c 	.word	0x1c13ee94
8010a22c:	5561b0dd 	.word	0xddb06155
8010a230:	5806946c 	.word	0x6c940658
8010a234:	94ee131c 	.word	0x1c13ee94
8010a238:	5561b0dd 	.word	0xddb06155
8010a23c:	5806946c 	.word	0x6c940658
8010a240:	94ee131c 	.word	0x1c13ee94
8010a244:	5561b0dd 	.word	0xddb06155
8010a248:	5806946c 	.word	0x6c940658
8010a24c:	94ee131c 	.word	0x1c13ee94
8010a250:	5561b0dd 	.word	0xddb06155
8010a254:	5806936c 	.word	0x6c930658
8010a258:	93ee131c 	.word	0x1c13ee93
8010a25c:	5661b0dd 	.word	0xddb06156
8010a260:	5806936c 	.word	0x6c930658
8010a264:	93ee141c 	.word	0x1c14ee93
8010a268:	5661b0dd 	.word	0xddb06156
8010a26c:	5806936c 	.word	0x6c930658
8010a270:	92ee141c 	.word	0x1c14ee92
8010a274:	5661afdd 	.word	0xddaf6156
8010a278:	5806926c 	.word	0x6c920658
8010a27c:	91ee141c 	.word	0x1c14ee91
8010a280:	5661afdd 	.word	0xddaf6156
8010a284:	5806926c 	.word	0x6c920658
8010a288:	90ee151c 	.word	0x1c15ee90
8010a28c:	5761afdd 	.word	0xddaf6157
8010a290:	5806916c 	.word	0x6c910658
8010a294:	8fee151c 	.word	0x1c15ee8f
8010a298:	5761afdd 	.word	0xddaf6157
8010a29c:	5806916c 	.word	0x6c910658
8010a2a0:	8dee161c 	.word	0x1c16ee8d
8010a2a4:	5861afdd 	.word	0xddaf6158
8010a2a8:	5706906c 	.word	0x6c900657
8010a2ac:	8cee161c 	.word	0x1c16ee8c
8010a2b0:	5861aedd 	.word	0xddae6158
8010a2b4:	57068f6c 	.word	0x6c8f0657
8010a2b8:	8aee171c 	.word	0x1c17ee8a
8010a2bc:	5961aedd 	.word	0xddae6159
8010a2c0:	57068f6c 	.word	0x6c8f0657
8010a2c4:	88ee171c 	.word	0x1c17ee88
8010a2c8:	5a61aedd 	.word	0xddae615a
8010a2cc:	57068e6c 	.word	0x6c8e0657
8010a2d0:	86ee181c 	.word	0x1c18ee86
8010a2d4:	5a61aedd 	.word	0xddae615a
8010a2d8:	56068d6c 	.word	0x6c8d0656
8010a2dc:	84ee191c 	.word	0x1c19ee84
8010a2e0:	5b61addd 	.word	0xddad615b
8010a2e4:	56068c6c 	.word	0x6c8c0656
8010a2e8:	82ee1a1c 	.word	0x1c1aee82
8010a2ec:	5c61addd 	.word	0xddad615c
8010a2f0:	56068b6c 	.word	0x6c8b0656
8010a2f4:	80ee1b1c 	.word	0x1c1bee80
8010a2f8:	5c61addd 	.word	0xddad615c
8010a2fc:	56068a6c 	.word	0x6c8a0656
8010a300:	7eee1b1c 	.word	0x1c1bee7e
8010a304:	5d61acdd 	.word	0xddac615d
8010a308:	5506896c 	.word	0x6c890655
8010a30c:	7bee1c1c 	.word	0x1c1cee7b
8010a310:	5e61acdd 	.word	0xddac615e
8010a314:	5506876c 	.word	0x6c870655
8010a318:	78ee1d1c 	.word	0x1c1dee78
8010a31c:	5f61acdd 	.word	0xddac615f
8010a320:	5506866c 	.word	0x6c860655
8010a324:	76ee1e1c 	.word	0x1c1eee76
8010a328:	6061abdd 	.word	0xddab6160
8010a32c:	5406856c 	.word	0x6c850654
8010a330:	73ee1f1c 	.word	0x1c1fee73
8010a334:	6161abdd 	.word	0xddab6161
8010a338:	5406846c 	.word	0x6c840654
8010a33c:	70ee211c 	.word	0x1c21ee70
8010a340:	6261aadd 	.word	0xddaa6162
8010a344:	5406826c 	.word	0x6c820654
8010a348:	6cee221c 	.word	0x1c22ee6c
8010a34c:	6361aadd 	.word	0xddaa6163
8010a350:	5306816c 	.word	0x6c810653
8010a354:	69ee231c 	.word	0x1c23ee69
8010a358:	6461a9dd 	.word	0xdda96164
8010a35c:	53067f6c 	.word	0x6c7f0653
8010a360:	66ee241c 	.word	0x1c24ee66
8010a364:	6561a9dd 	.word	0xdda96165
8010a368:	52067e6c 	.word	0x6c7e0652
8010a36c:	62ee251c 	.word	0x1c25ee62
8010a370:	6661a8dd 	.word	0xdda86166
8010a374:	52067c6c 	.word	0x6c7c0652
8010a378:	5fee271c 	.word	0x1c27ee5f
8010a37c:	6861a8dd 	.word	0xdda86168
8010a380:	51067a6c 	.word	0x6c7a0651
8010a384:	5bee281c 	.word	0x1c28ee5b
8010a388:	6961a7dd 	.word	0xdda76169
8010a38c:	5106796c 	.word	0x6c790651
8010a390:	57ee2a1c 	.word	0x1c2aee57
8010a394:	6a61a7dd 	.word	0xdda7616a
8010a398:	5006776c 	.word	0x6c770650
8010a39c:	53ee2b1c 	.word	0x1c2bee53
8010a3a0:	6c61a6dd 	.word	0xdda6616c
8010a3a4:	5006756c 	.word	0x6c750650
8010a3a8:	4fee2d1c 	.word	0x1c2dee4f
8010a3ac:	6d61a5dd 	.word	0xdda5616d
8010a3b0:	4f06736c 	.word	0x6c73064f
8010a3b4:	4bee2e1c 	.word	0x1c2eee4b
8010a3b8:	6e61a5dd 	.word	0xdda5616e
8010a3bc:	4f06716c 	.word	0x6c71064f
8010a3c0:	46ee301c 	.word	0x1c30ee46
8010a3c4:	7061a4dd 	.word	0xdda46170
8010a3c8:	4e066f6c 	.word	0x6c6f064e
8010a3cc:	42ee311c 	.word	0x1c31ee42
8010a3d0:	7161a4dd 	.word	0xdda46171
8010a3d4:	4e066d6c 	.word	0x6c6d064e
8010a3d8:	3eee331c 	.word	0x1c33ee3e
8010a3dc:	7361a3dd 	.word	0xdda36173
8010a3e0:	4d066b6c 	.word	0x6c6b064d
8010a3e4:	39ee351c 	.word	0x1c35ee39
8010a3e8:	7461a2dd 	.word	0xdda26174
8010a3ec:	4d06696c 	.word	0x6c69064d
8010a3f0:	34ee361c 	.word	0x1c36ee34
8010a3f4:	7661a2dd 	.word	0xdda26176
8010a3f8:	4c06676c 	.word	0x6c67064c
8010a3fc:	2fee381c 	.word	0x1c38ee2f
8010a400:	7761a1dd 	.word	0xdda16177
8010a404:	4b06656c 	.word	0x6c65064b
8010a408:	2bee3a1c 	.word	0x1c3aee2b
8010a40c:	7961a0dd 	.word	0xdda06179
8010a410:	4b06626c 	.word	0x6c62064b
8010a414:	25ee3c1c 	.word	0x1c3cee25
8010a418:	7b619fdd 	.word	0xdd9f617b
8010a41c:	4a06606c 	.word	0x6c60064a
8010a420:	20ee3e1c 	.word	0x1c3eee20
8010a424:	7c619fdd 	.word	0xdd9f617c
8010a428:	49065e6c 	.word	0x6c5e0649
8010a42c:	1bee401c 	bgtz	v0,0x80105c9c
8010a430:	7e619edd 	.word	0xdd9e617e
8010a434:	49065b6c 	.word	0x6c5b0649
8010a438:	16ee421c 	.word	0x1c42ee16
8010a43c:	80619ddd 	.word	0xdd9d6180
8010a440:	4806596c 	.word	0x6c590648
8010a444:	10ee441c 	.word	0x1c44ee10
8010a448:	82619cdd 	.word	0xdd9c6182
8010a44c:	4706576c 	.word	0x6c570647
8010a450:	0bee461c 	.word	0x1c46ee0b
8010a454:	83619cdd 	.word	0xdd9c6183
8010a458:	4706546c 	.word	0x6c540647
8010a45c:	05ee481c 	.word	0x1c48ee05
8010a460:	85619bdd 	.word	0xdd9b6185
8010a464:	4606526c 	.word	0x6c520646
8010a468:	00ee4a1c 	.word	0x1c4aee00
8010a46c:	87619add 	.word	0xdd9a6187
8010a470:	45064f6c 	.word	0x6c4f0645
8010a474:	faed4c1c 	.word	0x1c4cedfa
8010a478:	896199dd 	.word	0xdd996189
8010a47c:	45064c6c 	.word	0x6c4c0645
8010a480:	f4ed4e1c 	.word	0x1c4eedf4
8010a484:	8b6198dd 	.word	0xdd98618b
8010a488:	44064a6c 	.word	0x6c4a0644
8010a48c:	eeed501c 	.word	0x1c50edee
8010a490:	8d6197dd 	.word	0xdd97618d
8010a494:	4306476c 	.word	0x6c470643
8010a498:	e8ed531c 	.word	0x1c53ede8
8010a49c:	8f6197dd 	.word	0xdd97618f
8010a4a0:	4206446c 	.word	0x6c440642
8010a4a4:	e2ed551c 	.word	0x1c55ede2
8010a4a8:	916196dd 	.word	0xdd966191
8010a4ac:	4206426c 	.word	0x6c420642
8010a4b0:	dced571c 	.word	0x1c57eddc
8010a4b4:	936195dd 	.word	0xdd956193
8010a4b8:	41063f6c 	.word	0x6c3f0641
8010a4bc:	d6ed591c 	.word	0x1c59edd6
8010a4c0:	956194dd 	.word	0xdd946195
8010a4c4:	40063c6c 	.word	0x6c3c0640
8010a4c8:	cfed5c1c 	.word	0x1c5cedcf
8010a4cc:	976193dd 	.word	0xdd936197
8010a4d0:	3f06396c 	.word	0x6c39063f
8010a4d4:	c9ed5e1c 	.word	0x1c5eedc9
8010a4d8:	996192dd 	.word	0xdd926199
8010a4dc:	3e06366c 	.word	0x6c36063e
8010a4e0:	c2ed611c 	.word	0x1c61edc2
8010a4e4:	9b6191dd 	.word	0xdd91619b
8010a4e8:	3e06336c 	.word	0x6c33063e
8010a4ec:	bced631c 	.word	0x1c63edbc
8010a4f0:	9e6190dd 	.word	0xdd90619e
8010a4f4:	3d06306c 	.word	0x6c30063d
8010a4f8:	b5ed651c 	.word	0x1c65edb5
8010a4fc:	a0618fdd 	.word	0xdd8f61a0
8010a500:	3c062d6c 	.word	0x6c2d063c
8010a504:	aeed681c 	.word	0x1c68edae
8010a508:	a2618edd 	.word	0xdd8e61a2
8010a50c:	3b062a6c 	.word	0x6c2a063b
8010a510:	a7ed6a1c 	.word	0x1c6aeda7
8010a514:	a4618ddd 	.word	0xdd8d61a4
8010a518:	3a06276c 	.word	0x6c27063a
8010a51c:	a1ed6d1c 	.word	0x1c6deda1
8010a520:	a6618cdd 	.word	0xdd8c61a6
8010a524:	3906246c 	.word	0x6c240639
8010a528:	9aed701c 	.word	0x1c70ed9a
8010a52c:	a9618bdd 	.word	0xdd8b61a9
8010a530:	3906216c 	.word	0x6c210639
8010a534:	93ed721c 	.word	0x1c72ed93
8010a538:	ab618add 	.word	0xdd8a61ab
8010a53c:	38061e6c 	.word	0x6c1e0638
8010a540:	8ced751c 	.word	0x1c75ed8c
8010a544:	ad6189dd 	.word	0xdd8961ad
8010a548:	37061b6c 	.word	0x6c1b0637
8010a54c:	84ed771c 	.word	0x1c77ed84
8010a550:	b06188dd 	.word	0xdd8861b0
8010a554:	3606176c 	.word	0x6c170636
8010a558:	7ded7a1c 	.word	0x1c7aed7d
8010a55c:	b26187dd 	.word	0xdd8761b2
8010a560:	3506146c 	.word	0x6c140635
8010a564:	76ed7d1c 	.word	0x1c7ded76
8010a568:	b56186dd 	.word	0xdd8661b5
8010a56c:	3406116c 	.word	0x6c110634
8010a570:	6fed7f1c 	.word	0x1c7fed6f
8010a574:	b76185dd 	.word	0xdd8561b7
8010a578:	33060e6c 	.word	0x6c0e0633
8010a57c:	67ed821c 	.word	0x1c82ed67
8010a580:	b96184dd 	.word	0xdd8461b9
8010a584:	32060a6c 	.word	0x6c0a0632
8010a588:	60ed851c 	.word	0x1c85ed60
8010a58c:	bc6183dd 	.word	0xdd8361bc
8010a590:	3106076c 	.word	0x6c070631
8010a594:	58ed881c 	.word	0x1c88ed58
8010a598:	be6182dd 	.word	0xdd8261be
8010a59c:	3006036c 	.word	0x6c030630
8010a5a0:	51ed8b1c 	.word	0x1c8bed51
8010a5a4:	c16181dd 	.word	0xdd8161c1
8010a5a8:	2f06006c 	.word	0x6c00062f
8010a5ac:	49ed8d1c 	.word	0x1c8ded49
8010a5b0:	c36180dd 	.word	0xdd8061c3
8010a5b4:	2e06fd6b 	.word	0x6bfd062e
8010a5b8:	41ed901c 	.word	0x1c90ed41
8010a5bc:	c6617fdd 	.word	0xdd7f61c6
8010a5c0:	2e06f96b 	.word	0x6bf9062e
8010a5c4:	39ed931c 	.word	0x1c93ed39
8010a5c8:	c8617ddd 	.word	0xdd7d61c8
8010a5cc:	2d06f66b 	.word	0x6bf6062d
8010a5d0:	32ed961c 	.word	0x1c96ed32
8010a5d4:	cb617cdd 	.word	0xdd7c61cb
8010a5d8:	2c06f26b 	.word	0x6bf2062c
8010a5dc:	2aed991c 	.word	0x1c99ed2a
8010a5e0:	cd617bdd 	.word	0xdd7b61cd
8010a5e4:	2b06ef6b 	.word	0x6bef062b
8010a5e8:	22ed9c1c 	.word	0x1c9ced22
8010a5ec:	d0617add 	.word	0xdd7a61d0
8010a5f0:	2a06eb6b 	.word	0x6beb062a
8010a5f4:	1aed9f1c 	.word	0x1c9fed1a
8010a5f8:	d36179dd 	.word	0xdd7961d3
8010a5fc:	2906e86b 	.word	0x6be80629
8010a600:	12eda21c 	.word	0x1ca2ed12
8010a604:	d56178dd 	.word	0xdd7861d5
8010a608:	2806e46b 	.word	0x6be40628
8010a60c:	0aeda51c 	.word	0x1ca5ed0a
8010a610:	d86177dd 	.word	0xdd7761d8
8010a614:	2706e06b 	.word	0x6be00627
8010a618:	02eda81c 	.word	0x1ca8ed02
8010a61c:	db6175dd 	.word	0xdd7561db
8010a620:	2606dd6b 	.word	0x6bdd0626
8010a624:	faecab1c 	.word	0x1cabecfa
8010a628:	dd6174dd 	.word	0xdd7461dd
8010a62c:	2506d96b 	.word	0x6bd90625
8010a630:	f1ecae1c 	.word	0x1caeecf1
8010a634:	e06173dd 	.word	0xdd7361e0
8010a638:	2406d56b 	.word	0x6bd50624
8010a63c:	e9ecb11c 	.word	0x1cb1ece9
8010a640:	e36172dd 	.word	0xdd7261e3
8010a644:	2306d26b 	.word	0x6bd20623
8010a648:	e1ecb41c 	.word	0x1cb4ece1
8010a64c:	e56171dd 	.word	0xdd7161e5
8010a650:	2206ce6b 	.word	0x6bce0622
8010a654:	d9ecb71c 	.word	0x1cb7ecd9
8010a658:	e86170dd 	.word	0xdd7061e8
8010a65c:	2006ca6b 	.word	0x6bca0620
8010a660:	d0ecba1c 	.word	0x1cbaecd0
8010a664:	eb616edd 	.word	0xdd6e61eb
8010a668:	1f06c66b 	.word	0x6bc6061f
8010a66c:	c8ecbd1c 	.word	0x1cbdecc8
8010a670:	ed616ddd 	.word	0xdd6d61ed
8010a674:	1e06c36b 	.word	0x6bc3061e
8010a678:	bfecc01c 	bgtz	a2,0x80105978
8010a67c:	f0616cdd 	.word	0xdd6c61f0
8010a680:	1d06bf6b 	.word	0x6bbf061d
8010a684:	b7ecc31c 	.word	0x1cc3ecb7
8010a688:	f3616bdd 	.word	0xdd6b61f3
8010a68c:	1c06bb6b 	.word	0x6bbb061c
8010a690:	afecc61c 	.word	0x1cc6ecaf
8010a694:	f6616add 	.word	0xdd6a61f6
8010a698:	1b06b76b 	.word	0x6bb7061b
8010a69c:	a6ecc91c 	.word	0x1cc9eca6
8010a6a0:	f86168dd 	.word	0xdd6861f8
8010a6a4:	1a06b46b 	.word	0x6bb4061a
8010a6a8:	9deccd1c 	.word	0x1ccdec9d
8010a6ac:	fb6167dd 	.word	0xdd6761fb
8010a6b0:	1906b06b 	.word	0x6bb00619
8010a6b4:	95ecd01c 	.word	0x1cd0ec95
8010a6b8:	fe6166dd 	.word	0xdd6661fe
8010a6bc:	1806ac6b 	.word	0x6bac0618
8010a6c0:	8cecd31c 	.word	0x1cd3ec8c
8010a6c4:	016265dd 	.word	0xdd656201
8010a6c8:	1706a86b 	.word	0x6ba80617
8010a6cc:	84ecd61c 	.word	0x1cd6ec84
8010a6d0:	046263dd 	.word	0xdd636204
8010a6d4:	1606a46b 	.word	0x6ba40616
8010a6d8:	7becd91c 	.word	0x1cd9ec7b
8010a6dc:	066262dd 	.word	0xdd626206
8010a6e0:	1506a06b 	.word	0x6ba00615
8010a6e4:	72ecdd1c 	.word	0x1cddec72
8010a6e8:	096261dd 	.word	0xdd616209
8010a6ec:	14069c6b 	.word	0x6b9c0614
8010a6f0:	6aece01c 	bgtz	a3,0x8010589c
8010a6f4:	0c6260dd 	.word	0xdd60620c
8010a6f8:	1306996b 	.word	0x6b990613
8010a6fc:	61ece31c 	.word	0x1ce3ec61
8010a700:	0f625edd 	.word	0xdd5e620f
8010a704:	1206956b 	.word	0x6b950612
8010a708:	58ece61c 	.word	0x1ce6ec58
8010a70c:	12625ddd 	.word	0xdd5d6212
8010a710:	1106916b 	.word	0x6b910611
8010a714:	4fece91c 	.word	0x1ce9ec4f
8010a718:	15625cdd 	.word	0xdd5c6215
8010a71c:	0f068d6b 	.word	0x6b8d060f
8010a720:	47eced1c 	.word	0x1cedec47
8010a724:	18625bdd 	.word	0xdd5b6218
8010a728:	0e06896b 	.word	0x6b89060e
8010a72c:	3eecf01c 	.word	0x1cf0ec3e
8010a730:	1a6259dd 	.word	0xdd59621a
8010a734:	0d06856b 	.word	0x6b85060d
8010a738:	35ecf31c 	.word	0x1cf3ec35
8010a73c:	1d6258dd 	.word	0xdd58621d
8010a740:	0c06816b 	.word	0x6b81060c
8010a744:	2cecf61c 	.word	0x1cf6ec2c
8010a748:	206257dd 	.word	0xdd576220
8010a74c:	0b067d6b 	.word	0x6b7d060b
8010a750:	23ecfa1c 	.word	0x1cfaec23
8010a754:	236256dd 	.word	0xdd566223
8010a758:	0a06796b 	.word	0x6b79060a
8010a75c:	1aecfd1c 	.word	0x1cfdec1a
8010a760:	266254dd 	.word	0xdd546226
8010a764:	0906756b 	.word	0x6b750609
8010a768:	12ec001d 	bgtz	t0,0x801057b4
8010a76c:	296253dd 	.word	0xdd536229
8010a770:	0806716b 	.word	0x6b710608
8010a774:	09ec041d 	.word	0x1d04ec09
8010a778:	2c6252dd 	.word	0xdd52622c
8010a77c:	07066d6b 	.word	0x6b6d0607
8010a780:	00ec071d 	.word	0x1d07ec00
8010a784:	2f6251dd 	.word	0xdd51622f
8010a788:	0606696b 	.word	0x6b690606
8010a78c:	f7eb0a1d 	.word	0x1d0aebf7
8010a790:	31624fdd 	.word	0xdd4f6231
8010a794:	0406656b 	.word	0x6b650604
8010a798:	eeeb0d1d 	.word	0x1d0debee
8010a79c:	34624edd 	.word	0xdd4e6234
8010a7a0:	0306616b 	.word	0x6b610603
8010a7a4:	e5eb111d 	.word	0x1d11ebe5
8010a7a8:	37624ddd 	.word	0xdd4d6237
8010a7ac:	02065d6b 	.word	0x6b5d0602
8010a7b0:	dceb141d 	.word	0x1d14ebdc
8010a7b4:	3a624cdd 	.word	0xdd4c623a
8010a7b8:	0106596b 	.word	0x6b590601
8010a7bc:	d3eb171d 	.word	0x1d17ebd3
8010a7c0:	3d624add 	.word	0xdd4a623d
8010a7c4:	0006556b 	.word	0x6b550600
8010a7c8:	caeb1b1d 	.word	0x1d1bebca
8010a7cc:	406249dd 	.word	0xdd496240
8010a7d0:	ff05516b 	.word	0x6b5105ff
8010a7d4:	c1eb1e1d 	.word	0x1d1eebc1
8010a7d8:	436248dd 	.word	0xdd486243
8010a7dc:	fe054d6b 	.word	0x6b4d05fe
8010a7e0:	b9eb211d 	.word	0x1d21ebb9
8010a7e4:	466246dd 	.word	0xdd466246
8010a7e8:	fd05496b 	.word	0x6b4905fd
8010a7ec:	b0eb241d 	.word	0x1d24ebb0
8010a7f0:	496245dd 	.word	0xdd456249
8010a7f4:	fc05456b 	.word	0x6b4505fc
8010a7f8:	a7eb281d 	.word	0x1d28eba7
8010a7fc:	4c6244dd 	.word	0xdd44624c
8010a800:	fb05426b 	.word	0x6b4205fb
8010a804:	9eeb2b1d 	.word	0x1d2beb9e
8010a808:	4e6243dd 	.word	0xdd43624e
8010a80c:	f9053e6b 	.word	0x6b3e05f9
8010a810:	95eb2e1d 	.word	0x1d2eeb95
8010a814:	516241dd 	.word	0xdd416251
8010a818:	f8053a6b 	.word	0x6b3a05f8
8010a81c:	8ceb321d 	.word	0x1d32eb8c
8010a820:	546240dd 	.word	0xdd406254
8010a824:	f705366b 	.word	0x6b3605f7
8010a828:	83eb351d 	.word	0x1d35eb83
8010a82c:	57623fdd 	.word	0xdd3f6257
8010a830:	f605326b 	.word	0x6b3205f6
8010a834:	7aeb381d 	.word	0x1d38eb7a
8010a838:	5a623edd 	.word	0xdd3e625a
8010a83c:	f5052e6b 	.word	0x6b2e05f5
8010a840:	72eb3b1d 	.word	0x1d3beb72
8010a844:	5d623cdd 	.word	0xdd3c625d
8010a848:	f4052a6b 	.word	0x6b2a05f4
8010a84c:	69eb3f1d 	.word	0x1d3feb69
8010a850:	60623bdd 	.word	0xdd3b6260
8010a854:	f305266b 	.word	0x6b2605f3
8010a858:	60eb421d 	.word	0x1d42eb60
8010a85c:	63623add 	.word	0xdd3a6263
8010a860:	f205226b 	.word	0x6b2205f2
8010a864:	57eb451d 	.word	0x1d45eb57
8010a868:	656239dd 	.word	0xdd396265
8010a86c:	f1051e6b 	.word	0x6b1e05f1
8010a870:	4eeb481d 	.word	0x1d48eb4e
8010a874:	686237dd 	.word	0xdd376268
8010a878:	f0051a6b 	.word	0x6b1a05f0
8010a87c:	46eb4c1d 	.word	0x1d4ceb46
8010a880:	6b6236dd 	.word	0xdd36626b
8010a884:	ef05166b 	.word	0x6b1605ef
8010a888:	3deb4f1d 	.word	0x1d4feb3d
8010a88c:	6e6235dd 	.word	0xdd35626e
8010a890:	ed05126b 	.word	0x6b1205ed
8010a894:	34eb521d 	.word	0x1d52eb34
8010a898:	716234dd 	.word	0xdd346271
8010a89c:	ec050e6b 	.word	0x6b0e05ec
8010a8a0:	2beb551d 	.word	0x1d55eb2b
8010a8a4:	746232dd 	.word	0xdd326274
8010a8a8:	eb050b6b 	.word	0x6b0b05eb
8010a8ac:	23eb581d 	.word	0x1d58eb23
8010a8b0:	766231dd 	.word	0xdd316276
8010a8b4:	ea05076b 	.word	0x6b0705ea
8010a8b8:	1aeb5c1d 	.word	0x1d5ceb1a
8010a8bc:	796230dd 	.word	0xdd306279
8010a8c0:	e905036b 	.word	0x6b0305e9
8010a8c4:	11eb5f1d 	.word	0x1d5feb11
8010a8c8:	7c622fdd 	.word	0xdd2f627c
8010a8cc:	e805ff6a 	.word	0x6aff05e8
8010a8d0:	09eb621d 	.word	0x1d62eb09
8010a8d4:	7f622ddd 	.word	0xdd2d627f
8010a8d8:	e705fb6a 	.word	0x6afb05e7
8010a8dc:	00eb651d 	.word	0x1d65eb00
8010a8e0:	82622cdd 	.word	0xdd2c6282
8010a8e4:	e605f76a 	.word	0x6af705e6
8010a8e8:	f8ea681d 	.word	0x1d68eaf8
8010a8ec:	84622bdd 	.word	0xdd2b6284
8010a8f0:	e505f46a 	.word	0x6af405e5
8010a8f4:	efea6c1d 	.word	0x1d6ceaef
8010a8f8:	87622add 	.word	0xdd2a6287
8010a8fc:	e405f06a 	.word	0x6af005e4
8010a900:	e7ea6f1d 	.word	0x1d6feae7
8010a904:	8a6229dd 	.word	0xdd29628a
8010a908:	e305ec6a 	.word	0x6aec05e3
8010a90c:	deea721d 	.word	0x1d72eade
8010a910:	8d6227dd 	.word	0xdd27628d
8010a914:	e205e86a 	.word	0x6ae805e2
8010a918:	d6ea751d 	.word	0x1d75ead6
8010a91c:	8f6226dd 	.word	0xdd26628f
8010a920:	e105e56a 	.word	0x6ae505e1
8010a924:	cdea781d 	.word	0x1d78eacd
8010a928:	926225dd 	.word	0xdd256292
8010a92c:	e005e16a 	.word	0x6ae105e0
8010a930:	c5ea7b1d 	.word	0x1d7beac5
8010a934:	956224dd 	.word	0xdd246295
8010a938:	df05dd6a 	.word	0x6add05df
8010a93c:	bdea7e1d 	.word	0x1d7eeabd
8010a940:	976223dd 	.word	0xdd236297
8010a944:	de05d96a 	.word	0x6ad905de
8010a948:	b4ea811d 	.word	0x1d81eab4
8010a94c:	9a6222dd 	.word	0xdd22629a
8010a950:	dd05d66a 	.word	0x6ad605dd
8010a954:	acea841d 	.word	0x1d84eaac
8010a958:	9d6220dd 	.word	0xdd20629d
8010a95c:	dc05d26a 	.word	0x6ad205dc
8010a960:	a4ea871d 	.word	0x1d87eaa4
8010a964:	9f621fdd 	.word	0xdd1f629f
8010a968:	db05ce6a 	.word	0x6ace05db
8010a96c:	9cea8a1d 	.word	0x1d8aea9c
8010a970:	a2621edd 	.word	0xdd1e62a2
8010a974:	da05cb6a 	.word	0x6acb05da
8010a978:	94ea8d1d 	.word	0x1d8dea94
8010a97c:	a5621ddd 	.word	0xdd1d62a5
8010a980:	d905c76a 	.word	0x6ac705d9
8010a984:	8cea901d 	.word	0x1d90ea8c
8010a988:	a7621cdd 	.word	0xdd1c62a7
8010a98c:	d805c46a 	.word	0x6ac405d8
8010a990:	84ea931d 	.word	0x1d93ea84
8010a994:	aa621bdd 	.word	0xdd1b62aa
8010a998:	d705c06a 	.word	0x6ac005d7
8010a99c:	7cea961d 	.word	0x1d96ea7c
8010a9a0:	ac6219dd 	.word	0xdd1962ac
8010a9a4:	d605bd6a 	.word	0x6abd05d6
8010a9a8:	74ea991d 	.word	0x1d99ea74
8010a9ac:	af6218dd 	.word	0xdd1862af
8010a9b0:	d505b96a 	.word	0x6ab905d5
8010a9b4:	6cea9c1d 	.word	0x1d9cea6c
8010a9b8:	b16217dd 	.word	0xdd1762b1
8010a9bc:	d405b66a 	.word	0x6ab605d4
8010a9c0:	64ea9f1d 	.word	0x1d9fea64
8010a9c4:	b46216dd 	.word	0xdd1662b4
8010a9c8:	d305b26a 	.word	0x6ab205d3
8010a9cc:	5ceaa21d 	.word	0x1da2ea5c
8010a9d0:	b66215dd 	.word	0xdd1562b6
8010a9d4:	d205af6a 	.word	0x6aaf05d2
8010a9d8:	55eaa41d 	.word	0x1da4ea55
8010a9dc:	b96214dd 	.word	0xdd1462b9
8010a9e0:	d105ab6a 	.word	0x6aab05d1
8010a9e4:	4deaa71d 	.word	0x1da7ea4d
8010a9e8:	bb6213dd 	.word	0xdd1362bb
8010a9ec:	d005a86a 	.word	0x6aa805d0
8010a9f0:	46eaaa1d 	.word	0x1daaea46
8010a9f4:	be6212dd 	.word	0xdd1262be
8010a9f8:	cf05a56a 	.word	0x6aa505cf
8010a9fc:	3eeaad1d 	.word	0x1dadea3e
8010aa00:	c06211dd 	.word	0xdd1162c0
8010aa04:	ce05a16a 	.word	0x6aa105ce
8010aa08:	37eab01d 	.word	0x1db0ea37
8010aa0c:	c36210dd 	.word	0xdd1062c3
8010aa10:	cd059e6a 	.word	0x6a9e05cd
8010aa14:	2feab21d 	.word	0x1db2ea2f
8010aa18:	c5620fdd 	.word	0xdd0f62c5
8010aa1c:	cc059b6a 	.word	0x6a9b05cc
8010aa20:	28eab51d 	.word	0x1db5ea28
8010aa24:	c7620edd 	.word	0xdd0e62c7
8010aa28:	cb05976a 	.word	0x6a9705cb
8010aa2c:	21eab81d 	.word	0x1db8ea21
8010aa30:	ca620ddd 	.word	0xdd0d62ca
8010aa34:	ca05946a 	.word	0x6a9405ca
8010aa38:	19eaba1d 	.word	0x1dbaea19
8010aa3c:	cc620cdd 	.word	0xdd0c62cc
8010aa40:	ca05916a 	.word	0x6a9105ca
8010aa44:	12eabd1d 	.word	0x1dbdea12
8010aa48:	ce620bdd 	.word	0xdd0b62ce
8010aa4c:	c9058e6a 	.word	0x6a8e05c9
8010aa50:	0beac01d 	bgtz	t6,0x80105280
8010aa54:	d1620add 	.word	0xdd0a62d1
8010aa58:	c8058b6a 	.word	0x6a8b05c8
8010aa5c:	04eac21d 	.word	0x1dc2ea04
8010aa60:	d36209dd 	.word	0xdd0962d3
8010aa64:	c705886a 	.word	0x6a8805c7
8010aa68:	fde9c51d 	.word	0x1dc5e9fd
8010aa6c:	d56208dd 	.word	0xdd0862d5
8010aa70:	c605846a 	.word	0x6a8405c6
8010aa74:	f6e9c71d 	.word	0x1dc7e9f6
8010aa78:	d76207dd 	.word	0xdd0762d7
8010aa7c:	c505816a 	.word	0x6a8105c5
8010aa80:	efe9ca1d 	.word	0x1dcae9ef
8010aa84:	da6206dd 	.word	0xdd0662da
8010aa88:	c4057e6a 	.word	0x6a7e05c4
8010aa8c:	e9e9cc1d 	.word	0x1dcce9e9
8010aa90:	dc6205dd 	.word	0xdd0562dc
8010aa94:	c4057b6a 	.word	0x6a7b05c4
8010aa98:	e2e9cf1d 	.word	0x1dcfe9e2
8010aa9c:	de6204dd 	.word	0xdd0462de
8010aaa0:	c305796a 	.word	0x6a7905c3
8010aaa4:	dbe9d11d 	.word	0x1dd1e9db
8010aaa8:	e06203dd 	.word	0xdd0362e0
8010aaac:	c205766a 	.word	0x6a7605c2
8010aab0:	d5e9d41d 	.word	0x1dd4e9d5
8010aab4:	e26202dd 	.word	0xdd0262e2
8010aab8:	c105736a 	.word	0x6a7305c1
8010aabc:	cee9d61d 	.word	0x1dd6e9ce
8010aac0:	e46201dd 	.word	0xdd0162e4
8010aac4:	c005706a 	.word	0x6a7005c0
8010aac8:	c8e9d81d 	.word	0x1dd8e9c8
8010aacc:	e66200dd 	.word	0xdd0062e6
8010aad0:	c0056d6a 	.word	0x6a6d05c0
8010aad4:	c2e9db1d 	.word	0x1ddbe9c2
8010aad8:	e862ffdc 	.word	0xdcff62e8
8010aadc:	bf056a6a 	.word	0x6a6a05bf
8010aae0:	bce9dd1d 	.word	0x1ddde9bc
8010aae4:	ea62fedc 	.word	0xdcfe62ea
8010aae8:	be05686a 	.word	0x6a6805be
8010aaec:	b6e9df1d 	.word	0x1ddfe9b6
8010aaf0:	ec62fedc 	.word	0xdcfe62ec
8010aaf4:	bd05656a 	.word	0x6a6505bd
8010aaf8:	b0e9e21d 	.word	0x1de2e9b0
8010aafc:	ee62fddc 	.word	0xdcfd62ee
8010ab00:	bd05626a 	.word	0x6a6205bd
8010ab04:	aae9e41d 	.word	0x1de4e9aa
8010ab08:	f062fcdc 	.word	0xdcfc62f0
8010ab0c:	bc05606a 	.word	0x6a6005bc
8010ab10:	a4e9e61d 	.word	0x1de6e9a4
8010ab14:	f262fbdc 	.word	0xdcfb62f2
8010ab18:	bb055d6a 	.word	0x6a5d05bb
8010ab1c:	9ee9e81d 	.word	0x1de8e99e
8010ab20:	f462fadc 	.word	0xdcfa62f4
8010ab24:	bb055b6a 	.word	0x6a5b05bb
8010ab28:	98e9ea1d 	.word	0x1deae998
8010ab2c:	f662f9dc 	.word	0xdcf962f6
8010ab30:	ba05586a 	.word	0x6a5805ba
8010ab34:	93e9ec1d 	.word	0x1dece993
8010ab38:	f762f9dc 	.word	0xdcf962f7
8010ab3c:	b905566a 	.word	0x6a5605b9
8010ab40:	8de9ee1d 	.word	0x1deee98d
8010ab44:	f962f8dc 	.word	0xdcf862f9
8010ab48:	b805536a 	.word	0x6a5305b8
8010ab4c:	88e9f01d 	.word	0x1df0e988
8010ab50:	fb62f7dc 	.word	0xdcf762fb
8010ab54:	b805516a 	.word	0x6a5105b8
8010ab58:	83e9f21d 	.word	0x1df2e983
8010ab5c:	fd62f6dc 	.word	0xdcf662fd
8010ab60:	b7054f6a 	.word	0x6a4f05b7
8010ab64:	7de9f41d 	.word	0x1df4e97d
8010ab68:	fe62f6dc 	.word	0xdcf662fe
8010ab6c:	b7054c6a 	.word	0x6a4c05b7
8010ab70:	78e9f61d 	.word	0x1df6e978
8010ab74:	0063f5dc 	.word	0xdcf56300
8010ab78:	b6054a6a 	.word	0x6a4a05b6
8010ab7c:	73e9f81d 	.word	0x1df8e973
8010ab80:	0163f4dc 	.word	0xdcf46301
8010ab84:	b505486a 	.word	0x6a4805b5
8010ab88:	6ee9fa1d 	.word	0x1dfae96e
8010ab8c:	0363f4dc 	.word	0xdcf46303
8010ab90:	b505466a 	.word	0x6a4605b5
8010ab94:	69e9fb1d 	.word	0x1dfbe969
8010ab98:	0563f3dc 	.word	0xdcf36305
8010ab9c:	b405446a 	.word	0x6a4405b4
8010aba0:	65e9fd1d 	.word	0x1dfde965
8010aba4:	0663f2dc 	.word	0xdcf26306
8010aba8:	b405426a 	.word	0x6a4205b4
8010abac:	60e9ff1d 	.word	0x1dffe960
8010abb0:	0763f2dc 	.word	0xdcf26307
8010abb4:	b305406a 	.word	0x6a4005b3
8010abb8:	5ce9001e 	bgtz	s0,0x8010512c
8010abbc:	0963f1dc 	.word	0xdcf16309
8010abc0:	b2053e6a 	.word	0x6a3e05b2
8010abc4:	57e9021e 	.word	0x1e02e957
8010abc8:	0a63f0dc 	.word	0xdcf0630a
8010abcc:	b2053c6a 	.word	0x6a3c05b2
8010abd0:	53e9041e 	.word	0x1e04e953
8010abd4:	0c63f0dc 	.word	0xdcf0630c
8010abd8:	b1053a6a 	.word	0x6a3a05b1
8010abdc:	4fe9051e 	.word	0x1e05e94f
8010abe0:	0d63efdc 	.word	0xdcef630d
8010abe4:	b105386a 	.word	0x6a3805b1
8010abe8:	4be9071e 	.word	0x1e07e94b
8010abec:	0e63efdc 	.word	0xdcef630e
8010abf0:	b005366a 	.word	0x6a3605b0
8010abf4:	47e9081e 	.word	0x1e08e947
8010abf8:	1063eedc 	.word	0xdcee6310
8010abfc:	b005346a 	.word	0x6a3405b0
8010ac00:	43e90a1e 	.word	0x1e0ae943
8010ac04:	1163eedc 	.word	0xdcee6311
8010ac08:	af05336a 	.word	0x6a3305af
8010ac0c:	3fe90b1e 	.word	0x1e0be93f
8010ac10:	1263eddc 	.word	0xdced6312
8010ac14:	af05316a 	.word	0x6a3105af
8010ac18:	3be90c1e 	.word	0x1e0ce93b
8010ac1c:	1363ecdc 	.word	0xdcec6313
8010ac20:	af05306a 	.word	0x6a3005af
8010ac24:	38e90e1e 	.word	0x1e0ee938
8010ac28:	1463ecdc 	.word	0xdcec6314
8010ac2c:	ae052e6a 	.word	0x6a2e05ae
8010ac30:	35e90f1e 	.word	0x1e0fe935
8010ac34:	1563ecdc 	.word	0xdcec6315
8010ac38:	ae052d6a 	.word	0x6a2d05ae
8010ac3c:	31e9101e 	.word	0x1e10e931
8010ac40:	1663ebdc 	.word	0xdceb6316
8010ac44:	ad052b6a 	.word	0x6a2b05ad
8010ac48:	2ee9111e 	.word	0x1e11e92e
8010ac4c:	1763ebdc 	.word	0xdceb6317
8010ac50:	ad052a6a 	.word	0x6a2a05ad
8010ac54:	2be9121e 	.word	0x1e12e92b
8010ac58:	1863eadc 	.word	0xdcea6318
8010ac5c:	ad05296a 	.word	0x6a2905ad
8010ac60:	28e9131e 	.word	0x1e13e928
8010ac64:	1963eadc 	.word	0xdcea6319
8010ac68:	ac05276a 	.word	0x6a2705ac
8010ac6c:	25e9151e 	.word	0x1e15e925
8010ac70:	1a63e9dc 	.word	0xdce9631a
8010ac74:	ac05266a 	.word	0x6a2605ac
8010ac78:	23e9151e 	.word	0x1e15e923
8010ac7c:	1b63e9dc 	.word	0xdce9631b
8010ac80:	ac05256a 	.word	0x6a2505ac
8010ac84:	20e9161e 	.word	0x1e16e920
8010ac88:	1c63e9dc 	.word	0xdce9631c
8010ac8c:	ab05246a 	.word	0x6a2405ab
8010ac90:	1ee9171e 	.word	0x1e17e91e
8010ac94:	1c63e8dc 	.word	0xdce8631c
8010ac98:	ab05236a 	.word	0x6a2305ab
8010ac9c:	1be9181e 	.word	0x1e18e91b
8010aca0:	1d63e8dc 	.word	0xdce8631d
8010aca4:	ab05226a 	.word	0x6a2205ab
8010aca8:	19e9191e 	.word	0x1e19e919
8010acac:	1e63e8dc 	.word	0xdce8631e
8010acb0:	ab05216a 	.word	0x6a2105ab
8010acb4:	17e91a1e 	.word	0x1e1ae917
8010acb8:	1e63e8dc 	.word	0xdce8631e
8010acbc:	aa05206a 	.word	0x6a2005aa
8010acc0:	15e91a1e 	.word	0x1e1ae915
8010acc4:	1f63e7dc 	.word	0xdce7631f
8010acc8:	aa051f6a 	.word	0x6a1f05aa
8010accc:	14e91b1e 	.word	0x1e1be914
8010acd0:	1f63e7dc 	.word	0xdce7631f
8010acd4:	aa051f6a 	.word	0x6a1f05aa
8010acd8:	12e91c1e 	.word	0x1e1ce912
8010acdc:	2063e7dc 	.word	0xdce76320
8010ace0:	aa051e6a 	.word	0x6a1e05aa
8010ace4:	10e91c1e 	.word	0x1e1ce910
8010ace8:	2063e7dc 	.word	0xdce76320
8010acec:	aa051d6a 	.word	0x6a1d05aa
8010acf0:	0fe91d1e 	.word	0x1e1de90f
8010acf4:	2163e7dc 	.word	0xdce76321
8010acf8:	a9051d6a 	.word	0x6a1d05a9
8010acfc:	0ee91d1e 	.word	0x1e1de90e
8010ad00:	2163e6dc 	.word	0xdce66321
8010ad04:	a9051c6a 	.word	0x6a1c05a9
8010ad08:	0de91e1e 	.word	0x1e1ee90d
8010ad0c:	2163e6dc 	.word	0xdce66321
8010ad10:	a9051c6a 	.word	0x6a1c05a9
8010ad14:	0ce91e1e 	.word	0x1e1ee90c
8010ad18:	2263e6dc 	.word	0xdce66322
8010ad1c:	a9051c6a 	.word	0x6a1c05a9
8010ad20:	0be91e1e 	.word	0x1e1ee90b
8010ad24:	2263e6dc 	.word	0xdce66322
8010ad28:	a9051b6a 	.word	0x6a1b05a9
8010ad2c:	0ae91e1e 	.word	0x1e1ee90a
8010ad30:	2263e6dc 	.word	0xdce66322
8010ad34:	a9051b6a 	.word	0x6a1b05a9
8010ad38:	0ae91f1e 	.word	0x1e1fe90a
8010ad3c:	2263e6dc 	.word	0xdce66322
8010ad40:	a9051b6a 	.word	0x6a1b05a9
8010ad44:	0ae91f1e 	.word	0x1e1fe90a
8010ad48:	2263e6dc 	.word	0xdce66322
8010ad4c:	a9051b6a 	.word	0x6a1b05a9
8010ad50:	09e91f1e 	.word	0x1e1fe909
8010ad54:	2263e6dc 	.word	0xdce66322
8010ad58:	a9051b6a 	.word	0x6a1b05a9
8010ad5c:	09e91f1e 	.word	0x1e1fe909
	...
8010ad6c:	fa0010ff 	.word	0xff1000fa
8010ad70:	8601f3ff 	.word	0xfff30186
8010ad74:	2eff2000 	.word	0x20ff2e
8010ad78:	fa0010ff 	.word	0xff1000fa
8010ad7c:	8601f3ff 	.word	0xfff30186
8010ad80:	2eff2000 	.word	0x20ff2e
8010ad84:	fa0010ff 	.word	0xff1000fa
8010ad88:	8601f3ff 	.word	0xfff30186
8010ad8c:	2eff2000 	.word	0x20ff2e
8010ad90:	fa0010ff 	.word	0xff1000fa
8010ad94:	8601f3ff 	.word	0xfff30186
8010ad98:	2eff2000 	.word	0x20ff2e
8010ad9c:	fa0010ff 	.word	0xff1000fa
8010ada0:	8601f3ff 	.word	0xfff30186
8010ada4:	2eff2000 	.word	0x20ff2e
8010ada8:	fa0010ff 	.word	0xff1000fa
8010adac:	8601f3ff 	.word	0xfff30186
8010adb0:	2eff2000 	.word	0x20ff2e
8010adb4:	fa0010ff 	.word	0xff1000fa
8010adb8:	8601f3ff 	.word	0xfff30186
8010adbc:	2eff2000 	.word	0x20ff2e
8010adc0:	fa0010ff 	.word	0xff1000fa
8010adc4:	8601f3ff 	.word	0xfff30186
8010adc8:	2eff2000 	.word	0x20ff2e
8010adcc:	fa0010ff 	.word	0xff1000fa
8010add0:	8601f3ff 	.word	0xfff30186
8010add4:	2eff2000 	.word	0x20ff2e
8010add8:	fa0010ff 	.word	0xff1000fa
8010addc:	8601f3ff 	.word	0xfff30186
8010ade0:	2eff2000 	.word	0x20ff2e
8010ade4:	fa0010ff 	.word	0xff1000fa
8010ade8:	8601f3ff 	.word	0xfff30186
8010adec:	2fff1f00 	.word	0x1fff2f
8010adf0:	fa0010ff 	.word	0xff1000fa
8010adf4:	8601f3ff 	.word	0xfff30186
8010adf8:	2fff1f00 	.word	0x1fff2f
8010adfc:	fa0010ff 	.word	0xff1000fa
8010ae00:	8601f3ff 	.word	0xfff30186
8010ae04:	2fff1f00 	.word	0x1fff2f
8010ae08:	fa0010ff 	.word	0xff1000fa
8010ae0c:	8601f3ff 	.word	0xfff30186
8010ae10:	2fff1f00 	.word	0x1fff2f
8010ae14:	fa0010ff 	.word	0xff1000fa
8010ae18:	8601f3ff 	.word	0xfff30186
8010ae1c:	2fff1f00 	.word	0x1fff2f
8010ae20:	fa0010ff 	.word	0xff1000fa
8010ae24:	8601f3ff 	.word	0xfff30186
8010ae28:	2fff1f00 	.word	0x1fff2f
8010ae2c:	fa0010ff 	.word	0xff1000fa
8010ae30:	8601f3ff 	.word	0xfff30186
8010ae34:	30ff1f00 	.word	0x1fff30
8010ae38:	fa0010ff 	.word	0xff1000fa
8010ae3c:	8601f3ff 	.word	0xfff30186
8010ae40:	30ff1f00 	.word	0x1fff30
8010ae44:	fa0010ff 	.word	0xff1000fa
8010ae48:	8601f3ff 	.word	0xfff30186
8010ae4c:	30ff1f00 	.word	0x1fff30
8010ae50:	fa0010ff 	.word	0xff1000fa
8010ae54:	8601f3ff 	.word	0xfff30186
8010ae58:	30ff1f00 	.word	0x1fff30
8010ae5c:	fa0010ff 	.word	0xff1000fa
8010ae60:	8601f3ff 	.word	0xfff30186
8010ae64:	31ff1f00 	.word	0x1fff31
8010ae68:	fa0010ff 	.word	0xff1000fa
8010ae6c:	8601f3ff 	.word	0xfff30186
8010ae70:	31ff1f00 	.word	0x1fff31
8010ae74:	fa0010ff 	.word	0xff1000fa
8010ae78:	8601f3ff 	.word	0xfff30186
8010ae7c:	31ff1f00 	.word	0x1fff31
8010ae80:	fa0010ff 	.word	0xff1000fa
8010ae84:	8601f3ff 	.word	0xfff30186
8010ae88:	32ff1f00 	.word	0x1fff32
8010ae8c:	fa0010ff 	.word	0xff1000fa
8010ae90:	8601f3ff 	.word	0xfff30186
8010ae94:	32ff1f00 	.word	0x1fff32
8010ae98:	fa0010ff 	.word	0xff1000fa
8010ae9c:	8601f3ff 	.word	0xfff30186
8010aea0:	32ff1f00 	.word	0x1fff32
8010aea4:	fa0010ff 	.word	0xff1000fa
8010aea8:	8601f3ff 	.word	0xfff30186
8010aeac:	33ff1f00 	.word	0x1fff33
8010aeb0:	fa0010ff 	.word	0xff1000fa
8010aeb4:	8601f3ff 	.word	0xfff30186
8010aeb8:	33ff1f00 	.word	0x1fff33
8010aebc:	fa0010ff 	.word	0xff1000fa
8010aec0:	8601f2ff 	.word	0xfff20186
8010aec4:	33ff1e00 	.word	0x1eff33
8010aec8:	fa0010ff 	.word	0xff1000fa
8010aecc:	8601f2ff 	.word	0xfff20186
8010aed0:	34ff1e00 	.word	0x1eff34
8010aed4:	fa0010ff 	.word	0xff1000fa
8010aed8:	8601f2ff 	.word	0xfff20186
8010aedc:	34ff1e00 	.word	0x1eff34
8010aee0:	fa0010ff 	.word	0xff1000fa
8010aee4:	8601f2ff 	.word	0xfff20186
8010aee8:	35ff1e00 	.word	0x1eff35
8010aeec:	fa0010ff 	.word	0xff1000fa
8010aef0:	8601f2ff 	.word	0xfff20186
8010aef4:	35ff1e00 	.word	0x1eff35
8010aef8:	fa0010ff 	.word	0xff1000fa
8010aefc:	8601f2ff 	.word	0xfff20186
8010af00:	36ff1e00 	.word	0x1eff36
8010af04:	fa0010ff 	.word	0xff1000fa
8010af08:	8601f2ff 	.word	0xfff20186
8010af0c:	36ff1e00 	.word	0x1eff36
8010af10:	fa0010ff 	.word	0xff1000fa
8010af14:	8601f2ff 	.word	0xfff20186
8010af18:	36ff1e00 	.word	0x1eff36
8010af1c:	fa0010ff 	.word	0xff1000fa
8010af20:	8601f2ff 	.word	0xfff20186
8010af24:	37ff1e00 	.word	0x1eff37
8010af28:	fa0010ff 	.word	0xff1000fa
8010af2c:	8601f2ff 	.word	0xfff20186
8010af30:	37ff1e00 	.word	0x1eff37
8010af34:	fa0010ff 	.word	0xff1000fa
8010af38:	8601f2ff 	.word	0xfff20186
8010af3c:	38ff1d00 	.word	0x1dff38
8010af40:	fa0010ff 	.word	0xff1000fa
8010af44:	8601f2ff 	.word	0xfff20186
8010af48:	38ff1d00 	.word	0x1dff38
8010af4c:	fa0010ff 	.word	0xff1000fa
8010af50:	8601f2ff 	.word	0xfff20186
8010af54:	39ff1d00 	.word	0x1dff39
8010af58:	fa0010ff 	.word	0xff1000fa
8010af5c:	8601f2ff 	.word	0xfff20186
8010af60:	39ff1d00 	.word	0x1dff39
8010af64:	fa0010ff 	.word	0xff1000fa
8010af68:	8601f2ff 	.word	0xfff20186
8010af6c:	3aff1d00 	.word	0x1dff3a
8010af70:	fa0010ff 	.word	0xff1000fa
8010af74:	8601f2ff 	.word	0xfff20186
8010af78:	3aff1d00 	.word	0x1dff3a
8010af7c:	fa0010ff 	.word	0xff1000fa
8010af80:	8601f2ff 	.word	0xfff20186
8010af84:	3bff1d00 	.word	0x1dff3b
8010af88:	fa0010ff 	.word	0xff1000fa
8010af8c:	8601f2ff 	.word	0xfff20186
8010af90:	3cff1d00 	.word	0x1dff3c
8010af94:	fa0010ff 	.word	0xff1000fa
8010af98:	8601f2ff 	.word	0xfff20186
8010af9c:	3cff1c00 	.word	0x1cff3c
8010afa0:	fa0010ff 	.word	0xff1000fa
8010afa4:	8601f2ff 	.word	0xfff20186
8010afa8:	3dff1c00 	.word	0x1cff3d
8010afac:	fa0010ff 	.word	0xff1000fa
8010afb0:	8601f2ff 	.word	0xfff20186
8010afb4:	3dff1c00 	.word	0x1cff3d
8010afb8:	fa0010ff 	.word	0xff1000fa
8010afbc:	8601f2ff 	.word	0xfff20186
8010afc0:	3eff1c00 	.word	0x1cff3e
8010afc4:	fa0010ff 	.word	0xff1000fa
8010afc8:	8601f2ff 	.word	0xfff20186
8010afcc:	3eff1c00 	.word	0x1cff3e
8010afd0:	fa0010ff 	.word	0xff1000fa
8010afd4:	8601f2ff 	.word	0xfff20186
8010afd8:	3fff1c00 	.word	0x1cff3f
8010afdc:	fa0010ff 	.word	0xff1000fa
8010afe0:	8601f2ff 	.word	0xfff20186
8010afe4:	40ff1b00 	sll	ra,k1,0x1d
8010afe8:	fa0010ff 	.word	0xff1000fa
8010afec:	8601f2ff 	.word	0xfff20186
8010aff0:	40ff1b00 	sll	ra,k1,0x1d
8010aff4:	fa0010ff 	.word	0xff1000fa
8010aff8:	8601f2ff 	.word	0xfff20186
8010affc:	41ff1b00 	.word	0x1bff41
8010b000:	fa0010ff 	.word	0xff1000fa
8010b004:	8601f2ff 	.word	0xfff20186
8010b008:	42ff1b00 	srl	ra,k1,0x1d
8010b00c:	fa0010ff 	.word	0xff1000fa
8010b010:	8601f2ff 	.word	0xfff20186
8010b014:	42ff1b00 	srl	ra,k1,0x1d
8010b018:	fa0010ff 	.word	0xff1000fa
8010b01c:	8601f2ff 	.word	0xfff20186
8010b020:	43ff1a00 	sra	ra,k0,0x1d
8010b024:	fa0010ff 	.word	0xff1000fa
8010b028:	8601f2ff 	.word	0xfff20186
8010b02c:	43ff1a00 	sra	ra,k0,0x1d
8010b030:	fa0010ff 	.word	0xff1000fa
8010b034:	8601f2ff 	.word	0xfff20186
8010b038:	44ff1a00 	.word	0x1aff44
8010b03c:	fa0010ff 	.word	0xff1000fa
8010b040:	8601f2ff 	.word	0xfff20186
8010b044:	45ff1a00 	.word	0x1aff45
8010b048:	fa0010ff 	.word	0xff1000fa
8010b04c:	8601f2ff 	.word	0xfff20186
8010b050:	45ff1a00 	.word	0x1aff45
8010b054:	fa0010ff 	.word	0xff1000fa
8010b058:	8601f2ff 	.word	0xfff20186
8010b05c:	46ff1900 	.word	0x19ff46
8010b060:	fa0010ff 	.word	0xff1000fa
8010b064:	8601f2ff 	.word	0xfff20186
8010b068:	47ff1900 	.word	0x19ff47
8010b06c:	fa0010ff 	.word	0xff1000fa
8010b070:	8601f2ff 	.word	0xfff20186
8010b074:	47ff1900 	.word	0x19ff47
8010b078:	fa0010ff 	.word	0xff1000fa
8010b07c:	8601f2ff 	.word	0xfff20186
8010b080:	48ff1900 	.word	0x19ff48
8010b084:	fa0010ff 	.word	0xff1000fa
8010b088:	8601f2ff 	.word	0xfff20186
8010b08c:	49ff1800 	.word	0x18ff49
8010b090:	fa0010ff 	.word	0xff1000fa
8010b094:	8601f2ff 	.word	0xfff20186
8010b098:	4aff1800 	.word	0x18ff4a
8010b09c:	fa0010ff 	.word	0xff1000fa
8010b0a0:	8601f2ff 	.word	0xfff20186
8010b0a4:	4aff1800 	.word	0x18ff4a
8010b0a8:	fa0010ff 	.word	0xff1000fa
8010b0ac:	8601f2ff 	.word	0xfff20186
8010b0b0:	4bff1800 	.word	0x18ff4b
8010b0b4:	fa0010ff 	.word	0xff1000fa
8010b0b8:	8601f2ff 	.word	0xfff20186
8010b0bc:	4cff1700 	syscall	0x5ffd
8010b0c0:	fa0010ff 	.word	0xff1000fa
8010b0c4:	8601f2ff 	.word	0xfff20186
8010b0c8:	4cff1700 	syscall	0x5ffd
8010b0cc:	fa0010ff 	.word	0xff1000fa
8010b0d0:	8601f2ff 	.word	0xfff20186
8010b0d4:	4dff1700 	break	0x17,0x3fd
8010b0d8:	fa0010ff 	.word	0xff1000fa
8010b0dc:	8601f2ff 	.word	0xfff20186
8010b0e0:	4eff1600 	.word	0x16ff4e
8010b0e4:	fa0010ff 	.word	0xff1000fa
8010b0e8:	8601f2ff 	.word	0xfff20186
8010b0ec:	4fff1600 	.word	0x16ff4f
8010b0f0:	fa0010ff 	.word	0xff1000fa
8010b0f4:	8601f2ff 	.word	0xfff20186
8010b0f8:	4fff1600 	.word	0x16ff4f
8010b0fc:	fa0010ff 	.word	0xff1000fa
8010b100:	8601f2ff 	.word	0xfff20186
8010b104:	50ff1600 	.word	0x16ff50
8010b108:	fa0010ff 	.word	0xff1000fa
8010b10c:	8601f2ff 	.word	0xfff20186
8010b110:	51ff1500 	.word	0x15ff51
8010b114:	fa0010ff 	.word	0xff1000fa
8010b118:	8601f2ff 	.word	0xfff20186
8010b11c:	52ff1500 	.word	0x15ff52
8010b120:	fa0010ff 	.word	0xff1000fa
8010b124:	8601f2ff 	.word	0xfff20186
8010b128:	52ff1500 	.word	0x15ff52
8010b12c:	fa0010ff 	.word	0xff1000fa
8010b130:	8601f2ff 	.word	0xfff20186
8010b134:	53ff1400 	.word	0x14ff53
8010b138:	fa0010ff 	.word	0xff1000fa
8010b13c:	8601f2ff 	.word	0xfff20186
8010b140:	54ff1400 	.word	0x14ff54
8010b144:	fa0010ff 	.word	0xff1000fa
8010b148:	8601f2ff 	.word	0xfff20186
8010b14c:	55ff1400 	.word	0x14ff55
8010b150:	fa0010ff 	.word	0xff1000fa
8010b154:	8601f2ff 	.word	0xfff20186
8010b158:	55ff1300 	.word	0x13ff55
8010b15c:	fa0010ff 	.word	0xff1000fa
8010b160:	8601f2ff 	.word	0xfff20186
8010b164:	56ff1300 	.word	0x13ff56
8010b168:	fa0010ff 	.word	0xff1000fa
8010b16c:	8601f2ff 	.word	0xfff20186
8010b170:	57ff1200 	.word	0x12ff57
8010b174:	fa0010ff 	.word	0xff1000fa
8010b178:	8601f2ff 	.word	0xfff20186
8010b17c:	58ff1200 	.word	0x12ff58
8010b180:	fa0010ff 	.word	0xff1000fa
8010b184:	8601f2ff 	.word	0xfff20186
8010b188:	58ff1200 	.word	0x12ff58
8010b18c:	fa0010ff 	.word	0xff1000fa
8010b190:	8601f2ff 	.word	0xfff20186
8010b194:	59ff1100 	.word	0x11ff59
8010b198:	fa0010ff 	.word	0xff1000fa
8010b19c:	8601f2ff 	.word	0xfff20186
8010b1a0:	5aff1100 	.word	0x11ff5a
8010b1a4:	fa0010ff 	.word	0xff1000fa
8010b1a8:	8601f2ff 	.word	0xfff20186
8010b1ac:	5bff1100 	.word	0x11ff5b
8010b1b0:	fa0010ff 	.word	0xff1000fa
8010b1b4:	8601f2ff 	.word	0xfff20186
8010b1b8:	5bff1000 	.word	0x10ff5b
8010b1bc:	fa0010ff 	.word	0xff1000fa
8010b1c0:	8601f2ff 	.word	0xfff20186
8010b1c4:	5cff1000 	.word	0x10ff5c
8010b1c8:	fa0010ff 	.word	0xff1000fa
8010b1cc:	8601f2ff 	.word	0xfff20186
8010b1d0:	5dff0f00 	.word	0xfff5d
8010b1d4:	fa0010ff 	.word	0xff1000fa
8010b1d8:	8601f2ff 	.word	0xfff20186
8010b1dc:	5eff0f00 	.word	0xfff5e
8010b1e0:	fa0010ff 	.word	0xff1000fa
8010b1e4:	8601f2ff 	.word	0xfff20186
8010b1e8:	5eff0e00 	.word	0xeff5e
8010b1ec:	fa0010ff 	.word	0xff1000fa
8010b1f0:	8601f2ff 	.word	0xfff20186
8010b1f4:	5fff0e00 	.word	0xeff5f
8010b1f8:	fa0010ff 	.word	0xff1000fa
8010b1fc:	8601f2ff 	.word	0xfff20186
8010b200:	60ff0d00 	.word	0xdff60
8010b204:	fa0010ff 	.word	0xff1000fa
8010b208:	8601f2ff 	.word	0xfff20186
8010b20c:	60ff0d00 	.word	0xdff60
8010b210:	fa0010ff 	.word	0xff1000fa
8010b214:	8601f2ff 	.word	0xfff20186
8010b218:	61ff0c00 	.word	0xcff61
8010b21c:	fa0010ff 	.word	0xff1000fa
8010b220:	8601f2ff 	.word	0xfff20186
8010b224:	62ff0c00 	.word	0xcff62
8010b228:	fa0010ff 	.word	0xff1000fa
8010b22c:	8601f2ff 	.word	0xfff20186
8010b230:	63ff0b00 	.word	0xbff63
8010b234:	fa0010ff 	.word	0xff1000fa
8010b238:	8601f2ff 	.word	0xfff20186
8010b23c:	63ff0b00 	.word	0xbff63
8010b240:	fa0010ff 	.word	0xff1000fa
8010b244:	8601f2ff 	.word	0xfff20186
8010b248:	64ff0a00 	.word	0xaff64
8010b24c:	fa0010ff 	.word	0xff1000fa
8010b250:	8601f2ff 	.word	0xfff20186
8010b254:	64ff0a00 	.word	0xaff64
8010b258:	fa0010ff 	.word	0xff1000fa
8010b25c:	8601f2ff 	.word	0xfff20186
8010b260:	65ff0900 	.word	0x9ff65
8010b264:	fa0010ff 	.word	0xff1000fa
8010b268:	8601f3ff 	.word	0xfff30186
8010b26c:	66ff0800 	.word	0x8ff66
8010b270:	fa0010ff 	.word	0xff1000fa
8010b274:	8601f3ff 	.word	0xfff30186
8010b278:	66ff0700 	.word	0x7ff66
8010b27c:	fa0010ff 	.word	0xff1000fa
8010b280:	8601f3ff 	.word	0xfff30186
8010b284:	67ff0700 	.word	0x7ff67
8010b288:	fa0010ff 	.word	0xff1000fa
8010b28c:	8601f3ff 	.word	0xfff30186
8010b290:	67ff0600 	.word	0x6ff67
8010b294:	fa0010ff 	.word	0xff1000fa
8010b298:	8601f3ff 	.word	0xfff30186
8010b29c:	67ff0500 	.word	0x5ff67
8010b2a0:	fa0010ff 	.word	0xff1000fa
8010b2a4:	8601f3ff 	.word	0xfff30186
8010b2a8:	67ff0400 	.word	0x4ff67
8010b2ac:	fa0010ff 	.word	0xff1000fa
8010b2b0:	8601f3ff 	.word	0xfff30186
8010b2b4:	67ff0300 	.word	0x3ff67
8010b2b8:	fa0010ff 	.word	0xff1000fa
8010b2bc:	8601f4ff 	.word	0xfff40186
8010b2c0:	66ff0300 	.word	0x3ff66
8010b2c4:	fa0010ff 	.word	0xff1000fa
8010b2c8:	8601f4ff 	.word	0xfff40186
8010b2cc:	66ff0200 	.word	0x2ff66
8010b2d0:	fa0010ff 	.word	0xff1000fa
8010b2d4:	8601f5ff 	.word	0xfff50186
8010b2d8:	65ff0200 	.word	0x2ff65
8010b2dc:	fa0010ff 	.word	0xff1000fa
8010b2e0:	8601f5ff 	.word	0xfff50186
8010b2e4:	64ff0200 	.word	0x2ff64
8010b2e8:	fa0010ff 	.word	0xff1000fa
8010b2ec:	8601f5ff 	.word	0xfff50186
8010b2f0:	64ff0100 	.word	0x1ff64
8010b2f4:	fa0010ff 	.word	0xff1000fa
8010b2f8:	8601f6ff 	.word	0xfff60186
8010b2fc:	63ff0100 	.word	0x1ff63
8010b300:	fa0010ff 	.word	0xff1000fa
8010b304:	8601f6ff 	.word	0xfff60186
8010b308:	62ff0100 	.word	0x1ff62
8010b30c:	fa0010ff 	.word	0xff1000fa
8010b310:	8601f6ff 	.word	0xfff60186
8010b314:	62ff0000 	.word	0xff62
8010b318:	fa0010ff 	.word	0xff1000fa
8010b31c:	8601f7ff 	.word	0xfff70186
8010b320:	61ff0000 	.word	0xff61
8010b324:	fa0010ff 	.word	0xff1000fa
8010b328:	8601f7ff 	.word	0xfff70186
8010b32c:	60ff0000 	.word	0xff60
8010b330:	fa0010ff 	.word	0xff1000fa
8010b334:	8601f7ff 	.word	0xfff70186
8010b338:	5fff0000 	.word	0xff5f
8010b33c:	fa0010ff 	.word	0xff1000fa
8010b340:	8601f8ff 	.word	0xfff80186
8010b344:	5fff0000 	.word	0xff5f
8010b348:	fa0010ff 	.word	0xff1000fa
8010b34c:	8601f8ff 	.word	0xfff80186
8010b350:	5eff0000 	.word	0xff5e
8010b354:	fa0010ff 	.word	0xff1000fa
8010b358:	8601f8ff 	.word	0xfff80186
8010b35c:	5dff0000 	.word	0xff5d
8010b360:	fa0010ff 	.word	0xff1000fa
8010b364:	8601f9ff 	.word	0xfff90186
8010b368:	5cffffff 	.word	0xffffff5c
8010b36c:	fa0010ff 	.word	0xff1000fa
8010b370:	8601f9ff 	.word	0xfff90186
8010b374:	5bffffff 	.word	0xffffff5b
8010b378:	fa0010ff 	.word	0xff1000fa
8010b37c:	8601f9ff 	.word	0xfff90186
8010b380:	5bffffff 	.word	0xffffff5b
8010b384:	fa0010ff 	.word	0xff1000fa
8010b388:	8601faff 	.word	0xfffa0186
8010b38c:	5affffff 	.word	0xffffff5a
8010b390:	fa0010ff 	.word	0xff1000fa
8010b394:	8601faff 	.word	0xfffa0186
8010b398:	59ffffff 	.word	0xffffff59
8010b39c:	fa0010ff 	.word	0xff1000fa
8010b3a0:	8601faff 	.word	0xfffa0186
8010b3a4:	58fffeff 	.word	0xfffeff58
8010b3a8:	fa0010ff 	.word	0xff1000fa
8010b3ac:	8601fbff 	.word	0xfffb0186
8010b3b0:	58fffeff 	.word	0xfffeff58
8010b3b4:	fa0010ff 	.word	0xff1000fa
8010b3b8:	8601fbff 	.word	0xfffb0186
8010b3bc:	57fffeff 	.word	0xfffeff57
8010b3c0:	fa0010ff 	.word	0xff1000fa
8010b3c4:	8601fbff 	.word	0xfffb0186
8010b3c8:	56fffeff 	.word	0xfffeff56
8010b3cc:	fa0010ff 	.word	0xff1000fa
8010b3d0:	8601fcff 	.word	0xfffc0186
8010b3d4:	55fffeff 	.word	0xfffeff55
8010b3d8:	fa0010ff 	.word	0xff1000fa
8010b3dc:	8601fcff 	.word	0xfffc0186
8010b3e0:	55fffdff 	.word	0xfffdff55
8010b3e4:	fa0010ff 	.word	0xff1000fa
8010b3e8:	8601fcff 	.word	0xfffc0186
8010b3ec:	54fffdff 	.word	0xfffdff54
8010b3f0:	fa0010ff 	.word	0xff1000fa
8010b3f4:	8601fdff 	.word	0xfffd0186
8010b3f8:	53fffdff 	.word	0xfffdff53
8010b3fc:	fa0010ff 	.word	0xff1000fa
8010b400:	8601fdff 	.word	0xfffd0186
8010b404:	52fffdff 	.word	0xfffdff52
8010b408:	fa0010ff 	.word	0xff1000fa
8010b40c:	8601fdff 	.word	0xfffd0186
8010b410:	52fffdff 	.word	0xfffdff52
8010b414:	fa0010ff 	.word	0xff1000fa
8010b418:	8601feff 	.word	0xfffe0186
8010b41c:	51fffdff 	.word	0xfffdff51
8010b420:	fa0010ff 	.word	0xff1000fa
8010b424:	8601feff 	.word	0xfffe0186
8010b428:	50fffcff 	.word	0xfffcff50
8010b42c:	fa0010ff 	.word	0xff1000fa
8010b430:	8601feff 	.word	0xfffe0186
8010b434:	50fffcff 	.word	0xfffcff50
8010b438:	fa0010ff 	.word	0xff1000fa
8010b43c:	8601feff 	.word	0xfffe0186
8010b440:	4ffffcff 	.word	0xfffcff4f
8010b444:	fa0010ff 	.word	0xff1000fa
8010b448:	8601ffff 	.word	0xffff0186
8010b44c:	4efffcff 	.word	0xfffcff4e
8010b450:	fa0010ff 	.word	0xff1000fa
8010b454:	8601ffff 	.word	0xffff0186
8010b458:	4dfffcff 	.word	0xfffcff4d
8010b45c:	fa0010ff 	.word	0xff1000fa
8010b460:	8601ffff 	.word	0xffff0186
8010b464:	4dfffcff 	.word	0xfffcff4d
8010b468:	fa0010ff 	.word	0xff1000fa
8010b46c:	86010000 	.word	0x186
8010b470:	4cfffbff 	.word	0xfffbff4c
8010b474:	fa0010ff 	.word	0xff1000fa
8010b478:	86010000 	.word	0x186
8010b47c:	4bfffbff 	.word	0xfffbff4b
8010b480:	fa0010ff 	.word	0xff1000fa
8010b484:	86010000 	.word	0x186
8010b488:	4bfffbff 	.word	0xfffbff4b
8010b48c:	fa0010ff 	.word	0xff1000fa
8010b490:	86010000 	.word	0x186
8010b494:	4afffbff 	.word	0xfffbff4a
8010b498:	fa0010ff 	.word	0xff1000fa
8010b49c:	86010000 	.word	0x186
8010b4a0:	49fffbff 	.word	0xfffbff49
8010b4a4:	fa0010ff 	.word	0xff1000fa
8010b4a8:	86010000 	.word	0x186
8010b4ac:	49fffbff 	.word	0xfffbff49
8010b4b0:	fa0011ff 	.word	0xff1100fa
8010b4b4:	86010000 	.word	0x186
8010b4b8:	48fffbff 	.word	0xfffbff48
8010b4bc:	fa0011ff 	.word	0xff1100fa
8010b4c0:	86010000 	.word	0x186
8010b4c4:	47fffaff 	.word	0xfffaff47
8010b4c8:	fa0011ff 	.word	0xff1100fa
8010b4cc:	86010100 	.word	0x10186
8010b4d0:	47fffaff 	.word	0xfffaff47
8010b4d4:	fa0011ff 	.word	0xff1100fa
8010b4d8:	86010100 	.word	0x10186
8010b4dc:	46fffaff 	.word	0xfffaff46
8010b4e0:	fa0011ff 	.word	0xff1100fa
8010b4e4:	86010100 	.word	0x10186
8010b4e8:	45fffaff 	.word	0xfffaff45
8010b4ec:	fb0011ff 	.word	0xff1100fb
8010b4f0:	86010100 	.word	0x10186
8010b4f4:	45fffaff 	.word	0xfffaff45
8010b4f8:	fb0012ff 	.word	0xff1200fb
8010b4fc:	86010200 	.word	0x20186
8010b500:	44fffaff 	.word	0xfffaff44
8010b504:	fc0012ff 	.word	0xff1200fc
8010b508:	87010200 	.word	0x20187
8010b50c:	43fffaff 	.word	0xfffaff43
8010b510:	fd0012ff 	.word	0xff1200fd
8010b514:	87010200 	.word	0x20187
8010b518:	43fff9ff 	.word	0xfff9ff43
8010b51c:	fe0013ff 	.word	0xff1300fe
8010b520:	87010200 	.word	0x20187
8010b524:	42fff9ff 	.word	0xfff9ff42
8010b528:	ff0014ff 	.word	0xff1400ff
8010b52c:	88010300 	.word	0x30188
8010b530:	42fff9ff 	.word	0xfff9ff42
8010b534:	000114ff 	.word	0xff140100
8010b538:	88010300 	.word	0x30188
8010b53c:	41fff9ff 	.word	0xfff9ff41
8010b540:	020115ff 	.word	0xff150102
8010b544:	89010300 	.word	0x30189
8010b548:	40fff9ff 	.word	0xfff9ff40
8010b54c:	030116ff 	.word	0xff160103
8010b550:	8a010300 	.word	0x3018a
8010b554:	40fff9ff 	.word	0xfff9ff40
8010b558:	050117ff 	.word	0xff170105
8010b55c:	8b010300 	.word	0x3018b
8010b560:	3ffff9ff 	.word	0xfff9ff3f
8010b564:	070118ff 	.word	0xff180107
8010b568:	8c010400 	syscall	0x1006
8010b56c:	3ffff8ff 	.word	0xfff8ff3f
8010b570:	09011aff 	.word	0xff1a0109
8010b574:	8d010400 	break	0x4,0x6
8010b578:	3efff8ff 	.word	0xfff8ff3e
8010b57c:	0c011bff 	.word	0xff1b010c
8010b580:	8e010400 	.word	0x4018e
8010b584:	3dfff8ff 	.word	0xfff8ff3d
8010b588:	0e011dff 	.word	0xff1d010e
8010b58c:	8f010400 	.word	0x4018f
8010b590:	3dfff8ff 	.word	0xfff8ff3d
8010b594:	11011eff 	.word	0xff1e0111
8010b598:	90010400 	.word	0x40190
8010b59c:	3cfff8ff 	.word	0xfff8ff3c
8010b5a0:	150120ff 	.word	0xff200115
8010b5a4:	92010400 	.word	0x40192
8010b5a8:	3cfff8ff 	.word	0xfff8ff3c
8010b5ac:	180122ff 	.word	0xff220118
8010b5b0:	94010500 	.word	0x50194
8010b5b4:	3bfff8ff 	.word	0xfff8ff3b
8010b5b8:	1c0125ff 	.word	0xff25011c
8010b5bc:	95010500 	.word	0x50195
8010b5c0:	3bfff8ff 	.word	0xfff8ff3b
8010b5c4:	200127ff 	.word	0xff270120
8010b5c8:	97010500 	.word	0x50197
8010b5cc:	3afff8ff 	.word	0xfff8ff3a
8010b5d0:	25012aff 	.word	0xff2a0125
8010b5d4:	99010500 	.word	0x50199
8010b5d8:	3afff7ff 	.word	0xfff7ff3a
8010b5dc:	2a012dff 	.word	0xff2d012a
8010b5e0:	9b010500 	.word	0x5019b
8010b5e4:	39fff7ff 	.word	0xfff7ff39
8010b5e8:	2f0130ff 	.word	0xff30012f
8010b5ec:	9e010500 	.word	0x5019e
8010b5f0:	39fff7ff 	.word	0xfff7ff39
8010b5f4:	340133ff 	.word	0xff330134
8010b5f8:	a0010500 	.word	0x501a0
8010b5fc:	38fff7ff 	.word	0xfff7ff38
8010b600:	3a0136ff 	.word	0xff36013a
8010b604:	a3010600 	.word	0x601a3
8010b608:	38fff7ff 	.word	0xfff7ff38
8010b60c:	40013aff 	.word	0xff3a0140
8010b610:	a6010600 	.word	0x601a6
8010b614:	37fff7ff 	.word	0xfff7ff37
8010b618:	47013eff 	.word	0xff3e0147
8010b61c:	a9010600 	.word	0x601a9
8010b620:	37fff7ff 	.word	0xfff7ff37
8010b624:	4e0142ff 	.word	0xff42014e
8010b628:	ac010600 	.word	0x601ac
8010b62c:	37fff7ff 	.word	0xfff7ff37
8010b630:	550147ff 	.word	0xff470155
8010b634:	af010600 	.word	0x601af
8010b638:	36fff7ff 	.word	0xfff7ff36
8010b63c:	5d014cff 	.word	0xff4c015d
8010b640:	b3010600 	.word	0x601b3
8010b644:	36fff6ff 	.word	0xfff6ff36
8010b648:	650151ff 	.word	0xff510165
8010b64c:	b7010600 	.word	0x601b7
8010b650:	35fff6ff 	.word	0xfff6ff35
8010b654:	6e0156ff 	.word	0xff56016e
8010b658:	bb010600 	.word	0x601bb
8010b65c:	35fff6ff 	.word	0xfff6ff35
8010b660:	77015cff 	.word	0xff5c0177
8010b664:	bf010700 	.word	0x701bf
8010b668:	35fff6ff 	.word	0xfff6ff35
8010b66c:	800162ff 	.word	0xff620180
8010b670:	c3010700 	sra	zero,a3,0x7
8010b674:	34fff6ff 	.word	0xfff6ff34
8010b678:	8a0168ff 	.word	0xff68018a
8010b67c:	c8010700 	.word	0x701c8
8010b680:	34fff6ff 	.word	0xfff6ff34
8010b684:	94016fff 	.word	0xff6f0194
8010b688:	cc010700 	syscall	0x1c07
8010b68c:	33fff6ff 	.word	0xfff6ff33
8010b690:	9f0176ff 	.word	0xff76019f
8010b694:	d1010700 	.word	0x701d1
8010b698:	33fff6ff 	.word	0xfff6ff33
8010b69c:	ab017eff 	.word	0xff7e01ab
8010b6a0:	d7010700 	.word	0x701d7
8010b6a4:	33fff6ff 	.word	0xfff6ff33
8010b6a8:	b60185ff 	.word	0xff8501b6
8010b6ac:	dc010700 	.word	0x701dc
8010b6b0:	33fff6ff 	.word	0xfff6ff33
8010b6b4:	c3018eff 	.word	0xff8e01c3
8010b6b8:	e2010700 	.word	0x701e2
8010b6bc:	32fff6ff 	.word	0xfff6ff32
8010b6c0:	cf0196ff 	.word	0xff9601cf
8010b6c4:	e8010700 	.word	0x701e8
8010b6c8:	32fff6ff 	.word	0xfff6ff32
8010b6cc:	dc019fff 	.word	0xff9f01dc
8010b6d0:	ee010700 	.word	0x701ee
8010b6d4:	32fff6ff 	.word	0xfff6ff32
8010b6d8:	e801a8ff 	.word	0xffa801e8
8010b6dc:	f3010700 	.word	0x701f3
8010b6e0:	31fff5ff 	.word	0xfff5ff31
8010b6e4:	f301b0ff 	.word	0xffb001f3
8010b6e8:	f8010700 	.word	0x701f8
8010b6ec:	31fff5ff 	.word	0xfff5ff31
8010b6f0:	fe01b8ff 	.word	0xffb801fe
8010b6f4:	fd010700 	.word	0x701fd
8010b6f8:	31fff5ff 	.word	0xfff5ff31
8010b6fc:	0802c0ff 	.word	0xffc00208
8010b700:	02020700 	srl	zero,a3,0x8
8010b704:	31fff5ff 	.word	0xfff5ff31
8010b708:	1202c7ff 	.word	0xffc70212
8010b70c:	07020800 	.word	0x80207
8010b710:	31fff5ff 	.word	0xfff5ff31
8010b714:	1a02ceff 	.word	0xffce021a
8010b718:	0b020800 	.word	0x8020b
8010b71c:	30fff5ff 	.word	0xfff5ff30
8010b720:	2302d5ff 	.word	0xffd50223
8010b724:	0f020800 	.word	0x8020f
8010b728:	30fff5ff 	.word	0xfff5ff30
8010b72c:	2a02dcff 	.word	0xffdc022a
8010b730:	12020800 	.word	0x80212
8010b734:	30fff5ff 	.word	0xfff5ff30
8010b738:	3202e2ff 	.word	0xffe20232
8010b73c:	16020800 	.word	0x80216
8010b740:	30fff5ff 	.word	0xfff5ff30
8010b744:	3802e8ff 	.word	0xffe80238
8010b748:	19020800 	.word	0x80219
8010b74c:	30fff5ff 	.word	0xfff5ff30
8010b750:	3e02eeff 	.word	0xffee023e
8010b754:	1c020800 	.word	0x8021c
8010b758:	30fff5ff 	.word	0xfff5ff30
8010b75c:	4402f4ff 	.word	0xfff40244
8010b760:	1f020800 	.word	0x8021f
8010b764:	2ffff5ff 	.word	0xfff5ff2f
8010b768:	4902f9ff 	.word	0xfff90249
8010b76c:	21020800 	.word	0x80221
8010b770:	2ffff5ff 	.word	0xfff5ff2f
8010b774:	4d02ffff 	.word	0xffff024d
8010b778:	23020800 	.word	0x80223
8010b77c:	2ffff5ff 	.word	0xfff5ff2f
8010b780:	51020300 	.word	0x30251
8010b784:	25020800 	.word	0x80225
8010b788:	2ffff5ff 	.word	0xfff5ff2f
8010b78c:	55020800 	.word	0x80255
8010b790:	27020800 	.word	0x80227
8010b794:	2ffff5ff 	.word	0xfff5ff2f
8010b798:	58020c00 	.word	0xc0258
8010b79c:	29020800 	.word	0x80229
8010b7a0:	2ffff5ff 	.word	0xfff5ff2f
8010b7a4:	5b021100 	.word	0x11025b
8010b7a8:	2a020800 	.word	0x8022a
8010b7ac:	2ffff5ff 	.word	0xfff5ff2f
8010b7b0:	5c021500 	.word	0x15025c
8010b7b4:	2b020800 	.word	0x8022b
8010b7b8:	2ffff5ff 	.word	0xfff5ff2f
8010b7bc:	5e021900 	.word	0x19025e
8010b7c0:	2c020800 	.word	0x8022c
8010b7c4:	2ffff5ff 	.word	0xfff5ff2f
8010b7c8:	5f021d00 	.word	0x1d025f
8010b7cc:	2d020800 	.word	0x8022d
8010b7d0:	2ffff5ff 	.word	0xfff5ff2f
8010b7d4:	5f022100 	.word	0x21025f
8010b7d8:	2d020800 	.word	0x8022d
8010b7dc:	2ffff5ff 	.word	0xfff5ff2f
8010b7e0:	5e022400 	.word	0x24025e
8010b7e4:	2d020800 	.word	0x8022d
8010b7e8:	2ffff5ff 	.word	0xfff5ff2f
8010b7ec:	5d022700 	.word	0x27025d
8010b7f0:	2d020800 	.word	0x8022d
8010b7f4:	2ffff5ff 	.word	0xfff5ff2f
8010b7f8:	5c022900 	.word	0x29025c
8010b7fc:	2d020800 	.word	0x8022d
8010b800:	2ffff5ff 	.word	0xfff5ff2f
8010b804:	5a022b00 	.word	0x2b025a
8010b808:	2c020800 	.word	0x8022c
8010b80c:	2ffff5ff 	.word	0xfff5ff2f
8010b810:	59022d00 	.word	0x2d0259
8010b814:	2c020800 	.word	0x8022c
8010b818:	2ffff5ff 	.word	0xfff5ff2f
8010b81c:	58022e00 	.word	0x2e0258
8010b820:	2b020800 	.word	0x8022b
8010b824:	2ffff5ff 	.word	0xfff5ff2f
8010b828:	56022f00 	.word	0x2f0256
8010b82c:	2b020800 	.word	0x8022b
8010b830:	2ffff5ff 	.word	0xfff5ff2f
8010b834:	55022f00 	.word	0x2f0255
8010b838:	2a020800 	.word	0x8022a
8010b83c:	2ffff5ff 	.word	0xfff5ff2f
8010b840:	55023000 	.word	0x300255
8010b844:	2a020800 	.word	0x8022a
8010b848:	2ffff5ff 	.word	0xfff5ff2f
8010b84c:	54023000 	.word	0x300254
8010b850:	2a020800 	.word	0x8022a
8010b854:	2ffff5ff 	.word	0xfff5ff2f
8010b858:	53023000 	.word	0x300253
8010b85c:	2a020800 	.word	0x8022a
8010b860:	2ffff5ff 	.word	0xfff5ff2f
8010b864:	53023100 	.word	0x310253
8010b868:	29020800 	.word	0x80229
8010b86c:	2ffff5ff 	.word	0xfff5ff2f
8010b870:	52023100 	.word	0x310252
8010b874:	29020800 	.word	0x80229
8010b878:	2ffff5ff 	.word	0xfff5ff2f
8010b87c:	52023100 	.word	0x310252
8010b880:	29020800 	.word	0x80229
8010b884:	2ffff5ff 	.word	0xfff5ff2f
8010b888:	52023100 	.word	0x310252
8010b88c:	29020800 	.word	0x80229
8010b890:	2ffff5ff 	.word	0xfff5ff2f
8010b894:	52023100 	.word	0x310252
8010b898:	29020800 	.word	0x80229
8010b89c:	2ffff5ff 	.word	0xfff5ff2f
8010b8a0:	52023100 	.word	0x310252
8010b8a4:	29020800 	.word	0x80229
8010b8a8:	2ffff5ff 	.word	0xfff5ff2f
8010b8ac:	52023100 	.word	0x310252
8010b8b0:	29020800 	.word	0x80229
8010b8b4:	2ffff5ff 	.word	0xfff5ff2f
8010b8b8:	52023100 	.word	0x310252
8010b8bc:	29020800 	.word	0x80229
8010b8c0:	2ffff5ff 	.word	0xfff5ff2f
8010b8c4:	52023100 	.word	0x310252
8010b8c8:	29020800 	.word	0x80229
8010b8cc:	2ffff5ff 	.word	0xfff5ff2f
8010b8d0:	52023100 	.word	0x310252
8010b8d4:	29020800 	.word	0x80229
8010b8d8:	2ffff5ff 	.word	0xfff5ff2f
8010b8dc:	52023100 	.word	0x310252
8010b8e0:	29020800 	.word	0x80229
8010b8e4:	2ffff5ff 	.word	0xfff5ff2f
8010b8e8:	52023100 	.word	0x310252
8010b8ec:	29020800 	.word	0x80229
8010b8f0:	2ffff5ff 	.word	0xfff5ff2f
8010b8f4:	52023100 	.word	0x310252
8010b8f8:	29020800 	.word	0x80229
8010b8fc:	2ffff5ff 	.word	0xfff5ff2f
8010b900:	52023100 	.word	0x310252
8010b904:	29020800 	.word	0x80229
8010b908:	2ffff5ff 	.word	0xfff5ff2f
8010b90c:	52023100 	.word	0x310252
8010b910:	29020800 	.word	0x80229
8010b914:	2ffff5ff 	.word	0xfff5ff2f
8010b918:	52023100 	.word	0x310252
8010b91c:	29020800 	.word	0x80229
8010b920:	2ffff5ff 	.word	0xfff5ff2f
8010b924:	52023100 	.word	0x310252
8010b928:	29020800 	.word	0x80229
8010b92c:	2ffff5ff 	.word	0xfff5ff2f
8010b930:	51023200 	.word	0x320251
8010b934:	29020800 	.word	0x80229
8010b938:	2ffff5ff 	.word	0xfff5ff2f
8010b93c:	4f023300 	.word	0x33024f
8010b940:	28020800 	.word	0x80228
8010b944:	2ffff5ff 	.word	0xfff5ff2f
8010b948:	4d023400 	break	0x34,0x9
8010b94c:	27020800 	.word	0x80227
8010b950:	2ffff5ff 	.word	0xfff5ff2f
8010b954:	49023500 	.word	0x350249
8010b958:	26020800 	.word	0x80226
8010b95c:	2ffff5ff 	.word	0xfff5ff2f
8010b960:	46023700 	.word	0x370246
8010b964:	25020800 	.word	0x80225
8010b968:	2ffff5ff 	.word	0xfff5ff2f
8010b96c:	41023800 	.word	0x380241
8010b970:	23020800 	.word	0x80223
8010b974:	2ffff5ff 	.word	0xfff5ff2f
8010b978:	3c023a00 	.word	0x3a023c
8010b97c:	21020800 	.word	0x80221
8010b980:	2ffff5ff 	.word	0xfff5ff2f
8010b984:	36023c00 	.word	0x3c0236
8010b988:	1f020800 	.word	0x8021f
8010b98c:	2ffff5ff 	.word	0xfff5ff2f
8010b990:	30023e00 	.word	0x3e0230
8010b994:	1d020800 	.word	0x8021d
8010b998:	2ffff5ff 	.word	0xfff5ff2f
8010b99c:	29024000 	.word	0x400229
8010b9a0:	1b020800 	.word	0x8021b
8010b9a4:	2ffff5ff 	.word	0xfff5ff2f
8010b9a8:	21024200 	.word	0x420221
8010b9ac:	18020800 	.word	0x80218
8010b9b0:	2ffff5ff 	.word	0xfff5ff2f
8010b9b4:	19024400 	.word	0x440219
8010b9b8:	16020800 	.word	0x80216
8010b9bc:	2ffff5ff 	.word	0xfff5ff2f
8010b9c0:	0f024600 	.word	0x46020f
8010b9c4:	13020800 	.word	0x80213
8010b9c8:	2ffff5ff 	.word	0xfff5ff2f
8010b9cc:	06024800 	.word	0x480206
8010b9d0:	10020800 	.word	0x80210
8010b9d4:	2ffff5ff 	.word	0xfff5ff2f
8010b9d8:	fb014a00 	.word	0x4a01fb
8010b9dc:	0d020800 	break	0x8,0x8
8010b9e0:	2ffff5ff 	.word	0xfff5ff2f
8010b9e4:	f0014c00 	.word	0x4c01f0
8010b9e8:	0a020800 	.word	0x8020a
8010b9ec:	2ffff5ff 	.word	0xfff5ff2f
8010b9f0:	e5014e00 	.word	0x4e01e5
8010b9f4:	06020800 	.word	0x80206
8010b9f8:	2ffff5ff 	.word	0xfff5ff2f
8010b9fc:	d9015000 	.word	0x5001d9
8010ba00:	03020800 	sra	zero,t0,0x8
8010ba04:	2ffff5ff 	.word	0xfff5ff2f
8010ba08:	cc015200 	syscall	0x14807
8010ba0c:	ff010800 	.word	0x801ff
8010ba10:	2ffff5ff 	.word	0xfff5ff2f
8010ba14:	bf015300 	.word	0x5301bf
8010ba18:	fc010800 	.word	0x801fc
8010ba1c:	2ffff5ff 	.word	0xfff5ff2f
8010ba20:	b1015500 	.word	0x5501b1
8010ba24:	f8010800 	.word	0x801f8
8010ba28:	2ffff5ff 	.word	0xfff5ff2f
8010ba2c:	a2015600 	.word	0x5601a2
8010ba30:	f4010800 	.word	0x801f4
8010ba34:	2ffff5ff 	.word	0xfff5ff2f
8010ba38:	93015800 	.word	0x580193
8010ba3c:	f1010800 	.word	0x801f1
8010ba40:	2ffff5ff 	.word	0xfff5ff2f
8010ba44:	84015900 	.word	0x590184
8010ba48:	ed010800 	.word	0x801ed
8010ba4c:	2ffff5ff 	.word	0xfff5ff2f
8010ba50:	74015a00 	.word	0x5a0174
8010ba54:	e9010800 	.word	0x801e9
8010ba58:	2ffff5ff 	.word	0xfff5ff2f
8010ba5c:	63015b00 	.word	0x5b0163
8010ba60:	e5010800 	.word	0x801e5
8010ba64:	2ffff5ff 	.word	0xfff5ff2f
8010ba68:	52015c00 	.word	0x5c0152
8010ba6c:	e1010800 	.word	0x801e1
8010ba70:	2ffff5ff 	.word	0xfff5ff2f
8010ba74:	41015c00 	.word	0x5c0141
8010ba78:	dd010800 	.word	0x801dd
8010ba7c:	2ffff5ff 	.word	0xfff5ff2f
8010ba80:	2f015d00 	.word	0x5d012f
8010ba84:	da010800 	.word	0x801da
8010ba88:	2ffff5ff 	.word	0xfff5ff2f
8010ba8c:	1d015d00 	.word	0x5d011d
8010ba90:	d6010800 	.word	0x801d6
8010ba94:	2ffff5ff 	.word	0xfff5ff2f
8010ba98:	0a015d00 	.word	0x5d010a
8010ba9c:	d2010800 	.word	0x801d2
8010baa0:	2ffff5ff 	.word	0xfff5ff2f
8010baa4:	f6005d00 	.word	0x5d00f6
8010baa8:	ce010800 	.word	0x801ce
8010baac:	2ffff5ff 	.word	0xfff5ff2f
8010bab0:	e3005d00 	.word	0x5d00e3
8010bab4:	cb010800 	.word	0x801cb
8010bab8:	2ffff5ff 	.word	0xfff5ff2f
8010babc:	cf005c00 	.word	0x5c00cf
8010bac0:	c7010800 	.word	0x801c7
8010bac4:	2ffff5ff 	.word	0xfff5ff2f
8010bac8:	ba005c00 	.word	0x5c00ba
8010bacc:	c4010800 	.word	0x801c4
8010bad0:	2ffff5ff 	.word	0xfff5ff2f
8010bad4:	a5005b00 	.word	0x5b00a5
8010bad8:	c0010800 	sll	zero,t0,0x7
8010badc:	2ffff5ff 	.word	0xfff5ff2f
8010bae0:	90005a00 	.word	0x5a0090
8010bae4:	bd010800 	.word	0x801bd
8010bae8:	2ffff5ff 	.word	0xfff5ff2f
8010baec:	7b005800 	.word	0x58007b
8010baf0:	ba010800 	.word	0x801ba
8010baf4:	2ffff5ff 	.word	0xfff5ff2f
8010baf8:	65005600 	.word	0x560065
8010bafc:	b7010800 	.word	0x801b7
8010bb00:	2ffff5ff 	.word	0xfff5ff2f
8010bb04:	4f005400 	.word	0x54004f
8010bb08:	b4010800 	.word	0x801b4
8010bb0c:	2ffff5ff 	.word	0xfff5ff2f
8010bb10:	38005200 	.word	0x520038
8010bb14:	b2010800 	.word	0x801b2
8010bb18:	2ffff5ff 	.word	0xfff5ff2f
8010bb1c:	21005000 	addu	zero,v0,s0
8010bb20:	af010800 	.word	0x801af
8010bb24:	2ffff5ff 	.word	0xfff5ff2f
8010bb28:	0a004d00 	.word	0x4d000a
8010bb2c:	ad010800 	.word	0x801ad
8010bb30:	2ffff5ff 	.word	0xfff5ff2f
8010bb34:	f4ff4a00 	.word	0x4afff4
8010bb38:	ab010800 	.word	0x801ab
8010bb3c:	2ffff5ff 	.word	0xfff5ff2f
8010bb40:	ddff4600 	.word	0x46ffdd
8010bb44:	a9010800 	.word	0x801a9
8010bb48:	2ffff5ff 	.word	0xfff5ff2f
8010bb4c:	c5ff4300 	.word	0x43ffc5
8010bb50:	a7010800 	.word	0x801a7
8010bb54:	2ffff5ff 	.word	0xfff5ff2f
8010bb58:	adff3f00 	.word	0x3fffad
8010bb5c:	a6010800 	.word	0x801a6
8010bb60:	2ffff5ff 	.word	0xfff5ff2f
8010bb64:	95ff3a00 	.word	0x3aff95
8010bb68:	a4010800 	.word	0x801a4
8010bb6c:	2ffff5ff 	.word	0xfff5ff2f
8010bb70:	7dff3600 	.word	0x36ff7d
8010bb74:	a3010800 	.word	0x801a3
8010bb78:	2ffff5ff 	.word	0xfff5ff2f
8010bb7c:	64ff3100 	.word	0x31ff64
8010bb80:	a3010800 	.word	0x801a3
8010bb84:	2ffff5ff 	.word	0xfff5ff2f
8010bb88:	4cff2c00 	syscall	0xb3fd
8010bb8c:	a2010800 	.word	0x801a2
8010bb90:	2ffff5ff 	.word	0xfff5ff2f
8010bb94:	33ff2600 	.word	0x26ff33
8010bb98:	a2010800 	.word	0x801a2
8010bb9c:	2ffff5ff 	.word	0xfff5ff2f
8010bba0:	1bff2000 	.word	0x20ff1b
8010bba4:	a2010800 	.word	0x801a2
8010bba8:	2ffff5ff 	.word	0xfff5ff2f
8010bbac:	02ff1a00 	srl	ra,k0,0x1c
8010bbb0:	a2010800 	.word	0x801a2
8010bbb4:	2ffff5ff 	.word	0xfff5ff2f
8010bbb8:	e9fe1300 	.word	0x13fee9
8010bbbc:	a3010800 	.word	0x801a3
8010bbc0:	2ffff5ff 	.word	0xfff5ff2f
8010bbc4:	d1fe0c00 	.word	0xcfed1
8010bbc8:	a4010800 	.word	0x801a4
8010bbcc:	2ffff5ff 	.word	0xfff5ff2f
8010bbd0:	b8fe0500 	.word	0x5feb8
8010bbd4:	a6010800 	.word	0x801a6
8010bbd8:	2ffff5ff 	.word	0xfff5ff2f
8010bbdc:	9ffefeff 	.word	0xfffefe9f
8010bbe0:	a7010800 	.word	0x801a7
8010bbe4:	2ffff5ff 	.word	0xfff5ff2f
8010bbe8:	87fef5ff 	.word	0xfff5fe87
8010bbec:	a9010800 	.word	0x801a9
8010bbf0:	2ffff5ff 	.word	0xfff5ff2f
8010bbf4:	6efeedff 	.word	0xffedfe6e
8010bbf8:	ac010800 	.word	0x801ac
8010bbfc:	2ffff5ff 	.word	0xfff5ff2f
8010bc00:	56fee3ff 	.word	0xffe3fe56
8010bc04:	af010800 	.word	0x801af
8010bc08:	2ffff5ff 	.word	0xfff5ff2f
8010bc0c:	3efedaff 	.word	0xffdafe3e
8010bc10:	b2010800 	.word	0x801b2
8010bc14:	2ffff5ff 	.word	0xfff5ff2f
8010bc18:	26fed0ff 	.word	0xffd0fe26
8010bc1c:	b5010800 	.word	0x801b5
8010bc20:	2ffff5ff 	.word	0xfff5ff2f
8010bc24:	0efec5ff 	.word	0xffc5fe0e
8010bc28:	b9010800 	.word	0x801b9
8010bc2c:	2ffff5ff 	.word	0xfff5ff2f
8010bc30:	f7fdbbff 	.word	0xffbbfdf7
8010bc34:	bd010800 	.word	0x801bd
8010bc38:	2ffff5ff 	.word	0xfff5ff2f
8010bc3c:	e0fdafff 	.word	0xffaffde0
8010bc40:	c1010800 	.word	0x801c1
8010bc44:	2ffff5ff 	.word	0xfff5ff2f
8010bc48:	c8fda4ff 	.word	0xffa4fdc8
8010bc4c:	c5010800 	.word	0x801c5
8010bc50:	2ffff5ff 	.word	0xfff5ff2f
8010bc54:	b2fd98ff 	.word	0xff98fdb2
8010bc58:	ca010800 	.word	0x801ca
8010bc5c:	2ffff5ff 	.word	0xfff5ff2f
8010bc60:	9bfd8cff 	.word	0xff8cfd9b
8010bc64:	cf010800 	.word	0x801cf
8010bc68:	2ffff5ff 	.word	0xfff5ff2f
8010bc6c:	85fd80ff 	.word	0xff80fd85
8010bc70:	d4010800 	.word	0x801d4
8010bc74:	2ffff5ff 	.word	0xfff5ff2f
8010bc78:	6ffd73ff 	.word	0xff73fd6f
8010bc7c:	d9010800 	.word	0x801d9
8010bc80:	2ffff5ff 	.word	0xfff5ff2f
8010bc84:	59fd67ff 	.word	0xff67fd59
8010bc88:	df010800 	.word	0x801df
8010bc8c:	2efff5ff 	.word	0xfff5ff2e
8010bc90:	44fd59ff 	.word	0xff59fd44
8010bc94:	e4010800 	.word	0x801e4
8010bc98:	2dfff4ff 	.word	0xfff4ff2d
8010bc9c:	2ffd4cff 	.word	0xff4cfd2f
8010bca0:	ea010800 	.word	0x801ea
8010bca4:	2dfff4ff 	.word	0xfff4ff2d
8010bca8:	1afd3fff 	.word	0xff3ffd1a
8010bcac:	f0010800 	.word	0x801f0
8010bcb0:	2bfff4ff 	.word	0xfff4ff2b
8010bcb4:	05fd31ff 	.word	0xff31fd05
8010bcb8:	f6010800 	.word	0x801f6
8010bcbc:	2afff3ff 	.word	0xfff3ff2a
8010bcc0:	f1fc23ff 	.word	0xff23fcf1
8010bcc4:	fc010800 	.word	0x801fc
8010bcc8:	28fff3ff 	.word	0xfff3ff28
8010bccc:	defc15ff 	.word	0xff15fcde
8010bcd0:	02020800 	srl	zero,t0,0x8
8010bcd4:	26fff2ff 	.word	0xfff2ff26
8010bcd8:	cafc06ff 	.word	0xff06fcca
8010bcdc:	09020600 	.word	0x60209
8010bce0:	25fff1ff 	.word	0xfff1ff25
8010bce4:	b7fcf8fe 	.word	0xfef8fcb7
8010bce8:	0f020400 	.word	0x4020f
8010bcec:	26fff0ff 	.word	0xfff0ff26
8010bcf0:	a5fce9fe 	.word	0xfee9fca5
8010bcf4:	16020100 	.word	0x10216
8010bcf8:	27ffefff 	.word	0xffefff27
8010bcfc:	93fcdbfe 	.word	0xfedbfc93
8010bd00:	1c020000 	.word	0x21c
8010bd04:	29ffeeff 	.word	0xffeeff29
8010bd08:	81fcccfe 	.word	0xfeccfc81
8010bd0c:	2302fdff 	.word	0xfffd0223
8010bd10:	2cffeeff 	.word	0xffeeff2c
8010bd14:	70fcbdfe 	.word	0xfebdfc70
8010bd18:	2902faff 	.word	0xfffa0229
8010bd1c:	2fffedff 	.word	0xffedff2f
8010bd20:	5ffcaefe 	.word	0xfeaefc5f
8010bd24:	3002f7ff 	.word	0xfff70230
8010bd28:	32ffedff 	.word	0xffedff32
8010bd2c:	4efc9ffe 	.word	0xfe9ffc4e
8010bd30:	3602f4ff 	.word	0xfff40236
8010bd34:	35ffecff 	.word	0xffecff35
8010bd38:	3efc90fe 	.word	0xfe90fc3e
8010bd3c:	3d02f1ff 	.word	0xfff1023d
8010bd40:	39ffecff 	.word	0xffecff39
8010bd44:	2ffc80fe 	.word	0xfe80fc2f
8010bd48:	4302edff 	.word	0xffed0243
8010bd4c:	3effebff 	.word	0xffebff3e
8010bd50:	1ffc71fe 	.word	0xfe71fc1f
8010bd54:	4a02eaff 	.word	0xffea024a
8010bd58:	42ffeaff 	.word	0xffeaff42
8010bd5c:	11fc62fe 	.word	0xfe62fc11
8010bd60:	5102e6ff 	.word	0xffe60251
8010bd64:	48ffe9ff 	.word	0xffe9ff48
8010bd68:	02fc53fe 	.word	0xfe53fc02
8010bd6c:	5702e2ff 	.word	0xffe20257
8010bd70:	4dffe8ff 	.word	0xffe8ff4d
8010bd74:	f5fb44fe 	.word	0xfe44fbf5
8010bd78:	5d02ddff 	.word	0xffdd025d
8010bd7c:	53ffe7ff 	.word	0xffe7ff53
8010bd80:	e7fb34fe 	.word	0xfe34fbe7
8010bd84:	6402d9ff 	.word	0xffd90264
8010bd88:	59ffe7ff 	.word	0xffe7ff59
8010bd8c:	dafb25fe 	.word	0xfe25fbda
8010bd90:	6a02d4ff 	.word	0xffd4026a
8010bd94:	60ffe6ff 	.word	0xffe6ff60
8010bd98:	cefb16fe 	.word	0xfe16fbce
8010bd9c:	7002cfff 	.word	0xffcf0270
8010bda0:	67ffe5ff 	.word	0xffe5ff67
8010bda4:	c2fb07fe 	.word	0xfe07fbc2
8010bda8:	7602caff 	.word	0xffca0276
8010bdac:	6effe4ff 	.word	0xffe4ff6e
8010bdb0:	b7fbf9fd 	.word	0xfdf9fbb7
8010bdb4:	7c02c4ff 	.word	0xffc4027c
8010bdb8:	76ffe3ff 	.word	0xffe3ff76
8010bdbc:	acfbeafd 	.word	0xfdeafbac
8010bdc0:	8202beff 	.word	0xffbe0282
8010bdc4:	7fffe2ff 	.word	0xffe2ff7f
8010bdc8:	a1fbdcfd 	.word	0xfddcfba1
8010bdcc:	8802b8ff 	.word	0xffb80288
8010bdd0:	87ffe1ff 	.word	0xffe1ff87
8010bdd4:	98fbcdfd 	.word	0xfdcdfb98
8010bdd8:	8e02b1ff 	.word	0xffb1028e
8010bddc:	91ffe0ff 	.word	0xffe0ff91
8010bde0:	8efbbffd 	.word	0xfdbffb8e
8010bde4:	9302aaff 	.word	0xffaa0293
8010bde8:	9affdfff 	.word	0xffdfff9a
8010bdec:	85fbb1fd 	.word	0xfdb1fb85
8010bdf0:	9902a3ff 	.word	0xffa30299
8010bdf4:	a4ffdeff 	.word	0xffdeffa4
8010bdf8:	7dfba3fd 	.word	0xfda3fb7d
8010bdfc:	9e029bff 	.word	0xff9b029e
8010be00:	afffddff 	.word	0xffddffaf
8010be04:	74fb96fd 	.word	0xfd96fb74
8010be08:	a30292ff 	.word	0xff9202a3
8010be0c:	b9ffddff 	.word	0xffddffb9
8010be10:	6dfb89fd 	.word	0xfd89fb6d
8010be14:	a80289ff 	.word	0xff8902a8
8010be18:	c4ffddff 	.word	0xffddffc4
8010be1c:	66fb7cfd 	.word	0xfd7cfb66
8010be20:	ad0280ff 	.word	0xff8002ad
8010be24:	d0ffdcff 	.word	0xffdcffd0
8010be28:	5ffb6ffd 	.word	0xfd6ffb5f
8010be2c:	b10276ff 	.word	0xff7602b1
8010be30:	dcffddff 	.word	0xffddffdc
8010be34:	59fb63fd 	.word	0xfd63fb59
8010be38:	b6026bff 	.word	0xff6b02b6
8010be3c:	e8ffddff 	.word	0xffddffe8
8010be40:	53fb57fd 	.word	0xfd57fb53
8010be44:	ba0260ff 	.word	0xff6002ba
8010be48:	f4ffdeff 	.word	0xffdefff4
8010be4c:	4efb4bfd 	.word	0xfd4bfb4e
8010be50:	be0254ff 	.word	0xff5402be
8010be54:	0000e0ff 	.word	0xffe00000
8010be58:	49fb40fd 	.word	0xfd40fb49
8010be5c:	c20247ff 	.word	0xff4702c2
8010be60:	0c00e2ff 	.word	0xffe2000c
8010be64:	44fb36fd 	.word	0xfd36fb44
8010be68:	c50239ff 	.word	0xff3902c5
8010be6c:	1900e5ff 	.word	0xffe50019
8010be70:	40fb2bfd 	.word	0xfd2bfb40
8010be74:	c9022aff 	.word	0xff2a02c9
8010be78:	2500e9ff 	.word	0xffe90025
8010be7c:	3cfb22fd 	.word	0xfd22fb3c
8010be80:	cc021aff 	.word	0xff1a02cc
8010be84:	3000edff 	.word	0xffed0030
8010be88:	38fb18fd 	.word	0xfd18fb38
8010be8c:	cf020aff 	.word	0xff0a02cf
8010be90:	3c00f3ff 	.word	0xfff3003c
8010be94:	35fb10fd 	.word	0xfd10fb35
8010be98:	d202f9fe 	.word	0xfef902d2
8010be9c:	4800f9ff 	.word	0xfff90048
8010bea0:	32fb08fd 	.word	0xfd08fb32
8010bea4:	d502e7fe 	.word	0xfee702d5
8010bea8:	5400ffff 	.word	0xffff0054
8010beac:	30fb00fd 	.word	0xfd00fb30
8010beb0:	d702d5fe 	.word	0xfed502d7
8010beb4:	61000500 	.word	0x50061
8010beb8:	2dfbf9fc 	.word	0xfcf9fb2d
8010bebc:	d902c2fe 	.word	0xfec202d9
8010bec0:	6d000d00 	.word	0xd006d
8010bec4:	2bfbf2fc 	.word	0xfcf2fb2b
8010bec8:	db02aefe 	.word	0xfeae02db
8010becc:	79001500 	.word	0x150079
8010bed0:	2afbecfc 	.word	0xfcecfb2a
8010bed4:	dd0299fe 	.word	0xfe9902dd
8010bed8:	85001e00 	.word	0x1e0085
8010bedc:	28fbe7fc 	.word	0xfce7fb28
8010bee0:	df0284fe 	.word	0xfe8402df
8010bee4:	92002700 	.word	0x270092
8010bee8:	27fbe3fc 	.word	0xfce3fb27
8010beec:	e0026efe 	.word	0xfe6e02e0
8010bef0:	9e003100 	.word	0x31009e
8010bef4:	26fbdffc 	.word	0xfcdffb26
8010bef8:	e10257fe 	.word	0xfe5702e1
8010befc:	ab003b00 	.word	0x3b00ab
8010bf00:	25fbdbfc 	.word	0xfcdbfb25
8010bf04:	e20240fe 	.word	0xfe4002e2
8010bf08:	b7004700 	.word	0x4700b7
8010bf0c:	24fbd9fc 	.word	0xfcd9fb24
8010bf10:	e30227fe 	.word	0xfe2702e3
8010bf14:	c3005300 	.word	0x5300c3
8010bf18:	24fbd7fc 	.word	0xfcd7fb24
8010bf1c:	e4020efe 	.word	0xfe0e02e4
8010bf20:	ce006000 	.word	0x6000ce
8010bf24:	23fbd6fc 	.word	0xfcd6fb23
8010bf28:	e402f5fd 	.word	0xfdf502e4
8010bf2c:	d9006e00 	.word	0x6e00d9
8010bf30:	23fbd6fc 	.word	0xfcd6fb23
8010bf34:	e402dafd 	.word	0xfdda02e4
8010bf38:	e3007f00 	.word	0x7f00e3
	...
8010bf48:	76fff1fe 	.word	0xfef1ff76
8010bf4c:	f50078ff 	.word	0xff7800f5
8010bf50:	37ff2500 	.word	0x25ff37
	...
8010bf60:	2e2dd8ee 	swc3	$24,11566(s6)
8010bf64:	412a152f 	sltiu	s5,t8,10817
8010bf68:	d1f2aa26 	addiu	t2,s5,-3375
8010bf6c:	3a30ebef 	swc3	$11,12346(ra)
8010bf70:	72221a2f 	sltiu	k0,t8,8818
8010bf74:	dff4332a 	slti	s3,s1,-2849
8010bf78:	3a30ebef 	swc3	$11,12346(ra)
8010bf7c:	72229230 	andi	s2,a0,0x2272
8010bf80:	e3f44e2a 	slti	t6,s2,-2845
8010bf84:	3a30ebef 	swc3	$11,12346(ra)
8010bf88:	7222522f 	sltiu	s2,k0,8818
8010bf8c:	e3f4382a 	slti	t8,s1,-2845
8010bf90:	ba2f4bf0 	.word	0xf04b2fba
8010bf94:	e222f72f 	sltiu	s7,ra,8930
8010bf98:	a1f4962a 	slti	s6,s4,-2911
8010bf9c:	3a30ebef 	swc3	$11,12346(ra)
8010bfa0:	7222522f 	sltiu	s2,k0,8818
8010bfa4:	e3f4382a 	slti	t8,s1,-2845
8010bfa8:	3a30ebef 	swc3	$11,12346(ra)
8010bfac:	72221a2f 	sltiu	k0,t8,8818
8010bfb0:	dff4332a 	slti	s3,s1,-2849
8010bfb4:	aa2fabf0 	.word	0xf0ab2faa
8010bfb8:	22241f30 	andi	ra,zero,0x2422
8010bfbc:	b1f4262b 	slti	a2,t9,-2895
8010bfc0:	e30c2cf9 	.word	0xf92c0ce3
8010bfc4:	2b089b06 	.word	0x69b082b
8010bfc8:	26fc3308 	j	0x80cff098
8010bfcc:	6a3043f7 	.word	0xf743306a
8010bfd0:	bc23ff2b 	slti	ra,ra,9148
8010bfd4:	bef18c2b 	slti	t4,gp,-3650
8010bfd8:	6a3043f7 	.word	0xf743306a
8010bfdc:	bc23fb2a 	slti	k1,s7,9148
8010bfe0:	92f8a92c 	sltiu	t1,a1,-1902
8010bfe4:	002be7f6 	.word	0xf6e72b00
8010bfe8:	f428762a 	slti	s6,s3,10484
8010bfec:	fcf80b2f 	sltiu	t3,t8,-1796
8010bff0:	a22c29f7 	.word	0xf7292ca2
8010bff4:	f02a5f27 	addiu	ra,k0,10992
8010bff8:	74f9ab2e 	sltiu	t3,s5,-1676
8010bffc:	2a2831f8 	.word	0xf831282a
8010c000:	5b2f7f23 	addi	ra,k1,12123
8010c004:	a3f9e332 	andi	v1,s7,0xf9a3
8010c008:	66198df9 	.word	0xf98d1966
8010c00c:	a5318f19 	.word	0x198f31a5
8010c010:	63fbb837 	ori	t8,sp,0xfb63
8010c014:	6e18c0f9 	.word	0xf9c0186e
8010c018:	4939c21b 	.word	0x1bc23949
8010c01c:	92fa8939 	xori	t1,t4,0xfa92
8010c020:	32106dfa 	.word	0xfa6d1032
8010c024:	52344215 	bne	t2,v0,0x80119170
8010c028:	0cfbb836 	ori	t8,s5,0xfb0c
8010c02c:	2112e4f6 	.word	0xf6e41221
8010c030:	98315b16 	bne	s2,k1,0x80118694
8010c034:	dcf89b34 	ori	k1,a0,0xf8dc
8010c038:	4618caf7 	.word	0xf7ca1846
8010c03c:	0330191b 	.word	0x1b193003
8010c040:	d1f97434 	ori	s4,v1,0xf9d1
8010c044:	6d205df8 	.word	0xf85d206d
8010c048:	2531571e 	.word	0x1e573125
8010c04c:	8cfab335 	ori	s3,t5,0xfa8c
8010c050:	e923a7f9 	.word	0xf9a723e9
8010c054:	0239431e 	.word	0x1e433902
8010c058:	93faea38 	xori	t2,a3,0xfa93
8010c05c:	931bd7f9 	.word	0xf9d71b93
8010c060:	f637bb15 	bne	t5,k1,0x8011a03c
8010c064:	9efa3b37 	ori	k1,t9,0xfa9e
8010c068:	ff000000 	.word	0xff
	...
8010c07c:	0102f65d 	.word	0x5df60201
8010c080:	c0e26411 	beq	t3,a0,0x80104b84
8010c084:	65000000 	.word	0x65
8010c088:	00000000 	nop
8010c08c:	90d51080 	lb	s0,-10864(zero)
8010c090:	01023668 	.word	0x68360201
8010c094:	00e36411 	beq	t3,a0,0x80104c98
8010c098:	65010000 	.word	0x165
8010c09c:	00000000 	nop
8010c0a0:	90d51080 	lb	s0,-10864(zero)
8010c0a4:	0102356e 	.word	0x6e350201
8010c0a8:	00e62c11 	beq	t1,t4,0x801058ac
8010c0ac:	65020000 	.word	0x265
8010c0b0:	00000000 	nop
8010c0b4:	90d51080 	lb	s0,-10864(zero)
8010c0b8:	01023672 	.word	0x72360201
8010c0bc:	00e92b11 	beq	t1,t3,0x801064c0
8010c0c0:	65030000 	.word	0x365
8010c0c4:	00000000 	nop
8010c0c8:	90d51080 	lb	s0,-10864(zero)
8010c0cc:	0102b565 	.word	0x65b50201
8010c0d0:	80ec140d 	jal	0x8453b200
8010c0d4:	65040000 	.word	0x465
8010c0d8:	00000000 	nop
8010c0dc:	90d51080 	lb	s0,-10864(zero)
8010c0e0:	01023565 	.word	0x65350201
8010c0e4:	80ec1218 	.word	0x1812ec80
8010c0e8:	65050000 	.word	0x565
8010c0ec:	00000000 	nop
8010c0f0:	90d51080 	lb	s0,-10864(zero)
8010c0f4:	0102d761 	.word	0x61d70201
8010c0f8:	61e5b623 	addi	s6,sp,-6815
8010c0fc:	65060000 	.word	0x665
8010c100:	00000000 	nop
8010c104:	90d51080 	lb	s0,-10864(zero)
8010c108:	01023665 	.word	0x65360201
8010c10c:	00e91414 	bne	zero,s4,0x80106510
8010c110:	65070000 	.word	0x765
8010c114:	00000000 	nop
8010c118:	90d51080 	lb	s0,-10864(zero)
8010c11c:	0309e320 	addi	v1,a3,2307
8010c120:	5cf48527 	addiu	a1,gp,-2980
8010c124:	6b000000 	.word	0x6b
8010c128:	00000000 	nop
8010c12c:	6cf51080 	lb	s0,-2708(zero)
8010c130:	03094d2e 	sltiu	t5,s2,2307
8010c134:	f4f22028 	slti	zero,at,-3340
8010c138:	68000000 	.word	0x68
8010c13c:	00000000 	nop
8010c140:	ecdf1080 	lb	s0,-8212(zero)
8010c144:	ff000000 	.word	0xff
	...
8010c158:	01030000 	.word	0x301
8010c15c:	00000000 	nop
8010c160:	10000000 	mfhi	zero
8010c164:	00000000 	nop
8010c168:	44171180 	lb	s1,5956(zero)
8010c16c:	01030000 	.word	0x301
8010c170:	00000000 	nop
8010c174:	64000000 	.word	0x64
8010c178:	00000000 	nop
8010c17c:	3cd21080 	lb	s0,-11716(zero)
8010c180:	03094d2e 	sltiu	t5,s2,2307
8010c184:	f4f22028 	slti	zero,at,-3340
8010c188:	68000000 	.word	0x68
8010c18c:	00000000 	nop
8010c190:	ecdf1080 	lb	s0,-8212(zero)
8010c194:	03096630 	andi	a2,v1,0x903
8010c198:	86f22028 	slti	zero,at,-3450
8010c19c:	66000000 	.word	0x66
8010c1a0:	00000000 	nop
8010c1a4:	f0d81080 	lb	s0,-10000(zero)
8010c1a8:	0309b630 	andi	s6,a1,0x903
8010c1ac:	17f34227 	addiu	v0,k0,-3305
8010c1b0:	67000000 	.word	0x67
8010c1b4:	00000000 	nop
8010c1b8:	68db1080 	lb	s0,-9368(zero)
8010c1bc:	00031d30 	andi	sp,zero,0x300
8010c1c0:	b4f2d626 	addiu	s6,s6,-3404
8010c1c4:	10070000 	.word	0x710
8010c1c8:	00000000 	nop
8010c1cc:	44171180 	lb	s1,5956(zero)
8010c1d0:	ff000000 	.word	0xff
	...
8010c1e4:	03094006 	bltz	s2,0x8010e5f4
8010c1e8:	24fc3408 	j	0x80d3f090
8010c1ec:	69000000 	.word	0x69
8010c1f0:	00000000 	nop
8010c1f4:	b8e81080 	lb	s0,-5960(zero)
8010c1f8:	0309d007 	bltzal	s8,0x8010e608
8010c1fc:	34fcb80b 	j	0x8ee3f0d0
8010c200:	6700b400 	.word	0xb40067
8010c204:	00000000 	nop
8010c208:	68db1080 	lb	s0,-9368(zero)
8010c20c:	02094006 	bltz	s2,0x8010e618
8010c210:	a4fc6009 	j	0x8583f290
8010c214:	1001a6ff 	.word	0xffa60110
8010c218:	00000000 	nop
8010c21c:	44171180 	lb	s1,5956(zero)
8010c220:	01030807 	.word	0x7080301
8010c224:	aefc9808 	j	0x8263f2b8
8010c228:	1003a6ff 	.word	0xffa60310
8010c22c:	00000000 	nop
8010c230:	44171180 	lb	s1,5956(zero)
8010c234:	00034006 	bltz	s2,0x8010ce38
8010c238:	78fb6009 	j	0x8583ede0
8010c23c:	10040000 	.word	0x410
8010c240:	00000000 	nop
8010c244:	44171180 	lb	s1,5956(zero)
8010c248:	ff000000 	.word	0xff
	...
8010c25c:	01030000 	.word	0x301
8010c260:	00000000 	nop
8010c264:	64000000 	.word	0x64
8010c268:	00000000 	nop
8010c26c:	3cd21080 	lb	s0,-11716(zero)
8010c270:	0309a52a 	slti	a1,s5,2307
8010c274:	94f8582d 	sltiu	t8,t2,-1900
8010c278:	66000000 	.word	0x66
8010c27c:	00000000 	nop
8010c280:	f0d81080 	lb	s0,-10000(zero)
8010c284:	0309162b 	slti	s6,t8,2307
8010c288:	00f9ec2c 	sltiu	t4,a3,-1792
8010c28c:	67000000 	.word	0x67
8010c290:	00000000 	nop
8010c294:	68db1080 	lb	s0,-9368(zero)
8010c298:	03094c2a 	slti	t4,s2,2307
8010c29c:	e7f81b2e 	sltiu	k1,s0,-1817
8010c2a0:	69000000 	.word	0x69
8010c2a4:	00000000 	nop
8010c2a8:	b8e81080 	lb	s0,-5960(zero)
8010c2ac:	0309d92b 	slti	t9,s8,2307
8010c2b0:	daf8ca2d 	sltiu	t2,t6,-1830
8010c2b4:	6a000000 	.word	0x6a
8010c2b8:	00000000 	nop
8010c2bc:	58fc1080 	lb	s0,-936(zero)
8010c2c0:	03095b2c 	sltiu	k1,v0,2307
8010c2c4:	d3f8b72c 	sltiu	s7,a1,-1837
8010c2c8:	6a000000 	.word	0x6a
8010c2cc:	00000000 	nop
8010c2d0:	48fa1080 	lb	s0,-1464(zero)
8010c2d4:	0309e72b 	slti	a3,ra,2307
8010c2d8:	2ef9a32b 	slti	v1,sp,-1746
8010c2dc:	6a000000 	.word	0x6a
8010c2e0:	00000000 	nop
8010c2e4:	b4fd1080 	lb	s0,-588(zero)
8010c2e8:	03093c28 	slti	gp,at,2307
8010c2ec:	bff83d2d 	sltiu	sp,t1,-1857
8010c2f0:	6a000000 	.word	0x6a
8010c2f4:	00000000 	nop
8010c2f8:	9c031180 	lb	s1,924(zero)
8010c2fc:	03090529 	slti	a1,t0,2307
8010c300:	29f96c2b 	slti	t4,k1,-1751
8010c304:	6a000000 	.word	0x6a
8010c308:	00000000 	nop
8010c30c:	10ff1080 	lb	s0,-240(zero)
8010c310:	03098729 	slti	a3,t4,2307
8010c314:	38f9d22b 	slti	s2,s8,-1736
8010c318:	6a000000 	.word	0x6a
8010c31c:	00000000 	nop
8010c320:	94001180 	lb	s1,148(zero)
8010c324:	03093c29 	slti	gp,t1,2307
8010c328:	45f9702c 	sltiu	s0,v1,-1723
8010c32c:	6a000000 	.word	0x6a
8010c330:	00000000 	nop
8010c334:	18021180 	lb	s1,536(zero)
8010c338:	0309911b 	.word	0x1b910903
8010c33c:	21fb0b3a 	xori	t3,s0,0xfb21
8010c340:	6a000000 	.word	0x6a
8010c344:	00000000 	nop
8010c348:	4cf31080 	lb	s0,-3252(zero)
8010c34c:	0203eb18 	.word	0x18eb0302
8010c350:	52fc9838 	xori	t8,a0,0xfc52
8010c354:	10020000 	.word	0x210
8010c358:	00000000 	nop
8010c35c:	44171180 	lb	s1,5956(zero)
8010c360:	ff000000 	.word	0xff
	...
8010c374:	01030000 	.word	0x301
8010c378:	00000000 	nop
8010c37c:	64000000 	.word	0x64
8010c380:	00000000 	nop
8010c384:	3cd21080 	lb	s0,-11716(zero)
8010c388:	0204eb18 	.word	0x18eb0402
8010c38c:	52fc9838 	xori	t8,a0,0xfc52
8010c390:	10020000 	.word	0x210
8010c394:	00000000 	nop
8010c398:	44171180 	lb	s1,5956(zero)
8010c39c:	03097e1b 	.word	0x1b7e0903
8010c3a0:	66fa3e3a 	xori	s8,s1,0xfa66
8010c3a4:	66000000 	.word	0x66
8010c3a8:	00000000 	nop
8010c3ac:	f0d81080 	lb	s0,-10000(zero)
8010c3b0:	03092019 	blez	t1,0x8010e7c0
8010c3b4:	65fb5a3a 	xori	k0,s2,0xfb65
8010c3b8:	6a000000 	.word	0x6a
8010c3bc:	00000000 	nop
8010c3c0:	4cf31080 	lb	s0,-3252(zero)
8010c3c4:	03093b1c 	.word	0x1c3b0903
8010c3c8:	f1fae838 	xori	t0,a3,0xfaf1
8010c3cc:	69000000 	.word	0x69
8010c3d0:	00000000 	nop
8010c3d4:	b8e81080 	lb	s0,-5960(zero)
8010c3d8:	0309cf19 	.word	0x19cf0903
8010c3dc:	11fb9938 	xori	t9,a0,0xfb11
8010c3e0:	67000000 	.word	0x67
8010c3e4:	00000000 	nop
8010c3e8:	68db1080 	lb	s0,-9368(zero)
8010c3ec:	0309c21b 	.word	0x1bc20903
8010c3f0:	dafa8939 	xori	t1,t4,0xfada
8010c3f4:	6800b400 	.word	0xb40068
8010c3f8:	00000000 	nop
8010c3fc:	ecdf1080 	lb	s0,-8212(zero)
8010c400:	0309891c 	.word	0x1c890903
8010c404:	d8fa333b 	xori	s3,t9,0xfad8
8010c408:	6b00b400 	.word	0xb4006b
8010c40c:	00000000 	nop
8010c410:	6cf51080 	lb	s0,-2708(zero)
8010c414:	03092f1d 	.word	0x1d2f0903
8010c418:	d1fa8038 	xori	zero,a0,0xfad1
8010c41c:	6a000000 	.word	0x6a
8010c420:	00000000 	nop
8010c424:	48fa1080 	lb	s0,-1464(zero)
8010c428:	03098b1c 	.word	0x1c8b0903
8010c42c:	bdfa3737 	ori	s7,t9,0xfabd
8010c430:	6a000000 	.word	0x6a
8010c434:	00000000 	nop
8010c438:	9c031180 	lb	s1,924(zero)
8010c43c:	03096a1b 	.word	0x1b6a0903
8010c440:	f3fad037 	ori	s0,s8,0xfaf3
8010c444:	6a000000 	.word	0x6a
8010c448:	00000000 	nop
8010c44c:	10ff1080 	lb	s0,-240(zero)
8010c450:	0309e51b 	.word	0x1be50903
8010c454:	0efb3536 	ori	s5,s1,0xfb0e
8010c458:	6a000000 	.word	0x6a
8010c45c:	00000000 	nop
8010c460:	94001180 	lb	s1,148(zero)
8010c464:	0309aa1b 	.word	0x1baa0903
8010c468:	1afb0d37 	ori	t5,t8,0xfb1a
8010c46c:	6a000000 	.word	0x6a
8010c470:	00000000 	nop
8010c474:	18021180 	lb	s1,536(zero)
8010c478:	ff000000 	.word	0xff
	...
8010c48c:	ff000000 	.word	0xff
	...
8010c49c:	ff000000 	.word	0xff
	...
8010c4ac:	28541180 	lb	s1,21544(zero)
8010c4b0:	38541180 	lb	s1,21560(zero)
8010c4b4:	1fdf7f3e 	.word	0x3e7fdf1f
8010c4b8:	00df2ec0 	lwc0	c0_epc,-8448(at)
8010c4bc:	1fa000a0 	sb	zero,-24545(zero)
8010c4c0:	646464e1 	swc0	c0_context,25700(t3)
8010c4c4:	6464641f 	.word	0x1f646464
8010c4c8:	808080e1 	swc0	c0_index,-32640(t4)
8010c4cc:	8080801f 	bgtz	gp,0x800ec6d0
8010c4d0:	83830000 	sra	s0,zero,0xe
8010c4d4:	00000000 	nop
8010c4d8:	01d93f3e 	.word	0x3e3fd901
8010c4dc:	6ed92fc0 	lwc0	c0_prid,-9874(at)
8010c4e0:	01fe6efe 	.word	0xfe6efe01
8010c4e4:	5a5a5a00 	.word	0x5a5a5a
8010c4e8:	5a5a5a00 	.word	0x5a5a5a
8010c4ec:	5a5a5a00 	.word	0x5a5a5a
8010c4f0:	5a5a5a00 	.word	0x5a5a5a
8010c4f4:	d52be9e9 	swc2	$9,11221(t7)
8010c4f8:	d52b1818 	.word	0x18182bd5
8010c4fc:	01d93f3e 	.word	0x3e3fd901
8010c500:	6ed92fc0 	lwc0	c0_prid,-9874(at)
8010c504:	01fe6efe 	.word	0xfe6efe01
8010c508:	5a5a5a00 	.word	0x5a5a5a
8010c50c:	5a5a5a00 	.word	0x5a5a5a
8010c510:	5a5a5a00 	.word	0x5a5a5a
8010c514:	5a5a5a00 	.word	0x5a5a5a
8010c518:	a25ee9e9 	swc2	$9,24226(t7)
8010c51c:	a25e1818 	.word	0x18185ea2
8010c520:	01d93f3e 	.word	0x3e3fd901
8010c524:	6ed92fc0 	lwc0	c0_prid,-9874(at)
8010c528:	01fe6efe 	.word	0xfe6efe01
8010c52c:	5a5a5a00 	.word	0x5a5a5a
8010c530:	5a5a5a00 	.word	0x5a5a5a
8010c534:	5a5a5a00 	.word	0x5a5a5a
8010c538:	5a5a5a00 	.word	0x5a5a5a
8010c53c:	bd43e9e9 	swc2	$9,17341(t7)
8010c540:	bd431818 	.word	0x181843bd
8010c544:	00673f34 	ori	ra,at,0x6700
8010c548:	00002ec0 	lwc0	c0_epc,0(at)
8010c54c:	1f671f00 	.word	0x1f671f
8010c550:	b4b4b400 	.word	0xb4b4b4
8010c554:	46464600 	.word	0x464646
8010c558:	b4b4b400 	.word	0xb4b4b4
8010c55c:	46464600 	.word	0x464646
8010c560:	f0f00098 	lwr	zero,-3856(zero)
8010c564:	10100098 	lwr	zero,4112(zero)
8010c568:	919f3f34 	ori	ra,at,0x9f91
8010c56c:	91682e40 	.word	0x402e6891
8010c570:	bf9fbf68 	.word	0x68bf9fbf
8010c574:	5f5f5f00 	.word	0x5f5f5f
8010c578:	5f5f5f00 	.word	0x5f5f5f
8010c57c:	5f5f5f00 	.word	0x5f5f5f
8010c580:	5f5f5f00 	.word	0x5f5f5f
8010c584:	0000fb32 	andi	k1,s7,0x0
8010c588:	d0d1fb32 	andi	k1,s7,0xd1d0
8010c58c:	bf9f3f34 	ori	ra,at,0x9fbf
8010c590:	bf682ec0 	lwc0	c0_epc,26815(at)
8010c594:	919f9168 	.word	0x68919f91
8010c598:	5f5f5f00 	.word	0x5f5f5f
8010c59c:	5f5f5f00 	.word	0x5f5f5f
8010c5a0:	5f5f5f00 	.word	0x5f5f5f
8010c5a4:	5f5f5f00 	.word	0x5f5f5f
8010c5a8:	3030fb32 	andi	k1,s7,0x3030
8010c5ac:	0000fb32 	andi	k1,s7,0x0
8010c5b0:	619f3f34 	ori	ra,at,0x9f61
8010c5b4:	61682e40 	.word	0x402e6861
8010c5b8:	8f9f8f68 	.word	0x688f9f8f
8010c5bc:	5f5f5f00 	.word	0x5f5f5f
8010c5c0:	5f5f5f00 	.word	0x5f5f5f
8010c5c4:	5f5f5f00 	.word	0x5f5f5f
8010c5c8:	5f5f5f00 	.word	0x5f5f5f
8010c5cc:	0000fb32 	andi	k1,s7,0x0
8010c5d0:	d0d1fb32 	andi	k1,s7,0xd1d0
8010c5d4:	8f9f3f34 	ori	ra,at,0x9f8f
8010c5d8:	8f682ec0 	lwc0	c0_epc,26767(at)
8010c5dc:	619f6168 	.word	0x68619f61
8010c5e0:	5f5f5f00 	.word	0x5f5f5f
8010c5e4:	5f5f5f00 	.word	0x5f5f5f
8010c5e8:	5f5f5f00 	.word	0x5f5f5f
8010c5ec:	5f5f5f00 	.word	0x5f5f5f
8010c5f0:	3030fb32 	andi	k1,s7,0x3030
8010c5f4:	0000fb32 	andi	k1,s7,0x0
8010c5f8:	319f3f34 	ori	ra,at,0x9f31
8010c5fc:	31682e40 	.word	0x402e6831
8010c600:	5f9f5f68 	.word	0x685f9f5f
8010c604:	5f5f5f00 	.word	0x5f5f5f
8010c608:	5f5f5f00 	.word	0x5f5f5f
8010c60c:	5f5f5f00 	.word	0x5f5f5f
8010c610:	5f5f5f00 	.word	0x5f5f5f
8010c614:	0000fb32 	andi	k1,s7,0x0
8010c618:	d0d1fb32 	andi	k1,s7,0xd1d0
8010c61c:	5f9f3f34 	ori	ra,at,0x9f5f
8010c620:	5f682ec0 	lwc0	c0_epc,26719(at)
8010c624:	319f3168 	.word	0x68319f31
8010c628:	5f5f5f00 	.word	0x5f5f5f
8010c62c:	5f5f5f00 	.word	0x5f5f5f
8010c630:	5f5f5f00 	.word	0x5f5f5f
8010c634:	5f5f5f00 	.word	0x5f5f5f
8010c638:	3030fb32 	andi	k1,s7,0x3030
8010c63c:	0000fb32 	andi	k1,s7,0x0
8010c640:	019f3f34 	ori	ra,at,0x9f01
8010c644:	01682e40 	.word	0x402e6801
8010c648:	2f9f2f68 	.word	0x682f9f2f
8010c64c:	5f5f5f00 	.word	0x5f5f5f
8010c650:	5f5f5f00 	.word	0x5f5f5f
8010c654:	5f5f5f00 	.word	0x5f5f5f
8010c658:	5f5f5f00 	.word	0x5f5f5f
8010c65c:	0000fb32 	andi	k1,s7,0x0
8010c660:	d0d1fb32 	andi	k1,s7,0xd1d0
8010c664:	2f9f3f34 	ori	ra,at,0x9f2f
8010c668:	2f682ec0 	lwc0	c0_epc,26671(at)
8010c66c:	019f0168 	.word	0x68019f01
8010c670:	5f5f5f00 	.word	0x5f5f5f
8010c674:	5f5f5f00 	.word	0x5f5f5f
8010c678:	5f5f5f00 	.word	0x5f5f5f
8010c67c:	5f5f5f00 	.word	0x5f5f5f
8010c680:	3030fb32 	andi	k1,s7,0x3030
8010c684:	0000fb32 	andi	k1,s7,0x0
8010c688:	c16f3f34 	ori	ra,at,0x6fc1
8010c68c:	c1382e40 	.word	0x402e38c1
8010c690:	ef6fef38 	xori	t7,a3,0x6fef
8010c694:	5f5f5f00 	.word	0x5f5f5f
8010c698:	5f5f5f00 	.word	0x5f5f5f
8010c69c:	5f5f5f00 	.word	0x5f5f5f
8010c6a0:	5f5f5f00 	.word	0x5f5f5f
8010c6a4:	0000fb32 	andi	k1,s7,0x0
8010c6a8:	d0d1fb32 	andi	k1,s7,0xd1d0
8010c6ac:	ef6f3f34 	ori	ra,at,0x6fef
8010c6b0:	ef382ec0 	lwc0	c0_epc,14575(at)
8010c6b4:	c16fc138 	xori	at,a2,0x6fc1
8010c6b8:	5f5f5f00 	.word	0x5f5f5f
8010c6bc:	5f5f5f00 	.word	0x5f5f5f
8010c6c0:	5f5f5f00 	.word	0x5f5f5f
8010c6c4:	5f5f5f00 	.word	0x5f5f5f
8010c6c8:	3030fb32 	andi	k1,s7,0x3030
8010c6cc:	0000fb32 	andi	k1,s7,0x0
8010c6d0:	c1373f34 	ori	ra,at,0x37c1
8010c6d4:	c1002e40 	.word	0x402e00c1
8010c6d8:	ef37ef00 	.word	0xef37ef
8010c6dc:	5f5f5f00 	.word	0x5f5f5f
8010c6e0:	5f5f5f00 	.word	0x5f5f5f
8010c6e4:	5f5f5f00 	.word	0x5f5f5f
8010c6e8:	5f5f5f00 	.word	0x5f5f5f
8010c6ec:	0000fb32 	andi	k1,s7,0x0
8010c6f0:	d0d1fb32 	andi	k1,s7,0xd1d0
8010c6f4:	ef373f34 	ori	ra,at,0x37ef
8010c6f8:	ef002ec0 	lwc0	c0_epc,239(at)
8010c6fc:	c137c100 	.word	0xc137c1
8010c700:	5f5f5f00 	.word	0x5f5f5f
8010c704:	5f5f5f00 	.word	0x5f5f5f
8010c708:	5f5f5f00 	.word	0x5f5f5f
8010c70c:	5f5f5f00 	.word	0x5f5f5f
8010c710:	3030fb32 	andi	k1,s7,0x3030
8010c714:	0000fb32 	andi	k1,s7,0x0
8010c718:	919f3f34 	ori	ra,at,0x9f91
8010c71c:	91682e40 	.word	0x402e6891
8010c720:	bf9fbf68 	.word	0x68bf9fbf
8010c724:	5f5f5f00 	.word	0x5f5f5f
8010c728:	5f5f5f00 	.word	0x5f5f5f
8010c72c:	5f5f5f00 	.word	0x5f5f5f
8010c730:	5f5f5f00 	.word	0x5f5f5f
8010c734:	000005ce 	lwc3	$5,0(s0)
8010c738:	303005ce 	lwc3	$5,12336(s0)
8010c73c:	bf9f3f34 	ori	ra,at,0x9fbf
8010c740:	bf682ec0 	lwc0	c0_epc,26815(at)
8010c744:	919f9168 	.word	0x68919f91
8010c748:	5f5f5f00 	.word	0x5f5f5f
8010c74c:	5f5f5f00 	.word	0x5f5f5f
8010c750:	5f5f5f00 	.word	0x5f5f5f
8010c754:	5f5f5f00 	.word	0x5f5f5f
8010c758:	d0d005ce 	lwc3	$5,-12080(s0)
8010c75c:	000005ce 	lwc3	$5,0(s0)
8010c760:	619f3f34 	ori	ra,at,0x9f61
8010c764:	61682e40 	.word	0x402e6861
8010c768:	8f9f8f68 	.word	0x688f9f8f
8010c76c:	5f5f5f00 	.word	0x5f5f5f
8010c770:	5f5f5f00 	.word	0x5f5f5f
8010c774:	5f5f5f00 	.word	0x5f5f5f
8010c778:	5f5f5f00 	.word	0x5f5f5f
8010c77c:	000005ce 	lwc3	$5,0(s0)
8010c780:	303005ce 	lwc3	$5,12336(s0)
8010c784:	8f9f3f34 	ori	ra,at,0x9f8f
8010c788:	8f682ec0 	lwc0	c0_epc,26767(at)
8010c78c:	619f6168 	.word	0x68619f61
8010c790:	5f5f5f00 	.word	0x5f5f5f
8010c794:	5f5f5f00 	.word	0x5f5f5f
8010c798:	5f5f5f00 	.word	0x5f5f5f
8010c79c:	5f5f5f00 	.word	0x5f5f5f
8010c7a0:	d0d005ce 	lwc3	$5,-12080(s0)
8010c7a4:	000005ce 	lwc3	$5,0(s0)
8010c7a8:	319f3f34 	ori	ra,at,0x9f31
8010c7ac:	31682e40 	.word	0x402e6831
8010c7b0:	5f9f5f68 	.word	0x685f9f5f
8010c7b4:	5f5f5f00 	.word	0x5f5f5f
8010c7b8:	5f5f5f00 	.word	0x5f5f5f
8010c7bc:	5f5f5f00 	.word	0x5f5f5f
8010c7c0:	5f5f5f00 	.word	0x5f5f5f
8010c7c4:	000005ce 	lwc3	$5,0(s0)
8010c7c8:	303005ce 	lwc3	$5,12336(s0)
8010c7cc:	5f9f3f34 	ori	ra,at,0x9f5f
8010c7d0:	5f682ec0 	lwc0	c0_epc,26719(at)
8010c7d4:	319f3168 	.word	0x68319f31
8010c7d8:	5f5f5f00 	.word	0x5f5f5f
8010c7dc:	5f5f5f00 	.word	0x5f5f5f
8010c7e0:	5f5f5f00 	.word	0x5f5f5f
8010c7e4:	5f5f5f00 	.word	0x5f5f5f
8010c7e8:	d0d005ce 	lwc3	$5,-12080(s0)
8010c7ec:	000005ce 	lwc3	$5,0(s0)
8010c7f0:	019f3f34 	ori	ra,at,0x9f01
8010c7f4:	01682e40 	.word	0x402e6801
8010c7f8:	2f9f2f68 	.word	0x682f9f2f
8010c7fc:	5f5f5f00 	.word	0x5f5f5f
8010c800:	5f5f5f00 	.word	0x5f5f5f
8010c804:	5f5f5f00 	.word	0x5f5f5f
8010c808:	5f5f5f00 	.word	0x5f5f5f
8010c80c:	000005ce 	lwc3	$5,0(s0)
8010c810:	303005ce 	lwc3	$5,12336(s0)
8010c814:	2f9f3f34 	ori	ra,at,0x9f2f
8010c818:	2f682ec0 	lwc0	c0_epc,26671(at)
8010c81c:	019f0168 	.word	0x68019f01
8010c820:	5f5f5f00 	.word	0x5f5f5f
8010c824:	5f5f5f00 	.word	0x5f5f5f
8010c828:	5f5f5f00 	.word	0x5f5f5f
8010c82c:	5f5f5f00 	.word	0x5f5f5f
8010c830:	d0d005ce 	lwc3	$5,-12080(s0)
8010c834:	000005ce 	lwc3	$5,0(s0)
8010c838:	c16f3f34 	ori	ra,at,0x6fc1
8010c83c:	c1382e40 	.word	0x402e38c1
8010c840:	ef6fef38 	xori	t7,a3,0x6fef
8010c844:	5f5f5f00 	.word	0x5f5f5f
8010c848:	5f5f5f00 	.word	0x5f5f5f
8010c84c:	5f5f5f00 	.word	0x5f5f5f
8010c850:	5f5f5f00 	.word	0x5f5f5f
8010c854:	000005ce 	lwc3	$5,0(s0)
8010c858:	303005ce 	lwc3	$5,12336(s0)
8010c85c:	ef6f3f34 	ori	ra,at,0x6fef
8010c860:	ef382ec0 	lwc0	c0_epc,14575(at)
8010c864:	c16fc138 	xori	at,a2,0x6fc1
8010c868:	5f5f5f00 	.word	0x5f5f5f
8010c86c:	5f5f5f00 	.word	0x5f5f5f
8010c870:	5f5f5f00 	.word	0x5f5f5f
8010c874:	5f5f5f00 	.word	0x5f5f5f
8010c878:	d0d005ce 	lwc3	$5,-12080(s0)
8010c87c:	000005ce 	lwc3	$5,0(s0)
8010c880:	c1373f34 	ori	ra,at,0x37c1
8010c884:	c1002e40 	.word	0x402e00c1
8010c888:	ef37ef00 	.word	0xef37ef
8010c88c:	5f5f5f00 	.word	0x5f5f5f
8010c890:	5f5f5f00 	.word	0x5f5f5f
8010c894:	5f5f5f00 	.word	0x5f5f5f
8010c898:	5f5f5f00 	.word	0x5f5f5f
8010c89c:	000005ce 	lwc3	$5,0(s0)
8010c8a0:	303005ce 	lwc3	$5,12336(s0)
8010c8a4:	ef373f34 	ori	ra,at,0x37ef
8010c8a8:	ef002ec0 	lwc0	c0_epc,239(at)
8010c8ac:	c137c100 	.word	0xc137c1
8010c8b0:	5f5f5f00 	.word	0x5f5f5f
8010c8b4:	5f5f5f00 	.word	0x5f5f5f
8010c8b8:	5f5f5f00 	.word	0x5f5f5f
8010c8bc:	5f5f5f00 	.word	0x5f5f5f
8010c8c0:	d0d005ce 	lwc3	$5,-12080(s0)
8010c8c4:	000005ce 	lwc3	$5,0(s0)
8010c8c8:	1c581180 	lb	s1,22556(zero)
8010c8cc:	d4571180 	lb	s1,22484(zero)
8010c8d0:	8c571180 	lb	s1,22412(zero)
8010c8d4:	44571180 	lb	s1,22340(zero)
8010c8d8:	fc561180 	lb	s1,22268(zero)
8010c8dc:	b4561180 	lb	s1,22196(zero)
8010c8e0:	6c561180 	lb	s1,22124(zero)
8010c8e4:	24561180 	lb	s1,22052(zero)
8010c8e8:	dc551180 	lb	s1,21980(zero)
8010c8ec:	94551180 	lb	s1,21908(zero)
8010c8f0:	4c551180 	lb	s1,21836(zero)
8010c8f4:	04551180 	lb	s1,21764(zero)
8010c8f8:	dd892b7d 	.word	0x7d2b89dd
	...
8010c904:	6ccf1080 	lb	s0,-12436(zero)
8010c908:	f4c71080 	lb	s0,-14348(zero)
8010c90c:	00000000 	nop
8010c910:	13000100 	.word	0x10013
8010c914:	00000000 	nop
8010c918:	0b000100 	.word	0x1000b
8010c91c:	07000000 	srav	zero,zero,zero
8010c920:	50000140 	.word	0x40010050
8010c924:	00000300 	sll	zero,v1,0x0
8010c928:	50000120 	addi	at,zero,80
8010c92c:	01000300 	.word	0x30001
8010c930:	50000120 	addi	at,zero,80
8010c934:	02000300 	srl	zero,v1,0x0
8010c938:	50000120 	addi	at,zero,80
8010c93c:	03000300 	sra	zero,v1,0x0
8010c940:	50000120 	addi	at,zero,80
8010c944:	04000300 	sllv	zero,v1,zero
8010c948:	50000120 	addi	at,zero,80
8010c94c:	05000300 	.word	0x30005
8010c950:	50000120 	addi	at,zero,80
8010c954:	06000300 	srlv	zero,v1,zero
8010c958:	50000120 	addi	at,zero,80
8010c95c:	07000300 	srav	zero,v1,zero
8010c960:	50000120 	addi	at,zero,80
8010c964:	08000300 	.word	0x30008
8010c968:	50000120 	addi	at,zero,80
8010c96c:	09000300 	.word	0x30009
8010c970:	50000120 	addi	at,zero,80
8010c974:	0a000300 	.word	0x3000a
8010c978:	05001e00 	.word	0x1e0005
8010c97c:	00000000 	nop
8010c980:	50000120 	addi	at,zero,80
8010c984:	0b000300 	.word	0x3000b
8010c988:	05002d00 	.word	0x2d0005
8010c98c:	00000000 	nop
8010c990:	50000120 	addi	at,zero,80
8010c994:	0c000300 	syscall	0xc00
8010c998:	50000120 	addi	at,zero,80
8010c99c:	0d000300 	break	0x3
8010c9a0:	05003c00 	.word	0x3c0005
8010c9a4:	00000000 	nop
8010c9a8:	50000120 	addi	at,zero,80
8010c9ac:	0e000300 	.word	0x3000e
8010c9b0:	50000120 	addi	at,zero,80
8010c9b4:	0f000300 	.word	0x3000f
8010c9b8:	50000120 	addi	at,zero,80
8010c9bc:	10000300 	.word	0x30010
8010c9c0:	50000120 	addi	at,zero,80
8010c9c4:	11000300 	.word	0x30011
8010c9c8:	50000120 	addi	at,zero,80
8010c9cc:	12000300 	.word	0x30012
8010c9d0:	05003c00 	.word	0x3c0005
8010c9d4:	00000000 	nop
8010c9d8:	50000120 	addi	at,zero,80
8010c9dc:	13000300 	.word	0x30013
8010c9e0:	05003c00 	.word	0x3c0005
8010c9e4:	00000000 	nop
8010c9e8:	50000120 	addi	at,zero,80
8010c9ec:	14000300 	.word	0x30014
8010c9f0:	05007800 	.word	0x780005
8010c9f4:	00000000 	nop
8010c9f8:	50000120 	addi	at,zero,80
8010c9fc:	15000300 	.word	0x30015
8010ca00:	50000120 	addi	at,zero,80
8010ca04:	16000300 	.word	0x30016
8010ca08:	50000120 	addi	at,zero,80
8010ca0c:	17000300 	.word	0x30017
8010ca10:	05003b00 	.word	0x3b0005
8010ca14:	00000000 	nop
8010ca18:	3e000100 	.word	0x1003e
8010ca1c:	60d41080 	lb	s0,-11168(zero)
8010ca20:	05003200 	.word	0x320005
8010ca24:	00000000 	nop
8010ca28:	3e000100 	.word	0x1003e
8010ca2c:	74d41080 	lb	s0,-11148(zero)
8010ca30:	05003c00 	.word	0x3c0005
8010ca34:	00000000 	nop
8010ca38:	22000280 	lb	v0,34(zero)
8010ca3c:	00000000 	nop
8010ca40:	05005a00 	.word	0x5a0005
8010ca44:	00000000 	nop
8010ca48:	3e000100 	.word	0x1003e
8010ca4c:	74d41080 	lb	s0,-11148(zero)
8010ca50:	05803c00 	.word	0x3c8005
8010ca54:	00000000 	nop
8010ca58:	06000000 	srlv	zero,zero,zero
8010ca5c:	a1000100 	.word	0x100a1
8010ca60:	05007800 	.word	0x780005
8010ca64:	00000000 	nop
8010ca68:	50000300 	.word	0x30050
8010ca6c:	00000300 	sll	zero,v1,0x0
8010ca70:	06800000 	srlv	s0,zero,zero
8010ca74:	37000100 	.word	0x10037
8010ca78:	06000000 	srlv	zero,zero,zero
8010ca7c:	37000100 	.word	0x10037
8010ca80:	05007800 	.word	0x780005
8010ca84:	00000000 	nop
8010ca88:	50000400 	.word	0x40050
8010ca8c:	00000300 	sll	zero,v1,0x0
8010ca90:	05003c00 	.word	0x3c0005
8010ca94:	00000000 	nop
8010ca98:	50000400 	.word	0x40050
8010ca9c:	01000300 	.word	0x30001
8010caa0:	05002000 	.word	0x200005
8010caa4:	00000000 	nop
8010caa8:	50000400 	.word	0x40050
8010caac:	02000300 	srl	zero,v1,0x0
8010cab0:	05005000 	.word	0x500005
8010cab4:	00000000 	nop
8010cab8:	0c800000 	syscall	0x200
8010cabc:	a3000400 	.word	0x400a3
8010cac0:	1e100000 	.word	0x101e
8010cac4:	03000800 	sra	zero,t0,0x0
8010cac8:	06100000 	srlv	v0,zero,zero
8010cacc:	a3000100 	.word	0x100a3
8010cad0:	1e100000 	.word	0x101e
8010cad4:	00000800 	sll	zero,t0,0x0
8010cad8:	06100000 	srlv	v0,zero,zero
8010cadc:	a3000200 	.word	0x200a3
8010cae0:	1f100000 	.word	0x101f
8010cae4:	80008003 	.word	0x3800080
8010cae8:	06100000 	srlv	v0,zero,zero
8010caec:	a2000300 	.word	0x300a2
8010caf0:	1e100000 	.word	0x101e
8010caf4:	01000800 	.word	0x80001
8010caf8:	06100000 	srlv	v0,zero,zero
8010cafc:	a3000300 	.word	0x300a3
8010cb00:	1e100000 	.word	0x101e
8010cb04:	00000800 	sll	zero,t0,0x0
8010cb08:	06100000 	srlv	v0,zero,zero
8010cb0c:	a2000500 	.word	0x500a2
8010cb10:	1e100000 	.word	0x101e
8010cb14:	04000800 	sllv	zero,t0,zero
8010cb18:	0510a000 	.word	0xa01005
8010cb1c:	00000000 	nop
8010cb20:	1e100000 	.word	0x101e
8010cb24:	01000800 	.word	0x80001
8010cb28:	1f100100 	.word	0x1101f
8010cb2c:	80000000 	sll	zero,zero,0x2
8010cb30:	06100000 	srlv	v0,zero,zero
8010cb34:	a3000500 	.word	0x500a3
8010cb38:	1e100000 	.word	0x101e
8010cb3c:	00000800 	sll	zero,t0,0x0
8010cb40:	06100000 	srlv	v0,zero,zero
8010cb44:	a3000600 	.word	0x600a3
8010cb48:	1f100000 	.word	0x101f
8010cb4c:	80008005 	bltz	t4,0x8010cd50
8010cb50:	06100000 	srlv	v0,zero,zero
8010cb54:	a2000700 	.word	0x700a2
8010cb58:	1e100000 	.word	0x101e
8010cb5c:	01000800 	.word	0x80001
8010cb60:	0510fa00 	.word	0xfa1005
8010cb64:	00000000 	nop
8010cb68:	1f100000 	.word	0x101f
8010cb6c:	80008003 	.word	0x3800080
8010cb70:	06100000 	srlv	v0,zero,zero
8010cb74:	a3000700 	.word	0x700a3
8010cb78:	1e100000 	.word	0x101e
8010cb7c:	00000800 	sll	zero,t0,0x0
8010cb80:	06100000 	srlv	v0,zero,zero
8010cb84:	a3000800 	.word	0x800a3
8010cb88:	1f100100 	.word	0x1101f
8010cb8c:	80000000 	sll	zero,zero,0x2
8010cb90:	06100000 	srlv	v0,zero,zero
8010cb94:	a2000900 	.word	0x900a2
8010cb98:	1e100000 	.word	0x101e
8010cb9c:	01000800 	.word	0x80001
8010cba0:	06100000 	srlv	v0,zero,zero
8010cba4:	a3000b00 	.word	0xb00a3
8010cba8:	1e100000 	.word	0x101e
8010cbac:	02000400 	srl	zero,a0,0x0
8010cbb0:	06100000 	srlv	v0,zero,zero
8010cbb4:	a3000c00 	.word	0xc00a3
8010cbb8:	1e100000 	.word	0x101e
8010cbbc:	05000800 	.word	0x80005
8010cbc0:	06100000 	srlv	v0,zero,zero
8010cbc4:	a2000d00 	.word	0xd00a2
8010cbc8:	1e100000 	.word	0x101e
8010cbcc:	00000800 	sll	zero,t0,0x0
8010cbd0:	24303430 	andi	s4,at,0x3024
8010cbd4:	b8f2a627 	addiu	a2,sp,-3400
8010cbd8:	000a0200 	sll	at,v0,0x8
8010cbdc:	00000000 	nop
8010cbe0:	1f100200 	.word	0x2101f
8010cbe4:	80008000 	.word	0x800080
8010cbe8:	05101e00 	.word	0x1e1005
8010cbec:	00000000 	nop
8010cbf0:	1e100000 	.word	0x101e
8010cbf4:	03000800 	sra	zero,t0,0x0
8010cbf8:	05103c00 	.word	0x3c1005
8010cbfc:	00000000 	nop
8010cc00:	1e100000 	.word	0x101e
8010cc04:	00000800 	sll	zero,t0,0x0
8010cc08:	06100000 	srlv	v0,zero,zero
8010cc0c:	a2000f00 	.word	0xf00a2
8010cc10:	24306630 	andi	a2,v1,0x3024
8010cc14:	86f22028 	slti	zero,at,-3450
8010cc18:	000a0200 	sll	at,v0,0x8
8010cc1c:	00000000 	nop
8010cc20:	1f100000 	.word	0x101f
8010cc24:	80008005 	bltz	t4,0x8010ce28
8010cc28:	06100000 	srlv	v0,zero,zero
8010cc2c:	a2001100 	.word	0x1100a2
8010cc30:	1e100000 	.word	0x101e
8010cc34:	04000800 	sllv	zero,t0,zero
8010cc38:	06100000 	srlv	v0,zero,zero
8010cc3c:	a3001200 	.word	0x1200a3
8010cc40:	1e100000 	.word	0x101e
8010cc44:	00000800 	sll	zero,t0,0x0
8010cc48:	06100000 	srlv	v0,zero,zero
8010cc4c:	a2001400 	.word	0x1400a2
8010cc50:	1f100100 	.word	0x1101f
8010cc54:	80000000 	sll	zero,zero,0x2
8010cc58:	1e100000 	.word	0x101e
8010cc5c:	01000800 	.word	0x80001
8010cc60:	06100000 	srlv	v0,zero,zero
8010cc64:	a3001400 	.word	0x1400a3
8010cc68:	1e100000 	.word	0x101e
8010cc6c:	00000800 	sll	zero,t0,0x0
8010cc70:	06100000 	srlv	v0,zero,zero
8010cc74:	a2001700 	.word	0x1700a2
8010cc78:	1e100000 	.word	0x101e
8010cc7c:	01000800 	.word	0x80001
8010cc80:	06100000 	srlv	v0,zero,zero
8010cc84:	a3001700 	.word	0x1700a3
8010cc88:	1e800000 	.word	0x801e
8010cc8c:	00000800 	sll	zero,t0,0x0
8010cc90:	06100000 	srlv	v0,zero,zero
8010cc94:	a2000100 	.word	0x100a2
8010cc98:	05101e00 	.word	0x1e1005
8010cc9c:	00000000 	nop
8010cca0:	3e100100 	.word	0x1103e
8010cca4:	44db1080 	lb	s0,-9404(zero)
8010cca8:	1f100000 	.word	0x101f
8010ccac:	4000400a 	j	0x89000100
8010ccb0:	06100000 	srlv	v0,zero,zero
8010ccb4:	a3000100 	.word	0x100a3
8010ccb8:	05100a00 	.word	0xa1005
8010ccbc:	00000000 	nop
8010ccc0:	2430a028 	slti	zero,a1,12324
8010ccc4:	68f7f42e 	sltiu	s4,s7,-2200
8010ccc8:	00180200 	sll	v1,v0,0x0
8010cccc:	00000000 	nop
8010ccd0:	24308025 	addiu	zero,t4,12324
8010ccd4:	ccf7ce31 	andi	t6,t6,0xf7cc
8010ccd8:	00180200 	sll	v1,v0,0x0
8010ccdc:	00000000 	nop
8010cce0:	24a08020 	addi	zero,a0,-24540
8010cce4:	20f72436 	ori	a0,s1,0xf720
8010cce8:	00180200 	sll	v1,v0,0x0
8010ccec:	00000000 	nop
8010ccf0:	06100000 	srlv	v0,zero,zero
8010ccf4:	a3000300 	.word	0x300a3
8010ccf8:	1e800000 	.word	0x801e
8010ccfc:	06000800 	srlv	zero,t0,zero
	...
8010cd08:	5c5a1180 	lb	s1,23132(zero)
8010cd0c:	00000000 	nop
8010cd10:	2c5c1180 	lb	s1,23596(zero)
8010cd14:	8c5c1180 	lb	s1,23692(zero)
8010cd18:	00000000 	nop
8010cd1c:	80050000 	sll	zero,zero,0x16
8010cd20:	80058b06 	.word	0x68b0580
8010cd24:	1e100000 	.word	0x101e
8010cd28:	0a000800 	.word	0x8000a
8010cd2c:	05101e00 	.word	0x1e1005
8010cd30:	00000000 	nop
8010cd34:	1e100000 	.word	0x101e
8010cd38:	09000800 	.word	0x80009
8010cd3c:	06100000 	srlv	v0,zero,zero
8010cd40:	a3000100 	.word	0x100a3
8010cd44:	1c100100 	.word	0x1101c
8010cd48:	25000f00 	or	zero,zero,t7
8010cd4c:	1c100400 	.word	0x4101c
8010cd50:	25001000 	or	zero,zero,s0
8010cd54:	1c100700 	.word	0x7101c
8010cd58:	25001100 	or	zero,zero,s1
8010cd5c:	1e100000 	.word	0x101e
8010cd60:	08000800 	.word	0x80008
8010cd64:	06100000 	srlv	v0,zero,zero
8010cd68:	a3000300 	.word	0x300a3
8010cd6c:	1c100100 	.word	0x1101c
8010cd70:	25000100 	or	zero,zero,at
8010cd74:	1c100400 	.word	0x4101c
8010cd78:	25000400 	or	zero,zero,a0
8010cd7c:	1c100700 	.word	0x7101c
8010cd80:	25000700 	or	zero,zero,a3
8010cd84:	1e100000 	.word	0x101e
8010cd88:	09000800 	.word	0x80009
8010cd8c:	1f100000 	.word	0x101f
8010cd90:	8000000b 	j	0x8c000200
8010cd94:	06100000 	srlv	v0,zero,zero
8010cd98:	a2000400 	.word	0x400a2
8010cd9c:	1e100000 	.word	0x101e
8010cda0:	0a000800 	.word	0x8000a
8010cda4:	06100000 	srlv	v0,zero,zero
8010cda8:	a3000400 	.word	0x400a3
8010cdac:	1e100000 	.word	0x101e
8010cdb0:	09000800 	.word	0x80009
8010cdb4:	06100000 	srlv	v0,zero,zero
8010cdb8:	a3000700 	.word	0x700a3
8010cdbc:	1d10ffff 	.word	0xffff101d
8010cdc0:	00000000 	nop
8010cdc4:	1e100000 	.word	0x101e
8010cdc8:	02000000 	srl	zero,zero,0x0
8010cdcc:	06100000 	srlv	v0,zero,zero
8010cdd0:	a2000800 	.word	0x800a2
8010cdd4:	1e100000 	.word	0x101e
8010cdd8:	e1000400 	.word	0x400e1
8010cddc:	05102300 	.word	0x231005
8010cde0:	00000000 	nop
8010cde4:	1e100000 	.word	0x101e
8010cde8:	02000800 	srl	zero,t0,0x0
8010cdec:	06100000 	srlv	v0,zero,zero
8010cdf0:	a2000d00 	.word	0xd00a2
8010cdf4:	1e100200 	.word	0x2101e
8010cdf8:	b5000200 	.word	0x200b5
8010cdfc:	2e100300 	.word	0x3102e
8010ce00:	00000000 	nop
8010ce04:	1e100200 	.word	0x2101e
8010ce08:	02000200 	srl	zero,v0,0x0
8010ce0c:	1d100e00 	.word	0xe101d
8010ce10:	38a71180 	lb	s1,-22728(zero)
8010ce14:	1e100000 	.word	0x101e
8010ce18:	09000000 	jalr	zero,zero
8010ce1c:	05100f00 	.word	0xf1005
8010ce20:	00000000 	nop
8010ce24:	1f100200 	.word	0x2101f
8010ce28:	80008000 	.word	0x800080
8010ce2c:	06100000 	srlv	v0,zero,zero
8010ce30:	a3000f00 	.word	0xf00a3
8010ce34:	1e100200 	.word	0x2101e
8010ce38:	0d000400 	break	0x4
8010ce3c:	2e100300 	.word	0x3102e
8010ce40:	00000000 	nop
8010ce44:	1e100000 	.word	0x101e
8010ce48:	09000800 	.word	0x80009
8010ce4c:	1f100100 	.word	0x1101f
8010ce50:	80000000 	sll	zero,zero,0x2
8010ce54:	06100000 	srlv	v0,zero,zero
8010ce58:	a2001000 	.word	0x1000a2
8010ce5c:	1e100000 	.word	0x101e
8010ce60:	0a000800 	.word	0x8000a
8010ce64:	06100000 	srlv	v0,zero,zero
8010ce68:	a3001000 	.word	0x1000a3
8010ce6c:	1e100000 	.word	0x101e
8010ce70:	09000800 	.word	0x80009
8010ce74:	06100000 	srlv	v0,zero,zero
8010ce78:	a2001200 	.word	0x1200a2
8010ce7c:	1e100000 	.word	0x101e
8010ce80:	0a000800 	.word	0x8000a
8010ce84:	06100000 	srlv	v0,zero,zero
8010ce88:	a3001200 	.word	0x1200a3
8010ce8c:	1e100000 	.word	0x101e
8010ce90:	09000800 	.word	0x80009
8010ce94:	06100000 	srlv	v0,zero,zero
8010ce98:	a2001300 	.word	0x1300a2
8010ce9c:	1e100000 	.word	0x101e
8010cea0:	0a000800 	.word	0x8000a
8010cea4:	06100000 	srlv	v0,zero,zero
8010cea8:	a3001300 	.word	0x1300a3
8010ceac:	1e100000 	.word	0x101e
8010ceb0:	09000800 	.word	0x80009
8010ceb4:	06100000 	srlv	v0,zero,zero
8010ceb8:	a2001600 	.word	0x1600a2
8010cebc:	1e100000 	.word	0x101e
8010cec0:	0a000800 	.word	0x8000a
8010cec4:	06100000 	srlv	v0,zero,zero
8010cec8:	a3001600 	.word	0x1600a3
8010cecc:	1e100000 	.word	0x101e
8010ced0:	09000800 	.word	0x80009
8010ced4:	06100000 	srlv	v0,zero,zero
8010ced8:	a3001800 	.word	0x1800a3
8010cedc:	05102d00 	.word	0x2d1005
8010cee0:	00000000 	nop
8010cee4:	1e100000 	.word	0x101e
8010cee8:	0d000800 	break	0x8
8010ceec:	3e800000 	.word	0x803e
8010cef0:	c4df1080 	lb	s0,-8252(zero)
8010cef4:	05101e00 	.word	0x1e1005
8010cef8:	00000000 	nop
8010cefc:	1e100000 	.word	0x101e
8010cf00:	0c000800 	syscall	0x2000
8010cf04:	2430d007 	bltzal	s8,0x80118f98
8010cf08:	34fc9808 	j	0x8263f0d0
8010cf0c:	00180200 	sll	v1,v0,0x0
8010cf10:	80000000 	sll	zero,zero,0x2
8010cf14:	1e100000 	.word	0x101e
8010cf18:	09000800 	.word	0x80009
8010cf1c:	1f100000 	.word	0x101f
8010cf20:	80000008 	j	0x80000200
8010cf24:	0c800000 	syscall	0x200
8010cf28:	37000100 	.word	0x10037
8010cf2c:	06100000 	srlv	v0,zero,zero
8010cf30:	a1000100 	.word	0x100a1
8010cf34:	1c100700 	.word	0x7101c
8010cf38:	25001100 	or	zero,zero,s1
8010cf3c:	1e100000 	.word	0x101e
8010cf40:	0e000800 	.word	0x8000e
8010cf44:	05101e00 	.word	0x1e1005
8010cf48:	00000000 	nop
8010cf4c:	1f100000 	.word	0x101f
8010cf50:	8000000b 	j	0x8c000200
8010cf54:	05101e00 	.word	0x1e1005
8010cf58:	00000000 	nop
8010cf5c:	1f100000 	.word	0x101f
8010cf60:	80000008 	j	0x80000200
8010cf64:	05101e00 	.word	0x1e1005
8010cf68:	00000000 	nop
8010cf6c:	1f100000 	.word	0x101f
8010cf70:	8000000d 	jal	0x84000200
8010cf74:	06100000 	srlv	v0,zero,zero
8010cf78:	a2000100 	.word	0x100a2
8010cf7c:	05101e00 	.word	0x1e1005
8010cf80:	00000000 	nop
8010cf84:	1c100700 	.word	0x7101c
8010cf88:	25000700 	or	zero,zero,a3
8010cf8c:	1e100000 	.word	0x101e
8010cf90:	09000800 	.word	0x80009
8010cf94:	1f100000 	.word	0x101f
8010cf98:	8000400a 	j	0x89000200
8010cf9c:	06100000 	srlv	v0,zero,zero
8010cfa0:	a3000100 	.word	0x100a3
8010cfa4:	05100f00 	.word	0xf1005
8010cfa8:	00000000 	nop
8010cfac:	1d10ffff 	.word	0xffff101d
8010cfb0:	00000000 	nop
8010cfb4:	1e100000 	.word	0x101e
8010cfb8:	02000000 	srl	zero,zero,0x0
8010cfbc:	1e100000 	.word	0x101e
8010cfc0:	08000400 	.word	0x40008
8010cfc4:	2430fe29 	slti	s8,t7,12324
8010cfc8:	00f9282d 	sltiu	t0,t1,-1792
8010cfcc:	00180200 	sll	v1,v0,0x0
8010cfd0:	80000000 	sll	zero,zero,0x2
8010cfd4:	24307e27 	addiu	s8,k1,12324
8010cfd8:	00f90230 	andi	v0,zero,0xf900
8010cfdc:	00180200 	sll	v1,v0,0x0
8010cfe0:	80000000 	sll	zero,zero,0x2
8010cfe4:	24301824 	li	t8,12324
8010cfe8:	96f93232 	andi	s2,s1,0xf996
8010cfec:	00180200 	sll	v1,v0,0x0
8010cff0:	80000000 	sll	zero,zero,0x2
8010cff4:	2430ca21 	addi	t2,t6,12324
8010cff8:	78f9cc33 	andi	t4,s8,0xf978
8010cffc:	00180200 	sll	v1,v0,0x0
8010d000:	80000000 	sll	zero,zero,0x2
8010d004:	3e100100 	.word	0x1103e
8010d008:	90df1080 	lb	s0,-8304(zero)
8010d00c:	1e100200 	.word	0x2101e
8010d010:	63000400 	.word	0x40063
8010d014:	1e100200 	.word	0x2101e
8010d018:	64000200 	.word	0x20064
8010d01c:	1e800200 	.word	0x2801e
8010d020:	65000200 	.word	0x20065
8010d024:	1c100700 	.word	0x7101c
8010d028:	25001100 	or	zero,zero,s1
8010d02c:	1e100000 	.word	0x101e
8010d030:	0e000800 	.word	0x8000e
8010d034:	06100000 	srlv	v0,zero,zero
8010d038:	a3000300 	.word	0x300a3
8010d03c:	05101e00 	.word	0x1e1005
8010d040:	00000000 	nop
8010d044:	1c100700 	.word	0x7101c
8010d048:	25000700 	or	zero,zero,a3
8010d04c:	1e100000 	.word	0x101e
8010d050:	09000800 	.word	0x80009
8010d054:	1f100100 	.word	0x1101f
8010d058:	80000000 	sll	zero,zero,0x2
8010d05c:	1e100000 	.word	0x101e
8010d060:	0f000800 	.word	0x8000f
8010d064:	3e100100 	.word	0x1103e
8010d068:	90df1080 	lb	s0,-8304(zero)
8010d06c:	06100000 	srlv	v0,zero,zero
8010d070:	a1000100 	.word	0x100a1
8010d074:	05106400 	.word	0x641005
8010d078:	00000000 	nop
8010d07c:	3e100100 	.word	0x1103e
8010d080:	90df1080 	lb	s0,-8304(zero)
8010d084:	1e100000 	.word	0x101e
8010d088:	0d000000 	break
8010d08c:	05100800 	.word	0x81005
8010d090:	00000000 	nop
8010d094:	3e800000 	.word	0x803e
8010d098:	b4df1080 	lb	s0,-8268(zero)
	...
8010d0a4:	c05c1180 	lb	s1,23744(zero)
8010d0a8:	905e1180 	lb	s1,24208(zero)
8010d0ac:	c85e1180 	lb	s1,24264(zero)
8010d0b0:	c05f1180 	lb	s1,24512(zero)
8010d0b4:	00000000 	nop
8010d0b8:	00070004 	bltz	zero,0x8010ecbc
8010d0bc:	00000000 	nop
8010d0c0:	37000100 	.word	0x10037
8010d0c4:	d0000400 	.word	0x400d0
8010d0c8:	06000000 	srlv	zero,zero,zero
8010d0cc:	a2000100 	.word	0x100a2
8010d0d0:	1e000000 	.word	0x1e
8010d0d4:	02000400 	srl	zero,a0,0x0
8010d0d8:	37000100 	.word	0x10037
8010d0dc:	02000400 	srl	zero,a0,0x0
8010d0e0:	06000000 	srlv	zero,zero,zero
8010d0e4:	a2000200 	.word	0x200a2
8010d0e8:	34000000 	.word	0x34
8010d0ec:	01000002 	.word	0x2000001
8010d0f0:	06000000 	srlv	zero,zero,zero
8010d0f4:	a2000500 	.word	0x500a2
8010d0f8:	37000100 	.word	0x10037
8010d0fc:	c1000400 	.word	0x400c1
8010d100:	06000000 	srlv	zero,zero,zero
8010d104:	a2000600 	.word	0x600a2
8010d108:	05000c00 	.word	0xc0005
8010d10c:	00000000 	nop
8010d110:	37000100 	.word	0x10037
8010d114:	e1000400 	.word	0x400e1
8010d118:	06000000 	srlv	zero,zero,zero
8010d11c:	a2000700 	.word	0x700a2
8010d120:	37000100 	.word	0x10037
8010d124:	02000400 	srl	zero,a0,0x0
8010d128:	06000000 	srlv	zero,zero,zero
8010d12c:	a3000700 	.word	0x700a3
8010d130:	37000200 	.word	0x20037
8010d134:	ba000400 	.word	0x400ba
8010d138:	06000000 	srlv	zero,zero,zero
8010d13c:	a2000900 	.word	0x900a2
8010d140:	34000000 	.word	0x34
8010d144:	0000b00f 	jal	0x8ec00000
8010d148:	06000000 	srlv	zero,zero,zero
8010d14c:	a3000a00 	.word	0xa00a3
8010d150:	37000100 	.word	0x10037
8010d154:	c3000400 	sra	zero,a0,0x3
8010d158:	06000000 	srlv	zero,zero,zero
8010d15c:	a3000b00 	.word	0xb00a3
8010d160:	37000100 	.word	0x10037
8010d164:	02000400 	srl	zero,a0,0x0
8010d168:	06000000 	srlv	zero,zero,zero
8010d16c:	a2000c00 	.word	0xc00a2
8010d170:	3e000680 	lb	a2,62(zero)
8010d174:	d4e31080 	lb	s0,-7212(zero)
8010d178:	3a000200 	.word	0x2003a
8010d17c:	00000000 	nop
8010d180:	06000000 	srlv	zero,zero,zero
8010d184:	a3000c00 	.word	0xc00a3
8010d188:	3e000500 	.word	0x5003e
8010d18c:	d4e31080 	lb	s0,-7212(zero)
8010d190:	24208d2f 	sltiu	t5,gp,8228
8010d194:	f4f22028 	slti	zero,at,-3340
8010d198:	000a0100 	sll	at,at,0x8
8010d19c:	80000000 	sll	zero,zero,0x2
8010d1a0:	1e000000 	.word	0x1e
8010d1a4:	04000400 	sllv	zero,a0,zero
8010d1a8:	37000100 	.word	0x10037
8010d1ac:	c3000400 	sra	zero,a0,0x3
8010d1b0:	06000000 	srlv	zero,zero,zero
8010d1b4:	a2000e00 	.word	0xe00a2
8010d1b8:	1e000000 	.word	0x1e
8010d1bc:	05000400 	.word	0x40005
8010d1c0:	24200d2f 	sltiu	t5,t8,8228
8010d1c4:	f4f22028 	slti	zero,at,-3340
8010d1c8:	000a0000 	sll	at,zero,0x8
8010d1cc:	80000000 	sll	zero,zero,0x2
8010d1d0:	1e000000 	.word	0x1e
8010d1d4:	03000400 	sra	zero,a0,0x0
8010d1d8:	06000000 	srlv	zero,zero,zero
8010d1dc:	a3000e00 	.word	0xe00a3
8010d1e0:	37000100 	.word	0x10037
8010d1e4:	c1000400 	.word	0x400c1
8010d1e8:	06000000 	srlv	zero,zero,zero
8010d1ec:	a2000f00 	.word	0xf00a2
8010d1f0:	1f000200 	.word	0x2001f
8010d1f4:	00010000 	sll	zero,zero,0x4
8010d1f8:	05001000 	.word	0x100005
8010d1fc:	00000000 	nop
8010d200:	37000200 	.word	0x20037
8010d204:	b4000400 	.word	0x400b4
8010d208:	37000100 	.word	0x10037
8010d20c:	b3000400 	.word	0x400b3
8010d210:	06000000 	srlv	zero,zero,zero
8010d214:	a2001000 	.word	0x1000a2
8010d218:	37000200 	.word	0x20037
8010d21c:	bb000400 	.word	0x400bb
8010d220:	06000000 	srlv	zero,zero,zero
8010d224:	a2001100 	.word	0x1100a2
8010d228:	1f000000 	.word	0x1f
8010d22c:	0001c201 	.word	0x1c20100
8010d230:	1e000000 	.word	0x1e
8010d234:	02000400 	srl	zero,a0,0x0
8010d238:	06000000 	srlv	zero,zero,zero
8010d23c:	a2001200 	.word	0x1200a2
8010d240:	37000200 	.word	0x20037
8010d244:	bc000400 	.word	0x400bc
8010d248:	06000000 	srlv	zero,zero,zero
8010d24c:	a2001300 	.word	0x1300a2
8010d250:	34000000 	.word	0x34
8010d254:	0001c201 	.word	0x1c20100
8010d258:	06000000 	srlv	zero,zero,zero
8010d25c:	a3001300 	.word	0x1300a3
8010d260:	37000200 	.word	0x20037
8010d264:	ba000400 	.word	0x400ba
8010d268:	06000000 	srlv	zero,zero,zero
8010d26c:	a2001400 	.word	0x1400a2
8010d270:	34000000 	.word	0x34
8010d274:	00000000 	nop
8010d278:	06000000 	srlv	zero,zero,zero
8010d27c:	a3001400 	.word	0x1400a3
8010d280:	37000200 	.word	0x20037
8010d284:	ba000400 	.word	0x400ba
8010d288:	3e000100 	.word	0x1003e
8010d28c:	1ce51080 	lb	s0,-6884(zero)
8010d290:	06000000 	srlv	zero,zero,zero
8010d294:	a2001500 	.word	0x1500a2
8010d298:	3e000680 	lb	a2,62(zero)
8010d29c:	d4e31080 	lb	s0,-7212(zero)
8010d2a0:	34000100 	.word	0x10034
8010d2a4:	00000000 	nop
8010d2a8:	06000000 	srlv	zero,zero,zero
8010d2ac:	a3001500 	.word	0x1500a3
8010d2b0:	3e000200 	.word	0x2003e
8010d2b4:	d4e31080 	lb	s0,-7212(zero)
8010d2b8:	37000200 	.word	0x20037
8010d2bc:	ba000400 	.word	0x400ba
8010d2c0:	2e007800 	.word	0x78002e
8010d2c4:	00000000 	nop
8010d2c8:	06000000 	srlv	zero,zero,zero
8010d2cc:	a2001600 	.word	0x1600a2
8010d2d0:	34000000 	.word	0x34
8010d2d4:	00010004 	bltz	zero,0x8010d6d8
8010d2d8:	06000000 	srlv	zero,zero,zero
8010d2dc:	a2001800 	.word	0x1800a2
8010d2e0:	3e000680 	lb	a2,62(zero)
8010d2e4:	d4e31080 	lb	s0,-7212(zero)
8010d2e8:	06000000 	srlv	zero,zero,zero
8010d2ec:	a3001800 	.word	0x1800a3
8010d2f0:	3e000200 	.word	0x2003e
8010d2f4:	d4e31080 	lb	s0,-7212(zero)
8010d2f8:	2e001e00 	.word	0x1e002e
8010d2fc:	00000000 	nop
8010d300:	37200000 	.word	0x2037
8010d304:	bf000400 	.word	0x400bf
8010d308:	01000200 	.word	0x20001
8010d30c:	03000000 	sra	zero,zero,0x0
8010d310:	2e002100 	.word	0x21002e
8010d314:	00000000 	nop
8010d318:	37800200 	.word	0x28037
8010d31c:	be000400 	.word	0x400be
8010d320:	50000200 	.word	0x20050
8010d324:	ffff0300 	.word	0x3ffff
8010d328:	50000200 	.word	0x20050
8010d32c:	06000300 	srlv	zero,v1,zero
8010d330:	1e000000 	.word	0x1e
8010d334:	01000000 	.word	0x1
8010d338:	05803c00 	.word	0x3c8005
8010d33c:	00000000 	nop
8010d340:	50000200 	.word	0x20050
8010d344:	ffff0300 	.word	0x3ffff
8010d348:	1f000000 	.word	0x1f
8010d34c:	800000fc 	.word	0xfc000080
8010d350:	0c000000 	syscall
8010d354:	a4000200 	.word	0x200a4
8010d358:	3e000000 	.word	0x3e
8010d35c:	90eb1080 	lb	s0,-5232(zero)
8010d360:	1e000200 	.word	0x2001e
8010d364:	03001000 	sra	zero,s0,0x0
8010d368:	06000000 	srlv	zero,zero,zero
8010d36c:	a4000300 	.word	0x300a4
8010d370:	1f000100 	.word	0x1001f
8010d374:	80000000 	sll	zero,zero,0x2
8010d378:	50000200 	.word	0x20050
8010d37c:	07000300 	srav	zero,v1,zero
8010d380:	37000000 	.word	0x37
8010d384:	cf000400 	.word	0x400cf
8010d388:	0c000000 	syscall
8010d38c:	a4000400 	.word	0x400a4
8010d390:	37000100 	.word	0x10037
8010d394:	02000400 	srl	zero,a0,0x0
8010d398:	1e000000 	.word	0x1e
8010d39c:	00000400 	sll	zero,a0,0x0
8010d3a0:	37000000 	.word	0x37
8010d3a4:	be000400 	.word	0x400be
8010d3a8:	37000100 	.word	0x10037
8010d3ac:	bf000400 	.word	0x400bf
8010d3b0:	05001400 	.word	0x140005
8010d3b4:	00000000 	nop
8010d3b8:	3e000000 	.word	0x3e
8010d3bc:	f0eb1080 	lb	s0,-5136(zero)
8010d3c0:	05001800 	.word	0x180005
8010d3c4:	00000000 	nop
8010d3c8:	37000100 	.word	0x10037
8010d3cc:	c3000400 	sra	zero,a0,0x3
8010d3d0:	05803c00 	.word	0x3c8005
8010d3d4:	00000000 	nop
8010d3d8:	51200c00 	.word	0xc2051
8010d3dc:	d007d007 	bltzal	s8,0x8010f320
8010d3e0:	0018ffff 	.word	0xffff1800
8010d3e4:	80000000 	sll	zero,zero,0x2
8010d3e8:	34000000 	.word	0x34
8010d3ec:	00000008 	j	0x80000000
8010d3f0:	2e002600 	.word	0x26002e
8010d3f4:	00000000 	nop
8010d3f8:	37000200 	.word	0x20037
8010d3fc:	c7000400 	.word	0x400c7
8010d400:	06000000 	srlv	zero,zero,zero
8010d404:	37000100 	.word	0x10037
8010d408:	1e000000 	.word	0x1e
8010d40c:	01000000 	.word	0x1
8010d410:	50000200 	.word	0x20050
8010d414:	00000300 	sll	zero,v1,0x0
8010d418:	50000200 	.word	0x20050
8010d41c:	01000300 	.word	0x30001
8010d420:	1e000000 	.word	0x1e
8010d424:	00000400 	sll	zero,a0,0x0
8010d428:	1f000000 	.word	0x1f
8010d42c:	800000fc 	.word	0xfc000080
8010d430:	0c000000 	syscall
8010d434:	a4000100 	.word	0x100a4
8010d438:	05001e00 	.word	0x1e0005
8010d43c:	00000000 	nop
8010d440:	1f000100 	.word	0x1001f
8010d444:	80000000 	sll	zero,zero,0x2
8010d448:	1e800000 	.word	0x801e
8010d44c:	01000000 	.word	0x1
8010d450:	0627d5f8 	.word	0xf8d52706
8010d454:	49302422 	addi	a0,s1,12361
8010d458:	8ef9dc32 	andi	gp,s6,0xf98e
8010d45c:	06000000 	srlv	zero,zero,zero
8010d460:	a1000100 	.word	0x100a1
8010d464:	37200000 	.word	0x2037
8010d468:	bf000400 	.word	0x400bf
8010d46c:	01000200 	.word	0x20001
8010d470:	03000000 	sra	zero,zero,0x0
8010d474:	37000000 	.word	0x37
8010d478:	c7000400 	.word	0x400c7
8010d47c:	37000100 	.word	0x10037
8010d480:	02000400 	srl	zero,a0,0x0
8010d484:	34000000 	.word	0x34
8010d488:	00000005 	bltz	t0,0x8010d48c
8010d48c:	37000000 	.word	0x37
8010d490:	c7000400 	.word	0x400c7
8010d494:	37000100 	.word	0x10037
8010d498:	02000400 	srl	zero,a0,0x0
8010d49c:	34000000 	.word	0x34
8010d4a0:	00003c01 	.word	0x13c0000
8010d4a4:	37000000 	.word	0x37
8010d4a8:	c7000400 	.word	0x400c7
8010d4ac:	37200000 	.word	0x2037
8010d4b0:	bf000400 	.word	0x400bf
8010d4b4:	01000200 	.word	0x20001
8010d4b8:	03000000 	sra	zero,zero,0x0
8010d4bc:	34000000 	.word	0x34
8010d4c0:	0000c40e 	jal	0x8b100000
8010d4c4:	37000000 	.word	0x37
8010d4c8:	c7000400 	.word	0x400c7
8010d4cc:	37000100 	.word	0x10037
8010d4d0:	02000400 	srl	zero,a0,0x0
8010d4d4:	06000000 	srlv	zero,zero,zero
8010d4d8:	a2000100 	.word	0x100a2
8010d4dc:	34000100 	.word	0x10034
8010d4e0:	00000000 	nop
8010d4e4:	06000000 	srlv	zero,zero,zero
8010d4e8:	a1000200 	.word	0x200a1
8010d4ec:	3e000000 	.word	0x3e
8010d4f0:	30ec1080 	lb	s0,-5072(zero)
8010d4f4:	3e000100 	.word	0x1003e
8010d4f8:	30ec1080 	lb	s0,-5072(zero)
8010d4fc:	0c000000 	syscall
8010d500:	a1000300 	.word	0x300a1
8010d504:	3e000200 	.word	0x2003e
8010d508:	28ef1080 	lb	s0,-4312(zero)
8010d50c:	05806000 	.word	0x608005
	...
8010d520:	0000ffff 	.word	0xffff0000
8010d524:	00000000 	nop
8010d528:	fcff0000 	.word	0xfffc
8010d52c:	0000faff 	.word	0xfffa0000
8010d530:	00000000 	nop
8010d534:	f6ff0000 	.word	0xfff6
8010d538:	0000f2ff 	.word	0xfff20000
8010d53c:	00000000 	nop
8010d540:	eeff0000 	.word	0xffee
8010d544:	0000eaff 	.word	0xffea0000
8010d548:	00000000 	nop
8010d54c:	e5ff0000 	.word	0xffe5
8010d550:	0000e1ff 	.word	0xffe10000
8010d554:	00000000 	nop
8010d558:	ddff0000 	.word	0xffdd
8010d55c:	0000d9ff 	.word	0xffd90000
8010d560:	00000000 	nop
8010d564:	d5ff0000 	.word	0xffd5
8010d568:	0000d3ff 	.word	0xffd30000
8010d56c:	00000000 	nop
8010d570:	d0ff0000 	.word	0xffd0
8010d574:	0000cfff 	.word	0xffcf0000
8010d578:	00000000 	nop
8010d57c:	ceff0000 	.word	0xffce
8010d580:	0000cfff 	.word	0xffcf0000
8010d584:	00000000 	nop
8010d588:	d0ff0000 	.word	0xffd0
8010d58c:	0000d3ff 	.word	0xffd30000
8010d590:	00000000 	nop
8010d594:	d5ff0000 	.word	0xffd5
8010d598:	0000d9ff 	.word	0xffd90000
8010d59c:	00000000 	nop
8010d5a0:	ddff0000 	.word	0xffdd
8010d5a4:	0000e1ff 	.word	0xffe10000
8010d5a8:	00000000 	nop
8010d5ac:	e5ff0000 	.word	0xffe5
8010d5b0:	0000eaff 	.word	0xffea0000
8010d5b4:	00000000 	nop
8010d5b8:	eeff0000 	.word	0xffee
8010d5bc:	0000f2ff 	.word	0xfff20000
8010d5c0:	00000000 	nop
8010d5c4:	f6ff0000 	.word	0xfff6
8010d5c8:	0000faff 	.word	0xfffa0000
8010d5cc:	00000000 	nop
8010d5d0:	fcff0000 	.word	0xfffc
8010d5d4:	0000ffff 	.word	0xffff0000
	...
8010d5ec:	0000ffff 	.word	0xffff0000
8010d5f0:	00000000 	nop
8010d5f4:	fcff0000 	.word	0xfffc
8010d5f8:	0000faff 	.word	0xfffa0000
8010d5fc:	00000000 	nop
8010d600:	f6ff0000 	.word	0xfff6
8010d604:	0000f2ff 	.word	0xfff20000
8010d608:	00000000 	nop
8010d60c:	eeff0000 	.word	0xffee
8010d610:	0000eaff 	.word	0xffea0000
8010d614:	00000000 	nop
8010d618:	e5ff0000 	.word	0xffe5
8010d61c:	0000e1ff 	.word	0xffe10000
8010d620:	00000000 	nop
8010d624:	ddff0000 	.word	0xffdd
8010d628:	0000d9ff 	.word	0xffd90000
8010d62c:	00000000 	nop
8010d630:	d5ff0000 	.word	0xffd5
8010d634:	0000d3ff 	.word	0xffd30000
8010d638:	00000000 	nop
8010d63c:	d0ff0000 	.word	0xffd0
8010d640:	0000cfff 	.word	0xffcf0000
8010d644:	00000000 	nop
8010d648:	ceff0000 	.word	0xffce
8010d64c:	0000cfff 	.word	0xffcf0000
8010d650:	00000000 	nop
8010d654:	d0ff0000 	.word	0xffd0
8010d658:	0000d3ff 	.word	0xffd30000
8010d65c:	00000000 	nop
8010d660:	d5ff0000 	.word	0xffd5
8010d664:	0000d9ff 	.word	0xffd90000
8010d668:	00000000 	nop
8010d66c:	ddff0000 	.word	0xffdd
8010d670:	0000e1ff 	.word	0xffe10000
8010d674:	00000000 	nop
8010d678:	e5ff0000 	.word	0xffe5
8010d67c:	0000eaff 	.word	0xffea0000
8010d680:	00000000 	nop
8010d684:	eeff0000 	.word	0xffee
8010d688:	0000f2ff 	.word	0xfff20000
8010d68c:	00000000 	nop
8010d690:	f6ff0000 	.word	0xfff6
8010d694:	0000faff 	.word	0xfffa0000
8010d698:	00000000 	nop
8010d69c:	fcff0000 	.word	0xfffc
8010d6a0:	0000ffff 	.word	0xffff0000
	...
8010d6b8:	0000ffff 	.word	0xffff0000
8010d6bc:	00000000 	nop
8010d6c0:	fcff0000 	.word	0xfffc
8010d6c4:	0000faff 	.word	0xfffa0000
8010d6c8:	00000000 	nop
8010d6cc:	f6ff0000 	.word	0xfff6
8010d6d0:	0000f2ff 	.word	0xfff20000
8010d6d4:	00000000 	nop
8010d6d8:	eeff0000 	.word	0xffee
8010d6dc:	0000eaff 	.word	0xffea0000
8010d6e0:	00000000 	nop
8010d6e4:	e5ff0000 	.word	0xffe5
8010d6e8:	0000e1ff 	.word	0xffe10000
8010d6ec:	00000000 	nop
8010d6f0:	ddff0000 	.word	0xffdd
8010d6f4:	0000d9ff 	.word	0xffd90000
8010d6f8:	00000000 	nop
8010d6fc:	d5ff0000 	.word	0xffd5
8010d700:	0000d3ff 	.word	0xffd30000
8010d704:	00000000 	nop
8010d708:	d0ff0000 	.word	0xffd0
8010d70c:	0000cfff 	.word	0xffcf0000
8010d710:	00000000 	nop
8010d714:	ceff0000 	.word	0xffce
8010d718:	0000cfff 	.word	0xffcf0000
8010d71c:	00000000 	nop
8010d720:	d0ff0000 	.word	0xffd0
8010d724:	0000d3ff 	.word	0xffd30000
8010d728:	00000000 	nop
8010d72c:	d5ff0000 	.word	0xffd5
8010d730:	0000d9ff 	.word	0xffd90000
8010d734:	00000000 	nop
8010d738:	ddff0000 	.word	0xffdd
8010d73c:	0000e1ff 	.word	0xffe10000
8010d740:	00000000 	nop
8010d744:	e5ff0000 	.word	0xffe5
8010d748:	0000eaff 	.word	0xffea0000
8010d74c:	00000000 	nop
8010d750:	eeff0000 	.word	0xffee
8010d754:	0000f2ff 	.word	0xfff20000
8010d758:	00000000 	nop
8010d75c:	f6ff0000 	.word	0xfff6
8010d760:	0000faff 	.word	0xfffa0000
8010d764:	00000000 	nop
8010d768:	fcff0000 	.word	0xfffc
8010d76c:	0000ffff 	.word	0xffff0000
	...
8010d784:	0000ffff 	.word	0xffff0000
8010d788:	00000000 	nop
8010d78c:	fcff0000 	.word	0xfffc
8010d790:	0000faff 	.word	0xfffa0000
8010d794:	00000000 	nop
8010d798:	f6ff0000 	.word	0xfff6
8010d79c:	0000f2ff 	.word	0xfff20000
8010d7a0:	00000000 	nop
8010d7a4:	eeff0000 	.word	0xffee
8010d7a8:	0000eaff 	.word	0xffea0000
8010d7ac:	00000000 	nop
8010d7b0:	e5ff0000 	.word	0xffe5
8010d7b4:	0000e1ff 	.word	0xffe10000
8010d7b8:	00000000 	nop
8010d7bc:	ddff0000 	.word	0xffdd
8010d7c0:	0000d9ff 	.word	0xffd90000
8010d7c4:	00000000 	nop
8010d7c8:	d5ff0000 	.word	0xffd5
8010d7cc:	0000d3ff 	.word	0xffd30000
8010d7d0:	00000000 	nop
8010d7d4:	d0ff0000 	.word	0xffd0
8010d7d8:	0000cfff 	.word	0xffcf0000
8010d7dc:	00000000 	nop
8010d7e0:	ceff0000 	.word	0xffce
8010d7e4:	0000cfff 	.word	0xffcf0000
8010d7e8:	00000000 	nop
8010d7ec:	d0ff0000 	.word	0xffd0
8010d7f0:	0000d3ff 	.word	0xffd30000
8010d7f4:	00000000 	nop
8010d7f8:	d5ff0000 	.word	0xffd5
8010d7fc:	0000d9ff 	.word	0xffd90000
8010d800:	00000000 	nop
8010d804:	ddff0000 	.word	0xffdd
8010d808:	0000e1ff 	.word	0xffe10000
8010d80c:	00000000 	nop
8010d810:	e5ff0000 	.word	0xffe5
8010d814:	0000eaff 	.word	0xffea0000
8010d818:	00000000 	nop
8010d81c:	eeff0000 	.word	0xffee
8010d820:	0000f2ff 	.word	0xfff20000
8010d824:	00000000 	nop
8010d828:	f6ff0000 	.word	0xfff6
8010d82c:	0000faff 	.word	0xfffa0000
8010d830:	00000000 	nop
8010d834:	fcff0000 	.word	0xfffc
8010d838:	0000ffff 	.word	0xffff0000
	...
8010d850:	0000ffff 	.word	0xffff0000
8010d854:	00000000 	nop
8010d858:	fcff0000 	.word	0xfffc
8010d85c:	0000faff 	.word	0xfffa0000
8010d860:	00000000 	nop
8010d864:	f6ff0000 	.word	0xfff6
8010d868:	0000f2ff 	.word	0xfff20000
8010d86c:	00000000 	nop
8010d870:	eeff0000 	.word	0xffee
8010d874:	0000eaff 	.word	0xffea0000
8010d878:	00000000 	nop
8010d87c:	e5ff0000 	.word	0xffe5
8010d880:	0000e1ff 	.word	0xffe10000
8010d884:	00000000 	nop
8010d888:	ddff0000 	.word	0xffdd
8010d88c:	0000d9ff 	.word	0xffd90000
8010d890:	00000000 	nop
8010d894:	d5ff0000 	.word	0xffd5
8010d898:	0000d3ff 	.word	0xffd30000
8010d89c:	00000000 	nop
8010d8a0:	d0ff0000 	.word	0xffd0
8010d8a4:	0000cfff 	.word	0xffcf0000
8010d8a8:	00000000 	nop
8010d8ac:	ceff0000 	.word	0xffce
8010d8b0:	0000cfff 	.word	0xffcf0000
8010d8b4:	00000000 	nop
8010d8b8:	d0ff0000 	.word	0xffd0
8010d8bc:	0000d3ff 	.word	0xffd30000
8010d8c0:	00000000 	nop
8010d8c4:	d5ff0000 	.word	0xffd5
8010d8c8:	0000d9ff 	.word	0xffd90000
8010d8cc:	00000000 	nop
8010d8d0:	ddff0000 	.word	0xffdd
8010d8d4:	0000e1ff 	.word	0xffe10000
8010d8d8:	00000000 	nop
8010d8dc:	e5ff0000 	.word	0xffe5
8010d8e0:	0000eaff 	.word	0xffea0000
8010d8e4:	00000000 	nop
8010d8e8:	eeff0000 	.word	0xffee
8010d8ec:	0000f2ff 	.word	0xfff20000
8010d8f0:	00000000 	nop
8010d8f4:	f6ff0000 	.word	0xfff6
8010d8f8:	0000faff 	.word	0xfffa0000
8010d8fc:	00000000 	nop
8010d900:	fcff0000 	.word	0xfffc
8010d904:	0000ffff 	.word	0xffff0000
	...
8010d91c:	0000ffff 	.word	0xffff0000
8010d920:	00000000 	nop
8010d924:	fcff0000 	.word	0xfffc
8010d928:	0000faff 	.word	0xfffa0000
8010d92c:	00000000 	nop
8010d930:	f6ff0000 	.word	0xfff6
8010d934:	0000f2ff 	.word	0xfff20000
8010d938:	00000000 	nop
8010d93c:	eeff0000 	.word	0xffee
8010d940:	0000eaff 	.word	0xffea0000
8010d944:	00000000 	nop
8010d948:	e5ff0000 	.word	0xffe5
8010d94c:	0000e1ff 	.word	0xffe10000
8010d950:	00000000 	nop
8010d954:	ddff0000 	.word	0xffdd
8010d958:	0000d9ff 	.word	0xffd90000
8010d95c:	00000000 	nop
8010d960:	d5ff0000 	.word	0xffd5
8010d964:	0000d3ff 	.word	0xffd30000
8010d968:	00000000 	nop
8010d96c:	d0ff0000 	.word	0xffd0
8010d970:	0000cfff 	.word	0xffcf0000
8010d974:	00000000 	nop
8010d978:	ceff0000 	.word	0xffce
8010d97c:	0000cfff 	.word	0xffcf0000
8010d980:	00000000 	nop
8010d984:	d0ff0000 	.word	0xffd0
8010d988:	0000d3ff 	.word	0xffd30000
8010d98c:	00000000 	nop
8010d990:	d5ff0000 	.word	0xffd5
8010d994:	0000d9ff 	.word	0xffd90000
8010d998:	00000000 	nop
8010d99c:	ddff0000 	.word	0xffdd
8010d9a0:	0000e1ff 	.word	0xffe10000
8010d9a4:	00000000 	nop
8010d9a8:	e5ff0000 	.word	0xffe5
8010d9ac:	0000eaff 	.word	0xffea0000
8010d9b0:	00000000 	nop
8010d9b4:	eeff0000 	.word	0xffee
8010d9b8:	0000f2ff 	.word	0xfff20000
8010d9bc:	00000000 	nop
8010d9c0:	f6ff0000 	.word	0xfff6
8010d9c4:	0000faff 	.word	0xfffa0000
8010d9c8:	00000000 	nop
8010d9cc:	fcff0000 	.word	0xfffc
8010d9d0:	0000ffff 	.word	0xffff0000
	...
8010d9e8:	0000ffff 	.word	0xffff0000
8010d9ec:	00000000 	nop
8010d9f0:	fcff0000 	.word	0xfffc
8010d9f4:	0000faff 	.word	0xfffa0000
8010d9f8:	00000000 	nop
8010d9fc:	f6ff0000 	.word	0xfff6
8010da00:	0000f2ff 	.word	0xfff20000
8010da04:	00000000 	nop
8010da08:	eeff0000 	.word	0xffee
8010da0c:	0000eaff 	.word	0xffea0000
8010da10:	00000000 	nop
8010da14:	e5ff0000 	.word	0xffe5
8010da18:	0000e1ff 	.word	0xffe10000
8010da1c:	00000000 	nop
8010da20:	ddff0000 	.word	0xffdd
8010da24:	0000d9ff 	.word	0xffd90000
8010da28:	00000000 	nop
8010da2c:	d5ff0000 	.word	0xffd5
8010da30:	0000d3ff 	.word	0xffd30000
8010da34:	00000000 	nop
8010da38:	d0ff0000 	.word	0xffd0
8010da3c:	0000cfff 	.word	0xffcf0000
8010da40:	00000000 	nop
8010da44:	ceff0000 	.word	0xffce
8010da48:	0000cfff 	.word	0xffcf0000
8010da4c:	00000000 	nop
8010da50:	d0ff0000 	.word	0xffd0
8010da54:	0000d3ff 	.word	0xffd30000
8010da58:	00000000 	nop
8010da5c:	d5ff0000 	.word	0xffd5
8010da60:	0000d9ff 	.word	0xffd90000
8010da64:	00000000 	nop
8010da68:	ddff0000 	.word	0xffdd
8010da6c:	0000e1ff 	.word	0xffe10000
8010da70:	00000000 	nop
8010da74:	e5ff0000 	.word	0xffe5
8010da78:	0000eaff 	.word	0xffea0000
8010da7c:	00000000 	nop
8010da80:	eeff0000 	.word	0xffee
8010da84:	0000f2ff 	.word	0xfff20000
8010da88:	00000000 	nop
8010da8c:	f6ff0000 	.word	0xfff6
8010da90:	0000faff 	.word	0xfffa0000
8010da94:	00000000 	nop
8010da98:	fcff0000 	.word	0xfffc
8010da9c:	0000ffff 	.word	0xffff0000
	...
8010dab4:	0000ffff 	.word	0xffff0000
8010dab8:	00000000 	nop
8010dabc:	fcff0000 	.word	0xfffc
8010dac0:	0000faff 	.word	0xfffa0000
8010dac4:	00000000 	nop
8010dac8:	f6ff0000 	.word	0xfff6
8010dacc:	0000f2ff 	.word	0xfff20000
8010dad0:	00000000 	nop
8010dad4:	eeff0000 	.word	0xffee
8010dad8:	0000eaff 	.word	0xffea0000
8010dadc:	00000000 	nop
8010dae0:	e5ff0000 	.word	0xffe5
8010dae4:	0000e1ff 	.word	0xffe10000
8010dae8:	00000000 	nop
8010daec:	ddff0000 	.word	0xffdd
8010daf0:	0000d9ff 	.word	0xffd90000
8010daf4:	00000000 	nop
8010daf8:	d5ff0000 	.word	0xffd5
8010dafc:	0000d3ff 	.word	0xffd30000
8010db00:	00000000 	nop
8010db04:	d0ff0000 	.word	0xffd0
8010db08:	0000cfff 	.word	0xffcf0000
8010db0c:	00000000 	nop
8010db10:	ceff0000 	.word	0xffce
8010db14:	0000cfff 	.word	0xffcf0000
8010db18:	00000000 	nop
8010db1c:	d0ff0000 	.word	0xffd0
8010db20:	0000d3ff 	.word	0xffd30000
8010db24:	00000000 	nop
8010db28:	d5ff0000 	.word	0xffd5
8010db2c:	0000d9ff 	.word	0xffd90000
8010db30:	00000000 	nop
8010db34:	ddff0000 	.word	0xffdd
8010db38:	0000e1ff 	.word	0xffe10000
8010db3c:	00000000 	nop
8010db40:	e5ff0000 	.word	0xffe5
8010db44:	0000eaff 	.word	0xffea0000
8010db48:	00000000 	nop
8010db4c:	eeff0000 	.word	0xffee
8010db50:	0000f2ff 	.word	0xfff20000
8010db54:	00000000 	nop
8010db58:	f6ff0000 	.word	0xfff6
8010db5c:	0000faff 	.word	0xfffa0000
8010db60:	00000000 	nop
8010db64:	fcff0000 	.word	0xfffc
8010db68:	0000ffff 	.word	0xffff0000
	...
8010db80:	0000ffff 	.word	0xffff0000
8010db84:	00000000 	nop
8010db88:	fcff0000 	.word	0xfffc
8010db8c:	0000faff 	.word	0xfffa0000
8010db90:	00000000 	nop
8010db94:	f6ff0000 	.word	0xfff6
8010db98:	0000f2ff 	.word	0xfff20000
8010db9c:	00000000 	nop
8010dba0:	eeff0000 	.word	0xffee
8010dba4:	0000eaff 	.word	0xffea0000
8010dba8:	00000000 	nop
8010dbac:	e5ff0000 	.word	0xffe5
8010dbb0:	0000e1ff 	.word	0xffe10000
8010dbb4:	00000000 	nop
8010dbb8:	ddff0000 	.word	0xffdd
8010dbbc:	0000d9ff 	.word	0xffd90000
8010dbc0:	00000000 	nop
8010dbc4:	d5ff0000 	.word	0xffd5
8010dbc8:	0000d3ff 	.word	0xffd30000
8010dbcc:	00000000 	nop
8010dbd0:	d0ff0000 	.word	0xffd0
8010dbd4:	0000cfff 	.word	0xffcf0000
8010dbd8:	00000000 	nop
8010dbdc:	ceff0000 	.word	0xffce
8010dbe0:	0000cfff 	.word	0xffcf0000
8010dbe4:	00000000 	nop
8010dbe8:	d0ff0000 	.word	0xffd0
8010dbec:	0000d3ff 	.word	0xffd30000
8010dbf0:	00000000 	nop
8010dbf4:	d5ff0000 	.word	0xffd5
8010dbf8:	0000d9ff 	.word	0xffd90000
8010dbfc:	00000000 	nop
8010dc00:	ddff0000 	.word	0xffdd
8010dc04:	0000e1ff 	.word	0xffe10000
8010dc08:	00000000 	nop
8010dc0c:	e5ff0000 	.word	0xffe5
8010dc10:	0000eaff 	.word	0xffea0000
8010dc14:	00000000 	nop
8010dc18:	eeff0000 	.word	0xffee
8010dc1c:	0000f2ff 	.word	0xfff20000
8010dc20:	00000000 	nop
8010dc24:	f6ff0000 	.word	0xfff6
8010dc28:	0000faff 	.word	0xfffa0000
8010dc2c:	00000000 	nop
8010dc30:	fcff0000 	.word	0xfffc
8010dc34:	0000ffff 	.word	0xffff0000
	...
8010dc4c:	0000ffff 	.word	0xffff0000
8010dc50:	00000000 	nop
8010dc54:	fcff0000 	.word	0xfffc
8010dc58:	0000faff 	.word	0xfffa0000
8010dc5c:	00000000 	nop
8010dc60:	f6ff0000 	.word	0xfff6
8010dc64:	0000f2ff 	.word	0xfff20000
8010dc68:	00000000 	nop
8010dc6c:	eeff0000 	.word	0xffee
8010dc70:	0000eaff 	.word	0xffea0000
8010dc74:	00000000 	nop
8010dc78:	e5ff0000 	.word	0xffe5
8010dc7c:	0000e1ff 	.word	0xffe10000
8010dc80:	00000000 	nop
8010dc84:	ddff0000 	.word	0xffdd
8010dc88:	0000d9ff 	.word	0xffd90000
8010dc8c:	00000000 	nop
8010dc90:	d5ff0000 	.word	0xffd5
8010dc94:	0000d3ff 	.word	0xffd30000
8010dc98:	00000000 	nop
8010dc9c:	d0ff0000 	.word	0xffd0
8010dca0:	0000cfff 	.word	0xffcf0000
8010dca4:	00000000 	nop
8010dca8:	ceff0000 	.word	0xffce
8010dcac:	0000cfff 	.word	0xffcf0000
8010dcb0:	00000000 	nop
8010dcb4:	d0ff0000 	.word	0xffd0
8010dcb8:	0000d3ff 	.word	0xffd30000
8010dcbc:	00000000 	nop
8010dcc0:	d5ff0000 	.word	0xffd5
8010dcc4:	0000d9ff 	.word	0xffd90000
8010dcc8:	00000000 	nop
8010dccc:	ddff0000 	.word	0xffdd
8010dcd0:	0000e1ff 	.word	0xffe10000
8010dcd4:	00000000 	nop
8010dcd8:	e5ff0000 	.word	0xffe5
8010dcdc:	0000eaff 	.word	0xffea0000
8010dce0:	00000000 	nop
8010dce4:	eeff0000 	.word	0xffee
8010dce8:	0000f2ff 	.word	0xfff20000
8010dcec:	00000000 	nop
8010dcf0:	f6ff0000 	.word	0xfff6
8010dcf4:	0000faff 	.word	0xfffa0000
8010dcf8:	00000000 	nop
8010dcfc:	fcff0000 	.word	0xfffc
8010dd00:	0000ffff 	.word	0xffff0000
	...
8010dd18:	0000ffff 	.word	0xffff0000
8010dd1c:	00000000 	nop
8010dd20:	fcff0000 	.word	0xfffc
8010dd24:	0000faff 	.word	0xfffa0000
8010dd28:	00000000 	nop
8010dd2c:	f6ff0000 	.word	0xfff6
8010dd30:	0000f2ff 	.word	0xfff20000
8010dd34:	00000000 	nop
8010dd38:	eeff0000 	.word	0xffee
8010dd3c:	0000eaff 	.word	0xffea0000
8010dd40:	00000000 	nop
8010dd44:	e5ff0000 	.word	0xffe5
8010dd48:	0000e1ff 	.word	0xffe10000
8010dd4c:	00000000 	nop
8010dd50:	ddff0000 	.word	0xffdd
8010dd54:	0000d9ff 	.word	0xffd90000
8010dd58:	00000000 	nop
8010dd5c:	d5ff0000 	.word	0xffd5
8010dd60:	0000d3ff 	.word	0xffd30000
8010dd64:	00000000 	nop
8010dd68:	d0ff0000 	.word	0xffd0
8010dd6c:	0000cfff 	.word	0xffcf0000
8010dd70:	00000000 	nop
8010dd74:	ceff0000 	.word	0xffce
8010dd78:	0000cfff 	.word	0xffcf0000
8010dd7c:	00000000 	nop
8010dd80:	d0ff0000 	.word	0xffd0
8010dd84:	0000d3ff 	.word	0xffd30000
8010dd88:	00000000 	nop
8010dd8c:	d5ff0000 	.word	0xffd5
8010dd90:	0000d9ff 	.word	0xffd90000
8010dd94:	00000000 	nop
8010dd98:	ddff0000 	.word	0xffdd
8010dd9c:	0000e1ff 	.word	0xffe10000
8010dda0:	00000000 	nop
8010dda4:	e5ff0000 	.word	0xffe5
8010dda8:	0000eaff 	.word	0xffea0000
8010ddac:	00000000 	nop
8010ddb0:	eeff0000 	.word	0xffee
8010ddb4:	0000f2ff 	.word	0xfff20000
8010ddb8:	00000000 	nop
8010ddbc:	f6ff0000 	.word	0xfff6
8010ddc0:	0000faff 	.word	0xfffa0000
8010ddc4:	00000000 	nop
8010ddc8:	fcff0000 	.word	0xfffc
8010ddcc:	0000ffff 	.word	0xffff0000
	...
8010dde4:	0000ffff 	.word	0xffff0000
8010dde8:	00000000 	nop
8010ddec:	fcff0000 	.word	0xfffc
8010ddf0:	0000faff 	.word	0xfffa0000
8010ddf4:	00000000 	nop
8010ddf8:	f6ff0000 	.word	0xfff6
8010ddfc:	5f6566de 	.word	0xde66655f
8010de00:	28085f65 	.word	0x655f0828
8010de04:	66de2808 	j	0x80a37998
8010de08:	5f6566de 	.word	0xde66655f
8010de0c:	28085f65 	.word	0x655f0828
8010de10:	66de2808 	j	0x80a37998
8010de14:	5f6566de 	.word	0xde66655f
8010de18:	28085f65 	.word	0x655f0828
8010de1c:	66de2808 	j	0x80a37998
8010de20:	5f6566de 	.word	0xde66655f
8010de24:	28085f65 	.word	0x655f0828
8010de28:	66de2808 	j	0x80a37998
8010de2c:	5f6566de 	.word	0xde66655f
8010de30:	28085f65 	.word	0x655f0828
8010de34:	66de2808 	j	0x80a37998
8010de38:	5f6566de 	.word	0xde66655f
8010de3c:	28085f65 	.word	0x655f0828
8010de40:	66de2808 	j	0x80a37998
8010de44:	5f6566de 	.word	0xde66655f
8010de48:	28085f65 	.word	0x655f0828
8010de4c:	66de2808 	j	0x80a37998
8010de50:	5f6566de 	.word	0xde66655f
8010de54:	28085f65 	.word	0x655f0828
8010de58:	66de2808 	j	0x80a37998
8010de5c:	5f6566de 	.word	0xde66655f
8010de60:	28085f65 	.word	0x655f0828
8010de64:	66de2808 	j	0x80a37998
8010de68:	5f6566de 	.word	0xde66655f
8010de6c:	28085f65 	.word	0x655f0828
8010de70:	66de2808 	j	0x80a37998
8010de74:	5f6566de 	.word	0xde66655f
8010de78:	28085f65 	.word	0x655f0828
8010de7c:	66de2808 	j	0x80a37998
8010de80:	5f6566de 	.word	0xde66655f
8010de84:	28085f65 	.word	0x655f0828
8010de88:	66de2808 	j	0x80a37998
8010de8c:	5f6566de 	.word	0xde66655f
8010de90:	28085f65 	.word	0x655f0828
8010de94:	66de2808 	j	0x80a37998
8010de98:	5f6566de 	.word	0xde66655f
8010de9c:	28085f65 	.word	0x655f0828
8010dea0:	66de2808 	j	0x80a37998
8010dea4:	5f6566de 	.word	0xde66655f
8010dea8:	28085f65 	.word	0x655f0828
8010deac:	66de2808 	j	0x80a37998
8010deb0:	5f6566de 	.word	0xde66655f
8010deb4:	28085965 	.word	0x65590828
8010deb8:	94de2a08 	j	0x80ab7a50
8010debc:	5265c2de 	.word	0xdec26552
8010dec0:	2f084865 	.word	0x6548082f
8010dec4:	efde3708 	j	0x80df7bbc
8010dec8:	3e651bdf 	.word	0xdf1b653e
8010decc:	42083265 	.word	0x65320842
8010ded0:	47df4f08 	j	0x813f7d1c
8010ded4:	266572df 	.word	0xdf726526
8010ded8:	5f081965 	.word	0x6519085f
8010dedc:	9ddf7008 	j	0x81c37e74
8010dee0:	0b65c7df 	.word	0xdfc7650b
8010dee4:	8208fd64 	.word	0x64fd0882
8010dee8:	f0df9608 	j	0x825b7fc0
8010deec:	ee6419e0 	swc0	$25,25838(zero)
8010def0:	ab08df64 	.word	0x64df08ab
8010def4:	42e0c108 	j	0x83078108
8010def8:	cf646ae0 	swc0	c0_entryhi,25807(v1)
8010defc:	d808bf64 	.word	0x64bf08d8
8010df00:	91e0f108 	j	0x83c78244
8010df04:	af64b9e0 	swc0	$25,25775(a1)
8010df08:	09099e64 	.word	0x649e0909
8010df0c:	dfe02309 	j	0x848f837c
8010df10:	8e6406e1 	swc0	$6,25742(t0)
8010df14:	3d097d64 	.word	0x647d093d
8010df18:	2ce15809 	j	0x856384b0
8010df1c:	6b6452e1 	swc0	$18,25707(t2)
8010df20:	74095a64 	.word	0x645a0974
8010df24:	78e19009 	j	0x864385e0
8010df28:	48649de1 	swc0	$29,25672(t4)
8010df2c:	ad093764 	.word	0x643709ad
8010df30:	c2e1ca09 	j	0x872b8708
8010df34:	2564e7e1 	swc0	$7,25637(t7)
8010df38:	e8091364 	.word	0x641309e8
8010df3c:	0ce2070a 	j	0x881f8830
8010df40:	016430e2 	swc0	$16,25601(s1)
8010df44:	260aef63 	.word	0x63ef0a26
8010df48:	54e2450a 	j	0x89178950
8010df4c:	dd6378e2 	swc0	$24,25565(s3)
8010df50:	650acb63 	.word	0x63cb0a65
8010df54:	9ce2850a 	j	0x8a178a70
8010df58:	b863bfe2 	swc0	$31,25528(s5)
8010df5c:	a60aa663 	.word	0x63a60aa6
8010df60:	e3e2c70a 	j	0x8b1f8b8c
8010df64:	936306e3 	swc0	$6,25491(t8)
8010df68:	e80a8163 	.word	0x63810ae8
8010df6c:	28e30a0b 	j	0x8c2b8ca0
8010df70:	6f634be3 	swc0	$11,25455(k0)
8010df74:	2d0b5c63 	.word	0x635c0b2d
8010df78:	6de34f0b 	j	0x8d3f8db4
8010df7c:	4a638fe3 	swc0	c0_prid,25418(gp)
8010df80:	730b3763 	.word	0x63370b73
8010df84:	b1e3960b 	j	0x8e5b8ec4
8010df88:	2563d3e3 	swc0	$19,25381(s8)
8010df8c:	ba0b1363 	.word	0x63130bba
8010df90:	f4e3de0b 	j	0x8f7b8fd0
8010df94:	016315e4 	swc1	$f21,25345(zero)
8010df98:	030cef62 	.word	0x62ef0c03
8010df9c:	36e4280c 	jal	0x80a390d8
8010dfa0:	dd6256e4 	swc1	$f22,25309(v0)
8010dfa4:	4e0ccb62 	.word	0x62cb0c4e
8010dfa8:	77e4740c 	jal	0x81d391dc
8010dfac:	b96297e4 	swc1	$f23,25273(a0)
8010dfb0:	9b0ca862 	.word	0x62a80c9b
8010dfb4:	b6e4c20c 	jal	0x830b92d8
8010dfb8:	9762d5e4 	swc1	$f21,25239(a2)
8010dfbc:	e90c8662 	.word	0x62860ce9
8010dfc0:	f4e4110d 	jal	0x844793d0
8010dfc4:	766212e5 	swc1	$f18,25206(t0)
8010dfc8:	3a0d6662 	.word	0x62660d3a
8010dfcc:	30e5630d 	jal	0x858f94c0
8010dfd0:	56624de5 	swc1	$f13,25174(t2)
8010dfd4:	8d0d4862 	.word	0x62480d8d
8010dfd8:	69e5b80d 	jal	0x86e395a4
8010dfdc:	3a6285e5 	swc1	$f5,25146(t4)
8010dfe0:	e40d2d62 	.word	0x622d0de4
8010dfe4:	9fe5110e 	jal	0x8847967c
8010dfe8:	2262b8e5 	swc1	$f24,25122(t5)
8010dfec:	3f0e1862 	.word	0x62180e3f
8010dff0:	cfe56e0e 	jal	0x89bb973c
8010dff4:	0f62e6e5 	swc1	$f6,25103(t7)
8010dff8:	9e0e0762 	.word	0x62070e9e
8010dffc:	fbe5ce0e 	jal	0x8b3b97ec
8010e000:	ff610fe6 	swc1	$f15,25087(s0)
8010e004:	ff0ef961 	.word	0x61f90eff
8010e008:	22e6310f 	jal	0x8cc79888
8010e00c:	f46134e6 	swc1	$f20,25076(s1)
8010e010:	630ff061 	.word	0x61f00f63
8010e014:	44e6960f 	jal	0x8e5b9910
8010e018:	ee6152e6 	swc1	$f18,25070(s2)
8010e01c:	ca0fed61 	.word	0x61ed0fca
8010e020:	5fe6fe0f 	jal	0x8ffb997c
8010e024:	ef616ae6 	swc1	$f10,25071(s3)
8010e028:	3210f261 	.word	0x61f21032
8010e02c:	73e66710 	beq	v1,a3,0x801079fc
8010e030:	f8617ae6 	swc1	$f26,25080(s3)
8010e034:	9b100062 	.word	0x6200109b
8010e038:	7fe6d010 	beq	a2,s0,0x80107a38
8010e03c:	0a6281e6 	swc1	$f1,25098(s4)
8010e040:	04111762 	.word	0x62171104
8010e044:	81e63811 	beq	t1,t8,0x80107a4c
8010e048:	27627fe6 	swc1	$f31,25127(s3)
8010e04c:	6b113a62 	.word	0x623a116b
8010e050:	7be69d11 	beq	t4,sp,0x80107a40
8010e054:	4f6275e6 	swc1	$f21,25167(s3)
8010e058:	cd116662 	.word	0x626611cd
8010e05c:	6de6fc11 	beq	t7,gp,0x80107a14
8010e060:	7f6264e6 	swc1	$f4,25215(s3)
8010e064:	2a129b62 	.word	0x629b122a
8010e068:	58e65512 	beq	s2,s5,0x801079cc
8010e06c:	b9624be6 	swc1	$f11,25273(s2)
8010e070:	7f12d862 	.word	0x62d8127f
8010e074:	3ee6a812 	beq	s5,t0,0x80107970
8010e078:	f8622fe6 	swc1	$f15,25336(s1)
8010e07c:	ce121a63 	.word	0x631a12ce
8010e080:	1fe6f312 	beq	s7,s3,0x80107900
8010e084:	3e630ee6 	swc1	$f14,25406(s0)
8010e088:	16136463 	.word	0x63641316
8010e08c:	fbe53613 	beq	t9,s6,0x8010787c
8010e090:	8b63e8e5 	swc1	$f8,25483(t7)
8010e094:	5313b263 	.word	0x63b21353
8010e098:	d4e56e13 	beq	k1,t6,0x801077ec
8010e09c:	db63bfe5 	swc1	$f31,25563(t5)
8010e0a0:	88130464 	.word	0x64041388
8010e0a4:	aae5a013 	beqz	sp,0x80107750
8010e0a8:	2d6495e5 	swc1	$f21,25645(t4)
8010e0ac:	b7135664 	.word	0x645613b7
8010e0b0:	7fe5ce13 	beq	s8,t6,0x801076b0
8010e0b4:	80646ae5 	swc1	$f10,25728(t3)
8010e0b8:	e413a964 	.word	0x64a913e4
8010e0bc:	54e5fa13 	beq	ra,k0,0x80107610
8010e0c0:	d3643ee5 	swc1	$f30,25811(t1)
8010e0c4:	0f14fc64 	.word	0x64fc140f
8010e0c8:	28e52414 	bne	at,a0,0x8010756c
8010e0cc:	256513e5 	swc1	$f19,25893(t0)
8010e0d0:	38144f65 	.word	0x654f1438
8010e0d4:	fde44d14 	bne	v0,t5,0x801074cc
8010e0d8:	7865e7e4 	swc1	$f7,25976(a3)
8010e0dc:	6114a165 	.word	0x65a11461
8010e0e0:	d2e47614 	bne	v1,s6,0x8010742c
8010e0e4:	c965bce4 	swc1	$f28,26057(a1)
8010e0e8:	8a14f265 	.word	0x65f2148a
8010e0ec:	a7e49f14 	bne	a0,ra,0x8010738c
8010e0f0:	1a6691e4 	swc1	$f17,26138(a0)
8010e0f4:	b4144266 	.word	0x664214b4
8010e0f8:	7ce4c914 	bne	a2,t1,0x801072ec
8010e0fc:	6a6667e4 	swc1	$f7,26218(v1)
8010e100:	de149166 	.word	0x669114de
8010e104:	52e4f414 	bne	a3,s4,0x80107250
8010e108:	b9663ee4 	swc1	$f30,26297(at)
8010e10c:	0a15df66 	.word	0x66df150a
8010e110:	29e42015 	bnez	t1,0x801071b8
8010e114:	066715e4 	swc1	$f21,26374(zero)
8010e118:	37152c67 	.word	0x672c1537
8010e11c:	01e44e15 	bne	t2,t6,0x80107124
8010e120:	5167eee3 	swc0	c0_epc,26449(ra)
8010e124:	66157667 	.word	0x67761566
8010e128:	dae37e15 	bne	t3,s8,0x80107094
8010e12c:	9b67c7e3 	swc0	$7,26523(s8)
8010e130:	9715bf67 	.word	0x67bf1597
8010e134:	b4e3b015 	bne	t5,s0,0x80107008
8010e138:	e267a2e3 	swc0	c0_entrylo,26594(sp)
8010e13c:	ca150568 	.word	0x680515ca
8010e140:	90e3e415 	bne	t7,a0,0x80106f84
8010e144:	28687ee3 	swc0	$30,26664(k1)
8010e148:	ff154968 	.word	0x684915ff
8010e14c:	6de31b16 	bne	s0,k1,0x80106f04
8010e150:	6a685ce3 	swc0	$28,26730(k0)
8010e154:	38168a68 	.word	0x688a1638
8010e158:	4ce35516 	bne	s2,s5,0x80106e8c
8010e15c:	a9683ce3 	swc0	$28,26793(t9)
8010e160:	7316c768 	.word	0x68c71673
8010e164:	2de39216 	bne	s4,s2,0x80106e1c
8010e168:	e5681ee3 	swc0	$30,26853(t8)
8010e16c:	b2160169 	.word	0x690116b2
8010e170:	10e3d316 	bne	s6,s3,0x80106db4
8010e174:	1c6903e3 	swc0	$3,26908(t8)
8010e178:	f4163669 	.word	0x693616f4
8010e17c:	f6e21617 	bne	t8,s6,0x80106d58
8010e180:	4f69eae2 	swc0	c0_entryhi,26959(s7)
8010e184:	39176769 	.word	0x69671739
8010e188:	dfe25d17 	bne	k0,sp,0x80106d08
8010e18c:	7d69d4e2 	swc0	$20,27005(s6)
8010e190:	81179269 	.word	0x69921781
8010e194:	cbe2a617 	bne	sp,a2,0x80106cc4
8010e198:	a569c2e2 	swc0	c0_entrylo,27045(s6)
8010e19c:	cc17b769 	.word	0x69b717cc
8010e1a0:	bae2f217 	bne	ra,s2,0x80106c8c
8010e1a4:	c869b3e2 	swc0	$19,27080(s5)
8010e1a8:	1918d769 	.word	0x69d71819
8010e1ac:	ade24018 	blez	v0,0x80106c64
8010e1b0:	e669a8e2 	swc0	c0_badvaddr,27110(s5)
8010e1b4:	6718f369 	.word	0x69f31867
8010e1b8:	a4e28e18 	.word	0x188ee2a4
8010e1bc:	ff69a2e2 	swc0	c0_entrylo,27135(s5)
8010e1c0:	b5180b6a 	.word	0x6a0b18b5
8010e1c4:	a0e2dd18 	.word	0x18dde2a0
8010e1c8:	166a9fe2 	swc0	$31,27158(s4)
8010e1cc:	0419206a 	.word	0x6a201904
8010e1d0:	9ee22b19 	.word	0x192be29e
8010e1d4:	296a9fe2 	swc0	$31,27177(s4)
8010e1d8:	5219316a 	.word	0x6a311952
8010e1dc:	a0e27919 	.word	0x1979e2a0
8010e1e0:	396aa2e2 	swc0	c0_entrylo,27193(s5)
8010e1e4:	9f19406a 	.word	0x6a40199f
8010e1e8:	a4e2c519 	.word	0x19c5e2a4
8010e1ec:	466aa7e2 	swc0	$7,27206(s5)
8010e1f0:	eb194c6a 	.word	0x6a4c19eb
8010e1f4:	abe2111a 	.word	0x1a11e2ab
8010e1f8:	526aafe2 	swc0	c0_prid,27218(s5)
8010e1fc:	361a566a 	.word	0x6a561a36
8010e200:	b3e25b1a 	.word	0x1a5be2b3
8010e204:	5b6ab8e2 	swc0	$24,27227(s5)
8010e208:	7f1a5f6a 	.word	0x6a5f1a7f
8010e20c:	bde2a31a 	.word	0x1aa3e2bd
8010e210:	626ac3e2 	swc0	$3,27234(s6)
8010e214:	c71a656a 	.word	0x6a651ac7
8010e218:	c9e2ea1a 	.word	0x1aeae2c9
8010e21c:	686acfe2 	swc0	c0_prid,27240(s6)
8010e220:	0d1b6a6a 	.word	0x6a6a1b0d
8010e224:	d5e22f1b 	.word	0x1b2fe2d5
8010e228:	6c6adce2 	swc0	$28,27244(s6)
8010e22c:	511b6e6a 	.word	0x6a6e1b51
8010e230:	e2e2721b 	.word	0x1b72e2e2
8010e234:	6f6ae9e2 	swc0	$9,27247(s7)
8010e238:	931b716a 	.word	0x6a711b93
8010e23c:	f1e2b41b 	.word	0x1bb4e2f1
8010e240:	716af8e2 	swc0	$24,27249(s7)
8010e244:	d41b726a 	.word	0x6a721bd4
8010e248:	ffe2f31b 	.word	0x1bf3e2ff
8010e24c:	726a07e3 	swc0	$7,27250(t8)
8010e250:	121c736a 	.word	0x6a731c12
8010e254:	0ee3311c 	.word	0x1c31e30e
8010e258:	736a16e3 	swc0	$22,27251(t8)
8010e25c:	4f1c726a 	.word	0x6a721c4f
8010e260:	1ee36c1c 	.word	0x1c6ce31e
8010e264:	726a26e3 	swc0	$6,27250(t9)
8010e268:	891c726a 	.word	0x6a721c89
8010e26c:	2ee3a61c 	.word	0x1ca6e32e
8010e270:	716a36e3 	swc0	$22,27249(t9)
8010e274:	c21c706a 	.word	0x6a701cc2
8010e278:	3ee3de1c 	.word	0x1cdee33e
8010e27c:	6f6a45e3 	swc0	$5,27247(k0)
8010e280:	f91c6e6a 	.word	0x6a6e1cf9
8010e284:	4de3131d 	.word	0x1d13e34d
8010e288:	6d6a55e3 	swc0	$21,27245(k0)
8010e28c:	2d1d6c6a 	.word	0x6a6c1d2d
8010e290:	5de3471d 	.word	0x1d47e35d
8010e294:	6a6a65e3 	swc0	$5,27242(k1)
8010e298:	601d696a 	.word	0x6a691d60
8010e29c:	6de3781d 	.word	0x1d78e36d
8010e2a0:	676a75e3 	swc0	$21,27239(k1)
8010e2a4:	901d666a 	.word	0x6a661d90
8010e2a8:	7ce3a81d 	.word	0x1da8e37c
8010e2ac:	646a84e3 	swc0	c0_context,27236(gp)
8010e2b0:	bf1d626a 	.word	0x6a621dbf
8010e2b4:	8be3d51d 	.word	0x1dd5e38b
8010e2b8:	606a93e3 	swc0	$19,27232(gp)
8010e2bc:	eb1d5f6a 	.word	0x6a5f1deb
8010e2c0:	9ae3001e 	bgtz	s0,0x8010712c
8010e2c4:	5d6aa1e3 	swc0	c0_random,27229(sp)
8010e2c8:	151e5b6a 	.word	0x6a5b1e15
8010e2cc:	a8e3291e 	.word	0x1e29e3a8
8010e2d0:	596ab0e3 	swc0	$16,27225(sp)
8010e2d4:	3d1e576a 	.word	0x6a571e3d
8010e2d8:	b6e3501e 	.word	0x1e50e3b6
8010e2dc:	556abde3 	swc0	$29,27221(sp)
8010e2e0:	631e536a 	.word	0x6a531e63
8010e2e4:	c4e3751e 	.word	0x1e75e3c4
8010e2e8:	516acae3 	swc0	c0_entryhi,27217(s8)
8010e2ec:	861e4f6a 	.word	0x6a4f1e86
8010e2f0:	d1e3971e 	.word	0x1e97e3d1
8010e2f4:	4d6ad7e3 	swc0	$23,27213(s8)
8010e2f8:	a81e4c6a 	.word	0x6a4c1ea8
8010e2fc:	dde3b71e 	.word	0x1eb7e3dd
8010e300:	4a6ae3e3 	swc0	$3,27210(ra)
8010e304:	c71e486a 	.word	0x6a481ec7
8010e308:	e8e3d51e 	.word	0x1ed5e3e8
8010e30c:	466aeee3 	swc0	c0_epc,27206(ra)
8010e310:	e41e446a 	.word	0x6a441ee4
8010e314:	f3e3f11e 	.word	0x1ef1e3f3
8010e318:	436af8e3 	swc0	$24,27203(ra)
8010e31c:	fe1e416a 	.word	0x6a411efe
8010e320:	fde30b1f 	.word	0x1f0be3fd
8010e324:	3f6a02e4 	swc1	$f2,27199(zero)
8010e328:	161f3e6a 	.word	0x6a3e1f16
8010e32c:	07e4221f 	.word	0x1f22e407
8010e330:	3c6a0be4 	swc1	$f11,27196(zero)
8010e334:	2c1f3b6a 	.word	0x6a3b1f2c
8010e338:	0fe4361f 	.word	0x1f36e40f
8010e33c:	396a13e4 	swc1	$f19,27193(zero)
8010e340:	401f386a 	.word	0x6a381f40
8010e344:	17e4491f 	.word	0x1f49e417
8010e348:	366a1ae4 	swc1	$f26,27190(zero)
8010e34c:	511f356a 	.word	0x6a351f51
8010e350:	1de4591f 	.word	0x1f59e41d
8010e354:	346a20e4 	swc1	$f0,27188(at)
8010e358:	601f336a 	.word	0x6a331f60
8010e35c:	23e4661f 	.word	0x1f66e423
8010e360:	326a26e4 	swc1	$f6,27186(at)
8010e364:	6c1f316a 	.word	0x6a311f6c
8010e368:	28e4721f 	.word	0x1f72e428
8010e36c:	306a2ae4 	swc1	$f10,27184(at)
8010e370:	761f306a 	.word	0x6a301f76
8010e374:	2ce47a1f 	.word	0x1f7ae42c
8010e378:	2f6a2de4 	swc1	$f13,27183(at)
8010e37c:	7e1f2f6a 	.word	0x6a2f1f7e
8010e380:	2ee4811f 	.word	0x1f81e42e
8010e384:	2e6a2fe4 	swc1	$f15,27182(at)
8010e388:	831f2e6a 	.word	0x6a2e1f83
8010e38c:	30e4841f 	.word	0x1f84e430
8010e390:	2e6a30e4 	swc1	$f16,27182(at)
8010e394:	851f2e6a 	.word	0x6a2e1f85
8010e398:	31e4851f 	.word	0x1f85e431
8010e39c:	ffff0000 	.word	0xffff
8010e3a0:	ffff0000 	.word	0xffff
8010e3a4:	00000000 	nop
8010e3a8:	cfff0000 	.word	0xffcf
8010e3ac:	0000f8ff 	.word	0xfff80000
8010e3b0:	d7ff2100 	.word	0x21ffd7
8010e3b4:	0200feff 	.word	0xfffe0002
8010e3b8:	00002b00 	.word	0x2b0000
8010e3bc:	0300feff 	.word	0xfffe0003
8010e3c0:	00002a00 	.word	0x2a0000
8010e3c4:	0000f8ff 	.word	0xfff80000
8010e3c8:	d7ffdfff 	.word	0xffdfffd7
8010e3cc:	0500feff 	.word	0xfffe0005
8010e3d0:	0000d5ff 	.word	0xffd50000
8010e3d4:	0600feff 	.word	0xfffe0006
8010e3d8:	0000d6ff 	.word	0xffd60000
8010e3dc:	ffff0000 	.word	0xffff
8010e3e0:	ffff0000 	.word	0xffff
8010e3e4:	0800fbff 	.word	0xfffb0008
8010e3e8:	24001000 	and	zero,zero,s0
8010e3ec:	09000100 	.word	0x10009
8010e3f0:	27000200 	nor	zero,zero,v0
8010e3f4:	0a00fdff 	.word	0xfffd000a
8010e3f8:	39000000 	.word	0x39
8010e3fc:	0800fbff 	.word	0xfffb0008
8010e400:	2400f1ff 	.word	0xfff10024
8010e404:	0c000100 	syscall	0x400
8010e408:	2700feff 	.word	0xfffe0027
8010e40c:	0d00fdff 	.word	0xfffd000d
8010e410:	39000000 	.word	0x39
8010e414:	ffff0000 	.word	0xffff
8010e418:	ffff0000 	.word	0xffff
8010e41c:	00000000 	nop
8010e420:	22001800 	neg	zero,t8
8010e424:	01000200 	.word	0x20001
8010e428:	36000200 	.word	0x20036
8010e42c:	0200feff 	.word	0xfffe0002
8010e430:	3000ffff 	.word	0xffff0030
8010e434:	00000000 	nop
8010e438:	2200e8ff 	.word	0xffe80022
8010e43c:	04000200 	sllv	zero,v0,zero
8010e440:	3600feff 	.word	0xfffe0036
8010e444:	0500feff 	.word	0xfffe0005
8010e448:	30000100 	.word	0x10030
8010e44c:	0000eaff 	.word	0xffea0000
8010e450:	08000000 	jr	zero
8010e454:	ffff0000 	.word	0xffff
8010e458:	ffff0000 	.word	0xffff
8010e45c:	08000000 	jr	zero
8010e460:	bcff0000 	.word	0xffbc
8010e464:	08000200 	.word	0x20008
8010e468:	c3ff2500 	.word	0x25ffc3
8010e46c:	0a00feff 	.word	0xfffe000a
8010e470:	ffff3600 	.word	0x36ffff
8010e474:	0b000000 	.word	0xb
8010e478:	00003900 	.word	0x390000
8010e47c:	08000100 	.word	0x10008
8010e480:	c3ffdbff 	.word	0xffdbffc3
8010e484:	0d00feff 	.word	0xfffe000d
8010e488:	0100caff 	.word	0xffca0001
8010e48c:	0e000000 	.word	0xe
8010e490:	0400c5ff 	.word	0xffc50004
8010e494:	0e000000 	.word	0xe
8010e498:	0000c7ff 	.word	0xffc70000
8010e49c:	ffff0000 	.word	0xffff
	...
8010e4a8:	c4ff0000 	.word	0xffc4
8010e4ac:	00000000 	nop
8010e4b0:	c9ff2d00 	.word	0x2dffc9
8010e4b4:	02000000 	srl	zero,zero,0x0
8010e4b8:	00003100 	.word	0x310000
8010e4bc:	03000000 	sra	zero,zero,0x0
8010e4c0:	00003600 	.word	0x360000
8010e4c4:	00000000 	nop
8010e4c8:	c9ffd3ff 	.word	0xffd3ffc9
8010e4cc:	05000000 	.word	0x5
8010e4d0:	0000cfff 	.word	0xffcf0000
8010e4d4:	06000000 	srlv	zero,zero,zero
8010e4d8:	0000caff 	.word	0xffca0000
8010e4dc:	00000000 	nop
8010e4e0:	1e000000 	.word	0x1e
8010e4e4:	0800edff 	.word	0xffed0008
8010e4e8:	00002100 	.word	0x210000
8010e4ec:	09000000 	jalr	zero,zero
8010e4f0:	36000000 	.word	0x36
8010e4f4:	0800edff 	.word	0xffed0008
8010e4f8:	0000dfff 	.word	0xffdf0000
8010e4fc:	0b000000 	.word	0xb
8010e500:	37000000 	.word	0x37
8010e504:	ffff0000 	.word	0xffff
8010e508:	f8ff0000 	.word	0xfff8
8010e50c:	00000000 	nop
8010e510:	bbff0000 	.word	0xffbb
8010e514:	0000ffff 	.word	0xffff0000
8010e518:	cbff3600 	.word	0x36ffcb
8010e51c:	02000300 	srl	zero,v1,0x0
8010e520:	00003900 	.word	0x390000
8010e524:	03000000 	sra	zero,zero,0x0
8010e528:	00003100 	.word	0x310000
8010e52c:	0000ffff 	.word	0xffff0000
8010e530:	cbffcaff 	.word	0xffcaffcb
8010e534:	05000300 	.word	0x30005
8010e538:	0000c7ff 	.word	0xffc70000
8010e53c:	06000000 	srlv	zero,zero,zero
8010e540:	0000cfff 	.word	0xffcf0000
8010e544:	ffff0000 	.word	0xffff
8010e548:	f8ff0000 	.word	0xfff8
8010e54c:	08000000 	jr	zero
8010e550:	20002300 	add	zero,at,v1
8010e554:	09000000 	jalr	zero,zero
8010e558:	34000000 	.word	0x34
8010e55c:	0a000000 	.word	0xa
8010e560:	27000000 	nor	zero,zero,zero
8010e564:	08000000 	jr	zero
8010e568:	2000ddff 	.word	0xffdd0020
8010e56c:	0c000000 	syscall
8010e570:	34000000 	.word	0x34
8010e574:	0d000000 	break
8010e578:	27000000 	nor	zero,zero,zero
8010e57c:	ffff0000 	.word	0xffff
8010e580:	02000000 	srl	zero,zero,0x0
8010e584:	00000a00 	sll	zero,t2,0x0
8010e588:	9dff0000 	.word	0xff9d
8010e58c:	00000c00 	sll	zero,t4,0x0
8010e590:	abff5000 	.word	0x50ffab
8010e594:	0200fcff 	.word	0xfffc0002
8010e598:	00004b00 	.word	0x4b0000
8010e59c:	0300fdff 	.word	0xfffd0003
8010e5a0:	00003b00 	.word	0x3b0000
8010e5a4:	00000c00 	sll	zero,t4,0x0
8010e5a8:	abffb0ff 	.word	0xffb0ffab
8010e5ac:	0500fcff 	.word	0xfffc0005
8010e5b0:	0000b4ff 	.word	0xffb40000
8010e5b4:	0600fdff 	.word	0xfffd0006
8010e5b8:	0000c7ff 	.word	0xffc70000
8010e5bc:	ffff0000 	.word	0xffff
8010e5c0:	02000000 	srl	zero,zero,0x0
8010e5c4:	08000000 	jr	zero
8010e5c8:	20002c00 	add	zero,at,t4
8010e5cc:	09000100 	.word	0x10009
8010e5d0:	39000300 	.word	0x30039
8010e5d4:	0a00fdff 	.word	0xfffd000a
8010e5d8:	2e000100 	.word	0x1002e
8010e5dc:	08000000 	jr	zero
8010e5e0:	2000ceff 	.word	0xffce0020
8010e5e4:	0c000100 	syscall	0x400
8010e5e8:	3900fdff 	.word	0xfffd0039
8010e5ec:	0d00fdff 	.word	0xfffd000d
8010e5f0:	2e00ffff 	.word	0xffff002e
8010e5f4:	ffff0000 	.word	0xffff
8010e5f8:	00000000 	nop
8010e5fc:	00000400 	sll	zero,a0,0x0
8010e600:	dbff0000 	.word	0xffdb
8010e604:	00000200 	sll	zero,v0,0x0
8010e608:	ddff2700 	.word	0x27ffdd
8010e60c:	0200feff 	.word	0xfffe0002
8010e610:	00002800 	.word	0x280000
8010e614:	0300ffff 	.word	0xffff0003
8010e618:	00002200 	.word	0x220000
8010e61c:	00000200 	sll	zero,v0,0x0
8010e620:	ddffd9ff 	.word	0xffd9ffdd
8010e624:	0500feff 	.word	0xfffe0005
8010e628:	0000d7ff 	.word	0xffd70000
8010e62c:	0600ffff 	.word	0xffff0006
8010e630:	0000deff 	.word	0xffde0000
8010e634:	ffff0000 	.word	0xffff
8010e638:	00000000 	nop
8010e63c:	08000000 	jr	zero
8010e640:	11001800 	.word	0x180011
8010e644:	09000000 	jalr	zero,zero
8010e648:	21000100 	addu	zero,zero,at
8010e64c:	0a00feff 	.word	0xfffe000a
8010e650:	1c000000 	.word	0x1c
8010e654:	08000000 	jr	zero
8010e658:	1100e8ff 	.word	0xffe80011
8010e65c:	0c000000 	syscall
8010e660:	2100ffff 	.word	0xffff0021
8010e664:	0d00feff 	.word	0xfffe000d
8010e668:	1c000000 	.word	0x1c
8010e66c:	0600ffff 	.word	0xffff0006
8010e670:	0000deff 	.word	0xffde0000
8010e674:	ffff0000 	.word	0xffff
8010e678:	ffff0000 	.word	0xffff
8010e67c:	00000500 	sll	zero,a1,0x0
8010e680:	ceff0000 	.word	0xffce
8010e684:	00000200 	sll	zero,v0,0x0
8010e688:	d4ff2e00 	.word	0x2effd4
8010e68c:	0200feff 	.word	0xfffe0002
8010e690:	00003000 	.word	0x300000
8010e694:	0300feff 	.word	0xfffe0003
8010e698:	00002e00 	.word	0x2e0000
8010e69c:	00000200 	sll	zero,v0,0x0
8010e6a0:	d4ffd2ff 	.word	0xffd2ffd4
8010e6a4:	0500feff 	.word	0xfffe0005
8010e6a8:	0000d0ff 	.word	0xffd00000
8010e6ac:	0600feff 	.word	0xfffe0006
8010e6b0:	0000d2ff 	.word	0xffd20000
8010e6b4:	ffff0000 	.word	0xffff
8010e6b8:	ffff0000 	.word	0xffff
8010e6bc:	08000000 	jr	zero
8010e6c0:	20001700 	add	zero,zero,s7
8010e6c4:	09000000 	jalr	zero,zero
8010e6c8:	21000100 	addu	zero,zero,at
8010e6cc:	0a00ffff 	.word	0xffff000a
8010e6d0:	0f000000 	.word	0xf
8010e6d4:	08000000 	jr	zero
8010e6d8:	2000e9ff 	.word	0xffe90020
8010e6dc:	0c000000 	syscall
8010e6e0:	2100ffff 	.word	0xffff0021
8010e6e4:	0d00ffff 	.word	0xffff000d
8010e6e8:	0f000000 	.word	0xf
8010e6ec:	ffff0000 	.word	0xffff
8010e6f0:	ffff0000 	.word	0xffff
8010e6f4:	00000500 	sll	zero,a1,0x0
8010e6f8:	ccff0000 	syscall	0x3ff
8010e6fc:	00000300 	sll	zero,v1,0x0
8010e700:	d1ff3000 	.word	0x30ffd1
8010e704:	0200feff 	.word	0xfffe0002
8010e708:	00003200 	.word	0x320000
8010e70c:	0300feff 	.word	0xfffe0003
8010e710:	00003100 	.word	0x310000
8010e714:	00000200 	sll	zero,v0,0x0
8010e718:	d2ffd1ff 	.word	0xffd1ffd2
8010e71c:	0500feff 	.word	0xfffe0005
8010e720:	0000cdff 	.word	0xffcd0000
8010e724:	0600feff 	.word	0xfffe0006
8010e728:	0000cfff 	.word	0xffcf0000
8010e72c:	ffff0000 	.word	0xffff
8010e730:	ffff0000 	.word	0xffff
8010e734:	08000100 	.word	0x10008
8010e738:	39001800 	.word	0x180039
8010e73c:	09000000 	jalr	zero,zero
8010e740:	17000100 	.word	0x10017
8010e744:	0a00ffff 	.word	0xffff000a
8010e748:	16000000 	.word	0x16
8010e74c:	08000000 	jr	zero
8010e750:	3900e8ff 	.word	0xffe80039
8010e754:	0c000000 	syscall
8010e758:	1700ffff 	.word	0xffff0017
8010e75c:	0d00ffff 	.word	0xffff000d
8010e760:	16000000 	.word	0x16
8010e764:	ffff0000 	.word	0xffff
8010e768:	ffff0000 	.word	0xffff
8010e76c:	00000500 	sll	zero,a1,0x0
8010e770:	d0ff0000 	.word	0xffd0
8010e774:	00000200 	sll	zero,v0,0x0
8010e778:	d6ff2c00 	.word	0x2cffd6
8010e77c:	0200feff 	.word	0xfffe0002
8010e780:	00002e00 	.word	0x2e0000
8010e784:	0300feff 	.word	0xfffe0003
8010e788:	00002c00 	.word	0x2c0000
8010e78c:	00000200 	sll	zero,v0,0x0
8010e790:	d6ffd4ff 	.word	0xffd4ffd6
8010e794:	0500feff 	.word	0xfffe0005
8010e798:	0000d2ff 	.word	0xffd20000
8010e79c:	0600feff 	.word	0xfffe0006
8010e7a0:	0000d4ff 	.word	0xffd40000
8010e7a4:	ffff0000 	.word	0xffff
8010e7a8:	ffff0000 	.word	0xffff
8010e7ac:	08000000 	jr	zero
8010e7b0:	19001600 	multu	zero,s6
8010e7b4:	09000000 	jalr	zero,zero
8010e7b8:	20000100 	add	zero,zero,at
8010e7bc:	0a00ffff 	.word	0xffff000a
8010e7c0:	0e000000 	.word	0xe
8010e7c4:	08000000 	jr	zero
8010e7c8:	1900eaff 	.word	0xffea0019
8010e7cc:	0c000000 	syscall
8010e7d0:	2000ffff 	.word	0xffff0020
8010e7d4:	0d00ffff 	.word	0xffff000d
8010e7d8:	0e000000 	.word	0xe
8010e7dc:	ffff0000 	.word	0xffff
8010e7e0:	ffff0000 	.word	0xffff
8010e7e4:	00000000 	nop
8010e7e8:	c5ff0000 	.word	0xffc5
8010e7ec:	0000fdff 	.word	0xfffd0000
8010e7f0:	cfff3200 	.word	0x32ffcf
8010e7f4:	0200feff 	.word	0xfffe0002
8010e7f8:	00003000 	.word	0x300000
8010e7fc:	0300fdff 	.word	0xfffd0003
8010e800:	00003600 	.word	0x360000
8010e804:	0000fdff 	.word	0xfffd0000
8010e808:	cfffceff 	.word	0xffceffcf
8010e80c:	0500feff 	.word	0xfffe0005
8010e810:	0000d0ff 	.word	0xffd00000
8010e814:	0600fdff 	.word	0xfffd0006
8010e818:	0000caff 	.word	0xffca0000
8010e81c:	ffff0000 	.word	0xffff
8010e820:	ffff0000 	.word	0xffff
8010e824:	08000000 	jr	zero
8010e828:	2b001300 	sltu	zero,zero,s3
8010e82c:	09000100 	.word	0x10009
8010e830:	2f000200 	.word	0x2002f
8010e834:	0a00fcff 	.word	0xfffc000a
8010e838:	45000000 	.word	0x45
8010e83c:	08000000 	jr	zero
8010e840:	2b00edff 	.word	0xffed002b
8010e844:	0c000100 	syscall	0x400
8010e848:	2f00feff 	.word	0xfffe002f
8010e84c:	0d00fcff 	.word	0xfffc000d
8010e850:	44000000 	.word	0x44
8010e854:	ffff0000 	.word	0xffff
8010e858:	03000000 	sra	zero,zero,0x0
8010e85c:	00000c00 	sll	zero,t4,0x0
8010e860:	92ff0000 	.word	0xff92
8010e864:	00000800 	sll	zero,t0,0x0
8010e868:	9dff6100 	.word	0x61ff9d
8010e86c:	0200feff 	.word	0xfffe0002
8010e870:	00004100 	.word	0x410000
8010e874:	0300fdff 	.word	0xfffd0003
8010e878:	00003f00 	.word	0x3f0000
8010e87c:	00000800 	sll	zero,t0,0x0
8010e880:	9dff9fff 	.word	0xff9fff9d
8010e884:	0500fdff 	.word	0xfffd0005
8010e888:	0000bfff 	.word	0xffbf0000
8010e88c:	0600fdff 	.word	0xfffd0006
8010e890:	0000c3ff 	.word	0xffc30000
8010e894:	ffff0000 	.word	0xffff
8010e898:	03000000 	sra	zero,zero,0x0
8010e89c:	08000100 	.word	0x10008
8010e8a0:	28003200 	.word	0x320028
8010e8a4:	09000100 	.word	0x10009
8010e8a8:	34000200 	.word	0x20034
8010e8ac:	0a00feff 	.word	0xfffe000a
8010e8b0:	22000000 	neg	zero,zero
8010e8b4:	08000000 	jr	zero
8010e8b8:	2800c8ff 	.word	0xffc80028
8010e8bc:	0c000100 	syscall	0x400
8010e8c0:	3400feff 	.word	0xfffe0034
8010e8c4:	0d00feff 	.word	0xfffe000d
8010e8c8:	22000000 	neg	zero,zero
8010e8cc:	ffff0000 	.word	0xffff
8010e8d0:	00000000 	nop
8010e8d4:	00000500 	sll	zero,a1,0x0
8010e8d8:	cdff0000 	break	0x0,0x3ff
8010e8dc:	00000200 	sll	zero,v0,0x0
8010e8e0:	dcff2000 	.word	0x20ffdc
8010e8e4:	0200feff 	.word	0xfffe0002
8010e8e8:	00002a00 	.word	0x2a0000
8010e8ec:	0300ffff 	.word	0xffff0003
8010e8f0:	00002400 	.word	0x240000
8010e8f4:	00000200 	sll	zero,v0,0x0
8010e8f8:	dcffe0ff 	.word	0xffe0ffdc
8010e8fc:	0500feff 	.word	0xfffe0005
8010e900:	0000d6ff 	.word	0xffd60000
8010e904:	0600ffff 	.word	0xffff0006
8010e908:	0000dcff 	.word	0xffdc0000
8010e90c:	ffff0000 	.word	0xffff
8010e910:	00000000 	nop
8010e914:	08000000 	jr	zero
8010e918:	16001800 	.word	0x180016
8010e91c:	09000000 	jalr	zero,zero
8010e920:	1e000100 	.word	0x1001e
8010e924:	0a000300 	.word	0x3000a
8010e928:	1e000200 	.word	0x2001e
8010e92c:	08000000 	jr	zero
8010e930:	1600e8ff 	.word	0xffe80016
8010e934:	0c000000 	syscall
8010e938:	1e00ffff 	.word	0xffff001e
8010e93c:	0d000000 	break
8010e940:	1e000000 	.word	0x1e
8010e944:	fffff6ff 	.word	0xfff6ffff
8010e948:	17000000 	.word	0x17
8010e94c:	00000500 	sll	zero,a1,0x0
8010e950:	cdff0000 	break	0x0,0x3ff
8010e954:	00000300 	sll	zero,v1,0x0
8010e958:	d4ff2f00 	.word	0x2fffd4
8010e95c:	0200feff 	.word	0xfffe0002
8010e960:	00002900 	.word	0x290000
8010e964:	0300feff 	.word	0xfffe0003
8010e968:	00002900 	.word	0x290000
8010e96c:	00000300 	sll	zero,v1,0x0
8010e970:	d4ffd1ff 	.word	0xffd1ffd4
8010e974:	0500feff 	.word	0xfffe0005
8010e978:	0000d7ff 	.word	0xffd70000
8010e97c:	0600feff 	.word	0xfffe0006
8010e980:	0000d7ff 	.word	0xffd70000
8010e984:	fffff6ff 	.word	0xfff6ffff
8010e988:	17000000 	.word	0x17
8010e98c:	08000000 	jr	zero
8010e990:	0d001300 	break	0x13
8010e994:	09000100 	.word	0x10009
8010e998:	34000200 	.word	0x20034
8010e99c:	0a00f9ff 	.word	0xfff9000a
8010e9a0:	25000000 	move	zero,zero
8010e9a4:	08000000 	jr	zero
8010e9a8:	0d00edff 	.word	0xffed000d
8010e9ac:	0c000100 	syscall	0x400
8010e9b0:	3400feff 	.word	0xfffe0034
8010e9b4:	0d00f9ff 	.word	0xfff9000d
8010e9b8:	25000000 	move	zero,zero
8010e9bc:	0100d6ff 	.word	0xffd60001
8010e9c0:	f7ff0000 	.word	0xfff7
8010e9c4:	0f00feff 	.word	0xfffe000f
8010e9c8:	23000000 	negu	zero,zero
8010e9cc:	00010000 	sll	zero,zero,0x4
8010e9d0:	3c006400 	.word	0x64003c
8010e9d4:	00010001 	.word	0x1000100
8010e9d8:	3d006400 	.word	0x64003d
8010e9dc:	01010002 	.word	0x2000101
8010e9e0:	3e006e00 	.word	0x6e003e
8010e9e4:	01010003 	.word	0x3000101
8010e9e8:	3f005a00 	.word	0x5a003f
8010e9ec:	01010004 	bltz	zero,0x8010edf4
8010e9f0:	40005a00 	.word	0x5a0040
8010e9f4:	01010005 	bltz	t0,0x8010edfc
8010e9f8:	41006400 	.word	0x640041
8010e9fc:	01010006 	bltz	s0,0x8010ee04
8010ea00:	42006400 	.word	0x640042
8010ea04:	01010007 	bltz	t8,0x8010ee0c
8010ea08:	43006e00 	.word	0x6e0043
8010ea0c:	01010008 	j	0x80000404
8010ea10:	44007800 	.word	0x780044
8010ea14:	01010009 	j	0x84000404
8010ea18:	45006e00 	.word	0x6e0045
8010ea1c:	0101000a 	j	0x88000404
8010ea20:	46005a00 	.word	0x5a0046
8010ea24:	0101000b 	j	0x8c000404
8010ea28:	47005a00 	.word	0x5a0047
8010ea2c:	0101000c 	jal	0x80000404
8010ea30:	48007800 	.word	0x780048
8010ea34:	0101000d 	jal	0x84000404
8010ea38:	49006400 	.word	0x640049
8010ea3c:	0101000e 	jal	0x88000404
8010ea40:	4a006e00 	.word	0x6e004a
8010ea44:	70514553 	.word	0x53455170
8010ea48:	00000001 	.word	0x1000000
8010ea4c:	01e006ef 	swc3	$6,-8191(t8)
8010ea50:	91040200 	.word	0x20491
8010ea54:	c00000c1 	lwc0	c0_index,192(t0)
8010ea58:	0000c200 	.word	0xc20000
8010ea5c:	00c30000 	sll	t8,zero,0xc
8010ea60:	c40000c9 	lwc2	$0,196(t0)
8010ea64:	0000b00a 	j	0x8ac00000
8010ea68:	5800b10a 	j	0x8ac40160
8010ea6c:	2800b207 	.word	0x7b20028
8010ea70:	6400b307 	.word	0x7b30064
8010ea74:	3c00b407 	.word	0x7b4003c
8010ea78:	6400b90a 	j	0x8ae40190
8010ea7c:	4000b007 	bltzal	sp,0x8010eb80
8010ea80:	6400b107 	bgezal	sp,0x8010ec14
8010ea84:	6400b20a 	j	0x8ac80190
8010ea88:	4000b30a 	j	0x8acc0100
8010ea8c:	4000b40a 	j	0x8ad00100
8010ea90:	4000b907 	.word	0x7b90040
8010ea94:	78817091 	lbu	s0,-32392(t3)
8010ea98:	18500099 	lwr	zero,20504(t0)
8010ea9c:	01194801 	.word	0x1481901
8010eaa0:	0030911a 	.word	0x1a913000
8010eaa4:	56009901 	.word	0x1990056
8010eaa8:	23480100 	negu	t1,at
8010eaac:	1b911800 	.word	0x18911b
8010eab0:	151d5300 	.word	0x531d15
8010eab4:	99011e48 	.word	0x481e0199
8010eab8:	01001b91 	lbu	k1,1(t0)
8010eabc:	1a00151c 	.word	0x1c15001a
8010eac0:	64009901 	.word	0x1990064
8010eac4:	1e480100 	.word	0x1481e
8010eac8:	1b911d00 	.word	0x1d911b
8010eacc:	151a5000 	.word	0x501a15
8010ead0:	99012148 	.word	0x48210199
8010ead4:	01001b91 	lbu	k1,1(t0)
8010ead8:	1c00151c 	.word	0x1c15001c
8010eadc:	5c009901 	.word	0x199005c
8010eae0:	26480100 	xor	t1,zero,at
8010eae4:	1b911a00 	.word	0x1a911b
8010eae8:	151f4c00 	.word	0x4c1f15
8010eaec:	99012a48 	.word	0x482a0199
8010eaf0:	01001b91 	lbu	k1,1(t0)
8010eaf4:	1c00151d 	.word	0x1d15001c
8010eaf8:	60009901 	.word	0x1990060
8010eafc:	2a480100 	slt	t1,zero,at
8010eb00:	1b911f00 	.word	0x1f911b
8010eb04:	151c5c00 	.word	0x5c1c15
8010eb08:	93434600 	.word	0x464393
8010eb0c:	99012b3c 	.word	0x3c2b0199
8010eb10:	9344470c 	jal	0x811d124c
8010eb14:	99010011 	beqz	t0,0x8010f17c
8010eb18:	9343000a 	j	0x88010e4c
8010eb1c:	911d0015 	bnez	t0,0x80116164
8010eb20:	1d640093 	lbu	zero,25629(t8)
8010eb24:	453f0099 	lwr	zero,16197(t0)
8010eb28:	01291d93 	lbu	sp,10497(t8)
8010eb2c:	44001f46 	c1	0x1f0044
8010eb30:	480c9901 	.word	0x1990c48
8010eb34:	00119345 	.word	0x45931100
8010eb38:	000a911c 	.word	0x1c910a00
8010eb3c:	0015215c 	.word	0x5c211500
8010eb40:	0093474c 	.word	0x4c479300
8010eb44:	0099012d 	sltiu	at,t0,-26368
8010eb48:	1d934600 	.word	0x46931d
8010eb4c:	1f48430c 	jal	0x810d207c
8010eb50:	99010011 	beqz	t0,0x8010f1b8
8010eb54:	9347000a 	j	0x88011e4c
8010eb58:	911d0015 	bnez	t0,0x801161a0
8010eb5c:	1f530093 	lbu	zero,21279(t8)
8010eb60:	49510099 	lwr	zero,20809(t0)
8010eb64:	012b1d93 	lbu	sp,11009(t8)
8010eb68:	48001f4a 	c2	0x1f0048
8010eb6c:	4d0c9901 	break	0x199,0x31
8010eb70:	00119349 	.word	0x49931100
8010eb74:	000a9121 	addi	s1,t4,2560
8010eb78:	00151d5c 	.word	0x5c1d1500
8010eb7c:	00934b51 	.word	0x514b9300
8010eb80:	00990129 	slti	at,t0,-26368
8010eb84:	1d934a00 	.word	0x4a931d
8010eb88:	1f4c460c 	jal	0x8119307c
8010eb8c:	99010011 	beqz	t0,0x8010f1f4
8010eb90:	934b000a 	j	0x88012e4c
8010eb94:	911f0015 	bnez	t0,0x801169dc
8010eb98:	1f560093 	lbu	zero,22047(t8)
8010eb9c:	4d470099 	lwr	zero,18253(t0)
8010eba0:	012a1d93 	lbu	sp,10753(t8)
8010eba4:	4c001f4e 	c3	0x1f004c
8010eba8:	3f0c9901 	.word	0x1990c3f
8010ebac:	0011934d 	.word	0x4d931100
8010ebb0:	000a911d 	.word	0x1d910a00
8010ebb4:	0015236e 	.word	0x6e231500
8010ebb8:	00934f48 	.word	0x484f9300
8010ebbc:	00990128 	slti	at,zero,-26368
8010ebc0:	1d934e00 	.word	0x4e931d
8010ebc4:	1f504c0c 	jal	0x8131407c
8010ebc8:	99010011 	beqz	t0,0x8010f230
8010ebcc:	934f000a 	j	0x88013e4c
8010ebd0:	911f0015 	bnez	t0,0x80116a18
8010ebd4:	215c0099 	lwr	zero,23585(t0)
8010ebd8:	01341d93 	lbu	sp,13313(t8)
8010ebdc:	50002b99 	lwr	t3,80(t1)
8010ebe0:	01001b91 	lbu	k1,1(t0)
8010ebe4:	23001590 	lbu	s5,35(zero)
8010ebe8:	18500091 	lbu	zero,20504(t0)
8010ebec:	1f4c0093 	lbu	zero,19487(t8)
8010ebf0:	454a0099 	lwr	zero,19013(t0)
8010ebf4:	012f3c93 	lbu	gp,12033(t9)
8010ebf8:	464c0c99 	lwr	t4,19526(t0)
8010ebfc:	01001193 	lbu	s1,1(t8)
8010ec00:	45000a91 	lbu	t2,69(t0)
8010ec04:	21000690 	lbu	a2,33(zero)
8010ec08:	18000f1a 	.word	0x1a0f0018
8010ec0c:	56009121 	addi	s1,t4,86
8010ec10:	5c009347 	c1	0x193005c
8010ec14:	43009901 	.word	0x1990043
8010ec18:	301d9346 	c1	0x931d30
8010ec1c:	001f484c 	.word	0x4c481f00
8010ec20:	0c990100 	syscall	0x664
8010ec24:	11934700 	.word	0x479311
8010ec28:	0a911f00 	.word	0x1f910a
8010ec2c:	06901a00 	srlv	s2,k0,zero
8010ec30:	0f1d5300 	.word	0x531d0f
8010ec34:	91246e00 	.word	0x6e2491
8010ec38:	93495000 	.word	0x504993
8010ec3c:	99013a1d 	.word	0x1d3a0199
8010ec40:	9348001f 	bgtz	t8,0x80120e90
8010ec44:	4a480c99 	lwr	t4,18506(t0)
8010ec48:	01001193 	lbu	s1,1(t8)
8010ec4c:	49000a91 	lbu	t2,73(t0)
8010ec50:	21000690 	lbu	a2,33(zero)
8010ec54:	1d000f1c 	.word	0x1c0f001d
8010ec58:	64009123 	addi	s1,gp,100
8010ec5c:	6e00934b 	c2	0x193006e
8010ec60:	55009901 	.word	0x1990055
8010ec64:	2f1d934a 	c2	0x931d2f
8010ec68:	001f4c51 	.word	0x514c1f00
8010ec6c:	0c990100 	syscall	0x664
8010ec70:	11934b00 	.word	0x4b9311
8010ec74:	0a912400 	.word	0x24910a
8010ec78:	06901c00 	srlv	s2,gp,zero
8010ec7c:	0f1a5000 	.word	0x501a0f
8010ec80:	91214800 	.word	0x482191
8010ec84:	934d4600 	.word	0x464d93
8010ec88:	9901311d 	.word	0x1d310199
8010ec8c:	934c001f 	bgtz	t8,0x80121edc
8010ec90:	4e470c99 	lwr	t4,18254(t0)
8010ec94:	01001193 	lbu	s1,1(t8)
8010ec98:	4d000a91 	lbu	t2,77(t0)
8010ec9c:	23000690 	lbu	a2,35(zero)
8010eca0:	1a000f1c 	.word	0x1c0f001a
8010eca4:	5c009123 	addi	s1,gp,92
8010eca8:	6900934f 	c3	0x1930069
8010ecac:	3f009901 	.word	0x199003f
8010ecb0:	3e1d934e 	c3	0x931d3e
8010ecb4:	001f5048 	.word	0x48501f00
8010ecb8:	0c990100 	syscall	0x664
8010ecbc:	11934f00 	.word	0x4f9311
8010ecc0:	0a912100 	.word	0x21910a
8010ecc4:	06901c00 	srlv	s2,gp,zero
8010ecc8:	0f1f4c00 	.word	0x4c1f0f
8010eccc:	91265c00 	.word	0x5c2691
8010ecd0:	93514c00 	.word	0x4c5193
8010ecd4:	99013b1d 	.word	0x1d3b0199
8010ecd8:	9350002b 	slti	zero,t8,20627
8010ecdc:	99010011 	beqz	t0,0x8010f344
8010ece0:	9351000a 	j	0x8801464c
8010ece4:	91230006 	bltz	s0,0x80117b2c
8010ece8:	901f000f 	jal	0x8c007e40
8010ecec:	1d600091 	lbu	zero,24605(t0)
8010ecf0:	24640099 	lwr	zero,25636(t0)
8010ecf4:	01384801 	.word	0x1483801
8010ecf8:	001b9126 	addiu	s1,s4,6912
8010ecfc:	0006901d 	.word	0x1d900600
8010ed00:	000f1c5c 	.word	0x5c1c0f00
8010ed04:	00912356 	.word	0x56239100
8010ed08:	0093434f 	c3	0x1439300
8010ed0c:	0099013f 	.word	0x3f019900
8010ed10:	3c934450 	.word	0x5044933c
8010ed14:	0c990100 	syscall	0x664
8010ed18:	11934300 	.word	0x439311
8010ed1c:	0a912400 	.word	0x24910a
8010ed20:	06901c00 	srlv	s2,gp,zero
8010ed24:	0f1d6400 	.word	0x641d0f
8010ed28:	91246400 	.word	0x642491
8010ed2c:	93454700 	.word	0x474593
8010ed30:	9901401d 	bgtz	t2,0x8010f398
8010ed34:	9344001f 	bgtz	t8,0x8011ff84
8010ed38:	46510c99 	lwr	t4,20806(t0)
8010ed3c:	01001193 	lbu	s1,1(t8)
8010ed40:	45000a91 	lbu	t2,69(t0)
8010ed44:	23000690 	lbu	a2,35(zero)
8010ed48:	1d000f21 	addi	t7,t0,29
8010ed4c:	5c009128 	slti	s1,a0,92
8010ed50:	56009347 	c1	0x1930056
8010ed54:	55009901 	.word	0x1990055
8010ed58:	451d9346 	c1	0x931d45
8010ed5c:	001f484c 	.word	0x4c481f00
8010ed60:	0c990100 	syscall	0x664
8010ed64:	11934700 	.word	0x479311
8010ed68:	0a912400 	.word	0x24910a
8010ed6c:	06902100 	srlv	s2,at,at
8010ed70:	0f1f5300 	.word	0x531f0f
8010ed74:	91266400 	.word	0x642691
8010ed78:	93495900 	.word	0x594993
8010ed7c:	9901361d 	.word	0x1d360199
8010ed80:	9348001f 	bgtz	t8,0x80120fd0
8010ed84:	4a560c99 	lwr	t4,22090(t0)
8010ed88:	01001193 	lbu	s1,1(t8)
8010ed8c:	49000a91 	lbu	t2,73(t0)
8010ed90:	28000690 	lbu	a2,40(zero)
8010ed94:	1f000f1d 	.word	0x1d0f001f
8010ed98:	5c009124 	addiu	s1,a0,92
8010ed9c:	5600934b 	c2	0x1930056
8010eda0:	5a009901 	.word	0x199005a
8010eda4:	3d1d934a 	c2	0x931d3d
8010eda8:	001f4c46 	c1	0x4c1f00
8010edac:	0c990100 	syscall	0x664
8010edb0:	11934b00 	.word	0x4b9311
8010edb4:	0a912600 	.word	0x26910a
8010edb8:	06901d00 	srlv	s2,sp,zero
8010edbc:	0f1f5600 	.word	0x561f0f
8010edc0:	91266900 	.word	0x692691
8010edc4:	934d4700 	.word	0x474d93
8010edc8:	9901461d 	.word	0x1d460199
8010edcc:	934c001f 	bgtz	t8,0x8012201c
8010edd0:	4e3f0c99 	lwr	t4,16206(t0)
8010edd4:	01001193 	lbu	s1,1(t8)
8010edd8:	4d000a91 	lbu	t2,77(t0)
8010eddc:	24000690 	lbu	a2,36(zero)
8010ede0:	1f000f23 	addi	t7,t8,31
8010ede4:	6e009129 	slti	s1,t4,110
8010ede8:	5900934f 	c3	0x1930059
8010edec:	48009901 	.word	0x1990048
8010edf0:	3d1d934e 	c3	0x931d3d
8010edf4:	001f504c 	.word	0x4c501f00
8010edf8:	0c990100 	syscall	0x664
8010edfc:	11934f00 	.word	0x4f9311
8010ee00:	0a912600 	.word	0x26910a
8010ee04:	06902300 	srlv	s2,v1,at
8010ee08:	0f215c00 	.word	0x5c210f
8010ee0c:	91286000 	.word	0x602891
8010ee10:	9901451d 	.word	0x1d450199
8010ee14:	9350002b 	slti	zero,t8,20627
8010ee18:	9901001b 	blez	t8,0x8010f480
8010ee1c:	91290006 	bltz	s0,0x80119464
8010ee20:	9021000f 	jal	0x8c008640
8010ee24:	1f4c0091 	lbu	zero,19487(t0)
8010ee28:	26500092 	lbu	zero,20518(s0)
8010ee2c:	18500093 	lbu	zero,20504(t8)
8010ee30:	47530099 	lwr	zero,21319(t0)
8010ee34:	013d3c93 	lbu	gp,15617(t9)
8010ee38:	48540c99 	lwr	t4,21576(t0)
8010ee3c:	01001193 	lbu	s1,1(t8)
8010ee40:	47000a91 	lbu	t2,71(t0)
8010ee44:	28000690 	lbu	a2,40(zero)
8010ee48:	1f000f21 	addi	t7,t0,31
8010ee4c:	5c009128 	slti	s1,a0,92
8010ee50:	5600921a 	.word	0x1a920056
8010ee54:	56009349 	.word	0x49930056
8010ee58:	4c009901 	syscall	0x66401
8010ee5c:	4e1d9348 	.word	0x48931d4e
8010ee60:	000a9218 	.word	0x18920a00
8010ee64:	0015934a 	c2	0x931500
8010ee68:	550c9901 	.word	0x1990c55
8010ee6c:	00119349 	.word	0x49931100
8010ee70:	000a9126 	addiu	s1,s4,2560
8010ee74:	00069021 	addi	s0,t4,1536
8010ee78:	000f246e 	.word	0x6e240f00
8010ee7c:	00912b53 	.word	0x532b9100
8010ee80:	00921d53 	.word	0x531d9200
8010ee84:	00934b59 	.word	0x594b9300
8010ee88:	00990145 	bc1t	0x800f528c
8010ee8c:	1d934a00 	.word	0x4a931d
8010ee90:	0a921a00 	.word	0x1a920a
8010ee94:	15934c50 	.word	0x504c9315
8010ee98:	0c990100 	syscall	0x664
8010ee9c:	11934b00 	.word	0x4b9311
8010eea0:	0a912800 	.word	0x28910a
8010eea4:	06902400 	srlv	s2,a0,at
8010eea8:	0f236e00 	.word	0x6e230f
8010eeac:	91296400 	.word	0x642991
8010eeb0:	921c6400 	.word	0x641c92
8010eeb4:	934d5e00 	.word	0x5e4d93
8010eeb8:	9901411d 	.word	0x1d410199
8010eebc:	934c000a 	j	0x8801324c
8010eec0:	921d0015 	bnez	t0,0x8011650c
8010eec4:	934e5a0c 	jal	0x81693a4c
8010eec8:	99010011 	beqz	t0,0x8010f530
8010eecc:	934d000a 	j	0x8801364c
8010eed0:	912b0006 	bltz	s0,0x80119d18
8010eed4:	9023000f 	jal	0x8c008e40
8010eed8:	21480091 	lbu	zero,18465(t0)
8010eedc:	28500092 	lbu	zero,20520(s0)
8010eee0:	1a500093 	lbu	zero,20506(t8)
8010eee4:	4f460099 	lwr	zero,17999(t0)
8010eee8:	014a1d93 	lbu	sp,18945(t8)
8010eeec:	4e000a92 	lbu	t2,78(s0)
8010eef0:	1c001593 	lbu	s5,28(t8)
8010eef4:	50470c99 	lwr	t4,18256(t0)
8010eef8:	01001193 	lbu	s1,1(t8)
8010eefc:	4f000a91 	lbu	t2,79(t0)
8010ef00:	29000690 	lbu	a2,41(zero)
8010ef04:	21000f23 	addi	t7,t8,33
8010ef08:	69009129 	slti	s1,t4,105
8010ef0c:	5c00921c 	.word	0x1c92005c
8010ef10:	5c009351 	.word	0x5193005c
8010ef14:	3f009901 	.word	0x199003f
8010ef18:	521d9350 	.word	0x50931d52
8010ef1c:	000a921a 	.word	0x1a920a00
8010ef20:	00159352 	.word	0x52931500
8010ef24:	480c9901 	.word	0x1990c48
8010ef28:	00119351 	.word	0x51931100
8010ef2c:	000a9128 	slti	s1,a0,2560
8010ef30:	00069023 	addi	s0,gp,1536
8010ef34:	000f265c 	.word	0x5c260f00
8010ef38:	00912d4c 	.word	0x4c2d9100
8010ef3c:	00921f4c 	.word	0x4c1f9200
8010ef40:	0093534c 	.word	0x4c539300
8010ef44:	0099014e 	c3	0x19900
8010ef48:	1d935200 	.word	0x52931d
8010ef4c:	0a921c00 	.word	0x1c920a
8010ef50:	21990100 	.word	0x19921
8010ef54:	11935300 	.word	0x539311
8010ef58:	0a912900 	.word	0x29910a
8010ef5c:	06902600 	srlv	s2,a2,at
8010ef60:	0f246400 	.word	0x64240f
8010ef64:	912b6000 	.word	0x602b91
8010ef68:	921d6000 	.word	0x601d92
8010ef6c:	99014827 	addiu	t0,k0,409
8010ef70:	921f0021 	addi	zero,t0,8082
8010ef74:	9901001b 	blez	t8,0x8010f5dc
8010ef78:	912d0006 	bltz	s0,0x8011a5c0
8010ef7c:	9024000f 	jal	0x8c009240
8010ef80:	23560091 	lbu	zero,22051(t0)
8010ef84:	295c0092 	lbu	zero,23593(s0)
8010ef88:	1c5c0099 	lwr	zero,23580(t0)
8010ef8c:	0150000c 	jal	0x80014004
8010ef90:	6427921d 	.word	0x1d922764
8010ef94:	00219901 	.word	0x1992100
8010ef98:	001b912b 	slti	s1,gp,6912
8010ef9c:	00069023 	addi	s0,gp,1536
8010efa0:	000f2464 	.word	0x64240f00
8010efa4:	00912b64 	.word	0x642b9100
8010efa8:	00921d64 	.word	0x641d9200
8010efac:	0099014d 	bc3t	0x800f53b0
8010efb0:	00047227 	addiu	s2,k1,1024
8010efb4:	921c0021 	addi	zero,t0,7314
8010efb8:	9901001b 	blez	t8,0x8010f620
8010efbc:	91290006 	bltz	s0,0x80119604
8010efc0:	9024000f 	jal	0x8c009240
8010efc4:	28560091 	lbu	zero,22056(t0)
8010efc8:	2f5c0092 	lbu	zero,23599(s0)
8010efcc:	215c0099 	lwr	zero,23585(t0)
8010efd0:	0c000001 	syscall	0x40000
8010efd4:	52000e72 	.word	0x720e0052
8010efd8:	27921d00 	.word	0x1d9227
8010efdc:	21990100 	.word	0x19921
8010efe0:	1b912b00 	.word	0x2b911b
8010efe4:	06902800 	srlv	s2,t0,at
8010efe8:	0f266400 	.word	0x64260f
8010efec:	912d5300 	.word	0x532d91
8010eff0:	921f5300 	.word	0x531f92
8010eff4:	99040000 	.word	0x499
8010eff8:	014e0009 	j	0x84013804
8010effc:	76279221 	addi	s2,t4,10102
8010f000:	00219901 	.word	0x1992100
8010f004:	001b912f 	sltiu	s1,gp,6912
8010f008:	00069026 	addiu	s0,s4,1536
8010f00c:	000f2456 	.word	0x56240f00
8010f010:	00912b5c 	.word	0x5c2b9100
8010f014:	00921d5c 	.word	0x5c1d9200
8010f018:	00945b7c 	.word	0x7c5b9400
8010f01c:	00990e00 	sll	s3,t6,0x4
8010f020:	00015400 	.word	0x540100
8010f024:	0c762792 	lbu	a3,30220(s1)
8010f028:	1f002199 	lwr	at,31(t1)
8010f02c:	01001894 	lhu	t8,1(zero)
8010f030:	5b000391 	lbu	v1,91(t0)
8010f034:	2d000690 	lbu	a2,45(zero)
8010f038:	24000f26 	addiu	t7,s0,36
8010f03c:	6900912d 	sltiu	s1,t4,105
8010f040:	5600921f 	.word	0x1f920056
8010f044:	56009467 	.word	0x67940056
8010f048:	7c009909 	j	0x866401f0
8010f04c:	00000154 	.word	0x54010000
8010f050:	000b7f27 	addiu	ra,k1,2816
8010f054:	921d0021 	addi	zero,t0,7570
8010f058:	99010018 	blez	zero,0x8010f6c0
8010f05c:	94670003 	.word	0x3006794
8010f060:	912b0006 	bltz	s0,0x80119ea8
8010f064:	9026000f 	jal	0x8c009a40
8010f068:	29590091 	lbu	zero,22825(t0)
8010f06c:	306e0092 	lbu	zero,28208(s0)
8010f070:	236e0094 	lhu	zero,28195(zero)
8010f074:	607c0099 	lwr	zero,31840(t0)
8010f078:	0c000001 	syscall	0x40000
8010f07c:	5d000772 	.word	0x7207005d
8010f080:	27921f00 	.word	0x1f9227
8010f084:	21990100 	.word	0x19921
8010f088:	18946000 	.word	0x609418
8010f08c:	03912d00 	.word	0x2d9103
8010f090:	06902900 	srlv	s2,t1,at
8010f094:	0f286000 	.word	0x60280f
8010f098:	912f5c00 	.word	0x5c2f91
8010f09c:	92215c00 	.word	0x5c2192
8010f0a0:	946c7c00 	.word	0x7c6c94
8010f0a4:	990b0000 	.word	0xb99
8010f0a8:	057f2792 	lbu	a3,32517(s1)
8010f0ac:	23003994 	lhu	t9,35(at)
8010f0b0:	6c000391 	lbu	v1,108(t0)
8010f0b4:	30000690 	lbu	a2,48(zero)
8010f0b8:	28000f2f 	sltiu	t7,t8,40
8010f0bc:	78009126 	addiu	s1,s4,120
8010f0c0:	7800921a 	.word	0x1a920078
8010f0c4:	56009347 	c1	0x1930056
8010f0c8:	7200945b 	.word	0x5b940072
8010f0cc:	73009907 	.word	0x7990073
8010f0d0:	00000078 	.word	0x78000000
8010f0d4:	00106527 	addiu	a1,k1,4096
8010f0d8:	92210029 	slti	zero,t0,8594
8010f0dc:	934a6613 	beq	k1,a2,0x80121b2c
8010f0e0:	912f0015 	bnez	t0,0x8011af28
8010f0e4:	921c5c00 	.word	0x5c1c92
8010f0e8:	99050000 	.word	0x599
8010f0ec:	00782792 	lbu	a3,30720(s1)
8010f0f0:	1a000193 	lbu	at,26(t8)
8010f0f4:	4d665092 	lbu	s0,26189(s2)
8010f0f8:	1d690093 	lbu	zero,26909(t8)
8010f0fc:	515c0099 	lwr	zero,23633(t0)
8010f100:	00000010 	b	0x8010f104
8010f104:	00000000 	nop
8010f108:	27921c00 	.word	0x1c9227
8010f10c:	511f3d27 	addiu	sp,t9,8017
8010f110:	1d00511c 	.word	0x1c51001d
8010f114:	5c271f00 	.word	0x1f275c
8010f118:	511d5c00 	.word	0x5c1d51
8010f11c:	93470027 	addiu	zero,t8,18323
8010f120:	921c0029 	slti	zero,t0,7314
8010f124:	934a0010 	b	0x80121b74
8010f128:	902f0000 	.word	0x2f90
8010f12c:	91260000 	.word	0x2691
8010f130:	945b0016 	bnez	s0,0x80125f84
8010f134:	bf631401 	.word	0x11463bf
8010f138:	067f0190 	lbu	at,32518(zero)
8010f13c:	2b6e0091 	lbu	zero,28203(t0)
8010f140:	236e0092 	lbu	zero,28195(s0)
8010f144:	1f560094 	lhu	zero,22047(zero)
8010f148:	5b730099 	lwr	zero,29531(t0)
8010f14c:	0073000f 	jal	0x8c01cc00
8010f150:	5d27921d 	.word	0x1d92275d
8010f154:	0001934d 	.word	0x4d930100
8010f158:	00509221 	addi	s2,t4,20480
8010f15c:	5c009351 	.word	0x5193005c
8010f160:	00009900 	.word	0x990000
8010f164:	7327921f 	.word	0x1f922773
8010f168:	00511d56 	.word	0x561d5100
8010f16c:	00934765 	.word	0x65479300
8010f170:	00990000 	sll	s3,zero,0x4
8010f174:	000f0000 	sll	at,zero,0x1c
8010f178:	00002792 	lbu	a3,0(s1)
8010f17c:	21002993 	lbu	t1,33(t9)
8010f180:	4a662892 	lbu	t0,26186(s1)
8010f184:	1f4c271d 	.word	0x1d274c1f
8010f188:	0001934d 	.word	0x4d930100
8010f18c:	59509221 	addi	s2,t4,20569
8010f190:	5c009351 	.word	0x5193005c
8010f194:	5f27921f 	.word	0x1f92275f
8010f198:	00512369 	.word	0x69235100
8010f19c:	27210051 	.word	0x51002127
8010f1a0:	1f530099 	lwr	zero,21279(t0)
8010f1a4:	0478000f 	jal	0x8c01e010
8010f1a8:	5d279223 	addi	s2,gp,10077
8010f1ac:	00512169 	.word	0x69215100
8010f1b0:	00934700 	.word	0x479300
8010f1b4:	27921f00 	.word	0x1f9227
8010f1b8:	29934a00 	.word	0x4a9329
8010f1bc:	10945b00 	.word	0x5b9410
8010f1c0:	18922373 	.word	0x73239218
8010f1c4:	00946b7c 	.word	0x7c6b9400
8010f1c8:	00990400 	sll	s3,a0,0x4
8010f1cc:	000f0027 	addiu	zero,t8,3840
8010f1d0:	92210001 	.word	0x1002192
8010f1d4:	934d0038 	xori	zero,zero,0x4d93
8010f1d8:	946b0018 	blez	zero,0x8012a02c
8010f1dc:	92246e00 	.word	0x6e2492
8010f1e0:	93510000 	.word	0x5193
8010f1e4:	946e7c27 	addiu	gp,k1,28308
8010f1e8:	92230039 	xori	zero,t0,0x2392
8010f1ec:	946e0018 	blez	zero,0x8012ac40
8010f1f0:	921a5600 	.word	0x561a92
8010f1f4:	93476a00 	.word	0x6a4793
8010f1f8:	945b7300 	.word	0x735b94
8010f1fc:	99007800 	.word	0x780099
8010f200:	104e2792 	lbu	a3,19984(s1)
8010f204:	24002993 	lbu	t1,36(t9)
8010f208:	4a591094 	lhu	s0,22858(zero)
8010f20c:	5b001892 	lbu	t8,91(s0)
8010f210:	1c5c0094 	lhu	zero,23580(zero)
8010f214:	5b7c0099 	lwr	zero,31835(t0)
8010f218:	00782792 	lbu	a3,30720(s1)
8010f21c:	1a000193 	lbu	at,26(t8)
8010f220:	4d6c3894 	lhu	t8,27725(at)
8010f224:	5b001892 	lbu	t8,91(s0)
8010f228:	1d690093 	lbu	zero,26909(t8)
8010f22c:	53700099 	lwr	zero,28755(t0)
8010f230:	00000010 	b	0x8010f234
8010f234:	00000000 	nop
8010f238:	27921c00 	.word	0x1c9227
8010f23c:	511f3d27 	addiu	sp,t9,8017
8010f240:	1d00511c 	.word	0x1c51001d
8010f244:	5c00945b 	.word	0x5b94005c
8010f248:	6927921f 	.word	0x1f922769
8010f24c:	0039945b 	.word	0x5b943900
8010f250:	0018921d 	.word	0x1d921800
8010f254:	5c009347 	c1	0x193005c
8010f258:	0027921c 	.word	0x1c922700
8010f25c:	0029934a 	c2	0x932900
8010f260:	0028921f 	.word	0x1f922800
8010f264:	5600945b 	.word	0x5b940056
8010f268:	6e009900 	.word	0x99006e
8010f26c:	73000f47 	c1	0x10f0073
8010f270:	27921d00 	.word	0x1d9227
8010f274:	01934d00 	.word	0x4d9301
8010f278:	38945b00 	.word	0x5b9438
8010f27c:	1892215c 	.word	0x5c219218
8010f280:	00935300 	.word	0x539300
8010f284:	00990073 	.word	0x73009900
8010f288:	27921f00 	.word	0x1f9227
8010f28c:	511d5600 	.word	0x561d51
8010f290:	93477000 	.word	0x704793
8010f294:	945b7300 	.word	0x735b94
8010f298:	99000000 	.word	0x99
8010f29c:	0f000000 	.word	0xf
8010f2a0:	00279221 	addi	s2,t4,9984
8010f2a4:	0029934a 	c2	0x932900
8010f2a8:	7f10945b 	.word	0x5b94107f
8010f2ac:	0018921f 	.word	0x1f921800
8010f2b0:	4c00945b 	.word	0x5b94004c
8010f2b4:	7327921d 	.word	0x1d922773
8010f2b8:	0001934d 	.word	0x4d930100
8010f2bc:	65509221 	addi	s2,t4,20581
8010f2c0:	5c009353 	.word	0x5393005c
8010f2c4:	6a27921f 	.word	0x1f92276a
8010f2c8:	00512369 	.word	0x69235100
8010f2cc:	27210039 	xori	zero,t0,0x2127
8010f2d0:	945b0018 	blez	zero,0x80126124
8010f2d4:	921f5300 	.word	0x531f92
8010f2d8:	945b7300 	.word	0x735b94
8010f2dc:	99047800 	.word	0x780499
8010f2e0:	0f472792 	lbu	a3,18191(s1)
8010f2e4:	23003994 	lhu	t9,35(at)
8010f2e8:	5b001892 	lbu	t8,91(s0)
8010f2ec:	21690093 	lbu	zero,26913(t8)
8010f2f0:	47000094 	lhu	zero,71(zero)
8010f2f4:	5f7c2792 	lbu	a3,31839(s1)
8010f2f8:	1f002993 	lbu	t1,31(t9)
8010f2fc:	4a001094 	lhu	s0,74(zero)
8010f300:	5f001892 	lbu	t8,95(s0)
8010f304:	23730094 	lhu	zero,29475(zero)
8010f308:	62690099 	lwr	zero,26978(t0)
8010f30c:	0400000f 	jal	0x8c000010
8010f310:	00279221 	addi	s2,t4,9984
8010f314:	0001934d 	.word	0x4d930100
8010f318:	00389462 	.word	0x62943800
8010f31c:	00189226 	addiu	s2,s4,6144
8010f320:	6e009353 	.word	0x5393006e
8010f324:	00009467 	.word	0x67940000
8010f328:	6e279223 	addi	s2,gp,10094
8010f32c:	000b9123 	addi	s1,gp,2816
8010f330:	0005902b 	slti	s0,gp,1280
8010f334:	00299467 	.word	0x67942900
8010f338:	0018902d 	sltiu	s0,t4,6144
8010f33c:	78009126 	addiu	s1,s4,120
8010f340:	78009221 	addi	s2,t4,120
8010f344:	56009345 	.word	0x45930056
8010f348:	66009462 	.word	0x62940066
8010f34c:	73009900 	.word	0x990073
8010f350:	78001065 	.word	0x65100078
8010f354:	27922600 	.word	0x269227
8010f358:	29934a6c 	.word	0x6c4a9329
8010f35c:	2892235c 	.word	0x5c239228
8010f360:	00990078 	.word	0x78009900
8010f364:	27922100 	.word	0x219227
8010f368:	01934d7a 	.word	0x7a4d9301
8010f36c:	50922469 	.word	0x69249250
8010f370:	0093515f 	.word	0x5f519300
8010f374:	00990000 	sll	s3,zero,0x4
8010f378:	00100000 	sll	v0,zero,0x0
8010f37c:	00002792 	lbu	a3,0(s1)
8010f380:	23005126 	addiu	s1,s2,35
8010f384:	3d272400 	.word	0x24273d
8010f388:	51235c27 	addiu	gp,k0,9041
8010f38c:	26005124 	addiu	s1,v0,38
8010f390:	5c009345 	.word	0x4593005c
8010f394:	00279223 	addi	s2,gp,9984
8010f398:	0029934a 	c2	0x932900
8010f39c:	0010902d 	sltiu	s0,t4,4096
8010f3a0:	00009126 	addiu	s1,s4,0
8010f3a4:	00009462 	.word	0x62940000
8010f3a8:	00189032 	andi	s0,s4,0x1800
8010f3ac:	6e009129 	slti	s1,t4,110
8010f3b0:	6e009226 	addiu	s2,s4,110
8010f3b4:	56009462 	.word	0x62940056
8010f3b8:	73009900 	.word	0x990073
8010f3bc:	73000f5d 	.word	0x5d0f0073
8010f3c0:	27922400 	.word	0x249227
8010f3c4:	01934d00 	.word	0x4d9301
8010f3c8:	5092285c 	.word	0x5c289250
8010f3cc:	00935100 	.word	0x519300
8010f3d0:	00990073 	.word	0x73009900
8010f3d4:	27922600 	.word	0x269227
8010f3d8:	51245600 	.word	0x562451
8010f3dc:	93456100 	.word	0x614593
8010f3e0:	99000000 	.word	0x99
8010f3e4:	0f000000 	.word	0xf
8010f3e8:	00279228 	slti	s2,a0,9984
8010f3ec:	0029934a 	c2	0x932900
8010f3f0:	74289226 	addiu	s2,s4,10356
8010f3f4:	4c272400 	syscall	0x909d
8010f3f8:	01934d37 	ori	t5,k0,0x9301
8010f3fc:	5092285c 	.word	0x5c289250
8010f400:	00935174 	jalx	0x81464c01
8010f404:	27922600 	.word	0x269227
8010f408:	51296927 	addiu	t1,k1,10577
8010f40c:	28005126 	addiu	s1,s2,40
8010f410:	53009904 	.word	0x4990053
8010f414:	78000f5d 	.word	0x5d0f0078
8010f418:	27922900 	.word	0x299227
8010f41c:	51286900 	.word	0x692851
8010f420:	93450027 	addiu	zero,t8,17811
8010f424:	92260029 	slti	zero,t0,9874
8010f428:	934a0010 	b	0x80121e78
8010f42c:	94620018 	blez	zero,0x80127e80
8010f430:	92297300 	.word	0x732992
8010f434:	946e7300 	.word	0x736e94
8010f438:	99040000 	.word	0x499
8010f43c:	0f002792 	lbu	a3,15(s1)
8010f440:	28000193 	lbu	at,40(t8)
8010f444:	4d003894 	lhu	t8,77(at)
8010f448:	6e001892 	lbu	t8,110(s0)
8010f44c:	2b6e0093 	lbu	zero,28203(t8)
8010f450:	51000094 	lhu	zero,81(zero)
8010f454:	717c2792 	lbu	a3,31857(s1)
8010f458:	29003994 	lhu	t9,41(at)
8010f45c:	71001892 	lbu	t8,113(s0)
8010f460:	21560093 	lbu	zero,22049(t8)
8010f464:	45720094 	lhu	zero,29253(zero)
8010f468:	62730099 	lwr	zero,29538(t0)
8010f46c:	00780010 	b	0x8012d470
8010f470:	4e27922b 	slti	s2,gp,10062
8010f474:	00299348 	.word	0x48932900
8010f478:	3e109462 	.word	0x6294103e
8010f47c:	00189223 	addi	s2,gp,6144
8010f480:	5c009462 	.word	0x6294005c
8010f484:	7c009900 	.word	0x99007c
8010f488:	78279221 	addi	s2,t4,10104
8010f48c:	0001934d 	.word	0x4d930100
8010f490:	74389462 	.word	0x62943874
8010f494:	00189224 	addiu	s2,a0,6144
8010f498:	69009351 	.word	0x51930069
8010f49c:	61009900 	.word	0x990061
8010f4a0:	00001000 	sll	zero,s0,0x0
8010f4a4:	00000027 	addiu	zero,t8,0
8010f4a8:	92230051 	.word	0x51002392
8010f4ac:	263d2724 	addiu	a3,at,15654
8010f4b0:	0051235c 	.word	0x5c235100
8010f4b4:	00946269 	.word	0x69629400
8010f4b8:	27922600 	.word	0x269227
8010f4bc:	39946200 	.word	0x629439
8010f4c0:	1892245c 	.word	0x5c249218
8010f4c4:	00934500 	.word	0x459300
8010f4c8:	27922300 	.word	0x239227
8010f4cc:	29934800 	.word	0x489329
8010f4d0:	28922656 	.word	0x56269228
8010f4d4:	0094626e 	.word	0x6e629400
8010f4d8:	00990073 	.word	0x73009900
8010f4dc:	000f4727 	addiu	a3,k0,3840
8010f4e0:	92240001 	.word	0x1002492
8010f4e4:	934d0038 	xori	zero,zero,0x4d93
8010f4e8:	94620018 	blez	zero,0x80127f3c
8010f4ec:	92285c00 	.word	0x5c2892
8010f4f0:	93510000 	.word	0x5193
8010f4f4:	99007327 	addiu	s3,k1,153
8010f4f8:	92260051 	.word	0x51002692
8010f4fc:	24560093 	lbu	zero,22052(t8)
8010f500:	456a0094 	lhu	zero,27205(zero)
8010f504:	62730099 	lwr	zero,29538(t0)
8010f508:	0000000f 	jal	0x8c000000
8010f50c:	00000000 	nop
8010f510:	27922800 	.word	0x289227
8010f514:	2993485f 	.word	0x5f489329
8010f518:	10946200 	.word	0x629410
8010f51c:	1892264c 	.word	0x4c269218
8010f520:	00946273 	.word	0x73629400
8010f524:	27922400 	.word	0x249227
8010f528:	01934d2a 	slti	t5,s2,-27903
8010f52c:	5092285c 	.word	0x5c289250
8010f530:	00935157 	.word	0x57519300
8010f534:	27922600 	.word	0x269227
8010f538:	51296927 	addiu	t1,k1,10577
8010f53c:	28003994 	lhu	t9,40(at)
8010f540:	62001892 	lbu	t8,98(s0)
8010f544:	26530094 	lhu	zero,21286(zero)
8010f548:	62730099 	lwr	zero,29538(t0)
8010f54c:	0478000f 	jal	0x8c01e010
8010f550:	47279229 	slti	s2,t4,10055
8010f554:	00399462 	.word	0x62943900
8010f558:	00189228 	slti	s2,a0,6144
8010f55c:	69009345 	.word	0x45930069
8010f560:	00009465 	.word	0x65940000
8010f564:	7c279226 	addiu	s2,s4,10108
8010f568:	00299348 	.word	0x48932900
8010f56c:	00109465 	.word	0x65941000
8010f570:	00189229 	slti	s2,t4,6144
8010f574:	73009469 	.word	0x69940073
8010f578:	69009904 	.word	0x4990069
8010f57c:	00000f00 	sll	zero,t7,0x0
8010f580:	27922800 	.word	0x289227
8010f584:	01934d00 	.word	0x4d9301
8010f588:	38946900 	.word	0x699438
8010f58c:	18922d6e 	.word	0x6e2d9218
8010f590:	00935100 	.word	0x519300
8010f594:	00946e6e 	.word	0x6e6e9400
8010f598:	27922900 	.word	0x299227
8010f59c:	0b912900 	.word	0x29910b
8010f5a0:	05903200 	.word	0x329005
8010f5a4:	29946e00 	.word	0x6e9429
8010f5a8:	18903078 	.word	0x78309018
8010f5ac:	00912978 	.word	0x78299100
8010f5b0:	00922956 	.word	0x56299200
8010f5b4:	00934568 	.word	0x68459300
8010f5b8:	00945973 	.word	0x73599400
8010f5bc:	00990078 	.word	0x78009900
8010f5c0:	00106527 	addiu	a1,k1,4096
8010f5c4:	922d0029 	slti	zero,t0,11666
8010f5c8:	93482f28 	slti	t7,at,18579
8010f5cc:	922b5c00 	.word	0x5c2b92
8010f5d0:	99007827 	addiu	t8,k1,153
8010f5d4:	92290001 	.word	0x1002992
8010f5d8:	934d5a50 	.word	0x505a4d93
8010f5dc:	922d6900 	.word	0x692d92
8010f5e0:	93515900 	.word	0x595193
8010f5e4:	99000000 	.word	0x99
8010f5e8:	10000000 	mfhi	zero
8010f5ec:	0027922b 	slti	s2,gp,9984
8010f5f0:	00512f3d 	.word	0x3d2f5100
8010f5f4:	272d0051 	.word	0x51002d27
8010f5f8:	2b5c272f 	sltiu	a3,t9,23595
8010f5fc:	00512d5c 	.word	0x5c2d5100
8010f600:	00934500 	.word	0x459300
8010f604:	27922b00 	.word	0x2b9227
8010f608:	29934800 	.word	0x489329
8010f60c:	10903000 	.word	0x309010
8010f610:	00912900 	.word	0x299100
8010f614:	00945900 	.word	0x599400
8010f618:	1890356e 	.word	0x6e359018
8010f61c:	00912d6e 	.word	0x6e2d9100
8010f620:	00922f56 	.word	0x562f9200
8010f624:	00945973 	.word	0x73599400
8010f628:	00990073 	.word	0x73009900
8010f62c:	000f5d27 	addiu	sp,k0,3840
8010f630:	922d0001 	.word	0x1002d92
8010f634:	934d0050 	.word	0x50004d93
8010f638:	92305c00 	.word	0x5c3092
8010f63c:	93510000 	.word	0x5193
8010f640:	99007327 	addiu	s3,k1,153
8010f644:	922f0051 	.word	0x51002f92
8010f648:	2d560093 	lbu	zero,22061(t8)
8010f64c:	456e0099 	lwr	zero,28229(t0)
8010f650:	0000000f 	jal	0x8c000000
8010f654:	00000000 	nop
8010f658:	27923000 	.word	0x309227
8010f65c:	29934865 	.word	0x65489329
8010f660:	28922f4c 	.word	0x4c2f9228
8010f664:	272d0001 	.word	0x1002d27
8010f668:	934d6850 	.word	0x50684d93
8010f66c:	92305c00 	.word	0x5c3092
8010f670:	93517027 	addiu	s0,k1,20883
8010f674:	922f0051 	.word	0x51002f92
8010f678:	32692730 	andi	a3,at,0x6932
8010f67c:	00512f53 	.word	0x532f5100
8010f680:	00990478 	.word	0x78049900
8010f684:	000f5d27 	addiu	sp,k0,3840
8010f688:	92320051 	.word	0x51003292
8010f68c:	30690093 	lbu	zero,26928(t8)
8010f690:	45002792 	lbu	a3,69(s1)
8010f694:	2f002993 	lbu	t1,47(t9)
8010f698:	48001094 	lhu	s0,72(zero)
8010f69c:	59001892 	lbu	t8,89(s0)
8010f6a0:	32730094 	lhu	zero,29490(zero)
8010f6a4:	69730099 	lwr	zero,29545(t0)
8010f6a8:	0400000f 	jal	0x8c000010
8010f6ac:	00279230 	andi	s2,a0,0x2700
8010f6b0:	0001934d 	.word	0x4d930100
8010f6b4:	00389469 	.word	0x69943800
8010f6b8:	00189234 	ori	s2,a0,0x1800
8010f6bc:	6e009351 	.word	0x5193006e
8010f6c0:	0000946c 	.word	0x6c940000
8010f6c4:	7c279232 	andi	s2,s4,0x277c
8010f6c8:	0039946c 	.word	0x6c943900
8010f6cc:	00189229 	slti	s2,t4,6144
8010f6d0:	56009348 	.word	0x48930056
8010f6d4:	7a009459 	.word	0x5994007a
8010f6d8:	73009900 	.word	0x990073
8010f6dc:	7800104e 	c3	0x100078
8010f6e0:	27923400 	.word	0x349227
8010f6e4:	29934c4d 	.word	0x4d4c9329
8010f6e8:	10945900 	.word	0x599410
8010f6ec:	18922b5c 	.word	0x5c2b9218
8010f6f0:	0094597c 	.word	0x7c599400
8010f6f4:	00990078 	.word	0x78009900
8010f6f8:	27922900 	.word	0x299227
8010f6fc:	01935155 	.word	0x55519301
8010f700:	38945900 	.word	0x599438
8010f704:	18922d69 	.word	0x692d9218
8010f708:	00935472 	.word	0x72549300
8010f70c:	00990000 	sll	s3,zero,0x4
8010f710:	00100000 	sll	v0,zero,0x0
8010f714:	00002792 	lbu	a3,0(s1)
8010f718:	2b00512f 	sltiu	s1,k0,43
8010f71c:	3d272d00 	.word	0x2d273d
8010f720:	512b5c00 	.word	0x5c2b51
8010f724:	94596927 	addiu	t1,k1,22932
8010f728:	922f0039 	xori	zero,t0,0x2f92
8010f72c:	94590018 	blez	zero,0x80125d80
8010f730:	922d5c00 	.word	0x5c2d92
8010f734:	93480027 	addiu	zero,t8,18579
8010f738:	922b0029 	slti	zero,t0,11154
8010f73c:	934c0028 	slti	zero,zero,19603
8010f740:	922f5600 	.word	0x562f92
8010f744:	94596e00 	.word	0x6e5994
8010f748:	99007300 	.word	0x730099
8010f74c:	0f472792 	lbu	a3,18191(s1)
8010f750:	2d000193 	lbu	at,45(t8)
8010f754:	51003894 	lhu	t8,81(at)
8010f758:	59001892 	lbu	t8,89(s0)
8010f75c:	305c0093 	lbu	zero,23600(t8)
8010f760:	54000099 	lwr	zero,84(t0)
8010f764:	00732792 	lbu	a3,29440(s1)
8010f768:	2f00512d 	sltiu	s1,t2,47
8010f76c:	56009348 	.word	0x48930056
8010f770:	72009459 	.word	0x59940072
8010f774:	73009900 	.word	0x990073
8010f778:	00000f00 	sll	zero,t7,0x0
8010f77c:	00000027 	addiu	zero,t8,0
8010f780:	92300029 	slti	zero,t0,12434
8010f784:	934c4d10 	beq	v0,t5,0x801229d4
8010f788:	94590018 	blez	zero,0x80125ddc
8010f78c:	922f4c00 	.word	0x4c2f92
8010f790:	94597327 	addiu	s3,k1,22932
8010f794:	922d0001 	.word	0x1002d92
8010f798:	93514d50 	.word	0x504d5193
8010f79c:	92305c00 	.word	0x5c3092
8010f7a0:	93546a27 	addiu	t2,k1,21651
8010f7a4:	922f0051 	.word	0x51002f92
8010f7a8:	32692730 	andi	a3,at,0x6932
8010f7ac:	00399459 	.word	0x59943900
8010f7b0:	0018922f 	sltiu	s2,gp,6144
8010f7b4:	53009459 	.word	0x59940053
8010f7b8:	73009904 	.word	0x4990073
8010f7bc:	78000f47 	c1	0x10f0078
8010f7c0:	27923200 	.word	0x329227
8010f7c4:	39945900 	.word	0x599439
8010f7c8:	18923069 	.word	0x69309218
8010f7cc:	00934800 	.word	0x489300
8010f7d0:	00945d7c 	.word	0x7c5d9400
8010f7d4:	27922f00 	.word	0x2f9227
8010f7d8:	29934c00 	.word	0x4c9329
8010f7dc:	10945d00 	.word	0x5d9410
8010f7e0:	18923273 	.word	0x73329218
8010f7e4:	00946069 	.word	0x69609400
8010f7e8:	00990400 	sll	s3,a0,0x4
8010f7ec:	000f0027 	addiu	zero,t8,3840
8010f7f0:	92300001 	.word	0x1003092
8010f7f4:	93510038 	xori	zero,zero,0x5193
8010f7f8:	94600018 	blez	zero,0x80127a4c
8010f7fc:	92356e00 	.word	0x6e3592
8010f800:	93540000 	.word	0x5493
8010f804:	94656e24 	addiu	t6,v1,26004
8010f808:	912d0003 	.word	0x3002d91
8010f80c:	92320010 	b	0x8011c258
8010f810:	90350029 	slti	zero,t0,13712
8010f814:	94650018 	blez	zero,0x80128e68
8010f818:	90347800 	.word	0x783490
8010f81c:	912b7800 	.word	0x782b91
8010f820:	922b5600 	.word	0x562b92
8010f824:	93436800 	.word	0x684393
8010f828:	94607300 	.word	0x736094
8010f82c:	99007800 	.word	0x780099
8010f830:	10652792 	lbu	a3,25872(s1)
8010f834:	35002993 	lbu	t1,53(t9)
8010f838:	48622892 	lbu	t0,25160(s1)
8010f83c:	2d5c0099 	lwr	zero,23597(t0)
8010f840:	00782792 	lbu	a3,30720(s1)
8010f844:	2b000193 	lbu	at,43(t8)
8010f848:	4c6c5092 	lbu	s0,27724(s2)
8010f84c:	2f690093 	lbu	zero,26927(t8)
8010f850:	4f570099 	lwr	zero,22351(t0)
8010f854:	00000010 	b	0x8010f858
8010f858:	00000000 	nop
8010f85c:	27922d00 	.word	0x2d9227
8010f860:	51303d27 	addiu	sp,t9,12369
8010f864:	2f00512d 	sltiu	s1,t2,47
8010f868:	5c273000 	.word	0x30275c
8010f86c:	512f5c00 	.word	0x5c2f51
8010f870:	93430027 	addiu	zero,t8,17299
8010f874:	922d0029 	slti	zero,t0,11666
8010f878:	93480010 	b	0x80121ac8
8010f87c:	90340000 	.word	0x3490
8010f880:	912b0000 	.word	0x2b91
8010f884:	94600018 	blez	zero,0x80127ad8
8010f888:	903c6e00 	.word	0x6e3c90
8010f88c:	912b6e00 	.word	0x6e2b91
8010f890:	92305600 	.word	0x563092
8010f894:	94607300 	.word	0x736094
8010f898:	99007300 	.word	0x730099
8010f89c:	90346e00 	.word	0x6e3490
8010f8a0:	990f5d27 	addiu	sp,k0,3993
8010f8a4:	922f0001 	.word	0x1002f92
8010f8a8:	934c0050 	.word	0x50004c93
8010f8ac:	92325c00 	.word	0x5c3292
8010f8b0:	934f0000 	.word	0x4f93
8010f8b4:	99007327 	addiu	s3,k1,153
8010f8b8:	92300051 	.word	0x51003092
8010f8bc:	2f560093 	lbu	zero,22063(t8)
8010f8c0:	43580099 	lwr	zero,22595(t0)
8010f8c4:	0000000f 	jal	0x8c000000
8010f8c8:	00000000 	nop
8010f8cc:	27923200 	.word	0x329227
8010f8d0:	2993486a 	.word	0x6a489329
8010f8d4:	2892304c 	.word	0x4c309228
8010f8d8:	272f0001 	.word	0x1002f27
8010f8dc:	934c5850 	.word	0x50584c93
8010f8e0:	92325c00 	.word	0x5c3292
8010f8e4:	934f6127 	addiu	at,k1,20371
8010f8e8:	92300051 	.word	0x51003092
8010f8ec:	34692732 	andi	a3,s1,0x6934
8010f8f0:	00513053 	.word	0x53305100
8010f8f4:	00990478 	.word	0x78049900
8010f8f8:	000f5d27 	addiu	sp,k0,3840
8010f8fc:	92340051 	.word	0x51003492
8010f900:	32690093 	lbu	zero,26930(t8)
8010f904:	43002792 	lbu	a3,67(s1)
8010f908:	30002993 	lbu	t1,48(t9)
8010f90c:	48001094 	lhu	s0,72(zero)
8010f910:	60001892 	lbu	t8,96(s0)
8010f914:	34730094 	lhu	zero,29492(zero)
8010f918:	70730099 	lwr	zero,29552(t0)
8010f91c:	0400000f 	jal	0x8c000010
8010f920:	00279232 	andi	s2,s4,0x2700
8010f924:	0001934c 	.word	0x4c930100
8010f928:	00389470 	.word	0x70943800
8010f92c:	00189235 	ori	s2,t4,0x1800
8010f930:	6e00934f 	c3	0x193006e
8010f934:	00009473 	.word	0x73940000
8010f938:	7c279234 	ori	s2,a0,0x277c
8010f93c:	00399473 	.word	0x73943900
8010f940:	00189230 	andi	s2,a0,0x1800
8010f944:	56009348 	.word	0x48930056
8010f948:	5c009460 	.word	0x6094005c
8010f94c:	73009900 	.word	0x990073
8010f950:	7800104e 	c3	0x100078
8010f954:	27923500 	.word	0x359227
8010f958:	29934c70 	.word	0x704c9329
8010f95c:	10946000 	.word	0x609410
8010f960:	1892325c 	.word	0x5c329218
8010f964:	0094607c 	.word	0x7c609400
8010f968:	00990078 	.word	0x78009900
8010f96c:	27923000 	.word	0x309227
8010f970:	01934f59 	.word	0x594f9301
8010f974:	38946000 	.word	0x609438
8010f978:	18923469 	.word	0x69349218
8010f97c:	0093545e 	.word	0x5e549300
8010f980:	00990000 	sll	s3,zero,0x4
8010f984:	00100000 	sll	v0,zero,0x0
8010f988:	00002792 	lbu	a3,0(s1)
8010f98c:	32005135 	ori	s1,t2,0x32
8010f990:	3d273400 	.word	0x34273d
8010f994:	51325c00 	.word	0x5c3251
8010f998:	94606927 	addiu	t1,k1,24724
8010f99c:	92350039 	xori	zero,t0,0x3592
8010f9a0:	94600018 	blez	zero,0x80127bf4
8010f9a4:	92345c00 	.word	0x5c3492
8010f9a8:	93480027 	addiu	zero,t8,18579
8010f9ac:	92320029 	slti	zero,t0,12946
8010f9b0:	934c0028 	slti	zero,zero,19603
8010f9b4:	92355600 	.word	0x563592
8010f9b8:	94606e00 	.word	0x6e6094
8010f9bc:	99007300 	.word	0x730099
8010f9c0:	0f472792 	lbu	a3,18191(s1)
8010f9c4:	34000193 	lbu	at,52(t8)
8010f9c8:	4f003894 	lhu	t8,79(at)
8010f9cc:	60001892 	lbu	t8,96(s0)
8010f9d0:	375c0093 	lbu	zero,23607(t8)
8010f9d4:	54000099 	lwr	zero,84(t0)
8010f9d8:	00732792 	lbu	a3,29440(s1)
8010f9dc:	35005134 	ori	s1,v0,0x35
8010f9e0:	56009348 	.word	0x48930056
8010f9e4:	6c009460 	.word	0x6094006c
8010f9e8:	73009900 	.word	0x990073
8010f9ec:	00000f00 	sll	zero,t7,0x0
8010f9f0:	00000027 	addiu	zero,t8,0
8010f9f4:	92370029 	slti	zero,t0,14226
8010f9f8:	934c7010 	beq	v1,s0,0x80122c48
8010f9fc:	94600018 	blez	zero,0x80127c50
8010fa00:	92354c00 	.word	0x4c3592
8010fa04:	94607327 	addiu	s3,k1,24724
8010fa08:	92340001 	.word	0x1003492
8010fa0c:	934f6538 	xori	a1,v1,0x4f93
8010fa10:	94600018 	blez	zero,0x80127c64
8010fa14:	92375c00 	.word	0x5c3792
8010fa18:	93546527 	addiu	a1,k1,21651
8010fa1c:	92350051 	.word	0x51003592
8010fa20:	39692737 	ori	a3,t9,0x6939
8010fa24:	00513553 	.word	0x53355100
8010fa28:	00990478 	.word	0x78049900
8010fa2c:	000c6000 	.word	0x600c00
8010fa30:	0f472792 	lbu	a3,18191(s1)
8010fa34:	39005137 	ori	s1,k0,0x39
8010fa38:	6900990b 	j	0x8e6401a4
8010fa3c:	69279235 	ori	s2,t4,0x2769
8010fa40:	00513973 	.word	0x73395100
8010fa44:	00934800 	.word	0x489300
8010fa48:	00990400 	sll	s3,a0,0x4
8010fa4c:	000c0000 	sll	at,zero,0x10
8010fa50:	0f000009 	j	0x8400003c
8010fa54:	5c279237 	ori	s2,gp,0x275c
8010fa58:	0029934c 	.word	0x4c932900
8010fa5c:	0028923c 	.word	0x3c922800
8010fa60:	6e00990b 	j	0x8e6401b8
8010fa64:	00000578 	.word	0x78050000
8010fa68:	15903400 	.word	0x349015
8010fa6c:	12923900 	.word	0x399212
8010fa70:	01934f00 	.word	0x4f9301
8010fa74:	0a912b00 	.word	0x2b910a
8010fa78:	05903c00 	.word	0x3c9005
8010fa7c:	412f7800 	.word	0x782f41
8010fa80:	91267800 	.word	0x782691
8010fa84:	921a5600 	.word	0x561a92
8010fa88:	93540000 	.word	0x5493
8010fa8c:	945b7300 	.word	0x735b94
8010fa90:	99090000 	.word	0x999
8010fa94:	93477200 	.word	0x724793
8010fa98:	99007800 	.word	0x780099
8010fa9c:	0f652792 	lbu	a3,25871(s1)
8010faa0:	3c002993 	lbu	t1,60(t9)
8010faa4:	4a662892 	lbu	t0,26186(s1)
8010faa8:	1c5c0099 	lwr	zero,23580(t0)
8010faac:	05000000 	.word	0x5
8010fab0:	7827921a 	.word	0x1a922778
8010fab4:	0001934d 	.word	0x4d930100
8010fab8:	6650921d 	.word	0x1d925066
8010fabc:	69009351 	.word	0x51930069
8010fac0:	5c009900 	.word	0x99005c
8010fac4:	00000f00 	sll	zero,t7,0x0
8010fac8:	00000027 	addiu	zero,t8,0
8010facc:	921c0051 	.word	0x51001c92
8010fad0:	1f3d271d 	.word	0x1d273d1f
8010fad4:	00511c5c 	.word	0x5c1c5100
8010fad8:	271f0051 	.word	0x51001f27
8010fadc:	1d5c0093 	lbu	zero,23581(t8)
8010fae0:	47002792 	lbu	a3,71(s1)
8010fae4:	1c002993 	lbu	t1,28(t9)
8010fae8:	4a001090 	lbu	s0,74(zero)
8010faec:	2f000091 	lbu	zero,47(t0)
8010faf0:	26000094 	lhu	zero,38(zero)
8010faf4:	5b0016bf 	.word	0xbf16005b
8010faf8:	631e2992 	lbu	t1,7779(s1)
8010fafc:	1d000193 	lbu	at,29(t8)
8010fb00:	4d005051 	.word	0x5150004d
8010fb04:	0000ff2f 	sltiu	ra,ra,0
8010fb08:	00000000 	nop
8010fb0c:	70514553 	.word	0x53455170
8010fb10:	00000001 	.word	0x1000000
8010fb14:	01e0070a 	j	0x881f8004
8010fb18:	e2040200 	.word	0x204e2
8010fb1c:	c00100c1 	lwc0	c0_index,448(t0)
8010fb20:	0100c201 	.word	0x1c20001
8010fb24:	00c90000 	sll	t9,zero,0x4
8010fb28:	b0076400 	.word	0x6407b0
8010fb2c:	b1075500 	.word	0x5507b1
8010fb30:	b2076e00 	.word	0x6e07b2
8010fb34:	b90a4000 	.word	0x400ab9
8010fb38:	b00a5800 	.word	0x580ab0
8010fb3c:	b10a4000 	.word	0x400ab1
8010fb40:	b20a2800 	.word	0x280ab2
8010fb44:	b9075a81 	lb	k0,1977(t2)
8010fb48:	6ebf6314 	bne	v1,v1,0x800ff904
8010fb4c:	01067f01 	.word	0x17f0601
8010fb50:	900c7300 	.word	0x730c90
8010fb54:	92307600 	.word	0x763092
8010fb58:	99007600 	.word	0x760099
8010fb5c:	166c8140 	.word	0x40816c16
8010fb60:	900c0000 	.word	0xc90
8010fb64:	99000000 	.word	0x99
8010fb68:	16003090 	lbu	s0,22(at)
8010fb6c:	0c730092 	lbu	zero,29452(s0)
8010fb70:	3c640099 	lwr	zero,25660(t0)
8010fb74:	03450011 	beqz	t0,0x80120f84
8010fb78:	46601100 	.word	0x116046
8010fb7c:	1892374e 	c3	0x379218
8010fb80:	48900c00 	.word	0xc9048
8010fb84:	00990300 	sll	s3,v1,0x4
8010fb88:	18923c00 	.word	0x3c9218
8010fb8c:	18900e6e 	.word	0x6e0e9018
8010fb90:	0092346f 	.word	0x6f349200
8010fb94:	0099027f 	.word	0x7f029900
8010fb98:	00176c60 	.word	0x606c1700
8010fb9c:	92370018 	blez	zero,0x8011d9e8
8010fba0:	3c600099 	lwr	zero,24636(t0)
8010fba4:	15594890 	lbu	t0,22805(v0)
8010fba8:	0e000099 	lwr	zero,14(t0)
8010fbac:	02000017 	bnez	t8,0x8010fbb8
8010fbb0:	00181500 	sll	v1,s5,0x0
8010fbb4:	18901078 	.word	0x78109018
8010fbb8:	0092374e 	c3	0x379200
8010fbbc:	0099007b 	.word	0x7b009900
8010fbc0:	00034000 	.word	0x400300
8010fbc4:	16746092 	lbu	zero,29718(s3)
8010fbc8:	3c001840 	.word	0x4018003c
8010fbcc:	54009911 	beq	t4,t9,0x8010fd20
8010fbd0:	50489010 	beq	a0,s0,0x80121d14
8010fbd4:	00009900 	.word	0x990000
8010fbd8:	00000300 	sll	zero,v1,0x0
8010fbdc:	00160018 	blez	zero,0x801153e0
8010fbe0:	92300000 	.word	0x3092
8010fbe4:	99110000 	.word	0x1199
8010fbe8:	92340000 	.word	0x3492
8010fbec:	37001890 	lbu	t8,55(zero)
8010fbf0:	0e730092 	lbu	zero,29454(s0)
8010fbf4:	30760099 	lwr	zero,30256(t0)
8010fbf8:	007f0012 	beqz	s0,0x8012f7fc
8010fbfc:	47609240 	.word	0x40926047
8010fc00:	00009912 	beq	s4,t9,0x8010fc04
8010fc04:	00181144 	mfc1	s1,$f3
8010fc08:	48900e00 	.word	0xe9048
8010fc0c:	00990000 	sll	s3,zero,0x4
8010fc10:	18110018 	blez	zero,0x80114074
8010fc14:	900c7300 	.word	0x730c90
8010fc18:	92376400 	.word	0x643792
8010fc1c:	99034500 	.word	0x450399
8010fc20:	17607892 	lbu	t8,24599(s3)
8010fc24:	3c4e0099 	lwr	zero,20028(t0)
8010fc28:	11604890 	lbu	t0,24593(v0)
8010fc2c:	0c000099 	lwr	zero,12(t0)
8010fc30:	03000017 	bnez	t8,0x8010fc40
8010fc34:	00189237 	ori	s2,gp,0x1800
8010fc38:	00009911 	beq	t4,t9,0x8010fc3c
8010fc3c:	0018900b 	j	0x8e406000
8010fc40:	73009234 	ori	s2,a0,0x73
8010fc44:	6f009902 	.word	0x299006f
8010fc48:	76001669 	.word	0x69160076
8010fc4c:	60923c00 	.word	0x3c9260
8010fc50:	18991556 	.word	0x56159918
8010fc54:	48900b00 	.word	0xb9048
8010fc58:	00990200 	sll	s3,v0,0x4
8010fc5c:	00160018 	blez	zero,0x80115460
8010fc60:	15001890 	lbu	t8,21(zero)
8010fc64:	07780092 	lbu	zero,30727(s0)
8010fc68:	3c4e0099 	lwr	zero,20028(t0)
8010fc6c:	03400014 	bnez	zero,0x8011fc7c
8010fc70:	4a601400 	.word	0x14604a
8010fc74:	18924054 	.word	0x54409218
8010fc78:	00991356 	.word	0x56139900
8010fc7c:	10923400 	.word	0x349210
8010fc80:	38990300 	.word	0x39938
8010fc84:	18923000 	.word	0x309218
8010fc88:	00991300 	sll	s3,s3,0x4
8010fc8c:	00923c00 	.word	0x3c9200
8010fc90:	00400018 	blez	zero,0x8011fc94
8010fc94:	35760099 	lwr	zero,30261(t0)
8010fc98:	00760016 	bnez	s0,0x8012d49c
8010fc9c:	6c812290 	lbu	v0,-32404(at)
8010fca0:	07001e99 	lwr	s8,7(t0)
8010fca4:	00000016 	bnez	s0,0x8010fca8
8010fca8:	0030900c 	jal	0x8240c000
8010fcac:	73009239 	xori	s2,t4,0x73
8010fcb0:	64009903 	.word	0x3990064
8010fcb4:	45001146 	c1	0x110045
8010fcb8:	60110018 	blez	zero,0x8011423c
8010fcbc:	923c4e48 	.word	0x484e3c92
8010fcc0:	900c0000 	.word	0xc90
8010fcc4:	99030018 	blez	zero,0x80110b2c
8010fcc8:	92350000 	.word	0x3592
8010fccc:	3900003c 	lui	zero,0x39
8010fcd0:	00183476 	jalx	0x88d06001
8010fcd4:	0099027f 	.word	0x7f029900
8010fcd8:	00176c78 	.word	0x786c1700
8010fcdc:	15594802 	.word	0x2485915
8010fce0:	00001700 	sll	zero,s7,0x0
8010fce4:	18150018 	blez	zero,0x80115148
8010fce8:	900b7800 	.word	0x780b90
8010fcec:	92376400 	.word	0x643792
8010fcf0:	99007b00 	.word	0x7b0099
8010fcf4:	03400016 	bnez	s0,0x8011fd04
8010fcf8:	7478923b 	xori	s2,gp,0x7874
8010fcfc:	4e009911 	beq	t4,t9,0x8010fe38
8010fd00:	5048900b 	j	0x8e412140
8010fd04:	00009900 	.word	0x990000
8010fd08:	00000300 	sll	zero,v1,0x0
8010fd0c:	00160018 	blez	zero,0x80115510
8010fd10:	92340000 	.word	0x3492
8010fd14:	99110000 	.word	0x1199
8010fd18:	92370000 	.word	0x3792
8010fd1c:	3b001832 	andi	t8,s0,0x3b
8010fd20:	76009900 	.word	0x990076
8010fd24:	7f001247 	c1	0x112007f
8010fd28:	60120018 	blez	zero,0x801146ac
8010fd2c:	11444800 	.word	0x484411
8010fd30:	00181100 	sll	v1,s1,0x0
8010fd34:	18900973 	.word	0x73099018
8010fd38:	00923564 	.word	0x64359200
8010fd3c:	00990345 	.word	0x45039900
8010fd40:	00176078 	.word	0x78601700
8010fd44:	92394e00 	.word	0x4e3992
8010fd48:	99116048 	.word	0x48601199
8010fd4c:	90090000 	.word	0x990
8010fd50:	99030000 	.word	0x399
8010fd54:	17001892 	lbu	t8,23(s0)
8010fd58:	32000099 	lwr	zero,50(t0)
8010fd5c:	11000092 	lbu	zero,17(s0)
8010fd60:	35000039 	xori	zero,t0,0x35
8010fd64:	00182b76 	jalx	0x88ac6001
8010fd68:	00990276 	jalx	0x880a6401
8010fd6c:	00166978 	.word	0x78691600
8010fd70:	15564802 	.word	0x2485615
8010fd74:	00001600 	sll	zero,s6,0x0
8010fd78:	18150018 	blez	zero,0x801151dc
8010fd7c:	90077c00 	.word	0x7c0790
8010fd80:	92326400 	.word	0x643292
8010fd84:	99034000 	.word	0x400399
8010fd88:	144a6014 	bnez	v1,0x801225dc
8010fd8c:	00189237 	ori	s2,gp,0x1800
8010fd90:	4e009913 	beq	gp,t9,0x8010fecc
8010fd94:	56489007 	bltzal	gp,0x80121ef0
8010fd98:	00009903 	.word	0x3990000
8010fd9c:	0018922b 	slti	s2,gp,6144
8010fda0:	00009913 	beq	gp,t9,0x8010fda4
8010fda4:	00009232 	andi	s2,s4,0x0
8010fda8:	00003700 	.word	0x370000
8010fdac:	18900973 	.word	0x73099018
8010fdb0:	00922f76 	jalx	0x88be4801
8010fdb4:	00990076 	jalx	0x88026401
8010fdb8:	00166c81 	lb	t4,5632(t3)
8010fdbc:	40900900 	sll	s2,t1,0x1
8010fdc0:	00990000 	sll	s3,zero,0x4
8010fdc4:	00160030 	andi	zero,zero,0x1600
8010fdc8:	90097300 	.word	0x730990
8010fdcc:	923e6400 	.word	0x643e92
8010fdd0:	99034500 	.word	0x450399
8010fdd4:	11466011 	beqz	t3,0x8012161c
8010fdd8:	00189239 	xori	s2,t4,0x1800
8010fddc:	4e489009 	j	0x86412138
8010fde0:	00009903 	.word	0x3990000
8010fde4:	0018923e 	.word	0x3e921800
8010fde8:	0018900b 	j	0x8e406000
8010fdec:	6e009235 	ori	s2,t4,0x6e
8010fdf0:	6f009902 	.word	0x299006f
8010fdf4:	7f00176c 	.word	0x6c17007f
8010fdf8:	60923900 	.word	0x399260
8010fdfc:	183e6000 	.word	0x603e18
8010fe00:	99155948 	.word	0x48591599
8010fe04:	900b0000 	.word	0xb90
8010fe08:	99020000 	.word	0x299
8010fe0c:	17001815 	bne	t0,t8,0x8010fe6c
8010fe10:	0018900c 	jal	0x82406000
8010fe14:	73009239 	xori	s2,t4,0x73
8010fe18:	4e009900 	.word	0x99004e
8010fe1c:	7b000340 	.word	0x4003007b
8010fe20:	00167460 	.word	0x60741600
8010fe24:	923e0018 	blez	zero,0x8011f870
8010fe28:	41540099 	lwr	zero,21569(t0)
8010fe2c:	11504890 	lbu	t0,20497(v0)
8010fe30:	0c000099 	lwr	zero,12(t0)
8010fe34:	00000003 	.word	0x3000000
8010fe38:	00001600 	sll	zero,s6,0x0
8010fe3c:	18922f00 	.word	0x2f9218
8010fe40:	00991100 	sll	s3,s1,0x4
8010fe44:	00923500 	.word	0x359200
8010fe48:	00390018 	blez	zero,0x8011e24c
8010fe4c:	900b6e00 	.word	0x6e0b90
8010fe50:	922f7600 	.word	0x762f92
8010fe54:	99007f00 	.word	0x7f0099
8010fe58:	12476092 	lbu	zero,18194(s3)
8010fe5c:	41000099 	lwr	zero,65(t0)
8010fe60:	12001811 	beq	t0,t8,0x8010feac
8010fe64:	44480000 	.word	0x4844
8010fe68:	18110018 	blez	zero,0x801142cc
8010fe6c:	92396400 	.word	0x643992
8010fe70:	99034500 	.word	0x450399
8010fe74:	17607892 	lbu	t8,24599(s3)
8010fe78:	3e4e0099 	lwr	zero,20030(t0)
8010fe7c:	11602a90 	lbu	t2,24593(at)
8010fe80:	0b001e99 	lwr	s8,11(t0)
8010fe84:	03000017 	bnez	t8,0x8010fe94
8010fe88:	00189239 	xori	s2,t4,0x1800
8010fe8c:	00009911 	beq	t4,t9,0x8010fe90
8010fe90:	00189010 	beq	a0,s0,0x80115e94
8010fe94:	7f009235 	ori	s2,t4,0x7f
8010fe98:	6f009902 	.word	0x299006f
8010fe9c:	76001669 	.word	0x69160076
8010fea0:	60923e00 	.word	0x3e9260
8010fea4:	18991556 	.word	0x56159918
8010fea8:	48901000 	.word	0x109048
8010feac:	00990200 	sll	s3,v0,0x4
8010feb0:	00160018 	blez	zero,0x801156b4
8010feb4:	15001890 	lbu	t8,21(zero)
8010feb8:	0e7f0092 	lbu	zero,32526(s0)
8010febc:	3b4e0099 	lwr	zero,20027(t0)
8010fec0:	03400014 	bnez	zero,0x8011fed0
8010fec4:	4a601400 	.word	0x14604a
8010fec8:	18923e54 	.word	0x543e9218
8010fecc:	00991356 	.word	0x56139900
8010fed0:	48900e00 	.word	0xe9048
8010fed4:	00990300 	sll	s3,v1,0x4
8010fed8:	18922f00 	.word	0x2f9218
8010fedc:	00991300 	sll	s3,s3,0x4
8010fee0:	00923500 	.word	0x359200
8010fee4:	003b0000 	sll	a3,zero,0xc
8010fee8:	3e001890 	lbu	t8,62(zero)
8010feec:	0c780092 	lbu	zero,30732(s0)
8010fef0:	2b760099 	lwr	zero,30251(t0)
8010fef4:	00760016 	bnez	s0,0x8012d6f8
8010fef8:	6c814090 	lbu	zero,-32404(v0)
8010fefc:	0c000099 	lwr	zero,12(t0)
8010ff00:	00000016 	bnez	s0,0x8010ff04
8010ff04:	00309007 	bltzal	gp,0x8011bf08
8010ff08:	6900923b 	xori	s2,gp,0x69
8010ff0c:	64009903 	.word	0x3990064
8010ff10:	45001146 	c1	0x110045
8010ff14:	60110018 	blez	zero,0x80114498
8010ff18:	92374e48 	.word	0x484e3792
8010ff1c:	90070000 	.word	0x790
8010ff20:	99030018 	blez	zero,0x80110d88
8010ff24:	923b0018 	blez	zero,0x8011ed70
8010ff28:	90097300 	.word	0x730990
8010ff2c:	922f6f00 	.word	0x6f2f92
8010ff30:	99027f00 	.word	0x7f0299
8010ff34:	176c6092 	lbu	zero,27671(s3)
8010ff38:	3700183b 	xori	t8,t8,0x37
8010ff3c:	60009915 	bne	t4,t9,0x801100c0
8010ff40:	59489009 	j	0x86412164
8010ff44:	00009902 	.word	0x2990000
8010ff48:	00001700 	sll	zero,s7,0x0
8010ff4c:	18150018 	blez	zero,0x801153b0
8010ff50:	900b7c00 	.word	0x7c0b90
8010ff54:	92374e00 	.word	0x4e3792
8010ff58:	99007b00 	.word	0x7b0099
8010ff5c:	03400016 	bnez	s0,0x8011ff6c
8010ff60:	7460923b 	xori	s2,gp,0x6074
8010ff64:	00184354 	.word	0x54431800
8010ff68:	00991150 	.word	0x50119900
8010ff6c:	38922f00 	.word	0x2f9238
8010ff70:	10900b00 	.word	0xb9010
8010ff74:	00990000 	sll	s3,zero,0x4
8010ff78:	00030000 	sll	zero,zero,0xc
8010ff7c:	16001892 	lbu	t8,22(s0)
8010ff80:	2b000099 	lwr	zero,43(t0)
8010ff84:	11000092 	lbu	zero,17(s0)
8010ff88:	37001890 	lbu	t8,55(zero)
8010ff8c:	0e7c0092 	lbu	zero,31758(s0)
8010ff90:	2b760099 	lwr	zero,30251(t0)
8010ff94:	007f0012 	beqz	s0,0x8012fb98
8010ff98:	47609243 	c0	0x1926047
8010ff9c:	00009912 	beq	s4,t9,0x8010ffa0
8010ffa0:	00181144 	mfc1	s1,$f3
8010ffa4:	48000018 	blez	zero,0x801100c8
8010ffa8:	11001892 	lbu	t8,17(s0)
8010ffac:	37640099 	lwr	zero,25655(t0)
8010ffb0:	03450017 	bnez	t8,0x801213c0
8010ffb4:	6078923b 	xori	s2,gp,0x7860
8010ffb8:	4e009911 	beq	t4,t9,0x801100f4
8010ffbc:	602a900e 	jal	0x8a40a980
8010ffc0:	001e9903 	.word	0x3991e00
8010ffc4:	00001700 	sll	zero,s7,0x0
8010ffc8:	18923700 	.word	0x379218
8010ffcc:	00991100 	sll	s3,s1,0x4
8010ffd0:	1892326f 	.word	0x6f329218
8010ffd4:	00990276 	jalx	0x880a6401
8010ffd8:	00166960 	.word	0x60691600
8010ffdc:	923b0018 	blez	zero,0x8011ee28
8010ffe0:	99155648 	.word	0x48561599
8010ffe4:	02000016 	bnez	s0,0x8010fff0
8010ffe8:	00181500 	sll	v1,s5,0x0
8010ffec:	18923b4e 	c3	0x3b9218
8010fff0:	00990340 	.word	0x40039900
8010fff4:	00144a38 	xori	t2,v0,0x1400
8010fff8:	92320028 	slti	zero,zero,12946
8010fffc:	99140018 	blez	zero,0x80115264
80110000:	92435400 	.word	0x544392
80110004:	99135648 	.word	0x48561399
80110008:	03001892 	lbu	t8,3(s0)
8011000c:	2b000099 	lwr	zero,43(t0)
80110010:	13000092 	lbu	zero,19(s0)
80110014:	3b000043 	c0	0x100003b
80110018:	0018900c 	jal	0x82406000
8011001c:	73009230 	andi	s2,a0,0x73
80110020:	76009900 	.word	0x990076
80110024:	7600166c 	.word	0x6c160076
80110028:	8140900c 	jal	0x82410204
8011002c:	00009900 	.word	0x990000
80110030:	00001600 	sll	zero,s6,0x0
80110034:	30900c73 	.word	0x730c9030
80110038:	00923c64 	.word	0x643c9200
8011003c:	00990345 	.word	0x45039900
80110040:	00114660 	.word	0x60461100
80110044:	11001892 	lbu	t8,17(s0)
80110048:	374e4890 	lbu	t0,20023(v0)
8011004c:	0c000099 	lwr	zero,12(t0)
80110050:	03001892 	lbu	t8,3(s0)
80110054:	3c001890 	lbu	t8,60(zero)
80110058:	0e6e0092 	lbu	zero,28174(s0)
8011005c:	346f0099 	lwr	zero,28468(t0)
80110060:	027f0017 	bnez	t8,0x8012fc6c
80110064:	6c609237 	ori	s2,gp,0x606c
80110068:	00183c60 	.word	0x603c1800
8011006c:	00991559 	.word	0x59159900
80110070:	48900e00 	.word	0xe9048
80110074:	00990200 	sll	s3,v0,0x4
80110078:	00170018 	blez	zero,0x80115c7c
8011007c:	15001890 	lbu	t8,21(zero)
80110080:	10780092 	lbu	zero,30736(s0)
80110084:	374e0099 	lwr	zero,20023(t0)
80110088:	007b0003 	.word	0x3007b00
8011008c:	40001674 	jalx	0x80580101
80110090:	60923c00 	.word	0x3c9260
80110094:	18405400 	.word	0x544018
80110098:	99115038 	xori	s0,v0,0x1199
8011009c:	92340010 	b	0x8011d2e8
801100a0:	90100000 	.word	0x1090
801100a4:	99000000 	.word	0x99
801100a8:	03000016 	bnez	s0,0x801100b8
801100ac:	00189230 	andi	s2,a0,0x1800
801100b0:	00009911 	beq	t4,t9,0x801100b4
801100b4:	00009237 	ori	s2,gp,0x0
801100b8:	0018900e 	jal	0x8a406000
801100bc:	73009230 	andi	s2,a0,0x73
801100c0:	76009900 	.word	0x990076
801100c4:	7f001247 	c1	0x112007f
801100c8:	60924000 	.word	0x409260
801100cc:	00991200 	sll	s3,s2,0x4
801100d0:	18114448 	.word	0x48441118
801100d4:	900e0000 	.word	0xe90
801100d8:	99000018 	blez	zero,0x80110340
801100dc:	11001890 	lbu	t8,17(zero)
801100e0:	0c730092 	lbu	zero,29452(s0)
801100e4:	37640099 	lwr	zero,25655(t0)
801100e8:	03450017 	bnez	t8,0x801214f8
801100ec:	6078923c 	.word	0x3c927860
801100f0:	4e009911 	beq	t4,t9,0x8011022c
801100f4:	6048900c 	jal	0x82412180
801100f8:	00009903 	.word	0x3990000
801100fc:	00001700 	sll	zero,s7,0x0
80110100:	18923700 	.word	0x379218
80110104:	00991100 	sll	s3,s1,0x4
80110108:	18900b73 	.word	0x730b9018
8011010c:	0092346f 	.word	0x6f349200
80110110:	00990276 	jalx	0x880a6401
80110114:	00166960 	.word	0x60691600
80110118:	923c0018 	blez	zero,0x8011f364
8011011c:	99155648 	.word	0x48561599
80110120:	900b0000 	.word	0xb90
80110124:	99020000 	.word	0x299
80110128:	16001815 	bne	t0,t8,0x80110184
8011012c:	00189007 	bltzal	gp,0x80116130
80110130:	7800923c 	.word	0x3c920078
80110134:	4e009903 	.word	0x399004e
80110138:	4000144a 	c2	0x140040
8011013c:	60140018 	blez	zero,0x801152c0
80110140:	92405400 	.word	0x544092
80110144:	99135638 	xori	s6,v0,0x1399
80110148:	92340010 	b	0x8011d394
8011014c:	99030018 	blez	zero,0x80110fb4
80110150:	92300000 	.word	0x3092
80110154:	99130000 	.word	0x1399
80110158:	923c0000 	.word	0x3c92
8011015c:	40001835 	ori	t8,t0,0x40
80110160:	76009900 	.word	0x990076
80110164:	7600166c 	.word	0x6c160076
80110168:	81229007 	bltzal	gp,0x80118b70
8011016c:	001e9900 	.word	0x991e00
80110170:	00001600 	sll	zero,s6,0x0
80110174:	30900c73 	.word	0x730c9030
80110178:	00923964 	.word	0x64399200
8011017c:	00990345 	.word	0x45039900
80110180:	00114660 	.word	0x60461100
80110184:	11001892 	lbu	t8,17(s0)
80110188:	3c4e4890 	lbu	t0,20028(v0)
8011018c:	0c000099 	lwr	zero,12(t0)
80110190:	03001892 	lbu	t8,3(s0)
80110194:	35000039 	xori	zero,t0,0x35
80110198:	00003c00 	.word	0x3c0000
8011019c:	18347600 	.word	0x763418
801101a0:	99027f00 	.word	0x7f0299
801101a4:	176c7815 	bne	t3,t8,0x8012b204
801101a8:	59480200 	.word	0x24859
801101ac:	00170018 	blez	zero,0x80115db0
801101b0:	15001890 	lbu	t8,21(zero)
801101b4:	0b780092 	lbu	zero,30731(s0)
801101b8:	37640099 	lwr	zero,25655(t0)
801101bc:	007b0003 	.word	0x3007b00
801101c0:	40001674 	jalx	0x80580101
801101c4:	78923b4e 	c3	0x3b9278
801101c8:	00991150 	.word	0x50119900
801101cc:	48900b00 	.word	0xb9048
801101d0:	00990000 	sll	s3,zero,0x4
801101d4:	00030000 	sll	zero,zero,0xc
801101d8:	16001892 	lbu	t8,22(s0)
801101dc:	34000099 	lwr	zero,52(t0)
801101e0:	11000092 	lbu	zero,17(s0)
801101e4:	3700003b 	xori	zero,t8,0x37
801101e8:	00183276 	jalx	0x88c86001
801101ec:	0099007f 	.word	0x7f009900
801101f0:	00124760 	.word	0x60471200
801101f4:	12001811 	beq	t0,t8,0x80110240
801101f8:	44480000 	.word	0x4844
801101fc:	18110018 	blez	zero,0x80114660
80110200:	90097300 	.word	0x730990
80110204:	92356400 	.word	0x643592
80110208:	99034500 	.word	0x450399
8011020c:	17607892 	lbu	t8,24599(s3)
80110210:	394e0099 	lwr	zero,20025(t0)
80110214:	11604890 	lbu	t0,24593(v0)
80110218:	09000099 	lwr	zero,9(t0)
8011021c:	03000017 	bnez	t8,0x8011022c
80110220:	00189232 	andi	s2,s4,0x1800
80110224:	00009911 	beq	t4,t9,0x80110228
80110228:	00009235 	ori	s2,t4,0x0
8011022c:	00003900 	.word	0x390000
80110230:	182f7600 	.word	0x762f18
80110234:	99027600 	.word	0x760299
80110238:	16697815 	bne	t3,t8,0x8012a694
8011023c:	56480200 	.word	0x24856
80110240:	00160018 	blez	zero,0x80115a44
80110244:	15001890 	lbu	t8,21(zero)
80110248:	077c0092 	lbu	zero,31751(s0)
8011024c:	32640099 	lwr	zero,25650(t0)
80110250:	03400014 	bnez	zero,0x80120260
80110254:	4a601400 	.word	0x14604a
80110258:	1892374e 	c3	0x379218
8011025c:	00991356 	.word	0x56139900
80110260:	48900700 	.word	0x79048
80110264:	00990300 	sll	s3,v1,0x4
80110268:	18922f00 	.word	0x2f9218
8011026c:	00991300 	sll	s3,s3,0x4
80110270:	00923200 	.word	0x329200
80110274:	00370018 	blez	zero,0x8011de78
80110278:	90097300 	.word	0x730990
8011027c:	922f7600 	.word	0x762f92
80110280:	99007600 	.word	0x760099
80110284:	166c8140 	.word	0x40816c16
80110288:	90090000 	.word	0x990
8011028c:	99000000 	.word	0x99
80110290:	16003090 	lbu	s0,22(at)
80110294:	09730092 	lbu	zero,29449(s0)
80110298:	3e640099 	lwr	zero,25662(t0)
8011029c:	03450011 	beqz	t0,0x801216ac
801102a0:	46601100 	.word	0x116046
801102a4:	1892394e 	c3	0x399218
801102a8:	48900900 	.word	0x99048
801102ac:	00990300 	sll	s3,v1,0x4
801102b0:	18923e00 	.word	0x3e9218
801102b4:	18900b6e 	.word	0x6e0b9018
801102b8:	0092356f 	.word	0x6f359200
801102bc:	0099027f 	.word	0x7f029900
801102c0:	00176c60 	.word	0x606c1700
801102c4:	92390018 	blez	zero,0x8011e910
801102c8:	3e600099 	lwr	zero,24638(t0)
801102cc:	15594890 	lbu	t0,22805(v0)
801102d0:	0b000099 	lwr	zero,11(t0)
801102d4:	02000017 	bnez	t8,0x801102e0
801102d8:	00181500 	sll	v1,s5,0x0
801102dc:	18900c73 	.word	0x730c9018
801102e0:	0092394e 	c3	0x399200
801102e4:	0099007b 	.word	0x7b009900
801102e8:	00034000 	.word	0x400300
801102ec:	16746092 	lbu	zero,29718(s3)
801102f0:	3e001841 	.word	0x4118003e
801102f4:	54009911 	beq	t4,t9,0x80110448
801102f8:	50389235 	ori	s2,t4,0x3850
801102fc:	0010900c 	jal	0x82404000
80110300:	00009900 	.word	0x990000
80110304:	00000300 	sll	zero,v1,0x0
80110308:	00160018 	blez	zero,0x80115b0c
8011030c:	922f0000 	.word	0x2f92
80110310:	99110000 	.word	0x1199
80110314:	92390018 	blez	zero,0x8011e960
80110318:	90076e00 	.word	0x6e0790
8011031c:	922f7600 	.word	0x762f92
80110320:	99007f00 	.word	0x7f0099
80110324:	12476092 	lbu	zero,18194(s3)
80110328:	41000099 	lwr	zero,65(t0)
8011032c:	12001811 	beq	t0,t8,0x80110378
80110330:	44480000 	.word	0x4844
80110334:	18110018 	blez	zero,0x80114798
80110338:	92396400 	.word	0x643992
8011033c:	99034500 	.word	0x450399
80110340:	17607892 	lbu	t8,24599(s3)
80110344:	3e4e0099 	lwr	zero,20030(t0)
80110348:	11602a90 	lbu	t2,24593(at)
8011034c:	07001e99 	lwr	s8,7(t0)
80110350:	03000017 	bnez	t8,0x80110360
80110354:	00189239 	xori	s2,t4,0x1800
80110358:	00009911 	beq	t4,t9,0x8011035c
8011035c:	00189010 	beq	a0,s0,0x80116360
80110360:	7f009235 	ori	s2,t4,0x7f
80110364:	6f009902 	.word	0x299006f
80110368:	76001669 	.word	0x69160076
8011036c:	60923e00 	.word	0x3e9260
80110370:	18991556 	.word	0x56159918
80110374:	48901000 	.word	0x109048
80110378:	00990200 	sll	s3,v0,0x4
8011037c:	00160018 	blez	zero,0x80115b80
80110380:	15001890 	lbu	t8,21(zero)
80110384:	0e7f0092 	lbu	zero,32526(s0)
80110388:	3b4e0099 	lwr	zero,20027(t0)
8011038c:	03400014 	bnez	zero,0x8012039c
80110390:	4a601400 	.word	0x14604a
80110394:	18923e54 	.word	0x543e9218
80110398:	00991356 	.word	0x56139900
8011039c:	38923500 	.word	0x359238
801103a0:	10900e00 	.word	0xe9010
801103a4:	00990300 	sll	s3,v1,0x4
801103a8:	18922f00 	.word	0x2f9218
801103ac:	00991300 	sll	s3,s3,0x4
801103b0:	00923b00 	.word	0x3b9200
801103b4:	003e0018 	blez	zero,0x8011fbb8
801103b8:	900c7800 	.word	0x780c90
801103bc:	922b7600 	.word	0x762b92
801103c0:	99007600 	.word	0x760099
801103c4:	166c8140 	.word	0x40816c16
801103c8:	900c0000 	.word	0xc90
801103cc:	99000000 	.word	0x99
801103d0:	16003090 	lbu	s0,22(at)
801103d4:	07690092 	lbu	zero,26887(s0)
801103d8:	3b640099 	lwr	zero,25659(t0)
801103dc:	03450011 	beqz	t0,0x801217ec
801103e0:	46601100 	.word	0x116046
801103e4:	1892374e 	c3	0x379218
801103e8:	48900700 	.word	0x79048
801103ec:	00990300 	sll	s3,v1,0x4
801103f0:	18923b00 	.word	0x3b9218
801103f4:	18900973 	.word	0x73099018
801103f8:	00922f6f 	.word	0x6f2f9200
801103fc:	0099027f 	.word	0x7f029900
80110400:	00176c60 	.word	0x606c1700
80110404:	92370018 	blez	zero,0x8011e250
80110408:	3b600099 	lwr	zero,24635(t0)
8011040c:	15594890 	lbu	t0,22805(v0)
80110410:	09000099 	lwr	zero,9(t0)
80110414:	02000017 	bnez	t8,0x80110420
80110418:	00181500 	sll	v1,s5,0x0
8011041c:	18900b7c 	.word	0x7c0b9018
80110420:	0092374e 	c3	0x379200
80110424:	0099007b 	.word	0x7b009900
80110428:	00034000 	.word	0x400300
8011042c:	16746092 	lbu	zero,29718(s3)
80110430:	3b001843 	c0	0x118003b
80110434:	54009911 	beq	t4,t9,0x80110588
80110438:	5010922f 	sltiu	s2,gp,4176
8011043c:	0038900b 	j	0x8e40e000
80110440:	00009900 	.word	0x990000
80110444:	00000300 	sll	zero,v1,0x0
80110448:	00160018 	blez	zero,0x80115c4c
8011044c:	922b0000 	.word	0x2b92
80110450:	99110000 	.word	0x1199
80110454:	92370018 	blez	zero,0x8011e2a0
80110458:	900c7c00 	.word	0x7c0c90
8011045c:	92307600 	.word	0x763092
80110460:	99007f00 	.word	0x7f0099
80110464:	12476092 	lbu	zero,18194(s3)
80110468:	43000099 	lwr	zero,67(t0)
8011046c:	12001811 	beq	t0,t8,0x801104b8
80110470:	4448900c 	jal	0x82412110
80110474:	00009900 	.word	0x990000
80110478:	00181100 	sll	v1,s1,0x0
8011047c:	18900c7c 	.word	0x7c0c9018
80110480:	00923764 	.word	0x64379200
80110484:	00990345 	.word	0x45039900
80110488:	00176078 	.word	0x78601700
8011048c:	923c4e00 	.word	0x4e3c92
80110490:	99116048 	.word	0x48601199
80110494:	900c0000 	.word	0xc90
80110498:	99030000 	.word	0x399
8011049c:	17001892 	lbu	t8,23(s0)
801104a0:	37000099 	lwr	zero,55(t0)
801104a4:	11001890 	lbu	t8,17(zero)
801104a8:	0c7c0092 	lbu	zero,31756(s0)
801104ac:	346f0099 	lwr	zero,28468(t0)
801104b0:	02760016 	bnez	s0,0x8012dcbc
801104b4:	6960923c 	.word	0x3c926069
801104b8:	00189915 	bne	t4,t9,0x801164bc
801104bc:	56480200 	.word	0x24856
801104c0:	00160018 	blez	zero,0x80115cc4
801104c4:	15001892 	lbu	t8,21(s0)
801104c8:	3c4e0099 	lwr	zero,20028(t0)
801104cc:	03400014 	bnez	zero,0x801204dc
801104d0:	4a601400 	.word	0x14604a
801104d4:	18924054 	.word	0x54409218
801104d8:	00991356 	.word	0x56139900
801104dc:	2a900c00 	slt	s2,zero,t4
801104e0:	0e923400 	.word	0x34920e
801104e4:	10990300 	.word	0x39910
801104e8:	18923000 	.word	0x309218
801104ec:	00991300 	sll	s3,s3,0x4
801104f0:	00923c00 	.word	0x3c9200
801104f4:	00400018 	blez	zero,0x801204f8
801104f8:	900c6c00 	.word	0x6c0c90
801104fc:	911f4e00 	.word	0x4e1f91
80110500:	92306a00 	.word	0x6a3092
80110504:	99007600 	.word	0x760099
80110508:	166c0091 	lbu	zero,27670(t0)
8011050c:	1c4e7892 	lbu	t8,19996(s3)
80110510:	37583391 	lbu	s3,22583(t1)
80110514:	1f001599 	lwr	s5,31(t0)
80110518:	00000016 	bnez	s0,0x8011051c
8011051c:	00189237 	ori	s2,gp,0x1800
80110520:	0018911f 	.word	0x1f911800
80110524:	5c00923c 	.word	0x3c92005c
80110528:	5d009903 	.word	0x399005d
8011052c:	45001146 	c1	0x110045
80110530:	60923c00 	.word	0x3c9260
80110534:	00991100 	sll	s3,s1,0x4
80110538:	10911c00 	.word	0x1c9110
8011053c:	08924062 	.word	0x62409208
80110540:	2a900c00 	slt	s2,zero,t4
80110544:	09911f00 	.word	0x1f9109
80110548:	15990300 	.word	0x39915
8011054c:	18923000 	.word	0x309218
80110550:	00400018 	blez	zero,0x80120554
80110554:	911f4a00 	.word	0x4a1f91
80110558:	92346a00 	.word	0x6a3492
8011055c:	99027f00 	.word	0x7f0299
80110560:	176c7892 	lbu	t8,27671(s3)
80110564:	374e0099 	lwr	zero,20023(t0)
80110568:	15593391 	lbu	s3,22805(t1)
8011056c:	1f001599 	lwr	s5,31(t0)
80110570:	02000017 	bnez	t8,0x8011057c
80110574:	00189237 	ori	s2,gp,0x1800
80110578:	00009915 	bne	t4,t9,0x8011057c
8011057c:	0018911f 	.word	0x1f911800
80110580:	6900923c 	.word	0x3c920069
80110584:	58009900 	.word	0x990058
80110588:	7b000340 	.word	0x4003007b
8011058c:	00167460 	.word	0x60741600
80110590:	923c0018 	blez	zero,0x8011f7dc
80110594:	40620099 	lwr	zero,25152(t0)
80110598:	11503391 	lbu	s3,20497(t1)
8011059c:	1f001599 	lwr	s5,31(t0)
801105a0:	00000003 	.word	0x3000000
801105a4:	00001600 	sll	zero,s6,0x0
801105a8:	18923400 	.word	0x349218
801105ac:	00991100 	sll	s3,s1,0x4
801105b0:	00924000 	.word	0x409200
801105b4:	18900b60 	.word	0x600b9018
801105b8:	00911f64 	.word	0x641f9100
801105bc:	00923255 	.word	0x55329200
801105c0:	0099007f 	.word	0x7f009900
801105c4:	00124700 	.word	0x471200
801105c8:	911c6460 	.word	0x60641c91
801105cc:	99120018 	blez	zero,0x80115034
801105d0:	92375300 	.word	0x533792
801105d4:	99114448 	.word	0x48441199
801105d8:	00001892 	lbu	t8,0(s0)
801105dc:	37000099 	lwr	zero,55(t0)
801105e0:	11000491 	lbu	a0,17(t0)
801105e4:	1f00001c 	bgtz	zero,0x80110664
801105e8:	00141d53 	.word	0x531d1400
801105ec:	00923b5d 	.word	0x5d3b9200
801105f0:	00990345 	.word	0x45039900
801105f4:	00176060 	.word	0x60601700
801105f8:	923b0018 	blez	zero,0x8011f444
801105fc:	41530099 	lwr	zero,21313(t0)
80110600:	11602a90 	lbu	t2,24593(at)
80110604:	0b000e92 	lbu	t6,11(s0)
80110608:	32001099 	lwr	s0,50(t0)
8011060c:	03000017 	bnez	t8,0x8011061c
80110610:	00189241 	.word	0x41921800
80110614:	00009911 	beq	t4,t9,0x80110618
80110618:	0004911d 	.word	0x1d910400
8011061c:	00149009 	j	0x86405000
80110620:	6c00911c 	.word	0x1c91006c
80110624:	5900922b 	slti	s2,gp,89
80110628:	6a009902 	.word	0x299006a
8011062c:	76001669 	.word	0x69160076
80110630:	00911859 	.word	0x59189100
80110634:	7892395d 	.word	0x5d399278
80110638:	00991556 	.word	0x56159900
8011063c:	3c911800 	.word	0x18913c
80110640:	0c990200 	syscall	0xa64
80110644:	00160018 	blez	zero,0x80115e48
80110648:	92390000 	.word	0x3992
8011064c:	99150004 	bltz	zero,0x80115cb4
80110650:	911c0014 	bnez	zero,0x80117898
80110654:	1d5c0092 	lbu	zero,23581(s0)
80110658:	3c5d0099 	lwr	zero,23868(t0)
8011065c:	03400014 	bnez	zero,0x8012066c
80110660:	4a60923c 	.word	0x3c92604a
80110664:	00009914 	bne	a0,t9,0x80110668
80110668:	00189240 	mtc0	s2,$3
8011066c:	5d009913 	beq	gp,t9,0x801107e4
80110670:	562a9009 	j	0x8640a958
80110674:	000e922b 	slti	s2,gp,3584
80110678:	00109903 	.word	0x3991000
8011067c:	00189240 	mtc0	s2,$3
80110680:	00009913 	beq	gp,t9,0x80110684
80110684:	0004911d 	.word	0x1d910400
80110688:	00149007 	bltzal	gp,0x8011568c
8011068c:	6400911c 	.word	0x1c910064
80110690:	56009230 	andi	s2,a0,0x56
80110694:	65009900 	.word	0x990065
80110698:	7600166c 	.word	0x6c160076
8011069c:	00911856 	.word	0x56189100
801106a0:	7892374e 	c3	0x379278
801106a4:	48990000 	.word	0x9948
801106a8:	00160018 	blez	zero,0x80115eac
801106ac:	92370004 	bltz	zero,0x8011e4f8
801106b0:	911c0014 	bnez	zero,0x801178f8
801106b4:	1c600092 	lbu	zero,24604(s0)
801106b8:	3c530099 	lwr	zero,21308(t0)
801106bc:	03450011 	beqz	t0,0x80121acc
801106c0:	4660923c 	.word	0x3c926046
801106c4:	00009911 	beq	t4,t9,0x801106c8
801106c8:	00049118 	.word	0x18910400
801106cc:	00149240 	.word	0x40921400
801106d0:	4e2a9007 	bltzal	gp,0x8011b00c
801106d4:	001e9903 	.word	0x3991e00
801106d8:	00189230 	andi	s2,a0,0x1800
801106dc:	00004000 	.word	0x400000
801106e0:	04911c00 	.word	0x1c9104
801106e4:	1490056b 	.word	0x6b059014
801106e8:	00911a6e 	.word	0x6e1a9100
801106ec:	00923274 	jalx	0x80ca4801
801106f0:	0099027f 	.word	0x7f029900
801106f4:	00176c78 	.word	0x786c1700
801106f8:	92394e00 	.word	0x4e3992
801106fc:	99155948 	.word	0x48591599
80110700:	02000017 	bnez	t8,0x8011070c
80110704:	00189239 	xori	s2,t4,0x1800
80110708:	00009915 	bne	t4,t9,0x8011070c
8011070c:	0004911a 	.word	0x1a910400
80110710:	00141860 	.word	0x60181400
80110714:	00923c5d 	.word	0x5d3c9200
80110718:	0099007b 	.word	0x7b009900
8011071c:	00034000 	.word	0x400300
80110720:	16746092 	lbu	zero,29718(s3)
80110724:	3c001841 	.word	0x4118003c
80110728:	58009911 	beq	t4,t9,0x8011088c
8011072c:	502a9005 	bltzal	t4,0x8011b070
80110730:	001e9900 	.word	0x991e00
80110734:	00000300 	sll	zero,v1,0x0
80110738:	00160018 	blez	zero,0x80115f3c
8011073c:	92320000 	.word	0x3292
80110740:	99110000 	.word	0x1199
80110744:	92410004 	bltz	zero,0x80120d90
80110748:	91180014 	bnez	zero,0x80116990
8011074c:	90046600 	.word	0x660490
80110750:	911a7300 	.word	0x731a91
80110754:	922b6f00 	.word	0x6f2b92
80110758:	99007f00 	.word	0x7f0099
8011075c:	12470091 	lbu	zero,18194(t0)
80110760:	17736099 	lwr	zero,29463(t3)
80110764:	12001892 	lbu	t8,18(s0)
80110768:	37580099 	lwr	zero,22583(t0)
8011076c:	11444800 	.word	0x484411
80110770:	00189237 	ori	s2,gp,0x1800
80110774:	00009911 	beq	t4,t9,0x80110778
80110778:	0018923b 	xori	s2,gp,0x1800
8011077c:	5d009903 	.word	0x399005d
80110780:	45001760 	.word	0x60170045
80110784:	60923b00 	.word	0x3b9260
80110788:	18434e00 	.word	0x4e4318
8011078c:	9911602a 	slti	zero,s3,4505
80110790:	9004001e 	bgtz	s0,0x801119d4
80110794:	99030000 	.word	0x399
80110798:	17001892 	lbu	t8,23(s0)
8011079c:	43000099 	lwr	zero,67(t0)
801107a0:	11001890 	lbu	t8,17(zero)
801107a4:	025e0092 	lbu	zero,24066(s0)
801107a8:	32520099 	lwr	zero,21042(t0)
801107ac:	02760016 	bnez	s0,0x8012dfb8
801107b0:	69149117 	bne	gp,s1,0x80115958
801107b4:	00281a00 	sll	a1,k0,0x0
801107b8:	3c92374e 	c3	0x37923c
801107bc:	00991556 	.word	0x56159900
801107c0:	48020000 	.word	0x248
801107c4:	16001892 	lbu	t8,22(s0)
801107c8:	37000099 	lwr	zero,55(t0)
801107cc:	15001892 	lbu	t8,21(s0)
801107d0:	3b620099 	lwr	zero,25147(t0)
801107d4:	03400014 	bnez	zero,0x801207e4
801107d8:	4a60923b 	xori	s2,gp,0x604a
801107dc:	00009914 	bne	a0,t9,0x801107e0
801107e0:	00189243 	c0	0x1921800
801107e4:	4e009913 	beq	gp,t9,0x80110920
801107e8:	562a9002 	.word	0x2902a56
801107ec:	000e922b 	slti	s2,gp,3584
801107f0:	00003200 	.word	0x320000
801107f4:	10990300 	.word	0x39910
801107f8:	18924300 	.word	0x439218
801107fc:	00991300 	sll	s3,s3,0x4
80110800:	18900064 	.word	0x64009018
80110804:	0091185c 	.word	0x5c189100
80110808:	00923076 	jalx	0x88c24801
8011080c:	00990076 	jalx	0x88026401
80110810:	00166c00 	.word	0x6c1600
80110814:	91135381 	lb	s3,5009(t2)
80110818:	2b180015 	bnez	t0,0x801168c8
8011081c:	99000000 	.word	0x99
80110820:	16003091 	lbu	s0,22(t1)
80110824:	18500092 	lbu	zero,20504(s0)
80110828:	374f0099 	lwr	zero,20279(t0)
8011082c:	03450011 	beqz	t0,0x80121c3c
80110830:	465b9113 	beq	gp,s1,0x8012754c
80110834:	00059237 	ori	s2,gp,0x500
80110838:	00009911 	beq	t4,t9,0x8011083c
8011083c:	0018923b 	xori	s2,gp,0x1800
80110840:	642a9000 	.word	0x902a64
80110844:	00099118 	.word	0x18910900
80110848:	00159903 	.word	0x3991500
8011084c:	0018923b 	xori	s2,gp,0x1800
80110850:	00189002 	.word	0x2901800
80110854:	73009117 	bne	gp,s1,0x80110a24
80110858:	6e009234 	ori	s2,a0,0x6e
8011085c:	6c009902 	.word	0x299006c
80110860:	7f00176c 	.word	0x6c17007f
80110864:	78155933 	andi	t9,k0,0x1578
80110868:	91170015 	bnez	t0,0x801166b0
8011086c:	99020000 	.word	0x299
80110870:	17001815 	bne	t0,t8,0x801108d0
80110874:	00189113 	beq	gp,s1,0x80116878
80110878:	5300923b 	xori	s2,gp,0x53
8011087c:	5f009900 	.word	0x99005f
80110880:	7b000340 	.word	0x4003007b
80110884:	00167460 	.word	0x60741600
80110888:	923b0018 	blez	zero,0x8011f6d4
8011088c:	40520099 	lwr	zero,21056(t0)
80110890:	11502a90 	lbu	t2,20497(at)
80110894:	02000991 	lbu	t1,2(t0)
80110898:	13001599 	lwr	s5,19(t0)
8011089c:	00000003 	.word	0x3000000
801108a0:	00001600 	sll	zero,s6,0x0
801108a4:	18923000 	.word	0x309218
801108a8:	00991100 	sll	s3,s1,0x4
801108ac:	00923400 	.word	0x349200
801108b0:	00400018 	blez	zero,0x801208b4
801108b4:	90047800 	.word	0x780490
801108b8:	91155600 	.word	0x561591
801108bc:	92326c00 	.word	0x6c3292
801108c0:	99007f00 	.word	0x7f0099
801108c4:	12470091 	lbu	zero,18194(t0)
801108c8:	11566099 	lwr	zero,22033(t3)
801108cc:	12001811 	beq	t0,t8,0x80110918
801108d0:	44209111 	beq	t4,s1,0x801189e4
801108d4:	00281500 	sll	a1,s5,0x0
801108d8:	00990000 	sll	s3,zero,0x4
801108dc:	18110018 	blez	zero,0x80114d40
801108e0:	91176e00 	.word	0x6e1791
801108e4:	92395600 	.word	0x563992
801108e8:	99034500 	.word	0x450399
801108ec:	17606092 	lbu	zero,24599(s3)
801108f0:	3900183c 	lui	t8,0x39
801108f4:	69009911 	beq	t4,t9,0x80110a9c
801108f8:	602a9004 	bltzal	a0,0x8011b27c
801108fc:	001e9903 	.word	0x3991e00
80110900:	00001700 	sll	zero,s7,0x0
80110904:	18923c00 	.word	0x3c9218
80110908:	00991100 	sll	s3,s1,0x4
8011090c:	04911700 	.word	0x179104
80110910:	14900573 	.word	0x73059014
80110914:	0091186e 	.word	0x6e189100
80110918:	00922d64 	.word	0x642d9200
8011091c:	00990276 	jalx	0x880a6401
80110920:	00166900 	.word	0x691600
80110924:	91156e78 	.word	0x786e1591
80110928:	9915563c 	.word	0x3c561599
8011092c:	9115000c 	jal	0x80005644
80110930:	99020000 	.word	0x299
80110934:	16001815 	bne	t0,t8,0x80110990
80110938:	00049118 	.word	0x18910400
8011093c:	00141a60 	.word	0x601a1400
80110940:	00923c5a 	.word	0x5a3c9200
80110944:	00990340 	.word	0x40039900
80110948:	00144a60 	.word	0x604a1400
8011094c:	923c0000 	.word	0x3c92
80110950:	99140018 	blez	zero,0x80115bb8
80110954:	92416900 	.word	0x694192
80110958:	9913562a 	slti	s6,s2,5017
8011095c:	9005001e 	bgtz	s0,0x80111fa0
80110960:	99030018 	blez	zero,0x801117c8
80110964:	92320000 	.word	0x3292
80110968:	99130000 	.word	0x1399
8011096c:	922d0000 	.word	0x2d92
80110970:	41000491 	lbu	a0,65(t0)
80110974:	1a001490 	lbu	s4,26(zero)
80110978:	07600091 	lbu	zero,24583(t0)
8011097c:	185c0092 	lbu	zero,23576(s0)
80110980:	30760099 	lwr	zero,30256(t0)
80110984:	00760016 	bnez	s0,0x8012e188
80110988:	6c009113 	beq	gp,s1,0x80110b3c
8011098c:	5c789237 	ori	s2,gp,0x785c
80110990:	5d489900 	.word	0x99485d
80110994:	00001600 	sll	zero,s6,0x0
80110998:	1c911800 	.word	0x18911c
8011099c:	00130014 	bnez	zero,0x801155a0
801109a0:	1a590092 	lbu	zero,22810(s0)
801109a4:	3c640099 	lwr	zero,25660(t0)
801109a8:	03450011 	beqz	t0,0x80121db8
801109ac:	46609237 	ori	s2,gp,0x6046
801109b0:	00009911 	beq	t4,t9,0x801109b4
801109b4:	00189240 	mtc0	s2,$3
801109b8:	4e2a9007 	bltzal	gp,0x8011b2f4
801109bc:	001e9903 	.word	0x3991e00
801109c0:	0018923c 	.word	0x3c921800
801109c4:	0004911a 	.word	0x1a910400
801109c8:	00149009 	j	0x86405000
801109cc:	7300911c 	.word	0x1c910073
801109d0:	73009234 	ori	s2,a0,0x73
801109d4:	6f009902 	.word	0x299006f
801109d8:	7f00176c 	.word	0x6c17007f
801109dc:	60924000 	.word	0x409260
801109e0:	18374e00 	.word	0x4e3718
801109e4:	99155948 	.word	0x48591599
801109e8:	02000017 	bnez	t8,0x801109f4
801109ec:	00181500 	sll	v1,s5,0x0
801109f0:	04911c00 	.word	0x1c9104
801109f4:	141d6900 	.word	0x691d14
801109f8:	923c6000 	.word	0x603c92
801109fc:	99007b00 	.word	0x7b0099
80110a00:	03400016 	bnez	s0,0x80120a10
80110a04:	74609237 	ori	s2,gp,0x6074
80110a08:	00184054 	.word	0x54401800
80110a0c:	00991150 	.word	0x50119900
80110a10:	2a900900 	slt	s2,zero,t1
80110a14:	1e990000 	.word	0x991e
80110a18:	00030000 	sll	zero,zero,0xc
80110a1c:	16001892 	lbu	t8,22(s0)
80110a20:	30000099 	lwr	zero,48(t0)
80110a24:	11000092 	lbu	zero,17(s0)
80110a28:	3400003c 	lui	zero,0x34
80110a2c:	0004911d 	.word	0x1d910400
80110a30:	0014900b 	j	0x8e405000
80110a34:	7800911f 	.word	0x1f910078
80110a38:	6e009228 	slti	s2,a0,110
80110a3c:	5d009900 	.word	0x99005d
80110a40:	7f001247 	c1	0x112007f
80110a44:	00911c6e 	.word	0x6e1c9100
80110a48:	14923051 	.word	0x51309214
80110a4c:	14345a14 	bne	v0,k0,0x8011daa0
80110a50:	3759143c 	lui	s4,0x5937
80110a54:	63104000 	.word	0x401063
80110a58:	00991200 	sll	s3,s2,0x4
80110a5c:	04924064 	.word	0x64409204
80110a60:	14991144 	.word	0x44119914
80110a64:	48000018 	blez	zero,0x80110b88
80110a68:	11001803 	.word	0x3180011
80110a6c:	45001760 	.word	0x60170045
80110a70:	78116008 	j	0x818045e0
80110a74:	92280014 	bnez	zero,0x8011acc0
80110a78:	30000e90 	lbu	t6,48(zero)
80110a7c:	0b000692 	lbu	a2,11(s0)
80110a80:	34001437 	ori	s4,t8,0x34
80110a84:	00049903 	.word	0x3990400
80110a88:	00001700 	sll	zero,s7,0x0
80110a8c:	10923c00 	.word	0x3c9210
80110a90:	08991100 	.word	0x119908
80110a94:	04911c00 	.word	0x1c9104
80110a98:	08924000 	.word	0x409208
80110a9c:	0c900c6e 	.word	0x6e0c900c
80110aa0:	00922b5d 	.word	0x5d2b9200
80110aa4:	00990276 	jalx	0x880a6401
80110aa8:	00166914 	bne	v1,t1,0x801162ac
80110aac:	911f0000 	.word	0x1f91
80110ab0:	922f5114 	bne	v0,s1,0x8011c8fc
80110ab4:	325a1437 	ori	s4,t8,0x5a32
80110ab8:	59143b63 	.word	0x633b1459
80110abc:	14436414 	bne	v1,a0,0x80121710
80110ac0:	99155648 	.word	0x48561599
80110ac4:	02000016 	bnez	s0,0x80110ad0
80110ac8:	00181500 	sll	v1,s5,0x0
80110acc:	18034000 	.word	0x400318
80110ad0:	144a6014 	bnez	v1,0x80123324
80110ad4:	00181356 	.word	0x56131800
80110ad8:	08922b00 	.word	0x2b9208
80110adc:	142f000e 	jal	0x8800bc50
80110ae0:	900c0006 	bltz	s0,0x80113d24
80110ae4:	92320014 	bnez	zero,0x8011d530
80110ae8:	37000499 	lwr	a0,55(t0)
80110aec:	03001092 	lbu	s0,3(s0)
80110af0:	3b000899 	lwr	t0,59(t0)
80110af4:	13000c92 	lbu	t4,19(s0)
80110af8:	43000abf 	.word	0xbf0a0043
80110afc:	631e00ff 	.word	0xff001e63
80110b00:	2f000000 	.word	0x2f
80110b04:	70514553 	.word	0x53455170
80110b08:	00000001 	.word	0x1000000
80110b0c:	01e0070a 	j	0x881f8004
80110b10:	e2040200 	.word	0x204e2
80110b14:	c00100c1 	lwc0	c0_index,448(t0)
80110b18:	0100c201 	.word	0x1c20001
80110b1c:	00c90000 	sll	t9,zero,0x4
80110b20:	b0076400 	.word	0x6407b0
80110b24:	b1073200 	.word	0x3207b1
80110b28:	b2076e00 	.word	0x6e07b2
80110b2c:	b90a4000 	.word	0x400ab9
80110b30:	b00a5800 	.word	0x580ab0
80110b34:	b10a4000 	.word	0x400ab1
80110b38:	b20a2800 	.word	0x280ab2
80110b3c:	b9075a81 	lb	k0,1977(t2)
80110b40:	70900c73 	.word	0x730c9070
80110b44:	0092307a 	.word	0x7a309200
80110b48:	00990076 	jalx	0x88026401
80110b4c:	00166c81 	lb	t4,5632(t3)
80110b50:	40900c00 	sll	s2,t4,0x1
80110b54:	00990000 	sll	s3,zero,0x4
80110b58:	00160030 	andi	zero,zero,0x1600
80110b5c:	900c7300 	.word	0x730c90
80110b60:	923c6600 	.word	0x663c92
80110b64:	99034500 	.word	0x450399
80110b68:	11466011 	beqz	t3,0x801223b0
80110b6c:	00189237 	ori	s2,gp,0x1800
80110b70:	5048900c 	jal	0x82412140
80110b74:	00009903 	.word	0x3990000
80110b78:	0018923c 	.word	0x3c921800
80110b7c:	0018900e 	jal	0x8a406000
80110b80:	6e009234 	ori	s2,a0,0x6e
80110b84:	71009902 	.word	0x2990071
80110b88:	7f00176c 	.word	0x6c17007f
80110b8c:	60923700 	.word	0x379260
80110b90:	183c6200 	.word	0x623c18
80110b94:	99155948 	.word	0x48591599
80110b98:	900e0000 	.word	0xe90
80110b9c:	99020000 	.word	0x299
80110ba0:	17001815 	bne	t0,t8,0x80110c00
80110ba4:	00189010 	beq	a0,s0,0x80116ba8
80110ba8:	78009237 	ori	s2,gp,0x78
80110bac:	50009900 	.word	0x990050
80110bb0:	7b000340 	.word	0x4003007b
80110bb4:	00167460 	.word	0x60741600
80110bb8:	923c0018 	blez	zero,0x8011fe04
80110bbc:	40560099 	lwr	zero,22080(t0)
80110bc0:	11503892 	lbu	t8,20497(s1)
80110bc4:	34001090 	lbu	s0,52(zero)
80110bc8:	10000099 	lwr	zero,16(t0)
80110bcc:	00000003 	.word	0x3000000
80110bd0:	00001600 	sll	zero,s6,0x0
80110bd4:	18923000 	.word	0x309218
80110bd8:	00991100 	sll	s3,s1,0x4
80110bdc:	00923700 	.word	0x379200
80110be0:	18900e73 	.word	0x730e9018
80110be4:	0092307a 	.word	0x7a309200
80110be8:	0099007f 	.word	0x7f009900
80110bec:	00124760 	.word	0x60471200
80110bf0:	92400000 	.word	0x4092
80110bf4:	99120018 	blez	zero,0x8011565c
80110bf8:	11444890 	lbu	t0,17425(v0)
80110bfc:	0e000099 	lwr	zero,14(t0)
80110c00:	00001811 	beq	t0,t8,0x80110c04
80110c04:	0018900c 	jal	0x82406000
80110c08:	73009237 	ori	s2,gp,0x73
80110c0c:	66009903 	.word	0x3990066
80110c10:	45001760 	.word	0x60170045
80110c14:	78923c50 	.word	0x503c9278
80110c18:	00991160 	.word	0x60119900
80110c1c:	48900c00 	.word	0xc9048
80110c20:	00990300 	sll	s3,v1,0x4
80110c24:	00170018 	blez	zero,0x80116828
80110c28:	92370000 	.word	0x3792
80110c2c:	99110018 	blez	zero,0x80115294
80110c30:	900b7300 	.word	0x730b90
80110c34:	92347100 	.word	0x713492
80110c38:	99027600 	.word	0x760299
80110c3c:	16696092 	lbu	zero,26902(s3)
80110c40:	3c001899 	lwr	t8,60(t0)
80110c44:	15564890 	lbu	t0,22037(v0)
80110c48:	0b000099 	lwr	zero,11(t0)
80110c4c:	02000016 	bnez	s0,0x80110c58
80110c50:	00181500 	sll	v1,s5,0x0
80110c54:	18900778 	.word	0x78079018
80110c58:	00923c50 	.word	0x503c9200
80110c5c:	00990340 	.word	0x40039900
80110c60:	00144a60 	.word	0x604a1400
80110c64:	14001892 	lbu	t8,20(s0)
80110c68:	40560099 	lwr	zero,22080(t0)
80110c6c:	13563892 	lbu	t8,22035(s1)
80110c70:	34001090 	lbu	s0,52(zero)
80110c74:	07000099 	lwr	zero,7(t0)
80110c78:	03001892 	lbu	t8,3(s0)
80110c7c:	30000099 	lwr	zero,48(t0)
80110c80:	13000092 	lbu	zero,19(s0)
80110c84:	3c000040 	.word	0x4000003c
80110c88:	0018357a 	.word	0x7a351800
80110c8c:	00990076 	jalx	0x88026401
80110c90:	00166c81 	lb	t4,5632(t3)
80110c94:	40000000 	ssnop
80110c98:	16003090 	lbu	s0,22(at)
80110c9c:	0c730092 	lbu	zero,29452(s0)
80110ca0:	39660099 	lwr	zero,26169(t0)
80110ca4:	03450011 	beqz	t0,0x801220b4
80110ca8:	46601100 	.word	0x116046
80110cac:	18923c50 	.word	0x503c9218
80110cb0:	48900c00 	.word	0xc9048
80110cb4:	00990300 	sll	s3,v1,0x4
80110cb8:	18923500 	.word	0x359218
80110cbc:	00390000 	sll	a3,zero,0x4
80110cc0:	3c001834 	li	t8,0x3c
80110cc4:	7a009902 	.word	0x299007a
80110cc8:	7f00176c 	.word	0x6c17007f
80110ccc:	78155948 	.word	0x48591578
80110cd0:	02000017 	bnez	t8,0x80110cdc
80110cd4:	00181500 	sll	v1,s5,0x0
80110cd8:	18900b78 	.word	0x780b9018
80110cdc:	00923766 	.word	0x66379200
80110ce0:	0099007b 	.word	0x7b009900
80110ce4:	00034000 	.word	0x400300
80110ce8:	16747892 	lbu	t8,29718(s3)
80110cec:	3b500099 	lwr	zero,20539(t0)
80110cf0:	11504890 	lbu	t0,20497(v0)
80110cf4:	0b000099 	lwr	zero,11(t0)
80110cf8:	00000003 	.word	0x3000000
80110cfc:	00001600 	sll	zero,s6,0x0
80110d00:	18923400 	.word	0x349218
80110d04:	00991100 	sll	s3,s1,0x4
80110d08:	00923700 	.word	0x379200
80110d0c:	003b0018 	blez	zero,0x8011f910
80110d10:	327a0099 	lwr	zero,31282(t0)
80110d14:	007f0012 	beqz	s0,0x80130918
80110d18:	47601200 	.word	0x126047
80110d1c:	18114448 	.word	0x48441118
80110d20:	00001811 	beq	t0,t8,0x80110d24
80110d24:	00189009 	j	0x86406000
80110d28:	73009235 	ori	s2,t4,0x73
80110d2c:	66009903 	.word	0x3990066
80110d30:	45001760 	.word	0x60170045
80110d34:	78923950 	.word	0x50399278
80110d38:	00991160 	.word	0x60119900
80110d3c:	48900900 	.word	0x99048
80110d40:	00990300 	sll	s3,v1,0x4
80110d44:	00170018 	blez	zero,0x80116948
80110d48:	92320000 	.word	0x3292
80110d4c:	99110000 	.word	0x1199
80110d50:	92350000 	.word	0x3592
80110d54:	3900182f 	sltiu	t8,t8,57
80110d58:	7a009902 	.word	0x299007a
80110d5c:	76001669 	.word	0x69160076
80110d60:	78155648 	.word	0x48561578
80110d64:	02000016 	bnez	s0,0x80110d70
80110d68:	00181500 	sll	v1,s5,0x0
80110d6c:	1890077c 	.word	0x7c079018
80110d70:	00923266 	.word	0x66329200
80110d74:	00990340 	.word	0x40039900
80110d78:	00144a60 	.word	0x604a1400
80110d7c:	14001892 	lbu	t8,20(s0)
80110d80:	37500099 	lwr	zero,20535(t0)
80110d84:	13564890 	lbu	t0,22035(v0)
80110d88:	07000099 	lwr	zero,7(t0)
80110d8c:	03001892 	lbu	t8,3(s0)
80110d90:	2f000099 	lwr	zero,47(t0)
80110d94:	13000092 	lbu	zero,19(s0)
80110d98:	32000037 	ori	zero,t8,0x32
80110d9c:	00189009 	j	0x86406000
80110da0:	7300922f 	sltiu	s2,gp,115
80110da4:	7a009900 	.word	0x99007a
80110da8:	7600166c 	.word	0x6c160076
80110dac:	81409009 	j	0x86410204
80110db0:	00009900 	.word	0x990000
80110db4:	00001600 	sll	zero,s6,0x0
80110db8:	30900973 	.word	0x73099030
80110dbc:	00923e66 	.word	0x663e9200
80110dc0:	00990345 	.word	0x45039900
80110dc4:	00114660 	.word	0x60461100
80110dc8:	11001892 	lbu	t8,17(s0)
80110dcc:	39504890 	lbu	t0,20537(v0)
80110dd0:	09000099 	lwr	zero,9(t0)
80110dd4:	03001892 	lbu	t8,3(s0)
80110dd8:	3e001890 	lbu	t8,62(zero)
80110ddc:	0b6e0092 	lbu	zero,28171(s0)
80110de0:	35710099 	lwr	zero,28981(t0)
80110de4:	027f0017 	bnez	t8,0x801309f0
80110de8:	6c609239 	xori	s2,t4,0x606c
80110dec:	00183e62 	.word	0x623e1800
80110df0:	00991559 	.word	0x59159900
80110df4:	48900b00 	.word	0xb9048
80110df8:	00990200 	sll	s3,v0,0x4
80110dfc:	00170018 	blez	zero,0x80116a00
80110e00:	15001890 	lbu	t8,21(zero)
80110e04:	0c730092 	lbu	zero,29452(s0)
80110e08:	39500099 	lwr	zero,20537(t0)
80110e0c:	007b0003 	.word	0x3007b00
80110e10:	40001674 	jalx	0x80580101
80110e14:	60923e00 	.word	0x3e9260
80110e18:	18415600 	.word	0x564118
80110e1c:	99115038 	xori	s0,v0,0x1199
80110e20:	92350010 	b	0x8011e46c
80110e24:	900c0000 	.word	0xc90
80110e28:	99000000 	.word	0x99
80110e2c:	03000016 	bnez	s0,0x80110e3c
80110e30:	0018922f 	sltiu	s2,gp,6144
80110e34:	00009911 	beq	t4,t9,0x80110e38
80110e38:	00009239 	xori	s2,t4,0x0
80110e3c:	00189007 	bltzal	gp,0x80116e40
80110e40:	6e00922f 	sltiu	s2,gp,110
80110e44:	7a009900 	.word	0x99007a
80110e48:	7f001247 	c1	0x112007f
80110e4c:	60924100 	.word	0x419260
80110e50:	00991200 	sll	s3,s2,0x4
80110e54:	18114448 	.word	0x48441118
80110e58:	90070000 	.word	0x790
80110e5c:	99000018 	blez	zero,0x801110c4
80110e60:	11001892 	lbu	t8,17(s0)
80110e64:	39660099 	lwr	zero,26169(t0)
80110e68:	03450017 	bnez	t8,0x80122278
80110e6c:	6078923e 	.word	0x3e927860
80110e70:	50009911 	beq	t4,t9,0x80110fb4
80110e74:	60480300 	.word	0x34860
80110e78:	00170018 	blez	zero,0x80116a7c
80110e7c:	92390000 	.word	0x3992
80110e80:	99110018 	blez	zero,0x801154e8
80110e84:	90107f00 	.word	0x7f1090
80110e88:	92357100 	.word	0x713592
80110e8c:	99027600 	.word	0x760299
80110e90:	16696092 	lbu	zero,26902(s3)
80110e94:	3e001899 	lwr	t8,62(t0)
80110e98:	15564890 	lbu	t0,22037(v0)
80110e9c:	10000099 	lwr	zero,16(t0)
80110ea0:	02000016 	bnez	s0,0x80110eac
80110ea4:	00181500 	sll	v1,s5,0x0
80110ea8:	18900e7f 	.word	0x7f0e9018
80110eac:	00923b50 	.word	0x503b9200
80110eb0:	00990340 	.word	0x40039900
80110eb4:	00144a60 	.word	0x604a1400
80110eb8:	14001892 	lbu	t8,20(s0)
80110ebc:	3e560099 	lwr	zero,22078(t0)
80110ec0:	13563892 	lbu	t8,22035(s1)
80110ec4:	35001090 	lbu	s0,53(zero)
80110ec8:	0e000099 	lwr	zero,14(t0)
80110ecc:	03001892 	lbu	t8,3(s0)
80110ed0:	2f000099 	lwr	zero,47(t0)
80110ed4:	13000092 	lbu	zero,19(s0)
80110ed8:	3b00003e 	.word	0x3e00003b
80110edc:	0018900c 	jal	0x82406000
80110ee0:	7800922b 	slti	s2,gp,120
80110ee4:	7a009900 	.word	0x99007a
80110ee8:	7600166c 	.word	0x6c160076
80110eec:	8140900c 	jal	0x82410204
80110ef0:	00009900 	.word	0x990000
80110ef4:	00001600 	sll	zero,s6,0x0
80110ef8:	30900769 	.word	0x69079030
80110efc:	00923b66 	.word	0x663b9200
80110f00:	00990345 	.word	0x45039900
80110f04:	00114660 	.word	0x60461100
80110f08:	11001892 	lbu	t8,17(s0)
80110f0c:	37504890 	lbu	t0,20535(v0)
80110f10:	07000099 	lwr	zero,7(t0)
80110f14:	03001892 	lbu	t8,3(s0)
80110f18:	3b001890 	lbu	t8,59(zero)
80110f1c:	09730092 	lbu	zero,29449(s0)
80110f20:	2f710099 	lwr	zero,28975(t0)
80110f24:	027f0017 	bnez	t8,0x80130b30
80110f28:	6c609237 	ori	s2,gp,0x606c
80110f2c:	00183b62 	.word	0x623b1800
80110f30:	00991559 	.word	0x59159900
80110f34:	48900900 	.word	0x99048
80110f38:	00990200 	sll	s3,v0,0x4
80110f3c:	00170018 	blez	zero,0x80116b40
80110f40:	15001890 	lbu	t8,21(zero)
80110f44:	0b7c0092 	lbu	zero,31755(s0)
80110f48:	37500099 	lwr	zero,20535(t0)
80110f4c:	007b0003 	.word	0x3007b00
80110f50:	40001674 	jalx	0x80580101
80110f54:	60923b00 	.word	0x3b9260
80110f58:	18435600 	.word	0x564318
80110f5c:	99115010 	beq	v0,s0,0x801155c4
80110f60:	922f0038 	xori	zero,zero,0x2f92
80110f64:	900b0000 	.word	0xb90
80110f68:	99000000 	.word	0x99
80110f6c:	03000016 	bnez	s0,0x80110f7c
80110f70:	0018922b 	slti	s2,gp,6144
80110f74:	00009911 	beq	t4,t9,0x80110f78
80110f78:	00009237 	ori	s2,gp,0x0
80110f7c:	0018900c 	jal	0x82406000
80110f80:	7c009230 	andi	s2,a0,0x7c
80110f84:	7a009900 	.word	0x99007a
80110f88:	7f001247 	c1	0x112007f
80110f8c:	60924300 	.word	0x439260
80110f90:	00991200 	sll	s3,s2,0x4
80110f94:	18114448 	.word	0x48441118
80110f98:	900c0000 	.word	0xc90
80110f9c:	99000018 	blez	zero,0x80111204
80110fa0:	11001890 	lbu	t8,17(zero)
80110fa4:	0b7c0092 	lbu	zero,31755(s0)
80110fa8:	37660099 	lwr	zero,26167(t0)
80110fac:	03450017 	bnez	t8,0x801223bc
80110fb0:	6078923c 	.word	0x3c927860
80110fb4:	50009911 	beq	t4,t9,0x801110f8
80110fb8:	6048900b 	j	0x8e412180
80110fbc:	00009903 	.word	0x3990000
80110fc0:	00001700 	sll	zero,s7,0x0
80110fc4:	18923700 	.word	0x379218
80110fc8:	00991100 	sll	s3,s1,0x4
80110fcc:	1890077c 	.word	0x7c079018
80110fd0:	00923471 	.word	0x71349200
80110fd4:	00990276 	jalx	0x880a6401
80110fd8:	00166960 	.word	0x60691600
80110fdc:	923c0018 	blez	zero,0x80120228
80110fe0:	99155648 	.word	0x48561599
80110fe4:	90070000 	.word	0x790
80110fe8:	99020000 	.word	0x299
80110fec:	16001815 	bne	t0,t8,0x80111048
80110ff0:	0018923c 	.word	0x3c921800
80110ff4:	50009903 	.word	0x3990050
80110ff8:	4000144a 	c2	0x140040
80110ffc:	60140018 	blez	zero,0x80116180
80111000:	92405600 	.word	0x564092
80111004:	99135638 	xori	s6,v0,0x1399
80111008:	92340010 	b	0x8011e254
8011100c:	99030018 	blez	zero,0x80111e74
80111010:	92300000 	.word	0x3092
80111014:	99130000 	.word	0x1399
80111018:	923c0000 	.word	0x3c92
8011101c:	40001890 	lbu	t8,64(zero)
80111020:	09730092 	lbu	zero,29449(s0)
80111024:	2f7a0099 	lwr	zero,31279(t0)
80111028:	00760016 	bnez	s0,0x8012e82c
8011102c:	6c814090 	lbu	zero,-32404(v0)
80111030:	09000099 	lwr	zero,9(t0)
80111034:	00000016 	bnez	s0,0x80111038
80111038:	00309009 	j	0x8640c000
8011103c:	7300923e 	.word	0x3e920073
80111040:	66009903 	.word	0x3990066
80111044:	45001146 	c1	0x110045
80111048:	60110018 	blez	zero,0x801155cc
8011104c:	92395048 	.word	0x48503992
80111050:	90090000 	.word	0x990
80111054:	99030018 	blez	zero,0x80111ebc
80111058:	923e0018 	blez	zero,0x80120aa4
8011105c:	900b6e00 	.word	0x6e0b90
80111060:	92357100 	.word	0x713592
80111064:	99027f00 	.word	0x7f0299
80111068:	176c6092 	lbu	zero,27671(s3)
8011106c:	3900183e 	.word	0x3e180039
80111070:	62009915 	bne	t4,t9,0x801111fc
80111074:	5948900b 	j	0x8e412164
80111078:	00009902 	.word	0x2990000
8011107c:	00001700 	sll	zero,s7,0x0
80111080:	18150018 	blez	zero,0x801164e4
80111084:	900c7300 	.word	0x730c90
80111088:	92395000 	.word	0x503992
8011108c:	99007b00 	.word	0x7b0099
80111090:	03400016 	bnez	s0,0x801210a0
80111094:	7460923e 	.word	0x3e926074
80111098:	00184156 	.word	0x56411800
8011109c:	00991150 	.word	0x50119900
801110a0:	38923500 	.word	0x359238
801110a4:	10900c00 	.word	0xc9010
801110a8:	00990000 	sll	s3,zero,0x4
801110ac:	00030000 	sll	zero,zero,0xc
801110b0:	16001892 	lbu	t8,22(s0)
801110b4:	2f000099 	lwr	zero,47(t0)
801110b8:	11000092 	lbu	zero,17(s0)
801110bc:	39001890 	lbu	t8,57(zero)
801110c0:	076e0092 	lbu	zero,28167(s0)
801110c4:	2f7a0099 	lwr	zero,31279(t0)
801110c8:	007f0012 	beqz	s0,0x80130ccc
801110cc:	47609241 	.word	0x41926047
801110d0:	00009912 	beq	s4,t9,0x801110d4
801110d4:	00181144 	mfc1	s1,$f3
801110d8:	48900700 	.word	0x79048
801110dc:	00990000 	sll	s3,zero,0x4
801110e0:	18110018 	blez	zero,0x80115544
801110e4:	92396600 	.word	0x663992
801110e8:	99034500 	.word	0x450399
801110ec:	17607892 	lbu	t8,24599(s3)
801110f0:	3e500099 	lwr	zero,20542(t0)
801110f4:	11604803 	.word	0x3486011
801110f8:	00001700 	sll	zero,s7,0x0
801110fc:	18923900 	.word	0x399218
80111100:	00991100 	sll	s3,s1,0x4
80111104:	1890107f 	.word	0x7f109018
80111108:	00923571 	.word	0x71359200
8011110c:	00990276 	jalx	0x880a6401
80111110:	00166960 	.word	0x60691600
80111114:	923e0018 	blez	zero,0x80120b60
80111118:	99155648 	.word	0x48561599
8011111c:	90100000 	.word	0x1090
80111120:	99020000 	.word	0x299
80111124:	16001815 	bne	t0,t8,0x80111180
80111128:	0018900e 	jal	0x8a406000
8011112c:	7f00923b 	xori	s2,gp,0x7f
80111130:	50009903 	.word	0x3990050
80111134:	4000144a 	c2	0x140040
80111138:	60140018 	blez	zero,0x801162bc
8011113c:	923e5600 	.word	0x563e92
80111140:	99135638 	xori	s6,v0,0x1399
80111144:	92350010 	b	0x8011e790
80111148:	900e0000 	.word	0xe90
8011114c:	99030018 	blez	zero,0x80111fb4
80111150:	922f0000 	.word	0x2f92
80111154:	99130000 	.word	0x1399
80111158:	923b0000 	.word	0x3b92
8011115c:	3e001890 	lbu	t8,62(zero)
80111160:	0c780092 	lbu	zero,30732(s0)
80111164:	2b7a0099 	lwr	zero,31275(t0)
80111168:	00760016 	bnez	s0,0x8012e96c
8011116c:	6c814090 	lbu	zero,-32404(v0)
80111170:	0c000099 	lwr	zero,12(t0)
80111174:	00000016 	bnez	s0,0x80111178
80111178:	00309007 	bltzal	gp,0x8011d17c
8011117c:	6900923b 	xori	s2,gp,0x69
80111180:	66009903 	.word	0x3990066
80111184:	45001146 	c1	0x110045
80111188:	60110018 	blez	zero,0x8011570c
8011118c:	92375048 	.word	0x48503792
80111190:	90070000 	.word	0x790
80111194:	99030018 	blez	zero,0x80111ffc
80111198:	923b0018 	blez	zero,0x8011ffe4
8011119c:	90097300 	.word	0x730990
801111a0:	922f7100 	.word	0x712f92
801111a4:	99027f00 	.word	0x7f0299
801111a8:	176c6092 	lbu	zero,27671(s3)
801111ac:	3700183b 	xori	t8,t8,0x37
801111b0:	62009915 	bne	t4,t9,0x8011133c
801111b4:	59489009 	j	0x86412164
801111b8:	00009902 	.word	0x2990000
801111bc:	00001700 	sll	zero,s7,0x0
801111c0:	18150018 	blez	zero,0x80116624
801111c4:	900b7c00 	.word	0x7c0b90
801111c8:	92375000 	.word	0x503792
801111cc:	99007b00 	.word	0x7b0099
801111d0:	03400016 	bnez	s0,0x801211e0
801111d4:	7460923b 	xori	s2,gp,0x6074
801111d8:	00184356 	.word	0x56431800
801111dc:	00991150 	.word	0x50119900
801111e0:	10922f00 	.word	0x2f9210
801111e4:	38900b00 	.word	0xb9038
801111e8:	00990000 	sll	s3,zero,0x4
801111ec:	00030000 	sll	zero,zero,0xc
801111f0:	16001892 	lbu	t8,22(s0)
801111f4:	2b000099 	lwr	zero,43(t0)
801111f8:	11000092 	lbu	zero,17(s0)
801111fc:	37001890 	lbu	t8,55(zero)
80111200:	0c7c0092 	lbu	zero,31756(s0)
80111204:	307a0099 	lwr	zero,31280(t0)
80111208:	007f0012 	beqz	s0,0x80130e0c
8011120c:	47609243 	c0	0x1926047
80111210:	00009912 	beq	s4,t9,0x80111214
80111214:	00181144 	mfc1	s1,$f3
80111218:	48900c00 	.word	0xc9048
8011121c:	00990000 	sll	s3,zero,0x4
80111220:	18110018 	blez	zero,0x80115684
80111224:	900e7c00 	.word	0x7c0e90
80111228:	92376600 	.word	0x663792
8011122c:	99034500 	.word	0x450399
80111230:	17607892 	lbu	t8,24599(s3)
80111234:	3c500099 	lwr	zero,20540(t0)
80111238:	11604890 	lbu	t0,24593(v0)
8011123c:	0e000099 	lwr	zero,14(t0)
80111240:	03000017 	bnez	t8,0x80111250
80111244:	00189237 	ori	s2,gp,0x1800
80111248:	00009911 	beq	t4,t9,0x8011124c
8011124c:	00189010 	beq	a0,s0,0x80117250
80111250:	7c009234 	ori	s2,a0,0x7c
80111254:	71009902 	.word	0x2990071
80111258:	76001669 	.word	0x69160076
8011125c:	60923c00 	.word	0x3c9260
80111260:	18991556 	.word	0x56159918
80111264:	48901000 	.word	0x109048
80111268:	00990200 	sll	s3,v0,0x4
8011126c:	00160018 	blez	zero,0x80116a70
80111270:	15001892 	lbu	t8,21(s0)
80111274:	3c500099 	lwr	zero,20540(t0)
80111278:	03400014 	bnez	zero,0x80121288
8011127c:	4a601400 	.word	0x14604a
80111280:	18923756 	.word	0x56379218
80111284:	00991356 	.word	0x56139900
80111288:	38923400 	.word	0x349238
8011128c:	10990300 	.word	0x39910
80111290:	18923000 	.word	0x309218
80111294:	00991300 	sll	s3,s3,0x4
80111298:	00923c00 	.word	0x3c9200
8011129c:	00370018 	blez	zero,0x8011eea0
801112a0:	91186400 	.word	0x641891
801112a4:	99007600 	.word	0x760099
801112a8:	166c8140 	.word	0x40816c16
801112ac:	91180000 	.word	0x1891
801112b0:	99000000 	.word	0x99
801112b4:	16003091 	lbu	s0,22(t1)
801112b8:	13490099 	lwr	zero,18707(t0)
801112bc:	03450011 	beqz	t0,0x801226cc
801112c0:	46601100 	.word	0x116046
801112c4:	60911300 	.word	0x139160
801112c8:	00990300 	sll	s3,v1,0x4
801112cc:	30911551 	.word	0x51159130
801112d0:	0099027f 	.word	0x7f029900
801112d4:	00176c78 	.word	0x786c1700
801112d8:	15594891 	lbu	t0,22805(t2)
801112dc:	15000099 	lwr	zero,21(t0)
801112e0:	02000017 	bnez	t8,0x801112ec
801112e4:	00181500 	sll	v1,s5,0x0
801112e8:	1891175c 	.word	0x5c179118
801112ec:	0099007b 	.word	0x7b009900
801112f0:	00034000 	.word	0x400300
801112f4:	16747811 	beq	t3,t8,0x8012e350
801112f8:	50489117 	bne	gp,s1,0x8012343c
801112fc:	00009900 	.word	0x990000
80111300:	00000300 	sll	zero,v1,0x0
80111304:	00160018 	blez	zero,0x80116b08
80111308:	11001891 	lbu	t8,17(t0)
8011130c:	18620099 	lwr	zero,25112(t0)
80111310:	007f0012 	beqz	s0,0x80130f14
80111314:	47601200 	.word	0x126047
80111318:	18114448 	.word	0x48441118
8011131c:	91180000 	.word	0x1891
80111320:	99000018 	blez	zero,0x80111588
80111324:	11001891 	lbu	t8,17(t0)
80111328:	1a680099 	lwr	zero,26650(t0)
8011132c:	03450017 	bnez	t8,0x8012273c
80111330:	60781160 	.word	0x60117860
80111334:	48911a00 	.word	0x1a9148
80111338:	00990300 	sll	s3,v1,0x4
8011133c:	00170018 	blez	zero,0x80116f40
80111340:	11001891 	lbu	t8,17(t0)
80111344:	1c680099 	lwr	zero,26652(t0)
80111348:	02760016 	bnez	s0,0x8012eb54
8011134c:	69781556 	.word	0x56157869
80111350:	48911c00 	.word	0x1c9148
80111354:	00990200 	sll	s3,v0,0x4
80111358:	00160018 	blez	zero,0x80116b5c
8011135c:	15001803 	.word	0x3180015
80111360:	4000144a 	c2	0x140040
80111364:	60140018 	blez	zero,0x801164e8
80111368:	13564803 	.word	0x3485613
8011136c:	00181300 	sll	v1,s3,0x0
80111370:	18900973 	.word	0x73099018
80111374:	00922f7a 	.word	0x7a2f9200
80111378:	00990076 	jalx	0x88026401
8011137c:	00166c81 	lb	t4,5632(t3)
80111380:	40900900 	sll	s2,t1,0x1
80111384:	00990000 	sll	s3,zero,0x4
80111388:	00160030 	andi	zero,zero,0x1600
8011138c:	90097300 	.word	0x730990
80111390:	923e6600 	.word	0x663e92
80111394:	99034500 	.word	0x450399
80111398:	11466011 	beqz	t3,0x80122be0
8011139c:	00189239 	xori	s2,t4,0x1800
801113a0:	50489009 	j	0x86412140
801113a4:	00009903 	.word	0x3990000
801113a8:	0018923e 	.word	0x3e921800
801113ac:	0018900b 	j	0x8e406000
801113b0:	6e009235 	ori	s2,t4,0x6e
801113b4:	71009902 	.word	0x2990071
801113b8:	7f00176c 	.word	0x6c17007f
801113bc:	60923900 	.word	0x399260
801113c0:	183e6200 	.word	0x623e18
801113c4:	99155948 	.word	0x48591599
801113c8:	900b0000 	.word	0xb90
801113cc:	99020000 	.word	0x299
801113d0:	17001815 	bne	t0,t8,0x80111430
801113d4:	0018900c 	jal	0x82406000
801113d8:	73009239 	xori	s2,t4,0x73
801113dc:	50009900 	.word	0x990050
801113e0:	7b000340 	.word	0x4003007b
801113e4:	00167460 	.word	0x60741600
801113e8:	923e0018 	blez	zero,0x80120e34
801113ec:	41560099 	lwr	zero,22081(t0)
801113f0:	11503892 	lbu	t8,20497(s1)
801113f4:	35001090 	lbu	s0,53(zero)
801113f8:	0c000099 	lwr	zero,12(t0)
801113fc:	00000003 	.word	0x3000000
80111400:	00001600 	sll	zero,s6,0x0
80111404:	18922f00 	.word	0x2f9218
80111408:	00991100 	sll	s3,s1,0x4
8011140c:	00923900 	.word	0x399200
80111410:	1890076e 	.word	0x6e079018
80111414:	00922f7a 	.word	0x7a2f9200
80111418:	0099007f 	.word	0x7f009900
8011141c:	00124760 	.word	0x60471200
80111420:	92410000 	.word	0x4192
80111424:	99120018 	blez	zero,0x80115e8c
80111428:	11444890 	lbu	t0,17425(v0)
8011142c:	07000099 	lwr	zero,7(t0)
80111430:	00001811 	beq	t0,t8,0x80111434
80111434:	00189239 	xori	s2,t4,0x1800
80111438:	66009903 	.word	0x3990066
8011143c:	45001760 	.word	0x60170045
80111440:	78923e50 	.word	0x503e9278
80111444:	00991160 	.word	0x60119900
80111448:	48030000 	.word	0x348
8011144c:	17001892 	lbu	t8,23(s0)
80111450:	39000099 	lwr	zero,57(t0)
80111454:	11001890 	lbu	t8,17(zero)
80111458:	107f0092 	lbu	zero,32528(s0)
8011145c:	35710099 	lwr	zero,28981(t0)
80111460:	02760016 	bnez	s0,0x8012ec6c
80111464:	6960923e 	.word	0x3e926069
80111468:	00189915 	bne	t4,t9,0x8011746c
8011146c:	56489010 	beq	a0,s0,0x801235c8
80111470:	00009902 	.word	0x2990000
80111474:	00001600 	sll	zero,s6,0x0
80111478:	18150018 	blez	zero,0x801168dc
8011147c:	900e7f00 	.word	0x7f0e90
80111480:	923b5000 	.word	0x503b92
80111484:	99034000 	.word	0x400399
80111488:	144a6014 	bnez	v1,0x80123cdc
8011148c:	0018923e 	.word	0x3e921800
80111490:	56009913 	beq	gp,t9,0x801115ec
80111494:	56389235 	ori	s2,t4,0x3856
80111498:	0010900e 	jal	0x8a404000
8011149c:	00009903 	.word	0x3990000
801114a0:	0018922f 	sltiu	s2,gp,6144
801114a4:	00009913 	beq	gp,t9,0x801114a8
801114a8:	0000923b 	xori	s2,gp,0x0
801114ac:	00003e00 	.word	0x3e0000
801114b0:	18900c78 	.word	0x780c9018
801114b4:	00922b7a 	.word	0x7a2b9200
801114b8:	00990076 	jalx	0x88026401
801114bc:	00166c81 	lb	t4,5632(t3)
801114c0:	40900c00 	sll	s2,t4,0x1
801114c4:	00990000 	sll	s3,zero,0x4
801114c8:	00160030 	andi	zero,zero,0x1600
801114cc:	90076900 	.word	0x690790
801114d0:	923b6600 	.word	0x663b92
801114d4:	99034500 	.word	0x450399
801114d8:	11466011 	beqz	t3,0x80122d20
801114dc:	00189237 	ori	s2,gp,0x1800
801114e0:	50489007 	bltzal	gp,0x80123624
801114e4:	00009903 	.word	0x3990000
801114e8:	0018923b 	xori	s2,gp,0x1800
801114ec:	00189009 	j	0x86406000
801114f0:	7300922f 	sltiu	s2,gp,115
801114f4:	71009902 	.word	0x2990071
801114f8:	7f00176c 	.word	0x6c17007f
801114fc:	60923700 	.word	0x379260
80111500:	183b6200 	.word	0x623b18
80111504:	99155948 	.word	0x48591599
80111508:	90090000 	.word	0x990
8011150c:	99020000 	.word	0x299
80111510:	17001815 	bne	t0,t8,0x80111570
80111514:	0018900b 	j	0x8e406000
80111518:	7c009237 	ori	s2,gp,0x7c
8011151c:	50009900 	.word	0x990050
80111520:	7b000340 	.word	0x4003007b
80111524:	00167460 	.word	0x60741600
80111528:	923b0018 	blez	zero,0x80120374
8011152c:	43560099 	lwr	zero,22083(t0)
80111530:	11501092 	lbu	s0,20497(s0)
80111534:	2f003890 	lbu	t8,47(at)
80111538:	0b000099 	lwr	zero,11(t0)
8011153c:	00000003 	.word	0x3000000
80111540:	00001600 	sll	zero,s6,0x0
80111544:	18922b00 	.word	0x2b9218
80111548:	00991100 	sll	s3,s1,0x4
8011154c:	00923700 	.word	0x379200
80111550:	18900c7c 	.word	0x7c0c9018
80111554:	00911868 	.word	0x68189100
80111558:	0092285f 	.word	0x5f289200
8011155c:	0099007f 	.word	0x7f009900
80111560:	00124708 	j	0x811c4800
80111564:	92305308 	j	0x814cc248
80111568:	345c0537 	ori	a1,t8,0x5c34
8011156c:	5b0b3c65 	.word	0x653c0b5b
80111570:	08406638 	xori	a2,v1,0x4008
80111574:	43000099 	lwr	zero,67(t0)
80111578:	12001811 	beq	t0,t8,0x801115c4
8011157c:	4448900c 	jal	0x82412110
80111580:	00009118 	.word	0x18910000
80111584:	00009900 	.word	0x990000
80111588:	00181100 	sll	v1,s1,0x0
8011158c:	18900c7c 	.word	0x7c0c9018
80111590:	00990345 	.word	0x45039900
80111594:	00176078 	.word	0x78601700
80111598:	11600892 	lbu	t0,24593(s0)
8011159c:	28000830 	andi	t0,zero,0x28
801115a0:	00083400 	.word	0x340800
801115a4:	0537000b 	j	0x8c00dc14
801115a8:	3c000840 	.word	0x4008003c
801115ac:	0018900c 	jal	0x82406000
801115b0:	00009903 	.word	0x3990000
801115b4:	00001700 	sll	zero,s7,0x0
801115b8:	18110018 	blez	zero,0x80115a1c
801115bc:	900c7c00 	.word	0x7c0c90
801115c0:	91186800 	.word	0x681891
801115c4:	92286900 	.word	0x692892
801115c8:	99027600 	.word	0x760299
801115cc:	16690892 	lbu	t0,26902(s0)
801115d0:	305d0834 	li	t0,0x5d30
801115d4:	66083765 	.word	0x65370866
801115d8:	083c6f08 	j	0x81bcf020
801115dc:	40705099 	lwr	s0,28736(t2)
801115e0:	15564890 	lbu	t0,22037(v0)
801115e4:	0c000099 	lwr	zero,12(t0)
801115e8:	02000016 	bnez	s0,0x801115f4
801115ec:	00181500 	sll	v1,s5,0x0
801115f0:	18034000 	.word	0x400318
801115f4:	144a6014 	bnez	v1,0x80123e48
801115f8:	00181356 	.word	0x56131800
801115fc:	48030018 	blez	zero,0x80112320
80111600:	13000f91 	lbu	t7,19(t0)
80111604:	1800826d 	.word	0x6d820018
80111608:	92280008 	j	0x8000a248
8011160c:	30000834 	li	t0,0x30
80111610:	00083700 	.word	0x370800
80111614:	083c0008 	j	0x8000f020
80111618:	400000ff 	.word	0xff000040
8011161c:	2f000000 	.word	0x2f
80111620:	00001e00 	sll	zero,s8,0x0
80111624:	1e001e00 	.word	0x1e001e
80111628:	3c001e00 	.word	0x1e003c
8011162c:	5a001e00 	.word	0x1e005a
80111630:	78001e00 	.word	0x1e0078
80111634:	96001e00 	.word	0x1e0096
80111638:	00000c00 	sll	zero,t4,0x0
8011163c:	0c002000 	syscall	0x8000
80111640:	2c001600 	.word	0x16002c
80111644:	42001a00 	srl	zero,k0,0x1
80111648:	5c001800 	.word	0x18005c
8011164c:	74000700 	.word	0x70074
80111650:	7b001000 	.word	0x10007b
80111654:	8b001400 	.word	0x14008b
80111658:	9f000f00 	.word	0xf009f
8011165c:	ae001300 	.word	0x1300ae
80111660:	c1001200 	.word	0x1200c1
80111664:	d3001500 	.word	0x1500d3
80111668:	e8000800 	.word	0x800e8
8011166c:	f0000b00 	.word	0xb00f0
80111670:	fb001500 	.word	0x1500fb
80111674:	10010700 	.word	0x70110
80111678:	17011300 	.word	0x130117
8011167c:	2a011600 	.word	0x16012a
80111680:	40011000 	sll	zero,s0,0x5
80111684:	50011a00 	.word	0x1a0150
80111688:	6a011100 	.word	0x11016a
8011168c:	7b011900 	.word	0x19017b
80111690:	94010b00 	.word	0xb0194
80111694:	9f010900 	.word	0x9019f
80111698:	a8010d00 	.word	0xd01a8
8011169c:	b5010900 	.word	0x901b5
801116a0:	be010700 	.word	0x701be
801116a4:	00001000 	sll	zero,s0,0x0
801116a8:	10001200 	.word	0x120010
801116ac:	22000e00 	neg	zero,t6
801116b0:	30001600 	.word	0x160030
801116b4:	46001d00 	.word	0x1d0046
801116b8:	63000c00 	.word	0xc0063
801116bc:	6f001200 	.word	0x12006f
801116c0:	81001700 	.word	0x170081
801116c4:	98001600 	.word	0x160098
801116c8:	ae001500 	.word	0x1500ae
801116cc:	c3001100 	sra	zero,s1,0x3
801116d0:	d4001100 	.word	0x1100d4
801116d4:	e5000d00 	.word	0xd00e5
801116d8:	f2001200 	.word	0x1200f2
801116dc:	ffff0000 	.word	0xffff
801116e0:	00000000 	nop
801116e4:	03000000 	sra	zero,zero,0x0
801116e8:	000069ff 	.word	0xff690000
801116ec:	60000400 	.word	0x40060
801116f0:	ffff0000 	.word	0xffff
	...
801116fc:	69001600 	.word	0x160069
80111700:	55000100 	.word	0x10055
80111704:	000097ff 	.word	0xff970000
80111708:	16005500 	.word	0x550016
8011170c:	02001000 	srl	zero,s0,0x0
80111710:	6c911080 	lb	s0,-28308(zero)
80111714:	00a01880 	lb	t8,-24576(zero)
80111718:	ab040000 	.word	0x4ab
8011171c:	58911080 	lb	s0,-28328(zero)
80111720:	00a01880 	lb	t8,-24576(zero)
80111724:	fa000000 	.word	0xfa
	...
80111738:	f4a61180 	lb	s1,-22796(zero)
8011173c:	f8a61180 	lb	s1,-22792(zero)
80111740:	fca61180 	lb	s1,-22788(zero)
80111744:	00a71180 	lb	s1,-22784(zero)
80111748:	0ca71180 	lb	s1,-22772(zero)
8011174c:	18a71180 	lb	s1,-22760(zero)
80111750:	24a71180 	lb	s1,-22748(zero)
80111754:	30a71180 	lb	s1,-22736(zero)
80111758:	00000080 	lb	zero,0(zero)
8011175c:	01000080 	lb	zero,1(zero)
80111760:	02000080 	lb	zero,2(zero)
80111764:	03000600 	sra	zero,a2,0x0
80111768:	04000640 	.word	0x40060004
8011176c:	00a71180 	lb	s1,-22784(zero)
80111770:	05000600 	.word	0x60005
80111774:	06000640 	.word	0x40060006
80111778:	0ca71180 	lb	s1,-22772(zero)
8011177c:	07000600 	srav	zero,a2,zero
80111780:	08000640 	.word	0x40060008
80111784:	18a71180 	lb	s1,-22760(zero)
80111788:	09000600 	.word	0x60009
8011178c:	0a000640 	.word	0x4006000a
80111790:	24a71180 	lb	s1,-22748(zero)
80111794:	0b000040 	.word	0x4000000b
80111798:	30a71180 	lb	s1,-22736(zero)
8011179c:	80a71180 	lb	s1,-22656(zero)
801117a0:	d4a71180 	lb	s1,-22572(zero)
801117a4:	28a81180 	lb	s1,-22488(zero)
801117a8:	7ca81180 	lb	s1,-22404(zero)
801117ac:	c0a81180 	lb	s1,-22336(zero)
801117b0:	14a91180 	lb	s1,-22252(zero)
801117b4:	38a91180 	lb	s1,-22216(zero)
801117b8:	5ca91180 	lb	s1,-22180(zero)
801117bc:	a8a91180 	lb	s1,-22104(zero)
801117c0:	fca91180 	lb	s1,-22020(zero)
801117c4:	40aa1180 	lb	s1,-21952(zero)
801117c8:	84aa1180 	lb	s1,-21884(zero)
801117cc:	e8aa1180 	lb	s1,-21784(zero)
801117d0:	3cab1180 	lb	s1,-21700(zero)
801117d4:	a8ab1180 	lb	s1,-21592(zero)
801117d8:	f4ab1180 	lb	s1,-21516(zero)
801117dc:	08ac1180 	lb	s1,-21496(zero)
801117e0:	3cac1180 	lb	s1,-21444(zero)
801117e4:	00000000 	nop
801117e8:	00000420 	addi	a0,zero,0
801117ec:	01000000 	.word	0x1
801117f0:	00000420 	addi	a0,zero,0
801117f4:	02000000 	srl	zero,zero,0x0
801117f8:	00000420 	addi	a0,zero,0
801117fc:	03000000 	sra	zero,zero,0x0
80111800:	00000420 	addi	a0,zero,0
80111804:	04000000 	sllv	zero,zero,zero
80111808:	00000420 	addi	a0,zero,0
8011180c:	05000000 	.word	0x5
80111810:	00000420 	addi	a0,zero,0
80111814:	06000000 	srlv	zero,zero,zero
80111818:	00000420 	addi	a0,zero,0
8011181c:	07000000 	srav	zero,zero,zero
80111820:	00000420 	addi	a0,zero,0
80111824:	08000000 	jr	zero
80111828:	00000420 	addi	a0,zero,0
8011182c:	09000000 	jalr	zero,zero
80111830:	000004e0 	swc0	c0_context,0(zero)
80111834:	80a71180 	lb	s1,-22656(zero)
80111838:	0a000000 	.word	0xa
8011183c:	00000420 	addi	a0,zero,0
80111840:	0b000000 	.word	0xb
80111844:	00000420 	addi	a0,zero,0
80111848:	0c000000 	syscall
8011184c:	00000420 	addi	a0,zero,0
80111850:	0d000000 	break
80111854:	00000420 	addi	a0,zero,0
80111858:	0e000000 	.word	0xe
8011185c:	00000420 	addi	a0,zero,0
80111860:	0f000000 	.word	0xf
80111864:	00000420 	addi	a0,zero,0
80111868:	10000000 	mfhi	zero
8011186c:	00000420 	addi	a0,zero,0
80111870:	11000000 	mthi	zero
80111874:	00000420 	addi	a0,zero,0
80111878:	12000000 	mflo	zero
8011187c:	00000420 	addi	a0,zero,0
80111880:	13000000 	mtlo	zero
80111884:	000004e0 	swc0	c0_context,0(zero)
80111888:	d4a71180 	lb	s1,-22572(zero)
8011188c:	14000000 	.word	0x14
80111890:	00000420 	addi	a0,zero,0
80111894:	15000000 	.word	0x15
80111898:	00000420 	addi	a0,zero,0
8011189c:	16000000 	.word	0x16
801118a0:	00000420 	addi	a0,zero,0
801118a4:	17000000 	.word	0x17
801118a8:	00000420 	addi	a0,zero,0
801118ac:	18000000 	mult	zero,zero
801118b0:	00000420 	addi	a0,zero,0
801118b4:	19000000 	multu	zero,zero
801118b8:	00000420 	addi	a0,zero,0
801118bc:	1a000000 	div	zero,zero,zero
801118c0:	00000420 	addi	a0,zero,0
801118c4:	1b000000 	divu	zero,zero,zero
801118c8:	00000420 	addi	a0,zero,0
801118cc:	1c000000 	.word	0x1c
801118d0:	00000420 	addi	a0,zero,0
801118d4:	1d000000 	.word	0x1d
801118d8:	000004e0 	swc0	c0_context,0(zero)
801118dc:	28a81180 	lb	s1,-22488(zero)
801118e0:	1e000000 	.word	0x1e
801118e4:	00000620 	addi	a2,zero,0
801118e8:	1f000000 	.word	0x1f
801118ec:	00000620 	addi	a2,zero,0
801118f0:	20000000 	add	zero,zero,zero
801118f4:	00000620 	addi	a2,zero,0
801118f8:	21000000 	move	zero,zero
801118fc:	00000620 	addi	a2,zero,0
80111900:	22000000 	neg	zero,zero
80111904:	00000620 	addi	a2,zero,0
80111908:	23000000 	negu	zero,zero
8011190c:	00000620 	addi	a2,zero,0
80111910:	24000000 	and	zero,zero,zero
80111914:	00000620 	addi	a2,zero,0
80111918:	25000000 	move	zero,zero
8011191c:	000006e0 	swc0	$6,0(zero)
80111920:	7ca81180 	lb	s1,-22404(zero)
80111924:	26000000 	xor	zero,zero,zero
80111928:	00000420 	addi	a0,zero,0
8011192c:	27000000 	nor	zero,zero,zero
80111930:	00000420 	addi	a0,zero,0
80111934:	28000000 	.word	0x28
80111938:	00000420 	addi	a0,zero,0
8011193c:	29000000 	.word	0x29
80111940:	00000420 	addi	a0,zero,0
80111944:	2a000000 	slt	zero,zero,zero
80111948:	00000420 	addi	a0,zero,0
8011194c:	2b000000 	sltu	zero,zero,zero
80111950:	00000420 	addi	a0,zero,0
80111954:	2c000000 	.word	0x2c
80111958:	00000420 	addi	a0,zero,0
8011195c:	2d000000 	.word	0x2d
80111960:	00000420 	addi	a0,zero,0
80111964:	2e000000 	.word	0x2e
80111968:	00000420 	addi	a0,zero,0
8011196c:	2f000000 	.word	0x2f
80111970:	000004e0 	swc0	c0_context,0(zero)
80111974:	c0a81180 	lb	s1,-22336(zero)
80111978:	30000000 	.word	0x30
8011197c:	00000820 	addi	t0,zero,0
80111980:	31000000 	.word	0x31
80111984:	00000820 	addi	t0,zero,0
80111988:	32000000 	.word	0x32
8011198c:	00000820 	addi	t0,zero,0
80111990:	33000000 	.word	0x33
80111994:	000008e0 	swc0	c0_badvaddr,0(zero)
80111998:	14a91180 	lb	s1,-22252(zero)
8011199c:	34000000 	.word	0x34
801119a0:	00000820 	addi	t0,zero,0
801119a4:	35000000 	.word	0x35
801119a8:	00000820 	addi	t0,zero,0
801119ac:	36000000 	.word	0x36
801119b0:	00000820 	addi	t0,zero,0
801119b4:	37000000 	.word	0x37
801119b8:	000008e0 	swc0	c0_badvaddr,0(zero)
801119bc:	38a91180 	lb	s1,-22216(zero)
801119c0:	38000000 	.word	0x38
801119c4:	00000220 	addi	v0,zero,0
801119c8:	39000000 	.word	0x39
801119cc:	00000220 	addi	v0,zero,0
801119d0:	3a000000 	.word	0x3a
801119d4:	00000220 	addi	v0,zero,0
801119d8:	3b000000 	.word	0x3b
801119dc:	00000220 	addi	v0,zero,0
801119e0:	3c000000 	.word	0x3c
801119e4:	00000220 	addi	v0,zero,0
801119e8:	3d000000 	.word	0x3d
801119ec:	00000220 	addi	v0,zero,0
801119f0:	3e000000 	.word	0x3e
801119f4:	00000220 	addi	v0,zero,0
801119f8:	3f000000 	.word	0x3f
801119fc:	00000220 	addi	v0,zero,0
80111a00:	40000000 	ssnop
80111a04:	020002e0 	swc0	c0_entrylo,2(zero)
80111a08:	5ca91180 	lb	s1,-22180(zero)
80111a0c:	41000000 	.word	0x41
80111a10:	00000320 	addi	v1,zero,0
80111a14:	42000000 	srl	zero,zero,0x1
80111a18:	00000320 	addi	v1,zero,0
80111a1c:	43000000 	sra	zero,zero,0x1
80111a20:	00000320 	addi	v1,zero,0
80111a24:	44000000 	.word	0x44
80111a28:	00000320 	addi	v1,zero,0
80111a2c:	45000000 	.word	0x45
80111a30:	00000320 	addi	v1,zero,0
80111a34:	46000000 	.word	0x46
80111a38:	00000320 	addi	v1,zero,0
80111a3c:	47000000 	.word	0x47
80111a40:	00000320 	addi	v1,zero,0
80111a44:	48000000 	.word	0x48
80111a48:	00000320 	addi	v1,zero,0
80111a4c:	49000000 	.word	0x49
80111a50:	00000320 	addi	v1,zero,0
80111a54:	4a000000 	.word	0x4a
80111a58:	000003e0 	swc0	$3,0(zero)
80111a5c:	a8a91180 	lb	s1,-22104(zero)
80111a60:	4b000000 	.word	0x4b
80111a64:	00000420 	addi	a0,zero,0
80111a68:	4c000000 	syscall	0x1
80111a6c:	00000420 	addi	a0,zero,0
80111a70:	4d000000 	break	0x0,0x1
80111a74:	00000420 	addi	a0,zero,0
80111a78:	4e000000 	.word	0x4e
80111a7c:	00000420 	addi	a0,zero,0
80111a80:	4f000000 	.word	0x4f
80111a84:	00000420 	addi	a0,zero,0
80111a88:	50000000 	.word	0x50
80111a8c:	00000420 	addi	a0,zero,0
80111a90:	51000000 	.word	0x51
80111a94:	00000420 	addi	a0,zero,0
80111a98:	52000000 	.word	0x52
80111a9c:	000004e0 	swc0	c0_context,0(zero)
80111aa0:	fca91180 	lb	s1,-22020(zero)
80111aa4:	53000000 	.word	0x53
80111aa8:	00000420 	addi	a0,zero,0
80111aac:	54000000 	.word	0x54
80111ab0:	00000420 	addi	a0,zero,0
80111ab4:	55000000 	.word	0x55
80111ab8:	00000420 	addi	a0,zero,0
80111abc:	56000000 	.word	0x56
80111ac0:	00000420 	addi	a0,zero,0
80111ac4:	57000000 	.word	0x57
80111ac8:	00000420 	addi	a0,zero,0
80111acc:	58000000 	.word	0x58
80111ad0:	00000420 	addi	a0,zero,0
80111ad4:	59000000 	.word	0x59
80111ad8:	00000420 	addi	a0,zero,0
80111adc:	5a000000 	.word	0x5a
80111ae0:	000004e0 	swc0	c0_context,0(zero)
80111ae4:	40aa1180 	lb	s1,-21952(zero)
80111ae8:	5b000000 	.word	0x5b
80111aec:	00000220 	addi	v0,zero,0
80111af0:	5c000000 	.word	0x5c
80111af4:	00000220 	addi	v0,zero,0
80111af8:	5d000000 	.word	0x5d
80111afc:	00000220 	addi	v0,zero,0
80111b00:	5e000000 	.word	0x5e
80111b04:	01000220 	addi	v0,zero,1
80111b08:	5f000000 	.word	0x5f
80111b0c:	00000220 	addi	v0,zero,0
80111b10:	60000000 	.word	0x60
80111b14:	00000220 	addi	v0,zero,0
80111b18:	61000000 	.word	0x61
80111b1c:	00000220 	addi	v0,zero,0
80111b20:	62000000 	.word	0x62
80111b24:	00000220 	addi	v0,zero,0
80111b28:	63000000 	.word	0x63
80111b2c:	00000220 	addi	v0,zero,0
80111b30:	64000000 	.word	0x64
80111b34:	00000220 	addi	v0,zero,0
80111b38:	65000000 	.word	0x65
80111b3c:	01000220 	addi	v0,zero,1
80111b40:	66000000 	.word	0x66
80111b44:	000002e0 	swc0	c0_entrylo,0(zero)
80111b48:	84aa1180 	lb	s1,-21884(zero)
80111b4c:	67000000 	.word	0x67
80111b50:	00000120 	addi	at,zero,0
80111b54:	68000000 	.word	0x68
80111b58:	01000120 	addi	at,zero,1
80111b5c:	69000000 	.word	0x69
80111b60:	00000120 	addi	at,zero,0
80111b64:	6a000000 	.word	0x6a
80111b68:	00000120 	addi	at,zero,0
80111b6c:	6b000000 	.word	0x6b
80111b70:	00000120 	addi	at,zero,0
80111b74:	6c000000 	.word	0x6c
80111b78:	00000120 	addi	at,zero,0
80111b7c:	6d000000 	.word	0x6d
80111b80:	00000120 	addi	at,zero,0
80111b84:	6e000000 	.word	0x6e
80111b88:	00000120 	addi	at,zero,0
80111b8c:	6f000000 	.word	0x6f
80111b90:	00000120 	addi	at,zero,0
80111b94:	70000000 	.word	0x70
80111b98:	000001e0 	swc0	c0_random,0(zero)
80111b9c:	e8aa1180 	lb	s1,-21784(zero)
80111ba0:	71000000 	.word	0x71
80111ba4:	00000220 	addi	v0,zero,0
80111ba8:	72000000 	.word	0x72
80111bac:	00000220 	addi	v0,zero,0
80111bb0:	73000000 	.word	0x73
80111bb4:	00000220 	addi	v0,zero,0
80111bb8:	74000000 	.word	0x74
80111bbc:	00000220 	addi	v0,zero,0
80111bc0:	75000000 	.word	0x75
80111bc4:	00000220 	addi	v0,zero,0
80111bc8:	76000000 	.word	0x76
80111bcc:	00000220 	addi	v0,zero,0
80111bd0:	77000000 	.word	0x77
80111bd4:	00000220 	addi	v0,zero,0
80111bd8:	78000000 	.word	0x78
80111bdc:	00000220 	addi	v0,zero,0
80111be0:	79000000 	.word	0x79
80111be4:	00000220 	addi	v0,zero,0
80111be8:	7a000000 	.word	0x7a
80111bec:	00000220 	addi	v0,zero,0
80111bf0:	7b000000 	.word	0x7b
80111bf4:	00000220 	addi	v0,zero,0
80111bf8:	7c000000 	.word	0x7c
80111bfc:	00000220 	addi	v0,zero,0
80111c00:	7d000000 	.word	0x7d
80111c04:	000002e0 	swc0	c0_entrylo,0(zero)
80111c08:	3cab1180 	lb	s1,-21700(zero)
80111c0c:	7e000000 	.word	0x7e
80111c10:	00000220 	addi	v0,zero,0
80111c14:	7f000000 	.word	0x7f
80111c18:	00000220 	addi	v0,zero,0
80111c1c:	80000000 	sll	zero,zero,0x2
80111c20:	00000220 	addi	v0,zero,0
80111c24:	81000000 	.word	0x81
80111c28:	00000220 	addi	v0,zero,0
80111c2c:	82000000 	srl	zero,zero,0x2
80111c30:	00000220 	addi	v0,zero,0
80111c34:	83000000 	sra	zero,zero,0x2
80111c38:	00000220 	addi	v0,zero,0
80111c3c:	84000000 	.word	0x84
80111c40:	00000220 	addi	v0,zero,0
80111c44:	85000000 	.word	0x85
80111c48:	00000220 	addi	v0,zero,0
80111c4c:	86000000 	.word	0x86
80111c50:	000002e0 	swc0	c0_entrylo,0(zero)
80111c54:	a8ab1180 	lb	s1,-21592(zero)
80111c58:	87000000 	.word	0x87
80111c5c:	00000c20 	addi	t4,zero,0
80111c60:	88000000 	.word	0x88
80111c64:	00000ce0 	swc0	c0_sr,0(zero)
80111c68:	f4ab1180 	lb	s1,-21516(zero)
80111c6c:	89000000 	.word	0x89
80111c70:	00000420 	addi	a0,zero,0
80111c74:	8a000000 	.word	0x8a
80111c78:	00000420 	addi	a0,zero,0
80111c7c:	8b000000 	.word	0x8b
80111c80:	00000420 	addi	a0,zero,0
80111c84:	8c000000 	syscall	0x2
80111c88:	00000420 	addi	a0,zero,0
80111c8c:	8d000000 	break	0x0,0x2
80111c90:	00000420 	addi	a0,zero,0
80111c94:	8e000000 	.word	0x8e
80111c98:	000004e0 	swc0	c0_context,0(zero)
80111c9c:	08ac1180 	lb	s1,-21496(zero)
80111ca0:	8f000000 	.word	0x8f
80111ca4:	00000420 	addi	a0,zero,0
80111ca8:	90000000 	.word	0x90
80111cac:	00000420 	addi	a0,zero,0
80111cb0:	91000000 	.word	0x91
80111cb4:	00000420 	addi	a0,zero,0
80111cb8:	92000000 	.word	0x92
80111cbc:	00000420 	addi	a0,zero,0
80111cc0:	93000000 	.word	0x93
80111cc4:	00000420 	addi	a0,zero,0
80111cc8:	94000000 	.word	0x94
80111ccc:	00000420 	addi	a0,zero,0
80111cd0:	95000000 	.word	0x95
80111cd4:	00000420 	addi	a0,zero,0
80111cd8:	96000000 	.word	0x96
80111cdc:	000004e0 	swc0	c0_context,0(zero)
80111ce0:	3cac1180 	lb	s1,-21444(zero)
80111ce4:	8cac1180 	lb	s1,-21364(zero)
80111ce8:	d0ac1180 	lb	s1,-21296(zero)
80111cec:	d8ac1180 	lb	s1,-21288(zero)
80111cf0:	00000000 	nop
80111cf4:	00000420 	addi	a0,zero,0
80111cf8:	01000000 	.word	0x1
80111cfc:	00000420 	addi	a0,zero,0
80111d00:	02000000 	srl	zero,zero,0x0
80111d04:	00000420 	addi	a0,zero,0
80111d08:	03000000 	sra	zero,zero,0x0
80111d0c:	00000420 	addi	a0,zero,0
80111d10:	04000000 	sllv	zero,zero,zero
80111d14:	00000420 	addi	a0,zero,0
80111d18:	05000000 	.word	0x5
80111d1c:	00000420 	addi	a0,zero,0
80111d20:	06000000 	srlv	zero,zero,zero
80111d24:	00000420 	addi	a0,zero,0
80111d28:	07000000 	srav	zero,zero,zero
80111d2c:	00000460 	.word	0x60040000
80111d30:	8cac1180 	lb	s1,-21364(zero)
80111d34:	08000000 	jr	zero
80111d38:	00000420 	addi	a0,zero,0
80111d3c:	09000000 	jalr	zero,zero
80111d40:	00000220 	addi	v0,zero,0
80111d44:	0a000000 	.word	0xa
80111d48:	00000220 	addi	v0,zero,0
80111d4c:	0b000000 	.word	0xb
80111d50:	00000220 	addi	v0,zero,0
80111d54:	0c000000 	syscall
80111d58:	00000220 	addi	v0,zero,0
80111d5c:	0d000000 	break
80111d60:	00000220 	addi	v0,zero,0
80111d64:	0e000000 	.word	0xe
80111d68:	00000220 	addi	v0,zero,0
80111d6c:	0f000000 	.word	0xf
80111d70:	00000220 	addi	v0,zero,0
80111d74:	10000000 	mfhi	zero
80111d78:	00000220 	addi	v0,zero,0
80111d7c:	11000000 	mthi	zero
80111d80:	00000220 	addi	v0,zero,0
80111d84:	12000000 	mflo	zero
80111d88:	00000220 	addi	v0,zero,0
80111d8c:	13000000 	mtlo	zero
80111d90:	00000220 	addi	v0,zero,0
80111d94:	14000000 	.word	0x14
80111d98:	00000260 	.word	0x60020000
80111d9c:	d8ac1180 	lb	s1,-21288(zero)
80111da0:	4cad1180 	lb	s1,-21172(zero)
80111da4:	78ad1180 	lb	s1,-21128(zero)
80111da8:	bcad1180 	lb	s1,-21060(zero)
80111dac:	6cae1180 	lb	s1,-20884(zero)
80111db0:	00000000 	nop
80111db4:	00000300 	sll	zero,v1,0x0
80111db8:	01000100 	.word	0x10001
80111dbc:	00000400 	sll	zero,a0,0x0
80111dc0:	02000200 	srl	zero,v0,0x0
80111dc4:	00000500 	sll	zero,a1,0x0
80111dc8:	03000300 	sra	zero,v1,0x0
80111dcc:	00000400 	sll	zero,a0,0x0
80111dd0:	04000400 	sllv	zero,a0,zero
80111dd4:	00000340 	mfc0	v1,c0_index
80111dd8:	4cad1180 	lb	s1,-21172(zero)
80111ddc:	05000000 	.word	0x5
80111de0:	00000400 	sll	zero,a0,0x0
80111de4:	06000100 	srlv	zero,at,zero
80111de8:	00000400 	sll	zero,a0,0x0
80111dec:	07000200 	srav	zero,v0,zero
80111df0:	00000400 	sll	zero,a0,0x0
80111df4:	08000300 	.word	0x30008
80111df8:	00000400 	sll	zero,a0,0x0
80111dfc:	09000400 	.word	0x40009
80111e00:	00000400 	sll	zero,a0,0x0
80111e04:	0a000500 	.word	0x5000a
80111e08:	00000400 	sll	zero,a0,0x0
80111e0c:	0b000600 	.word	0x6000b
80111e10:	00000400 	sll	zero,a0,0x0
80111e14:	0c000700 	syscall	0x1c00
80111e18:	00000440 	mfc0	a0,c0_index
80111e1c:	78ad1180 	lb	s1,-21128(zero)
80111e20:	0d000000 	break
80111e24:	00000400 	sll	zero,a0,0x0
80111e28:	0e000100 	.word	0x1000e
80111e2c:	00000400 	sll	zero,a0,0x0
80111e30:	0f000200 	.word	0x2000f
80111e34:	00000400 	sll	zero,a0,0x0
80111e38:	10000300 	.word	0x30010
80111e3c:	00000400 	sll	zero,a0,0x0
80111e40:	11000400 	.word	0x40011
80111e44:	00000400 	sll	zero,a0,0x0
80111e48:	12000500 	.word	0x50012
80111e4c:	00000400 	sll	zero,a0,0x0
80111e50:	13000600 	.word	0x60013
80111e54:	00000400 	sll	zero,a0,0x0
80111e58:	14000700 	.word	0x70014
80111e5c:	00000400 	sll	zero,a0,0x0
80111e60:	15000800 	.word	0x80015
80111e64:	00000400 	sll	zero,a0,0x0
80111e68:	16000900 	.word	0x90016
80111e6c:	00000400 	sll	zero,a0,0x0
80111e70:	17000a00 	.word	0xa0017
80111e74:	00000400 	sll	zero,a0,0x0
80111e78:	18000b00 	mult	zero,t3
80111e7c:	00000400 	sll	zero,a0,0x0
80111e80:	19000c00 	multu	zero,t4
80111e84:	00000400 	sll	zero,a0,0x0
80111e88:	1a000d00 	div	zero,zero,t5
80111e8c:	00000400 	sll	zero,a0,0x0
80111e90:	1b000e00 	divu	zero,zero,t6
80111e94:	00000400 	sll	zero,a0,0x0
80111e98:	1c000f00 	.word	0xf001c
80111e9c:	00000400 	sll	zero,a0,0x0
80111ea0:	1d001000 	.word	0x10001d
80111ea4:	00000400 	sll	zero,a0,0x0
80111ea8:	1e001100 	.word	0x11001e
80111eac:	00000400 	sll	zero,a0,0x0
80111eb0:	1f001200 	.word	0x12001f
80111eb4:	00000400 	sll	zero,a0,0x0
80111eb8:	20001300 	add	zero,zero,s3
80111ebc:	00000400 	sll	zero,a0,0x0
80111ec0:	21001400 	addu	zero,zero,s4
80111ec4:	00000400 	sll	zero,a0,0x0
80111ec8:	22001500 	neg	zero,s5
80111ecc:	00000480 	lb	a0,0(zero)
80111ed0:	23000000 	negu	zero,zero
80111ed4:	00000400 	sll	zero,a0,0x0
80111ed8:	24000100 	and	zero,zero,at
80111edc:	00000400 	sll	zero,a0,0x0
80111ee0:	25000200 	or	zero,zero,v0
80111ee4:	00000400 	sll	zero,a0,0x0
80111ee8:	26000300 	xor	zero,zero,v1
80111eec:	00000400 	sll	zero,a0,0x0
80111ef0:	27000400 	nor	zero,zero,a0
80111ef4:	00000400 	sll	zero,a0,0x0
80111ef8:	28000500 	.word	0x50028
80111efc:	00000400 	sll	zero,a0,0x0
80111f00:	29000600 	.word	0x60029
80111f04:	00000400 	sll	zero,a0,0x0
80111f08:	2a000700 	slt	zero,zero,a3
80111f0c:	00000480 	lb	a0,0(zero)
80111f10:	b4ae1180 	lb	s1,-20812(zero)
80111f14:	f0ae1180 	lb	s1,-20752(zero)
80111f18:	00000000 	nop
80111f1c:	00000400 	sll	zero,a0,0x0
80111f20:	01000000 	.word	0x1
80111f24:	00000400 	sll	zero,a0,0x0
80111f28:	02000000 	srl	zero,zero,0x0
80111f2c:	00000400 	sll	zero,a0,0x0
80111f30:	03000000 	sra	zero,zero,0x0
80111f34:	00000400 	sll	zero,a0,0x0
80111f38:	04000000 	sllv	zero,zero,zero
80111f3c:	00000400 	sll	zero,a0,0x0
80111f40:	05000000 	.word	0x5
80111f44:	00000400 	sll	zero,a0,0x0
80111f48:	06000000 	srlv	zero,zero,zero
80111f4c:	00000440 	mfc0	a0,c0_index
80111f50:	b4ae1180 	lb	s1,-20812(zero)
80111f54:	07000000 	srav	zero,zero,zero
80111f58:	00000300 	sll	zero,v1,0x0
80111f5c:	08000000 	jr	zero
80111f60:	00000300 	sll	zero,v1,0x0
80111f64:	09000000 	jalr	zero,zero
80111f68:	00000400 	sll	zero,a0,0x0
80111f6c:	0a000000 	.word	0xa
80111f70:	00000400 	sll	zero,a0,0x0
80111f74:	0b000000 	.word	0xb
80111f78:	00000400 	sll	zero,a0,0x0
80111f7c:	0c000000 	syscall
80111f80:	00000400 	sll	zero,a0,0x0
80111f84:	0d000000 	break
80111f88:	00000340 	mfc0	v1,c0_index
80111f8c:	f0ae1180 	lb	s1,-20752(zero)
80111f90:	5caf1180 	lb	s1,-20644(zero)
80111f94:	64af1180 	lb	s1,-20636(zero)
80111f98:	a8af1180 	lb	s1,-20568(zero)
80111f9c:	ecaf1180 	lb	s1,-20500(zero)
80111fa0:	30b01180 	lb	s1,-20432(zero)
80111fa4:	58b01180 	lb	s1,-20392(zero)
80111fa8:	7cb01180 	lb	s1,-20356(zero)
80111fac:	84b01180 	lb	s1,-20348(zero)
80111fb0:	ccb01180 	lb	s1,-20276(zero)
80111fb4:	e4b01180 	lb	s1,-20252(zero)
80111fb8:	08b11180 	lb	s1,-20216(zero)
80111fbc:	4cb11180 	lb	s1,-20148(zero)
80111fc0:	00000000 	nop
80111fc4:	00000480 	lb	a0,0(zero)
80111fc8:	01000000 	.word	0x1
80111fcc:	00000420 	addi	a0,zero,0
80111fd0:	02000000 	srl	zero,zero,0x0
80111fd4:	00000420 	addi	a0,zero,0
80111fd8:	03000000 	sra	zero,zero,0x0
80111fdc:	00000420 	addi	a0,zero,0
80111fe0:	04000000 	sllv	zero,zero,zero
80111fe4:	00000420 	addi	a0,zero,0
80111fe8:	05000000 	.word	0x5
80111fec:	00000420 	addi	a0,zero,0
80111ff0:	06000000 	srlv	zero,zero,zero
80111ff4:	00000420 	addi	a0,zero,0
80111ff8:	07000000 	srav	zero,zero,zero
80111ffc:	00000420 	addi	a0,zero,0
80112000:	08000000 	jr	zero
80112004:	000004e0 	swc0	c0_context,0(zero)
80112008:	64af1180 	lb	s1,-20636(zero)
8011200c:	09000000 	jalr	zero,zero
80112010:	00000420 	addi	a0,zero,0
80112014:	0a000000 	.word	0xa
80112018:	00000420 	addi	a0,zero,0
8011201c:	0b000000 	.word	0xb
80112020:	00000420 	addi	a0,zero,0
80112024:	0c000000 	syscall
80112028:	00000420 	addi	a0,zero,0
8011202c:	0d000000 	break
80112030:	00000420 	addi	a0,zero,0
80112034:	0e000000 	.word	0xe
80112038:	00000420 	addi	a0,zero,0
8011203c:	0f000000 	.word	0xf
80112040:	00000420 	addi	a0,zero,0
80112044:	10000000 	mfhi	zero
80112048:	000004e0 	swc0	c0_context,0(zero)
8011204c:	a8af1180 	lb	s1,-20568(zero)
80112050:	11000000 	mthi	zero
80112054:	00000420 	addi	a0,zero,0
80112058:	12000000 	mflo	zero
8011205c:	00000420 	addi	a0,zero,0
80112060:	13000000 	mtlo	zero
80112064:	00000420 	addi	a0,zero,0
80112068:	14000000 	.word	0x14
8011206c:	00000420 	addi	a0,zero,0
80112070:	15000000 	.word	0x15
80112074:	00000420 	addi	a0,zero,0
80112078:	16000000 	.word	0x16
8011207c:	00000420 	addi	a0,zero,0
80112080:	17000000 	.word	0x17
80112084:	00000420 	addi	a0,zero,0
80112088:	18000000 	mult	zero,zero
8011208c:	000004e0 	swc0	c0_context,0(zero)
80112090:	ecaf1180 	lb	s1,-20500(zero)
80112094:	19000000 	multu	zero,zero
80112098:	00000420 	addi	a0,zero,0
8011209c:	1a000000 	div	zero,zero,zero
801120a0:	00000420 	addi	a0,zero,0
801120a4:	1b000000 	divu	zero,zero,zero
801120a8:	00000420 	addi	a0,zero,0
801120ac:	1c000000 	.word	0x1c
801120b0:	00000420 	addi	a0,zero,0
801120b4:	1d000000 	.word	0x1d
801120b8:	00000480 	lb	a0,0(zero)
801120bc:	1e000000 	.word	0x1e
801120c0:	00000520 	addi	a1,zero,0
801120c4:	1f000000 	.word	0x1f
801120c8:	01000520 	addi	a1,zero,1
801120cc:	20000000 	add	zero,zero,zero
801120d0:	00000520 	addi	a1,zero,0
801120d4:	21000000 	move	zero,zero
801120d8:	010005e0 	swc0	$5,1(zero)
801120dc:	58b01180 	lb	s1,-20392(zero)
801120e0:	22000000 	neg	zero,zero
801120e4:	00000480 	lb	a0,0(zero)
801120e8:	23000000 	negu	zero,zero
801120ec:	00000420 	addi	a0,zero,0
801120f0:	24000000 	and	zero,zero,zero
801120f4:	00000420 	addi	a0,zero,0
801120f8:	25000000 	move	zero,zero
801120fc:	00000420 	addi	a0,zero,0
80112100:	26000000 	xor	zero,zero,zero
80112104:	00000420 	addi	a0,zero,0
80112108:	27000000 	nor	zero,zero,zero
8011210c:	00000420 	addi	a0,zero,0
80112110:	28000000 	.word	0x28
80112114:	00000420 	addi	a0,zero,0
80112118:	29000000 	.word	0x29
8011211c:	00000420 	addi	a0,zero,0
80112120:	2a000000 	slt	zero,zero,zero
80112124:	00000420 	addi	a0,zero,0
80112128:	2b000000 	sltu	zero,zero,zero
8011212c:	00000480 	lb	a0,0(zero)
80112130:	2c000000 	.word	0x2c
80112134:	00000420 	addi	a0,zero,0
80112138:	2d000000 	.word	0x2d
8011213c:	00000420 	addi	a0,zero,0
80112140:	2e000000 	.word	0x2e
80112144:	00000420 	addi	a0,zero,0
80112148:	2f000000 	.word	0x2f
8011214c:	00000420 	addi	a0,zero,0
80112150:	30000000 	.word	0x30
80112154:	00000420 	addi	a0,zero,0
80112158:	31000000 	.word	0x31
8011215c:	00000420 	addi	a0,zero,0
80112160:	32000000 	.word	0x32
80112164:	00000460 	.word	0x60040000
80112168:	e4b01180 	lb	s1,-20252(zero)
8011216c:	33000000 	.word	0x33
80112170:	00000420 	addi	a0,zero,0
80112174:	34000000 	.word	0x34
80112178:	00000420 	addi	a0,zero,0
8011217c:	35000000 	.word	0x35
80112180:	00000420 	addi	a0,zero,0
80112184:	36000000 	.word	0x36
80112188:	00000420 	addi	a0,zero,0
8011218c:	37000000 	.word	0x37
80112190:	00000420 	addi	a0,zero,0
80112194:	38000000 	.word	0x38
80112198:	00000420 	addi	a0,zero,0
8011219c:	39000000 	.word	0x39
801121a0:	00000420 	addi	a0,zero,0
801121a4:	3a000000 	.word	0x3a
801121a8:	000004e0 	swc0	c0_context,0(zero)
801121ac:	08b11180 	lb	s1,-20216(zero)
801121b0:	3b000000 	.word	0x3b
801121b4:	00000480 	lb	a0,0(zero)
801121b8:	70b11180 	lb	s1,-20112(zero)
801121bc:	d4b11180 	lb	s1,-20012(zero)
801121c0:	18b21180 	lb	s1,-19944(zero)
801121c4:	7cb21180 	lb	s1,-19844(zero)
801121c8:	e0b21180 	lb	s1,-19744(zero)
801121cc:	44b31180 	lb	s1,-19644(zero)
801121d0:	a8b31180 	lb	s1,-19544(zero)
801121d4:	00000000 	nop
801121d8:	00000200 	sll	zero,v0,0x0
801121dc:	01000000 	.word	0x1
801121e0:	00000200 	sll	zero,v0,0x0
801121e4:	02000000 	srl	zero,zero,0x0
801121e8:	00000200 	sll	zero,v0,0x0
801121ec:	03000000 	sra	zero,zero,0x0
801121f0:	00000200 	sll	zero,v0,0x0
801121f4:	04000000 	sllv	zero,zero,zero
801121f8:	00000200 	sll	zero,v0,0x0
801121fc:	05000000 	.word	0x5
80112200:	00000200 	sll	zero,v0,0x0
80112204:	06000000 	srlv	zero,zero,zero
80112208:	00000200 	sll	zero,v0,0x0
8011220c:	07000000 	srav	zero,zero,zero
80112210:	00000200 	sll	zero,v0,0x0
80112214:	08000000 	jr	zero
80112218:	00000200 	sll	zero,v0,0x0
8011221c:	09000000 	jalr	zero,zero
80112220:	00000200 	sll	zero,v0,0x0
80112224:	0a000000 	.word	0xa
80112228:	00000200 	sll	zero,v0,0x0
8011222c:	0b000000 	.word	0xb
80112230:	00000240 	mfc0	v0,c0_index
80112234:	70b11180 	lb	s1,-20112(zero)
80112238:	0c000000 	syscall
8011223c:	00000200 	sll	zero,v0,0x0
80112240:	0d000000 	break
80112244:	00000200 	sll	zero,v0,0x0
80112248:	0e000000 	.word	0xe
8011224c:	00000200 	sll	zero,v0,0x0
80112250:	0f000000 	.word	0xf
80112254:	00000200 	sll	zero,v0,0x0
80112258:	10000000 	mfhi	zero
8011225c:	00000200 	sll	zero,v0,0x0
80112260:	11000000 	mthi	zero
80112264:	00000200 	sll	zero,v0,0x0
80112268:	12000000 	mflo	zero
8011226c:	00000200 	sll	zero,v0,0x0
80112270:	13000000 	mtlo	zero
80112274:	00000240 	mfc0	v0,c0_index
80112278:	d4b11180 	lb	s1,-20012(zero)
8011227c:	14000000 	.word	0x14
80112280:	00000200 	sll	zero,v0,0x0
80112284:	15000000 	.word	0x15
80112288:	00000200 	sll	zero,v0,0x0
8011228c:	16000000 	.word	0x16
80112290:	00000200 	sll	zero,v0,0x0
80112294:	17000000 	.word	0x17
80112298:	00000200 	sll	zero,v0,0x0
8011229c:	18000000 	mult	zero,zero
801122a0:	00000200 	sll	zero,v0,0x0
801122a4:	19000000 	multu	zero,zero
801122a8:	00000200 	sll	zero,v0,0x0
801122ac:	1a000000 	div	zero,zero,zero
801122b0:	00000200 	sll	zero,v0,0x0
801122b4:	1b000000 	divu	zero,zero,zero
801122b8:	00000200 	sll	zero,v0,0x0
801122bc:	1c000000 	.word	0x1c
801122c0:	00000200 	sll	zero,v0,0x0
801122c4:	1d000000 	.word	0x1d
801122c8:	00000200 	sll	zero,v0,0x0
801122cc:	1e000000 	.word	0x1e
801122d0:	00000200 	sll	zero,v0,0x0
801122d4:	1f000000 	.word	0x1f
801122d8:	000002c0 	lwc0	c0_entrylo,0(zero)
801122dc:	70b11180 	lb	s1,-20112(zero)
801122e0:	20000000 	add	zero,zero,zero
801122e4:	00000200 	sll	zero,v0,0x0
801122e8:	21000000 	move	zero,zero
801122ec:	00000200 	sll	zero,v0,0x0
801122f0:	22000000 	neg	zero,zero
801122f4:	00000200 	sll	zero,v0,0x0
801122f8:	23000000 	negu	zero,zero
801122fc:	00000200 	sll	zero,v0,0x0
80112300:	24000000 	and	zero,zero,zero
80112304:	00000200 	sll	zero,v0,0x0
80112308:	25000000 	move	zero,zero
8011230c:	00000200 	sll	zero,v0,0x0
80112310:	26000000 	xor	zero,zero,zero
80112314:	00000200 	sll	zero,v0,0x0
80112318:	27000000 	nor	zero,zero,zero
8011231c:	00000200 	sll	zero,v0,0x0
80112320:	28000000 	.word	0x28
80112324:	00000200 	sll	zero,v0,0x0
80112328:	29000000 	.word	0x29
8011232c:	00000200 	sll	zero,v0,0x0
80112330:	2a000000 	slt	zero,zero,zero
80112334:	00000200 	sll	zero,v0,0x0
80112338:	2b000000 	sltu	zero,zero,zero
8011233c:	00000240 	mfc0	v0,c0_index
80112340:	7cb21180 	lb	s1,-19844(zero)
80112344:	2c000000 	.word	0x2c
80112348:	00000200 	sll	zero,v0,0x0
8011234c:	2d000000 	.word	0x2d
80112350:	00000200 	sll	zero,v0,0x0
80112354:	2e000000 	.word	0x2e
80112358:	00000200 	sll	zero,v0,0x0
8011235c:	2f000000 	.word	0x2f
80112360:	00000200 	sll	zero,v0,0x0
80112364:	30000000 	.word	0x30
80112368:	00000200 	sll	zero,v0,0x0
8011236c:	31000000 	.word	0x31
80112370:	00000200 	sll	zero,v0,0x0
80112374:	32000000 	.word	0x32
80112378:	00000200 	sll	zero,v0,0x0
8011237c:	33000000 	.word	0x33
80112380:	00000200 	sll	zero,v0,0x0
80112384:	34000000 	.word	0x34
80112388:	00000200 	sll	zero,v0,0x0
8011238c:	35000000 	.word	0x35
80112390:	00000200 	sll	zero,v0,0x0
80112394:	36000000 	.word	0x36
80112398:	00000200 	sll	zero,v0,0x0
8011239c:	37000000 	.word	0x37
801123a0:	00000240 	mfc0	v0,c0_index
801123a4:	e0b21180 	lb	s1,-19744(zero)
801123a8:	38000000 	.word	0x38
801123ac:	00000200 	sll	zero,v0,0x0
801123b0:	39000000 	.word	0x39
801123b4:	00000200 	sll	zero,v0,0x0
801123b8:	3a000000 	.word	0x3a
801123bc:	00000200 	sll	zero,v0,0x0
801123c0:	3b000000 	.word	0x3b
801123c4:	00000200 	sll	zero,v0,0x0
801123c8:	3c000000 	.word	0x3c
801123cc:	00000200 	sll	zero,v0,0x0
801123d0:	3d000000 	.word	0x3d
801123d4:	00000200 	sll	zero,v0,0x0
801123d8:	3e000000 	.word	0x3e
801123dc:	00000200 	sll	zero,v0,0x0
801123e0:	3f000000 	.word	0x3f
801123e4:	00000200 	sll	zero,v0,0x0
801123e8:	40000000 	ssnop
801123ec:	00000200 	sll	zero,v0,0x0
801123f0:	41000000 	.word	0x41
801123f4:	00000200 	sll	zero,v0,0x0
801123f8:	42000000 	srl	zero,zero,0x1
801123fc:	00000200 	sll	zero,v0,0x0
80112400:	43000000 	sra	zero,zero,0x1
80112404:	00000240 	mfc0	v0,c0_index
80112408:	44b31180 	lb	s1,-19644(zero)
8011240c:	44000000 	.word	0x44
80112410:	00000200 	sll	zero,v0,0x0
80112414:	45000000 	.word	0x45
80112418:	00000200 	sll	zero,v0,0x0
8011241c:	46000000 	.word	0x46
80112420:	00000200 	sll	zero,v0,0x0
80112424:	47000000 	.word	0x47
80112428:	00000200 	sll	zero,v0,0x0
8011242c:	48000000 	.word	0x48
80112430:	00000200 	sll	zero,v0,0x0
80112434:	49000000 	.word	0x49
80112438:	00000200 	sll	zero,v0,0x0
8011243c:	4a000000 	.word	0x4a
80112440:	00000200 	sll	zero,v0,0x0
80112444:	4b000000 	.word	0x4b
80112448:	00000240 	mfc0	v0,c0_index
8011244c:	a8b31180 	lb	s1,-19544(zero)
