
rom/extracted/BIN/CRD.BIN:     file format binary


Disassembly of section .data:

80100000 <.data>:
80100000:	23000000 	negu	zero,zero
80100004:	824f0000 	srl	t1,zero,0x1e
80100008:	82500000 	srl	t2,zero,0x2
8010000c:	82510000 	srl	t2,zero,0x6
80100010:	82520000 	srl	t2,zero,0xa
80100014:	82530000 	srl	t2,zero,0xe
80100018:	82540000 	srl	t2,zero,0x12
8010001c:	82550000 	srl	t2,zero,0x16
80100020:	82560000 	srl	t2,zero,0x1a
80100024:	82570000 	srl	t2,zero,0x1e
80100028:	82580000 	srl	t3,zero,0x2
8010002c:	04a01880 	lb	t8,-24572(zero)
80100030:	08a01880 	lb	t8,-24568(zero)
80100034:	0ca01880 	lb	t8,-24564(zero)
80100038:	10a01880 	lb	t8,-24560(zero)
8010003c:	14a01880 	lb	t8,-24556(zero)
80100040:	18a01880 	lb	t8,-24552(zero)
80100044:	1ca01880 	lb	t8,-24548(zero)
80100048:	20a01880 	lb	t8,-24544(zero)
8010004c:	24a01880 	lb	t8,-24540(zero)
80100050:	28a01880 	lb	t8,-24536(zero)
80100054:	8273826e 	.word	0x6e827382
80100058:	826c8261 	.word	0x61826c82
8010005c:	82608149 	.word	0x49816082
80100060:	82518179 	.word	0x79815182
80100064:	824f824f 	c3	0x1824f82
80100068:	817a8140 	.word	0x40817a81
8010006c:	824f824f 	c3	0x1824f82
80100070:	824f8146 	c1	0x814f82
80100074:	824f824f 	c3	0x1824f82
80100078:	8146824f 	c3	0x1824681
8010007c:	824f8140 	.word	0x40814f82
80100080:	824f824f 	c3	0x1824f82
80100084:	824f815e 	.word	0x5e814f82
80100088:	824f824f 	c3	0x1824f82
8010008c:	824f0000 	srl	t1,zero,0x1e
80100090:	62752530 	andi	a1,at,0x7562
80100094:	32583a25 	addiu	k0,t1,22578
80100098:	73253032 	andi	s0,s1,0x2573
8010009c:	64000000 	.word	0x64
801000a0:	42415343 	c0	0x1534142
801000a4:	55535039 	xori	s0,t2,0x5355
801000a8:	34343534 	ori	s5,at,0x3434
801000ac:	54322d00 	.word	0x2d3254
801000b0:	62752530 	andi	a1,at,0x7562
801000b4:	32583a2a 	slti	k0,s1,22578
801000b8:	00000000 	nop
801000bc:	62752530 	andi	a1,at,0x7562
801000c0:	32583a25 	addiu	k0,t1,22578
801000c4:	73000000 	.word	0x73
801000c8:	f0000800 	.word	0x800f0
801000cc:	00010800 	sll	zero,t0,0x4
801000d0:	f0001800 	.word	0x1800f0
801000d4:	00011800 	sll	zero,t8,0x4
801000d8:	f8001000 	.word	0x1000f8
801000dc:	25303264 	.word	0x64323025
801000e0:	00000000 	nop
801000e4:	25303364 	.word	0x64333025
801000e8:	3a253032 	andi	s0,s1,0x253a
801000ec:	643a2530 	andi	a1,at,0x3a64
801000f0:	32640000 	.word	0x6432
801000f4:	41502025 	addiu	zero,t1,20545
801000f8:	37640000 	.word	0x6437
801000fc:	4556454e 	c3	0x455645
80100100:	54000000 	.word	0x54
80100104:	2533642f 	sltiu	a0,k1,13093
80100108:	25336400 	.word	0x643325
8010010c:	25640000 	.word	0x6425
80100110:	4e455700 	.word	0x57454e
80100114:	64000800 	.word	0x80064
80100118:	d0002000 	.word	0x2000d0
8010011c:	10001000 	.word	0x100010
80100120:	40001000 	sll	zero,s0,0x1
80100124:	08003200 	.word	0x320008
80100128:	30011400 	.word	0x140130
8010012c:	bcf61880 	lb	t8,-2372(zero)
80100130:	00f71880 	lb	t8,-2304(zero)
80100134:	30f71880 	lb	t8,-2256(zero)
80100138:	bcf61880 	lb	t8,-2372(zero)
8010013c:	10f71880 	lb	t8,-2288(zero)
80100140:	40f71880 	lb	t8,-2240(zero)
80100144:	c8f61880 	lb	t8,-2360(zero)
80100148:	20f71880 	lb	t8,-2272(zero)
8010014c:	bcf71880 	lb	t8,-2116(zero)
80100150:	c8f61880 	lb	t8,-2360(zero)
80100154:	ccf71880 	lb	t8,-2100(zero)
80100158:	c8f61880 	lb	t8,-2360(zero)
8010015c:	00f81880 	lb	t8,-2048(zero)
80100160:	e4f61880 	lb	t8,-2332(zero)
80100164:	20f81880 	lb	t8,-2016(zero)
80100168:	c8f61880 	lb	t8,-2360(zero)
8010016c:	10f81880 	lb	t8,-2032(zero)
80100170:	00000000 	nop
80100174:	bcf81880 	lb	t8,-1860(zero)
80100178:	68fa1880 	lb	t8,-1432(zero)
8010017c:	68fa1880 	lb	t8,-1432(zero)
80100180:	08f91880 	lb	t8,-1784(zero)
80100184:	68fa1880 	lb	t8,-1432(zero)
80100188:	ccf81880 	lb	t8,-1844(zero)
8010018c:	dcf81880 	lb	t8,-1828(zero)
80100190:	68fa1880 	lb	t8,-1432(zero)
80100194:	68fa1880 	lb	t8,-1432(zero)
80100198:	ccf81880 	lb	t8,-1844(zero)
8010019c:	dcf81880 	lb	t8,-1828(zero)
801001a0:	00000000 	nop
801001a4:	28fc1880 	lb	t8,-984(zero)
801001a8:	38fc1880 	lb	t8,-968(zero)
801001ac:	48fc1880 	lb	t8,-952(zero)
801001b0:	58fc1880 	lb	t8,-936(zero)
801001b4:	d0fc1880 	lb	t8,-816(zero)
801001b8:	e0fc1880 	lb	t8,-800(zero)
801001bc:	f0fc1880 	lb	t8,-784(zero)
801001c0:	00fd1880 	lb	t8,-768(zero)
801001c4:	10fd1880 	lb	t8,-752(zero)
801001c8:	20fd1880 	lb	t8,-736(zero)
801001cc:	b0fd1880 	lb	t8,-592(zero)
801001d0:	c0fd1880 	lb	t8,-576(zero)
801001d4:	d0fd1880 	lb	t8,-560(zero)
801001d8:	e0fd1880 	lb	t8,-544(zero)
801001dc:	54fe1880 	lb	t8,-428(zero)
801001e0:	64fe1880 	lb	t8,-412(zero)
801001e4:	a0fe1880 	lb	t8,-352(zero)
801001e8:	d8ffbd27 	addiu	sp,sp,-40
801001ec:	1800b2af 	sw	s2,24(sp)
801001f0:	21908000 	move	s2,a0
801001f4:	1400b1af 	sw	s1,20(sp)
801001f8:	01001124 	li	s1,1
801001fc:	2000bfaf 	sw	ra,32(sp)
80100200:	1c00b3af 	sw	s3,28(sp)
80100204:	1000b0af 	sw	s0,16(sp)
80100208:	3d004292 	lbu	v0,61(s2)
8010020c:	40005092 	lbu	s0,64(s2)
80100210:	00000000 	nop
80100214:	0d001112 	beq	s0,s1,0x8010024c
80100218:	00990200 	sll	s3,v0,0x4
8010021c:	0200022a 	slti	v0,s0,2
80100220:	79004010 	beqz	v0,0x80100408
80100224:	00000000 	nop
80100228:	77000016 	bnez	s0,0x80100408
8010022c:	00000000 	nop
80100230:	a46e020c 	jal	0x8009ba90
80100234:	21206002 	move	a0,s3
80100238:	ff000224 	li	v0,255
8010023c:	400051a2 	sb	s1,64(s2)
80100240:	430040a2 	sb	zero,67(s2)
80100244:	02290608 	j	0x8018a408
80100248:	410042a2 	sb	v0,65(s2)
8010024c:	0c80023c 	lui	v0,0x800c
80100250:	98f45124 	addiu	s1,v0,-2920
80100254:	1c00248e 	lw	a0,28(s1)
80100258:	1002020c 	jal	0x80080840
8010025c:	00000000 	nop
80100260:	19005010 	beq	v0,s0,0x801002c8
80100264:	01000224 	li	v0,1
80100268:	2000248e 	lw	a0,32(s1)
8010026c:	1002020c 	jal	0x80080840
80100270:	00000000 	nop
80100274:	14005010 	beq	v0,s0,0x801002c8
80100278:	02000224 	li	v0,2
8010027c:	2400248e 	lw	a0,36(s1)
80100280:	1002020c 	jal	0x80080840
80100284:	00000000 	nop
80100288:	0f005010 	beq	v0,s0,0x801002c8
8010028c:	03000224 	li	v0,3
80100290:	2800248e 	lw	a0,40(s1)
80100294:	1002020c 	jal	0x80080840
80100298:	00000000 	nop
8010029c:	0a005010 	beq	v0,s0,0x801002c8
801002a0:	04000224 	li	v0,4
801002a4:	43002292 	lbu	v0,67(s1)
801002a8:	00000000 	nop
801002ac:	01004224 	addiu	v0,v0,1
801002b0:	430022a2 	sb	v0,67(s1)
801002b4:	ff004230 	andi	v0,v0,0xff
801002b8:	ff00422c 	sltiu	v0,v0,255
801002bc:	02004014 	bnez	v0,0x801002c8
801002c0:	21100000 	move	v0,zero
801002c4:	02000224 	li	v0,2
801002c8:	ff004330 	andi	v1,v0,0xff
801002cc:	4e006010 	beqz	v1,0x80100408
801002d0:	04006228 	slti	v0,v1,4
801002d4:	07004010 	beqz	v0,0x801002f4
801002d8:	02006228 	slti	v0,v1,2
801002dc:	37004010 	beqz	v0,0x801003bc
801002e0:	01000224 	li	v0,1
801002e4:	0d006210 	beq	v1,v0,0x8010031c
801002e8:	00000000 	nop
801002ec:	f8280608 	j	0x8018a3e0
801002f0:	00000000 	nop
801002f4:	04000224 	li	v0,4
801002f8:	39006214 	bne	v1,v0,0x801003e0
801002fc:	00000000 	nop
80100300:	3d004292 	lbu	v0,61(s2)
80100304:	00000000 	nop
80100308:	21104202 	addu	v0,s2,v0
8010030c:	4a004290 	lbu	v0,74(v0)
80100310:	00000000 	nop
80100314:	03004014 	bnez	v0,0x80100324
80100318:	0c80103c 	lui	s0,0x800c
8010031c:	f8280608 	j	0x8018a3e0
80100320:	420040a2 	sb	zero,66(s2)
80100324:	98f41026 	addiu	s0,s0,-2920
80100328:	2c00048e 	lw	a0,44(s0)
8010032c:	1002020c 	jal	0x80080840
80100330:	21880002 	move	s1,s0
80100334:	3000048e 	lw	a0,48(s0)
80100338:	1002020c 	jal	0x80080840
8010033c:	00000000 	nop
80100340:	3400048e 	lw	a0,52(s0)
80100344:	1002020c 	jal	0x80080840
80100348:	01001024 	li	s0,1
8010034c:	3800248e 	lw	a0,56(s1)
80100350:	1002020c 	jal	0x80080840
80100354:	00000000 	nop
80100358:	ac6e020c 	jal	0x8009bab0
8010035c:	21206002 	move	a0,s3
80100360:	2c00248e 	lw	a0,44(s1)
80100364:	1002020c 	jal	0x80080840
80100368:	00000000 	nop
8010036c:	10005010 	beq	v0,s0,0x801003b0
80100370:	00000000 	nop
80100374:	3000248e 	lw	a0,48(s1)
80100378:	1002020c 	jal	0x80080840
8010037c:	00000000 	nop
80100380:	0b005010 	beq	v0,s0,0x801003b0
80100384:	00000000 	nop
80100388:	3400248e 	lw	a0,52(s1)
8010038c:	1002020c 	jal	0x80080840
80100390:	00000000 	nop
80100394:	06005010 	beq	v0,s0,0x801003b0
80100398:	00000000 	nop
8010039c:	3800248e 	lw	a0,56(s1)
801003a0:	1002020c 	jal	0x80080840
801003a4:	00000000 	nop
801003a8:	edff5014 	bne	v0,s0,0x80100360
801003ac:	00000000 	nop
801003b0:	3d004292 	lbu	v0,61(s2)
801003b4:	f1280608 	j	0x8018a3c4
801003b8:	01000324 	li	v1,1
801003bc:	3d004292 	lbu	v0,61(s2)
801003c0:	fe000324 	li	v1,254
801003c4:	420043a2 	sb	v1,66(s2)
801003c8:	21104202 	addu	v0,s2,v0
801003cc:	480040a0 	sb	zero,72(v0)
801003d0:	3d004292 	lbu	v0,61(s2)
801003d4:	ff000324 	li	v1,255
801003d8:	21104202 	addu	v0,s2,v0
801003dc:	4e0043a0 	sb	v1,78(v0)
801003e0:	3d004292 	lbu	v0,61(s2)
801003e4:	42004392 	lbu	v1,66(s2)
801003e8:	21104202 	addu	v0,s2,v0
801003ec:	410043a2 	sb	v1,65(s2)
801003f0:	4a0043a0 	sb	v1,74(v0)
801003f4:	3d004392 	lbu	v1,61(s2)
801003f8:	01000224 	li	v0,1
801003fc:	400040a2 	sb	zero,64(s2)
80100400:	23104300 	subu	v0,v0,v1
80100404:	3d0042a2 	sb	v0,61(s2)
80100408:	41004292 	lbu	v0,65(s2)
8010040c:	2000bf8f 	lw	ra,32(sp)
80100410:	1c00b38f 	lw	s3,28(sp)
80100414:	1800b28f 	lw	s2,24(sp)
80100418:	1400b18f 	lw	s1,20(sp)
8010041c:	1000b08f 	lw	s0,16(sp)
80100420:	0800e003 	jr	ra
80100424:	2800bd27 	addiu	sp,sp,40
80100428:	88ffbd27 	addiu	sp,sp,-120
8010042c:	7000b6af 	sw	s6,112(sp)
80100430:	21b08000 	move	s6,a0
80100434:	21280000 	move	a1,zero
80100438:	80030624 	li	a2,896
8010043c:	7400bfaf 	sw	ra,116(sp)
80100440:	6c00b5af 	sw	s5,108(sp)
80100444:	6800b4af 	sw	s4,104(sp)
80100448:	6400b3af 	sw	s3,100(sp)
8010044c:	6000b2af 	sw	s2,96(sp)
80100450:	5c00b1af 	sw	s1,92(sp)
80100454:	0869020c 	jal	0x8009a420
80100458:	5800b0af 	sw	s0,88(sp)
8010045c:	0400c626 	addiu	a2,s6,4
80100460:	1980023c 	lui	v0,0x8019
80100464:	54a04324 	addiu	v1,v0,-24492
80100468:	30006424 	addiu	a0,v1,48
8010046c:	53000224 	li	v0,83
80100470:	0000c2a2 	sb	v0,0(s6)
80100474:	43000224 	li	v0,67
80100478:	0100c2a2 	sb	v0,1(s6)
8010047c:	11000224 	li	v0,17
80100480:	0200c2a2 	sb	v0,2(s6)
80100484:	01000224 	li	v0,1
80100488:	0300c2a2 	sb	v0,3(s6)
8010048c:	0000688c 	lw	t0,0(v1)
80100490:	0400698c 	lw	t1,4(v1)
80100494:	08006a8c 	lw	t2,8(v1)
80100498:	0c006b8c 	lw	t3,12(v1)
8010049c:	0000c8ac 	sw	t0,0(a2)
801004a0:	0400c9ac 	sw	t1,4(a2)
801004a4:	0800caac 	sw	t2,8(a2)
801004a8:	0c00cbac 	sw	t3,12(a2)
801004ac:	10006324 	addiu	v1,v1,16
801004b0:	f6ff6414 	bne	v1,a0,0x8010048c
801004b4:	1000c624 	addiu	a2,a2,16
801004b8:	1400d226 	addiu	s2,s6,20
801004bc:	02001324 	li	s3,2
801004c0:	3000a527 	addiu	a1,sp,48
801004c4:	1980023c 	lui	v0,0x8019
801004c8:	2ca04424 	addiu	a0,v0,-24532
801004cc:	0c80023c 	lui	v0,0x800c
801004d0:	0000688c 	lw	t0,0(v1)
801004d4:	0400698c 	lw	t1,4(v1)
801004d8:	08006a84 	lh	t2,8(v1)
801004dc:	0a006b80 	lb	t3,10(v1)
801004e0:	0000c8ac 	sw	t0,0(a2)
801004e4:	0400c9ac 	sw	t1,4(a2)
801004e8:	0800caa4 	sh	t2,8(a2)
801004ec:	0a00cba0 	sb	t3,10(a2)
801004f0:	dff44290 	lbu	v0,-2849(v0)
801004f4:	20008624 	addiu	a2,a0,32
801004f8:	01004324 	addiu	v1,v0,1
801004fc:	0000888c 	lw	t0,0(a0)
80100500:	0400898c 	lw	t1,4(a0)
80100504:	08008a8c 	lw	t2,8(a0)
80100508:	0c008b8c 	lw	t3,12(a0)
8010050c:	0000a8ac 	sw	t0,0(a1)
80100510:	0400a9ac 	sw	t1,4(a1)
80100514:	0800aaac 	sw	t2,8(a1)
80100518:	0c00abac 	sw	t3,12(a1)
8010051c:	10008424 	addiu	a0,a0,16
80100520:	f6ff8614 	bne	a0,a2,0x801004fc
80100524:	1000a524 	addiu	a1,a1,16
80100528:	0000888c 	lw	t0,0(a0)
8010052c:	0400898c 	lw	t1,4(a0)
80100530:	0000a8ac 	sw	t0,0(a1)
80100534:	0400a9ac 	sw	t1,4(a1)
80100538:	1000b127 	addiu	s1,sp,16
8010053c:	6666153c 	lui	s5,0x6666
80100540:	6766b536 	ori	s5,s5,0x6667
80100544:	3000b427 	addiu	s4,sp,48
80100548:	18007500 	mult	v1,s5
8010054c:	21202002 	move	a0,s1
80100550:	c3170300 	sra	v0,v1,0x1f
80100554:	10400000 	mfhi	t0
80100558:	83800800 	sra	s0,t0,0x2
8010055c:	23800202 	subu	s0,s0,v0
80100560:	80101000 	sll	v0,s0,0x2
80100564:	21105000 	addu	v0,v0,s0
80100568:	40100200 	sll	v0,v0,0x1
8010056c:	23106200 	subu	v0,v1,v0
80100570:	80100200 	sll	v0,v0,0x2
80100574:	21108202 	addu	v0,s4,v0
80100578:	0000458c 	lw	a1,0(v0)
8010057c:	6c69020c 	jal	0x8009a5b0
80100580:	02003126 	addiu	s1,s1,2
80100584:	21180002 	move	v1,s0
80100588:	f0ff6014 	bnez	v1,0x8010054c
8010058c:	18007500 	mult	v1,s5
80100590:	40981300 	sll	s3,s3,0x1
80100594:	1000a327 	addiu	v1,sp,16
80100598:	23102302 	subu	v0,s1,v1
8010059c:	2a105300 	slt	v0,v0,s3
801005a0:	09004010 	beqz	v0,0x801005c8
801005a4:	21202002 	move	a0,s1
801005a8:	21806000 	move	s0,v1
801005ac:	3000a58f 	lw	a1,48(sp)
801005b0:	6c69020c 	jal	0x8009a5b0
801005b4:	02003126 	addiu	s1,s1,2
801005b8:	23103002 	subu	v0,s1,s0
801005bc:	2a105300 	slt	v0,v0,s3
801005c0:	faff4014 	bnez	v0,0x801005ac
801005c4:	21202002 	move	a0,s1
801005c8:	feff3126 	addiu	s1,s1,-2
801005cc:	1000a327 	addiu	v1,sp,16
801005d0:	2b102302 	sltu	v0,s1,v1
801005d4:	0b004014 	bnez	v0,0x80100604
801005d8:	00000000 	nop
801005dc:	00002292 	lbu	v0,0(s1)
801005e0:	00000000 	nop
801005e4:	000042a2 	sb	v0,0(s2)
801005e8:	01005226 	addiu	s2,s2,1
801005ec:	01002292 	lbu	v0,1(s1)
801005f0:	feff3126 	addiu	s1,s1,-2
801005f4:	000042a2 	sb	v0,0(s2)
801005f8:	2b102302 	sltu	v0,s1,v1
801005fc:	f7ff4010 	beqz	v0,0x801005dc
80100600:	01005226 	addiu	s2,s2,1
80100604:	6d02033c 	lui	v1,0x26d
80100608:	0c80023c 	lui	v0,0x800c
8010060c:	78f8428c 	lw	v0,-1928(v0)
80100610:	dd606334 	ori	v1,v1,0x60dd
80100614:	42110200 	srl	v0,v0,0x5
80100618:	19004300 	multu	v0,v1
8010061c:	6210023c 	lui	v0,0x1062
80100620:	10400000 	mfhi	t0
80100624:	d34d4234 	ori	v0,v0,0x4dd3
80100628:	42210800 	srl	a0,t0,0x5
8010062c:	19008200 	multu	a0,v0
80100630:	1c00d226 	addiu	s2,s6,28
80100634:	03001324 	li	s3,3
80100638:	3000a627 	addiu	a2,sp,48
8010063c:	1980023c 	lui	v0,0x8019
80100640:	2ca04524 	addiu	a1,v0,-24532
80100644:	2000a724 	addiu	a3,a1,32
80100648:	10400000 	mfhi	t0
8010064c:	82190800 	srl	v1,t0,0x6
80100650:	40110300 	sll	v0,v1,0x5
80100654:	23104300 	subu	v0,v0,v1
80100658:	80100200 	sll	v0,v0,0x2
8010065c:	21104300 	addu	v0,v0,v1
80100660:	04106202 	sllv	v0,v0,s3
80100664:	23188200 	subu	v1,a0,v0
80100668:	0000a98c 	lw	t1,0(a1)
8010066c:	0400aa8c 	lw	t2,4(a1)
80100670:	0800ab8c 	lw	t3,8(a1)
80100674:	0c00a88c 	lw	t0,12(a1)
80100678:	0000c9ac 	sw	t1,0(a2)
8010067c:	0400caac 	sw	t2,4(a2)
80100680:	0800cbac 	sw	t3,8(a2)
80100684:	0c00c8ac 	sw	t0,12(a2)
80100688:	1000a524 	addiu	a1,a1,16
8010068c:	f6ffa714 	bne	a1,a3,0x80100668
80100690:	1000c624 	addiu	a2,a2,16
80100694:	0000a98c 	lw	t1,0(a1)
80100698:	0400aa8c 	lw	t2,4(a1)
8010069c:	0000c9ac 	sw	t1,0(a2)
801006a0:	0400caac 	sw	t2,4(a2)
801006a4:	1000b127 	addiu	s1,sp,16
801006a8:	6666153c 	lui	s5,0x6666
801006ac:	6766b536 	ori	s5,s5,0x6667
801006b0:	3000b427 	addiu	s4,sp,48
801006b4:	18007500 	mult	v1,s5
801006b8:	21202002 	move	a0,s1
801006bc:	c3170300 	sra	v0,v1,0x1f
801006c0:	10400000 	mfhi	t0
801006c4:	83800800 	sra	s0,t0,0x2
801006c8:	23800202 	subu	s0,s0,v0
801006cc:	80101000 	sll	v0,s0,0x2
801006d0:	21105000 	addu	v0,v0,s0
801006d4:	40100200 	sll	v0,v0,0x1
801006d8:	23106200 	subu	v0,v1,v0
801006dc:	80100200 	sll	v0,v0,0x2
801006e0:	21108202 	addu	v0,s4,v0
801006e4:	0000458c 	lw	a1,0(v0)
801006e8:	6c69020c 	jal	0x8009a5b0
801006ec:	02003126 	addiu	s1,s1,2
801006f0:	21180002 	move	v1,s0
801006f4:	f0ff6014 	bnez	v1,0x801006b8
801006f8:	18007500 	mult	v1,s5
801006fc:	40981300 	sll	s3,s3,0x1
80100700:	1000a327 	addiu	v1,sp,16
80100704:	23102302 	subu	v0,s1,v1
80100708:	2a105300 	slt	v0,v0,s3
8010070c:	09004010 	beqz	v0,0x80100734
80100710:	21202002 	move	a0,s1
80100714:	21806000 	move	s0,v1
80100718:	3000a58f 	lw	a1,48(sp)
8010071c:	6c69020c 	jal	0x8009a5b0
80100720:	02003126 	addiu	s1,s1,2
80100724:	23103002 	subu	v0,s1,s0
80100728:	2a105300 	slt	v0,v0,s3
8010072c:	faff4014 	bnez	v0,0x80100718
80100730:	21202002 	move	a0,s1
80100734:	feff3126 	addiu	s1,s1,-2
80100738:	1000a327 	addiu	v1,sp,16
8010073c:	2b102302 	sltu	v0,s1,v1
80100740:	0c004014 	bnez	v0,0x80100774
80100744:	0c80023c 	lui	v0,0x800c
80100748:	00002292 	lbu	v0,0(s1)
8010074c:	00000000 	nop
80100750:	000042a2 	sb	v0,0(s2)
80100754:	01005226 	addiu	s2,s2,1
80100758:	01002292 	lbu	v0,1(s1)
8010075c:	feff3126 	addiu	s1,s1,-2
80100760:	000042a2 	sb	v0,0(s2)
80100764:	2b102302 	sltu	v0,s1,v1
80100768:	f7ff4010 	beqz	v0,0x80100748
8010076c:	01005226 	addiu	s2,s2,1
80100770:	0c80023c 	lui	v0,0x800c
80100774:	78f8438c 	lw	v1,-1928(v0)
80100778:	a291023c 	lui	v0,0x91a2
8010077c:	c5b34234 	ori	v0,v0,0xb3c5
80100780:	19006200 	multu	v1,v0
80100784:	10400000 	mfhi	t0
80100788:	8888023c 	lui	v0,0x8888
8010078c:	89884234 	ori	v0,v0,0x8889
80100790:	82220800 	srl	a0,t0,0xa
80100794:	19008200 	multu	a0,v0
80100798:	2400d226 	addiu	s2,s6,36
8010079c:	02001324 	li	s3,2
801007a0:	3000a627 	addiu	a2,sp,48
801007a4:	1980023c 	lui	v0,0x8019
801007a8:	2ca04524 	addiu	a1,v0,-24532
801007ac:	2000a724 	addiu	a3,a1,32
801007b0:	10400000 	mfhi	t0
801007b4:	42190800 	srl	v1,t0,0x5
801007b8:	00110300 	sll	v0,v1,0x4
801007bc:	23104300 	subu	v0,v0,v1
801007c0:	04106202 	sllv	v0,v0,s3
801007c4:	23188200 	subu	v1,a0,v0
801007c8:	0000a98c 	lw	t1,0(a1)
801007cc:	0400aa8c 	lw	t2,4(a1)
801007d0:	0800ab8c 	lw	t3,8(a1)
801007d4:	0c00a88c 	lw	t0,12(a1)
801007d8:	0000c9ac 	sw	t1,0(a2)
801007dc:	0400caac 	sw	t2,4(a2)
801007e0:	0800cbac 	sw	t3,8(a2)
801007e4:	0c00c8ac 	sw	t0,12(a2)
801007e8:	1000a524 	addiu	a1,a1,16
801007ec:	f6ffa714 	bne	a1,a3,0x801007c8
801007f0:	1000c624 	addiu	a2,a2,16
801007f4:	0000a98c 	lw	t1,0(a1)
801007f8:	0400aa8c 	lw	t2,4(a1)
801007fc:	0000c9ac 	sw	t1,0(a2)
80100800:	0400caac 	sw	t2,4(a2)
80100804:	1000b127 	addiu	s1,sp,16
80100808:	6666153c 	lui	s5,0x6666
8010080c:	6766b536 	ori	s5,s5,0x6667
80100810:	3000b427 	addiu	s4,sp,48
80100814:	18007500 	mult	v1,s5
80100818:	21202002 	move	a0,s1
8010081c:	c3170300 	sra	v0,v1,0x1f
80100820:	10400000 	mfhi	t0
80100824:	83800800 	sra	s0,t0,0x2
80100828:	23800202 	subu	s0,s0,v0
8010082c:	80101000 	sll	v0,s0,0x2
80100830:	21105000 	addu	v0,v0,s0
80100834:	40100200 	sll	v0,v0,0x1
80100838:	23106200 	subu	v0,v1,v0
8010083c:	80100200 	sll	v0,v0,0x2
80100840:	21108202 	addu	v0,s4,v0
80100844:	0000458c 	lw	a1,0(v0)
80100848:	6c69020c 	jal	0x8009a5b0
8010084c:	02003126 	addiu	s1,s1,2
80100850:	21180002 	move	v1,s0
80100854:	f0ff6014 	bnez	v1,0x80100818
80100858:	18007500 	mult	v1,s5
8010085c:	40981300 	sll	s3,s3,0x1
80100860:	1000a327 	addiu	v1,sp,16
80100864:	23102302 	subu	v0,s1,v1
80100868:	2a105300 	slt	v0,v0,s3
8010086c:	09004010 	beqz	v0,0x80100894
80100870:	21202002 	move	a0,s1
80100874:	21806000 	move	s0,v1
80100878:	3000a58f 	lw	a1,48(sp)
8010087c:	6c69020c 	jal	0x8009a5b0
80100880:	02003126 	addiu	s1,s1,2
80100884:	23103002 	subu	v0,s1,s0
80100888:	2a105300 	slt	v0,v0,s3
8010088c:	faff4014 	bnez	v0,0x80100878
80100890:	21202002 	move	a0,s1
80100894:	feff3126 	addiu	s1,s1,-2
80100898:	1000a327 	addiu	v1,sp,16
8010089c:	2b102302 	sltu	v0,s1,v1
801008a0:	0c004014 	bnez	v0,0x801008d4
801008a4:	0c80023c 	lui	v0,0x800c
801008a8:	00002292 	lbu	v0,0(s1)
801008ac:	00000000 	nop
801008b0:	000042a2 	sb	v0,0(s2)
801008b4:	01005226 	addiu	s2,s2,1
801008b8:	01002292 	lbu	v0,1(s1)
801008bc:	feff3126 	addiu	s1,s1,-2
801008c0:	000042a2 	sb	v0,0(s2)
801008c4:	2b102302 	sltu	v0,s1,v1
801008c8:	f7ff4010 	beqz	v0,0x801008a8
801008cc:	01005226 	addiu	s2,s2,1
801008d0:	0c80023c 	lui	v0,0x800c
801008d4:	78f8428c 	lw	v0,-1928(v0)
801008d8:	8888033c 	lui	v1,0x8888
801008dc:	89886334 	ori	v1,v1,0x8889
801008e0:	19004300 	multu	v0,v1
801008e4:	10400000 	mfhi	t0
801008e8:	02210800 	srl	a0,t0,0x4
801008ec:	00000000 	nop
801008f0:	19008300 	multu	a0,v1
801008f4:	2a00d226 	addiu	s2,s6,42
801008f8:	02001324 	li	s3,2
801008fc:	3000a627 	addiu	a2,sp,48
80100900:	1980023c 	lui	v0,0x8019
80100904:	2ca04524 	addiu	a1,v0,-24532
80100908:	2000a724 	addiu	a3,a1,32
8010090c:	10400000 	mfhi	t0
80100910:	42190800 	srl	v1,t0,0x5
80100914:	00110300 	sll	v0,v1,0x4
80100918:	23104300 	subu	v0,v0,v1
8010091c:	04106202 	sllv	v0,v0,s3
80100920:	23188200 	subu	v1,a0,v0
80100924:	0000a98c 	lw	t1,0(a1)
80100928:	0400aa8c 	lw	t2,4(a1)
8010092c:	0800ab8c 	lw	t3,8(a1)
80100930:	0c00a88c 	lw	t0,12(a1)
80100934:	0000c9ac 	sw	t1,0(a2)
80100938:	0400caac 	sw	t2,4(a2)
8010093c:	0800cbac 	sw	t3,8(a2)
80100940:	0c00c8ac 	sw	t0,12(a2)
80100944:	1000a524 	addiu	a1,a1,16
80100948:	f6ffa714 	bne	a1,a3,0x80100924
8010094c:	1000c624 	addiu	a2,a2,16
80100950:	0000a98c 	lw	t1,0(a1)
80100954:	0400aa8c 	lw	t2,4(a1)
80100958:	0000c9ac 	sw	t1,0(a2)
8010095c:	0400caac 	sw	t2,4(a2)
80100960:	1000b127 	addiu	s1,sp,16
80100964:	6666153c 	lui	s5,0x6666
80100968:	6766b536 	ori	s5,s5,0x6667
8010096c:	3000b427 	addiu	s4,sp,48
80100970:	18007500 	mult	v1,s5
80100974:	21202002 	move	a0,s1
80100978:	c3170300 	sra	v0,v1,0x1f
8010097c:	10400000 	mfhi	t0
80100980:	83800800 	sra	s0,t0,0x2
80100984:	23800202 	subu	s0,s0,v0
80100988:	80101000 	sll	v0,s0,0x2
8010098c:	21105000 	addu	v0,v0,s0
80100990:	40100200 	sll	v0,v0,0x1
80100994:	23106200 	subu	v0,v1,v0
80100998:	80100200 	sll	v0,v0,0x2
8010099c:	21108202 	addu	v0,s4,v0
801009a0:	0000458c 	lw	a1,0(v0)
801009a4:	6c69020c 	jal	0x8009a5b0
801009a8:	02003126 	addiu	s1,s1,2
801009ac:	21180002 	move	v1,s0
801009b0:	f0ff6014 	bnez	v1,0x80100974
801009b4:	18007500 	mult	v1,s5
801009b8:	40981300 	sll	s3,s3,0x1
801009bc:	1000a327 	addiu	v1,sp,16
801009c0:	23102302 	subu	v0,s1,v1
801009c4:	2a105300 	slt	v0,v0,s3
801009c8:	09004010 	beqz	v0,0x801009f0
801009cc:	21202002 	move	a0,s1
801009d0:	21806000 	move	s0,v1
801009d4:	3000a58f 	lw	a1,48(sp)
801009d8:	6c69020c 	jal	0x8009a5b0
801009dc:	02003126 	addiu	s1,s1,2
801009e0:	23103002 	subu	v0,s1,s0
801009e4:	2a105300 	slt	v0,v0,s3
801009e8:	faff4014 	bnez	v0,0x801009d4
801009ec:	21202002 	move	a0,s1
801009f0:	feff3126 	addiu	s1,s1,-2
801009f4:	1000a327 	addiu	v1,sp,16
801009f8:	2b102302 	sltu	v0,s1,v1
801009fc:	0b004014 	bnez	v0,0x80100a2c
80100a00:	00000000 	nop
80100a04:	00002292 	lbu	v0,0(s1)
80100a08:	00000000 	nop
80100a0c:	000042a2 	sb	v0,0(s2)
80100a10:	01005226 	addiu	s2,s2,1
80100a14:	01002292 	lbu	v0,1(s1)
80100a18:	feff3126 	addiu	s1,s1,-2
80100a1c:	000042a2 	sb	v0,0(s2)
80100a20:	2b102302 	sltu	v0,s1,v1
80100a24:	f7ff4010 	beqz	v0,0x80100a04
80100a28:	01005226 	addiu	s2,s2,1
80100a2c:	3000d226 	addiu	s2,s6,48
80100a30:	0c80023c 	lui	v0,0x800c
80100a34:	aaf84384 	lh	v1,-1878(v0)
80100a38:	03001324 	li	s3,3
80100a3c:	3000a427 	addiu	a0,sp,48
80100a40:	1980023c 	lui	v0,0x8019
80100a44:	2ca04224 	addiu	v0,v0,-24532
80100a48:	20004524 	addiu	a1,v0,32
80100a4c:	0000498c 	lw	t1,0(v0)
80100a50:	04004a8c 	lw	t2,4(v0)
80100a54:	08004b8c 	lw	t3,8(v0)
80100a58:	0c00488c 	lw	t0,12(v0)
80100a5c:	000089ac 	sw	t1,0(a0)
80100a60:	04008aac 	sw	t2,4(a0)
80100a64:	08008bac 	sw	t3,8(a0)
80100a68:	0c0088ac 	sw	t0,12(a0)
80100a6c:	10004224 	addiu	v0,v0,16
80100a70:	f6ff4514 	bne	v0,a1,0x80100a4c
80100a74:	10008424 	addiu	a0,a0,16
80100a78:	0000498c 	lw	t1,0(v0)
80100a7c:	04004a8c 	lw	t2,4(v0)
80100a80:	000089ac 	sw	t1,0(a0)
80100a84:	04008aac 	sw	t2,4(a0)
80100a88:	1000b127 	addiu	s1,sp,16
80100a8c:	6666153c 	lui	s5,0x6666
80100a90:	6766b536 	ori	s5,s5,0x6667
80100a94:	3000b427 	addiu	s4,sp,48
80100a98:	18007500 	mult	v1,s5
80100a9c:	21202002 	move	a0,s1
80100aa0:	c3170300 	sra	v0,v1,0x1f
80100aa4:	10400000 	mfhi	t0
80100aa8:	83800800 	sra	s0,t0,0x2
80100aac:	23800202 	subu	s0,s0,v0
80100ab0:	80101000 	sll	v0,s0,0x2
80100ab4:	21105000 	addu	v0,v0,s0
80100ab8:	40100200 	sll	v0,v0,0x1
80100abc:	23106200 	subu	v0,v1,v0
80100ac0:	80100200 	sll	v0,v0,0x2
80100ac4:	21108202 	addu	v0,s4,v0
80100ac8:	0000458c 	lw	a1,0(v0)
80100acc:	6c69020c 	jal	0x8009a5b0
80100ad0:	02003126 	addiu	s1,s1,2
80100ad4:	21180002 	move	v1,s0
80100ad8:	f0ff6014 	bnez	v1,0x80100a9c
80100adc:	18007500 	mult	v1,s5
80100ae0:	40981300 	sll	s3,s3,0x1
80100ae4:	1000a327 	addiu	v1,sp,16
80100ae8:	23102302 	subu	v0,s1,v1
80100aec:	2a105300 	slt	v0,v0,s3
80100af0:	09004010 	beqz	v0,0x80100b18
80100af4:	21202002 	move	a0,s1
80100af8:	21806000 	move	s0,v1
80100afc:	3000a58f 	lw	a1,48(sp)
80100b00:	6c69020c 	jal	0x8009a5b0
80100b04:	02003126 	addiu	s1,s1,2
80100b08:	23103002 	subu	v0,s1,s0
80100b0c:	2a105300 	slt	v0,v0,s3
80100b10:	faff4014 	bnez	v0,0x80100afc
80100b14:	21202002 	move	a0,s1
80100b18:	feff3126 	addiu	s1,s1,-2
80100b1c:	1000a327 	addiu	v1,sp,16
80100b20:	2b102302 	sltu	v0,s1,v1
80100b24:	0b004014 	bnez	v0,0x80100b54
80100b28:	00000000 	nop
80100b2c:	00002292 	lbu	v0,0(s1)
80100b30:	00000000 	nop
80100b34:	000042a2 	sb	v0,0(s2)
80100b38:	01005226 	addiu	s2,s2,1
80100b3c:	01002292 	lbu	v0,1(s1)
80100b40:	feff3126 	addiu	s1,s1,-2
80100b44:	000042a2 	sb	v0,0(s2)
80100b48:	2b102302 	sltu	v0,s1,v1
80100b4c:	f7ff4010 	beqz	v0,0x80100b2c
80100b50:	01005226 	addiu	s2,s2,1
80100b54:	3800d226 	addiu	s2,s6,56
80100b58:	0c80023c 	lui	v0,0x800c
80100b5c:	a8f84384 	lh	v1,-1880(v0)
80100b60:	03001324 	li	s3,3
80100b64:	3000a427 	addiu	a0,sp,48
80100b68:	1980023c 	lui	v0,0x8019
80100b6c:	2ca04224 	addiu	v0,v0,-24532
80100b70:	20004524 	addiu	a1,v0,32
80100b74:	0000498c 	lw	t1,0(v0)
80100b78:	04004a8c 	lw	t2,4(v0)
80100b7c:	08004b8c 	lw	t3,8(v0)
80100b80:	0c00488c 	lw	t0,12(v0)
80100b84:	000089ac 	sw	t1,0(a0)
80100b88:	04008aac 	sw	t2,4(a0)
80100b8c:	08008bac 	sw	t3,8(a0)
80100b90:	0c0088ac 	sw	t0,12(a0)
80100b94:	10004224 	addiu	v0,v0,16
80100b98:	f6ff4514 	bne	v0,a1,0x80100b74
80100b9c:	10008424 	addiu	a0,a0,16
80100ba0:	0000498c 	lw	t1,0(v0)
80100ba4:	04004a8c 	lw	t2,4(v0)
80100ba8:	000089ac 	sw	t1,0(a0)
80100bac:	04008aac 	sw	t2,4(a0)
80100bb0:	1000b127 	addiu	s1,sp,16
80100bb4:	6666153c 	lui	s5,0x6666
80100bb8:	6766b536 	ori	s5,s5,0x6667
80100bbc:	3000b427 	addiu	s4,sp,48
80100bc0:	18007500 	mult	v1,s5
80100bc4:	21202002 	move	a0,s1
80100bc8:	c3170300 	sra	v0,v1,0x1f
80100bcc:	10400000 	mfhi	t0
80100bd0:	83800800 	sra	s0,t0,0x2
80100bd4:	23800202 	subu	s0,s0,v0
80100bd8:	80101000 	sll	v0,s0,0x2
80100bdc:	21105000 	addu	v0,v0,s0
80100be0:	40100200 	sll	v0,v0,0x1
80100be4:	23106200 	subu	v0,v1,v0
80100be8:	80100200 	sll	v0,v0,0x2
80100bec:	21108202 	addu	v0,s4,v0
80100bf0:	0000458c 	lw	a1,0(v0)
80100bf4:	6c69020c 	jal	0x8009a5b0
80100bf8:	02003126 	addiu	s1,s1,2
80100bfc:	21180002 	move	v1,s0
80100c00:	f0ff6014 	bnez	v1,0x80100bc4
80100c04:	18007500 	mult	v1,s5
80100c08:	40981300 	sll	s3,s3,0x1
80100c0c:	1000a327 	addiu	v1,sp,16
80100c10:	23102302 	subu	v0,s1,v1
80100c14:	2a105300 	slt	v0,v0,s3
80100c18:	09004010 	beqz	v0,0x80100c40
80100c1c:	21202002 	move	a0,s1
80100c20:	21806000 	move	s0,v1
80100c24:	3000a58f 	lw	a1,48(sp)
80100c28:	6c69020c 	jal	0x8009a5b0
80100c2c:	02003126 	addiu	s1,s1,2
80100c30:	23103002 	subu	v0,s1,s0
80100c34:	2a105300 	slt	v0,v0,s3
80100c38:	faff4014 	bnez	v0,0x80100c24
80100c3c:	21202002 	move	a0,s1
80100c40:	feff3126 	addiu	s1,s1,-2
80100c44:	1000a327 	addiu	v1,sp,16
80100c48:	2b102302 	sltu	v0,s1,v1
80100c4c:	0b004014 	bnez	v0,0x80100c7c
80100c50:	00000000 	nop
80100c54:	00002292 	lbu	v0,0(s1)
80100c58:	00000000 	nop
80100c5c:	000042a2 	sb	v0,0(s2)
80100c60:	01005226 	addiu	s2,s2,1
80100c64:	01002292 	lbu	v0,1(s1)
80100c68:	feff3126 	addiu	s1,s1,-2
80100c6c:	000042a2 	sb	v0,0(s2)
80100c70:	2b102302 	sltu	v0,s1,v1
80100c74:	f7ff4010 	beqz	v0,0x80100c54
80100c78:	01005226 	addiu	s2,s2,1
80100c7c:	0b000324 	li	v1,11
80100c80:	2110c302 	addu	v0,s6,v1
80100c84:	440040a0 	sb	zero,68(v0)
80100c88:	ffff6324 	addiu	v1,v1,-1
80100c8c:	fdff6104 	bgez	v1,0x80100c84
80100c90:	ffff4224 	addiu	v0,v0,-1
80100c94:	03000324 	li	v1,3
80100c98:	2120c302 	addu	a0,s6,v1
80100c9c:	21106000 	move	v0,v1
80100ca0:	5000c2a6 	sh	v0,80(s6)
80100ca4:	43000224 	li	v0,67
80100ca8:	5200c2a2 	sb	v0,82(s6)
80100cac:	52000224 	li	v0,82
80100cb0:	5300c2a2 	sb	v0,83(s6)
80100cb4:	44000224 	li	v0,68
80100cb8:	5400c2a2 	sb	v0,84(s6)
80100cbc:	30000224 	li	v0,48
80100cc0:	5500c2a2 	sb	v0,85(s6)
80100cc4:	5600c0a2 	sb	zero,86(s6)
80100cc8:	5700c0a2 	sb	zero,87(s6)
80100ccc:	580080a0 	sb	zero,88(a0)
80100cd0:	ffff6324 	addiu	v1,v1,-1
80100cd4:	fdff6104 	bgez	v1,0x80100ccc
80100cd8:	ffff8424 	addiu	a0,a0,-1
80100cdc:	8001c426 	addiu	a0,s6,384
80100ce0:	1980023c 	lui	v0,0x8019
80100ce4:	e4ff4324 	addiu	v1,v0,-28
80100ce8:	80006524 	addiu	a1,v1,128
80100cec:	1980023c 	lui	v0,0x8019
80100cf0:	5c00c0ae 	sw	zero,92(s6)
80100cf4:	c4fe4824 	addiu	t0,v0,-316
80100cf8:	0000098d 	lw	t1,0(t0)
80100cfc:	04000a8d 	lw	t2,4(t0)
80100d00:	08000b8d 	lw	t3,8(t0)
80100d04:	6000c9ae 	sw	t1,96(s6)
80100d08:	6400caae 	sw	t2,100(s6)
80100d0c:	6800cbae 	sw	t3,104(s6)
80100d10:	0c00098d 	lw	t1,12(t0)
80100d14:	10000a8d 	lw	t2,16(t0)
80100d18:	14000b8d 	lw	t3,20(t0)
80100d1c:	6c00c9ae 	sw	t1,108(s6)
80100d20:	7000caae 	sw	t2,112(s6)
80100d24:	7400cbae 	sw	t3,116(s6)
80100d28:	1800098d 	lw	t1,24(t0)
80100d2c:	1c000a8d 	lw	t2,28(t0)
80100d30:	7800c9ae 	sw	t1,120(s6)
80100d34:	7c00caae 	sw	t2,124(s6)
80100d38:	0000698c 	lw	t1,0(v1)
80100d3c:	04006a8c 	lw	t2,4(v1)
80100d40:	08006b8c 	lw	t3,8(v1)
80100d44:	0c00688c 	lw	t0,12(v1)
80100d48:	000089ac 	sw	t1,0(a0)
80100d4c:	04008aac 	sw	t2,4(a0)
80100d50:	08008bac 	sw	t3,8(a0)
80100d54:	0c0088ac 	sw	t0,12(a0)
80100d58:	10006324 	addiu	v1,v1,16
80100d5c:	f6ff6514 	bne	v1,a1,0x80100d38
80100d60:	10008424 	addiu	a0,a0,16
80100d64:	0001c326 	addiu	v1,s6,256
80100d68:	1980023c 	lui	v0,0x8019
80100d6c:	64ff4224 	addiu	v0,v0,-156
80100d70:	80004424 	addiu	a0,v0,128
80100d74:	0000498c 	lw	t1,0(v0)
80100d78:	04004a8c 	lw	t2,4(v0)
80100d7c:	08004b8c 	lw	t3,8(v0)
80100d80:	0c00488c 	lw	t0,12(v0)
80100d84:	000069ac 	sw	t1,0(v1)
80100d88:	04006aac 	sw	t2,4(v1)
80100d8c:	08006bac 	sw	t3,8(v1)
80100d90:	0c0068ac 	sw	t0,12(v1)
80100d94:	10004224 	addiu	v0,v0,16
80100d98:	f6ff4414 	bne	v0,a0,0x80100d74
80100d9c:	10006324 	addiu	v1,v1,16
80100da0:	8000c326 	addiu	v1,s6,128
80100da4:	1980023c 	lui	v0,0x8019
80100da8:	e4fe4224 	addiu	v0,v0,-284
80100dac:	80004424 	addiu	a0,v0,128
80100db0:	0000498c 	lw	t1,0(v0)
80100db4:	04004a8c 	lw	t2,4(v0)
80100db8:	08004b8c 	lw	t3,8(v0)
80100dbc:	0c00488c 	lw	t0,12(v0)
80100dc0:	000069ac 	sw	t1,0(v1)
80100dc4:	04006aac 	sw	t2,4(v1)
80100dc8:	08006bac 	sw	t3,8(v1)
80100dcc:	0c0068ac 	sw	t0,12(v1)
80100dd0:	10004224 	addiu	v0,v0,16
80100dd4:	f6ff4414 	bne	v0,a0,0x80100db0
80100dd8:	10006324 	addiu	v1,v1,16
80100ddc:	0003c326 	addiu	v1,s6,768
80100de0:	1980023c 	lui	v0,0x8019
80100de4:	64014224 	addiu	v0,v0,356
80100de8:	80004424 	addiu	a0,v0,128
80100dec:	0000498c 	lw	t1,0(v0)
80100df0:	04004a8c 	lw	t2,4(v0)
80100df4:	08004b8c 	lw	t3,8(v0)
80100df8:	0c00488c 	lw	t0,12(v0)
80100dfc:	000069ac 	sw	t1,0(v1)
80100e00:	04006aac 	sw	t2,4(v1)
80100e04:	08006bac 	sw	t3,8(v1)
80100e08:	0c0068ac 	sw	t0,12(v1)
80100e0c:	10004224 	addiu	v0,v0,16
80100e10:	f6ff4414 	bne	v0,a0,0x80100dec
80100e14:	10006324 	addiu	v1,v1,16
80100e18:	8002c326 	addiu	v1,s6,640
80100e1c:	1980023c 	lui	v0,0x8019
80100e20:	e4004224 	addiu	v0,v0,228
80100e24:	80004424 	addiu	a0,v0,128
80100e28:	0000498c 	lw	t1,0(v0)
80100e2c:	04004a8c 	lw	t2,4(v0)
80100e30:	08004b8c 	lw	t3,8(v0)
80100e34:	0c00488c 	lw	t0,12(v0)
80100e38:	000069ac 	sw	t1,0(v1)
80100e3c:	04006aac 	sw	t2,4(v1)
80100e40:	08006bac 	sw	t3,8(v1)
80100e44:	0c0068ac 	sw	t0,12(v1)
80100e48:	10004224 	addiu	v0,v0,16
80100e4c:	f6ff4414 	bne	v0,a0,0x80100e28
80100e50:	10006324 	addiu	v1,v1,16
80100e54:	0002c426 	addiu	a0,s6,512
80100e58:	1980023c 	lui	v0,0x8019
80100e5c:	64004224 	addiu	v0,v0,100
80100e60:	80004324 	addiu	v1,v0,128
80100e64:	0000498c 	lw	t1,0(v0)
80100e68:	04004a8c 	lw	t2,4(v0)
80100e6c:	08004b8c 	lw	t3,8(v0)
80100e70:	0c00488c 	lw	t0,12(v0)
80100e74:	000089ac 	sw	t1,0(a0)
80100e78:	04008aac 	sw	t2,4(a0)
80100e7c:	08008bac 	sw	t3,8(a0)
80100e80:	0c0088ac 	sw	t0,12(a0)
80100e84:	10004224 	addiu	v0,v0,16
80100e88:	f6ff4314 	bne	v0,v1,0x80100e64
80100e8c:	10008424 	addiu	a0,a0,16
80100e90:	7400bf8f 	lw	ra,116(sp)
80100e94:	7000b68f 	lw	s6,112(sp)
80100e98:	6c00b58f 	lw	s5,108(sp)
80100e9c:	6800b48f 	lw	s4,104(sp)
80100ea0:	6400b38f 	lw	s3,100(sp)
80100ea4:	6000b28f 	lw	s2,96(sp)
80100ea8:	5c00b18f 	lw	s1,92(sp)
80100eac:	5800b08f 	lw	s0,88(sp)
80100eb0:	0800e003 	jr	ra
80100eb4:	7800bd27 	addiu	sp,sp,120
80100eb8:	b8ffbd27 	addiu	sp,sp,-72
80100ebc:	3c00b1af 	sw	s1,60(sp)
80100ec0:	21888000 	move	s1,a0
80100ec4:	3800b0af 	sw	s0,56(sp)
80100ec8:	2180c000 	move	s0,a2
80100ecc:	ff00a530 	andi	a1,a1,0xff
80100ed0:	ff000224 	li	v0,255
80100ed4:	4c00a210 	beq	a1,v0,0x80101008
80100ed8:	4000bfaf 	sw	ra,64(sp)
80100edc:	00000292 	lbu	v0,0(s0)
80100ee0:	00000000 	nop
80100ee4:	0f00422c 	sltiu	v0,v0,15
80100ee8:	47004010 	beqz	v0,0x80101008
80100eec:	00310500 	sll	a2,a1,0x4
80100ef0:	1800a427 	addiu	a0,sp,24
80100ef4:	1980053c 	lui	a1,0x8019
80100ef8:	90a0a524 	addiu	a1,a1,-24432
80100efc:	f000c630 	andi	a2,a2,0xf0
80100f00:	1980073c 	lui	a3,0x8019
80100f04:	00000292 	lbu	v0,0(s0)
80100f08:	a0a0e724 	addiu	a3,a3,-24416
80100f0c:	306c020c 	jal	0x8009b0c0
80100f10:	1000a2af 	sw	v0,16(sp)
80100f14:	02000292 	lbu	v0,2(s0)
80100f18:	00000000 	nop
80100f1c:	11004014 	bnez	v0,0x80100f64
80100f20:	03000224 	li	v0,3
80100f24:	1800a427 	addiu	a0,sp,24
80100f28:	0100053c 	lui	a1,0x1
80100f2c:	2c02020c 	jal	0x800808b0
80100f30:	0002a534 	ori	a1,a1,0x200
80100f34:	21204000 	move	a0,v0
80100f38:	0c80023c 	lui	v0,0x800c
80100f3c:	9cf444ac 	sw	a0,-2916(v0)
80100f40:	ffff0224 	li	v0,-1
80100f44:	2c008210 	beq	a0,v0,0x80100ff8
80100f48:	00000000 	nop
80100f4c:	3c02020c 	jal	0x800808f0
80100f50:	00000000 	nop
80100f54:	01000224 	li	v0,1
80100f58:	020002a2 	sb	v0,2(s0)
80100f5c:	032c0608 	j	0x8018b00c
80100f60:	02000224 	li	v0,2
80100f64:	7e0922a2 	sb	v0,2430(s1)
80100f68:	80032426 	addiu	a0,s1,896
80100f6c:	21280000 	move	a1,zero
80100f70:	fe050324 	li	v1,1534
80100f74:	00008290 	lbu	v0,0(a0)
80100f78:	01008424 	addiu	a0,a0,1
80100f7c:	ffff6324 	addiu	v1,v1,-1
80100f80:	2610a200 	xor	v0,a1,v0
80100f84:	fbff6104 	bgez	v1,0x80100f74
80100f88:	21284000 	move	a1,v0
80100f8c:	1800a427 	addiu	a0,sp,24
80100f90:	02800534 	li	a1,0x8002
80100f94:	2c02020c 	jal	0x800808b0
80100f98:	7f0922a2 	sb	v0,2431(s1)
80100f9c:	0c80033c 	lui	v1,0x800c
80100fa0:	98f47024 	addiu	s0,v1,-2920
80100fa4:	ffff0324 	li	v1,-1
80100fa8:	13004310 	beq	v0,v1,0x80100ff8
80100fac:	040002ae 	sw	v0,4(s0)
80100fb0:	1c00048e 	lw	a0,28(s0)
80100fb4:	1002020c 	jal	0x80080840
80100fb8:	00000000 	nop
80100fbc:	2000048e 	lw	a0,32(s0)
80100fc0:	1002020c 	jal	0x80080840
80100fc4:	00000000 	nop
80100fc8:	2400048e 	lw	a0,36(s0)
80100fcc:	1002020c 	jal	0x80080840
80100fd0:	00000000 	nop
80100fd4:	2800048e 	lw	a0,40(s0)
80100fd8:	1002020c 	jal	0x80080840
80100fdc:	00000000 	nop
80100fe0:	21282002 	move	a1,s1
80100fe4:	0400048e 	lw	a0,4(s0)
80100fe8:	3802020c 	jal	0x800808e0
80100fec:	80090624 	li	a2,2432
80100ff0:	032c0608 	j	0x8018b00c
80100ff4:	01000224 	li	v0,1
80100ff8:	0c80023c 	lui	v0,0x800c
80100ffc:	9cf4448c 	lw	a0,-2916(v0)
80101000:	3c02020c 	jal	0x800808f0
80101004:	00000000 	nop
80101008:	21100000 	move	v0,zero
8010100c:	4000bf8f 	lw	ra,64(sp)
80101010:	3c00b18f 	lw	s1,60(sp)
80101014:	3800b08f 	lw	s0,56(sp)
80101018:	0800e003 	jr	ra
8010101c:	4800bd27 	addiu	sp,sp,72
80101020:	b0ffbd27 	addiu	sp,sp,-80
80101024:	3c00b1af 	sw	s1,60(sp)
80101028:	21888000 	move	s1,a0
8010102c:	4c00bfaf 	sw	ra,76(sp)
80101030:	4800b4af 	sw	s4,72(sp)
80101034:	4400b3af 	sw	s3,68(sp)
80101038:	4000b2af 	sw	s2,64(sp)
8010103c:	3800b0af 	sw	s0,56(sp)
80101040:	51002292 	lbu	v0,81(s1)
80101044:	21200000 	move	a0,zero
80101048:	01004324 	addiu	v1,v0,1
8010104c:	ff004230 	andi	v0,v0,0xff
80101050:	0700422c 	sltiu	v0,v0,7
80101054:	4b004014 	bnez	v0,0x80101184
80101058:	510023a2 	sb	v1,81(s1)
8010105c:	ff000324 	li	v1,255
80101060:	46002292 	lbu	v0,70(s1)
80101064:	0800268e 	lw	a2,8(s1)
80101068:	26004310 	beq	v0,v1,0x80101104
8010106c:	1980053c 	lui	a1,0x8019
80101070:	1800a427 	addiu	a0,sp,24
80101074:	90a0a524 	addiu	a1,a1,-24432
80101078:	21988000 	move	s3,a0
8010107c:	21800000 	move	s0,zero
80101080:	ffff1224 	li	s2,-1
80101084:	1980073c 	lui	a3,0x8019
80101088:	47002392 	lbu	v1,71(s1)
8010108c:	a0a0e724 	addiu	a3,a3,-24416
80101090:	00110300 	sll	v0,v1,0x4
80101094:	23104300 	subu	v0,v0,v1
80101098:	80100200 	sll	v0,v0,0x2
8010109c:	2110c200 	addu	v0,a2,v0
801010a0:	46002692 	lbu	a2,70(s1)
801010a4:	04004290 	lbu	v0,4(v0)
801010a8:	00310600 	sll	a2,a2,0x4
801010ac:	306c020c 	jal	0x8009b0c0
801010b0:	1000a2af 	sw	v0,16(sp)
801010b4:	1400348e 	lw	s4,20(s1)
801010b8:	21206002 	move	a0,s3
801010bc:	2c02020c 	jal	0x800808b0
801010c0:	01800534 	li	a1,0x8001
801010c4:	0a005210 	beq	v0,s2,0x801010f0
801010c8:	040022ae 	sw	v0,4(s1)
801010cc:	21204000 	move	a0,v0
801010d0:	80030524 	li	a1,896
801010d4:	3002020c 	jal	0x800808c0
801010d8:	21300000 	move	a2,zero
801010dc:	13005214 	bne	v0,s2,0x8010112c
801010e0:	00000000 	nop
801010e4:	0400248e 	lw	a0,4(s1)
801010e8:	3c02020c 	jal	0x800808f0
801010ec:	00000000 	nop
801010f0:	01001026 	addiu	s0,s0,1
801010f4:	0700022a 	slti	v0,s0,7
801010f8:	f0ff4014 	bnez	v0,0x801010bc
801010fc:	21206002 	move	a0,s3
80101100:	21200000 	move	a0,zero
80101104:	1d008014 	bnez	a0,0x8010117c
80101108:	03000224 	li	v0,3
8010110c:	46002592 	lbu	a1,70(s1)
80101110:	ea72000c 	jal	0x8001cba8
80101114:	21202002 	move	a0,s1
80101118:	02000224 	li	v0,2
8010111c:	3e0022a2 	sb	v0,62(s1)
80101120:	3f0020a2 	sb	zero,63(s1)
80101124:	612c0608 	j	0x8018b184
80101128:	400020a2 	sb	zero,64(s1)
8010112c:	0c80103c 	lui	s0,0x800c
80101130:	98f41026 	addiu	s0,s0,-2920
80101134:	1c00048e 	lw	a0,28(s0)
80101138:	1002020c 	jal	0x80080840
8010113c:	00000000 	nop
80101140:	2000048e 	lw	a0,32(s0)
80101144:	1002020c 	jal	0x80080840
80101148:	00000000 	nop
8010114c:	2400048e 	lw	a0,36(s0)
80101150:	1002020c 	jal	0x80080840
80101154:	00000000 	nop
80101158:	2800048e 	lw	a0,40(s0)
8010115c:	1002020c 	jal	0x80080840
80101160:	00000000 	nop
80101164:	21288002 	move	a1,s4
80101168:	0400248e 	lw	a0,4(s1)
8010116c:	3402020c 	jal	0x800808d0
80101170:	00060624 	li	a2,1536
80101174:	412c0608 	j	0x8018b104
80101178:	01000424 	li	a0,1
8010117c:	020020a2 	sb	zero,2(s1)
80101180:	3f0022a2 	sb	v0,63(s1)
80101184:	4c00bf8f 	lw	ra,76(sp)
80101188:	4800b48f 	lw	s4,72(sp)
8010118c:	4400b38f 	lw	s3,68(sp)
80101190:	4000b28f 	lw	s2,64(sp)
80101194:	3c00b18f 	lw	s1,60(sp)
80101198:	3800b08f 	lw	s0,56(sp)
8010119c:	0800e003 	jr	ra
801011a0:	5000bd27 	addiu	sp,sp,80
801011a4:	d8ffbd27 	addiu	sp,sp,-40
801011a8:	1800b2af 	sw	s2,24(sp)
801011ac:	21908000 	move	s2,a0
801011b0:	0c80023c 	lui	v0,0x800c
801011b4:	1400b1af 	sw	s1,20(sp)
801011b8:	98f45124 	addiu	s1,v0,-2920
801011bc:	2000bfaf 	sw	ra,32(sp)
801011c0:	1c00b3af 	sw	s3,28(sp)
801011c4:	1000b0af 	sw	s0,16(sp)
801011c8:	1c00248e 	lw	a0,28(s1)
801011cc:	1002020c 	jal	0x80080840
801011d0:	01001024 	li	s0,1
801011d4:	11005010 	beq	v0,s0,0x8010121c
801011d8:	21100002 	move	v0,s0
801011dc:	2000248e 	lw	a0,32(s1)
801011e0:	1002020c 	jal	0x80080840
801011e4:	00000000 	nop
801011e8:	0c005010 	beq	v0,s0,0x8010121c
801011ec:	02000224 	li	v0,2
801011f0:	2400248e 	lw	a0,36(s1)
801011f4:	1002020c 	jal	0x80080840
801011f8:	00000000 	nop
801011fc:	07005010 	beq	v0,s0,0x8010121c
80101200:	03000224 	li	v0,3
80101204:	2800248e 	lw	a0,40(s1)
80101208:	1002020c 	jal	0x80080840
8010120c:	00000000 	nop
80101210:	02005014 	bne	v0,s0,0x8010121c
80101214:	21100000 	move	v0,zero
80101218:	04000224 	li	v0,4
8010121c:	8f004010 	beqz	v0,0x8010145c
80101220:	3e0042a2 	sb	v0,62(s2)
80101224:	0400448e 	lw	a0,4(s2)
80101228:	3c02020c 	jal	0x800808f0
8010122c:	00000000 	nop
80101230:	3e004392 	lbu	v1,62(s2)
80101234:	01000224 	li	v0,1
80101238:	46006214 	bne	v1,v0,0x80101354
8010123c:	03000224 	li	v0,3
80101240:	1400448e 	lw	a0,20(s2)
80101244:	00000000 	nop
80101248:	fe058390 	lbu	v1,1534(a0)
8010124c:	00000000 	nop
80101250:	40006214 	bne	v1,v0,0x80101354
80101254:	21308000 	move	a2,a0
80101258:	21280000 	move	a1,zero
8010125c:	fe050324 	li	v1,1534
80101260:	00008290 	lbu	v0,0(a0)
80101264:	01008424 	addiu	a0,a0,1
80101268:	ffff6324 	addiu	v1,v1,-1
8010126c:	fcff6104 	bgez	v1,0x80101260
80101270:	2628a200 	xor	a1,a1,v0
80101274:	ff05c390 	lbu	v1,1535(a2)
80101278:	ff00a230 	andi	v0,a1,0xff
8010127c:	35006214 	bne	v1,v0,0x80101354
80101280:	0c80043c 	lui	a0,0x800c
80101284:	70f88224 	addiu	v0,a0,-1936
80101288:	21304000 	move	a2,v0
8010128c:	801f023c 	lui	v0,0x1f80
80101290:	1400458e 	lw	a1,20(s2)
80101294:	70f88490 	lbu	a0,-1936(a0)
80101298:	2518a600 	or	v1,a1,a2
8010129c:	03006330 	andi	v1,v1,0x3
801012a0:	ff0144a0 	sb	a0,511(v0)
801012a4:	e605c494 	lhu	a0,1510(a2)
801012a8:	801f023c 	lui	v0,0x1f80
801012ac:	17006010 	beqz	v1,0x8010130c
801012b0:	780244a4 	sh	a0,632(v0)
801012b4:	f005a224 	addiu	v0,a1,1520
801012b8:	0300a788 	lwl	a3,3(a1)
801012bc:	0000a798 	lwr	a3,0(a1)
801012c0:	0700a888 	lwl	t0,7(a1)
801012c4:	0400a898 	lwr	t0,4(a1)
801012c8:	0b00a988 	lwl	t1,11(a1)
801012cc:	0800a998 	lwr	t1,8(a1)
801012d0:	0f00aa88 	lwl	t2,15(a1)
801012d4:	0c00aa98 	lwr	t2,12(a1)
801012d8:	0300c7a8 	swl	a3,3(a2)
801012dc:	0000c7b8 	swr	a3,0(a2)
801012e0:	0700c8a8 	swl	t0,7(a2)
801012e4:	0400c8b8 	swr	t0,4(a2)
801012e8:	0b00c9a8 	swl	t1,11(a2)
801012ec:	0800c9b8 	swr	t1,8(a2)
801012f0:	0f00caa8 	swl	t2,15(a2)
801012f4:	0c00cab8 	swr	t2,12(a2)
801012f8:	1000a524 	addiu	a1,a1,16
801012fc:	eeffa214 	bne	a1,v0,0x801012b8
80101300:	1000c624 	addiu	a2,a2,16
80101304:	cf2c0608 	j	0x8018b33c
80101308:	00000000 	nop
8010130c:	f005a224 	addiu	v0,a1,1520
80101310:	0000a78c 	lw	a3,0(a1)
80101314:	0400a88c 	lw	t0,4(a1)
80101318:	0800a98c 	lw	t1,8(a1)
8010131c:	0c00aa8c 	lw	t2,12(a1)
80101320:	0000c7ac 	sw	a3,0(a2)
80101324:	0400c8ac 	sw	t0,4(a2)
80101328:	0800c9ac 	sw	t1,8(a2)
8010132c:	0c00caac 	sw	t2,12(a2)
80101330:	1000a524 	addiu	a1,a1,16
80101334:	f6ffa214 	bne	a1,v0,0x80101310
80101338:	1000c624 	addiu	a2,a2,16
8010133c:	0300a788 	lwl	a3,3(a1)
80101340:	0000a798 	lwr	a3,0(a1)
80101344:	00000000 	nop
80101348:	0300c7a8 	swl	a3,3(a2)
8010134c:	152d0608 	j	0x8018b454
80101350:	0000c7b8 	swr	a3,0(a2)
80101354:	46004292 	lbu	v0,70(s2)
80101358:	ff000524 	li	a1,255
8010135c:	02004510 	beq	v0,a1,0x80101368
80101360:	ff000424 	li	a0,255
80101364:	00210200 	sll	a0,v0,0x4
80101368:	3e004392 	lbu	v1,62(s2)
8010136c:	04000224 	li	v0,4
80101370:	29006214 	bne	v1,v0,0x80101418
80101374:	32000224 	li	v0,50
80101378:	ff009330 	andi	s3,a0,0xff
8010137c:	26006512 	beq	s3,a1,0x80101418
80101380:	0c80103c 	lui	s0,0x800c
80101384:	98f41026 	addiu	s0,s0,-2920
80101388:	2c00048e 	lw	a0,44(s0)
8010138c:	1002020c 	jal	0x80080840
80101390:	21880002 	move	s1,s0
80101394:	3000048e 	lw	a0,48(s0)
80101398:	1002020c 	jal	0x80080840
8010139c:	00000000 	nop
801013a0:	3400048e 	lw	a0,52(s0)
801013a4:	1002020c 	jal	0x80080840
801013a8:	01001024 	li	s0,1
801013ac:	3800248e 	lw	a0,56(s1)
801013b0:	1002020c 	jal	0x80080840
801013b4:	00000000 	nop
801013b8:	ac6e020c 	jal	0x8009bab0
801013bc:	21206002 	move	a0,s3
801013c0:	2c00248e 	lw	a0,44(s1)
801013c4:	1002020c 	jal	0x80080840
801013c8:	00000000 	nop
801013cc:	13005010 	beq	v0,s0,0x8010141c
801013d0:	00000000 	nop
801013d4:	3000248e 	lw	a0,48(s1)
801013d8:	1002020c 	jal	0x80080840
801013dc:	00000000 	nop
801013e0:	0e005010 	beq	v0,s0,0x8010141c
801013e4:	00000000 	nop
801013e8:	3400248e 	lw	a0,52(s1)
801013ec:	1002020c 	jal	0x80080840
801013f0:	00000000 	nop
801013f4:	09005010 	beq	v0,s0,0x8010141c
801013f8:	00000000 	nop
801013fc:	3800248e 	lw	a0,56(s1)
80101400:	1002020c 	jal	0x80080840
80101404:	00000000 	nop
80101408:	04005010 	beq	v0,s0,0x8010141c
8010140c:	00000000 	nop
80101410:	f02c0608 	j	0x8018b3c0
80101414:	00000000 	nop
80101418:	5a0042a2 	sb	v0,90(s2)
8010141c:	5a004292 	lbu	v0,90(s2)
80101420:	00000000 	nop
80101424:	01004224 	addiu	v0,v0,1
80101428:	5a0042a2 	sb	v0,90(s2)
8010142c:	ff004230 	andi	v0,v0,0xff
80101430:	3300422c 	sltiu	v0,v0,51
80101434:	06004010 	beqz	v0,0x80101450
80101438:	02000224 	li	v0,2
8010143c:	3e0040a2 	sb	zero,62(s2)
80101440:	510040a2 	sb	zero,81(s2)
80101444:	020040a2 	sb	zero,2(s2)
80101448:	172d0608 	j	0x8018b45c
8010144c:	3f0042a2 	sb	v0,63(s2)
80101450:	3e0042a2 	sb	v0,62(s2)
80101454:	3f0040a2 	sb	zero,63(s2)
80101458:	400040a2 	sb	zero,64(s2)
8010145c:	2000bf8f 	lw	ra,32(sp)
80101460:	1c00b38f 	lw	s3,28(sp)
80101464:	1800b28f 	lw	s2,24(sp)
80101468:	1400b18f 	lw	s1,20(sp)
8010146c:	1000b08f 	lw	s0,16(sp)
80101470:	0800e003 	jr	ra
80101474:	2800bd27 	addiu	sp,sp,40
80101478:	e0ffbd27 	addiu	sp,sp,-32
8010147c:	1000b0af 	sw	s0,16(sp)
80101480:	21808000 	move	s0,a0
80101484:	1800bfaf 	sw	ra,24(sp)
80101488:	1400b1af 	sw	s1,20(sp)
8010148c:	51000292 	lbu	v0,81(s0)
80101490:	00000000 	nop
80101494:	01004324 	addiu	v1,v0,1
80101498:	ff004230 	andi	v0,v0,0xff
8010149c:	0700422c 	sltiu	v0,v0,7
801014a0:	6a004014 	bnez	v0,0x8010164c
801014a4:	510003a2 	sb	v1,81(s0)
801014a8:	21280000 	move	a1,zero
801014ac:	1400048e 	lw	a0,20(s0)
801014b0:	0800118e 	lw	s1,8(s0)
801014b4:	0869020c 	jal	0x8009a420
801014b8:	80090624 	li	a2,2432
801014bc:	1400048e 	lw	a0,20(s0)
801014c0:	0a29060c 	jal	0x8018a428
801014c4:	00000000 	nop
801014c8:	0c80023c 	lui	v0,0x800c
801014cc:	70f84224 	addiu	v0,v0,-1936
801014d0:	7b0140a0 	sb	zero,379(v0)
801014d4:	1400038e 	lw	v1,20(s0)
801014d8:	21204000 	move	a0,v0
801014dc:	80036324 	addiu	v1,v1,896
801014e0:	25106400 	or	v0,v1,a0
801014e4:	03004230 	andi	v0,v0,0x3
801014e8:	16004010 	beqz	v0,0x80101544
801014ec:	f0058224 	addiu	v0,a0,1520
801014f0:	03008788 	lwl	a3,3(a0)
801014f4:	00008798 	lwr	a3,0(a0)
801014f8:	07008888 	lwl	t0,7(a0)
801014fc:	04008898 	lwr	t0,4(a0)
80101500:	0b008988 	lwl	t1,11(a0)
80101504:	08008998 	lwr	t1,8(a0)
80101508:	0f008a88 	lwl	t2,15(a0)
8010150c:	0c008a98 	lwr	t2,12(a0)
80101510:	030067a8 	swl	a3,3(v1)
80101514:	000067b8 	swr	a3,0(v1)
80101518:	070068a8 	swl	t0,7(v1)
8010151c:	040068b8 	swr	t0,4(v1)
80101520:	0b0069a8 	swl	t1,11(v1)
80101524:	080069b8 	swr	t1,8(v1)
80101528:	0f006aa8 	swl	t2,15(v1)
8010152c:	0c006ab8 	swr	t2,12(v1)
80101530:	10008424 	addiu	a0,a0,16
80101534:	eeff8214 	bne	a0,v0,0x801014f0
80101538:	10006324 	addiu	v1,v1,16
8010153c:	5c2d0608 	j	0x8018b570
80101540:	00000000 	nop
80101544:	0000878c 	lw	a3,0(a0)
80101548:	0400888c 	lw	t0,4(a0)
8010154c:	0800898c 	lw	t1,8(a0)
80101550:	0c008a8c 	lw	t2,12(a0)
80101554:	000067ac 	sw	a3,0(v1)
80101558:	040068ac 	sw	t0,4(v1)
8010155c:	080069ac 	sw	t1,8(v1)
80101560:	0c006aac 	sw	t2,12(v1)
80101564:	10008424 	addiu	a0,a0,16
80101568:	f6ff8214 	bne	a0,v0,0x80101544
8010156c:	10006324 	addiu	v1,v1,16
80101570:	03008788 	lwl	a3,3(a0)
80101574:	00008798 	lwr	a3,0(a0)
80101578:	00000000 	nop
8010157c:	030067a8 	swl	a3,3(v1)
80101580:	000067b8 	swr	a3,0(v1)
80101584:	1400048e 	lw	a0,20(s0)
80101588:	47000292 	lbu	v0,71(s0)
8010158c:	46000592 	lbu	a1,70(s0)
80101590:	00310200 	sll	a2,v0,0x4
80101594:	2330c200 	subu	a2,a2,v0
80101598:	80300600 	sll	a2,a2,0x2
8010159c:	0400c624 	addiu	a2,a2,4
801015a0:	ae2b060c 	jal	0x8018aeb8
801015a4:	21302602 	addu	a2,s1,a2
801015a8:	21184000 	move	v1,v0
801015ac:	01000224 	li	v0,1
801015b0:	1f006210 	beq	v1,v0,0x80101630
801015b4:	02006228 	slti	v0,v1,2
801015b8:	05004010 	beqz	v0,0x801015d0
801015bc:	02000224 	li	v0,2
801015c0:	07006010 	beqz	v1,0x801015e0
801015c4:	ff000224 	li	v0,255
801015c8:	932d0608 	j	0x8018b64c
801015cc:	00000000 	nop
801015d0:	1b006210 	beq	v1,v0,0x80101640
801015d4:	00000000 	nop
801015d8:	932d0608 	j	0x8018b64c
801015dc:	00000000 	nop
801015e0:	46000392 	lbu	v1,70(s0)
801015e4:	00000000 	nop
801015e8:	09006210 	beq	v1,v0,0x80101610
801015ec:	00000000 	nop
801015f0:	5a000292 	lbu	v0,90(s0)
801015f4:	00000000 	nop
801015f8:	01004224 	addiu	v0,v0,1
801015fc:	5a0002a2 	sb	v0,90(s0)
80101600:	ff004230 	andi	v0,v0,0xff
80101604:	0300422c 	sltiu	v0,v0,3
80101608:	0e004014 	bnez	v0,0x80101644
8010160c:	00000000 	nop
80101610:	46000592 	lbu	a1,70(s0)
80101614:	ea72000c 	jal	0x8001cba8
80101618:	21200002 	move	a0,s0
8010161c:	02000224 	li	v0,2
80101620:	3e0002a2 	sb	v0,62(s0)
80101624:	3f0000a2 	sb	zero,63(s0)
80101628:	932d0608 	j	0x8018b64c
8010162c:	400000a2 	sb	zero,64(s0)
80101630:	06000224 	li	v0,6
80101634:	020000a2 	sb	zero,2(s0)
80101638:	932d0608 	j	0x8018b64c
8010163c:	3f0002a2 	sb	v0,63(s0)
80101640:	5a0000a2 	sb	zero,90(s0)
80101644:	510000a2 	sb	zero,81(s0)
80101648:	020000a2 	sb	zero,2(s0)
8010164c:	1800bf8f 	lw	ra,24(sp)
80101650:	1400b18f 	lw	s1,20(sp)
80101654:	1000b08f 	lw	s0,16(sp)
80101658:	0800e003 	jr	ra
8010165c:	2000bd27 	addiu	sp,sp,32
80101660:	b0ffbd27 	addiu	sp,sp,-80
80101664:	3c00b1af 	sw	s1,60(sp)
80101668:	21888000 	move	s1,a0
8010166c:	4c00bfaf 	sw	ra,76(sp)
80101670:	4800b4af 	sw	s4,72(sp)
80101674:	4400b3af 	sw	s3,68(sp)
80101678:	4000b2af 	sw	s2,64(sp)
8010167c:	3800b0af 	sw	s0,56(sp)
80101680:	51002292 	lbu	v0,81(s1)
80101684:	21200000 	move	a0,zero
80101688:	01004324 	addiu	v1,v0,1
8010168c:	ff004230 	andi	v0,v0,0xff
80101690:	0700422c 	sltiu	v0,v0,7
80101694:	4b004014 	bnez	v0,0x801017c4
80101698:	510023a2 	sb	v1,81(s1)
8010169c:	ff000324 	li	v1,255
801016a0:	46002292 	lbu	v0,70(s1)
801016a4:	0800268e 	lw	a2,8(s1)
801016a8:	26004310 	beq	v0,v1,0x80101744
801016ac:	1980053c 	lui	a1,0x8019
801016b0:	1800a427 	addiu	a0,sp,24
801016b4:	90a0a524 	addiu	a1,a1,-24432
801016b8:	21988000 	move	s3,a0
801016bc:	21800000 	move	s0,zero
801016c0:	ffff1224 	li	s2,-1
801016c4:	1980073c 	lui	a3,0x8019
801016c8:	47002392 	lbu	v1,71(s1)
801016cc:	a0a0e724 	addiu	a3,a3,-24416
801016d0:	00110300 	sll	v0,v1,0x4
801016d4:	23104300 	subu	v0,v0,v1
801016d8:	80100200 	sll	v0,v0,0x2
801016dc:	2110c200 	addu	v0,a2,v0
801016e0:	46002692 	lbu	a2,70(s1)
801016e4:	04004290 	lbu	v0,4(v0)
801016e8:	00310600 	sll	a2,a2,0x4
801016ec:	306c020c 	jal	0x8009b0c0
801016f0:	1000a2af 	sw	v0,16(sp)
801016f4:	1400348e 	lw	s4,20(s1)
801016f8:	21206002 	move	a0,s3
801016fc:	2c02020c 	jal	0x800808b0
80101700:	01800534 	li	a1,0x8001
80101704:	0a005210 	beq	v0,s2,0x80101730
80101708:	040022ae 	sw	v0,4(s1)
8010170c:	21204000 	move	a0,v0
80101710:	80030524 	li	a1,896
80101714:	3002020c 	jal	0x800808c0
80101718:	21300000 	move	a2,zero
8010171c:	13005214 	bne	v0,s2,0x8010176c
80101720:	00000000 	nop
80101724:	0400248e 	lw	a0,4(s1)
80101728:	3c02020c 	jal	0x800808f0
8010172c:	00000000 	nop
80101730:	01001026 	addiu	s0,s0,1
80101734:	0700022a 	slti	v0,s0,7
80101738:	f0ff4014 	bnez	v0,0x801016fc
8010173c:	21206002 	move	a0,s3
80101740:	21200000 	move	a0,zero
80101744:	1d008014 	bnez	a0,0x801017bc
80101748:	09000224 	li	v0,9
8010174c:	46002592 	lbu	a1,70(s1)
80101750:	ea72000c 	jal	0x8001cba8
80101754:	21202002 	move	a0,s1
80101758:	02000224 	li	v0,2
8010175c:	3e0022a2 	sb	v0,62(s1)
80101760:	3f0020a2 	sb	zero,63(s1)
80101764:	f12d0608 	j	0x8018b7c4
80101768:	400020a2 	sb	zero,64(s1)
8010176c:	0c80103c 	lui	s0,0x800c
80101770:	98f41026 	addiu	s0,s0,-2920
80101774:	1c00048e 	lw	a0,28(s0)
80101778:	1002020c 	jal	0x80080840
8010177c:	00000000 	nop
80101780:	2000048e 	lw	a0,32(s0)
80101784:	1002020c 	jal	0x80080840
80101788:	00000000 	nop
8010178c:	2400048e 	lw	a0,36(s0)
80101790:	1002020c 	jal	0x80080840
80101794:	00000000 	nop
80101798:	2800048e 	lw	a0,40(s0)
8010179c:	1002020c 	jal	0x80080840
801017a0:	00000000 	nop
801017a4:	21288002 	move	a1,s4
801017a8:	0400248e 	lw	a0,4(s1)
801017ac:	3402020c 	jal	0x800808d0
801017b0:	00060624 	li	a2,1536
801017b4:	d12d0608 	j	0x8018b744
801017b8:	01000424 	li	a0,1
801017bc:	020020a2 	sb	zero,2(s1)
801017c0:	3f0022a2 	sb	v0,63(s1)
801017c4:	4c00bf8f 	lw	ra,76(sp)
801017c8:	4800b48f 	lw	s4,72(sp)
801017cc:	4400b38f 	lw	s3,68(sp)
801017d0:	4000b28f 	lw	s2,64(sp)
801017d4:	3c00b18f 	lw	s1,60(sp)
801017d8:	3800b08f 	lw	s0,56(sp)
801017dc:	0800e003 	jr	ra
801017e0:	5000bd27 	addiu	sp,sp,80
801017e4:	b0ffbd27 	addiu	sp,sp,-80
801017e8:	4000b2af 	sw	s2,64(sp)
801017ec:	21908000 	move	s2,a0
801017f0:	0c80023c 	lui	v0,0x800c
801017f4:	3c00b1af 	sw	s1,60(sp)
801017f8:	98f45124 	addiu	s1,v0,-2920
801017fc:	4c00bfaf 	sw	ra,76(sp)
80101800:	4800b4af 	sw	s4,72(sp)
80101804:	4400b3af 	sw	s3,68(sp)
80101808:	3800b0af 	sw	s0,56(sp)
8010180c:	1c00248e 	lw	a0,28(s1)
80101810:	1002020c 	jal	0x80080840
80101814:	01001024 	li	s0,1
80101818:	11005010 	beq	v0,s0,0x80101860
8010181c:	21100002 	move	v0,s0
80101820:	2000248e 	lw	a0,32(s1)
80101824:	1002020c 	jal	0x80080840
80101828:	00000000 	nop
8010182c:	0c005010 	beq	v0,s0,0x80101860
80101830:	02000224 	li	v0,2
80101834:	2400248e 	lw	a0,36(s1)
80101838:	1002020c 	jal	0x80080840
8010183c:	00000000 	nop
80101840:	07005010 	beq	v0,s0,0x80101860
80101844:	03000224 	li	v0,3
80101848:	2800248e 	lw	a0,40(s1)
8010184c:	1002020c 	jal	0x80080840
80101850:	00000000 	nop
80101854:	02005014 	bne	v0,s0,0x80101860
80101858:	21100000 	move	v0,zero
8010185c:	04000224 	li	v0,4
80101860:	79004010 	beqz	v0,0x80101a48
80101864:	3e0042a2 	sb	v0,62(s2)
80101868:	0400448e 	lw	a0,4(s2)
8010186c:	0800548e 	lw	s4,8(s2)
80101870:	3c02020c 	jal	0x800808f0
80101874:	00000000 	nop
80101878:	3e004392 	lbu	v1,62(s2)
8010187c:	01000224 	li	v0,1
80101880:	12006214 	bne	v1,v0,0x801018cc
80101884:	03000224 	li	v0,3
80101888:	1400448e 	lw	a0,20(s2)
8010188c:	00000000 	nop
80101890:	fe058390 	lbu	v1,1534(a0)
80101894:	00000000 	nop
80101898:	0c006214 	bne	v1,v0,0x801018cc
8010189c:	21308000 	move	a2,a0
801018a0:	21280000 	move	a1,zero
801018a4:	fe050324 	li	v1,1534
801018a8:	00008290 	lbu	v0,0(a0)
801018ac:	01008424 	addiu	a0,a0,1
801018b0:	ffff6324 	addiu	v1,v1,-1
801018b4:	fcff6104 	bgez	v1,0x801018a8
801018b8:	2628a200 	xor	a1,a1,v0
801018bc:	ff05c390 	lbu	v1,1535(a2)
801018c0:	ff00a230 	andi	v0,a1,0xff
801018c4:	5e006210 	beq	v1,v0,0x80101a40
801018c8:	00000000 	nop
801018cc:	46004292 	lbu	v0,70(s2)
801018d0:	ff000324 	li	v1,255
801018d4:	02004310 	beq	v0,v1,0x801018e0
801018d8:	ff001324 	li	s3,255
801018dc:	00990200 	sll	s3,v0,0x4
801018e0:	ff006232 	andi	v0,s3,0xff
801018e4:	4f004310 	beq	v0,v1,0x80101a24
801018e8:	02000224 	li	v0,2
801018ec:	5b004492 	lbu	a0,91(s2)
801018f0:	3e004392 	lbu	v1,62(s2)
801018f4:	0f008230 	andi	v0,a0,0xf
801018f8:	03004314 	bne	v0,v1,0x80101908
801018fc:	10008224 	addiu	v0,a0,16
80101900:	432e0608 	j	0x8018b90c
80101904:	5b0042a2 	sb	v0,91(s2)
80101908:	5b0043a2 	sb	v1,91(s2)
8010190c:	3e004392 	lbu	v1,62(s2)
80101910:	04000224 	li	v0,4
80101914:	2a006214 	bne	v1,v0,0x801019c0
80101918:	ff006632 	andi	a2,s3,0xff
8010191c:	0c80103c 	lui	s0,0x800c
80101920:	98f41026 	addiu	s0,s0,-2920
80101924:	2c00048e 	lw	a0,44(s0)
80101928:	1002020c 	jal	0x80080840
8010192c:	21880002 	move	s1,s0
80101930:	3000048e 	lw	a0,48(s0)
80101934:	1002020c 	jal	0x80080840
80101938:	00000000 	nop
8010193c:	3400048e 	lw	a0,52(s0)
80101940:	1002020c 	jal	0x80080840
80101944:	01001024 	li	s0,1
80101948:	3800248e 	lw	a0,56(s1)
8010194c:	1002020c 	jal	0x80080840
80101950:	00000000 	nop
80101954:	ac6e020c 	jal	0x8009bab0
80101958:	ff006432 	andi	a0,s3,0xff
8010195c:	2c00248e 	lw	a0,44(s1)
80101960:	1002020c 	jal	0x80080840
80101964:	00000000 	nop
80101968:	10005010 	beq	v0,s0,0x801019ac
8010196c:	00000000 	nop
80101970:	3000248e 	lw	a0,48(s1)
80101974:	1002020c 	jal	0x80080840
80101978:	00000000 	nop
8010197c:	0b005010 	beq	v0,s0,0x801019ac
80101980:	00000000 	nop
80101984:	3400248e 	lw	a0,52(s1)
80101988:	1002020c 	jal	0x80080840
8010198c:	00000000 	nop
80101990:	06005010 	beq	v0,s0,0x801019ac
80101994:	00000000 	nop
80101998:	3800248e 	lw	a0,56(s1)
8010199c:	1002020c 	jal	0x80080840
801019a0:	00000000 	nop
801019a4:	edff5014 	bne	v0,s0,0x8010195c
801019a8:	00000000 	nop
801019ac:	5b004292 	lbu	v0,91(s2)
801019b0:	00000000 	nop
801019b4:	0f004230 	andi	v0,v0,0xf
801019b8:	5b0042a2 	sb	v0,91(s2)
801019bc:	ff006632 	andi	a2,s3,0xff
801019c0:	ff000224 	li	v0,255
801019c4:	1700c210 	beq	a2,v0,0x80101a24
801019c8:	02000224 	li	v0,2
801019cc:	5b004292 	lbu	v0,91(s2)
801019d0:	00000000 	nop
801019d4:	f0004230 	andi	v0,v0,0xf0
801019d8:	2000422c 	sltiu	v0,v0,32
801019dc:	13004014 	bnez	v0,0x80101a2c
801019e0:	05000224 	li	v0,5
801019e4:	1800a427 	addiu	a0,sp,24
801019e8:	1980053c 	lui	a1,0x8019
801019ec:	1980073c 	lui	a3,0x8019
801019f0:	47004392 	lbu	v1,71(s2)
801019f4:	90a0a524 	addiu	a1,a1,-24432
801019f8:	00110300 	sll	v0,v1,0x4
801019fc:	23104300 	subu	v0,v0,v1
80101a00:	80100200 	sll	v0,v0,0x2
80101a04:	21108202 	addu	v0,s4,v0
80101a08:	04004290 	lbu	v0,4(v0)
80101a0c:	a0a0e724 	addiu	a3,a3,-24416
80101a10:	306c020c 	jal	0x8009b0c0
80101a14:	1000a2af 	sw	v0,16(sp)
80101a18:	4402020c 	jal	0x80080910
80101a1c:	1800a427 	addiu	a0,sp,24
80101a20:	02000224 	li	v0,2
80101a24:	902e0608 	j	0x8018ba40
80101a28:	3e0042a2 	sb	v0,62(s2)
80101a2c:	3e0040a2 	sb	zero,62(s2)
80101a30:	510040a2 	sb	zero,81(s2)
80101a34:	020040a2 	sb	zero,2(s2)
80101a38:	922e0608 	j	0x8018ba48
80101a3c:	3f0042a2 	sb	v0,63(s2)
80101a40:	3f0040a2 	sb	zero,63(s2)
80101a44:	400040a2 	sb	zero,64(s2)
80101a48:	4c00bf8f 	lw	ra,76(sp)
80101a4c:	4800b48f 	lw	s4,72(sp)
80101a50:	4400b38f 	lw	s3,68(sp)
80101a54:	4000b28f 	lw	s2,64(sp)
80101a58:	3c00b18f 	lw	s1,60(sp)
80101a5c:	3800b08f 	lw	s0,56(sp)
80101a60:	0800e003 	jr	ra
80101a64:	5000bd27 	addiu	sp,sp,80
80101a68:	70fbbd27 	addiu	sp,sp,-1168
80101a6c:	7804b4af 	sw	s4,1144(sp)
80101a70:	21a08000 	move	s4,a0
80101a74:	8c04bfaf 	sw	ra,1164(sp)
80101a78:	8804beaf 	sw	s8,1160(sp)
80101a7c:	8404b7af 	sw	s7,1156(sp)
80101a80:	8004b6af 	sw	s6,1152(sp)
80101a84:	7c04b5af 	sw	s5,1148(sp)
80101a88:	7404b3af 	sw	s3,1140(sp)
80101a8c:	7004b2af 	sw	s2,1136(sp)
80101a90:	6c04b1af 	sw	s1,1132(sp)
80101a94:	6804b0af 	sw	s0,1128(sp)
80101a98:	46008292 	lbu	v0,70(s4)
80101a9c:	00000000 	nop
80101aa0:	00110200 	sll	v0,v0,0x4
80101aa4:	6004a2a3 	sb	v0,1120(sp)
80101aa8:	02008392 	lbu	v1,2(s4)
80101aac:	01001124 	li	s1,1
80101ab0:	ef007110 	beq	v1,s1,0x80101e70
80101ab4:	02006228 	slti	v0,v1,2
80101ab8:	05004010 	beqz	v0,0x80101ad0
80101abc:	00000000 	nop
80101ac0:	08006010 	beqz	v1,0x80101ae4
80101ac4:	21880000 	move	s1,zero
80101ac8:	d12f0608 	j	0x8018bf44
80101acc:	00000000 	nop
80101ad0:	02000224 	li	v0,2
80101ad4:	ee006210 	beq	v1,v0,0x80101e90
80101ad8:	0c80023c 	lui	v0,0x800c
80101adc:	d12f0608 	j	0x8018bf44
80101ae0:	00000000 	nop
80101ae4:	0c80023c 	lui	v0,0x800c
80101ae8:	90ed5324 	addiu	s3,v0,-4720
80101aec:	21902002 	move	s2,s1
80101af0:	21280000 	move	a1,zero
80101af4:	3c000624 	li	a2,60
80101af8:	b000b527 	addiu	s5,sp,176
80101afc:	2180b202 	addu	s0,s5,s2
80101b00:	46008292 	lbu	v0,70(s4)
80101b04:	21904602 	addu	s2,s2,a2
80101b08:	c0200200 	sll	a0,v0,0x3
80101b0c:	23208200 	subu	a0,a0,v0
80101b10:	40210400 	sll	a0,a0,0x5
80101b14:	21208200 	addu	a0,a0,v0
80101b18:	80200400 	sll	a0,a0,0x2
80101b1c:	0869020c 	jal	0x8009a420
80101b20:	21209300 	addu	a0,a0,s3
80101b24:	21200002 	move	a0,s0
80101b28:	21280000 	move	a1,zero
80101b2c:	0869020c 	jal	0x8009a420
80101b30:	3c000624 	li	a2,60
80101b34:	3c007326 	addiu	s3,s3,60
80101b38:	000011a2 	sb	s1,0(s0)
80101b3c:	01003126 	addiu	s1,s1,1
80101b40:	0f00222a 	slti	v0,s1,15
80101b44:	eaff4014 	bnez	v0,0x80101af0
80101b48:	010000a2 	sb	zero,1(s0)
80101b4c:	21b80000 	move	s7,zero
80101b50:	1000a427 	addiu	a0,sp,16
80101b54:	1980053c 	lui	a1,0x8019
80101b58:	b0a0a524 	addiu	a1,a1,-24400
80101b5c:	6004a893 	lbu	t0,1120(sp)
80101b60:	46008292 	lbu	v0,70(s4)
80101b64:	f0000631 	andi	a2,t0,0xf0
80101b68:	21108202 	addu	v0,s4,v0
80101b6c:	306c020c 	jal	0x8009b0c0
80101b70:	4e0040a0 	sb	zero,78(v0)
80101b74:	1000a427 	addiu	a0,sp,16
80101b78:	3804b027 	addiu	s0,sp,1080
80101b7c:	5002020c 	jal	0x80080940
80101b80:	21280002 	move	a1,s0
80101b84:	74004010 	beqz	v0,0x80101d58
80101b88:	2118e002 	move	v1,s7
80101b8c:	21b00002 	move	s6,s0
80101b90:	ffff1324 	li	s3,-1
80101b94:	4704be27 	addiu	s8,sp,1095
80101b98:	1980043c 	lui	a0,0x8019
80101b9c:	a0a08424 	addiu	a0,a0,-24416
80101ba0:	2128c002 	move	a1,s6
80101ba4:	9069020c 	jal	0x8009a640
80101ba8:	0f000624 	li	a2,15
80101bac:	63004014 	bnez	v0,0x80101d3c
80101bb0:	1000a427 	addiu	a0,sp,16
80101bb4:	1980053c 	lui	a1,0x8019
80101bb8:	bca0a524 	addiu	a1,a1,-24388
80101bbc:	21908000 	move	s2,a0
80101bc0:	21880000 	move	s1,zero
80101bc4:	46008392 	lbu	v1,70(s4)
80101bc8:	2138c002 	move	a3,s6
80101bcc:	21188302 	addu	v1,s4,v1
80101bd0:	4e006290 	lbu	v0,78(v1)
80101bd4:	6004a693 	lbu	a2,1120(sp)
80101bd8:	01004224 	addiu	v0,v0,1
80101bdc:	306c020c 	jal	0x8009b0c0
80101be0:	4e0062a0 	sb	v0,78(v1)
80101be4:	21204002 	move	a0,s2
80101be8:	2c02020c 	jal	0x800808b0
80101bec:	01000524 	li	a1,1
80101bf0:	21804000 	move	s0,v0
80101bf4:	0d001312 	beq	s0,s3,0x80101c2c
80101bf8:	80030524 	li	a1,896
80101bfc:	21200002 	move	a0,s0
80101c00:	3002020c 	jal	0x800808c0
80101c04:	21300000 	move	a2,zero
80101c08:	06005310 	beq	v0,s3,0x80101c24
80101c0c:	21200002 	move	a0,s0
80101c10:	3000a527 	addiu	a1,sp,48
80101c14:	3402020c 	jal	0x800808d0
80101c18:	80000624 	li	a2,128
80101c1c:	0b005314 	bne	v0,s3,0x80101c4c
80101c20:	00000000 	nop
80101c24:	3c02020c 	jal	0x800808f0
80101c28:	21200002 	move	a0,s0
80101c2c:	01003126 	addiu	s1,s1,1
80101c30:	0700222a 	slti	v0,s1,7
80101c34:	ebff4014 	bnez	v0,0x80101be4
80101c38:	21100000 	move	v0,zero
80101c3c:	07004014 	bnez	v0,0x80101c5c
80101c40:	30000224 	li	v0,48
80101c44:	c82f0608 	j	0x8018bf20
80101c48:	00000000 	nop
80101c4c:	3c02020c 	jal	0x800808f0
80101c50:	21200002 	move	a0,s0
80101c54:	0f2f0608 	j	0x8018bc3c
80101c58:	01000224 	li	v0,1
80101c5c:	0000c393 	lbu	v1,0(s8)
80101c60:	00000000 	nop
80101c64:	05006214 	bne	v1,v0,0x80101c7c
80101c68:	3000b227 	addiu	s2,sp,48
80101c6c:	0f000924 	li	t1,15
80101c70:	01002425 	addiu	a0,t1,1
80101c74:	202f0608 	j	0x8018bc80
80101c78:	2120c402 	addu	a0,s6,a0
80101c7c:	2120c003 	move	a0,s8
80101c80:	7c68020c 	jal	0x8009a1f0
80101c84:	21880000 	move	s1,zero
80101c88:	00190200 	sll	v1,v0,0x4
80101c8c:	23186200 	subu	v1,v1,v0
80101c90:	80180300 	sll	v1,v1,0x2
80101c94:	2180a302 	addu	s0,s5,v1
80101c98:	03000426 	addiu	a0,s0,3
80101c9c:	1000a527 	addiu	a1,sp,16
80101ca0:	01000224 	li	v0,1
80101ca4:	010002a2 	sb	v0,1(s0)
80101ca8:	6c69020c 	jal	0x8009a5b0
80101cac:	020002a2 	sb	v0,2(s0)
80101cb0:	2e004296 	lhu	v0,46(s2)
80101cb4:	00000000 	nop
80101cb8:	240002a6 	sh	v0,36(s0)
80101cbc:	11004292 	lbu	v0,17(s2)
80101cc0:	00000000 	nop
80101cc4:	210002a2 	sb	v0,33(s0)
80101cc8:	00004292 	lbu	v0,0(s2)
80101ccc:	00000000 	nop
80101cd0:	220002a2 	sb	v0,34(s0)
80101cd4:	01004292 	lbu	v0,1(s2)
80101cd8:	00000000 	nop
80101cdc:	230002a2 	sb	v0,35(s0)
80101ce0:	13004292 	lbu	v0,19(s2)
80101ce4:	00000000 	nop
80101ce8:	270002a2 	sb	v0,39(s0)
80101cec:	21181102 	addu	v1,s0,s1
80101cf0:	21105102 	addu	v0,s2,s1
80101cf4:	14004290 	lbu	v0,20(v0)
80101cf8:	01003126 	addiu	s1,s1,1
80101cfc:	280062a0 	sb	v0,40(v1)
80101d00:	0800222a 	slti	v0,s1,8
80101d04:	faff4014 	bnez	v0,0x80101cf0
80101d08:	21181102 	addu	v1,s0,s1
80101d0c:	3a004296 	lhu	v0,58(s2)
80101d10:	00000000 	nop
80101d14:	300002a6 	sh	v0,48(s0)
80101d18:	38004296 	lhu	v0,56(s2)
80101d1c:	00000000 	nop
80101d20:	320002a6 	sh	v0,50(s0)
80101d24:	0800428e 	lw	v0,8(s2)
80101d28:	00000000 	nop
80101d2c:	340002ae 	sw	v0,52(s0)
80101d30:	0400428e 	lw	v0,4(s2)
80101d34:	00000000 	nop
80101d38:	380002ae 	sw	v0,56(s0)
80101d3c:	5004a28f 	lw	v0,1104(sp)
80101d40:	3804a427 	addiu	a0,sp,1080
80101d44:	4002020c 	jal	0x80080900
80101d48:	21b8e202 	addu	s7,s7,v0
80101d4c:	93ff4014 	bnez	v0,0x80101b9c
80101d50:	1980043c 	lui	a0,0x8019
80101d54:	2118e002 	move	v1,s7
80101d58:	02006104 	bgez	v1,0x80101d64
80101d5c:	00000000 	nop
80101d60:	ff1f6324 	addiu	v1,v1,8191
80101d64:	431b0300 	sra	v1,v1,0xd
80101d68:	0f000224 	li	v0,15
80101d6c:	23284300 	subu	a1,v0,v1
80101d70:	ff00a230 	andi	v0,a1,0xff
80101d74:	0e004010 	beqz	v0,0x80101db0
80101d78:	21880000 	move	s1,zero
80101d7c:	01000624 	li	a2,1
80101d80:	21204000 	move	a0,v0
80101d84:	b200a327 	addiu	v1,sp,178
80101d88:	ffff6290 	lbu	v0,-1(v1)
80101d8c:	00000000 	nop
80101d90:	05004014 	bnez	v0,0x80101da8
80101d94:	2a102402 	slt	v0,s1,a0
80101d98:	01003126 	addiu	s1,s1,1
80101d9c:	ffff66a0 	sb	a2,-1(v1)
80101da0:	000060a0 	sb	zero,0(v1)
80101da4:	2a102402 	slt	v0,s1,a0
80101da8:	f7ff4014 	bnez	v0,0x80101d88
80101dac:	3c006324 	addiu	v1,v1,60
80101db0:	46008392 	lbu	v1,70(s4)
80101db4:	21880000 	move	s1,zero
80101db8:	21188302 	addu	v1,s4,v1
80101dbc:	4e006290 	lbu	v0,78(v1)
80101dc0:	01000624 	li	a2,1
80101dc4:	21104500 	addu	v0,v0,a1
80101dc8:	4e0062a0 	sb	v0,78(v1)
80101dcc:	46008392 	lbu	v1,70(s4)
80101dd0:	b000a527 	addiu	a1,sp,176
80101dd4:	c0100300 	sll	v0,v1,0x3
80101dd8:	23104300 	subu	v0,v0,v1
80101ddc:	40110200 	sll	v0,v0,0x5
80101de0:	21104300 	addu	v0,v0,v1
80101de4:	80100200 	sll	v0,v0,0x2
80101de8:	0c80033c 	lui	v1,0x800c
80101dec:	90ed6324 	addiu	v1,v1,-4720
80101df0:	21804300 	addu	s0,v0,v1
80101df4:	0100a290 	lbu	v0,1(a1)
80101df8:	00000000 	nop
80101dfc:	15004614 	bne	v0,a2,0x80101e54
80101e00:	21180002 	move	v1,s0
80101e04:	2110a000 	move	v0,a1
80101e08:	3000a424 	addiu	a0,a1,48
80101e0c:	00004a8c 	lw	t2,0(v0)
80101e10:	04004b8c 	lw	t3,4(v0)
80101e14:	0800488c 	lw	t0,8(v0)
80101e18:	0c00498c 	lw	t1,12(v0)
80101e1c:	00006aac 	sw	t2,0(v1)
80101e20:	04006bac 	sw	t3,4(v1)
80101e24:	080068ac 	sw	t0,8(v1)
80101e28:	0c0069ac 	sw	t1,12(v1)
80101e2c:	10004224 	addiu	v0,v0,16
80101e30:	f6ff4414 	bne	v0,a0,0x80101e0c
80101e34:	10006324 	addiu	v1,v1,16
80101e38:	00004a8c 	lw	t2,0(v0)
80101e3c:	04004b8c 	lw	t3,4(v0)
80101e40:	0800488c 	lw	t0,8(v0)
80101e44:	00006aac 	sw	t2,0(v1)
80101e48:	04006bac 	sw	t3,4(v1)
80101e4c:	080068ac 	sw	t0,8(v1)
80101e50:	3c001026 	addiu	s0,s0,60
80101e54:	01003126 	addiu	s1,s1,1
80101e58:	0f00222a 	slti	v0,s1,15
80101e5c:	e5ff4014 	bnez	v0,0x80101df4
80101e60:	3c00a524 	addiu	a1,a1,60
80101e64:	02008292 	lbu	v0,2(s4)
80101e68:	a22f0608 	j	0x8018be88
80101e6c:	01004224 	addiu	v0,v0,1
80101e70:	6004aa93 	lbu	t2,1120(sp)
80101e74:	a46e020c 	jal	0x8009ba90
80101e78:	f0004431 	andi	a0,t2,0xf0
80101e7c:	02008292 	lbu	v0,2(s4)
80101e80:	430080a2 	sb	zero,67(s4)
80101e84:	01004224 	addiu	v0,v0,1
80101e88:	d12f0608 	j	0x8018bf44
80101e8c:	020082a2 	sb	v0,2(s4)
80101e90:	98f45024 	addiu	s0,v0,-2920
80101e94:	1c00048e 	lw	a0,28(s0)
80101e98:	1002020c 	jal	0x80080840
80101e9c:	00000000 	nop
80101ea0:	19005110 	beq	v0,s1,0x80101f08
80101ea4:	01000224 	li	v0,1
80101ea8:	2000048e 	lw	a0,32(s0)
80101eac:	1002020c 	jal	0x80080840
80101eb0:	00000000 	nop
80101eb4:	14005110 	beq	v0,s1,0x80101f08
80101eb8:	02000224 	li	v0,2
80101ebc:	2400048e 	lw	a0,36(s0)
80101ec0:	1002020c 	jal	0x80080840
80101ec4:	00000000 	nop
80101ec8:	0f005110 	beq	v0,s1,0x80101f08
80101ecc:	03000224 	li	v0,3
80101ed0:	2800048e 	lw	a0,40(s0)
80101ed4:	1002020c 	jal	0x80080840
80101ed8:	00000000 	nop
80101edc:	0a005110 	beq	v0,s1,0x80101f08
80101ee0:	04000224 	li	v0,4
80101ee4:	43000292 	lbu	v0,67(s0)
80101ee8:	00000000 	nop
80101eec:	01004224 	addiu	v0,v0,1
80101ef0:	430002a2 	sb	v0,67(s0)
80101ef4:	ff004230 	andi	v0,v0,0xff
80101ef8:	ff00422c 	sltiu	v0,v0,255
80101efc:	02004014 	bnez	v0,0x80101f08
80101f00:	21100000 	move	v0,zero
80101f04:	02000224 	li	v0,2
80101f08:	ff004330 	andi	v1,v0,0xff
80101f0c:	0d006010 	beqz	v1,0x80101f44
80101f10:	3e0082a2 	sb	v0,62(s4)
80101f14:	01000224 	li	v0,1
80101f18:	06006210 	beq	v1,v0,0x80101f34
80101f1c:	00000000 	nop
80101f20:	46008592 	lbu	a1,70(s4)
80101f24:	ea72000c 	jal	0x8001cba8
80101f28:	21208002 	move	a0,s4
80101f2c:	02000224 	li	v0,2
80101f30:	3e0082a2 	sb	v0,62(s4)
80101f34:	3f0080a2 	sb	zero,63(s4)
80101f38:	400080a2 	sb	zero,64(s4)
80101f3c:	020080a2 	sb	zero,2(s4)
80101f40:	010080a2 	sb	zero,1(s4)
80101f44:	8c04bf8f 	lw	ra,1164(sp)
80101f48:	8804be8f 	lw	s8,1160(sp)
80101f4c:	8404b78f 	lw	s7,1156(sp)
80101f50:	8004b68f 	lw	s6,1152(sp)
80101f54:	7c04b58f 	lw	s5,1148(sp)
80101f58:	7804b48f 	lw	s4,1144(sp)
80101f5c:	7404b38f 	lw	s3,1140(sp)
80101f60:	7004b28f 	lw	s2,1136(sp)
80101f64:	6c04b18f 	lw	s1,1132(sp)
80101f68:	6804b08f 	lw	s0,1128(sp)
80101f6c:	0800e003 	jr	ra
80101f70:	9004bd27 	addiu	sp,sp,1168
80101f74:	d8ffbd27 	addiu	sp,sp,-40
80101f78:	1400b1af 	sw	s1,20(sp)
80101f7c:	21888000 	move	s1,a0
80101f80:	1800b2af 	sw	s2,24(sp)
80101f84:	01001224 	li	s2,1
80101f88:	2000bfaf 	sw	ra,32(sp)
80101f8c:	1c00b3af 	sw	s3,28(sp)
80101f90:	1000b0af 	sw	s0,16(sp)
80101f94:	46002292 	lbu	v0,70(s1)
80101f98:	02002392 	lbu	v1,2(s1)
80101f9c:	00000000 	nop
80101fa0:	18007210 	beq	v1,s2,0x80102004
80101fa4:	00990200 	sll	s3,v0,0x4
80101fa8:	02006228 	slti	v0,v1,2
80101fac:	05004010 	beqz	v0,0x80101fc4
80101fb0:	00000000 	nop
80101fb4:	0a006010 	beqz	v1,0x80101fe0
80101fb8:	00000000 	nop
80101fbc:	26310608 	j	0x8018c498
80101fc0:	00000000 	nop
80101fc4:	02000224 	li	v0,2
80101fc8:	ac006210 	beq	v1,v0,0x8010227c
80101fcc:	03000224 	li	v0,3
80101fd0:	bf006210 	beq	v1,v0,0x801022d0
80101fd4:	0c80023c 	lui	v0,0x800c
80101fd8:	26310608 	j	0x8018c498
80101fdc:	00000000 	nop
80101fe0:	a46e020c 	jal	0x8009ba90
80101fe4:	f0006432 	andi	a0,s3,0xf0
80101fe8:	46002292 	lbu	v0,70(s1)
80101fec:	430020a2 	sb	zero,67(s1)
80101ff0:	21102202 	addu	v0,s1,v0
80101ff4:	4c0040a0 	sb	zero,76(v0)
80101ff8:	02002292 	lbu	v0,2(s1)
80101ffc:	b2300608 	j	0x8018c2c8
80102000:	01004224 	addiu	v0,v0,1
80102004:	0c80023c 	lui	v0,0x800c
80102008:	98f45024 	addiu	s0,v0,-2920
8010200c:	1c00048e 	lw	a0,28(s0)
80102010:	1002020c 	jal	0x80080840
80102014:	00000000 	nop
80102018:	19005210 	beq	v0,s2,0x80102080
8010201c:	01000224 	li	v0,1
80102020:	2000048e 	lw	a0,32(s0)
80102024:	1002020c 	jal	0x80080840
80102028:	00000000 	nop
8010202c:	14005210 	beq	v0,s2,0x80102080
80102030:	02000224 	li	v0,2
80102034:	2400048e 	lw	a0,36(s0)
80102038:	1002020c 	jal	0x80080840
8010203c:	00000000 	nop
80102040:	0f005210 	beq	v0,s2,0x80102080
80102044:	03000224 	li	v0,3
80102048:	2800048e 	lw	a0,40(s0)
8010204c:	1002020c 	jal	0x80080840
80102050:	00000000 	nop
80102054:	0a005210 	beq	v0,s2,0x80102080
80102058:	04000224 	li	v0,4
8010205c:	43000292 	lbu	v0,67(s0)
80102060:	00000000 	nop
80102064:	01004224 	addiu	v0,v0,1
80102068:	430002a2 	sb	v0,67(s0)
8010206c:	ff004230 	andi	v0,v0,0xff
80102070:	ff00422c 	sltiu	v0,v0,255
80102074:	02004014 	bnez	v0,0x80102080
80102078:	21100000 	move	v0,zero
8010207c:	02000224 	li	v0,2
80102080:	05014010 	beqz	v0,0x80102498
80102084:	3e0022a2 	sb	v0,62(s1)
80102088:	ff004330 	andi	v1,v0,0xff
8010208c:	02000224 	li	v0,2
80102090:	45006210 	beq	v1,v0,0x801021a8
80102094:	03006228 	slti	v0,v1,3
80102098:	05004010 	beqz	v0,0x801020b0
8010209c:	01000224 	li	v0,1
801020a0:	08006210 	beq	v1,v0,0x801020c4
801020a4:	00000000 	nop
801020a8:	99300608 	j	0x8018c264
801020ac:	00000000 	nop
801020b0:	04000224 	li	v0,4
801020b4:	0a006210 	beq	v1,v0,0x801020e0
801020b8:	0c80103c 	lui	s0,0x800c
801020bc:	99300608 	j	0x8018c264
801020c0:	00000000 	nop
801020c4:	46002292 	lbu	v0,70(s1)
801020c8:	00000000 	nop
801020cc:	21102202 	addu	v0,s1,v0
801020d0:	4e004390 	lbu	v1,78(v0)
801020d4:	ff000224 	li	v0,255
801020d8:	ed006214 	bne	v1,v0,0x80102490
801020dc:	0c80103c 	lui	s0,0x800c
801020e0:	98f41026 	addiu	s0,s0,-2920
801020e4:	2c00048e 	lw	a0,44(s0)
801020e8:	1002020c 	jal	0x80080840
801020ec:	21900002 	move	s2,s0
801020f0:	3000048e 	lw	a0,48(s0)
801020f4:	1002020c 	jal	0x80080840
801020f8:	00000000 	nop
801020fc:	3400048e 	lw	a0,52(s0)
80102100:	1002020c 	jal	0x80080840
80102104:	01001024 	li	s0,1
80102108:	3800448e 	lw	a0,56(s2)
8010210c:	1002020c 	jal	0x80080840
80102110:	00000000 	nop
80102114:	ac6e020c 	jal	0x8009bab0
80102118:	f0006432 	andi	a0,s3,0xf0
8010211c:	2c00448e 	lw	a0,44(s2)
80102120:	1002020c 	jal	0x80080840
80102124:	00000000 	nop
80102128:	10005010 	beq	v0,s0,0x8010216c
8010212c:	00000000 	nop
80102130:	3000448e 	lw	a0,48(s2)
80102134:	1002020c 	jal	0x80080840
80102138:	00000000 	nop
8010213c:	0b005010 	beq	v0,s0,0x8010216c
80102140:	00000000 	nop
80102144:	3400448e 	lw	a0,52(s2)
80102148:	1002020c 	jal	0x80080840
8010214c:	00000000 	nop
80102150:	06005010 	beq	v0,s0,0x8010216c
80102154:	00000000 	nop
80102158:	3800448e 	lw	a0,56(s2)
8010215c:	1002020c 	jal	0x80080840
80102160:	00000000 	nop
80102164:	edff5014 	bne	v0,s0,0x8010211c
80102168:	00000000 	nop
8010216c:	3e002392 	lbu	v1,62(s1)
80102170:	01000224 	li	v0,1
80102174:	05006210 	beq	v1,v0,0x8010218c
80102178:	00000000 	nop
8010217c:	46002292 	lbu	v0,70(s1)
80102180:	00000000 	nop
80102184:	21102202 	addu	v0,s1,v0
80102188:	480040a0 	sb	zero,72(v0)
8010218c:	46002292 	lbu	v0,70(s1)
80102190:	ff000324 	li	v1,255
80102194:	21102202 	addu	v0,s1,v0
80102198:	4e0043a0 	sb	v1,78(v0)
8010219c:	02002292 	lbu	v0,2(s1)
801021a0:	b1300608 	j	0x8018c2c4
801021a4:	3e0020a2 	sb	zero,62(s1)
801021a8:	35001224 	li	s2,53
801021ac:	0c80023c 	lui	v0,0x800c
801021b0:	98f45024 	addiu	s0,v0,-2920
801021b4:	3f0020a2 	sb	zero,63(s1)
801021b8:	400020a2 	sb	zero,64(s1)
801021bc:	18000286 	lh	v0,24(s0)
801021c0:	00000000 	nop
801021c4:	07005210 	beq	v0,s2,0x801021e4
801021c8:	ffff1324 	li	s3,-1
801021cc:	0a80023c 	lui	v0,0x800a
801021d0:	0c00048e 	lw	a0,12(s0)
801021d4:	2829458c 	lw	a1,10536(v0)
801021d8:	6c69020c 	jal	0x8009a5b0
801021dc:	00000000 	nop
801021e0:	180012a6 	sh	s2,24(s0)
801021e4:	1a000286 	lh	v0,26(s0)
801021e8:	00000000 	nop
801021ec:	06005310 	beq	v0,s3,0x80102208
801021f0:	1e000224 	li	v0,30
801021f4:	1000028e 	lw	v0,16(s0)
801021f8:	00000000 	nop
801021fc:	000040a0 	sb	zero,0(v0)
80102200:	1a0013a6 	sh	s3,26(s0)
80102204:	1e000224 	li	v0,30
80102208:	500022a2 	sb	v0,80(s1)
8010220c:	46002292 	lbu	v0,70(s1)
80102210:	fc000324 	li	v1,252
80102214:	440020a2 	sb	zero,68(s1)
80102218:	4b0023a2 	sb	v1,75(s1)
8010221c:	4a0023a2 	sb	v1,74(s1)
80102220:	21102202 	addu	v0,s1,v0
80102224:	480040a0 	sb	zero,72(v0)
80102228:	46002292 	lbu	v0,70(s1)
8010222c:	ff000324 	li	v1,255
80102230:	21102202 	addu	v0,s1,v0
80102234:	4e0043a0 	sb	v1,78(v0)
80102238:	0f000224 	li	v0,15
8010223c:	460023a2 	sb	v1,70(s1)
80102240:	470020a2 	sb	zero,71(s1)
80102244:	520020a2 	sb	zero,82(s1)
80102248:	540020a6 	sh	zero,84(s1)
8010224c:	560020a6 	sh	zero,86(s1)
80102250:	030020a2 	sb	zero,3(s1)
80102254:	020020a2 	sb	zero,2(s1)
80102258:	010020a2 	sb	zero,1(s1)
8010225c:	26310608 	j	0x8018c498
80102260:	000022a2 	sb	v0,0(s1)
80102264:	46002592 	lbu	a1,70(s1)
80102268:	ea72000c 	jal	0x8001cba8
8010226c:	21202002 	move	a0,s1
80102270:	02000224 	li	v0,2
80102274:	24310608 	j	0x8018c490
80102278:	3e0022a2 	sb	v0,62(s1)
8010227c:	0c80103c 	lui	s0,0x800c
80102280:	98f41026 	addiu	s0,s0,-2920
80102284:	1c00048e 	lw	a0,28(s0)
80102288:	1002020c 	jal	0x80080840
8010228c:	00000000 	nop
80102290:	2000048e 	lw	a0,32(s0)
80102294:	1002020c 	jal	0x80080840
80102298:	00000000 	nop
8010229c:	2400048e 	lw	a0,36(s0)
801022a0:	1002020c 	jal	0x80080840
801022a4:	00000000 	nop
801022a8:	2800048e 	lw	a0,40(s0)
801022ac:	1002020c 	jal	0x80080840
801022b0:	00000000 	nop
801022b4:	a86e020c 	jal	0x8009baa0
801022b8:	f0006432 	andi	a0,s3,0xf0
801022bc:	02002292 	lbu	v0,2(s1)
801022c0:	430020a2 	sb	zero,67(s1)
801022c4:	01004224 	addiu	v0,v0,1
801022c8:	26310608 	j	0x8018c498
801022cc:	020022a2 	sb	v0,2(s1)
801022d0:	98f45024 	addiu	s0,v0,-2920
801022d4:	1c00048e 	lw	a0,28(s0)
801022d8:	1002020c 	jal	0x80080840
801022dc:	00000000 	nop
801022e0:	19005210 	beq	v0,s2,0x80102348
801022e4:	01000224 	li	v0,1
801022e8:	2000048e 	lw	a0,32(s0)
801022ec:	1002020c 	jal	0x80080840
801022f0:	00000000 	nop
801022f4:	14005210 	beq	v0,s2,0x80102348
801022f8:	02000224 	li	v0,2
801022fc:	2400048e 	lw	a0,36(s0)
80102300:	1002020c 	jal	0x80080840
80102304:	00000000 	nop
80102308:	0f005210 	beq	v0,s2,0x80102348
8010230c:	03000224 	li	v0,3
80102310:	2800048e 	lw	a0,40(s0)
80102314:	1002020c 	jal	0x80080840
80102318:	00000000 	nop
8010231c:	0a005210 	beq	v0,s2,0x80102348
80102320:	04000224 	li	v0,4
80102324:	43000292 	lbu	v0,67(s0)
80102328:	00000000 	nop
8010232c:	01004224 	addiu	v0,v0,1
80102330:	430002a2 	sb	v0,67(s0)
80102334:	ff004230 	andi	v0,v0,0xff
80102338:	ff00422c 	sltiu	v0,v0,255
8010233c:	02004014 	bnez	v0,0x80102348
80102340:	21100000 	move	v0,zero
80102344:	02000224 	li	v0,2
80102348:	53004010 	beqz	v0,0x80102498
8010234c:	3e0022a2 	sb	v0,62(s1)
80102350:	ff004330 	andi	v1,v0,0xff
80102354:	03000224 	li	v0,3
80102358:	49006210 	beq	v1,v0,0x80102480
8010235c:	04006228 	slti	v0,v1,4
80102360:	05004010 	beqz	v0,0x80102378
80102364:	02000224 	li	v0,2
80102368:	19006210 	beq	v1,v0,0x801023d0
8010236c:	35001224 	li	s2,53
80102370:	25310608 	j	0x8018c494
80102374:	3f0020a2 	sb	zero,63(s1)
80102378:	04000224 	li	v0,4
8010237c:	44006214 	bne	v1,v0,0x80102490
80102380:	00000000 	nop
80102384:	46002292 	lbu	v0,70(s1)
80102388:	00000000 	nop
8010238c:	21102202 	addu	v0,s1,v0
80102390:	4c004290 	lbu	v0,76(v0)
80102394:	00000000 	nop
80102398:	3d004014 	bnez	v0,0x80102490
8010239c:	f0006432 	andi	a0,s3,0xf0
801023a0:	a46e020c 	jal	0x8009ba90
801023a4:	3e0020a2 	sb	zero,62(s1)
801023a8:	46002292 	lbu	v0,70(s1)
801023ac:	430020a2 	sb	zero,67(s1)
801023b0:	21102202 	addu	v0,s1,v0
801023b4:	4c004390 	lbu	v1,76(v0)
801023b8:	00000000 	nop
801023bc:	01006324 	addiu	v1,v1,1
801023c0:	4c0043a0 	sb	v1,76(v0)
801023c4:	01000224 	li	v0,1
801023c8:	26310608 	j	0x8018c498
801023cc:	020022a2 	sb	v0,2(s1)
801023d0:	0c80023c 	lui	v0,0x800c
801023d4:	98f45024 	addiu	s0,v0,-2920
801023d8:	18000286 	lh	v0,24(s0)
801023dc:	00000000 	nop
801023e0:	07005210 	beq	v0,s2,0x80102400
801023e4:	ffff1324 	li	s3,-1
801023e8:	0a80023c 	lui	v0,0x800a
801023ec:	0c00048e 	lw	a0,12(s0)
801023f0:	2829458c 	lw	a1,10536(v0)
801023f4:	6c69020c 	jal	0x8009a5b0
801023f8:	00000000 	nop
801023fc:	180012a6 	sh	s2,24(s0)
80102400:	1a000286 	lh	v0,26(s0)
80102404:	00000000 	nop
80102408:	06005310 	beq	v0,s3,0x80102424
8010240c:	1e000224 	li	v0,30
80102410:	1000028e 	lw	v0,16(s0)
80102414:	00000000 	nop
80102418:	000040a0 	sb	zero,0(v0)
8010241c:	1a0013a6 	sh	s3,26(s0)
80102420:	1e000224 	li	v0,30
80102424:	500022a2 	sb	v0,80(s1)
80102428:	46002292 	lbu	v0,70(s1)
8010242c:	fc000324 	li	v1,252
80102430:	440020a2 	sb	zero,68(s1)
80102434:	4b0023a2 	sb	v1,75(s1)
80102438:	4a0023a2 	sb	v1,74(s1)
8010243c:	21102202 	addu	v0,s1,v0
80102440:	480040a0 	sb	zero,72(v0)
80102444:	46002292 	lbu	v0,70(s1)
80102448:	ff000324 	li	v1,255
8010244c:	21102202 	addu	v0,s1,v0
80102450:	4e0043a0 	sb	v1,78(v0)
80102454:	0f000224 	li	v0,15
80102458:	460023a2 	sb	v1,70(s1)
8010245c:	470020a2 	sb	zero,71(s1)
80102460:	520020a2 	sb	zero,82(s1)
80102464:	540020a6 	sh	zero,84(s1)
80102468:	560020a6 	sh	zero,86(s1)
8010246c:	030020a2 	sb	zero,3(s1)
80102470:	020020a2 	sb	zero,2(s1)
80102474:	010020a2 	sb	zero,1(s1)
80102478:	24310608 	j	0x8018c490
8010247c:	000022a2 	sb	v0,0(s1)
80102480:	46002292 	lbu	v0,70(s1)
80102484:	fc000324 	li	v1,252
80102488:	21102202 	addu	v0,s1,v0
8010248c:	4a0043a0 	sb	v1,74(v0)
80102490:	3f0020a2 	sb	zero,63(s1)
80102494:	400020a2 	sb	zero,64(s1)
80102498:	2000bf8f 	lw	ra,32(sp)
8010249c:	1c00b38f 	lw	s3,28(sp)
801024a0:	1800b28f 	lw	s2,24(sp)
801024a4:	1400b18f 	lw	s1,20(sp)
801024a8:	1000b08f 	lw	s0,16(sp)
801024ac:	0800e003 	jr	ra
801024b0:	2800bd27 	addiu	sp,sp,40
801024b4:	90ffbd27 	addiu	sp,sp,-112
801024b8:	6000b6af 	sw	s6,96(sp)
801024bc:	21b0a000 	move	s6,a1
801024c0:	5800b4af 	sw	s4,88(sp)
801024c4:	21a0c000 	move	s4,a2
801024c8:	5c00b5af 	sw	s5,92(sp)
801024cc:	21a8e000 	move	s5,a3
801024d0:	1980023c 	lui	v0,0x8019
801024d4:	6c00bfaf 	sw	ra,108(sp)
801024d8:	6800beaf 	sw	s8,104(sp)
801024dc:	6400b7af 	sw	s7,100(sp)
801024e0:	5400b3af 	sw	s3,84(sp)
801024e4:	5000b2af 	sw	s2,80(sp)
801024e8:	4c00b1af 	sw	s1,76(sp)
801024ec:	4800b0af 	sw	s0,72(sp)
801024f0:	c8a04c24 	addiu	t4,v0,-24376
801024f4:	03008989 	lwl	t1,3(t4)
801024f8:	00008999 	lwr	t1,0(t4)
801024fc:	07008a89 	lwl	t2,7(t4)
80102500:	04008a99 	lwr	t2,4(t4)
80102504:	0b008b89 	lwl	t3,11(t4)
80102508:	08008b99 	lwr	t3,8(t4)
8010250c:	2300a9ab 	swl	t1,35(sp)
80102510:	2000a9bb 	swr	t1,32(sp)
80102514:	2700aaab 	swl	t2,39(sp)
80102518:	2400aabb 	swr	t2,36(sp)
8010251c:	2b00abab 	swl	t3,43(sp)
80102520:	2800abbb 	swr	t3,40(sp)
80102524:	0f008989 	lwl	t1,15(t4)
80102528:	0c008999 	lwr	t1,12(t4)
8010252c:	13008a89 	lwl	t2,19(t4)
80102530:	10008a99 	lwr	t2,16(t4)
80102534:	2f00a9ab 	swl	t1,47(sp)
80102538:	2c00a9bb 	swr	t1,44(sp)
8010253c:	3300aaab 	swl	t2,51(sp)
80102540:	3000aabb 	swr	t2,48(sp)
80102544:	21008290 	lbu	v0,33(a0)
80102548:	00000000 	nop
8010254c:	08004230 	andi	v0,v0,0x8
80102550:	04004010 	beqz	v0,0x80102564
80102554:	21280000 	move	a1,zero
80102558:	d1000224 	li	v0,209
8010255c:	1000a2a7 	sh	v0,16(sp)
80102560:	01000524 	li	a1,1
80102564:	21008290 	lbu	v0,33(a0)
80102568:	00000000 	nop
8010256c:	02004230 	andi	v0,v0,0x2
80102570:	05004010 	beqz	v0,0x80102588
80102574:	40100500 	sll	v0,a1,0x1
80102578:	2118a203 	addu	v1,sp,v0
8010257c:	39000224 	li	v0,57
80102580:	100062a4 	sh	v0,16(v1)
80102584:	0100a524 	addiu	a1,a1,1
80102588:	21008290 	lbu	v0,33(a0)
8010258c:	00000000 	nop
80102590:	01004230 	andi	v0,v0,0x1
80102594:	05004010 	beqz	v0,0x801025ac
80102598:	40100500 	sll	v0,a1,0x1
8010259c:	2118a203 	addu	v1,sp,v0
801025a0:	3a000224 	li	v0,58
801025a4:	100062a4 	sh	v0,16(v1)
801025a8:	0100a524 	addiu	a1,a1,1
801025ac:	21008290 	lbu	v0,33(a0)
801025b0:	00000000 	nop
801025b4:	04004230 	andi	v0,v0,0x4
801025b8:	05004010 	beqz	v0,0x801025d0
801025bc:	40100500 	sll	v0,a1,0x1
801025c0:	2118a203 	addu	v1,sp,v0
801025c4:	3b000224 	li	v0,59
801025c8:	100062a4 	sh	v0,16(v1)
801025cc:	0100a524 	addiu	a1,a1,1
801025d0:	24008294 	lhu	v0,36(a0)
801025d4:	00000000 	nop
801025d8:	00024230 	andi	v0,v0,0x200
801025dc:	05004010 	beqz	v0,0x801025f4
801025e0:	40100500 	sll	v0,a1,0x1
801025e4:	2118a203 	addu	v1,sp,v0
801025e8:	d0000224 	li	v0,208
801025ec:	100062a4 	sh	v0,16(v1)
801025f0:	0100a524 	addiu	a1,a1,1
801025f4:	2000828c 	lw	v0,32(a0)
801025f8:	00000000 	nop
801025fc:	00304230 	andi	v0,v0,0x3000
80102600:	05004010 	beqz	v0,0x80102618
80102604:	40100500 	sll	v0,a1,0x1
80102608:	2118a203 	addu	v1,sp,v0
8010260c:	15010224 	li	v0,277
80102610:	100062a4 	sh	v0,16(v1)
80102614:	0100a524 	addiu	a1,a1,1
80102618:	2100a014 	bnez	a1,0x801026a0
8010261c:	ffffb024 	addiu	s0,a1,-1
80102620:	38000324 	li	v1,56
80102624:	f8008626 	addiu	a2,s4,248
80102628:	01000224 	li	v0,1
8010262c:	0200c216 	bne	s6,v0,0x80102638
80102630:	1000a726 	addiu	a3,s5,16
80102634:	38800324 	li	v1,-32712
80102638:	00806230 	andi	v0,v1,0x8000
8010263c:	03004010 	beqz	v0,0x8010264c
80102640:	20000224 	li	v0,32
80102644:	94310608 	j	0x8018c650
80102648:	3800a2a3 	sb	v0,56(sp)
8010264c:	3800a0a3 	sb	zero,56(sp)
80102650:	4000a427 	addiu	a0,sp,64
80102654:	05000224 	li	v0,5
80102658:	38006330 	andi	v1,v1,0x38
8010265c:	3900a2a3 	sb	v0,57(sp)
80102660:	0180023c 	lui	v0,0x8001
80102664:	34734224 	addiu	v0,v0,29492
80102668:	80180300 	sll	v1,v1,0x2
8010266c:	21186200 	addu	v1,v1,v0
80102670:	0f80023c 	lui	v0,0x800f
80102674:	3a00a0a7 	sh	zero,58(sp)
80102678:	4600a0a7 	sh	zero,70(sp)
8010267c:	4400a0a7 	sh	zero,68(sp)
80102680:	4000a6a7 	sh	a2,64(sp)
80102684:	4200a7a7 	sh	a3,66(sp)
80102688:	0000658c 	lw	a1,0(v1)
8010268c:	58cf468c 	lw	a2,-12456(v0)
80102690:	b7f9010c 	jal	0x8007e6dc
80102694:	3800a727 	addiu	a3,sp,56
80102698:	d8310608 	j	0x8018c760
8010269c:	00000000 	nop
801026a0:	2f000006 	bltz	s0,0x80102760
801026a4:	0180023c 	lui	v0,0x8001
801026a8:	34735e24 	addiu	s8,v0,29492
801026ac:	0f80173c 	lui	s7,0x800f
801026b0:	80101000 	sll	v0,s0,0x2
801026b4:	02005224 	addiu	s2,v0,2
801026b8:	2000b327 	addiu	s3,sp,32
801026bc:	21885300 	addu	s1,v0,s3
801026c0:	40101000 	sll	v0,s0,0x1
801026c4:	2110a203 	addu	v0,sp,v0
801026c8:	10004494 	lhu	a0,16(v0)
801026cc:	21107202 	addu	v0,s3,s2
801026d0:	00002396 	lhu	v1,0(s1)
801026d4:	00004294 	lhu	v0,0(v0)
801026d8:	00000000 	nop
801026dc:	21285500 	addu	a1,v0,s5
801026e0:	01000224 	li	v0,1
801026e4:	0200c216 	bne	s6,v0,0x801026f0
801026e8:	21187400 	addu	v1,v1,s4
801026ec:	00808434 	ori	a0,a0,0x8000
801026f0:	2130a000 	move	a2,a1
801026f4:	21288000 	move	a1,a0
801026f8:	0080a230 	andi	v0,a1,0x8000
801026fc:	04004010 	beqz	v0,0x80102710
80102700:	05000824 	li	t0,5
80102704:	20000224 	li	v0,32
80102708:	c5310608 	j	0x8018c714
8010270c:	3800a2a3 	sb	v0,56(sp)
80102710:	3800a0a3 	sb	zero,56(sp)
80102714:	4000a427 	addiu	a0,sp,64
80102718:	3800a727 	addiu	a3,sp,56
8010271c:	fcff5226 	addiu	s2,s2,-4
80102720:	fcff3126 	addiu	s1,s1,-4
80102724:	ff0fa230 	andi	v0,a1,0xfff
80102728:	80100200 	sll	v0,v0,0x2
8010272c:	21105e00 	addu	v0,v0,s8
80102730:	3900a8a3 	sb	t0,57(sp)
80102734:	3a00a0a7 	sh	zero,58(sp)
80102738:	4600a0a7 	sh	zero,70(sp)
8010273c:	4400a0a7 	sh	zero,68(sp)
80102740:	4000a3a7 	sh	v1,64(sp)
80102744:	4200a6a7 	sh	a2,66(sp)
80102748:	0000458c 	lw	a1,0(v0)
8010274c:	58cfe68e 	lw	a2,-12456(s7)
80102750:	b7f9010c 	jal	0x8007e6dc
80102754:	ffff1026 	addiu	s0,s0,-1
80102758:	daff0106 	bgez	s0,0x801026c4
8010275c:	40101000 	sll	v0,s0,0x1
80102760:	6c00bf8f 	lw	ra,108(sp)
80102764:	6800be8f 	lw	s8,104(sp)
80102768:	6400b78f 	lw	s7,100(sp)
8010276c:	6000b68f 	lw	s6,96(sp)
80102770:	5c00b58f 	lw	s5,92(sp)
80102774:	5800b48f 	lw	s4,88(sp)
80102778:	5400b38f 	lw	s3,84(sp)
8010277c:	5000b28f 	lw	s2,80(sp)
80102780:	4c00b18f 	lw	s1,76(sp)
80102784:	4800b08f 	lw	s0,72(sp)
80102788:	0800e003 	jr	ra
8010278c:	7000bd27 	addiu	sp,sp,112
80102790:	a0ffbd27 	addiu	sp,sp,-96
80102794:	4c00b5af 	sw	s5,76(sp)
80102798:	21a88000 	move	s5,a0
8010279c:	5400b7af 	sw	s7,84(sp)
801027a0:	21b8a000 	move	s7,a1
801027a4:	4800b4af 	sw	s4,72(sp)
801027a8:	21a0e000 	move	s4,a3
801027ac:	5800beaf 	sw	s8,88(sp)
801027b0:	21f00000 	move	s8,zero
801027b4:	3c00b1af 	sw	s1,60(sp)
801027b8:	01001124 	li	s1,1
801027bc:	5c00bfaf 	sw	ra,92(sp)
801027c0:	5000b6af 	sw	s6,80(sp)
801027c4:	4400b3af 	sw	s3,68(sp)
801027c8:	4000b2af 	sw	s2,64(sp)
801027cc:	3800b0af 	sw	s0,56(sp)
801027d0:	0200d114 	bne	a2,s1,0x801027dc
801027d4:	6800a6af 	sw	a2,104(sp)
801027d8:	06001e24 	li	s8,6
801027dc:	1080023c 	lui	v0,0x8010
801027e0:	b8035324 	addiu	s3,v0,952
801027e4:	21206002 	move	a0,s3
801027e8:	1980053c 	lui	a1,0x8019
801027ec:	00008692 	lbu	a2,0(s4)
801027f0:	dca0a524 	addiu	a1,a1,-24356
801027f4:	306c020c 	jal	0x8009b0c0
801027f8:	0100c624 	addiu	a2,a2,1
801027fc:	0400a426 	addiu	a0,s5,4
80102800:	00240400 	sll	a0,a0,0x10
80102804:	03240400 	sra	a0,a0,0x10
80102808:	0a00e226 	addiu	v0,s7,10
8010280c:	00140200 	sll	v0,v0,0x10
80102810:	03840200 	sra	s0,v0,0x10
80102814:	21280002 	move	a1,s0
80102818:	2190c003 	move	s2,s8
8010281c:	21304002 	move	a2,s2
80102820:	21386002 	move	a3,s3
80102824:	05001624 	li	s6,5
80102828:	dde4010c 	jal	0x80079374
8010282c:	1000b6af 	sw	s6,16(sp)
80102830:	02008992 	lbu	t1,2(s4)
80102834:	00000000 	nop
80102838:	00013115 	bne	t1,s1,0x80102c3c
8010283c:	3000a9af 	sw	t1,48(sp)
80102840:	6d02043c 	lui	a0,0x26d
80102844:	3400838e 	lw	v1,52(s4)
80102848:	dd608434 	ori	a0,a0,0x60dd
8010284c:	0610c302 	srlv	v0,v1,s6
80102850:	19004400 	multu	v0,a0
80102854:	10400000 	mfhi	t0
80102858:	a291023c 	lui	v0,0x91a2
8010285c:	c5b34234 	ori	v0,v0,0xb3c5
80102860:	19006200 	multu	v1,v0
80102864:	10300000 	mfhi	a2
80102868:	8888023c 	lui	v0,0x8888
8010286c:	89884234 	ori	v0,v0,0x8889
80102870:	19006200 	multu	v1,v0
80102874:	6210113c 	lui	s1,0x1062
80102878:	d34d3136 	ori	s1,s1,0x4dd3
8010287c:	1980053c 	lui	a1,0x8019
80102880:	e4a0a524 	addiu	a1,a1,-24348
80102884:	10100000 	mfhi	v0
80102888:	21206002 	move	a0,s3
8010288c:	0640c802 	srlv	t0,t0,s6
80102890:	19001101 	multu	t0,s1
80102894:	00390800 	sll	a3,t0,0x4
80102898:	2338e800 	subu	a3,a3,t0
8010289c:	80380700 	sll	a3,a3,0x2
801028a0:	82320600 	srl	a2,a2,0xa
801028a4:	2338c700 	subu	a3,a2,a3
801028a8:	02190200 	srl	v1,v0,0x4
801028ac:	00110600 	sll	v0,a2,0x4
801028b0:	23104600 	subu	v0,v0,a2
801028b4:	80100200 	sll	v0,v0,0x2
801028b8:	23186200 	subu	v1,v1,v0
801028bc:	1000a3af 	sw	v1,16(sp)
801028c0:	10580000 	mfhi	t3
801028c4:	82110b00 	srl	v0,t3,0x6
801028c8:	0430c202 	sllv	a2,v0,s6
801028cc:	2330c200 	subu	a2,a2,v0
801028d0:	80300600 	sll	a2,a2,0x2
801028d4:	2130c200 	addu	a2,a2,v0
801028d8:	c0300600 	sll	a2,a2,0x3
801028dc:	306c020c 	jal	0x8009b0c0
801028e0:	23300601 	subu	a2,t0,a2
801028e4:	1800b026 	addiu	s0,s5,24
801028e8:	00841000 	sll	s0,s0,0x10
801028ec:	03841000 	sra	s0,s0,0x10
801028f0:	21200002 	move	a0,s0
801028f4:	0200e526 	addiu	a1,s7,2
801028f8:	002c0500 	sll	a1,a1,0x10
801028fc:	032c0500 	sra	a1,a1,0x10
80102900:	21304002 	move	a2,s2
80102904:	21386002 	move	a3,s3
80102908:	dde4010c 	jal	0x80079374
8010290c:	1000b6af 	sw	s6,16(sp)
80102910:	21206002 	move	a0,s3
80102914:	1980053c 	lui	a1,0x8019
80102918:	3800868e 	lw	a2,56(s4)
8010291c:	306c020c 	jal	0x8009b0c0
80102920:	f4a0a524 	addiu	a1,a1,-24332
80102924:	21200002 	move	a0,s0
80102928:	1400e526 	addiu	a1,s7,20
8010292c:	002c0500 	sll	a1,a1,0x10
80102930:	032c0500 	sra	a1,a1,0x10
80102934:	21304002 	move	a2,s2
80102938:	21386002 	move	a3,s3
8010293c:	c9e4010c 	jal	0x80079324
80102940:	1000b6af 	sw	s6,16(sp)
80102944:	b000b026 	addiu	s0,s5,176
80102948:	00841000 	sll	s0,s0,0x10
8010294c:	03841000 	sra	s0,s0,0x10
80102950:	21200002 	move	a0,s0
80102954:	002c1700 	sll	a1,s7,0x10
80102958:	032c0500 	sra	a1,a1,0x10
8010295c:	21304002 	move	a2,s2
80102960:	1980073c 	lui	a3,0x8019
80102964:	fca0e724 	addiu	a3,a3,-24324
80102968:	c9e4010c 	jal	0x80079324
8010296c:	1000b6af 	sw	s6,16(sp)
80102970:	30008696 	lhu	a2,48(s4)
80102974:	00000000 	nop
80102978:	1900d100 	multu	a2,s1
8010297c:	10180000 	mfhi	v1
80102980:	32008796 	lhu	a3,50(s4)
80102984:	00000000 	nop
80102988:	1900f100 	multu	a3,s1
8010298c:	21206002 	move	a0,s3
80102990:	1980053c 	lui	a1,0x8019
80102994:	04a1a524 	addiu	a1,a1,-24316
80102998:	82190300 	srl	v1,v1,0x6
8010299c:	0410c302 	sllv	v0,v1,s6
801029a0:	23104300 	subu	v0,v0,v1
801029a4:	80100200 	sll	v0,v0,0x2
801029a8:	21104300 	addu	v0,v0,v1
801029ac:	c0100200 	sll	v0,v0,0x3
801029b0:	2330c200 	subu	a2,a2,v0
801029b4:	ffffc630 	andi	a2,a2,0xffff
801029b8:	10400000 	mfhi	t0
801029bc:	82190800 	srl	v1,t0,0x6
801029c0:	0410c302 	sllv	v0,v1,s6
801029c4:	23104300 	subu	v0,v0,v1
801029c8:	80100200 	sll	v0,v0,0x2
801029cc:	21104300 	addu	v0,v0,v1
801029d0:	c0100200 	sll	v0,v0,0x3
801029d4:	2338e200 	subu	a3,a3,v0
801029d8:	306c020c 	jal	0x8009b0c0
801029dc:	ffffe730 	andi	a3,a3,0xffff
801029e0:	21200002 	move	a0,s0
801029e4:	0800f026 	addiu	s0,s7,8
801029e8:	002c1000 	sll	a1,s0,0x10
801029ec:	032c0500 	sra	a1,a1,0x10
801029f0:	21304002 	move	a2,s2
801029f4:	21386002 	move	a3,s3
801029f8:	c9e4010c 	jal	0x80079324
801029fc:	1000b6af 	sw	s6,16(sp)
80102a00:	21208002 	move	a0,s4
80102a04:	2130a002 	move	a2,s5
80102a08:	6800a58f 	lw	a1,104(sp)
80102a0c:	2d31060c 	jal	0x8018c4b4
80102a10:	2138e002 	move	a3,s7
80102a14:	27008292 	lbu	v0,39(s4)
80102a18:	00000000 	nop
80102a1c:	76004010 	beqz	v0,0x80102bf8
80102a20:	db000224 	li	v0,219
80102a24:	6800a98f 	lw	t1,104(sp)
80102a28:	3000aa8f 	lw	t2,48(sp)
80102a2c:	00000000 	nop
80102a30:	02002a15 	bne	t1,t2,0x80102a3c
80102a34:	7000a426 	addiu	a0,s5,112
80102a38:	db800224 	li	v0,-32549
80102a3c:	21308000 	move	a2,a0
80102a40:	21184000 	move	v1,v0
80102a44:	00806230 	andi	v0,v1,0x8000
80102a48:	04004010 	beqz	v0,0x80102a5c
80102a4c:	21280002 	move	a1,s0
80102a50:	20000224 	li	v0,32
80102a54:	98320608 	j	0x8018ca60
80102a58:	2000a2a3 	sb	v0,32(sp)
80102a5c:	2000a0a3 	sb	zero,32(sp)
80102a60:	2800a427 	addiu	a0,sp,40
80102a64:	2000a727 	addiu	a3,sp,32
80102a68:	05000224 	li	v0,5
80102a6c:	db006330 	andi	v1,v1,0xdb
80102a70:	2100a2a3 	sb	v0,33(sp)
80102a74:	0180023c 	lui	v0,0x8001
80102a78:	34734224 	addiu	v0,v0,29492
80102a7c:	80180300 	sll	v1,v1,0x2
80102a80:	21186200 	addu	v1,v1,v0
80102a84:	0f80023c 	lui	v0,0x800f
80102a88:	2200a0a7 	sh	zero,34(sp)
80102a8c:	2e00a0a7 	sh	zero,46(sp)
80102a90:	2c00a0a7 	sh	zero,44(sp)
80102a94:	2800a6a7 	sh	a2,40(sp)
80102a98:	2a00a5a7 	sh	a1,42(sp)
80102a9c:	0000658c 	lw	a1,0(v1)
80102aa0:	58cf468c 	lw	a2,-12456(v0)
80102aa4:	b7f9010c 	jal	0x8007e6dc
80102aa8:	21880000 	move	s1,zero
80102aac:	1080103c 	lui	s0,0x8010
80102ab0:	b8031026 	addiu	s0,s0,952
80102ab4:	21200002 	move	a0,s0
80102ab8:	1980053c 	lui	a1,0x8019
80102abc:	27008692 	lbu	a2,39(s4)
80102ac0:	306c020c 	jal	0x8009b0c0
80102ac4:	0ca1a524 	addiu	a1,a1,-24308
80102ac8:	7c00a426 	addiu	a0,s5,124
80102acc:	00240400 	sll	a0,a0,0x10
80102ad0:	03240400 	sra	a0,a0,0x10
80102ad4:	0200e526 	addiu	a1,s7,2
80102ad8:	002c0500 	sll	a1,a1,0x10
80102adc:	032c0500 	sra	a1,a1,0x10
80102ae0:	2130c003 	move	a2,s8
80102ae4:	21380002 	move	a3,s0
80102ae8:	05000224 	li	v0,5
80102aec:	dde4010c 	jal	0x80079374
80102af0:	1000a2af 	sw	v0,16(sp)
80102af4:	21180000 	move	v1,zero
80102af8:	21108302 	addu	v0,s4,v1
80102afc:	28004290 	lbu	v0,40(v0)
80102b00:	00000000 	nop
80102b04:	80004230 	andi	v0,v0,0x80
80102b08:	02004010 	beqz	v0,0x80102b14
80102b0c:	00000000 	nop
80102b10:	01003126 	addiu	s1,s1,1
80102b14:	01006324 	addiu	v1,v1,1
80102b18:	08006228 	slti	v0,v1,8
80102b1c:	f7ff4014 	bnez	v0,0x80102afc
80102b20:	21108302 	addu	v0,s4,v1
80102b24:	00141100 	sll	v0,s1,0x10
80102b28:	33004010 	beqz	v0,0x80102bf8
80102b2c:	3d010324 	li	v1,317
80102b30:	9400a426 	addiu	a0,s5,148
80102b34:	6800a98f 	lw	t1,104(sp)
80102b38:	01000224 	li	v0,1
80102b3c:	02002215 	bne	t1,v0,0x80102b48
80102b40:	0800e526 	addiu	a1,s7,8
80102b44:	3d810324 	li	v1,-32451
80102b48:	00806230 	andi	v0,v1,0x8000
80102b4c:	04004010 	beqz	v0,0x80102b60
80102b50:	21308000 	move	a2,a0
80102b54:	20000224 	li	v0,32
80102b58:	d9320608 	j	0x8018cb64
80102b5c:	2000a2a3 	sb	v0,32(sp)
80102b60:	2000a0a3 	sb	zero,32(sp)
80102b64:	2800a427 	addiu	a0,sp,40
80102b68:	05000224 	li	v0,5
80102b6c:	3d016330 	andi	v1,v1,0x13d
80102b70:	2100a2a3 	sb	v0,33(sp)
80102b74:	0180023c 	lui	v0,0x8001
80102b78:	34734224 	addiu	v0,v0,29492
80102b7c:	80180300 	sll	v1,v1,0x2
80102b80:	21186200 	addu	v1,v1,v0
80102b84:	0f80023c 	lui	v0,0x800f
80102b88:	2200a0a7 	sh	zero,34(sp)
80102b8c:	2e00a0a7 	sh	zero,46(sp)
80102b90:	2c00a0a7 	sh	zero,44(sp)
80102b94:	2800a6a7 	sh	a2,40(sp)
80102b98:	2a00a5a7 	sh	a1,42(sp)
80102b9c:	0000658c 	lw	a1,0(v1)
80102ba0:	58cf468c 	lw	a2,-12456(v0)
80102ba4:	b7f9010c 	jal	0x8007e6dc
80102ba8:	2000a727 	addiu	a3,sp,32
80102bac:	1080103c 	lui	s0,0x8010
80102bb0:	b8031026 	addiu	s0,s0,952
80102bb4:	21200002 	move	a0,s0
80102bb8:	1980053c 	lui	a1,0x8019
80102bbc:	0ca1a524 	addiu	a1,a1,-24308
80102bc0:	00341100 	sll	a2,s1,0x10
80102bc4:	306c020c 	jal	0x8009b0c0
80102bc8:	03340600 	sra	a2,a2,0x10
80102bcc:	a000a426 	addiu	a0,s5,160
80102bd0:	00240400 	sll	a0,a0,0x10
80102bd4:	03240400 	sra	a0,a0,0x10
80102bd8:	0200e526 	addiu	a1,s7,2
80102bdc:	002c0500 	sll	a1,a1,0x10
80102be0:	032c0500 	sra	a1,a1,0x10
80102be4:	2130c003 	move	a2,s8
80102be8:	21380002 	move	a3,s0
80102bec:	05000224 	li	v0,5
80102bf0:	dde4010c 	jal	0x80079374
80102bf4:	1000a2af 	sw	v0,16(sp)
80102bf8:	22008492 	lbu	a0,34(s4)
80102bfc:	23008592 	lbu	a1,35(s4)
80102c00:	e6e1010c 	jal	0x80078798
80102c04:	00000000 	nop
80102c08:	7800a426 	addiu	a0,s5,120
80102c0c:	00240400 	sll	a0,a0,0x10
80102c10:	03240400 	sra	a0,a0,0x10
80102c14:	1000e526 	addiu	a1,s7,16
80102c18:	002c0500 	sll	a1,a1,0x10
80102c1c:	032c0500 	sra	a1,a1,0x10
80102c20:	2130c003 	move	a2,s8
80102c24:	21384000 	move	a3,v0
80102c28:	05000224 	li	v0,5
80102c2c:	c9e4010c 	jal	0x80079324
80102c30:	1000a2af 	sw	v0,16(sp)
80102c34:	19330608 	j	0x8018cc64
80102c38:	40000524 	li	a1,64
80102c3c:	1000b6af 	sw	s6,16(sp)
80102c40:	7800a426 	addiu	a0,s5,120
80102c44:	00240400 	sll	a0,a0,0x10
80102c48:	03240400 	sra	a0,a0,0x10
80102c4c:	21280002 	move	a1,s0
80102c50:	21304002 	move	a2,s2
80102c54:	1980073c 	lui	a3,0x8019
80102c58:	dde4010c 	jal	0x80079374
80102c5c:	10a1e724 	addiu	a3,a3,-24304
80102c60:	40000524 	li	a1,64
80102c64:	6800aa8f 	lw	t2,104(sp)
80102c68:	08010224 	li	v0,264
80102c6c:	1c00a2a7 	sh	v0,28(sp)
80102c70:	20000224 	li	v0,32
80102c74:	1e00a2a7 	sh	v0,30(sp)
80102c78:	01000224 	li	v0,1
80102c7c:	1800b5a7 	sh	s5,24(sp)
80102c80:	02004215 	bne	t2,v0,0x80102c8c
80102c84:	1a00b7a7 	sh	s7,26(sp)
80102c88:	60000524 	li	a1,96
80102c8c:	1800a427 	addiu	a0,sp,24
80102c90:	21300000 	move	a2,zero
80102c94:	6740010c 	jal	0x8005019c
80102c98:	05000724 	li	a3,5
80102c9c:	5c00bf8f 	lw	ra,92(sp)
80102ca0:	5800be8f 	lw	s8,88(sp)
80102ca4:	5400b78f 	lw	s7,84(sp)
80102ca8:	5000b68f 	lw	s6,80(sp)
80102cac:	4c00b58f 	lw	s5,76(sp)
80102cb0:	4800b48f 	lw	s4,72(sp)
80102cb4:	4400b38f 	lw	s3,68(sp)
80102cb8:	4000b28f 	lw	s2,64(sp)
80102cbc:	3c00b18f 	lw	s1,60(sp)
80102cc0:	3800b08f 	lw	s0,56(sp)
80102cc4:	0800e003 	jr	ra
80102cc8:	6000bd27 	addiu	sp,sp,96
80102ccc:	c0ffbd27 	addiu	sp,sp,-64
80102cd0:	3c00bfaf 	sw	ra,60(sp)
80102cd4:	3800b4af 	sw	s4,56(sp)
80102cd8:	3400b3af 	sw	s3,52(sp)
80102cdc:	3000b2af 	sw	s2,48(sp)
80102ce0:	2c00b1af 	sw	s1,44(sp)
80102ce4:	2800b0af 	sw	s0,40(sp)
80102ce8:	2e000224 	li	v0,46
80102cec:	1800a2a7 	sh	v0,24(sp)
80102cf0:	0c80023c 	lui	v0,0x800c
80102cf4:	a4f4438c 	lw	v1,-2908(v0)
80102cf8:	2f000224 	li	v0,47
80102cfc:	1a00a2a7 	sh	v0,26(sp)
80102d00:	00006290 	lbu	v0,0(v1)
80102d04:	00000000 	nop
80102d08:	45004014 	bnez	v0,0x80102e20
80102d0c:	21988000 	move	s3,a0
80102d10:	21880000 	move	s1,zero
80102d14:	0a80023c 	lui	v0,0x800a
80102d18:	54285424 	addiu	s4,v0,10324
80102d1c:	10000224 	li	v0,16
80102d20:	2600a2a7 	sh	v0,38(sp)
80102d24:	64000224 	li	v0,100
80102d28:	2400a0a7 	sh	zero,36(sp)
80102d2c:	2200a2a7 	sh	v0,34(sp)
80102d30:	21107102 	addu	v0,s3,s1
80102d34:	4a004290 	lbu	v0,74(v0)
80102d38:	00000000 	nop
80102d3c:	0300422c 	sltiu	v0,v0,3
80102d40:	33004010 	beqz	v0,0x80102e10
80102d44:	40101100 	sll	v0,s1,0x1
80102d48:	2110a203 	addu	v0,sp,v0
80102d4c:	18004284 	lh	v0,24(v0)
80102d50:	00000000 	nop
80102d54:	80100200 	sll	v0,v0,0x2
80102d58:	21105400 	addu	v0,v0,s4
80102d5c:	0000508c 	lw	s0,0(v0)
80102d60:	8069020c 	jal	0x8009a600
80102d64:	21200002 	move	a0,s0
80102d68:	80100200 	sll	v0,v0,0x2
80102d6c:	50000324 	li	v1,80
80102d70:	23106200 	subu	v0,v1,v0
80102d74:	03002012 	beqz	s1,0x80102d84
80102d78:	2000a2a7 	sh	v0,32(sp)
80102d7c:	a0004224 	addiu	v0,v0,160
80102d80:	2000a2a7 	sh	v0,32(sp)
80102d84:	64000224 	li	v0,100
80102d88:	2200a2a7 	sh	v0,34(sp)
80102d8c:	2400a0a7 	sh	zero,36(sp)
80102d90:	44006392 	lbu	v1,68(s3)
80102d94:	01002226 	addiu	v0,s1,1
80102d98:	04006214 	bne	v1,v0,0x80102dac
80102d9c:	06000624 	li	a2,6
80102da0:	21300000 	move	a2,zero
80102da4:	6c330608 	j	0x8018cdb0
80102da8:	40001224 	li	s2,64
80102dac:	60001224 	li	s2,96
80102db0:	21380002 	move	a3,s0
80102db4:	2000a497 	lhu	a0,32(sp)
80102db8:	2400a397 	lhu	v1,36(sp)
80102dbc:	2200a587 	lh	a1,34(sp)
80102dc0:	03000224 	li	v0,3
80102dc4:	1000a2af 	sw	v0,16(sp)
80102dc8:	21208300 	addu	a0,a0,v1
80102dcc:	00240400 	sll	a0,a0,0x10
80102dd0:	dde4010c 	jal	0x80079374
80102dd4:	03240400 	sra	a0,a0,0x10
80102dd8:	2400a297 	lhu	v0,36(sp)
80102ddc:	21200002 	move	a0,s0
80102de0:	40100200 	sll	v0,v0,0x1
80102de4:	8069020c 	jal	0x8009a600
80102de8:	2400a2a7 	sh	v0,36(sp)
80102dec:	2000a427 	addiu	a0,sp,32
80102df0:	21284002 	move	a1,s2
80102df4:	21300000 	move	a2,zero
80102df8:	03000724 	li	a3,3
80102dfc:	2400a397 	lhu	v1,36(sp)
80102e00:	0410e200 	sllv	v0,v0,a3
80102e04:	21186200 	addu	v1,v1,v0
80102e08:	6740010c 	jal	0x8005019c
80102e0c:	2400a3a7 	sh	v1,36(sp)
80102e10:	01003126 	addiu	s1,s1,1
80102e14:	0200222a 	slti	v0,s1,2
80102e18:	c6ff4014 	bnez	v0,0x80102d34
80102e1c:	21107102 	addu	v0,s3,s1
80102e20:	3c00bf8f 	lw	ra,60(sp)
80102e24:	3800b48f 	lw	s4,56(sp)
80102e28:	3400b38f 	lw	s3,52(sp)
80102e2c:	3000b28f 	lw	s2,48(sp)
80102e30:	2c00b18f 	lw	s1,44(sp)
80102e34:	2800b08f 	lw	s0,40(sp)
80102e38:	0800e003 	jr	ra
80102e3c:	4000bd27 	addiu	sp,sp,64
80102e40:	b8ffbd27 	addiu	sp,sp,-72
80102e44:	3400b3af 	sw	s3,52(sp)
80102e48:	21988000 	move	s3,a0
80102e4c:	0c80063c 	lui	a2,0x800c
80102e50:	40010224 	li	v0,320
80102e54:	1400a2a7 	sh	v0,20(sp)
80102e58:	f0000224 	li	v0,240
80102e5c:	1600a2a7 	sh	v0,22(sp)
80102e60:	801f023c 	lui	v0,0x1f80
80102e64:	2800b0af 	sw	s0,40(sp)
80102e68:	44f5d08c 	lw	s0,-2748(a2)
80102e6c:	35014290 	lbu	v0,309(v0)
80102e70:	1000a527 	addiu	a1,sp,16
80102e74:	4000bfaf 	sw	ra,64(sp)
80102e78:	3c00b5af 	sw	s5,60(sp)
80102e7c:	3800b4af 	sw	s4,56(sp)
80102e80:	3000b2af 	sw	s2,48(sp)
80102e84:	2c00b1af 	sw	s1,44(sp)
80102e88:	1000a0a7 	sh	zero,16(sp)
80102e8c:	21200002 	move	a0,s0
80102e90:	0c000326 	addiu	v1,s0,12
80102e94:	00120200 	sll	v0,v0,0x8
80102e98:	44f5c3ac 	sw	v1,-2748(a2)
80102e9c:	3e07020c 	jal	0x80081cf8
80102ea0:	1200a2a7 	sh	v0,18(sp)
80102ea4:	0f80023c 	lui	v0,0x800f
80102ea8:	c8d8448c 	lw	a0,-10040(v0)
80102eac:	00000000 	nop
80102eb0:	1400828c 	lw	v0,20(a0)
80102eb4:	0002033c 	lui	v1,0x200
80102eb8:	25104300 	or	v0,v0,v1
80102ebc:	000002ae 	sw	v0,0(s0)
80102ec0:	140090ac 	sw	s0,20(a0)
80102ec4:	0800748e 	lw	s4,8(s3)
80102ec8:	56006286 	lh	v0,86(s3)
80102ecc:	00000000 	nop
80102ed0:	6f004010 	beqz	v0,0x80103090
80102ed4:	00000000 	nop
80102ed8:	58006296 	lhu	v0,88(s3)
80102edc:	00000000 	nop
80102ee0:	01004224 	addiu	v0,v0,1
80102ee4:	580062a6 	sh	v0,88(s3)
80102ee8:	00140200 	sll	v0,v0,0x10
80102eec:	03140200 	sra	v0,v0,0x10
80102ef0:	09004228 	slti	v0,v0,9
80102ef4:	02004014 	bnez	v0,0x80102f00
80102ef8:	08000224 	li	v0,8
80102efc:	580062a6 	sh	v0,88(s3)
80102f00:	56006286 	lh	v0,86(s3)
80102f04:	54006386 	lh	v1,84(s3)
80102f08:	00000000 	nop
80102f0c:	2a104300 	slt	v0,v0,v1
80102f10:	56006396 	lhu	v1,86(s3)
80102f14:	24004010 	beqz	v0,0x80102fa8
80102f18:	00000000 	nop
80102f1c:	58006296 	lhu	v0,88(s3)
80102f20:	00000000 	nop
80102f24:	21106200 	addu	v0,v1,v0
80102f28:	560062a6 	sh	v0,86(s3)
80102f2c:	00140200 	sll	v0,v0,0x10
80102f30:	54006386 	lh	v1,84(s3)
80102f34:	03140200 	sra	v0,v0,0x10
80102f38:	2a104300 	slt	v0,v0,v1
80102f3c:	42004014 	bnez	v0,0x80103048
80102f40:	00000000 	nop
80102f44:	47006292 	lbu	v0,71(s3)
80102f48:	00000000 	nop
80102f4c:	ffff4324 	addiu	v1,v0,-1
80102f50:	0f80023c 	lui	v0,0x800f
80102f54:	470063a2 	sb	v1,71(s3)
80102f58:	54cf4294 	lhu	v0,-12460(v0)
80102f5c:	00000000 	nop
80102f60:	10004230 	andi	v0,v0,0x10
80102f64:	36004010 	beqz	v0,0x80103040
80102f68:	ff006230 	andi	v0,v1,0xff
80102f6c:	34004010 	beqz	v0,0x80103040
80102f70:	15000424 	li	a0,21
80102f74:	21280000 	move	a1,zero
80102f78:	64d1010c 	jal	0x80074590
80102f7c:	2130a000 	move	a2,a1
80102f80:	0c80033c 	lui	v1,0x800c
80102f84:	98f46324 	addiu	v1,v1,-2920
80102f88:	47006492 	lbu	a0,71(s3)
80102f8c:	20000224 	li	v0,32
80102f90:	560062a4 	sh	v0,86(v1)
80102f94:	50000224 	li	v0,80
80102f98:	540062a4 	sh	v0,84(v1)
80102f9c:	ffff8424 	addiu	a0,a0,-1
80102fa0:	12340608 	j	0x8018d048
80102fa4:	520064a0 	sb	a0,82(v1)
80102fa8:	58006296 	lhu	v0,88(s3)
80102fac:	00000000 	nop
80102fb0:	23106200 	subu	v0,v1,v0
80102fb4:	560062a6 	sh	v0,86(s3)
80102fb8:	00140200 	sll	v0,v0,0x10
80102fbc:	54006386 	lh	v1,84(s3)
80102fc0:	03140200 	sra	v0,v0,0x10
80102fc4:	2a186200 	slt	v1,v1,v0
80102fc8:	1f006014 	bnez	v1,0x80103048
80102fcc:	00000000 	nop
80102fd0:	47006292 	lbu	v0,71(s3)
80102fd4:	00000000 	nop
80102fd8:	01004224 	addiu	v0,v0,1
80102fdc:	470062a2 	sb	v0,71(s3)
80102fe0:	0f80023c 	lui	v0,0x800f
80102fe4:	54cf4294 	lhu	v0,-12460(v0)
80102fe8:	00000000 	nop
80102fec:	40004230 	andi	v0,v0,0x40
80102ff0:	13004010 	beqz	v0,0x80103040
80102ff4:	00000000 	nop
80102ff8:	00008286 	lh	v0,0(s4)
80102ffc:	47006392 	lbu	v1,71(s3)
80103000:	ffff4224 	addiu	v0,v0,-1
80103004:	2a186200 	slt	v1,v1,v0
80103008:	0d006010 	beqz	v1,0x80103040
8010300c:	15000424 	li	a0,21
80103010:	21280000 	move	a1,zero
80103014:	64d1010c 	jal	0x80074590
80103018:	2130a000 	move	a2,a1
8010301c:	0c80033c 	lui	v1,0x800c
80103020:	98f46324 	addiu	v1,v1,-2920
80103024:	47006492 	lbu	a0,71(s3)
80103028:	50000224 	li	v0,80
8010302c:	560062a4 	sh	v0,86(v1)
80103030:	20000224 	li	v0,32
80103034:	540062a4 	sh	v0,84(v1)
80103038:	12340608 	j	0x8018d048
8010303c:	520064a0 	sb	a0,82(v1)
80103040:	540060a6 	sh	zero,84(s3)
80103044:	560060a6 	sh	zero,86(s3)
80103048:	56006286 	lh	v0,86(s3)
8010304c:	56006596 	lhu	a1,86(s3)
80103050:	0f004010 	beqz	v0,0x80103090
80103054:	00000000 	nop
80103058:	00008286 	lh	v0,0(s4)
8010305c:	52006392 	lbu	v1,82(s3)
80103060:	00000000 	nop
80103064:	23804300 	subu	s0,v0,v1
80103068:	00110300 	sll	v0,v1,0x4
8010306c:	23104300 	subu	v0,v0,v1
80103070:	80100200 	sll	v0,v0,0x2
80103074:	04004224 	addiu	v0,v0,4
80103078:	21888202 	addu	s1,s4,v0
8010307c:	0400022a 	slti	v0,s0,4
80103080:	10004014 	bnez	v0,0x801030c4
80103084:	2190a000 	move	s2,a1
80103088:	31340608 	j	0x8018d0c4
8010308c:	04001024 	li	s0,4
80103090:	00008286 	lh	v0,0(s4)
80103094:	47006392 	lbu	v1,71(s3)
80103098:	00000000 	nop
8010309c:	23804300 	subu	s0,v0,v1
801030a0:	00110300 	sll	v0,v1,0x4
801030a4:	23104300 	subu	v0,v0,v1
801030a8:	80100200 	sll	v0,v0,0x2
801030ac:	04004224 	addiu	v0,v0,4
801030b0:	21888202 	addu	s1,s4,v0
801030b4:	0300022a 	slti	v0,s0,3
801030b8:	02004014 	bnez	v0,0x801030c4
801030bc:	50001224 	li	s2,80
801030c0:	03001024 	li	s0,3
801030c4:	ffff1026 	addiu	s0,s0,-1
801030c8:	ffff0224 	li	v0,-1
801030cc:	1a000212 	beq	s0,v0,0x80103138
801030d0:	1000a527 	addiu	a1,sp,16
801030d4:	21a84000 	move	s5,v0
801030d8:	56006286 	lh	v0,86(s3)
801030dc:	00000000 	nop
801030e0:	0b004014 	bnez	v0,0x80103110
801030e4:	01000624 	li	a2,1
801030e8:	47006392 	lbu	v1,71(s3)
801030ec:	00000000 	nop
801030f0:	00110300 	sll	v0,v1,0x4
801030f4:	23104300 	subu	v0,v0,v1
801030f8:	80100200 	sll	v0,v0,0x2
801030fc:	04004224 	addiu	v0,v0,4
80103100:	21108202 	addu	v0,s4,v0
80103104:	26102202 	xor	v0,s1,v0
80103108:	2b100200 	sltu	v0,zero,v0
8010310c:	21304000 	move	a2,v0
80103110:	20000424 	li	a0,32
80103114:	002c1200 	sll	a1,s2,0x10
80103118:	032c0500 	sra	a1,a1,0x10
8010311c:	e431060c 	jal	0x8018c790
80103120:	21382002 	move	a3,s1
80103124:	3c003126 	addiu	s1,s1,60
80103128:	ffff1026 	addiu	s0,s0,-1
8010312c:	eaff1516 	bne	s0,s5,0x801030d8
80103130:	30005226 	addiu	s2,s2,48
80103134:	1000a527 	addiu	a1,sp,16
80103138:	0c80063c 	lui	a2,0x800c
8010313c:	18000224 	li	v0,24
80103140:	1000a2a7 	sh	v0,16(sp)
80103144:	18010224 	li	v0,280
80103148:	1400a2a7 	sh	v0,20(sp)
8010314c:	8d000224 	li	v0,141
80103150:	1600a2a7 	sh	v0,22(sp)
80103154:	801f023c 	lui	v0,0x1f80
80103158:	44f5d08c 	lw	s0,-2748(a2)
8010315c:	35014290 	lbu	v0,309(v0)
80103160:	21200002 	move	a0,s0
80103164:	0c000326 	addiu	v1,s0,12
80103168:	00120200 	sll	v0,v0,0x8
8010316c:	4b004224 	addiu	v0,v0,75
80103170:	44f5c3ac 	sw	v1,-2748(a2)
80103174:	3e07020c 	jal	0x80081cf8
80103178:	1200a2a7 	sh	v0,18(sp)
8010317c:	0f80023c 	lui	v0,0x800f
80103180:	c8d8448c 	lw	a0,-10040(v0)
80103184:	00000000 	nop
80103188:	1400828c 	lw	v0,20(a0)
8010318c:	0002033c 	lui	v1,0x200
80103190:	25104300 	or	v0,v0,v1
80103194:	000002ae 	sw	v0,0(s0)
80103198:	140090ac 	sw	s0,20(a0)
8010319c:	47006292 	lbu	v0,71(s3)
801031a0:	00000000 	nop
801031a4:	11004010 	beqz	v0,0x801031ec
801031a8:	05000224 	li	v0,5
801031ac:	1800a727 	addiu	a3,sp,24
801031b0:	1900a2a3 	sb	v0,25(sp)
801031b4:	0e000224 	li	v0,14
801031b8:	1800a0a3 	sb	zero,24(sp)
801031bc:	1a00a0a7 	sh	zero,26(sp)
801031c0:	2600a0a7 	sh	zero,38(sp)
801031c4:	2400a0a7 	sh	zero,36(sp)
801031c8:	0800e2a4 	sh	v0,8(a3)
801031cc:	62000224 	li	v0,98
801031d0:	0a00e2a4 	sh	v0,10(a3)
801031d4:	0180023c 	lui	v0,0x8001
801031d8:	ac74458c 	lw	a1,29868(v0)
801031dc:	0f80023c 	lui	v0,0x800f
801031e0:	58cf468c 	lw	a2,-12456(v0)
801031e4:	b7f9010c 	jal	0x8007e6dc
801031e8:	2000a427 	addiu	a0,sp,32
801031ec:	00008286 	lh	v0,0(s4)
801031f0:	47006392 	lbu	v1,71(s3)
801031f4:	00000000 	nop
801031f8:	23104300 	subu	v0,v0,v1
801031fc:	02004228 	slti	v0,v0,2
80103200:	11004014 	bnez	v0,0x80103248
80103204:	05000224 	li	v0,5
80103208:	1800a727 	addiu	a3,sp,24
8010320c:	1900a2a3 	sb	v0,25(sp)
80103210:	0e000224 	li	v0,14
80103214:	1800a0a3 	sb	zero,24(sp)
80103218:	1a00a0a7 	sh	zero,26(sp)
8010321c:	2600a0a7 	sh	zero,38(sp)
80103220:	2400a0a7 	sh	zero,36(sp)
80103224:	0800e2a4 	sh	v0,8(a3)
80103228:	c2000224 	li	v0,194
8010322c:	0a00e2a4 	sh	v0,10(a3)
80103230:	0180023c 	lui	v0,0x8001
80103234:	b074458c 	lw	a1,29872(v0)
80103238:	0f80023c 	lui	v0,0x800f
8010323c:	58cf468c 	lw	a2,-12456(v0)
80103240:	b7f9010c 	jal	0x8007e6dc
80103244:	2000a427 	addiu	a0,sp,32
80103248:	4000bf8f 	lw	ra,64(sp)
8010324c:	3c00b58f 	lw	s5,60(sp)
80103250:	3800b48f 	lw	s4,56(sp)
80103254:	3400b38f 	lw	s3,52(sp)
80103258:	3000b28f 	lw	s2,48(sp)
8010325c:	2c00b18f 	lw	s1,44(sp)
80103260:	2800b08f 	lw	s0,40(sp)
80103264:	0800e003 	jr	ra
80103268:	4800bd27 	addiu	sp,sp,72
8010326c:	d0ffbd27 	addiu	sp,sp,-48
80103270:	0c80023c 	lui	v0,0x800c
80103274:	2800b0af 	sw	s0,40(sp)
80103278:	98f45024 	addiu	s0,v0,-2920
8010327c:	2c00bfaf 	sw	ra,44(sp)
80103280:	1000028e 	lw	v0,16(s0)
80103284:	00000000 	nop
80103288:	00004290 	lbu	v0,0(v0)
8010328c:	00000000 	nop
80103290:	0d004010 	beqz	v0,0x801032c8
80103294:	64000424 	li	a0,100
80103298:	08000524 	li	a1,8
8010329c:	21300000 	move	a2,zero
801032a0:	1000078e 	lw	a3,16(s0)
801032a4:	04000224 	li	v0,4
801032a8:	dde4010c 	jal	0x80079374
801032ac:	1000a2af 	sw	v0,16(sp)
801032b0:	1980043c 	lui	a0,0x8019
801032b4:	14a18424 	addiu	a0,a0,-24300
801032b8:	40000524 	li	a1,64
801032bc:	21300000 	move	a2,zero
801032c0:	6740010c 	jal	0x8005019c
801032c4:	04000724 	li	a3,4
801032c8:	0c00038e 	lw	v1,12(s0)
801032cc:	00000000 	nop
801032d0:	00006290 	lbu	v0,0(v1)
801032d4:	00000000 	nop
801032d8:	4b004010 	beqz	v0,0x80103408
801032dc:	21206000 	move	a0,v1
801032e0:	21180000 	move	v1,zero
801032e4:	01000224 	li	v0,1
801032e8:	2000a527 	addiu	a1,sp,32
801032ec:	2400a2af 	sw	v0,36(sp)
801032f0:	2000a0af 	sw	zero,32(sp)
801032f4:	00008290 	lbu	v0,0(a0)
801032f8:	00000000 	nop
801032fc:	15004010 	beqz	v0,0x80103354
80103300:	2400a627 	addiu	a2,sp,36
80103304:	0a000724 	li	a3,10
80103308:	0c004714 	bne	v0,a3,0x8010333c
8010330c:	00000000 	nop
80103310:	0000a28c 	lw	v0,0(a1)
80103314:	00000000 	nop
80103318:	2a104300 	slt	v0,v0,v1
8010331c:	02004010 	beqz	v0,0x80103328
80103320:	00000000 	nop
80103324:	0000a3ac 	sw	v1,0(a1)
80103328:	0000c28c 	lw	v0,0(a2)
8010332c:	21180000 	move	v1,zero
80103330:	01004224 	addiu	v0,v0,1
80103334:	d0340608 	j	0x8018d340
80103338:	0000c2ac 	sw	v0,0(a2)
8010333c:	01006324 	addiu	v1,v1,1
80103340:	01008424 	addiu	a0,a0,1
80103344:	00008290 	lbu	v0,0(a0)
80103348:	00000000 	nop
8010334c:	eeff4014 	bnez	v0,0x80103308
80103350:	00000000 	nop
80103354:	0000a28c 	lw	v0,0(a1)
80103358:	00000000 	nop
8010335c:	2a104300 	slt	v0,v0,v1
80103360:	02004010 	beqz	v0,0x8010336c
80103364:	00000000 	nop
80103368:	0000a3ac 	sw	v1,0(a1)
8010336c:	2000a38f 	lw	v1,32(sp)
80103370:	a0000224 	li	v0,160
80103374:	80200300 	sll	a0,v1,0x2
80103378:	23104400 	subu	v0,v0,a0
8010337c:	c0180300 	sll	v1,v1,0x3
80103380:	1800a2a7 	sh	v0,24(sp)
80103384:	0c80023c 	lui	v0,0x800c
80103388:	1c00a3a7 	sh	v1,28(sp)
8010338c:	2400a38f 	lw	v1,36(sp)
80103390:	b0f44484 	lh	a0,-2896(v0)
80103394:	00110300 	sll	v0,v1,0x4
80103398:	1e00a2a7 	sh	v0,30(sp)
8010339c:	39008228 	slti	v0,a0,57
801033a0:	0b004014 	bnez	v0,0x801033d0
801033a4:	52000224 	li	v0,82
801033a8:	3b008228 	slti	v0,a0,59
801033ac:	04004014 	bnez	v0,0x801033c0
801033b0:	8c000224 	li	v0,140
801033b4:	40000224 	li	v0,64
801033b8:	04008214 	bne	a0,v0,0x801033cc
801033bc:	8c000224 	li	v0,140
801033c0:	c0180300 	sll	v1,v1,0x3
801033c4:	f4340608 	j	0x8018d3d0
801033c8:	23104300 	subu	v0,v0,v1
801033cc:	52000224 	li	v0,82
801033d0:	1a00a2a7 	sh	v0,26(sp)
801033d4:	21300000 	move	a2,zero
801033d8:	0c80023c 	lui	v0,0x800c
801033dc:	a4f4478c 	lw	a3,-2908(v0)
801033e0:	1800a487 	lh	a0,24(sp)
801033e4:	1a00a587 	lh	a1,26(sp)
801033e8:	04000224 	li	v0,4
801033ec:	dde4010c 	jal	0x80079374
801033f0:	1000a2af 	sw	v0,16(sp)
801033f4:	1800a427 	addiu	a0,sp,24
801033f8:	40000524 	li	a1,64
801033fc:	21300000 	move	a2,zero
80103400:	6740010c 	jal	0x8005019c
80103404:	04000724 	li	a3,4
80103408:	2c00bf8f 	lw	ra,44(sp)
8010340c:	2800b08f 	lw	s0,40(sp)
80103410:	0800e003 	jr	ra
80103414:	3000bd27 	addiu	sp,sp,48
80103418:	b0ffbd27 	addiu	sp,sp,-80
8010341c:	3400b3af 	sw	s3,52(sp)
80103420:	21988000 	move	s3,a0
80103424:	4800bfaf 	sw	ra,72(sp)
80103428:	4400b7af 	sw	s7,68(sp)
8010342c:	4000b6af 	sw	s6,64(sp)
80103430:	3c00b5af 	sw	s5,60(sp)
80103434:	3800b4af 	sw	s4,56(sp)
80103438:	3000b2af 	sw	s2,48(sp)
8010343c:	2c00b1af 	sw	s1,44(sp)
80103440:	2800b0af 	sw	s0,40(sp)
80103444:	3c006292 	lbu	v0,60(s3)
80103448:	00000000 	nop
8010344c:	01004230 	andi	v0,v0,0x1
80103450:	02004010 	beqz	v0,0x8010345c
80103454:	34000324 	li	v1,52
80103458:	35000324 	li	v1,53
8010345c:	21286000 	move	a1,v1
80103460:	1800a0a3 	sb	zero,24(sp)
80103464:	2000a427 	addiu	a0,sp,32
80103468:	05000224 	li	v0,5
8010346c:	1900a2a3 	sb	v0,25(sp)
80103470:	30000224 	li	v0,48
80103474:	2000a2a7 	sh	v0,32(sp)
80103478:	18000224 	li	v0,24
8010347c:	0180033c 	lui	v1,0x8001
80103480:	34736324 	addiu	v1,v1,29492
80103484:	2200a2a7 	sh	v0,34(sp)
80103488:	80100500 	sll	v0,a1,0x2
8010348c:	21104300 	addu	v0,v0,v1
80103490:	1a00a0a7 	sh	zero,26(sp)
80103494:	2600a0a7 	sh	zero,38(sp)
80103498:	2400a0a7 	sh	zero,36(sp)
8010349c:	0000458c 	lw	a1,0(v0)
801034a0:	0f80023c 	lui	v0,0x800f
801034a4:	58cf468c 	lw	a2,-12456(v0)
801034a8:	b7f9010c 	jal	0x8007e6dc
801034ac:	1800a727 	addiu	a3,sp,24
801034b0:	1980043c 	lui	a0,0x8019
801034b4:	1ca18424 	addiu	a0,a0,-24292
801034b8:	40000524 	li	a1,64
801034bc:	21300000 	move	a2,zero
801034c0:	6740010c 	jal	0x8005019c
801034c4:	05000724 	li	a3,5
801034c8:	00400424 	li	a0,16384
801034cc:	14000524 	li	a1,20
801034d0:	3c000624 	li	a2,60
801034d4:	bfce000c 	jal	0x80033afc
801034d8:	05000724 	li	a3,5
801034dc:	00800434 	li	a0,0x8000
801034e0:	60000524 	li	a1,96
801034e4:	3c000624 	li	a2,60
801034e8:	bfce000c 	jal	0x80033afc
801034ec:	05000724 	li	a3,5
801034f0:	00200424 	li	a0,8192
801034f4:	ac000524 	li	a1,172
801034f8:	3c000624 	li	a2,60
801034fc:	bfce000c 	jal	0x80033afc
80103500:	05000724 	li	a3,5
80103504:	00100424 	li	a0,4096
80103508:	f8000524 	li	a1,248
8010350c:	3c000624 	li	a2,60
80103510:	bfce000c 	jal	0x80033afc
80103514:	05000724 	li	a3,5
80103518:	1c000424 	li	a0,28
8010351c:	38000524 	li	a1,56
80103520:	12000624 	li	a2,18
80103524:	0a80023c 	lui	v0,0x800a
80103528:	54285124 	addiu	s1,v0,10324
8010352c:	a800278e 	lw	a3,168(s1)
80103530:	05001024 	li	s0,5
80103534:	c9e4010c 	jal	0x80079324
80103538:	1000b0af 	sw	s0,16(sp)
8010353c:	68000424 	li	a0,104
80103540:	38000524 	li	a1,56
80103544:	0a80023c 	lui	v0,0x800a
80103548:	4c3a5224 	addiu	s2,v0,14924
8010354c:	1800478e 	lw	a3,24(s2)
80103550:	12000624 	li	a2,18
80103554:	c9e4010c 	jal	0x80079324
80103558:	1000b0af 	sw	s0,16(sp)
8010355c:	b4000424 	li	a0,180
80103560:	38000524 	li	a1,56
80103564:	a400278e 	lw	a3,164(s1)
80103568:	12000624 	li	a2,18
8010356c:	c9e4010c 	jal	0x80079324
80103570:	1000b0af 	sw	s0,16(sp)
80103574:	00006392 	lbu	v1,0(s3)
80103578:	01000224 	li	v0,1
8010357c:	04006214 	bne	v1,v0,0x80103590
80103580:	00010424 	li	a0,256
80103584:	ac00278e 	lw	a3,172(s1)
80103588:	66350608 	j	0x8018d598
8010358c:	38000524 	li	a1,56
80103590:	38000524 	li	a1,56
80103594:	1800478e 	lw	a3,24(s2)
80103598:	12000624 	li	a2,18
8010359c:	c9e4010c 	jal	0x80079324
801035a0:	1000b0af 	sw	s0,16(sp)
801035a4:	0100033c 	lui	v1,0x1
801035a8:	0c80083c 	lui	t0,0x800c
801035ac:	44f5028d 	lw	v0,-2748(t0)
801035b0:	01016334 	ori	v1,v1,0x101
801035b4:	21284000 	move	a1,v0
801035b8:	10004224 	addiu	v0,v0,16
801035bc:	44f502ad 	sw	v0,-2748(t0)
801035c0:	03000224 	li	v0,3
801035c4:	0300a2a0 	sb	v0,3(a1)
801035c8:	62000224 	li	v0,98
801035cc:	0400a3ac 	sw	v1,4(a1)
801035d0:	1980033c 	lui	v1,0x8019
801035d4:	0700a2a0 	sb	v0,7(a1)
801035d8:	24a16294 	lhu	v0,-24284(v1)
801035dc:	24a16324 	addiu	v1,v1,-24284
801035e0:	0800a2a4 	sh	v0,8(a1)
801035e4:	02006294 	lhu	v0,2(v1)
801035e8:	00000000 	nop
801035ec:	0a00a2a4 	sh	v0,10(a1)
801035f0:	04006294 	lhu	v0,4(v1)
801035f4:	00000000 	nop
801035f8:	0c00a2a4 	sh	v0,12(a1)
801035fc:	06006294 	lhu	v0,6(v1)
80103600:	00000000 	nop
80103604:	0e00a2a4 	sh	v0,14(a1)
80103608:	0f80113c 	lui	s1,0x800f
8010360c:	c8d8248e 	lw	a0,-10040(s1)
80103610:	00000000 	nop
80103614:	1400828c 	lw	v0,20(a0)
80103618:	0003033c 	lui	v1,0x300
8010361c:	25104300 	or	v0,v0,v1
80103620:	0000a2ac 	sw	v0,0(a1)
80103624:	140085ac 	sw	a1,20(a0)
80103628:	44f5028d 	lw	v0,-2748(t0)
8010362c:	21280000 	move	a1,zero
80103630:	2130a000 	move	a2,a1
80103634:	2138a000 	move	a3,a1
80103638:	21804000 	move	s0,v0
8010363c:	0c004224 	addiu	v0,v0,12
80103640:	21200002 	move	a0,s0
80103644:	44f502ad 	sw	v0,-2748(t0)
80103648:	780f020c 	jal	0x80083de0
8010364c:	1000a0af 	sw	zero,16(sp)
80103650:	c8d8248e 	lw	a0,-10040(s1)
80103654:	00000000 	nop
80103658:	1400828c 	lw	v0,20(a0)
8010365c:	0002033c 	lui	v1,0x200
80103660:	25104300 	or	v0,v0,v1
80103664:	000002ae 	sw	v0,0(s0)
80103668:	140090ac 	sw	s0,20(a0)
8010366c:	3c006292 	lbu	v0,60(s3)
80103670:	00000000 	nop
80103674:	01004230 	andi	v0,v0,0x1
80103678:	02004010 	beqz	v0,0x80103684
8010367c:	ee001524 	li	s5,238
80103680:	ef001524 	li	s5,239
80103684:	21980000 	move	s3,zero
80103688:	06001724 	li	s7,6
8010368c:	21b06002 	move	s6,s3
80103690:	18001224 	li	s2,24
80103694:	21880000 	move	s1,zero
80103698:	21a04002 	move	s4,s2
8010369c:	18001024 	li	s0,24
801036a0:	21180002 	move	v1,s0
801036a4:	0400c012 	beqz	s6,0x801036b8
801036a8:	2128a002 	move	a1,s5
801036ac:	20000224 	li	v0,32
801036b0:	af350608 	j	0x8018d6bc
801036b4:	1800a2a3 	sb	v0,24(sp)
801036b8:	1800a0a3 	sb	zero,24(sp)
801036bc:	2000a427 	addiu	a0,sp,32
801036c0:	1800a727 	addiu	a3,sp,24
801036c4:	30001026 	addiu	s0,s0,48
801036c8:	2000a3a7 	sh	v1,32(sp)
801036cc:	0180033c 	lui	v1,0x8001
801036d0:	34736324 	addiu	v1,v1,29492
801036d4:	80100500 	sll	v0,a1,0x2
801036d8:	21104300 	addu	v0,v0,v1
801036dc:	1900b7a3 	sb	s7,25(sp)
801036e0:	1a00a0a7 	sh	zero,26(sp)
801036e4:	2600a0a7 	sh	zero,38(sp)
801036e8:	2400a0a7 	sh	zero,36(sp)
801036ec:	2200b4a7 	sh	s4,34(sp)
801036f0:	0000458c 	lw	a1,0(v0)
801036f4:	0f80023c 	lui	v0,0x800f
801036f8:	58cf468c 	lw	a2,-12456(v0)
801036fc:	b7f9010c 	jal	0x8007e6dc
80103700:	01003126 	addiu	s1,s1,1
80103704:	0700222a 	slti	v0,s1,7
80103708:	e6ff4014 	bnez	v0,0x801036a4
8010370c:	21180002 	move	v1,s0
80103710:	01007326 	addiu	s3,s3,1
80103714:	0500622a 	slti	v0,s3,5
80103718:	deff4014 	bnez	v0,0x80103694
8010371c:	30005226 	addiu	s2,s2,48
80103720:	4800bf8f 	lw	ra,72(sp)
80103724:	4400b78f 	lw	s7,68(sp)
80103728:	4000b68f 	lw	s6,64(sp)
8010372c:	3c00b58f 	lw	s5,60(sp)
80103730:	3800b48f 	lw	s4,56(sp)
80103734:	3400b38f 	lw	s3,52(sp)
80103738:	3000b28f 	lw	s2,48(sp)
8010373c:	2c00b18f 	lw	s1,44(sp)
80103740:	2800b08f 	lw	s0,40(sp)
80103744:	0800e003 	jr	ra
80103748:	5000bd27 	addiu	sp,sp,80
8010374c:	d8ffbd27 	addiu	sp,sp,-40
80103750:	1c00b3af 	sw	s3,28(sp)
80103754:	21988000 	move	s3,a0
80103758:	1000b0af 	sw	s0,16(sp)
8010375c:	21800000 	move	s0,zero
80103760:	2400bfaf 	sw	ra,36(sp)
80103764:	2000b4af 	sw	s4,32(sp)
80103768:	1800b2af 	sw	s2,24(sp)
8010376c:	1400b1af 	sw	s1,20(sp)
80103770:	0800728e 	lw	s2,8(s3)
80103774:	04001124 	li	s1,4
80103778:	000040a6 	sh	zero,0(s2)
8010377c:	21205102 	addu	a0,s2,s1
80103780:	21280000 	move	a1,zero
80103784:	0869020c 	jal	0x8009a420
80103788:	3c000624 	li	a2,60
8010378c:	01001026 	addiu	s0,s0,1
80103790:	0f00022a 	slti	v0,s0,15
80103794:	f9ff4014 	bnez	v0,0x8010377c
80103798:	3c003126 	addiu	s1,s1,60
8010379c:	0c80033c 	lui	v1,0x800c
801037a0:	90ed6324 	addiu	v1,v1,-4720
801037a4:	46006692 	lbu	a2,70(s3)
801037a8:	3c006492 	lbu	a0,60(s3)
801037ac:	c0100600 	sll	v0,a2,0x3
801037b0:	23104600 	subu	v0,v0,a2
801037b4:	40110200 	sll	v0,v0,0x5
801037b8:	21104600 	addu	v0,v0,a2
801037bc:	80100200 	sll	v0,v0,0x2
801037c0:	01008430 	andi	a0,a0,0x1
801037c4:	58008014 	bnez	a0,0x80103928
801037c8:	21284300 	addu	a1,v0,v1
801037cc:	21106602 	addu	v0,s3,a2
801037d0:	4e004290 	lbu	v0,78(v0)
801037d4:	00000000 	nop
801037d8:	2e004010 	beqz	v0,0x80103894
801037dc:	21800000 	move	s0,zero
801037e0:	ff00083c 	lui	t0,0xff
801037e4:	00ff0835 	ori	t0,t0,0xff00
801037e8:	0100073c 	lui	a3,0x1
801037ec:	0001e734 	ori	a3,a3,0x100
801037f0:	0000a28c 	lw	v0,0(a1)
801037f4:	00000000 	nop
801037f8:	24104800 	and	v0,v0,t0
801037fc:	1d004714 	bne	v0,a3,0x80103874
80103800:	2120a000 	move	a0,a1
80103804:	00004386 	lh	v1,0(s2)
80103808:	3000a624 	addiu	a2,a1,48
8010380c:	00110300 	sll	v0,v1,0x4
80103810:	23104300 	subu	v0,v0,v1
80103814:	80100200 	sll	v0,v0,0x2
80103818:	21104202 	addu	v0,s2,v0
8010381c:	04004224 	addiu	v0,v0,4
80103820:	0000898c 	lw	t1,0(a0)
80103824:	04008a8c 	lw	t2,4(a0)
80103828:	08008b8c 	lw	t3,8(a0)
8010382c:	0c008c8c 	lw	t4,12(a0)
80103830:	000049ac 	sw	t1,0(v0)
80103834:	04004aac 	sw	t2,4(v0)
80103838:	08004bac 	sw	t3,8(v0)
8010383c:	0c004cac 	sw	t4,12(v0)
80103840:	10008424 	addiu	a0,a0,16
80103844:	f6ff8614 	bne	a0,a2,0x80103820
80103848:	10004224 	addiu	v0,v0,16
8010384c:	0000898c 	lw	t1,0(a0)
80103850:	04008a8c 	lw	t2,4(a0)
80103854:	08008b8c 	lw	t3,8(a0)
80103858:	000049ac 	sw	t1,0(v0)
8010385c:	04004aac 	sw	t2,4(v0)
80103860:	08004bac 	sw	t3,8(v0)
80103864:	00004296 	lhu	v0,0(s2)
80103868:	00000000 	nop
8010386c:	01004224 	addiu	v0,v0,1
80103870:	000042a6 	sh	v0,0(s2)
80103874:	46006292 	lbu	v0,70(s3)
80103878:	01001026 	addiu	s0,s0,1
8010387c:	21106202 	addu	v0,s3,v0
80103880:	4e004290 	lbu	v0,78(v0)
80103884:	00000000 	nop
80103888:	2a100202 	slt	v0,s0,v0
8010388c:	d8ff4014 	bnez	v0,0x801037f0
80103890:	3c00a524 	addiu	a1,a1,60
80103894:	00004286 	lh	v0,0(s2)
80103898:	00000000 	nop
8010389c:	16004010 	beqz	v0,0x801038f8
801038a0:	ffff0324 	li	v1,-1
801038a4:	0c80023c 	lui	v0,0x800c
801038a8:	98f45024 	addiu	s0,v0,-2920
801038ac:	18000286 	lh	v0,24(s0)
801038b0:	00000000 	nop
801038b4:	05004310 	beq	v0,v1,0x801038cc
801038b8:	3f001124 	li	s1,63
801038bc:	0c00028e 	lw	v0,12(s0)
801038c0:	00000000 	nop
801038c4:	000040a0 	sb	zero,0(v0)
801038c8:	180003a6 	sh	v1,24(s0)
801038cc:	1a000286 	lh	v0,26(s0)
801038d0:	00000000 	nop
801038d4:	06005110 	beq	v0,s1,0x801038f0
801038d8:	0a80023c 	lui	v0,0x800a
801038dc:	1000048e 	lw	a0,16(s0)
801038e0:	5029458c 	lw	a1,10576(v0)
801038e4:	6c69020c 	jal	0x8009a5b0
801038e8:	00000000 	nop
801038ec:	1a0011a6 	sh	s1,26(s0)
801038f0:	ad360608 	j	0x8018dab4
801038f4:	0a000224 	li	v0,10
801038f8:	3e001124 	li	s1,62
801038fc:	0c80023c 	lui	v0,0x800c
80103900:	98f45024 	addiu	s0,v0,-2920
80103904:	18000286 	lh	v0,24(s0)
80103908:	00000000 	nop
8010390c:	5e005110 	beq	v0,s1,0x80103a88
80103910:	ffff1424 	li	s4,-1
80103914:	0a80023c 	lui	v0,0x800a
80103918:	0c00048e 	lw	a0,12(s0)
8010391c:	4c29458c 	lw	a1,10572(v0)
80103920:	9f360608 	j	0x8018da7c
80103924:	00000000 	nop
80103928:	21106602 	addu	v0,s3,a2
8010392c:	4e004290 	lbu	v0,78(v0)
80103930:	00000000 	nop
80103934:	2c004010 	beqz	v0,0x801039e8
80103938:	21800000 	move	s0,zero
8010393c:	01000824 	li	t0,1
80103940:	3000a624 	addiu	a2,a1,48
80103944:	d1ffc290 	lbu	v0,-47(a2)
80103948:	00000000 	nop
8010394c:	1d004814 	bne	v0,t0,0x801039c4
80103950:	2120a000 	move	a0,a1
80103954:	00004386 	lh	v1,0(s2)
80103958:	2138c000 	move	a3,a2
8010395c:	00110300 	sll	v0,v1,0x4
80103960:	23104300 	subu	v0,v0,v1
80103964:	80100200 	sll	v0,v0,0x2
80103968:	21104202 	addu	v0,s2,v0
8010396c:	04004224 	addiu	v0,v0,4
80103970:	0000898c 	lw	t1,0(a0)
80103974:	04008a8c 	lw	t2,4(a0)
80103978:	08008b8c 	lw	t3,8(a0)
8010397c:	0c008c8c 	lw	t4,12(a0)
80103980:	000049ac 	sw	t1,0(v0)
80103984:	04004aac 	sw	t2,4(v0)
80103988:	08004bac 	sw	t3,8(v0)
8010398c:	0c004cac 	sw	t4,12(v0)
80103990:	10008424 	addiu	a0,a0,16
80103994:	f6ff8714 	bne	a0,a3,0x80103970
80103998:	10004224 	addiu	v0,v0,16
8010399c:	0000898c 	lw	t1,0(a0)
801039a0:	04008a8c 	lw	t2,4(a0)
801039a4:	08008b8c 	lw	t3,8(a0)
801039a8:	000049ac 	sw	t1,0(v0)
801039ac:	04004aac 	sw	t2,4(v0)
801039b0:	08004bac 	sw	t3,8(v0)
801039b4:	00004296 	lhu	v0,0(s2)
801039b8:	00000000 	nop
801039bc:	01004224 	addiu	v0,v0,1
801039c0:	000042a6 	sh	v0,0(s2)
801039c4:	01001026 	addiu	s0,s0,1
801039c8:	46006292 	lbu	v0,70(s3)
801039cc:	3c00c624 	addiu	a2,a2,60
801039d0:	21106202 	addu	v0,s3,v0
801039d4:	4e004290 	lbu	v0,78(v0)
801039d8:	00000000 	nop
801039dc:	2a100202 	slt	v0,s0,v0
801039e0:	d8ff4014 	bnez	v0,0x80103944
801039e4:	3c00a524 	addiu	a1,a1,60
801039e8:	00004286 	lh	v0,0(s2)
801039ec:	00000000 	nop
801039f0:	18004010 	beqz	v0,0x80103a54
801039f4:	ffff0324 	li	v1,-1
801039f8:	0c80023c 	lui	v0,0x800c
801039fc:	98f45024 	addiu	s0,v0,-2920
80103a00:	18000286 	lh	v0,24(s0)
80103a04:	00000000 	nop
80103a08:	05004310 	beq	v0,v1,0x80103a20
80103a0c:	38001124 	li	s1,56
80103a10:	0c00028e 	lw	v0,12(s0)
80103a14:	00000000 	nop
80103a18:	000040a0 	sb	zero,0(v0)
80103a1c:	180003a6 	sh	v1,24(s0)
80103a20:	1a000286 	lh	v0,26(s0)
80103a24:	00000000 	nop
80103a28:	06005110 	beq	v0,s1,0x80103a44
80103a2c:	0a80023c 	lui	v0,0x800a
80103a30:	1000048e 	lw	a0,16(s0)
80103a34:	3429458c 	lw	a1,10548(v0)
80103a38:	6c69020c 	jal	0x8009a5b0
80103a3c:	00000000 	nop
80103a40:	1a0011a6 	sh	s1,26(s0)
80103a44:	ad360608 	j	0x8018dab4
80103a48:	06000224 	li	v0,6
80103a4c:	c2360608 	j	0x8018db08
80103a50:	470070a2 	sb	s0,71(s3)
80103a54:	37001124 	li	s1,55
80103a58:	0c80023c 	lui	v0,0x800c
80103a5c:	98f45024 	addiu	s0,v0,-2920
80103a60:	18000286 	lh	v0,24(s0)
80103a64:	00000000 	nop
80103a68:	07005110 	beq	v0,s1,0x80103a88
80103a6c:	ffff1424 	li	s4,-1
80103a70:	0a80023c 	lui	v0,0x800a
80103a74:	0c00048e 	lw	a0,12(s0)
80103a78:	3029458c 	lw	a1,10544(v0)
80103a7c:	6c69020c 	jal	0x8009a5b0
80103a80:	00000000 	nop
80103a84:	180011a6 	sh	s1,24(s0)
80103a88:	1a000286 	lh	v0,26(s0)
80103a8c:	00000000 	nop
80103a90:	06005410 	beq	v0,s4,0x80103aac
80103a94:	01000224 	li	v0,1
80103a98:	1000028e 	lw	v0,16(s0)
80103a9c:	00000000 	nop
80103aa0:	000040a0 	sb	zero,0(v0)
80103aa4:	1a0014a6 	sh	s4,26(s0)
80103aa8:	01000224 	li	v0,1
80103aac:	030062a2 	sb	v0,3(s3)
80103ab0:	0e000224 	li	v0,14
80103ab4:	000062a2 	sb	v0,0(s3)
80103ab8:	020060a2 	sb	zero,2(s3)
80103abc:	010060a2 	sb	zero,1(s3)
80103ac0:	470060a2 	sb	zero,71(s3)
80103ac4:	00004286 	lh	v0,0(s2)
80103ac8:	00000000 	nop
80103acc:	0e004018 	blez	v0,0x80103b08
80103ad0:	21800000 	move	s0,zero
80103ad4:	21284000 	move	a1,v0
80103ad8:	46006292 	lbu	v0,70(s3)
80103adc:	21204002 	move	a0,s2
80103ae0:	21106202 	addu	v0,s3,v0
80103ae4:	48004390 	lbu	v1,72(v0)
80103ae8:	04008290 	lbu	v0,4(a0)
80103aec:	00000000 	nop
80103af0:	d6ff6210 	beq	v1,v0,0x80103a4c
80103af4:	00000000 	nop
80103af8:	01001026 	addiu	s0,s0,1
80103afc:	2a100502 	slt	v0,s0,a1
80103b00:	f9ff4014 	bnez	v0,0x80103ae8
80103b04:	3c008424 	addiu	a0,a0,60
80103b08:	2400bf8f 	lw	ra,36(sp)
80103b0c:	2000b48f 	lw	s4,32(sp)
80103b10:	1c00b38f 	lw	s3,28(sp)
80103b14:	1800b28f 	lw	s2,24(sp)
80103b18:	1400b18f 	lw	s1,20(sp)
80103b1c:	1000b08f 	lw	s0,16(sp)
80103b20:	0800e003 	jr	ra
80103b24:	2800bd27 	addiu	sp,sp,40
80103b28:	e0ffbd27 	addiu	sp,sp,-32
80103b2c:	1400b1af 	sw	s1,20(sp)
80103b30:	21888000 	move	s1,a0
80103b34:	0c80023c 	lui	v0,0x800c
80103b38:	1000b0af 	sw	s0,16(sp)
80103b3c:	98f45024 	addiu	s0,v0,-2920
80103b40:	1c00bfaf 	sw	ra,28(sp)
80103b44:	1800b2af 	sw	s2,24(sp)
80103b48:	56000286 	lh	v0,86(s0)
80103b4c:	0800328e 	lw	s2,8(s1)
80103b50:	30004014 	bnez	v0,0x80103c14
80103b54:	0f80023c 	lui	v0,0x800f
80103b58:	54cf4294 	lhu	v0,-12460(v0)
80103b5c:	00000000 	nop
80103b60:	10004230 	andi	v0,v0,0x10
80103b64:	11004010 	beqz	v0,0x80103bac
80103b68:	0c80023c 	lui	v0,0x800c
80103b6c:	47002292 	lbu	v0,71(s1)
80103b70:	00000000 	nop
80103b74:	0c004010 	beqz	v0,0x80103ba8
80103b78:	15000424 	li	a0,21
80103b7c:	21280000 	move	a1,zero
80103b80:	64d1010c 	jal	0x80074590
80103b84:	2130a000 	move	a2,a1
80103b88:	47002292 	lbu	v0,71(s1)
80103b8c:	20000324 	li	v1,32
80103b90:	560003a6 	sh	v1,86(s0)
80103b94:	50000324 	li	v1,80
80103b98:	540003a6 	sh	v1,84(s0)
80103b9c:	580000a6 	sh	zero,88(s0)
80103ba0:	ffff4224 	addiu	v0,v0,-1
80103ba4:	520002a2 	sb	v0,82(s0)
80103ba8:	0c80023c 	lui	v0,0x800c
80103bac:	98f45024 	addiu	s0,v0,-2920
80103bb0:	56000286 	lh	v0,86(s0)
80103bb4:	00000000 	nop
80103bb8:	16004014 	bnez	v0,0x80103c14
80103bbc:	0f80023c 	lui	v0,0x800f
80103bc0:	54cf4294 	lhu	v0,-12460(v0)
80103bc4:	00000000 	nop
80103bc8:	40004230 	andi	v0,v0,0x40
80103bcc:	11004010 	beqz	v0,0x80103c14
80103bd0:	00000000 	nop
80103bd4:	00004286 	lh	v0,0(s2)
80103bd8:	47002392 	lbu	v1,71(s1)
80103bdc:	ffff4224 	addiu	v0,v0,-1
80103be0:	2a186200 	slt	v1,v1,v0
80103be4:	0b006010 	beqz	v1,0x80103c14
80103be8:	15000424 	li	a0,21
80103bec:	21280000 	move	a1,zero
80103bf0:	64d1010c 	jal	0x80074590
80103bf4:	2130a000 	move	a2,a1
80103bf8:	47002292 	lbu	v0,71(s1)
80103bfc:	50000324 	li	v1,80
80103c00:	560003a6 	sh	v1,86(s0)
80103c04:	20000324 	li	v1,32
80103c08:	540003a6 	sh	v1,84(s0)
80103c0c:	580000a6 	sh	zero,88(s0)
80103c10:	520002a2 	sb	v0,82(s0)
80103c14:	1c00bf8f 	lw	ra,28(sp)
80103c18:	1800b28f 	lw	s2,24(sp)
80103c1c:	1400b18f 	lw	s1,20(sp)
80103c20:	1000b08f 	lw	s0,16(sp)
80103c24:	0800e003 	jr	ra
80103c28:	2000bd27 	addiu	sp,sp,32
80103c2c:	01008390 	lbu	v1,1(a0)
80103c30:	01000524 	li	a1,1
80103c34:	0e006510 	beq	v1,a1,0x80103c70
80103c38:	02006228 	slti	v0,v1,2
80103c3c:	05004010 	beqz	v0,0x80103c54
80103c40:	02000224 	li	v0,2
80103c44:	07006010 	beqz	v1,0x80103c64
80103c48:	0e80023c 	lui	v0,0x800e
80103c4c:	39370608 	j	0x8018dce4
80103c50:	00000000 	nop
80103c54:	13006210 	beq	v1,v0,0x80103ca4
80103c58:	0e80023c 	lui	v0,0x800e
80103c5c:	39370608 	j	0x8018dce4
80103c60:	00000000 	nop
80103c64:	01008290 	lbu	v0,1(a0)
80103c68:	25370608 	j	0x8018dc94
80103c6c:	500080a0 	sb	zero,80(a0)
80103c70:	50008290 	lbu	v0,80(a0)
80103c74:	00000000 	nop
80103c78:	01004224 	addiu	v0,v0,1
80103c7c:	500082a0 	sb	v0,80(a0)
80103c80:	ff004230 	andi	v0,v0,0xff
80103c84:	0b00422c 	sltiu	v0,v0,11
80103c88:	16004014 	bnez	v0,0x80103ce4
80103c8c:	0e80023c 	lui	v0,0x800e
80103c90:	01008290 	lbu	v0,1(a0)
80103c94:	00000000 	nop
80103c98:	01004224 	addiu	v0,v0,1
80103c9c:	38370608 	j	0x8018dce0
80103ca0:	010082a0 	sb	v0,1(a0)
80103ca4:	4a008290 	lbu	v0,74(a0)
80103ca8:	fc000324 	li	v1,252
80103cac:	0c004310 	beq	v0,v1,0x80103ce0
80103cb0:	00000000 	nop
80103cb4:	0b004510 	beq	v0,a1,0x80103ce4
80103cb8:	0e80023c 	lui	v0,0x800e
80103cbc:	4b008290 	lbu	v0,75(a0)
80103cc0:	00000000 	nop
80103cc4:	06004310 	beq	v0,v1,0x80103ce0
80103cc8:	00000000 	nop
80103ccc:	05004510 	beq	v0,a1,0x80103ce4
80103cd0:	0e80023c 	lui	v0,0x800e
80103cd4:	020080a0 	sb	zero,2(a0)
80103cd8:	010080a0 	sb	zero,1(a0)
80103cdc:	000085a0 	sb	a1,0(a0)
80103ce0:	0e80023c 	lui	v0,0x800e
80103ce4:	687e4394 	lhu	v1,32360(v0)
80103ce8:	00000000 	nop
80103cec:	00206230 	andi	v0,v1,0x2000
80103cf0:	0a004010 	beqz	v0,0x80103d1c
80103cf4:	00106230 	andi	v0,v1,0x1000
80103cf8:	3c008290 	lbu	v0,60(a0)
80103cfc:	00000000 	nop
80103d00:	01004230 	andi	v0,v0,0x1
80103d04:	07004014 	bnez	v0,0x80103d24
80103d08:	801f023c 	lui	v0,0x1f80
80103d0c:	3801438c 	lw	v1,312(v0)
80103d10:	02000224 	li	v0,2
80103d14:	0800e003 	jr	ra
80103d18:	500062a4 	sh	v0,80(v1)
80103d1c:	04004010 	beqz	v0,0x80103d30
80103d20:	801f023c 	lui	v0,0x1f80
80103d24:	3801438c 	lw	v1,312(v0)
80103d28:	03000224 	li	v0,3
80103d2c:	500062a4 	sh	v0,80(v1)
80103d30:	0800e003 	jr	ra
80103d34:	00000000 	nop
80103d38:	d8ffbd27 	addiu	sp,sp,-40
80103d3c:	1400b1af 	sw	s1,20(sp)
80103d40:	21888000 	move	s1,a0
80103d44:	2000bfaf 	sw	ra,32(sp)
80103d48:	1c00b3af 	sw	s3,28(sp)
80103d4c:	1800b2af 	sw	s2,24(sp)
80103d50:	1000b0af 	sw	s0,16(sp)
80103d54:	4a002292 	lbu	v0,74(s1)
80103d58:	00000000 	nop
80103d5c:	0300432c 	sltiu	v1,v0,3
80103d60:	4b002292 	lbu	v0,75(s1)
80103d64:	00000000 	nop
80103d68:	0300422c 	sltiu	v0,v0,3
80103d6c:	02004010 	beqz	v0,0x80103d78
80103d70:	21806000 	move	s0,v1
80103d74:	02007034 	ori	s0,v1,0x2
80103d78:	41000012 	beqz	s0,0x80103e80
80103d7c:	31001224 	li	s2,49
80103d80:	44002292 	lbu	v0,68(s1)
80103d84:	00000000 	nop
80103d88:	04004014 	bnez	v0,0x80103d9c
80103d8c:	0e80023c 	lui	v0,0x800e
80103d90:	01000224 	li	v0,1
80103d94:	440022a2 	sb	v0,68(s1)
80103d98:	0e80023c 	lui	v0,0x800e
80103d9c:	687e4294 	lhu	v0,32360(v0)
80103da0:	00000000 	nop
80103da4:	80004230 	andi	v0,v0,0x80
80103da8:	0b004010 	beqz	v0,0x80103dd8
80103dac:	01000232 	andi	v0,s0,0x1
80103db0:	09004010 	beqz	v0,0x80103dd8
80103db4:	01001224 	li	s2,1
80103db8:	44002292 	lbu	v0,68(s1)
80103dbc:	00000000 	nop
80103dc0:	05005210 	beq	v0,s2,0x80103dd8
80103dc4:	15000424 	li	a0,21
80103dc8:	21280000 	move	a1,zero
80103dcc:	64d1010c 	jal	0x80074590
80103dd0:	2130a000 	move	a2,a1
80103dd4:	440032a2 	sb	s2,68(s1)
80103dd8:	0e80023c 	lui	v0,0x800e
80103ddc:	687e4294 	lhu	v0,32360(v0)
80103de0:	00000000 	nop
80103de4:	20004230 	andi	v0,v0,0x20
80103de8:	0b004010 	beqz	v0,0x80103e18
80103dec:	02000232 	andi	v0,s0,0x2
80103df0:	09004010 	beqz	v0,0x80103e18
80103df4:	02001224 	li	s2,2
80103df8:	44002292 	lbu	v0,68(s1)
80103dfc:	00000000 	nop
80103e00:	05005210 	beq	v0,s2,0x80103e18
80103e04:	15000424 	li	a0,21
80103e08:	21280000 	move	a1,zero
80103e0c:	64d1010c 	jal	0x80074590
80103e10:	2130a000 	move	a2,a1
80103e14:	440032a2 	sb	s2,68(s1)
80103e18:	44002292 	lbu	v0,68(s1)
80103e1c:	00000000 	nop
80103e20:	24105000 	and	v0,v0,s0
80103e24:	02004014 	bnez	v0,0x80103e30
80103e28:	ffff0324 	li	v1,-1
80103e2c:	440030a2 	sb	s0,68(s1)
80103e30:	0c80023c 	lui	v0,0x800c
80103e34:	98f45024 	addiu	s0,v0,-2920
80103e38:	18000286 	lh	v0,24(s0)
80103e3c:	00000000 	nop
80103e40:	05004310 	beq	v0,v1,0x80103e58
80103e44:	36001224 	li	s2,54
80103e48:	0c00028e 	lw	v0,12(s0)
80103e4c:	00000000 	nop
80103e50:	000040a0 	sb	zero,0(v0)
80103e54:	180003a6 	sh	v1,24(s0)
80103e58:	1a000286 	lh	v0,26(s0)
80103e5c:	00000000 	nop
80103e60:	1c005210 	beq	v0,s2,0x80103ed4
80103e64:	0a80023c 	lui	v0,0x800a
80103e68:	1000048e 	lw	a0,16(s0)
80103e6c:	2c29458c 	lw	a1,10540(v0)
80103e70:	6c69020c 	jal	0x8009a5b0
80103e74:	00000000 	nop
80103e78:	b5370608 	j	0x8018ded4
80103e7c:	1a0012a6 	sh	s2,26(s0)
80103e80:	0c80023c 	lui	v0,0x800c
80103e84:	98f45024 	addiu	s0,v0,-2920
80103e88:	440020a2 	sb	zero,68(s1)
80103e8c:	18000286 	lh	v0,24(s0)
80103e90:	00000000 	nop
80103e94:	07005210 	beq	v0,s2,0x80103eb4
80103e98:	ffff1324 	li	s3,-1
80103e9c:	0a80023c 	lui	v0,0x800a
80103ea0:	0c00048e 	lw	a0,12(s0)
80103ea4:	1829458c 	lw	a1,10520(v0)
80103ea8:	6c69020c 	jal	0x8009a5b0
80103eac:	00000000 	nop
80103eb0:	180012a6 	sh	s2,24(s0)
80103eb4:	1a000286 	lh	v0,26(s0)
80103eb8:	00000000 	nop
80103ebc:	06005310 	beq	v0,s3,0x80103ed8
80103ec0:	0e80023c 	lui	v0,0x800e
80103ec4:	1000028e 	lw	v0,16(s0)
80103ec8:	00000000 	nop
80103ecc:	000040a0 	sb	zero,0(v0)
80103ed0:	1a0013a6 	sh	s3,26(s0)
80103ed4:	0e80023c 	lui	v0,0x800e
80103ed8:	687e4394 	lhu	v1,32360(v0)
80103edc:	00000000 	nop
80103ee0:	00206230 	andi	v0,v1,0x2000
80103ee4:	0a004010 	beqz	v0,0x80103f10
80103ee8:	00106230 	andi	v0,v1,0x1000
80103eec:	3c002292 	lbu	v0,60(s1)
80103ef0:	00000000 	nop
80103ef4:	01004230 	andi	v0,v0,0x1
80103ef8:	07004014 	bnez	v0,0x80103f18
80103efc:	801f023c 	lui	v0,0x1f80
80103f00:	3801438c 	lw	v1,312(v0)
80103f04:	02000224 	li	v0,2
80103f08:	f4370608 	j	0x8018dfd0
80103f0c:	500062a4 	sh	v0,80(v1)
80103f10:	05004010 	beqz	v0,0x80103f28
80103f14:	801f023c 	lui	v0,0x1f80
80103f18:	3801438c 	lw	v1,312(v0)
80103f1c:	03000224 	li	v0,3
80103f20:	f4370608 	j	0x8018dfd0
80103f24:	500062a4 	sh	v0,80(v1)
80103f28:	00406230 	andi	v0,v1,0x4000
80103f2c:	28004010 	beqz	v0,0x80103fd0
80103f30:	00000000 	nop
80103f34:	44002292 	lbu	v0,68(s1)
80103f38:	00000000 	nop
80103f3c:	24004010 	beqz	v0,0x80103fd0
80103f40:	11000424 	li	a0,17
80103f44:	21280000 	move	a1,zero
80103f48:	64d1010c 	jal	0x80074590
80103f4c:	2130a000 	move	a2,a1
80103f50:	44002392 	lbu	v1,68(s1)
80103f54:	30001224 	li	s2,48
80103f58:	21106000 	move	v0,v1
80103f5c:	ffff4224 	addiu	v0,v0,-1
80103f60:	460022a2 	sb	v0,70(s1)
80103f64:	0c80023c 	lui	v0,0x800c
80103f68:	98f45024 	addiu	s0,v0,-2920
80103f6c:	450023a2 	sb	v1,69(s1)
80103f70:	18000286 	lh	v0,24(s0)
80103f74:	00000000 	nop
80103f78:	07005210 	beq	v0,s2,0x80103f98
80103f7c:	ffff1324 	li	s3,-1
80103f80:	0a80023c 	lui	v0,0x800a
80103f84:	0c00048e 	lw	a0,12(s0)
80103f88:	1429458c 	lw	a1,10516(v0)
80103f8c:	6c69020c 	jal	0x8009a5b0
80103f90:	00000000 	nop
80103f94:	180012a6 	sh	s2,24(s0)
80103f98:	1a000286 	lh	v0,26(s0)
80103f9c:	00000000 	nop
80103fa0:	06005310 	beq	v0,s3,0x80103fbc
80103fa4:	02000224 	li	v0,2
80103fa8:	1000028e 	lw	v0,16(s0)
80103fac:	00000000 	nop
80103fb0:	000040a0 	sb	zero,0(v0)
80103fb4:	1a0013a6 	sh	s3,26(s0)
80103fb8:	02000224 	li	v0,2
80103fbc:	000022a2 	sb	v0,0(s1)
80103fc0:	10000224 	li	v0,16
80103fc4:	020020a2 	sb	zero,2(s1)
80103fc8:	010020a2 	sb	zero,1(s1)
80103fcc:	3f0022a2 	sb	v0,63(s1)
80103fd0:	2000bf8f 	lw	ra,32(sp)
80103fd4:	1c00b38f 	lw	s3,28(sp)
80103fd8:	1800b28f 	lw	s2,24(sp)
80103fdc:	1400b18f 	lw	s1,20(sp)
80103fe0:	1000b08f 	lw	s0,16(sp)
80103fe4:	0800e003 	jr	ra
80103fe8:	2800bd27 	addiu	sp,sp,40
80103fec:	d8ffbd27 	addiu	sp,sp,-40
80103ff0:	1000b0af 	sw	s0,16(sp)
80103ff4:	21808000 	move	s0,a0
80103ff8:	2400bfaf 	sw	ra,36(sp)
80103ffc:	2000b4af 	sw	s4,32(sp)
80104000:	1c00b3af 	sw	s3,28(sp)
80104004:	1800b2af 	sw	s2,24(sp)
80104008:	1400b1af 	sw	s1,20(sp)
8010400c:	3e000292 	lbu	v0,62(s0)
80104010:	00000000 	nop
80104014:	9f004010 	beqz	v0,0x80104294
80104018:	21904000 	move	s2,v0
8010401c:	02000224 	li	v0,2
80104020:	6c004212 	beq	s2,v0,0x801041d4
80104024:	0300422a 	slti	v0,s2,3
80104028:	05004010 	beqz	v0,0x80104040
8010402c:	01000224 	li	v0,1
80104030:	08004212 	beq	s2,v0,0x80104054
80104034:	00000000 	nop
80104038:	8f380608 	j	0x8018e23c
8010403c:	00000000 	nop
80104040:	04000224 	li	v0,4
80104044:	29004212 	beq	s2,v0,0x801040ec
80104048:	00000000 	nop
8010404c:	8f380608 	j	0x8018e23c
80104050:	00000000 	nop
80104054:	46000292 	lbu	v0,70(s0)
80104058:	00000000 	nop
8010405c:	21100202 	addu	v0,s0,v0
80104060:	4e004390 	lbu	v1,78(v0)
80104064:	ff000224 	li	v0,255
80104068:	1c006214 	bne	v1,v0,0x801040dc
8010406c:	30001224 	li	s2,48
80104070:	0c80023c 	lui	v0,0x800c
80104074:	98f45124 	addiu	s1,v0,-2920
80104078:	18002286 	lh	v0,24(s1)
8010407c:	00000000 	nop
80104080:	07005210 	beq	v0,s2,0x801040a0
80104084:	ffff1324 	li	s3,-1
80104088:	0a80023c 	lui	v0,0x800a
8010408c:	0c00248e 	lw	a0,12(s1)
80104090:	1429458c 	lw	a1,10516(v0)
80104094:	6c69020c 	jal	0x8009a5b0
80104098:	00000000 	nop
8010409c:	180032a6 	sh	s2,24(s1)
801040a0:	1a002286 	lh	v0,26(s1)
801040a4:	00000000 	nop
801040a8:	06005310 	beq	v0,s3,0x801040c4
801040ac:	03000224 	li	v0,3
801040b0:	1000228e 	lw	v0,16(s1)
801040b4:	00000000 	nop
801040b8:	000040a0 	sb	zero,0(v0)
801040bc:	1a0033a6 	sh	s3,26(s1)
801040c0:	03000224 	li	v0,3
801040c4:	000002a2 	sb	v0,0(s0)
801040c8:	0c000224 	li	v0,12
801040cc:	020000a2 	sb	zero,2(s0)
801040d0:	010000a2 	sb	zero,1(s0)
801040d4:	a5380608 	j	0x8018e294
801040d8:	3f0002a2 	sb	v0,63(s0)
801040dc:	d335060c 	jal	0x8018d74c
801040e0:	21200002 	move	a0,s0
801040e4:	a5380608 	j	0x8018e294
801040e8:	00000000 	nop
801040ec:	3c000292 	lbu	v0,60(s0)
801040f0:	00000000 	nop
801040f4:	01004230 	andi	v0,v0,0x1
801040f8:	1b004014 	bnez	v0,0x80104168
801040fc:	33001324 	li	s3,51
80104100:	32001224 	li	s2,50
80104104:	0c80023c 	lui	v0,0x800c
80104108:	98f45124 	addiu	s1,v0,-2920
8010410c:	18002286 	lh	v0,24(s1)
80104110:	00000000 	nop
80104114:	07005210 	beq	v0,s2,0x80104134
80104118:	ffff1324 	li	s3,-1
8010411c:	0a80023c 	lui	v0,0x800a
80104120:	0c00248e 	lw	a0,12(s1)
80104124:	1c29458c 	lw	a1,10524(v0)
80104128:	6c69020c 	jal	0x8009a5b0
8010412c:	00000000 	nop
80104130:	180032a6 	sh	s2,24(s1)
80104134:	1a002286 	lh	v0,26(s1)
80104138:	00000000 	nop
8010413c:	06005310 	beq	v0,s3,0x80104158
80104140:	01000224 	li	v0,1
80104144:	1000228e 	lw	v0,16(s1)
80104148:	00000000 	nop
8010414c:	000040a0 	sb	zero,0(v0)
80104150:	1a0033a6 	sh	s3,26(s1)
80104154:	01000224 	li	v0,1
80104158:	030002a2 	sb	v0,3(s0)
8010415c:	0e000224 	li	v0,14
80104160:	72380608 	j	0x8018e1c8
80104164:	000002a2 	sb	v0,0(s0)
80104168:	0c80023c 	lui	v0,0x800c
8010416c:	98f45124 	addiu	s1,v0,-2920
80104170:	18002286 	lh	v0,24(s1)
80104174:	00000000 	nop
80104178:	07005310 	beq	v0,s3,0x80104198
8010417c:	32001424 	li	s4,50
80104180:	0a80023c 	lui	v0,0x800a
80104184:	0c00248e 	lw	a0,12(s1)
80104188:	2029458c 	lw	a1,10528(v0)
8010418c:	6c69020c 	jal	0x8009a5b0
80104190:	00000000 	nop
80104194:	180033a6 	sh	s3,24(s1)
80104198:	1a002286 	lh	v0,26(s1)
8010419c:	00000000 	nop
801041a0:	06005410 	beq	v0,s4,0x801041bc
801041a4:	0a80023c 	lui	v0,0x800a
801041a8:	1000248e 	lw	a0,16(s1)
801041ac:	1c29458c 	lw	a1,10524(v0)
801041b0:	6c69020c 	jal	0x8009a5b0
801041b4:	00000000 	nop
801041b8:	1a0034a6 	sh	s4,26(s1)
801041bc:	01000224 	li	v0,1
801041c0:	530002a2 	sb	v0,83(s0)
801041c4:	000012a2 	sb	s2,0(s0)
801041c8:	020000a2 	sb	zero,2(s0)
801041cc:	a5380608 	j	0x8018e294
801041d0:	010000a2 	sb	zero,1(s0)
801041d4:	35001224 	li	s2,53
801041d8:	0c80023c 	lui	v0,0x800c
801041dc:	98f45124 	addiu	s1,v0,-2920
801041e0:	18002286 	lh	v0,24(s1)
801041e4:	00000000 	nop
801041e8:	07005210 	beq	v0,s2,0x80104208
801041ec:	ffff1324 	li	s3,-1
801041f0:	0a80023c 	lui	v0,0x800a
801041f4:	0c00248e 	lw	a0,12(s1)
801041f8:	2829458c 	lw	a1,10536(v0)
801041fc:	6c69020c 	jal	0x8009a5b0
80104200:	00000000 	nop
80104204:	180032a6 	sh	s2,24(s1)
80104208:	1a002286 	lh	v0,26(s1)
8010420c:	00000000 	nop
80104210:	06005310 	beq	v0,s3,0x8010422c
80104214:	1e000224 	li	v0,30
80104218:	1000228e 	lw	v0,16(s1)
8010421c:	00000000 	nop
80104220:	000040a0 	sb	zero,0(v0)
80104224:	1a0033a6 	sh	s3,26(s1)
80104228:	1e000224 	li	v0,30
8010422c:	500002a2 	sb	v0,80(s0)
80104230:	46000292 	lbu	v0,70(s0)
80104234:	92380608 	j	0x8018e248
80104238:	fc000324 	li	v1,252
8010423c:	46000292 	lbu	v0,70(s0)
80104240:	fc000324 	li	v1,252
80104244:	500000a2 	sb	zero,80(s0)
80104248:	440000a2 	sb	zero,68(s0)
8010424c:	4b0003a2 	sb	v1,75(s0)
80104250:	4a0003a2 	sb	v1,74(s0)
80104254:	21100202 	addu	v0,s0,v0
80104258:	480040a0 	sb	zero,72(v0)
8010425c:	46000292 	lbu	v0,70(s0)
80104260:	ff000324 	li	v1,255
80104264:	21100202 	addu	v0,s0,v0
80104268:	4e0043a0 	sb	v1,78(v0)
8010426c:	0f000224 	li	v0,15
80104270:	460003a2 	sb	v1,70(s0)
80104274:	470000a2 	sb	zero,71(s0)
80104278:	520000a2 	sb	zero,82(s0)
8010427c:	540000a6 	sh	zero,84(s0)
80104280:	560000a6 	sh	zero,86(s0)
80104284:	030000a2 	sb	zero,3(s0)
80104288:	020000a2 	sb	zero,2(s0)
8010428c:	010000a2 	sb	zero,1(s0)
80104290:	000002a2 	sb	v0,0(s0)
80104294:	2400bf8f 	lw	ra,36(sp)
80104298:	2000b48f 	lw	s4,32(sp)
8010429c:	1c00b38f 	lw	s3,28(sp)
801042a0:	1800b28f 	lw	s2,24(sp)
801042a4:	1400b18f 	lw	s1,20(sp)
801042a8:	1000b08f 	lw	s0,16(sp)
801042ac:	0800e003 	jr	ra
801042b0:	2800bd27 	addiu	sp,sp,40
801042b4:	d8ffbd27 	addiu	sp,sp,-40
801042b8:	1000b0af 	sw	s0,16(sp)
801042bc:	21808000 	move	s0,a0
801042c0:	2000bfaf 	sw	ra,32(sp)
801042c4:	1c00b3af 	sw	s3,28(sp)
801042c8:	1800b2af 	sw	s2,24(sp)
801042cc:	1400b1af 	sw	s1,20(sp)
801042d0:	46000292 	lbu	v0,70(s0)
801042d4:	00000000 	nop
801042d8:	21100202 	addu	v0,s0,v0
801042dc:	4a004290 	lbu	v0,74(v0)
801042e0:	00000000 	nop
801042e4:	2d004010 	beqz	v0,0x8010439c
801042e8:	30001224 	li	s2,48
801042ec:	0c80023c 	lui	v0,0x800c
801042f0:	98f45124 	addiu	s1,v0,-2920
801042f4:	18002286 	lh	v0,24(s1)
801042f8:	00000000 	nop
801042fc:	07005210 	beq	v0,s2,0x8010431c
80104300:	ffff1324 	li	s3,-1
80104304:	0a80023c 	lui	v0,0x800a
80104308:	0c00248e 	lw	a0,12(s1)
8010430c:	1429458c 	lw	a1,10516(v0)
80104310:	6c69020c 	jal	0x8009a5b0
80104314:	00000000 	nop
80104318:	180032a6 	sh	s2,24(s1)
8010431c:	1a002286 	lh	v0,26(s1)
80104320:	00000000 	nop
80104324:	06005310 	beq	v0,s3,0x80104340
80104328:	1e000224 	li	v0,30
8010432c:	1000228e 	lw	v0,16(s1)
80104330:	00000000 	nop
80104334:	000040a0 	sb	zero,0(v0)
80104338:	1a0033a6 	sh	s3,26(s1)
8010433c:	1e000224 	li	v0,30
80104340:	500002a2 	sb	v0,80(s0)
80104344:	46000292 	lbu	v0,70(s0)
80104348:	fc000324 	li	v1,252
8010434c:	440000a2 	sb	zero,68(s0)
80104350:	4b0003a2 	sb	v1,75(s0)
80104354:	4a0003a2 	sb	v1,74(s0)
80104358:	21100202 	addu	v0,s0,v0
8010435c:	480040a0 	sb	zero,72(v0)
80104360:	46000292 	lbu	v0,70(s0)
80104364:	ff000324 	li	v1,255
80104368:	21100202 	addu	v0,s0,v0
8010436c:	4e0043a0 	sb	v1,78(v0)
80104370:	0f000224 	li	v0,15
80104374:	460003a2 	sb	v1,70(s0)
80104378:	470000a2 	sb	zero,71(s0)
8010437c:	520000a2 	sb	zero,82(s0)
80104380:	540000a6 	sh	zero,84(s0)
80104384:	560000a6 	sh	zero,86(s0)
80104388:	030000a2 	sb	zero,3(s0)
8010438c:	020000a2 	sb	zero,2(s0)
80104390:	010000a2 	sb	zero,1(s0)
80104394:	4c390608 	j	0x8018e530
80104398:	000002a2 	sb	v0,0(s0)
8010439c:	0e80023c 	lui	v0,0x800e
801043a0:	687e4294 	lhu	v0,32360(v0)
801043a4:	00000000 	nop
801043a8:	80004230 	andi	v0,v0,0x80
801043ac:	0a004010 	beqz	v0,0x801043d8
801043b0:	0e80023c 	lui	v0,0x800e
801043b4:	53000292 	lbu	v0,83(s0)
801043b8:	00000000 	nop
801043bc:	05004010 	beqz	v0,0x801043d4
801043c0:	15000424 	li	a0,21
801043c4:	21280000 	move	a1,zero
801043c8:	64d1010c 	jal	0x80074590
801043cc:	2130a000 	move	a2,a1
801043d0:	530000a2 	sb	zero,83(s0)
801043d4:	0e80023c 	lui	v0,0x800e
801043d8:	687e4294 	lhu	v0,32360(v0)
801043dc:	00000000 	nop
801043e0:	20004230 	andi	v0,v0,0x20
801043e4:	0c004010 	beqz	v0,0x80104418
801043e8:	0e80023c 	lui	v0,0x800e
801043ec:	53000292 	lbu	v0,83(s0)
801043f0:	00000000 	nop
801043f4:	08004014 	bnez	v0,0x80104418
801043f8:	0e80023c 	lui	v0,0x800e
801043fc:	15000424 	li	a0,21
80104400:	21280000 	move	a1,zero
80104404:	64d1010c 	jal	0x80074590
80104408:	2130a000 	move	a2,a1
8010440c:	01000224 	li	v0,1
80104410:	530002a2 	sb	v0,83(s0)
80104414:	0e80023c 	lui	v0,0x800e
80104418:	687e4494 	lhu	a0,32360(v0)
8010441c:	00000000 	nop
80104420:	00408230 	andi	v0,a0,0x4000
80104424:	04004010 	beqz	v0,0x80104438
80104428:	ffff0324 	li	v1,-1
8010442c:	53000392 	lbu	v1,83(s0)
80104430:	12390608 	j	0x8018e448
80104434:	00000000 	nop
80104438:	00208230 	andi	v0,a0,0x2000
8010443c:	02004010 	beqz	v0,0x80104448
80104440:	00000000 	nop
80104444:	01000324 	li	v1,1
80104448:	05006010 	beqz	v1,0x80104460
8010444c:	01000224 	li	v0,1
80104450:	23006210 	beq	v1,v0,0x801044e0
80104454:	14000424 	li	a0,20
80104458:	4c390608 	j	0x8018e530
8010445c:	00000000 	nop
80104460:	11000424 	li	a0,17
80104464:	21280000 	move	a1,zero
80104468:	64d1010c 	jal	0x80074590
8010446c:	2130a000 	move	a2,a1
80104470:	4a001224 	li	s2,74
80104474:	0c80023c 	lui	v0,0x800c
80104478:	98f45124 	addiu	s1,v0,-2920
8010447c:	18002286 	lh	v0,24(s1)
80104480:	00000000 	nop
80104484:	07005210 	beq	v0,s2,0x801044a4
80104488:	ffff1324 	li	s3,-1
8010448c:	0a80023c 	lui	v0,0x800a
80104490:	0c00248e 	lw	a0,12(s1)
80104494:	7c29458c 	lw	a1,10620(v0)
80104498:	6c69020c 	jal	0x8009a5b0
8010449c:	00000000 	nop
801044a0:	180032a6 	sh	s2,24(s1)
801044a4:	1a002286 	lh	v0,26(s1)
801044a8:	00000000 	nop
801044ac:	06005310 	beq	v0,s3,0x801044c8
801044b0:	05000224 	li	v0,5
801044b4:	1000228e 	lw	v0,16(s1)
801044b8:	00000000 	nop
801044bc:	000040a0 	sb	zero,0(v0)
801044c0:	1a0033a6 	sh	s3,26(s1)
801044c4:	05000224 	li	v0,5
801044c8:	000002a2 	sb	v0,0(s0)
801044cc:	0a000224 	li	v0,10
801044d0:	020000a2 	sb	zero,2(s0)
801044d4:	010000a2 	sb	zero,1(s0)
801044d8:	4c390608 	j	0x8018e530
801044dc:	3f0002a2 	sb	v0,63(s0)
801044e0:	21280000 	move	a1,zero
801044e4:	64d1010c 	jal	0x80074590
801044e8:	2130a000 	move	a2,a1
801044ec:	45000392 	lbu	v1,69(s0)
801044f0:	fc000224 	li	v0,252
801044f4:	4b0002a2 	sb	v0,75(s0)
801044f8:	4a0002a2 	sb	v0,74(s0)
801044fc:	ff000224 	li	v0,255
80104500:	460002a2 	sb	v0,70(s0)
80104504:	0f000224 	li	v0,15
80104508:	500000a2 	sb	zero,80(s0)
8010450c:	470000a2 	sb	zero,71(s0)
80104510:	520000a2 	sb	zero,82(s0)
80104514:	540000a6 	sh	zero,84(s0)
80104518:	560000a6 	sh	zero,86(s0)
8010451c:	030000a2 	sb	zero,3(s0)
80104520:	020000a2 	sb	zero,2(s0)
80104524:	010000a2 	sb	zero,1(s0)
80104528:	000002a2 	sb	v0,0(s0)
8010452c:	440003a2 	sb	v1,68(s0)
80104530:	2000bf8f 	lw	ra,32(sp)
80104534:	1c00b38f 	lw	s3,28(sp)
80104538:	1800b28f 	lw	s2,24(sp)
8010453c:	1400b18f 	lw	s1,20(sp)
80104540:	1000b08f 	lw	s0,16(sp)
80104544:	0800e003 	jr	ra
80104548:	2800bd27 	addiu	sp,sp,40
8010454c:	d8ffbd27 	addiu	sp,sp,-40
80104550:	1000b0af 	sw	s0,16(sp)
80104554:	21808000 	move	s0,a0
80104558:	2000bfaf 	sw	ra,32(sp)
8010455c:	1c00b3af 	sw	s3,28(sp)
80104560:	1800b2af 	sw	s2,24(sp)
80104564:	1400b1af 	sw	s1,20(sp)
80104568:	3e000292 	lbu	v0,62(s0)
8010456c:	00000000 	nop
80104570:	4b004010 	beqz	v0,0x801046a0
80104574:	21184000 	move	v1,v0
80104578:	01000224 	li	v0,1
8010457c:	1d006214 	bne	v1,v0,0x801045f4
80104580:	4b001224 	li	s2,75
80104584:	34001224 	li	s2,52
80104588:	0c80023c 	lui	v0,0x800c
8010458c:	98f45124 	addiu	s1,v0,-2920
80104590:	18002286 	lh	v0,24(s1)
80104594:	00000000 	nop
80104598:	07005210 	beq	v0,s2,0x801045b8
8010459c:	ffff1324 	li	s3,-1
801045a0:	0a80023c 	lui	v0,0x800a
801045a4:	0c00248e 	lw	a0,12(s1)
801045a8:	2429458c 	lw	a1,10532(v0)
801045ac:	6c69020c 	jal	0x8009a5b0
801045b0:	00000000 	nop
801045b4:	180032a6 	sh	s2,24(s1)
801045b8:	1a002286 	lh	v0,26(s1)
801045bc:	00000000 	nop
801045c0:	06005310 	beq	v0,s3,0x801045dc
801045c4:	10000224 	li	v0,16
801045c8:	1000228e 	lw	v0,16(s1)
801045cc:	00000000 	nop
801045d0:	000040a0 	sb	zero,0(v0)
801045d4:	1a0033a6 	sh	s3,26(s1)
801045d8:	10000224 	li	v0,16
801045dc:	000002a2 	sb	v0,0(s0)
801045e0:	0e000224 	li	v0,14
801045e4:	020000a2 	sb	zero,2(s0)
801045e8:	010000a2 	sb	zero,1(s0)
801045ec:	a8390608 	j	0x8018e6a0
801045f0:	3f0002a2 	sb	v0,63(s0)
801045f4:	0c80023c 	lui	v0,0x800c
801045f8:	98f45124 	addiu	s1,v0,-2920
801045fc:	18002286 	lh	v0,24(s1)
80104600:	00000000 	nop
80104604:	07005210 	beq	v0,s2,0x80104624
80104608:	ffff1324 	li	s3,-1
8010460c:	0a80023c 	lui	v0,0x800a
80104610:	0c00248e 	lw	a0,12(s1)
80104614:	8029458c 	lw	a1,10624(v0)
80104618:	6c69020c 	jal	0x8009a5b0
8010461c:	00000000 	nop
80104620:	180032a6 	sh	s2,24(s1)
80104624:	1a002286 	lh	v0,26(s1)
80104628:	00000000 	nop
8010462c:	06005310 	beq	v0,s3,0x80104648
80104630:	1e000224 	li	v0,30
80104634:	1000228e 	lw	v0,16(s1)
80104638:	00000000 	nop
8010463c:	000040a0 	sb	zero,0(v0)
80104640:	1a0033a6 	sh	s3,26(s1)
80104644:	1e000224 	li	v0,30
80104648:	500002a2 	sb	v0,80(s0)
8010464c:	46000292 	lbu	v0,70(s0)
80104650:	fc000324 	li	v1,252
80104654:	440000a2 	sb	zero,68(s0)
80104658:	4b0003a2 	sb	v1,75(s0)
8010465c:	4a0003a2 	sb	v1,74(s0)
80104660:	21100202 	addu	v0,s0,v0
80104664:	480040a0 	sb	zero,72(v0)
80104668:	46000292 	lbu	v0,70(s0)
8010466c:	ff000324 	li	v1,255
80104670:	21100202 	addu	v0,s0,v0
80104674:	4e0043a0 	sb	v1,78(v0)
80104678:	0f000224 	li	v0,15
8010467c:	460003a2 	sb	v1,70(s0)
80104680:	470000a2 	sb	zero,71(s0)
80104684:	520000a2 	sb	zero,82(s0)
80104688:	540000a6 	sh	zero,84(s0)
8010468c:	560000a6 	sh	zero,86(s0)
80104690:	030000a2 	sb	zero,3(s0)
80104694:	020000a2 	sb	zero,2(s0)
80104698:	010000a2 	sb	zero,1(s0)
8010469c:	000002a2 	sb	v0,0(s0)
801046a0:	2000bf8f 	lw	ra,32(sp)
801046a4:	1c00b38f 	lw	s3,28(sp)
801046a8:	1800b28f 	lw	s2,24(sp)
801046ac:	1400b18f 	lw	s1,20(sp)
801046b0:	1000b08f 	lw	s0,16(sp)
801046b4:	0800e003 	jr	ra
801046b8:	2800bd27 	addiu	sp,sp,40
801046bc:	d8ffbd27 	addiu	sp,sp,-40
801046c0:	1000b0af 	sw	s0,16(sp)
801046c4:	21808000 	move	s0,a0
801046c8:	2000bfaf 	sw	ra,32(sp)
801046cc:	1c00b3af 	sw	s3,28(sp)
801046d0:	1800b2af 	sw	s2,24(sp)
801046d4:	1400b1af 	sw	s1,20(sp)
801046d8:	46000292 	lbu	v0,70(s0)
801046dc:	00000000 	nop
801046e0:	21100202 	addu	v0,s0,v0
801046e4:	4a004290 	lbu	v0,74(v0)
801046e8:	0800118e 	lw	s1,8(s0)
801046ec:	29004010 	beqz	v0,0x80104794
801046f0:	30001224 	li	s2,48
801046f4:	0c80023c 	lui	v0,0x800c
801046f8:	98f45124 	addiu	s1,v0,-2920
801046fc:	18002286 	lh	v0,24(s1)
80104700:	00000000 	nop
80104704:	07005210 	beq	v0,s2,0x80104724
80104708:	ffff1324 	li	s3,-1
8010470c:	0a80023c 	lui	v0,0x800a
80104710:	0c00248e 	lw	a0,12(s1)
80104714:	1429458c 	lw	a1,10516(v0)
80104718:	6c69020c 	jal	0x8009a5b0
8010471c:	00000000 	nop
80104720:	180032a6 	sh	s2,24(s1)
80104724:	1a002286 	lh	v0,26(s1)
80104728:	00000000 	nop
8010472c:	05005310 	beq	v0,s3,0x80104744
80104730:	00000000 	nop
80104734:	1000228e 	lw	v0,16(s1)
80104738:	00000000 	nop
8010473c:	000040a0 	sb	zero,0(v0)
80104740:	1a0033a6 	sh	s3,26(s1)
80104744:	46000292 	lbu	v0,70(s0)
80104748:	fc000324 	li	v1,252
8010474c:	500000a2 	sb	zero,80(s0)
80104750:	440000a2 	sb	zero,68(s0)
80104754:	4b0003a2 	sb	v1,75(s0)
80104758:	4a0003a2 	sb	v1,74(s0)
8010475c:	21100202 	addu	v0,s0,v0
80104760:	480040a0 	sb	zero,72(v0)
80104764:	46000292 	lbu	v0,70(s0)
80104768:	ff000324 	li	v1,255
8010476c:	21100202 	addu	v0,s0,v0
80104770:	4e0043a0 	sb	v1,78(v0)
80104774:	0f000224 	li	v0,15
80104778:	460003a2 	sb	v1,70(s0)
8010477c:	470000a2 	sb	zero,71(s0)
80104780:	520000a2 	sb	zero,82(s0)
80104784:	540000a6 	sh	zero,84(s0)
80104788:	560000a6 	sh	zero,86(s0)
8010478c:	4d3a0608 	j	0x8018e934
80104790:	030000a2 	sb	zero,3(s0)
80104794:	ca36060c 	jal	0x8018db28
80104798:	21200002 	move	a0,s0
8010479c:	0e80023c 	lui	v0,0x800e
801047a0:	687e4394 	lhu	v1,32360(v0)
801047a4:	00000000 	nop
801047a8:	00206230 	andi	v0,v1,0x2000
801047ac:	2b004010 	beqz	v0,0x8010485c
801047b0:	14000424 	li	a0,20
801047b4:	21280000 	move	a1,zero
801047b8:	64d1010c 	jal	0x80074590
801047bc:	2130a000 	move	a2,a1
801047c0:	30001224 	li	s2,48
801047c4:	0c80023c 	lui	v0,0x800c
801047c8:	98f45124 	addiu	s1,v0,-2920
801047cc:	18002286 	lh	v0,24(s1)
801047d0:	00000000 	nop
801047d4:	07005210 	beq	v0,s2,0x801047f4
801047d8:	ffff1324 	li	s3,-1
801047dc:	0a80023c 	lui	v0,0x800a
801047e0:	0c00248e 	lw	a0,12(s1)
801047e4:	1429458c 	lw	a1,10516(v0)
801047e8:	6c69020c 	jal	0x8009a5b0
801047ec:	00000000 	nop
801047f0:	180032a6 	sh	s2,24(s1)
801047f4:	1a002286 	lh	v0,26(s1)
801047f8:	00000000 	nop
801047fc:	05005310 	beq	v0,s3,0x80104814
80104800:	00000000 	nop
80104804:	1000228e 	lw	v0,16(s1)
80104808:	00000000 	nop
8010480c:	000040a0 	sb	zero,0(v0)
80104810:	1a0033a6 	sh	s3,26(s1)
80104814:	45000392 	lbu	v1,69(s0)
80104818:	fc000224 	li	v0,252
8010481c:	4b0002a2 	sb	v0,75(s0)
80104820:	4a0002a2 	sb	v0,74(s0)
80104824:	ff000224 	li	v0,255
80104828:	460002a2 	sb	v0,70(s0)
8010482c:	0f000224 	li	v0,15
80104830:	500000a2 	sb	zero,80(s0)
80104834:	470000a2 	sb	zero,71(s0)
80104838:	520000a2 	sb	zero,82(s0)
8010483c:	540000a6 	sh	zero,84(s0)
80104840:	560000a6 	sh	zero,86(s0)
80104844:	030000a2 	sb	zero,3(s0)
80104848:	020000a2 	sb	zero,2(s0)
8010484c:	010000a2 	sb	zero,1(s0)
80104850:	000002a2 	sb	v0,0(s0)
80104854:	503a0608 	j	0x8018e940
80104858:	440003a2 	sb	v1,68(s0)
8010485c:	56000286 	lh	v0,86(s0)
80104860:	00000000 	nop
80104864:	36004014 	bnez	v0,0x80104940
80104868:	00406230 	andi	v0,v1,0x4000
8010486c:	34004010 	beqz	v0,0x80104940
80104870:	11000424 	li	a0,17
80104874:	21280000 	move	a1,zero
80104878:	64d1010c 	jal	0x80074590
8010487c:	2130a000 	move	a2,a1
80104880:	47000392 	lbu	v1,71(s0)
80104884:	00000000 	nop
80104888:	00110300 	sll	v0,v1,0x4
8010488c:	23104300 	subu	v0,v0,v1
80104890:	80100200 	sll	v0,v0,0x2
80104894:	21102202 	addu	v0,s1,v0
80104898:	06004390 	lbu	v1,6(v0)
8010489c:	01000224 	li	v0,1
801048a0:	0d006214 	bne	v1,v0,0x801048d8
801048a4:	39001224 	li	s2,57
801048a8:	3a001224 	li	s2,58
801048ac:	0c80023c 	lui	v0,0x800c
801048b0:	98f45124 	addiu	s1,v0,-2920
801048b4:	18002286 	lh	v0,24(s1)
801048b8:	00000000 	nop
801048bc:	12005210 	beq	v0,s2,0x80104908
801048c0:	ffff1324 	li	s3,-1
801048c4:	0a80023c 	lui	v0,0x800a
801048c8:	0c00248e 	lw	a0,12(s1)
801048cc:	3c29458c 	lw	a1,10556(v0)
801048d0:	3f3a0608 	j	0x8018e8fc
801048d4:	00000000 	nop
801048d8:	0c80023c 	lui	v0,0x800c
801048dc:	98f45124 	addiu	s1,v0,-2920
801048e0:	18002286 	lh	v0,24(s1)
801048e4:	00000000 	nop
801048e8:	07005210 	beq	v0,s2,0x80104908
801048ec:	ffff1324 	li	s3,-1
801048f0:	0a80023c 	lui	v0,0x800a
801048f4:	0c00248e 	lw	a0,12(s1)
801048f8:	3829458c 	lw	a1,10552(v0)
801048fc:	6c69020c 	jal	0x8009a5b0
80104900:	00000000 	nop
80104904:	180032a6 	sh	s2,24(s1)
80104908:	1a002286 	lh	v0,26(s1)
8010490c:	00000000 	nop
80104910:	06005310 	beq	v0,s3,0x8010492c
80104914:	01000224 	li	v0,1
80104918:	1000228e 	lw	v0,16(s1)
8010491c:	00000000 	nop
80104920:	000040a0 	sb	zero,0(v0)
80104924:	1a0033a6 	sh	s3,26(s1)
80104928:	01000224 	li	v0,1
8010492c:	530002a2 	sb	v0,83(s0)
80104930:	07000224 	li	v0,7
80104934:	020000a2 	sb	zero,2(s0)
80104938:	010000a2 	sb	zero,1(s0)
8010493c:	000002a2 	sb	v0,0(s0)
80104940:	2000bf8f 	lw	ra,32(sp)
80104944:	1c00b38f 	lw	s3,28(sp)
80104948:	1800b28f 	lw	s2,24(sp)
8010494c:	1400b18f 	lw	s1,20(sp)
80104950:	1000b08f 	lw	s0,16(sp)
80104954:	0800e003 	jr	ra
80104958:	2800bd27 	addiu	sp,sp,40
8010495c:	d8ffbd27 	addiu	sp,sp,-40
80104960:	1000b0af 	sw	s0,16(sp)
80104964:	21808000 	move	s0,a0
80104968:	2000bfaf 	sw	ra,32(sp)
8010496c:	1c00b3af 	sw	s3,28(sp)
80104970:	1800b2af 	sw	s2,24(sp)
80104974:	1400b1af 	sw	s1,20(sp)
80104978:	46000292 	lbu	v0,70(s0)
8010497c:	00000000 	nop
80104980:	21100202 	addu	v0,s0,v0
80104984:	4a004290 	lbu	v0,74(v0)
80104988:	00000000 	nop
8010498c:	29004010 	beqz	v0,0x80104a34
80104990:	30001224 	li	s2,48
80104994:	0c80023c 	lui	v0,0x800c
80104998:	98f45124 	addiu	s1,v0,-2920
8010499c:	18002286 	lh	v0,24(s1)
801049a0:	00000000 	nop
801049a4:	07005210 	beq	v0,s2,0x801049c4
801049a8:	ffff1324 	li	s3,-1
801049ac:	0a80023c 	lui	v0,0x800a
801049b0:	0c00248e 	lw	a0,12(s1)
801049b4:	1429458c 	lw	a1,10516(v0)
801049b8:	6c69020c 	jal	0x8009a5b0
801049bc:	00000000 	nop
801049c0:	180032a6 	sh	s2,24(s1)
801049c4:	1a002286 	lh	v0,26(s1)
801049c8:	00000000 	nop
801049cc:	05005310 	beq	v0,s3,0x801049e4
801049d0:	00000000 	nop
801049d4:	1000228e 	lw	v0,16(s1)
801049d8:	00000000 	nop
801049dc:	000040a0 	sb	zero,0(v0)
801049e0:	1a0033a6 	sh	s3,26(s1)
801049e4:	46000292 	lbu	v0,70(s0)
801049e8:	fc000324 	li	v1,252
801049ec:	500000a2 	sb	zero,80(s0)
801049f0:	440000a2 	sb	zero,68(s0)
801049f4:	4b0003a2 	sb	v1,75(s0)
801049f8:	4a0003a2 	sb	v1,74(s0)
801049fc:	21100202 	addu	v0,s0,v0
80104a00:	480040a0 	sb	zero,72(v0)
80104a04:	46000292 	lbu	v0,70(s0)
80104a08:	ff000324 	li	v1,255
80104a0c:	21100202 	addu	v0,s0,v0
80104a10:	4e0043a0 	sb	v1,78(v0)
80104a14:	0f000224 	li	v0,15
80104a18:	460003a2 	sb	v1,70(s0)
80104a1c:	470000a2 	sb	zero,71(s0)
80104a20:	520000a2 	sb	zero,82(s0)
80104a24:	540000a6 	sh	zero,84(s0)
80104a28:	560000a6 	sh	zero,86(s0)
80104a2c:	f63a0608 	j	0x8018ebd8
80104a30:	030000a2 	sb	zero,3(s0)
80104a34:	0e80023c 	lui	v0,0x800e
80104a38:	687e4294 	lhu	v0,32360(v0)
80104a3c:	00000000 	nop
80104a40:	80004230 	andi	v0,v0,0x80
80104a44:	0a004010 	beqz	v0,0x80104a70
80104a48:	0e80023c 	lui	v0,0x800e
80104a4c:	53000292 	lbu	v0,83(s0)
80104a50:	00000000 	nop
80104a54:	05004010 	beqz	v0,0x80104a6c
80104a58:	15000424 	li	a0,21
80104a5c:	21280000 	move	a1,zero
80104a60:	64d1010c 	jal	0x80074590
80104a64:	2130a000 	move	a2,a1
80104a68:	530000a2 	sb	zero,83(s0)
80104a6c:	0e80023c 	lui	v0,0x800e
80104a70:	687e4294 	lhu	v0,32360(v0)
80104a74:	00000000 	nop
80104a78:	20004230 	andi	v0,v0,0x20
80104a7c:	0c004010 	beqz	v0,0x80104ab0
80104a80:	0e80023c 	lui	v0,0x800e
80104a84:	53000292 	lbu	v0,83(s0)
80104a88:	00000000 	nop
80104a8c:	08004014 	bnez	v0,0x80104ab0
80104a90:	0e80023c 	lui	v0,0x800e
80104a94:	15000424 	li	a0,21
80104a98:	21280000 	move	a1,zero
80104a9c:	64d1010c 	jal	0x80074590
80104aa0:	2130a000 	move	a2,a1
80104aa4:	01000224 	li	v0,1
80104aa8:	530002a2 	sb	v0,83(s0)
80104aac:	0e80023c 	lui	v0,0x800e
80104ab0:	687e4494 	lhu	a0,32360(v0)
80104ab4:	00000000 	nop
80104ab8:	00408230 	andi	v0,a0,0x4000
80104abc:	04004010 	beqz	v0,0x80104ad0
80104ac0:	ffff0324 	li	v1,-1
80104ac4:	53000392 	lbu	v1,83(s0)
80104ac8:	b83a0608 	j	0x8018eae0
80104acc:	00000000 	nop
80104ad0:	00208230 	andi	v0,a0,0x2000
80104ad4:	02004010 	beqz	v0,0x80104ae0
80104ad8:	00000000 	nop
80104adc:	01000324 	li	v1,1
80104ae0:	05006010 	beqz	v1,0x80104af8
80104ae4:	01000224 	li	v0,1
80104ae8:	23006210 	beq	v1,v0,0x80104b78
80104aec:	14000424 	li	a0,20
80104af0:	f93a0608 	j	0x8018ebe4
80104af4:	00000000 	nop
80104af8:	11000424 	li	a0,17
80104afc:	21280000 	move	a1,zero
80104b00:	64d1010c 	jal	0x80074590
80104b04:	2130a000 	move	a2,a1
80104b08:	3b001224 	li	s2,59
80104b0c:	0c80023c 	lui	v0,0x800c
80104b10:	98f45124 	addiu	s1,v0,-2920
80104b14:	18002286 	lh	v0,24(s1)
80104b18:	00000000 	nop
80104b1c:	07005210 	beq	v0,s2,0x80104b3c
80104b20:	ffff1324 	li	s3,-1
80104b24:	0a80023c 	lui	v0,0x800a
80104b28:	0c00248e 	lw	a0,12(s1)
80104b2c:	4029458c 	lw	a1,10560(v0)
80104b30:	6c69020c 	jal	0x8009a5b0
80104b34:	00000000 	nop
80104b38:	180032a6 	sh	s2,24(s1)
80104b3c:	1a002286 	lh	v0,26(s1)
80104b40:	00000000 	nop
80104b44:	06005310 	beq	v0,s3,0x80104b60
80104b48:	08000224 	li	v0,8
80104b4c:	1000228e 	lw	v0,16(s1)
80104b50:	00000000 	nop
80104b54:	000040a0 	sb	zero,0(v0)
80104b58:	1a0033a6 	sh	s3,26(s1)
80104b5c:	08000224 	li	v0,8
80104b60:	000002a2 	sb	v0,0(s0)
80104b64:	04000224 	li	v0,4
80104b68:	020000a2 	sb	zero,2(s0)
80104b6c:	010000a2 	sb	zero,1(s0)
80104b70:	f93a0608 	j	0x8018ebe4
80104b74:	3f0002a2 	sb	v0,63(s0)
80104b78:	21280000 	move	a1,zero
80104b7c:	64d1010c 	jal	0x80074590
80104b80:	2130a000 	move	a2,a1
80104b84:	ffff0324 	li	v1,-1
80104b88:	0c80023c 	lui	v0,0x800c
80104b8c:	98f45124 	addiu	s1,v0,-2920
80104b90:	18002286 	lh	v0,24(s1)
80104b94:	00000000 	nop
80104b98:	05004310 	beq	v0,v1,0x80104bb0
80104b9c:	38001224 	li	s2,56
80104ba0:	0c00228e 	lw	v0,12(s1)
80104ba4:	00000000 	nop
80104ba8:	000040a0 	sb	zero,0(v0)
80104bac:	180023a6 	sh	v1,24(s1)
80104bb0:	1a002286 	lh	v0,26(s1)
80104bb4:	00000000 	nop
80104bb8:	06005210 	beq	v0,s2,0x80104bd4
80104bbc:	0a80023c 	lui	v0,0x800a
80104bc0:	1000248e 	lw	a0,16(s1)
80104bc4:	3429458c 	lw	a1,10548(v0)
80104bc8:	6c69020c 	jal	0x8009a5b0
80104bcc:	00000000 	nop
80104bd0:	1a0032a6 	sh	s2,26(s1)
80104bd4:	06000224 	li	v0,6
80104bd8:	020000a2 	sb	zero,2(s0)
80104bdc:	010000a2 	sb	zero,1(s0)
80104be0:	000002a2 	sb	v0,0(s0)
80104be4:	2000bf8f 	lw	ra,32(sp)
80104be8:	1c00b38f 	lw	s3,28(sp)
80104bec:	1800b28f 	lw	s2,24(sp)
80104bf0:	1400b18f 	lw	s1,20(sp)
80104bf4:	1000b08f 	lw	s0,16(sp)
80104bf8:	0800e003 	jr	ra
80104bfc:	2800bd27 	addiu	sp,sp,40
80104c00:	d8ffbd27 	addiu	sp,sp,-40
80104c04:	1000b0af 	sw	s0,16(sp)
80104c08:	21808000 	move	s0,a0
80104c0c:	2400bfaf 	sw	ra,36(sp)
80104c10:	2000b4af 	sw	s4,32(sp)
80104c14:	1c00b3af 	sw	s3,28(sp)
80104c18:	1800b2af 	sw	s2,24(sp)
80104c1c:	1400b1af 	sw	s1,20(sp)
80104c20:	3e000292 	lbu	v0,62(s0)
80104c24:	00000000 	nop
80104c28:	52004010 	beqz	v0,0x80104d74
80104c2c:	01000324 	li	v1,1
80104c30:	0800148e 	lw	s4,8(s0)
80104c34:	24004314 	bne	v0,v1,0x80104cc8
80104c38:	3c001224 	li	s2,60
80104c3c:	3d001224 	li	s2,61
80104c40:	0c80023c 	lui	v0,0x800c
80104c44:	98f45124 	addiu	s1,v0,-2920
80104c48:	18002286 	lh	v0,24(s1)
80104c4c:	00000000 	nop
80104c50:	07005210 	beq	v0,s2,0x80104c70
80104c54:	ffff1324 	li	s3,-1
80104c58:	0a80023c 	lui	v0,0x800a
80104c5c:	0c00248e 	lw	a0,12(s1)
80104c60:	4829458c 	lw	a1,10568(v0)
80104c64:	6c69020c 	jal	0x8009a5b0
80104c68:	00000000 	nop
80104c6c:	180032a6 	sh	s2,24(s1)
80104c70:	1a002286 	lh	v0,26(s1)
80104c74:	00000000 	nop
80104c78:	05005310 	beq	v0,s3,0x80104c90
80104c7c:	00000000 	nop
80104c80:	1000228e 	lw	v0,16(s1)
80104c84:	00000000 	nop
80104c88:	000040a0 	sb	zero,0(v0)
80104c8c:	1a0033a6 	sh	s3,26(s1)
80104c90:	47000392 	lbu	v1,71(s0)
80104c94:	09000224 	li	v0,9
80104c98:	020000a2 	sb	zero,2(s0)
80104c9c:	010000a2 	sb	zero,1(s0)
80104ca0:	000002a2 	sb	v0,0(s0)
80104ca4:	00110300 	sll	v0,v1,0x4
80104ca8:	23104300 	subu	v0,v0,v1
80104cac:	80100200 	sll	v0,v0,0x2
80104cb0:	21108202 	addu	v0,s4,v0
80104cb4:	46000392 	lbu	v1,70(s0)
80104cb8:	04004290 	lbu	v0,4(v0)
80104cbc:	21180302 	addu	v1,s0,v1
80104cc0:	5d3b0608 	j	0x8018ed74
80104cc4:	480062a0 	sb	v0,72(v1)
80104cc8:	0c80023c 	lui	v0,0x800c
80104ccc:	98f45124 	addiu	s1,v0,-2920
80104cd0:	18002286 	lh	v0,24(s1)
80104cd4:	00000000 	nop
80104cd8:	07005210 	beq	v0,s2,0x80104cf8
80104cdc:	ffff1324 	li	s3,-1
80104ce0:	0a80023c 	lui	v0,0x800a
80104ce4:	0c00248e 	lw	a0,12(s1)
80104ce8:	4429458c 	lw	a1,10564(v0)
80104cec:	6c69020c 	jal	0x8009a5b0
80104cf0:	00000000 	nop
80104cf4:	180032a6 	sh	s2,24(s1)
80104cf8:	1a002286 	lh	v0,26(s1)
80104cfc:	00000000 	nop
80104d00:	06005310 	beq	v0,s3,0x80104d1c
80104d04:	1e000224 	li	v0,30
80104d08:	1000228e 	lw	v0,16(s1)
80104d0c:	00000000 	nop
80104d10:	000040a0 	sb	zero,0(v0)
80104d14:	1a0033a6 	sh	s3,26(s1)
80104d18:	1e000224 	li	v0,30
80104d1c:	500002a2 	sb	v0,80(s0)
80104d20:	46000292 	lbu	v0,70(s0)
80104d24:	fc000324 	li	v1,252
80104d28:	440000a2 	sb	zero,68(s0)
80104d2c:	4b0003a2 	sb	v1,75(s0)
80104d30:	4a0003a2 	sb	v1,74(s0)
80104d34:	21100202 	addu	v0,s0,v0
80104d38:	480040a0 	sb	zero,72(v0)
80104d3c:	46000292 	lbu	v0,70(s0)
80104d40:	ff000324 	li	v1,255
80104d44:	21100202 	addu	v0,s0,v0
80104d48:	4e0043a0 	sb	v1,78(v0)
80104d4c:	0f000224 	li	v0,15
80104d50:	460003a2 	sb	v1,70(s0)
80104d54:	470000a2 	sb	zero,71(s0)
80104d58:	520000a2 	sb	zero,82(s0)
80104d5c:	540000a6 	sh	zero,84(s0)
80104d60:	560000a6 	sh	zero,86(s0)
80104d64:	030000a2 	sb	zero,3(s0)
80104d68:	020000a2 	sb	zero,2(s0)
80104d6c:	010000a2 	sb	zero,1(s0)
80104d70:	000002a2 	sb	v0,0(s0)
80104d74:	2400bf8f 	lw	ra,36(sp)
80104d78:	2000b48f 	lw	s4,32(sp)
80104d7c:	1c00b38f 	lw	s3,28(sp)
80104d80:	1800b28f 	lw	s2,24(sp)
80104d84:	1400b18f 	lw	s1,20(sp)
80104d88:	1000b08f 	lw	s0,16(sp)
80104d8c:	0800e003 	jr	ra
80104d90:	2800bd27 	addiu	sp,sp,40
80104d94:	d8ffbd27 	addiu	sp,sp,-40
80104d98:	1000b0af 	sw	s0,16(sp)
80104d9c:	21808000 	move	s0,a0
80104da0:	2000bfaf 	sw	ra,32(sp)
80104da4:	1c00b3af 	sw	s3,28(sp)
80104da8:	1800b2af 	sw	s2,24(sp)
80104dac:	1400b1af 	sw	s1,20(sp)
80104db0:	46000292 	lbu	v0,70(s0)
80104db4:	00000000 	nop
80104db8:	21100202 	addu	v0,s0,v0
80104dbc:	4a004290 	lbu	v0,74(v0)
80104dc0:	00000000 	nop
80104dc4:	29004010 	beqz	v0,0x80104e6c
80104dc8:	30001224 	li	s2,48
80104dcc:	0c80023c 	lui	v0,0x800c
80104dd0:	98f45124 	addiu	s1,v0,-2920
80104dd4:	18002286 	lh	v0,24(s1)
80104dd8:	00000000 	nop
80104ddc:	07005210 	beq	v0,s2,0x80104dfc
80104de0:	ffff1324 	li	s3,-1
80104de4:	0a80023c 	lui	v0,0x800a
80104de8:	0c00248e 	lw	a0,12(s1)
80104dec:	1429458c 	lw	a1,10516(v0)
80104df0:	6c69020c 	jal	0x8009a5b0
80104df4:	00000000 	nop
80104df8:	180032a6 	sh	s2,24(s1)
80104dfc:	1a002286 	lh	v0,26(s1)
80104e00:	00000000 	nop
80104e04:	05005310 	beq	v0,s3,0x80104e1c
80104e08:	00000000 	nop
80104e0c:	1000228e 	lw	v0,16(s1)
80104e10:	00000000 	nop
80104e14:	000040a0 	sb	zero,0(v0)
80104e18:	1a0033a6 	sh	s3,26(s1)
80104e1c:	46000292 	lbu	v0,70(s0)
80104e20:	fc000324 	li	v1,252
80104e24:	500000a2 	sb	zero,80(s0)
80104e28:	440000a2 	sb	zero,68(s0)
80104e2c:	4b0003a2 	sb	v1,75(s0)
80104e30:	4a0003a2 	sb	v1,74(s0)
80104e34:	21100202 	addu	v0,s0,v0
80104e38:	480040a0 	sb	zero,72(v0)
80104e3c:	46000292 	lbu	v0,70(s0)
80104e40:	ff000324 	li	v1,255
80104e44:	21100202 	addu	v0,s0,v0
80104e48:	4e0043a0 	sb	v1,78(v0)
80104e4c:	0f000224 	li	v0,15
80104e50:	460003a2 	sb	v1,70(s0)
80104e54:	470000a2 	sb	zero,71(s0)
80104e58:	520000a2 	sb	zero,82(s0)
80104e5c:	540000a6 	sh	zero,84(s0)
80104e60:	560000a6 	sh	zero,86(s0)
80104e64:	ed3b0608 	j	0x8018efb4
80104e68:	030000a2 	sb	zero,3(s0)
80104e6c:	ca36060c 	jal	0x8018db28
80104e70:	21200002 	move	a0,s0
80104e74:	0e80023c 	lui	v0,0x800e
80104e78:	687e4394 	lhu	v1,32360(v0)
80104e7c:	00000000 	nop
80104e80:	00206230 	andi	v0,v1,0x2000
80104e84:	2b004010 	beqz	v0,0x80104f34
80104e88:	14000424 	li	a0,20
80104e8c:	21280000 	move	a1,zero
80104e90:	64d1010c 	jal	0x80074590
80104e94:	2130a000 	move	a2,a1
80104e98:	30001224 	li	s2,48
80104e9c:	0c80023c 	lui	v0,0x800c
80104ea0:	98f45124 	addiu	s1,v0,-2920
80104ea4:	18002286 	lh	v0,24(s1)
80104ea8:	00000000 	nop
80104eac:	07005210 	beq	v0,s2,0x80104ecc
80104eb0:	ffff1324 	li	s3,-1
80104eb4:	0a80023c 	lui	v0,0x800a
80104eb8:	0c00248e 	lw	a0,12(s1)
80104ebc:	1429458c 	lw	a1,10516(v0)
80104ec0:	6c69020c 	jal	0x8009a5b0
80104ec4:	00000000 	nop
80104ec8:	180032a6 	sh	s2,24(s1)
80104ecc:	1a002286 	lh	v0,26(s1)
80104ed0:	00000000 	nop
80104ed4:	05005310 	beq	v0,s3,0x80104eec
80104ed8:	00000000 	nop
80104edc:	1000228e 	lw	v0,16(s1)
80104ee0:	00000000 	nop
80104ee4:	000040a0 	sb	zero,0(v0)
80104ee8:	1a0033a6 	sh	s3,26(s1)
80104eec:	45000392 	lbu	v1,69(s0)
80104ef0:	fc000224 	li	v0,252
80104ef4:	4b0002a2 	sb	v0,75(s0)
80104ef8:	4a0002a2 	sb	v0,74(s0)
80104efc:	ff000224 	li	v0,255
80104f00:	460002a2 	sb	v0,70(s0)
80104f04:	0f000224 	li	v0,15
80104f08:	500000a2 	sb	zero,80(s0)
80104f0c:	470000a2 	sb	zero,71(s0)
80104f10:	520000a2 	sb	zero,82(s0)
80104f14:	540000a6 	sh	zero,84(s0)
80104f18:	560000a6 	sh	zero,86(s0)
80104f1c:	030000a2 	sb	zero,3(s0)
80104f20:	020000a2 	sb	zero,2(s0)
80104f24:	010000a2 	sb	zero,1(s0)
80104f28:	000002a2 	sb	v0,0(s0)
80104f2c:	f03b0608 	j	0x8018efc0
80104f30:	440003a2 	sb	v1,68(s0)
80104f34:	56000286 	lh	v0,86(s0)
80104f38:	00000000 	nop
80104f3c:	20004014 	bnez	v0,0x80104fc0
80104f40:	00406230 	andi	v0,v1,0x4000
80104f44:	1e004010 	beqz	v0,0x80104fc0
80104f48:	11000424 	li	a0,17
80104f4c:	21280000 	move	a1,zero
80104f50:	64d1010c 	jal	0x80074590
80104f54:	2130a000 	move	a2,a1
80104f58:	40001224 	li	s2,64
80104f5c:	0c80023c 	lui	v0,0x800c
80104f60:	98f45124 	addiu	s1,v0,-2920
80104f64:	18002286 	lh	v0,24(s1)
80104f68:	00000000 	nop
80104f6c:	07005210 	beq	v0,s2,0x80104f8c
80104f70:	ffff1324 	li	s3,-1
80104f74:	0a80023c 	lui	v0,0x800a
80104f78:	0c00248e 	lw	a0,12(s1)
80104f7c:	5429458c 	lw	a1,10580(v0)
80104f80:	6c69020c 	jal	0x8009a5b0
80104f84:	00000000 	nop
80104f88:	180032a6 	sh	s2,24(s1)
80104f8c:	1a002286 	lh	v0,26(s1)
80104f90:	00000000 	nop
80104f94:	06005310 	beq	v0,s3,0x80104fb0
80104f98:	0b000224 	li	v0,11
80104f9c:	1000228e 	lw	v0,16(s1)
80104fa0:	00000000 	nop
80104fa4:	000040a0 	sb	zero,0(v0)
80104fa8:	1a0033a6 	sh	s3,26(s1)
80104fac:	0b000224 	li	v0,11
80104fb0:	530000a2 	sb	zero,83(s0)
80104fb4:	020000a2 	sb	zero,2(s0)
80104fb8:	010000a2 	sb	zero,1(s0)
80104fbc:	000002a2 	sb	v0,0(s0)
80104fc0:	2000bf8f 	lw	ra,32(sp)
80104fc4:	1c00b38f 	lw	s3,28(sp)
80104fc8:	1800b28f 	lw	s2,24(sp)
80104fcc:	1400b18f 	lw	s1,20(sp)
80104fd0:	1000b08f 	lw	s0,16(sp)
80104fd4:	0800e003 	jr	ra
80104fd8:	2800bd27 	addiu	sp,sp,40
80104fdc:	d8ffbd27 	addiu	sp,sp,-40
80104fe0:	1000b0af 	sw	s0,16(sp)
80104fe4:	21808000 	move	s0,a0
80104fe8:	2000bfaf 	sw	ra,32(sp)
80104fec:	1c00b3af 	sw	s3,28(sp)
80104ff0:	1800b2af 	sw	s2,24(sp)
80104ff4:	1400b1af 	sw	s1,20(sp)
80104ff8:	46000292 	lbu	v0,70(s0)
80104ffc:	00000000 	nop
80105000:	21100202 	addu	v0,s0,v0
80105004:	4a004290 	lbu	v0,74(v0)
80105008:	00000000 	nop
8010500c:	29004010 	beqz	v0,0x801050b4
80105010:	30001224 	li	s2,48
80105014:	0c80023c 	lui	v0,0x800c
80105018:	98f45124 	addiu	s1,v0,-2920
8010501c:	18002286 	lh	v0,24(s1)
80105020:	00000000 	nop
80105024:	07005210 	beq	v0,s2,0x80105044
80105028:	ffff1324 	li	s3,-1
8010502c:	0a80023c 	lui	v0,0x800a
80105030:	0c00248e 	lw	a0,12(s1)
80105034:	1429458c 	lw	a1,10516(v0)
80105038:	6c69020c 	jal	0x8009a5b0
8010503c:	00000000 	nop
80105040:	180032a6 	sh	s2,24(s1)
80105044:	1a002286 	lh	v0,26(s1)
80105048:	00000000 	nop
8010504c:	05005310 	beq	v0,s3,0x80105064
80105050:	00000000 	nop
80105054:	1000228e 	lw	v0,16(s1)
80105058:	00000000 	nop
8010505c:	000040a0 	sb	zero,0(v0)
80105060:	1a0033a6 	sh	s3,26(s1)
80105064:	46000292 	lbu	v0,70(s0)
80105068:	fc000324 	li	v1,252
8010506c:	500000a2 	sb	zero,80(s0)
80105070:	440000a2 	sb	zero,68(s0)
80105074:	4b0003a2 	sb	v1,75(s0)
80105078:	4a0003a2 	sb	v1,74(s0)
8010507c:	21100202 	addu	v0,s0,v0
80105080:	480040a0 	sb	zero,72(v0)
80105084:	46000292 	lbu	v0,70(s0)
80105088:	ff000324 	li	v1,255
8010508c:	21100202 	addu	v0,s0,v0
80105090:	4e0043a0 	sb	v1,78(v0)
80105094:	0f000224 	li	v0,15
80105098:	460003a2 	sb	v1,70(s0)
8010509c:	470000a2 	sb	zero,71(s0)
801050a0:	520000a2 	sb	zero,82(s0)
801050a4:	540000a6 	sh	zero,84(s0)
801050a8:	560000a6 	sh	zero,86(s0)
801050ac:	963c0608 	j	0x8018f258
801050b0:	030000a2 	sb	zero,3(s0)
801050b4:	0e80023c 	lui	v0,0x800e
801050b8:	687e4294 	lhu	v0,32360(v0)
801050bc:	00000000 	nop
801050c0:	80004230 	andi	v0,v0,0x80
801050c4:	0a004010 	beqz	v0,0x801050f0
801050c8:	0e80023c 	lui	v0,0x800e
801050cc:	53000292 	lbu	v0,83(s0)
801050d0:	00000000 	nop
801050d4:	05004010 	beqz	v0,0x801050ec
801050d8:	15000424 	li	a0,21
801050dc:	21280000 	move	a1,zero
801050e0:	64d1010c 	jal	0x80074590
801050e4:	2130a000 	move	a2,a1
801050e8:	530000a2 	sb	zero,83(s0)
801050ec:	0e80023c 	lui	v0,0x800e
801050f0:	687e4294 	lhu	v0,32360(v0)
801050f4:	00000000 	nop
801050f8:	20004230 	andi	v0,v0,0x20
801050fc:	0c004010 	beqz	v0,0x80105130
80105100:	0e80023c 	lui	v0,0x800e
80105104:	53000292 	lbu	v0,83(s0)
80105108:	00000000 	nop
8010510c:	08004014 	bnez	v0,0x80105130
80105110:	0e80023c 	lui	v0,0x800e
80105114:	15000424 	li	a0,21
80105118:	21280000 	move	a1,zero
8010511c:	64d1010c 	jal	0x80074590
80105120:	2130a000 	move	a2,a1
80105124:	01000224 	li	v0,1
80105128:	530002a2 	sb	v0,83(s0)
8010512c:	0e80023c 	lui	v0,0x800e
80105130:	687e4494 	lhu	a0,32360(v0)
80105134:	00000000 	nop
80105138:	00408230 	andi	v0,a0,0x4000
8010513c:	04004010 	beqz	v0,0x80105150
80105140:	ffff0324 	li	v1,-1
80105144:	53000392 	lbu	v1,83(s0)
80105148:	583c0608 	j	0x8018f160
8010514c:	00000000 	nop
80105150:	00208230 	andi	v0,a0,0x2000
80105154:	02004010 	beqz	v0,0x80105160
80105158:	00000000 	nop
8010515c:	01000324 	li	v1,1
80105160:	05006010 	beqz	v1,0x80105178
80105164:	01000224 	li	v0,1
80105168:	23006210 	beq	v1,v0,0x801051f8
8010516c:	14000424 	li	a0,20
80105170:	993c0608 	j	0x8018f264
80105174:	00000000 	nop
80105178:	11000424 	li	a0,17
8010517c:	21280000 	move	a1,zero
80105180:	64d1010c 	jal	0x80074590
80105184:	2130a000 	move	a2,a1
80105188:	47001224 	li	s2,71
8010518c:	0c80023c 	lui	v0,0x800c
80105190:	98f45124 	addiu	s1,v0,-2920
80105194:	18002286 	lh	v0,24(s1)
80105198:	00000000 	nop
8010519c:	07005210 	beq	v0,s2,0x801051bc
801051a0:	ffff1324 	li	s3,-1
801051a4:	0a80023c 	lui	v0,0x800a
801051a8:	0c00248e 	lw	a0,12(s1)
801051ac:	7029458c 	lw	a1,10608(v0)
801051b0:	6c69020c 	jal	0x8009a5b0
801051b4:	00000000 	nop
801051b8:	180032a6 	sh	s2,24(s1)
801051bc:	1a002286 	lh	v0,26(s1)
801051c0:	00000000 	nop
801051c4:	06005310 	beq	v0,s3,0x801051e0
801051c8:	0c000224 	li	v0,12
801051cc:	1000228e 	lw	v0,16(s1)
801051d0:	00000000 	nop
801051d4:	000040a0 	sb	zero,0(v0)
801051d8:	1a0033a6 	sh	s3,26(s1)
801051dc:	0c000224 	li	v0,12
801051e0:	000002a2 	sb	v0,0(s0)
801051e4:	01000224 	li	v0,1
801051e8:	020000a2 	sb	zero,2(s0)
801051ec:	010000a2 	sb	zero,1(s0)
801051f0:	993c0608 	j	0x8018f264
801051f4:	3f0002a2 	sb	v0,63(s0)
801051f8:	21280000 	move	a1,zero
801051fc:	64d1010c 	jal	0x80074590
80105200:	2130a000 	move	a2,a1
80105204:	ffff0324 	li	v1,-1
80105208:	0c80023c 	lui	v0,0x800c
8010520c:	98f45124 	addiu	s1,v0,-2920
80105210:	18002286 	lh	v0,24(s1)
80105214:	00000000 	nop
80105218:	05004310 	beq	v0,v1,0x80105230
8010521c:	3f001224 	li	s2,63
80105220:	0c00228e 	lw	v0,12(s1)
80105224:	00000000 	nop
80105228:	000040a0 	sb	zero,0(v0)
8010522c:	180023a6 	sh	v1,24(s1)
80105230:	1a002286 	lh	v0,26(s1)
80105234:	00000000 	nop
80105238:	06005210 	beq	v0,s2,0x80105254
8010523c:	0a80023c 	lui	v0,0x800a
80105240:	1000248e 	lw	a0,16(s1)
80105244:	5029458c 	lw	a1,10576(v0)
80105248:	6c69020c 	jal	0x8009a5b0
8010524c:	00000000 	nop
80105250:	1a0032a6 	sh	s2,26(s1)
80105254:	0a000224 	li	v0,10
80105258:	020000a2 	sb	zero,2(s0)
8010525c:	010000a2 	sb	zero,1(s0)
80105260:	000002a2 	sb	v0,0(s0)
80105264:	2000bf8f 	lw	ra,32(sp)
80105268:	1c00b38f 	lw	s3,28(sp)
8010526c:	1800b28f 	lw	s2,24(sp)
80105270:	1400b18f 	lw	s1,20(sp)
80105274:	1000b08f 	lw	s0,16(sp)
80105278:	0800e003 	jr	ra
8010527c:	2800bd27 	addiu	sp,sp,40
80105280:	d8ffbd27 	addiu	sp,sp,-40
80105284:	1000b0af 	sw	s0,16(sp)
80105288:	21808000 	move	s0,a0
8010528c:	2400bfaf 	sw	ra,36(sp)
80105290:	2000b4af 	sw	s4,32(sp)
80105294:	1c00b3af 	sw	s3,28(sp)
80105298:	1800b2af 	sw	s2,24(sp)
8010529c:	1400b1af 	sw	s1,20(sp)
801052a0:	3e000292 	lbu	v0,62(s0)
801052a4:	00000000 	nop
801052a8:	52004010 	beqz	v0,0x801053f4
801052ac:	01000324 	li	v1,1
801052b0:	0800148e 	lw	s4,8(s0)
801052b4:	24004314 	bne	v0,v1,0x80105348
801052b8:	48001224 	li	s2,72
801052bc:	49001224 	li	s2,73
801052c0:	0c80023c 	lui	v0,0x800c
801052c4:	98f45124 	addiu	s1,v0,-2920
801052c8:	18002286 	lh	v0,24(s1)
801052cc:	00000000 	nop
801052d0:	07005210 	beq	v0,s2,0x801052f0
801052d4:	ffff1324 	li	s3,-1
801052d8:	0a80023c 	lui	v0,0x800a
801052dc:	0c00248e 	lw	a0,12(s1)
801052e0:	7829458c 	lw	a1,10616(v0)
801052e4:	6c69020c 	jal	0x8009a5b0
801052e8:	00000000 	nop
801052ec:	180032a6 	sh	s2,24(s1)
801052f0:	1a002286 	lh	v0,26(s1)
801052f4:	00000000 	nop
801052f8:	05005310 	beq	v0,s3,0x80105310
801052fc:	00000000 	nop
80105300:	1000228e 	lw	v0,16(s1)
80105304:	00000000 	nop
80105308:	000040a0 	sb	zero,0(v0)
8010530c:	1a0033a6 	sh	s3,26(s1)
80105310:	47000392 	lbu	v1,71(s0)
80105314:	0d000224 	li	v0,13
80105318:	020000a2 	sb	zero,2(s0)
8010531c:	010000a2 	sb	zero,1(s0)
80105320:	000002a2 	sb	v0,0(s0)
80105324:	00110300 	sll	v0,v1,0x4
80105328:	23104300 	subu	v0,v0,v1
8010532c:	80100200 	sll	v0,v0,0x2
80105330:	21108202 	addu	v0,s4,v0
80105334:	46000392 	lbu	v1,70(s0)
80105338:	04004290 	lbu	v0,4(v0)
8010533c:	21180302 	addu	v1,s0,v1
80105340:	fd3c0608 	j	0x8018f3f4
80105344:	480062a0 	sb	v0,72(v1)
80105348:	0c80023c 	lui	v0,0x800c
8010534c:	98f45124 	addiu	s1,v0,-2920
80105350:	18002286 	lh	v0,24(s1)
80105354:	00000000 	nop
80105358:	07005210 	beq	v0,s2,0x80105378
8010535c:	ffff1324 	li	s3,-1
80105360:	0a80023c 	lui	v0,0x800a
80105364:	0c00248e 	lw	a0,12(s1)
80105368:	7429458c 	lw	a1,10612(v0)
8010536c:	6c69020c 	jal	0x8009a5b0
80105370:	00000000 	nop
80105374:	180032a6 	sh	s2,24(s1)
80105378:	1a002286 	lh	v0,26(s1)
8010537c:	00000000 	nop
80105380:	06005310 	beq	v0,s3,0x8010539c
80105384:	1e000224 	li	v0,30
80105388:	1000228e 	lw	v0,16(s1)
8010538c:	00000000 	nop
80105390:	000040a0 	sb	zero,0(v0)
80105394:	1a0033a6 	sh	s3,26(s1)
80105398:	1e000224 	li	v0,30
8010539c:	500002a2 	sb	v0,80(s0)
801053a0:	46000292 	lbu	v0,70(s0)
801053a4:	fc000324 	li	v1,252
801053a8:	440000a2 	sb	zero,68(s0)
801053ac:	4b0003a2 	sb	v1,75(s0)
801053b0:	4a0003a2 	sb	v1,74(s0)
801053b4:	21100202 	addu	v0,s0,v0
801053b8:	480040a0 	sb	zero,72(v0)
801053bc:	46000292 	lbu	v0,70(s0)
801053c0:	ff000324 	li	v1,255
801053c4:	21100202 	addu	v0,s0,v0
801053c8:	4e0043a0 	sb	v1,78(v0)
801053cc:	0f000224 	li	v0,15
801053d0:	460003a2 	sb	v1,70(s0)
801053d4:	470000a2 	sb	zero,71(s0)
801053d8:	520000a2 	sb	zero,82(s0)
801053dc:	540000a6 	sh	zero,84(s0)
801053e0:	560000a6 	sh	zero,86(s0)
801053e4:	030000a2 	sb	zero,3(s0)
801053e8:	020000a2 	sb	zero,2(s0)
801053ec:	010000a2 	sb	zero,1(s0)
801053f0:	000002a2 	sb	v0,0(s0)
801053f4:	2400bf8f 	lw	ra,36(sp)
801053f8:	2000b48f 	lw	s4,32(sp)
801053fc:	1c00b38f 	lw	s3,28(sp)
80105400:	1800b28f 	lw	s2,24(sp)
80105404:	1400b18f 	lw	s1,20(sp)
80105408:	1000b08f 	lw	s0,16(sp)
8010540c:	0800e003 	jr	ra
80105410:	2800bd27 	addiu	sp,sp,40
80105414:	d8ffbd27 	addiu	sp,sp,-40
80105418:	1000b0af 	sw	s0,16(sp)
8010541c:	21808000 	move	s0,a0
80105420:	2400bfaf 	sw	ra,36(sp)
80105424:	2000b4af 	sw	s4,32(sp)
80105428:	1c00b3af 	sw	s3,28(sp)
8010542c:	1800b2af 	sw	s2,24(sp)
80105430:	1400b1af 	sw	s1,20(sp)
80105434:	46000292 	lbu	v0,70(s0)
80105438:	ff001424 	li	s4,255
8010543c:	2d005410 	beq	v0,s4,0x801054f4
80105440:	21100202 	addu	v0,s0,v0
80105444:	4a004290 	lbu	v0,74(v0)
80105448:	00000000 	nop
8010544c:	29004010 	beqz	v0,0x801054f4
80105450:	30001224 	li	s2,48
80105454:	0c80023c 	lui	v0,0x800c
80105458:	98f45124 	addiu	s1,v0,-2920
8010545c:	18002286 	lh	v0,24(s1)
80105460:	00000000 	nop
80105464:	07005210 	beq	v0,s2,0x80105484
80105468:	ffff1324 	li	s3,-1
8010546c:	0a80023c 	lui	v0,0x800a
80105470:	0c00248e 	lw	a0,12(s1)
80105474:	1429458c 	lw	a1,10516(v0)
80105478:	6c69020c 	jal	0x8009a5b0
8010547c:	00000000 	nop
80105480:	180032a6 	sh	s2,24(s1)
80105484:	1a002286 	lh	v0,26(s1)
80105488:	00000000 	nop
8010548c:	05005310 	beq	v0,s3,0x801054a4
80105490:	00000000 	nop
80105494:	1000228e 	lw	v0,16(s1)
80105498:	00000000 	nop
8010549c:	000040a0 	sb	zero,0(v0)
801054a0:	1a0033a6 	sh	s3,26(s1)
801054a4:	46000292 	lbu	v0,70(s0)
801054a8:	fc000324 	li	v1,252
801054ac:	500000a2 	sb	zero,80(s0)
801054b0:	440000a2 	sb	zero,68(s0)
801054b4:	4b0003a2 	sb	v1,75(s0)
801054b8:	4a0003a2 	sb	v1,74(s0)
801054bc:	21100202 	addu	v0,s0,v0
801054c0:	480040a0 	sb	zero,72(v0)
801054c4:	46000292 	lbu	v0,70(s0)
801054c8:	00000000 	nop
801054cc:	21100202 	addu	v0,s0,v0
801054d0:	4e0054a0 	sb	s4,78(v0)
801054d4:	0f000224 	li	v0,15
801054d8:	460014a2 	sb	s4,70(s0)
801054dc:	470000a2 	sb	zero,71(s0)
801054e0:	520000a2 	sb	zero,82(s0)
801054e4:	540000a6 	sh	zero,84(s0)
801054e8:	560000a6 	sh	zero,86(s0)
801054ec:	473d0608 	j	0x8018f51c
801054f0:	030000a2 	sb	zero,3(s0)
801054f4:	0e80023c 	lui	v0,0x800e
801054f8:	687e4294 	lhu	v0,32360(v0)
801054fc:	00000000 	nop
80105500:	00604230 	andi	v0,v0,0x6000
80105504:	08004010 	beqz	v0,0x80105528
80105508:	11000424 	li	a0,17
8010550c:	21280000 	move	a1,zero
80105510:	64d1010c 	jal	0x80074590
80105514:	2130a000 	move	a2,a1
80105518:	03000292 	lbu	v0,3(s0)
8010551c:	020000a2 	sb	zero,2(s0)
80105520:	010000a2 	sb	zero,1(s0)
80105524:	000002a2 	sb	v0,0(s0)
80105528:	2400bf8f 	lw	ra,36(sp)
8010552c:	2000b48f 	lw	s4,32(sp)
80105530:	1c00b38f 	lw	s3,28(sp)
80105534:	1800b28f 	lw	s2,24(sp)
80105538:	1400b18f 	lw	s1,20(sp)
8010553c:	1000b08f 	lw	s0,16(sp)
80105540:	0800e003 	jr	ra
80105544:	2800bd27 	addiu	sp,sp,40
80105548:	d8ffbd27 	addiu	sp,sp,-40
8010554c:	1000b0af 	sw	s0,16(sp)
80105550:	21808000 	move	s0,a0
80105554:	2000bfaf 	sw	ra,32(sp)
80105558:	1c00b3af 	sw	s3,28(sp)
8010555c:	1800b2af 	sw	s2,24(sp)
80105560:	1400b1af 	sw	s1,20(sp)
80105564:	3e000292 	lbu	v0,62(s0)
80105568:	00000000 	nop
8010556c:	35004010 	beqz	v0,0x80105644
80105570:	21184000 	move	v1,v0
80105574:	01000224 	li	v0,1
80105578:	1d006214 	bne	v1,v0,0x801055f0
8010557c:	fc000324 	li	v1,252
80105580:	30001224 	li	s2,48
80105584:	0c80023c 	lui	v0,0x800c
80105588:	98f45124 	addiu	s1,v0,-2920
8010558c:	18002286 	lh	v0,24(s1)
80105590:	00000000 	nop
80105594:	07005210 	beq	v0,s2,0x801055b4
80105598:	ffff1324 	li	s3,-1
8010559c:	0a80023c 	lui	v0,0x800a
801055a0:	0c00248e 	lw	a0,12(s1)
801055a4:	1429458c 	lw	a1,10516(v0)
801055a8:	6c69020c 	jal	0x8009a5b0
801055ac:	00000000 	nop
801055b0:	180032a6 	sh	s2,24(s1)
801055b4:	1a002286 	lh	v0,26(s1)
801055b8:	00000000 	nop
801055bc:	06005310 	beq	v0,s3,0x801055d8
801055c0:	02000224 	li	v0,2
801055c4:	1000228e 	lw	v0,16(s1)
801055c8:	00000000 	nop
801055cc:	000040a0 	sb	zero,0(v0)
801055d0:	1a0033a6 	sh	s3,26(s1)
801055d4:	02000224 	li	v0,2
801055d8:	000002a2 	sb	v0,0(s0)
801055dc:	10000224 	li	v0,16
801055e0:	020000a2 	sb	zero,2(s0)
801055e4:	010000a2 	sb	zero,1(s0)
801055e8:	913d0608 	j	0x8018f644
801055ec:	3f0002a2 	sb	v0,63(s0)
801055f0:	46000292 	lbu	v0,70(s0)
801055f4:	500000a2 	sb	zero,80(s0)
801055f8:	440000a2 	sb	zero,68(s0)
801055fc:	4b0003a2 	sb	v1,75(s0)
80105600:	4a0003a2 	sb	v1,74(s0)
80105604:	21100202 	addu	v0,s0,v0
80105608:	480040a0 	sb	zero,72(v0)
8010560c:	46000292 	lbu	v0,70(s0)
80105610:	ff000324 	li	v1,255
80105614:	21100202 	addu	v0,s0,v0
80105618:	4e0043a0 	sb	v1,78(v0)
8010561c:	0f000224 	li	v0,15
80105620:	460003a2 	sb	v1,70(s0)
80105624:	470000a2 	sb	zero,71(s0)
80105628:	520000a2 	sb	zero,82(s0)
8010562c:	540000a6 	sh	zero,84(s0)
80105630:	560000a6 	sh	zero,86(s0)
80105634:	030000a2 	sb	zero,3(s0)
80105638:	020000a2 	sb	zero,2(s0)
8010563c:	010000a2 	sb	zero,1(s0)
80105640:	000002a2 	sb	v0,0(s0)
80105644:	2000bf8f 	lw	ra,32(sp)
80105648:	1c00b38f 	lw	s3,28(sp)
8010564c:	1800b28f 	lw	s2,24(sp)
80105650:	1400b18f 	lw	s1,20(sp)
80105654:	1000b08f 	lw	s0,16(sp)
80105658:	0800e003 	jr	ra
8010565c:	2800bd27 	addiu	sp,sp,40
80105660:	e0ffbd27 	addiu	sp,sp,-32
80105664:	1000b0af 	sw	s0,16(sp)
80105668:	21808000 	move	s0,a0
8010566c:	1c00bfaf 	sw	ra,28(sp)
80105670:	1800b2af 	sw	s2,24(sp)
80105674:	1400b1af 	sw	s1,20(sp)
80105678:	41000392 	lbu	v1,65(s0)
8010567c:	ff000224 	li	v0,255
80105680:	6e006210 	beq	v1,v0,0x8010583c
80105684:	00000000 	nop
80105688:	3f000292 	lbu	v0,63(s0)
8010568c:	00000000 	nop
80105690:	ffff4324 	addiu	v1,v0,-1
80105694:	1100622c 	sltiu	v0,v1,17
80105698:	68004010 	beqz	v0,0x8010583c
8010569c:	1980023c 	lui	v0,0x8019
801056a0:	2ca14224 	addiu	v0,v0,-24276
801056a4:	80180300 	sll	v1,v1,0x2
801056a8:	21186200 	addu	v1,v1,v0
801056ac:	0000628c 	lw	v0,0(v1)
801056b0:	00000000 	nop
801056b4:	08004000 	jr	v0
801056b8:	00000000 	nop
801056bc:	0f000224 	li	v0,15
801056c0:	5a0000a2 	sb	zero,90(s0)
801056c4:	5b0002a2 	sb	v0,91(s0)
801056c8:	3f000292 	lbu	v0,63(s0)
801056cc:	02000324 	li	v1,2
801056d0:	510000a2 	sb	zero,81(s0)
801056d4:	400003a2 	sb	v1,64(s0)
801056d8:	01004224 	addiu	v0,v0,1
801056dc:	0f3e0608 	j	0x8018f83c
801056e0:	3f0002a2 	sb	v0,63(s0)
801056e4:	3f000292 	lbu	v0,63(s0)
801056e8:	46000392 	lbu	v1,70(s0)
801056ec:	400000a2 	sb	zero,64(s0)
801056f0:	01004224 	addiu	v0,v0,1
801056f4:	3f0002a2 	sb	v0,63(s0)
801056f8:	0f3e0608 	j	0x8018f83c
801056fc:	3d0003a2 	sb	v1,61(s0)
80105700:	082c060c 	jal	0x8018b020
80105704:	21200002 	move	a0,s0
80105708:	0f3e0608 	j	0x8018f83c
8010570c:	00000000 	nop
80105710:	1e2d060c 	jal	0x8018b478
80105714:	21200002 	move	a0,s0
80105718:	0f3e0608 	j	0x8018f83c
8010571c:	00000000 	nop
80105720:	982d060c 	jal	0x8018b660
80105724:	21200002 	move	a0,s0
80105728:	0f3e0608 	j	0x8018f83c
8010572c:	00000000 	nop
80105730:	692c060c 	jal	0x8018b1a4
80105734:	21200002 	move	a0,s0
80105738:	0f3e0608 	j	0x8018f83c
8010573c:	00000000 	nop
80105740:	0c80023c 	lui	v0,0x800c
80105744:	98f45224 	addiu	s2,v0,-2920
80105748:	1c00448e 	lw	a0,28(s2)
8010574c:	1002020c 	jal	0x80080840
80105750:	01001124 	li	s1,1
80105754:	11005110 	beq	v0,s1,0x8010579c
80105758:	21102002 	move	v0,s1
8010575c:	2000448e 	lw	a0,32(s2)
80105760:	1002020c 	jal	0x80080840
80105764:	00000000 	nop
80105768:	0c005110 	beq	v0,s1,0x8010579c
8010576c:	02000224 	li	v0,2
80105770:	2400448e 	lw	a0,36(s2)
80105774:	1002020c 	jal	0x80080840
80105778:	00000000 	nop
8010577c:	07005110 	beq	v0,s1,0x8010579c
80105780:	03000224 	li	v0,3
80105784:	2800448e 	lw	a0,40(s2)
80105788:	1002020c 	jal	0x80080840
8010578c:	00000000 	nop
80105790:	02005114 	bne	v0,s1,0x8010579c
80105794:	21100000 	move	v0,zero
80105798:	04000224 	li	v0,4
8010579c:	27004010 	beqz	v0,0x8010583c
801057a0:	00000000 	nop
801057a4:	0400048e 	lw	a0,4(s0)
801057a8:	3c02020c 	jal	0x800808f0
801057ac:	00000000 	nop
801057b0:	07000224 	li	v0,7
801057b4:	0f3e0608 	j	0x8018f83c
801057b8:	3f0002a2 	sb	v0,63(s0)
801057bc:	f92d060c 	jal	0x8018b7e4
801057c0:	21200002 	move	a0,s0
801057c4:	0f3e0608 	j	0x8018f83c
801057c8:	00000000 	nop
801057cc:	46000492 	lbu	a0,70(s0)
801057d0:	fd70020c 	jal	0x8009c3f4
801057d4:	00210400 	sll	a0,a0,0x4
801057d8:	05004014 	bnez	v0,0x801057f0
801057dc:	01000224 	li	v0,1
801057e0:	46000592 	lbu	a1,70(s0)
801057e4:	ea72000c 	jal	0x8001cba8
801057e8:	21200002 	move	a0,s0
801057ec:	02000224 	li	v0,2
801057f0:	3e0002a2 	sb	v0,62(s0)
801057f4:	3f0000a2 	sb	zero,63(s0)
801057f8:	0f3e0608 	j	0x8018f83c
801057fc:	400000a2 	sb	zero,64(s0)
80105800:	9a2e060c 	jal	0x8018ba68
80105804:	21200002 	move	a0,s0
80105808:	0f3e0608 	j	0x8018f83c
8010580c:	00000000 	nop
80105810:	dd2f060c 	jal	0x8018bf74
80105814:	21200002 	move	a0,s0
80105818:	0f3e0608 	j	0x8018f83c
8010581c:	00000000 	nop
80105820:	41000292 	lbu	v0,65(s0)
80105824:	00000000 	nop
80105828:	02004014 	bnez	v0,0x80105834
8010582c:	02000224 	li	v0,2
80105830:	01000224 	li	v0,1
80105834:	3e0002a2 	sb	v0,62(s0)
80105838:	3f0000a2 	sb	zero,63(s0)
8010583c:	1c00bf8f 	lw	ra,28(sp)
80105840:	1800b28f 	lw	s2,24(sp)
80105844:	1400b18f 	lw	s1,20(sp)
80105848:	1000b08f 	lw	s0,16(sp)
8010584c:	0800e003 	jr	ra
80105850:	2000bd27 	addiu	sp,sp,32
80105854:	c8ffbd27 	addiu	sp,sp,-56
80105858:	2400b1af 	sw	s1,36(sp)
8010585c:	21888000 	move	s1,a0
80105860:	3400bfaf 	sw	ra,52(sp)
80105864:	3000b4af 	sw	s4,48(sp)
80105868:	2c00b3af 	sw	s3,44(sp)
8010586c:	2800b2af 	sw	s2,40(sp)
80105870:	2000b0af 	sw	s0,32(sp)
80105874:	0800308e 	lw	s0,8(s1)
80105878:	0635060c 	jal	0x8018d418
8010587c:	21a00000 	move	s4,zero
80105880:	9b34060c 	jal	0x8018d26c
80105884:	21202002 	move	a0,s1
80105888:	00002292 	lbu	v0,0(s1)
8010588c:	00000000 	nop
80105890:	ffff4324 	addiu	v1,v0,-1
80105894:	0b00622c 	sltiu	v0,v1,11
80105898:	73004010 	beqz	v0,0x80105a68
8010589c:	1980023c 	lui	v0,0x8019
801058a0:	74a14224 	addiu	v0,v0,-24204
801058a4:	80180300 	sll	v1,v1,0x2
801058a8:	21186200 	addu	v1,v1,v0
801058ac:	0000628c 	lw	v0,0(v1)
801058b0:	00000000 	nop
801058b4:	08004000 	jr	v0
801058b8:	00000000 	nop
801058bc:	3333060c 	jal	0x8018cccc
801058c0:	21202002 	move	a0,s1
801058c4:	9a3e0608 	j	0x8018fa68
801058c8:	00000000 	nop
801058cc:	9033060c 	jal	0x8018ce40
801058d0:	21202002 	move	a0,s1
801058d4:	9a3e0608 	j	0x8018fa68
801058d8:	00000000 	nop
801058dc:	20000424 	li	a0,32
801058e0:	50000524 	li	a1,80
801058e4:	21300000 	move	a2,zero
801058e8:	47002292 	lbu	v0,71(s1)
801058ec:	32001424 	li	s4,50
801058f0:	00390200 	sll	a3,v0,0x4
801058f4:	2338e200 	subu	a3,a3,v0
801058f8:	80380700 	sll	a3,a3,0x2
801058fc:	0400e724 	addiu	a3,a3,4
80105900:	e431060c 	jal	0x8018c790
80105904:	21380702 	addu	a3,s0,a3
80105908:	78000224 	li	v0,120
8010590c:	1800a2a7 	sh	v0,24(sp)
80105910:	78008226 	addiu	v0,s4,120
80105914:	1a00a2a7 	sh	v0,26(sp)
80105918:	10000224 	li	v0,16
8010591c:	0a80033c 	lui	v1,0x800a
80105920:	1c00a0a7 	sh	zero,28(sp)
80105924:	1e00a2a7 	sh	v0,30(sp)
80105928:	53002292 	lbu	v0,83(s1)
8010592c:	0429728c 	lw	s2,10500(v1)
80105930:	04004014 	bnez	v0,0x80105944
80105934:	1800b027 	addiu	s0,sp,24
80105938:	21300000 	move	a2,zero
8010593c:	533e0608 	j	0x8018f94c
80105940:	40001324 	li	s3,64
80105944:	06000624 	li	a2,6
80105948:	60001324 	li	s3,96
8010594c:	21384002 	move	a3,s2
80105950:	00000496 	lhu	a0,0(s0)
80105954:	04000396 	lhu	v1,4(s0)
80105958:	02000596 	lhu	a1,2(s0)
8010595c:	03000224 	li	v0,3
80105960:	1000a2af 	sw	v0,16(sp)
80105964:	21208300 	addu	a0,a0,v1
80105968:	00240400 	sll	a0,a0,0x10
8010596c:	03240400 	sra	a0,a0,0x10
80105970:	002c0500 	sll	a1,a1,0x10
80105974:	dde4010c 	jal	0x80079374
80105978:	032c0500 	sra	a1,a1,0x10
8010597c:	04000296 	lhu	v0,4(s0)
80105980:	21204002 	move	a0,s2
80105984:	40100200 	sll	v0,v0,0x1
80105988:	8069020c 	jal	0x8009a600
8010598c:	040002a6 	sh	v0,4(s0)
80105990:	21200002 	move	a0,s0
80105994:	21286002 	move	a1,s3
80105998:	21300000 	move	a2,zero
8010599c:	03000724 	li	a3,3
801059a0:	04008394 	lhu	v1,4(a0)
801059a4:	0410e200 	sllv	v0,v0,a3
801059a8:	21186200 	addu	v1,v1,v0
801059ac:	6740010c 	jal	0x8005019c
801059b0:	040083a4 	sh	v1,4(a0)
801059b4:	b0000224 	li	v0,176
801059b8:	1800a2a7 	sh	v0,24(sp)
801059bc:	78008226 	addiu	v0,s4,120
801059c0:	1a00a2a7 	sh	v0,26(sp)
801059c4:	04000224 	li	v0,4
801059c8:	1c00a2a7 	sh	v0,28(sp)
801059cc:	10000224 	li	v0,16
801059d0:	0a80033c 	lui	v1,0x800a
801059d4:	1e00a2a7 	sh	v0,30(sp)
801059d8:	53002292 	lbu	v0,83(s1)
801059dc:	0829718c 	lw	s1,10504(v1)
801059e0:	01004238 	xori	v0,v0,0x1
801059e4:	04004014 	bnez	v0,0x801059f8
801059e8:	1800b027 	addiu	s0,sp,24
801059ec:	21300000 	move	a2,zero
801059f0:	803e0608 	j	0x8018fa00
801059f4:	40001224 	li	s2,64
801059f8:	06000624 	li	a2,6
801059fc:	60001224 	li	s2,96
80105a00:	21382002 	move	a3,s1
80105a04:	00000496 	lhu	a0,0(s0)
80105a08:	04000396 	lhu	v1,4(s0)
80105a0c:	02000596 	lhu	a1,2(s0)
80105a10:	03000224 	li	v0,3
80105a14:	1000a2af 	sw	v0,16(sp)
80105a18:	21208300 	addu	a0,a0,v1
80105a1c:	00240400 	sll	a0,a0,0x10
80105a20:	03240400 	sra	a0,a0,0x10
80105a24:	002c0500 	sll	a1,a1,0x10
80105a28:	dde4010c 	jal	0x80079374
80105a2c:	032c0500 	sra	a1,a1,0x10
80105a30:	04000296 	lhu	v0,4(s0)
80105a34:	21202002 	move	a0,s1
80105a38:	40100200 	sll	v0,v0,0x1
80105a3c:	8069020c 	jal	0x8009a600
80105a40:	040002a6 	sh	v0,4(s0)
80105a44:	21200002 	move	a0,s0
80105a48:	21284002 	move	a1,s2
80105a4c:	21300000 	move	a2,zero
80105a50:	03000724 	li	a3,3
80105a54:	04008394 	lhu	v1,4(a0)
80105a58:	0410e200 	sllv	v0,v0,a3
80105a5c:	21186200 	addu	v1,v1,v0
80105a60:	6740010c 	jal	0x8005019c
80105a64:	040083a4 	sh	v1,4(a0)
80105a68:	3400bf8f 	lw	ra,52(sp)
80105a6c:	3000b48f 	lw	s4,48(sp)
80105a70:	2c00b38f 	lw	s3,44(sp)
80105a74:	2800b28f 	lw	s2,40(sp)
80105a78:	2400b18f 	lw	s1,36(sp)
80105a7c:	2000b08f 	lw	s0,32(sp)
80105a80:	0800e003 	jr	ra
80105a84:	3800bd27 	addiu	sp,sp,56
80105a88:	e0ffbd27 	addiu	sp,sp,-32
80105a8c:	21300000 	move	a2,zero
80105a90:	0c80033c 	lui	v1,0x800c
80105a94:	98f46224 	addiu	v0,v1,-2920
80105a98:	21284000 	move	a1,v0
80105a9c:	fc000724 	li	a3,252
80105aa0:	ff000224 	li	v0,255
80105aa4:	1c00bfaf 	sw	ra,28(sp)
80105aa8:	1800b2af 	sw	s2,24(sp)
80105aac:	1400b1af 	sw	s1,20(sp)
80105ab0:	1000b0af 	sw	s0,16(sp)
80105ab4:	4600a2a0 	sb	v0,70(a1)
80105ab8:	4100a2a0 	sb	v0,65(a1)
80105abc:	0e80023c 	lui	v0,0x800e
80105ac0:	d87a4224 	addiu	v0,v0,31448
80105ac4:	4700a0a0 	sb	zero,71(a1)
80105ac8:	4500a0a0 	sb	zero,69(a1)
80105acc:	4400a0a0 	sb	zero,68(a1)
80105ad0:	3c00a4a0 	sb	a0,60(a1)
80105ad4:	3d00a0a0 	sb	zero,61(a1)
80105ad8:	3f00a0a0 	sb	zero,63(a1)
80105adc:	4000a0a0 	sb	zero,64(a1)
80105ae0:	0300a0a0 	sb	zero,3(a1)
80105ae4:	0200a0a0 	sb	zero,2(a1)
80105ae8:	0100a0a0 	sb	zero,1(a1)
80105aec:	98f460a0 	sb	zero,-2920(v1)
80105af0:	0800a2ac 	sw	v0,8(a1)
80105af4:	0d80023c 	lui	v0,0x800d
80105af8:	e0344224 	addiu	v0,v0,13536
80105afc:	a5ff4324 	addiu	v1,v0,-91
80105b00:	0c00a3ac 	sw	v1,12(a1)
80105b04:	4aff4324 	addiu	v1,v0,-182
80105b08:	1400a2ac 	sw	v0,20(a1)
80105b0c:	1000a3ac 	sw	v1,16(a1)
80105b10:	a5ff40a0 	sb	zero,-91(v0)
80105b14:	4aff40a0 	sb	zero,-182(v0)
80105b18:	feff0224 	li	v0,-2
80105b1c:	1800a2a4 	sh	v0,24(a1)
80105b20:	1a00a2a4 	sh	v0,26(a1)
80105b24:	801f023c 	lui	v0,0x1f80
80105b28:	5300a0a0 	sb	zero,83(a1)
80105b2c:	5200a0a0 	sb	zero,82(a1)
80105b30:	3801438c 	lw	v1,312(v0)
80105b34:	01000224 	li	v0,1
80105b38:	5600a0a4 	sh	zero,86(a1)
80105b3c:	5400a0a4 	sh	zero,84(a1)
80105b40:	500062a4 	sh	v0,80(v1)
80105b44:	2110c500 	addu	v0,a2,a1
80105b48:	0100c624 	addiu	a2,a2,1
80105b4c:	4a0047a0 	sb	a3,74(v0)
80105b50:	4c0040a0 	sb	zero,76(v0)
80105b54:	0200c228 	slti	v0,a2,2
80105b58:	fbff4014 	bnez	v0,0x80105b48
80105b5c:	2110c500 	addu	v0,a2,a1
80105b60:	30001124 	li	s1,48
80105b64:	0c80023c 	lui	v0,0x800c
80105b68:	98f45024 	addiu	s0,v0,-2920
80105b6c:	18000286 	lh	v0,24(s0)
80105b70:	00000000 	nop
80105b74:	07005110 	beq	v0,s1,0x80105b94
80105b78:	ffff1224 	li	s2,-1
80105b7c:	0a80023c 	lui	v0,0x800a
80105b80:	0c00048e 	lw	a0,12(s0)
80105b84:	1429458c 	lw	a1,10516(v0)
80105b88:	6c69020c 	jal	0x8009a5b0
80105b8c:	00000000 	nop
80105b90:	180011a6 	sh	s1,24(s0)
80105b94:	1a000286 	lh	v0,26(s0)
80105b98:	00000000 	nop
80105b9c:	05005210 	beq	v0,s2,0x80105bb4
80105ba0:	00000000 	nop
80105ba4:	1000028e 	lw	v0,16(s0)
80105ba8:	00000000 	nop
80105bac:	000040a0 	sb	zero,0(v0)
80105bb0:	1a0012a6 	sh	s2,26(s0)
80105bb4:	1c00bf8f 	lw	ra,28(sp)
80105bb8:	1800b28f 	lw	s2,24(sp)
80105bbc:	1400b18f 	lw	s1,20(sp)
80105bc0:	1000b08f 	lw	s0,16(sp)
80105bc4:	0800e003 	jr	ra
80105bc8:	2000bd27 	addiu	sp,sp,32
80105bcc:	e0ffbd27 	addiu	sp,sp,-32
80105bd0:	1000b0af 	sw	s0,16(sp)
80105bd4:	0c80103c 	lui	s0,0x800c
80105bd8:	1400b1af 	sw	s1,20(sp)
80105bdc:	98f41126 	addiu	s1,s0,-2920
80105be0:	21202002 	move	a0,s1
80105be4:	1800bfaf 	sw	ra,24(sp)
80105be8:	983d060c 	jal	0x8018f660
80105bec:	3e0020a2 	sb	zero,62(s1)
80105bf0:	7a28060c 	jal	0x8018a1e8
80105bf4:	21202002 	move	a0,s1
80105bf8:	98f40392 	lbu	v1,-2920(s0)
80105bfc:	00000000 	nop
80105c00:	1100622c 	sltiu	v0,v1,17
80105c04:	a8004010 	beqz	v0,0x80105ea8
80105c08:	1980023c 	lui	v0,0x8019
80105c0c:	a4a14224 	addiu	v0,v0,-24156
80105c10:	80180300 	sll	v1,v1,0x2
80105c14:	21186200 	addu	v1,v1,v0
80105c18:	0000628c 	lw	v0,0(v1)
80105c1c:	00000000 	nop
80105c20:	08004000 	jr	v0
80105c24:	00000000 	nop
80105c28:	0b37060c 	jal	0x8018dc2c
80105c2c:	21202002 	move	a0,s1
80105c30:	aa3f0608 	j	0x8018fea8
80105c34:	00000000 	nop
80105c38:	4e37060c 	jal	0x8018dd38
80105c3c:	21202002 	move	a0,s1
80105c40:	aa3f0608 	j	0x8018fea8
80105c44:	00000000 	nop
80105c48:	fb37060c 	jal	0x8018dfec
80105c4c:	21202002 	move	a0,s1
80105c50:	aa3f0608 	j	0x8018fea8
80105c54:	00000000 	nop
80105c58:	3e002292 	lbu	v0,62(s1)
80105c5c:	00000000 	nop
80105c60:	91004010 	beqz	v0,0x80105ea8
80105c64:	21184000 	move	v1,v0
80105c68:	01000224 	li	v0,1
80105c6c:	05006214 	bne	v1,v0,0x80105c84
80105c70:	fc000324 	li	v1,252
80105c74:	d335060c 	jal	0x8018d74c
80105c78:	21202002 	move	a0,s1
80105c7c:	aa3f0608 	j	0x8018fea8
80105c80:	00000000 	nop
80105c84:	46002292 	lbu	v0,70(s1)
80105c88:	500020a2 	sb	zero,80(s1)
80105c8c:	440020a2 	sb	zero,68(s1)
80105c90:	4b0023a2 	sb	v1,75(s1)
80105c94:	4a0023a2 	sb	v1,74(s1)
80105c98:	21102202 	addu	v0,s1,v0
80105c9c:	480040a0 	sb	zero,72(v0)
80105ca0:	46002292 	lbu	v0,70(s1)
80105ca4:	ff000324 	li	v1,255
80105ca8:	21102202 	addu	v0,s1,v0
80105cac:	4e0043a0 	sb	v1,78(v0)
80105cb0:	0f000224 	li	v0,15
80105cb4:	460023a2 	sb	v1,70(s1)
80105cb8:	470020a2 	sb	zero,71(s1)
80105cbc:	520020a2 	sb	zero,82(s1)
80105cc0:	540020a6 	sh	zero,84(s1)
80105cc4:	560020a6 	sh	zero,86(s1)
80105cc8:	a43f0608 	j	0x8018fe90
80105ccc:	030020a2 	sb	zero,3(s1)
80105cd0:	ad38060c 	jal	0x8018e2b4
80105cd4:	21202002 	move	a0,s1
80105cd8:	aa3f0608 	j	0x8018fea8
80105cdc:	00000000 	nop
80105ce0:	5339060c 	jal	0x8018e54c
80105ce4:	21202002 	move	a0,s1
80105ce8:	aa3f0608 	j	0x8018fea8
80105cec:	00000000 	nop
80105cf0:	af39060c 	jal	0x8018e6bc
80105cf4:	21202002 	move	a0,s1
80105cf8:	aa3f0608 	j	0x8018fea8
80105cfc:	00000000 	nop
80105d00:	573a060c 	jal	0x8018e95c
80105d04:	21202002 	move	a0,s1
80105d08:	aa3f0608 	j	0x8018fea8
80105d0c:	00000000 	nop
80105d10:	003b060c 	jal	0x8018ec00
80105d14:	21202002 	move	a0,s1
80105d18:	aa3f0608 	j	0x8018fea8
80105d1c:	00000000 	nop
80105d20:	01002392 	lbu	v1,1(s1)
80105d24:	00000000 	nop
80105d28:	05006010 	beqz	v1,0x80105d40
80105d2c:	01000224 	li	v0,1
80105d30:	08006210 	beq	v1,v0,0x80105d54
80105d34:	00000000 	nop
80105d38:	aa3f0608 	j	0x8018fea8
80105d3c:	00000000 	nop
80105d40:	01002292 	lbu	v0,1(s1)
80105d44:	1e000324 	li	v1,30
80105d48:	500023a2 	sb	v1,80(s1)
80105d4c:	01004224 	addiu	v0,v0,1
80105d50:	010022a2 	sb	v0,1(s1)
80105d54:	50002392 	lbu	v1,80(s1)
80105d58:	00000000 	nop
80105d5c:	31006014 	bnez	v1,0x80105e24
80105d60:	0e80023c 	lui	v0,0x800e
80105d64:	3c002292 	lbu	v0,60(s1)
80105d68:	00000000 	nop
80105d6c:	80004230 	andi	v0,v0,0x80
80105d70:	07004014 	bnez	v0,0x80105d90
80105d74:	03000224 	li	v0,3
80105d78:	000022a2 	sb	v0,0(s1)
80105d7c:	0c000224 	li	v0,12
80105d80:	020020a2 	sb	zero,2(s1)
80105d84:	010020a2 	sb	zero,1(s1)
80105d88:	aa3f0608 	j	0x8018fea8
80105d8c:	3f0022a2 	sb	v0,63(s1)
80105d90:	46002592 	lbu	a1,70(s1)
80105d94:	ea72000c 	jal	0x8001cba8
80105d98:	21202002 	move	a0,s1
80105d9c:	801f023c 	lui	v0,0x1f80
80105da0:	3801438c 	lw	v1,312(v0)
80105da4:	05000224 	li	v0,5
80105da8:	aa3f0608 	j	0x8018fea8
80105dac:	500062a4 	sh	v0,80(v1)
80105db0:	653b060c 	jal	0x8018ed94
80105db4:	21202002 	move	a0,s1
80105db8:	aa3f0608 	j	0x8018fea8
80105dbc:	00000000 	nop
80105dc0:	f73b060c 	jal	0x8018efdc
80105dc4:	21202002 	move	a0,s1
80105dc8:	aa3f0608 	j	0x8018fea8
80105dcc:	00000000 	nop
80105dd0:	a03c060c 	jal	0x8018f280
80105dd4:	21202002 	move	a0,s1
80105dd8:	aa3f0608 	j	0x8018fea8
80105ddc:	00000000 	nop
80105de0:	01002392 	lbu	v1,1(s1)
80105de4:	00000000 	nop
80105de8:	05006010 	beqz	v1,0x80105e00
80105dec:	01000224 	li	v0,1
80105df0:	08006210 	beq	v1,v0,0x80105e14
80105df4:	00000000 	nop
80105df8:	aa3f0608 	j	0x8018fea8
80105dfc:	00000000 	nop
80105e00:	01002292 	lbu	v0,1(s1)
80105e04:	1e000324 	li	v1,30
80105e08:	500023a2 	sb	v1,80(s1)
80105e0c:	01004224 	addiu	v0,v0,1
80105e10:	010022a2 	sb	v0,1(s1)
80105e14:	50002392 	lbu	v1,80(s1)
80105e18:	00000000 	nop
80105e1c:	08006010 	beqz	v1,0x80105e40
80105e20:	0e80023c 	lui	v0,0x800e
80105e24:	687e4294 	lhu	v0,32360(v0)
80105e28:	ffff6324 	addiu	v1,v1,-1
80105e2c:	00604230 	andi	v0,v0,0x6000
80105e30:	1d004010 	beqz	v0,0x80105ea8
80105e34:	500023a2 	sb	v1,80(s1)
80105e38:	aa3f0608 	j	0x8018fea8
80105e3c:	500020a2 	sb	zero,80(s1)
80105e40:	801f023c 	lui	v0,0x1f80
80105e44:	3801438c 	lw	v1,312(v0)
80105e48:	04000224 	li	v0,4
80105e4c:	aa3f0608 	j	0x8018fea8
80105e50:	500062a4 	sh	v0,80(v1)
80105e54:	053d060c 	jal	0x8018f414
80105e58:	21202002 	move	a0,s1
80105e5c:	aa3f0608 	j	0x8018fea8
80105e60:	00000000 	nop
80105e64:	50002292 	lbu	v0,80(s1)
80105e68:	00000000 	nop
80105e6c:	03004010 	beqz	v0,0x80105e7c
80105e70:	ffff4224 	addiu	v0,v0,-1
80105e74:	aa3f0608 	j	0x8018fea8
80105e78:	500022a2 	sb	v0,80(s1)
80105e7c:	41002392 	lbu	v1,65(s1)
80105e80:	ff000224 	li	v0,255
80105e84:	08006210 	beq	v1,v0,0x80105ea8
80105e88:	00000000 	nop
80105e8c:	03002292 	lbu	v0,3(s1)
80105e90:	020020a2 	sb	zero,2(s1)
80105e94:	010020a2 	sb	zero,1(s1)
80105e98:	aa3f0608 	j	0x8018fea8
80105e9c:	000022a2 	sb	v0,0(s1)
80105ea0:	523d060c 	jal	0x8018f548
80105ea4:	21202002 	move	a0,s1
80105ea8:	153e060c 	jal	0x8018f854
80105eac:	21202002 	move	a0,s1
80105eb0:	1800bf8f 	lw	ra,24(sp)
80105eb4:	1400b18f 	lw	s1,20(sp)
80105eb8:	1000b08f 	lw	s0,16(sp)
80105ebc:	0800e003 	jr	ra
80105ec0:	2000bd27 	addiu	sp,sp,32
80105ec4:	42086a14 	bne	v1,t2,0x80107fd0
80105ec8:	b320573d 	.word	0x3d5720b3
80105ecc:	fc5d9d66 	.word	0x669d5dfc
80105ed0:	3e73ff7f 	.word	0x7fff733e
80105ed4:	007c067e 	.word	0x7e067c00
80105ed8:	ed7ef37f 	.word	0x7ff37eed
80105edc:	f34d4e4d 	.word	0x4d4e4df3
80105ee0:	00800080 	lb	zero,-32768(zero)
80105ee4:	77b7bccb 	lwc2	$28,-18569(sp)
80105ee8:	22c2bb9b 	lwr	k1,-15838(sp)
80105eec:	a72aa232 	andi	v0,s5,0x2aa7
80105ef0:	4534c18a 	lwl	at,13381(s6)
80105ef4:	a7322253 	.word	0x532232a7
80105ef8:	4413ac8a 	lwl	t4,4932(s5)
80105efc:	2b533255 	.word	0x5532532b
80105f00:	34212282 	lb	v0,8500(s1)
80105f04:	3c455245 	.word	0x4552453c
80105f08:	24324512 	beq	s2,a1,0x8011279c
80105f0c:	42455345 	.word	0x45534542
80105f10:	34553481 	lb	s4,21812(t1)
80105f14:	52455444 	.word	0x44544552
80105f18:	4445138a 	lwl	s3,17732(s0)
80105f1c:	52444444 	.word	0x44444452
80105f20:	44341211 	beq	t0,s2,0x80113034
80105f24:	2c343223 	addi	s2,t9,13356
80105f28:	32444423 	addi	a0,k0,17458
80105f2c:	cb622772 	.word	0x722762cb
80105f30:	56434412 	beq	s2,a0,0x80116c8c
80105f34:	ab727007 	bltzal	k1,0x801229e4
80105f38:	67423481 	lb	s4,16999(t1)
80105f3c:	cb732002 	.word	0x22073cb
80105f40:	5742248c 	lw	a0,16983(at)
80105f44:	2b543663 	.word	0x6336542b
80105f48:	2543138a 	lwl	s3,17189(s0)
80105f4c:	1b434444 	.word	0x4444431b
80105f50:	5534c18a 	lwl	at,13397(s6)
80105f54:	db324444 	.word	0x444432db
80105f58:	3412ac8a 	lwl	t4,4660(s5)
80105f5c:	991d1111 	beq	t0,s1,0x8010d5c4
80105f60:	11818888 	lwl	t0,-32495(a0)
80105f64:	77b7bccb 	lwc2	$28,-18569(sp)
80105f68:	22c2bb9b 	lwr	k1,-15838(sp)
80105f6c:	a72aa232 	andi	v0,s5,0x2aa7
80105f70:	4534c18a 	lwl	at,13381(s6)
80105f74:	a7322253 	.word	0x532232a7
80105f78:	4413ac8a 	lwl	t4,4932(s5)
80105f7c:	2b533255 	.word	0x5532532b
80105f80:	34212282 	lb	v0,8500(s1)
80105f84:	3c455245 	.word	0x4552453c
80105f88:	24324512 	beq	s2,a1,0x8011281c
80105f8c:	42455345 	.word	0x45534542
80105f90:	34553481 	lb	s4,21812(t1)
80105f94:	52455444 	.word	0x44544552
80105f98:	4445138a 	lwl	s3,17732(s0)
80105f9c:	52444444 	.word	0x44444452
80105fa0:	44341211 	beq	t0,s2,0x801130b4
80105fa4:	2c444444 	.word	0x4444442c
80105fa8:	44444423 	addi	a0,k0,17476
80105fac:	cb424444 	.word	0x444442cb
80105fb0:	44444412 	beq	s2,a0,0x801170c4
80105fb4:	ab424444 	.word	0x444442ab
80105fb8:	44443481 	lb	s4,17476(t1)
80105fbc:	cb433443 	c0	0x13443cb
80105fc0:	4442248c 	lw	a0,16964(at)
80105fc4:	2b243223 	addi	s2,t9,9259
80105fc8:	2243138a 	lwl	s3,17186(s0)
80105fcc:	1b434444 	.word	0x4444431b
80105fd0:	5534c18a 	lwl	at,13397(s6)
80105fd4:	db324444 	.word	0x444432db
80105fd8:	3412ac8a 	lwl	t4,4660(s5)
80105fdc:	991d1111 	beq	t0,s1,0x8010d644
80105fe0:	11818888 	lwl	t0,-32495(a0)
80105fe4:	77b7bccb 	lwc2	$28,-18569(sp)
80105fe8:	22c2bb9b 	lwr	k1,-15838(sp)
80105fec:	a72aa232 	andi	v0,s5,0x2aa7
80105ff0:	4534c18a 	lwl	at,13381(s6)
80105ff4:	a7322253 	.word	0x532232a7
80105ff8:	4413ac8a 	lwl	t4,4932(s5)
80105ffc:	2b533255 	.word	0x5532532b
80106000:	34212282 	lb	v0,8500(s1)
80106004:	3c455245 	.word	0x4552453c
80106008:	24324512 	beq	s2,a1,0x8011289c
8010600c:	42455345 	.word	0x45534542
80106010:	34553481 	lb	s4,21812(t1)
80106014:	52455444 	.word	0x44544552
80106018:	4445138a 	lwl	s3,17732(s0)
8010601c:	52444444 	.word	0x44444452
80106020:	44341211 	beq	t0,s2,0x80113134
80106024:	2c444444 	.word	0x4444442c
80106028:	44444423 	addi	a0,k0,17476
8010602c:	cb424444 	.word	0x444442cb
80106030:	44444412 	beq	s2,a0,0x80117144
80106034:	ab224334 	ori	v1,v0,0x22ab
80106038:	22433481 	lb	s4,17186(t1)
8010603c:	cb732222 	addi	v0,s1,29643
80106040:	5742248c 	lw	a0,16983(at)
80106044:	2b543663 	.word	0x6336542b
80106048:	2543138a 	lwl	s3,17189(s0)
8010604c:	1b434444 	.word	0x4444431b
80106050:	5534c18a 	lwl	at,13397(s6)
80106054:	db324444 	.word	0x444432db
80106058:	3412ac8a 	lwl	t4,4660(s5)
8010605c:	991d1111 	beq	t0,s1,0x8010d6c4
80106060:	11818888 	lwl	t0,-32495(a0)
80106064:	0000fc01 	.word	0x1fc0000
80106068:	80808700 	.word	0x878080
8010606c:	c0e1c000 	.word	0xc0e1c0
80106070:	60394000 	.word	0x403960
80106074:	300f6000 	.word	0x600f30
80106078:	18062000 	.word	0x200618
8010607c:	0c03f00f 	jal	0x8fc00c30
80106080:	84013038 	xori	s0,at,0x184
80106084:	86001860 	.word	0x60180086
80106088:	c20008c0 	lwc0	c0_badvaddr,194(zero)
8010608c:	42000860 	.word	0x60080042
80106090:	06000030 	andi	zero,zero,0x6
80106094:	04000018 	blez	zero,0x801060a8
80106098:	0c80017c 	.word	0x7c01800c
8010609c:	846003c0 	lwc0	$3,24708(zero)
801060a0:	86301380 	lb	s3,12422(zero)
801060a4:	c2d13bc0 	lwc0	$27,-11838(at)
801060a8:	dae93f60 	.word	0x603fe9da
801060ac:	6e7b7c3e 	.word	0x3e7c7b6e
801060b0:	2a1e5833 	andi	t8,k0,0x1e2a
801060b4:	286f5021 	addi	s0,t2,28456
801060b8:	b8d25029 	slti	s0,t2,-11592
801060bc:	b0d25029 	slti	s0,t2,-11600
801060c0:	b0f75037 	ori	s0,k0,0xf7b0
801060c4:	9061687a 	.word	0x7a686190
801060c8:	1803264e 	c3	0x260318
801060cc:	08002046 	c1	0x200008
801060d0:	1800234e 	c3	0x230018
801060d4:	70e0905a 	.word	0x5a90e070
801060d8:	e01fd873 	.word	0x73d81fe0
801060dc:	c0017e60 	.word	0x607e01c0
801060e0:	00ff0300 	sll	ra,v1,0x1c
801060e4:	0000fc01 	.word	0x1fc0000
801060e8:	80808700 	.word	0x878080
801060ec:	c0e1c000 	.word	0xc0e1c0
801060f0:	60394000 	.word	0x403960
801060f4:	300f6000 	.word	0x600f30
801060f8:	18062000 	.word	0x200618
801060fc:	0c03f00f 	jal	0x8fc00c30
80106100:	84013038 	xori	s0,at,0x184
80106104:	86001860 	.word	0x60180086
80106108:	c20008c0 	lwc0	c0_badvaddr,194(zero)
8010610c:	42000860 	.word	0x60080042
80106110:	06000030 	andi	zero,zero,0x6
80106114:	04000018 	blez	zero,0x80106128
80106118:	0c80017c 	.word	0x7c01800c
8010611c:	846003c0 	lwc0	$3,24708(zero)
80106120:	86301380 	lb	s3,12422(zero)
80106124:	82113bc0 	lwc0	$27,4482(at)
80106128:	9a093f60 	.word	0x603f099a
8010612c:	eecb7f3e 	.word	0x3e7fcbee
80106130:	eaef5f33 	andi	ra,k0,0xefea
80106134:	687f5c21 	addi	gp,t2,32616
80106138:	381e5829 	slti	t8,t2,7736
8010613c:	30025029 	slti	s0,t2,560
80106140:	30035037 	ori	s0,k0,0x330
80106144:	9061687a 	.word	0x7a686190
80106148:	1803264e 	c3	0x260318
8010614c:	08002046 	c1	0x200008
80106150:	1800234e 	c3	0x230018
80106154:	70e0905a 	.word	0x5a90e070
80106158:	e01fd873 	.word	0x73d81fe0
8010615c:	c0017e60 	.word	0x607e01c0
80106160:	00ff0300 	sll	ra,v1,0x1c
80106164:	0000fc01 	.word	0x1fc0000
80106168:	80808700 	.word	0x878080
8010616c:	c0e1c000 	.word	0xc0e1c0
80106170:	60394000 	.word	0x403960
80106174:	300f6000 	.word	0x600f30
80106178:	18062000 	.word	0x200618
8010617c:	0c03f00f 	jal	0x8fc00c30
80106180:	84013038 	xori	s0,at,0x184
80106184:	86001860 	.word	0x60180086
80106188:	c20008c0 	lwc0	c0_badvaddr,194(zero)
8010618c:	42000860 	.word	0x60080042
80106190:	06000030 	andi	zero,zero,0x6
80106194:	04000018 	blez	zero,0x801061a8
80106198:	0c80017c 	.word	0x7c01800c
8010619c:	846003c0 	lwc0	$3,24708(zero)
801061a0:	86301380 	lb	s3,12422(zero)
801061a4:	82113bc0 	lwc0	$27,4482(at)
801061a8:	dac93f60 	.word	0x603fc9da
801061ac:	eeeb7f3e 	.word	0x3e7febee
801061b0:	6a7f5c33 	andi	gp,k0,0x7f6a
801061b4:	281f5821 	addi	t8,t2,7976
801061b8:	38025029 	slti	s0,t2,568
801061bc:	b0d25029 	slti	s0,t2,-11600
801061c0:	b0f75037 	ori	s0,k0,0xf7b0
801061c4:	9061687a 	.word	0x7a686190
801061c8:	1803264e 	c3	0x260318
801061cc:	08002046 	c1	0x200008
801061d0:	1800234e 	c3	0x230018
801061d4:	70e0905a 	.word	0x5a90e070
801061d8:	e01fd873 	.word	0x73d81fe0
801061dc:	c0017e60 	.word	0x607e01c0
801061e0:	00ff0300 	sll	ra,v1,0x1c
