
rom/extracted/BIN/GAME.BIN:     file format binary


Disassembly of section .data:

80100000 <.data>:
80100000:	08000000 	jr	zero
80100004:	c4641080 	lb	s0,25796(zero)
80100008:	10651080 	lb	s0,25872(zero)
8010000c:	80651080 	lb	s0,25984(zero)
80100010:	b8651080 	lb	s0,26040(zero)
80100014:	b8661080 	lb	s0,26296(zero)
80100018:	30681080 	lb	s0,26672(zero)
8010001c:	30691080 	lb	s0,26928(zero)
80100020:	4c691080 	lb	s0,26956(zero)
80100024:	b4691080 	lb	s0,27060(zero)
80100028:	00000000 	nop
8010002c:	646a1080 	lb	s0,27236(zero)
80100030:	b46a1080 	lb	s0,27316(zero)
80100034:	f86a1080 	lb	s0,27384(zero)
80100038:	3c6b1080 	lb	s0,27452(zero)
8010003c:	686b1080 	lb	s0,27496(zero)
80100040:	00000000 	nop
80100044:	dc6b1080 	lb	s0,27612(zero)
80100048:	006d1080 	lb	s0,27904(zero)
8010004c:	dc6d1080 	lb	s0,28124(zero)
80100050:	086e1080 	lb	s0,28168(zero)
80100054:	e06c1080 	lb	s0,27872(zero)
80100058:	a06c1080 	lb	s0,27808(zero)
8010005c:	5c6e1080 	lb	s0,28252(zero)
80100060:	386f1080 	lb	s0,28472(zero)
80100064:	686f1080 	lb	s0,28520(zero)
80100068:	c46f1080 	lb	s0,28612(zero)
8010006c:	20701080 	lb	s0,28704(zero)
80100070:	98701080 	lb	s0,28824(zero)
80100074:	78721080 	lb	s0,29304(zero)
80100078:	e0721080 	lb	s0,29408(zero)
8010007c:	20741080 	lb	s0,29728(zero)
80100080:	44741080 	lb	s0,29764(zero)
80100084:	58751080 	lb	s0,30040(zero)
80100088:	74751080 	lb	s0,30068(zero)
8010008c:	407b1080 	lb	s0,31552(zero)
80100090:	bc7b1080 	lb	s0,31676(zero)
80100094:	307c1080 	lb	s0,31792(zero)
80100098:	647c1080 	lb	s0,31844(zero)
8010009c:	047d1080 	lb	s0,32004(zero)
801000a0:	00000000 	nop
801000a4:	7c7f1080 	lb	s0,32636(zero)
801000a8:	90801080 	lb	s0,-32624(zero)
801000ac:	d87f1080 	lb	s0,32728(zero)
801000b0:	28801080 	lb	s0,-32728(zero)
801000b4:	48801080 	lb	s0,-32696(zero)
801000b8:	90801080 	lb	s0,-32624(zero)
801000bc:	b8801080 	lb	s0,-32584(zero)
801000c0:	00000000 	nop
801000c4:	54811080 	lb	s0,-32428(zero)
801000c8:	9c821080 	lb	s0,-32100(zero)
801000cc:	a4841080 	lb	s0,-31580(zero)
801000d0:	c0821080 	lb	s0,-32064(zero)
801000d4:	d0821080 	lb	s0,-32048(zero)
801000d8:	d8821080 	lb	s0,-32040(zero)
801000dc:	bc831080 	lb	s0,-31812(zero)
801000e0:	4c841080 	lb	s0,-31668(zero)
801000e4:	80841080 	lb	s0,-31616(zero)
801000e8:	a4841080 	lb	s0,-31580(zero)
801000ec:	94841080 	lb	s0,-31596(zero)
801000f0:	a4841080 	lb	s0,-31580(zero)
801000f4:	c4871080 	lb	s0,-30780(zero)
801000f8:	d4871080 	lb	s0,-30764(zero)
801000fc:	e4871080 	lb	s0,-30748(zero)
80100100:	f4871080 	lb	s0,-30732(zero)
80100104:	04881080 	lb	s0,-30716(zero)
80100108:	14881080 	lb	s0,-30700(zero)
8010010c:	18891080 	lb	s0,-30440(zero)
80100110:	3c891080 	lb	s0,-30404(zero)
80100114:	6c891080 	lb	s0,-30356(zero)
80100118:	7c891080 	lb	s0,-30340(zero)
8010011c:	8c891080 	lb	s0,-30324(zero)
80100120:	9c891080 	lb	s0,-30308(zero)
80100124:	ac891080 	lb	s0,-30292(zero)
80100128:	00000000 	nop
8010012c:	a08a1080 	lb	s0,-30048(zero)
80100130:	c48a1080 	lb	s0,-30012(zero)
80100134:	c48a1080 	lb	s0,-30012(zero)
80100138:	c48a1080 	lb	s0,-30012(zero)
8010013c:	c48a1080 	lb	s0,-30012(zero)
80100140:	e48a1080 	lb	s0,-29980(zero)
80100144:	e48a1080 	lb	s0,-29980(zero)
80100148:	d48a1080 	lb	s0,-29996(zero)
8010014c:	f48a1080 	lb	s0,-29964(zero)
80100150:	a08a1080 	lb	s0,-30048(zero)
80100154:	e0ffbd27 	addiu	sp,sp,-32
80100158:	801f023c 	lui	v0,0x1f80
8010015c:	1400b1af 	sw	s1,20(sp)
80100160:	21884000 	move	s1,v0
80100164:	1800b2af 	sw	s2,24(sp)
80100168:	01001224 	li	s2,1
8010016c:	801f023c 	lui	v0,0x1f80
80100170:	1000b0af 	sw	s0,16(sp)
80100174:	21804000 	move	s0,v0
80100178:	801f023c 	lui	v0,0x1f80
8010017c:	060240a0 	sb	zero,518(v0)
80100180:	801f023c 	lui	v0,0x1f80
80100184:	360240a0 	sb	zero,566(v0)
80100188:	801f023c 	lui	v0,0x1f80
8010018c:	801f033c 	lui	v1,0x1f80
80100190:	340240a0 	sb	zero,564(v0)
80100194:	02000224 	li	v0,2
80100198:	9a0162a0 	sb	v0,410(v1)
8010019c:	801f023c 	lui	v0,0x1f80
801001a0:	3801238e 	lw	v1,312(s1)
801001a4:	34014490 	lbu	a0,308(v0)
801001a8:	0c80023c 	lui	v0,0x800c
801001ac:	1c00bfaf 	sw	ra,28(sp)
801001b0:	980100a6 	sh	zero,408(s0)
801001b4:	e4e040a0 	sb	zero,-7964(v0)
801001b8:	480064a4 	sh	a0,72(v1)
801001bc:	4a0060a4 	sh	zero,74(v1)
801001c0:	4c0060a4 	sh	zero,76(v1)
801001c4:	4e0060a4 	sh	zero,78(v1)
801001c8:	500060a4 	sh	zero,80(v1)
801001cc:	3801228e 	lw	v0,312(s1)
801001d0:	00000000 	nop
801001d4:	48004394 	lhu	v1,72(v0)
801001d8:	00000000 	nop
801001dc:	0f007210 	beq	v1,s2,0x8010021c
801001e0:	02006228 	slti	v0,v1,2
801001e4:	05004010 	beqz	v0,0x801001fc
801001e8:	02000224 	li	v0,2
801001ec:	07006010 	beqz	v1,0x8010020c
801001f0:	00000000 	nop
801001f4:	17190408 	j	0x8010645c
801001f8:	00000000 	nop
801001fc:	0b006210 	beq	v1,v0,0x8010022c
80100200:	00000000 	nop
80100204:	17190408 	j	0x8010645c
80100208:	00000000 	nop
8010020c:	b821040c 	jal	0x801086e0
80100210:	00000000 	nop
80100214:	17190408 	j	0x8010645c
80100218:	00000000 	nop
8010021c:	c821040c 	jal	0x80108720
80100220:	00000000 	nop
80100224:	17190408 	j	0x8010645c
80100228:	00000000 	nop
8010022c:	e121040c 	jal	0x80108784
80100230:	00000000 	nop
80100234:	98010296 	lhu	v0,408(s0)
80100238:	01000424 	li	a0,1
8010023c:	01004224 	addiu	v0,v0,1
80100240:	e047010c 	jal	0x80051f80
80100244:	980102a6 	sh	v0,408(s0)
80100248:	fd180408 	j	0x801063f4
8010024c:	00000000 	nop
80100250:	e8ffbd27 	addiu	sp,sp,-24
80100254:	1400bfaf 	sw	ra,20(sp)
80100258:	a0d6010c 	jal	0x80075a80
8010025c:	1000b0af 	sw	s0,16(sp)
80100260:	801f023c 	lui	v0,0x1f80
80100264:	3801428c 	lw	v0,312(v0)
80100268:	00000000 	nop
8010026c:	4c004394 	lhu	v1,76(v0)
80100270:	00000000 	nop
80100274:	0900622c 	sltiu	v0,v1,9
80100278:	5c014010 	beqz	v0,0x801007ec
8010027c:	1080023c 	lui	v0,0x8010
80100280:	2c624224 	addiu	v0,v0,25132
80100284:	80180300 	sll	v1,v1,0x2
80100288:	21186200 	addu	v1,v1,v0
8010028c:	0000628c 	lw	v0,0(v1)
80100290:	00000000 	nop
80100294:	08004000 	jr	v0
80100298:	00000000 	nop
8010029c:	cb73000c 	jal	0x8001cf2c
801002a0:	00000000 	nop
801002a4:	3bd7010c 	jal	0x80075cec
801002a8:	ff470424 	li	a0,18431
801002ac:	2c000424 	li	a0,44
801002b0:	801f023c 	lui	v0,0x1f80
801002b4:	3801468c 	lw	a2,312(v0)
801002b8:	21280000 	move	a1,zero
801002bc:	4c00c294 	lhu	v0,76(a2)
801002c0:	4a010324 	li	v1,330
801002c4:	5c00c3a4 	sh	v1,92(a2)
801002c8:	01004224 	addiu	v0,v0,1
801002cc:	36d4010c 	jal	0x800750d8
801002d0:	4c00c2a4 	sh	v0,76(a2)
801002d4:	2c36010c 	jal	0x8004d8b0
801002d8:	00000000 	nop
801002dc:	801f023c 	lui	v0,0x1f80
801002e0:	851a0408 	j	0x80106a14
801002e4:	060240a0 	sb	zero,518(v0)
801002e8:	801f023c 	lui	v0,0x1f80
801002ec:	3801438c 	lw	v1,312(v0)
801002f0:	00000000 	nop
801002f4:	5c006294 	lhu	v0,92(v1)
801002f8:	00000000 	nop
801002fc:	ffff4224 	addiu	v0,v0,-1
80100300:	5c0062a4 	sh	v0,92(v1)
80100304:	00140200 	sll	v0,v0,0x10
80100308:	03140200 	sra	v0,v0,0x10
8010030c:	07004010 	beqz	v0,0x8010032c
80100310:	0e014228 	slti	v0,v0,270
80100314:	09004010 	beqz	v0,0x8010033c
80100318:	0e80023c 	lui	v0,0x800e
8010031c:	687e4294 	lhu	v0,32360(v0)
80100320:	00000000 	nop
80100324:	06004010 	beqz	v0,0x80100340
80100328:	a0000424 	li	a0,160
8010032c:	4c006294 	lhu	v0,76(v1)
80100330:	00000000 	nop
80100334:	01004224 	addiu	v0,v0,1
80100338:	4c0062a4 	sh	v0,76(v1)
8010033c:	a0000424 	li	a0,160
80100340:	70000524 	li	a1,112
80100344:	21300000 	move	a2,zero
80100348:	37fa010c 	jal	0x8007e8dc
8010034c:	7a010724 	li	a3,378
80100350:	851a0408 	j	0x80106a14
80100354:	00000000 	nop
80100358:	cb73000c 	jal	0x8001cf2c
8010035c:	00000000 	nop
80100360:	29d4010c 	jal	0x800750a4
80100364:	04000424 	li	a0,4
80100368:	801f043c 	lui	a0,0x1f80
8010036c:	3801838c 	lw	v1,312(a0)
80100370:	01000224 	li	v0,1
80100374:	4e0062a4 	sh	v0,78(v1)
80100378:	4c006294 	lhu	v0,76(v1)
8010037c:	6b0060a0 	sb	zero,107(v1)
80100380:	3801848c 	lw	a0,312(a0)
80100384:	01004224 	addiu	v0,v0,1
80100388:	4c0062a4 	sh	v0,76(v1)
8010038c:	500080a4 	sh	zero,80(a0)
80100390:	801f103c 	lui	s0,0x1f80
80100394:	3801028e 	lw	v0,312(s0)
80100398:	00000000 	nop
8010039c:	4e004494 	lhu	a0,78(v0)
801003a0:	57fb010c 	jal	0x8007ed5c
801003a4:	00000000 	nop
801003a8:	0e80023c 	lui	v0,0x800e
801003ac:	687e4294 	lhu	v0,32360(v0)
801003b0:	00000000 	nop
801003b4:	00404230 	andi	v0,v0,0x4000
801003b8:	22004010 	beqz	v0,0x80100444
801003bc:	0e80023c 	lui	v0,0x800e
801003c0:	3801038e 	lw	v1,312(s0)
801003c4:	00000000 	nop
801003c8:	4e006494 	lhu	a0,78(v1)
801003cc:	00000000 	nop
801003d0:	05008010 	beqz	a0,0x801003e8
801003d4:	01000224 	li	v0,1
801003d8:	0b008210 	beq	a0,v0,0x80100408
801003dc:	11000424 	li	a0,17
801003e0:	92190408 	j	0x80106648
801003e4:	801f023c 	lui	v0,0x1f80
801003e8:	09e2010c 	jal	0x80078824
801003ec:	00000000 	nop
801003f0:	3801028e 	lw	v0,312(s0)
801003f4:	08000324 	li	v1,8
801003f8:	4c0043a4 	sh	v1,76(v0)
801003fc:	0c80023c 	lui	v0,0x800c
80100400:	90190408 	j	0x80106640
80100404:	4af840a0 	sb	zero,-1974(v0)
80100408:	4c006294 	lhu	v0,76(v1)
8010040c:	00000000 	nop
80100410:	01004224 	addiu	v0,v0,1
80100414:	4c0062a4 	sh	v0,76(v1)
80100418:	11000424 	li	a0,17
8010041c:	801f023c 	lui	v0,0x1f80
80100420:	3801438c 	lw	v1,312(v0)
80100424:	21280000 	move	a1,zero
80100428:	6b0060a0 	sb	zero,107(v1)
8010042c:	3801428c 	lw	v0,312(v0)
80100430:	2130a000 	move	a2,a1
80100434:	4e0060a4 	sh	zero,78(v1)
80100438:	64d1010c 	jal	0x80074590
8010043c:	500040a4 	sh	zero,80(v0)
80100440:	0e80023c 	lui	v0,0x800e
80100444:	687e4394 	lhu	v1,32360(v0)
80100448:	00000000 	nop
8010044c:	10006230 	andi	v0,v1,0x10
80100450:	09004010 	beqz	v0,0x80100478
80100454:	801f023c 	lui	v0,0x1f80
80100458:	3801438c 	lw	v1,312(v0)
8010045c:	00000000 	nop
80100460:	4e006294 	lhu	v0,78(v1)
80100464:	00000000 	nop
80100468:	e0004010 	beqz	v0,0x801007ec
8010046c:	ffff4224 	addiu	v0,v0,-1
80100470:	461a0408 	j	0x80106918
80100474:	4e0062a4 	sh	v0,78(v1)
80100478:	40006230 	andi	v0,v1,0x40
8010047c:	db004010 	beqz	v0,0x801007ec
80100480:	801f023c 	lui	v0,0x1f80
80100484:	3801438c 	lw	v1,312(v0)
80100488:	401a0408 	j	0x80106900
8010048c:	00000000 	nop
80100490:	801f103c 	lui	s0,0x1f80
80100494:	3801028e 	lw	v0,312(s0)
80100498:	00000000 	nop
8010049c:	4e004494 	lhu	a0,78(v0)
801004a0:	9dfb010c 	jal	0x8007ee74
801004a4:	00000000 	nop
801004a8:	0e80023c 	lui	v0,0x800e
801004ac:	687e4394 	lhu	v1,32360(v0)
801004b0:	00000000 	nop
801004b4:	00406230 	andi	v0,v1,0x4000
801004b8:	2c004010 	beqz	v0,0x8010056c
801004bc:	01000524 	li	a1,1
801004c0:	3801038e 	lw	v1,312(s0)
801004c4:	00000000 	nop
801004c8:	4e006494 	lhu	a0,78(v1)
801004cc:	00000000 	nop
801004d0:	12008510 	beq	a0,a1,0x8010051c
801004d4:	02008228 	slti	v0,a0,2
801004d8:	05004010 	beqz	v0,0x801004f0
801004dc:	02000224 	li	v0,2
801004e0:	07008010 	beqz	a0,0x80100500
801004e4:	11000424 	li	a0,17
801004e8:	dd190408 	j	0x80106774
801004ec:	801f023c 	lui	v0,0x1f80
801004f0:	11008210 	beq	a0,v0,0x80100538
801004f4:	11000424 	li	a0,17
801004f8:	dd190408 	j	0x80106774
801004fc:	801f023c 	lui	v0,0x1f80
80100500:	02000224 	li	v0,2
80100504:	480062a4 	sh	v0,72(v1)
80100508:	4a0065a4 	sh	a1,74(v1)
8010050c:	cb73000c 	jal	0x8001cf2c
80100510:	4c0060a4 	sh	zero,76(v1)
80100514:	dc190408 	j	0x80106770
80100518:	11000424 	li	a0,17
8010051c:	07000224 	li	v0,7
80100520:	4c0062a4 	sh	v0,76(v1)
80100524:	0c80023c 	lui	v0,0x800c
80100528:	cb73000c 	jal	0x8001cf2c
8010052c:	4af840a0 	sb	zero,-1974(v0)
80100530:	dc190408 	j	0x80106770
80100534:	11000424 	li	a0,17
80100538:	4c006294 	lhu	v0,76(v1)
8010053c:	00000000 	nop
80100540:	01004224 	addiu	v0,v0,1
80100544:	4c0062a4 	sh	v0,76(v1)
80100548:	801f023c 	lui	v0,0x1f80
8010054c:	3801438c 	lw	v1,312(v0)
80100550:	21280000 	move	a1,zero
80100554:	6b0060a0 	sb	zero,107(v1)
80100558:	3801428c 	lw	v0,312(v0)
8010055c:	2130a000 	move	a2,a1
80100560:	4e0060a4 	sh	zero,78(v1)
80100564:	f0190408 	j	0x801067c0
80100568:	500040a4 	sh	zero,80(v0)
8010056c:	00206230 	andi	v0,v1,0x2000
80100570:	0b004010 	beqz	v0,0x801005a0
80100574:	14000424 	li	a0,20
80100578:	3801038e 	lw	v1,312(s0)
8010057c:	f7ff0524 	li	a1,-9
80100580:	4c006294 	lhu	v0,76(v1)
80100584:	21300000 	move	a2,zero
80100588:	4e0060a4 	sh	zero,78(v1)
8010058c:	6b0060a0 	sb	zero,107(v1)
80100590:	ffff4224 	addiu	v0,v0,-1
80100594:	4c0062a4 	sh	v0,76(v1)
80100598:	64d1010c 	jal	0x80074590
8010059c:	00000000 	nop
801005a0:	0e80023c 	lui	v0,0x800e
801005a4:	687e4394 	lhu	v1,32360(v0)
801005a8:	00000000 	nop
801005ac:	10006230 	andi	v0,v1,0x10
801005b0:	09004010 	beqz	v0,0x801005d8
801005b4:	801f023c 	lui	v0,0x1f80
801005b8:	3801438c 	lw	v1,312(v0)
801005bc:	00000000 	nop
801005c0:	4e006294 	lhu	v0,78(v1)
801005c4:	00000000 	nop
801005c8:	88004010 	beqz	v0,0x801007ec
801005cc:	ffff4224 	addiu	v0,v0,-1
801005d0:	461a0408 	j	0x80106918
801005d4:	4e0062a4 	sh	v0,78(v1)
801005d8:	40006230 	andi	v0,v1,0x40
801005dc:	83004010 	beqz	v0,0x801007ec
801005e0:	801f023c 	lui	v0,0x1f80
801005e4:	3801448c 	lw	a0,312(v0)
801005e8:	00000000 	nop
801005ec:	4e008394 	lhu	v1,78(a0)
801005f0:	00000000 	nop
801005f4:	0200622c 	sltiu	v0,v1,2
801005f8:	7c004010 	beqz	v0,0x801007ec
801005fc:	01006224 	addiu	v0,v1,1
80100600:	461a0408 	j	0x80106918
80100604:	4e0082a4 	sh	v0,78(a0)
80100608:	801f103c 	lui	s0,0x1f80
8010060c:	3801028e 	lw	v0,312(s0)
80100610:	00000000 	nop
80100614:	4e004494 	lhu	a0,78(v0)
80100618:	d8fb010c 	jal	0x8007ef60
8010061c:	00000000 	nop
80100620:	0e80023c 	lui	v0,0x800e
80100624:	687e4394 	lhu	v1,32360(v0)
80100628:	00000000 	nop
8010062c:	00406230 	andi	v0,v1,0x4000
80100630:	1c004010 	beqz	v0,0x801006a4
80100634:	10006230 	andi	v0,v1,0x10
80100638:	3801038e 	lw	v1,312(s0)
8010063c:	00000000 	nop
80100640:	4e006494 	lhu	a0,78(v1)
80100644:	00000000 	nop
80100648:	05008010 	beqz	a0,0x80100660
8010064c:	01000224 	li	v0,1
80100650:	0a008210 	beq	a0,v0,0x8010067c
80100654:	14000424 	li	a0,20
80100658:	851a0408 	j	0x80106a14
8010065c:	00000000 	nop
80100660:	4c006294 	lhu	v0,76(v1)
80100664:	00000000 	nop
80100668:	01004224 	addiu	v0,v0,1
8010066c:	cb73000c 	jal	0x8001cf2c
80100670:	4c0062a4 	sh	v0,76(v1)
80100674:	851a0408 	j	0x80106a14
80100678:	00000000 	nop
8010067c:	f7ff0524 	li	a1,-9
80100680:	4c006294 	lhu	v0,76(v1)
80100684:	21300000 	move	a2,zero
80100688:	4e0060a4 	sh	zero,78(v1)
8010068c:	6b0060a0 	sb	zero,107(v1)
80100690:	ffff4224 	addiu	v0,v0,-1
80100694:	64d1010c 	jal	0x80074590
80100698:	4c0062a4 	sh	v0,76(v1)
8010069c:	851a0408 	j	0x80106a14
801006a0:	00000000 	nop
801006a4:	09004010 	beqz	v0,0x801006cc
801006a8:	40006230 	andi	v0,v1,0x40
801006ac:	3801038e 	lw	v1,312(s0)
801006b0:	00000000 	nop
801006b4:	4e006294 	lhu	v0,78(v1)
801006b8:	00000000 	nop
801006bc:	4b004010 	beqz	v0,0x801007ec
801006c0:	ffff4224 	addiu	v0,v0,-1
801006c4:	461a0408 	j	0x80106918
801006c8:	4e0062a4 	sh	v0,78(v1)
801006cc:	47004010 	beqz	v0,0x801007ec
801006d0:	00000000 	nop
801006d4:	3801038e 	lw	v1,312(s0)
801006d8:	00000000 	nop
801006dc:	4e006294 	lhu	v0,78(v1)
801006e0:	00000000 	nop
801006e4:	41004014 	bnez	v0,0x801007ec
801006e8:	01004224 	addiu	v0,v0,1
801006ec:	4e0062a4 	sh	v0,78(v1)
801006f0:	15000424 	li	a0,21
801006f4:	21280000 	move	a1,zero
801006f8:	64d1010c 	jal	0x80074590
801006fc:	2130a000 	move	a2,a1
80100700:	851a0408 	j	0x80106a14
80100704:	00000000 	nop
80100708:	801f023c 	lui	v0,0x1f80
8010070c:	3801428c 	lw	v0,312(v0)
80100710:	04000324 	li	v1,4
80100714:	4a0043a4 	sh	v1,74(v0)
80100718:	4c0040a4 	sh	zero,76(v0)
8010071c:	851a0408 	j	0x80106a14
80100720:	4e0040a4 	sh	zero,78(v0)
80100724:	21200000 	move	a0,zero
80100728:	c8ef010c 	jal	0x8007bf20
8010072c:	01000524 	li	a1,1
80100730:	801f103c 	lui	s0,0x1f80
80100734:	3801048e 	lw	a0,312(s0)
80100738:	00000000 	nop
8010073c:	6b008390 	lbu	v1,107(a0)
80100740:	07000224 	li	v0,7
80100744:	0b006214 	bne	v1,v0,0x80100774
80100748:	ffff6224 	addiu	v0,v1,-1
8010074c:	fdec010c 	jal	0x8007b3f4
80100750:	00000000 	nop
80100754:	01000424 	li	a0,1
80100758:	3801038e 	lw	v1,312(s0)
8010075c:	801f023c 	lui	v0,0x1f80
80100760:	340144a0 	sb	a0,308(v0)
80100764:	4a0064a4 	sh	a0,74(v1)
80100768:	4c0060a4 	sh	zero,76(v1)
8010076c:	851a0408 	j	0x80106a14
80100770:	4e0060a4 	sh	zero,78(v1)
80100774:	ff004230 	andi	v0,v0,0xff
80100778:	0200422c 	sltiu	v0,v0,2
8010077c:	1b004010 	beqz	v0,0x801007ec
80100780:	04000224 	li	v0,4
80100784:	831a0408 	j	0x80106a0c
80100788:	4c0082a4 	sh	v0,76(a0)
8010078c:	81000424 	li	a0,129
80100790:	c8ef010c 	jal	0x8007bf20
80100794:	01000524 	li	a1,1
80100798:	801f053c 	lui	a1,0x1f80
8010079c:	3801a48c 	lw	a0,312(a1)
801007a0:	00000000 	nop
801007a4:	6b008390 	lbu	v1,107(a0)
801007a8:	09000224 	li	v0,9
801007ac:	08006214 	bne	v1,v0,0x801007d0
801007b0:	ffff6224 	addiu	v0,v1,-1
801007b4:	6b0080a0 	sb	zero,107(a0)
801007b8:	3801a38c 	lw	v1,312(a1)
801007bc:	04000224 	li	v0,4
801007c0:	4c0082a4 	sh	v0,76(a0)
801007c4:	4e0080a4 	sh	zero,78(a0)
801007c8:	851a0408 	j	0x80106a14
801007cc:	500060a4 	sh	zero,80(v1)
801007d0:	ff004230 	andi	v0,v0,0xff
801007d4:	0200422c 	sltiu	v0,v0,2
801007d8:	04004010 	beqz	v0,0x801007ec
801007dc:	03000224 	li	v0,3
801007e0:	4c0082a4 	sh	v0,76(a0)
801007e4:	01000224 	li	v0,1
801007e8:	4e0082a4 	sh	v0,78(a0)
801007ec:	1400bf8f 	lw	ra,20(sp)
801007f0:	1000b08f 	lw	s0,16(sp)
801007f4:	0800e003 	jr	ra
801007f8:	1800bd27 	addiu	sp,sp,24
801007fc:	801f023c 	lui	v0,0x1f80
80100800:	3801428c 	lw	v0,312(v0)
80100804:	e8ffbd27 	addiu	sp,sp,-24
80100808:	1000bfaf 	sw	ra,16(sp)
8010080c:	4c004394 	lhu	v1,76(v0)
80100810:	00000000 	nop
80100814:	0500622c 	sltiu	v0,v1,5
80100818:	51004010 	beqz	v0,0x80100960
8010081c:	1080023c 	lui	v0,0x8010
80100820:	54624224 	addiu	v0,v0,25172
80100824:	80180300 	sll	v1,v1,0x2
80100828:	21186200 	addu	v1,v1,v0
8010082c:	0000628c 	lw	v0,0(v1)
80100830:	00000000 	nop
80100834:	08004000 	jr	v0
80100838:	00000000 	nop
8010083c:	2542010c 	jal	0x80050894
80100840:	21200000 	move	a0,zero
80100844:	cb73000c 	jal	0x8001cf2c
80100848:	00000000 	nop
8010084c:	90d4010c 	jal	0x80075240
80100850:	00000000 	nop
80100854:	c073000c 	jal	0x8001cf00
80100858:	01000424 	li	a0,1
8010085c:	801f023c 	lui	v0,0x1f80
80100860:	9d0140a0 	sb	zero,413(v0)
80100864:	801f023c 	lui	v0,0x1f80
80100868:	9c0140a0 	sb	zero,412(v0)
8010086c:	801f023c 	lui	v0,0x1f80
80100870:	3801448c 	lw	a0,312(v0)
80100874:	801f023c 	lui	v0,0x1f80
80100878:	500240ac 	sw	zero,592(v0)
8010087c:	4c008394 	lhu	v1,76(a0)
80100880:	0e80023c 	lui	v0,0x800e
80100884:	cb1a0408 	j	0x80106b2c
80100888:	687e40a4 	sh	zero,32360(v0)
8010088c:	9849040c 	jal	0x80112660
80100890:	21200000 	move	a0,zero
80100894:	23004014 	bnez	v0,0x80100924
80100898:	801f023c 	lui	v0,0x1f80
8010089c:	801f023c 	lui	v0,0x1f80
801008a0:	5002428c 	lw	v0,592(v0)
801008a4:	00000000 	nop
801008a8:	66044228 	slti	v0,v0,1126
801008ac:	2c004014 	bnez	v0,0x80100960
801008b0:	0e80023c 	lui	v0,0x800e
801008b4:	687e4294 	lhu	v0,32360(v0)
801008b8:	00000000 	nop
801008bc:	28004010 	beqz	v0,0x80100960
801008c0:	801f033c 	lui	v1,0x1f80
801008c4:	01000224 	li	v0,1
801008c8:	e21a0408 	j	0x80106b88
801008cc:	9d0162a0 	sb	v0,413(v1)
801008d0:	90d4010c 	jal	0x80075240
801008d4:	00000000 	nop
801008d8:	c073000c 	jal	0x8001cf00
801008dc:	01000424 	li	a0,1
801008e0:	801f023c 	lui	v0,0x1f80
801008e4:	9d0140a0 	sb	zero,413(v0)
801008e8:	801f023c 	lui	v0,0x1f80
801008ec:	3801448c 	lw	a0,312(v0)
801008f0:	801f023c 	lui	v0,0x1f80
801008f4:	9c0140a0 	sb	zero,412(v0)
801008f8:	4c008394 	lhu	v1,76(a0)
801008fc:	801f023c 	lui	v0,0x1f80
80100900:	500240ac 	sw	zero,592(v0)
80100904:	4e0080a4 	sh	zero,78(a0)
80100908:	01006324 	addiu	v1,v1,1
8010090c:	e21a0408 	j	0x80106b88
80100910:	4c0083a4 	sh	v1,76(a0)
80100914:	9849040c 	jal	0x80112660
80100918:	01000424 	li	a0,1
8010091c:	10004010 	beqz	v0,0x80100960
80100920:	801f023c 	lui	v0,0x1f80
80100924:	3801438c 	lw	v1,312(v0)
80100928:	00000000 	nop
8010092c:	4c006294 	lhu	v0,76(v1)
80100930:	00000000 	nop
80100934:	01004224 	addiu	v0,v0,1
80100938:	e21a0408 	j	0x80106b88
8010093c:	4c0062a4 	sh	v0,76(v1)
80100940:	cb73000c 	jal	0x8001cf2c
80100944:	00000000 	nop
80100948:	801f023c 	lui	v0,0x1f80
8010094c:	3801428c 	lw	v0,312(v0)
80100950:	04000324 	li	v1,4
80100954:	4a0043a4 	sh	v1,74(v0)
80100958:	4c0040a4 	sh	zero,76(v0)
8010095c:	4e0040a4 	sh	zero,78(v0)
80100960:	1000bf8f 	lw	ra,16(sp)
80100964:	00000000 	nop
80100968:	0800e003 	jr	ra
8010096c:	1800bd27 	addiu	sp,sp,24
80100970:	801f023c 	lui	v0,0x1f80
80100974:	3801428c 	lw	v0,312(v0)
80100978:	e8ffbd27 	addiu	sp,sp,-24
8010097c:	1400bfaf 	sw	ra,20(sp)
80100980:	1000b0af 	sw	s0,16(sp)
80100984:	4e004394 	lhu	v1,78(v0)
80100988:	00000000 	nop
8010098c:	0c00622c 	sltiu	v0,v1,12
80100990:	3a014010 	beqz	v0,0x80100e7c
80100994:	1080023c 	lui	v0,0x8010
80100998:	6c624224 	addiu	v0,v0,25196
8010099c:	80180300 	sll	v1,v1,0x2
801009a0:	21186200 	addu	v1,v1,v0
801009a4:	0000628c 	lw	v0,0(v1)
801009a8:	00000000 	nop
801009ac:	08004000 	jr	v0
801009b0:	00000000 	nop
801009b4:	63ec010c 	jal	0x8007b18c
801009b8:	00000000 	nop
801009bc:	b7e5010c 	jal	0x800796dc
801009c0:	00000000 	nop
801009c4:	fa98000c 	jal	0x800263e8
801009c8:	00000000 	nop
801009cc:	9eca010c 	jal	0x80072a78
801009d0:	00000000 	nop
801009d4:	90d4010c 	jal	0x80075240
801009d8:	00000000 	nop
801009dc:	f7e0010c 	jal	0x800783dc
801009e0:	00000000 	nop
801009e4:	84e1010c 	jal	0x80078610
801009e8:	00000000 	nop
801009ec:	801f053c 	lui	a1,0x1f80
801009f0:	01000224 	li	v0,1
801009f4:	3801a38c 	lw	v1,312(a1)
801009f8:	0c80043c 	lui	a0,0x800c
801009fc:	4e0062a4 	sh	v0,78(v1)
80100a00:	70f88224 	addiu	v0,a0,-1936
80100a04:	6b0060a0 	sb	zero,107(v1)
80100a08:	2c004390 	lbu	v1,44(v0)
80100a0c:	02000224 	li	v0,2
80100a10:	05006214 	bne	v1,v0,0x80100a28
80100a14:	08000224 	li	v0,8
80100a18:	3801a38c 	lw	v1,312(a1)
80100a1c:	09000224 	li	v0,9
80100a20:	221b0408 	j	0x80106c88
80100a24:	4e0062a4 	sh	v0,78(v1)
80100a28:	70f88390 	lbu	v1,-1936(a0)
80100a2c:	00000000 	nop
80100a30:	09006210 	beq	v1,v0,0x80100a58
80100a34:	15000224 	li	v0,21
80100a38:	70f88394 	lhu	v1,-1936(a0)
80100a3c:	00000000 	nop
80100a40:	08006214 	bne	v1,v0,0x80100a64
80100a44:	0c80023c 	lui	v0,0x800c
80100a48:	3801a38c 	lw	v1,312(a1)
80100a4c:	0b000224 	li	v0,11
80100a50:	291c0408 	j	0x801070a4
80100a54:	4e0062a4 	sh	v0,78(v1)
80100a58:	e452040c 	jal	0x80114b90
80100a5c:	00000000 	nop
80100a60:	0c80023c 	lui	v0,0x800c
80100a64:	70f84490 	lbu	a0,-1936(v0)
80100a68:	c9d3010c 	jal	0x80074f24
80100a6c:	00000000 	nop
80100a70:	291c0408 	j	0x801070a4
80100a74:	00000000 	nop
80100a78:	0c80023c 	lui	v0,0x800c
80100a7c:	70f84390 	lbu	v1,-1936(v0)
80100a80:	07000224 	li	v0,7
80100a84:	06006214 	bne	v1,v0,0x80100aa0
80100a88:	801f023c 	lui	v0,0x1f80
80100a8c:	2f4a040c 	jal	0x801128bc
80100a90:	00000000 	nop
80100a94:	2a42010c 	jal	0x800508a8
80100a98:	00000000 	nop
80100a9c:	801f023c 	lui	v0,0x1f80
80100aa0:	3801438c 	lw	v1,312(v0)
80100aa4:	01000224 	li	v0,1
80100aa8:	c322040c 	jal	0x80108b0c
80100aac:	4e0062a4 	sh	v0,78(v1)
80100ab0:	291c0408 	j	0x801070a4
80100ab4:	00000000 	nop
80100ab8:	f1b1010c 	jal	0x8006c7c4
80100abc:	00000000 	nop
80100ac0:	2a42010c 	jal	0x800508a8
80100ac4:	00000000 	nop
80100ac8:	801f023c 	lui	v0,0x1f80
80100acc:	3801438c 	lw	v1,312(v0)
80100ad0:	01000224 	li	v0,1
80100ad4:	4e0062a4 	sh	v0,78(v1)
80100ad8:	c322040c 	jal	0x80108b0c
80100adc:	00000000 	nop
80100ae0:	0c80023c 	lui	v0,0x800c
80100ae4:	08f84324 	addiu	v1,v0,-2040
80100ae8:	05006280 	lb	v0,5(v1)
80100aec:	03000524 	li	a1,3
80100af0:	14004514 	bne	v0,a1,0x80100b44
80100af4:	00000000 	nop
80100af8:	07006290 	lbu	v0,7(v1)
80100afc:	00000000 	nop
80100b00:	de004014 	bnez	v0,0x80100e7c
80100b04:	00000000 	nop
80100b08:	f1d2010c 	jal	0x80074bc4
80100b0c:	00000000 	nop
80100b10:	0e80023c 	lui	v0,0x800e
80100b14:	ee7f4384 	lh	v1,32750(v0)
80100b18:	ee7f4494 	lhu	a0,32750(v0)
80100b1c:	80006010 	beqz	v1,0x80100d20
80100b20:	0c80033c 	lui	v1,0x800c
80100b24:	01000224 	li	v0,1
80100b28:	80f862a0 	sb	v0,-1920(v1)
80100b2c:	801f023c 	lui	v0,0x1f80
80100b30:	3801438c 	lw	v1,312(v0)
80100b34:	801f023c 	lui	v0,0x1f80
80100b38:	940144a4 	sh	a0,404(v0)
80100b3c:	291c0408 	j	0x801070a4
80100b40:	4e0060a4 	sh	zero,78(v1)
80100b44:	31006490 	lbu	a0,49(v1)
80100b48:	00000000 	nop
80100b4c:	cb008010 	beqz	a0,0x80100e7c
80100b50:	00000000 	nop
80100b54:	07006290 	lbu	v0,7(v1)
80100b58:	00000000 	nop
80100b5c:	c7004014 	bnez	v0,0x80100e7c
80100b60:	08000224 	li	v0,8
80100b64:	08008214 	bne	a0,v0,0x80100b88
80100b68:	801f023c 	lui	v0,0x1f80
80100b6c:	801f023c 	lui	v0,0x1f80
80100b70:	3801428c 	lw	v0,312(v0)
80100b74:	00000000 	nop
80100b78:	4a0045a4 	sh	a1,74(v0)
80100b7c:	4c0040a4 	sh	zero,76(v0)
80100b80:	291c0408 	j	0x801070a4
80100b84:	4e0040a4 	sh	zero,78(v0)
80100b88:	36024290 	lbu	v0,566(v0)
80100b8c:	00000000 	nop
80100b90:	0500422c 	sltiu	v0,v0,5
80100b94:	03004014 	bnez	v0,0x80100ba4
80100b98:	00000000 	nop
80100b9c:	2542010c 	jal	0x80050894
80100ba0:	21200000 	move	a0,zero
80100ba4:	801f023c 	lui	v0,0x1f80
80100ba8:	3801438c 	lw	v1,312(v0)
80100bac:	eb1b0408 	j	0x80106fac
80100bb0:	01000224 	li	v0,1
80100bb4:	0e80043c 	lui	a0,0x800e
80100bb8:	807e8424 	addiu	a0,a0,32384
80100bbc:	c160010c 	jal	0x80058304
80100bc0:	0c000524 	li	a1,12
80100bc4:	801f023c 	lui	v0,0x1f80
80100bc8:	3801438c 	lw	v1,312(v0)
80100bcc:	00000000 	nop
80100bd0:	4e006294 	lhu	v0,78(v1)
80100bd4:	00000000 	nop
80100bd8:	01004224 	addiu	v0,v0,1
80100bdc:	4e0062a4 	sh	v0,78(v1)
80100be0:	f1d2010c 	jal	0x80074bc4
80100be4:	00000000 	nop
80100be8:	0c80023c 	lui	v0,0x800c
80100bec:	70f84390 	lbu	v1,-1936(v0)
80100bf0:	08000224 	li	v0,8
80100bf4:	04006214 	bne	v1,v0,0x80100c08
80100bf8:	21200000 	move	a0,zero
80100bfc:	e452040c 	jal	0x80114b90
80100c00:	00000000 	nop
80100c04:	21200000 	move	a0,zero
80100c08:	21288000 	move	a1,a0
80100c0c:	21308000 	move	a2,a0
80100c10:	801f023c 	lui	v0,0x1f80
80100c14:	3801428c 	lw	v0,312(v0)
80100c18:	02000324 	li	v1,2
80100c1c:	4a0043a4 	sh	v1,74(v0)
80100c20:	4c0040a4 	sh	zero,76(v0)
80100c24:	0b42010c 	jal	0x8005082c
80100c28:	4e0040a4 	sh	zero,78(v0)
80100c2c:	291c0408 	j	0x801070a4
80100c30:	00000000 	nop
80100c34:	0e80023c 	lui	v0,0x800e
80100c38:	ee7f4384 	lh	v1,32750(v0)
80100c3c:	ee7f4494 	lhu	a0,32750(v0)
80100c40:	05006010 	beqz	v1,0x80100c58
80100c44:	0c80023c 	lui	v0,0x800c
80100c48:	01000324 	li	v1,1
80100c4c:	80f843a0 	sb	v1,-1920(v0)
80100c50:	801f023c 	lui	v0,0x1f80
80100c54:	940144a4 	sh	a0,404(v0)
80100c58:	f1d2010c 	jal	0x80074bc4
80100c5c:	00000000 	nop
80100c60:	0c80023c 	lui	v0,0x800c
80100c64:	08f85024 	addiu	s0,v0,-2040
80100c68:	32000296 	lhu	v0,50(s0)
80100c6c:	0c80033c 	lui	v1,0x800c
80100c70:	02120200 	srl	v0,v0,0x8
80100c74:	1f004230 	andi	v0,v0,0x1f
80100c78:	70f862a0 	sb	v0,-1936(v1)
80100c7c:	32000292 	lbu	v0,50(s0)
80100c80:	70f86324 	addiu	v1,v1,-1936
80100c84:	3f004230 	andi	v0,v0,0x3f
80100c88:	010062a0 	sb	v0,1(v1)
80100c8c:	31000392 	lbu	v1,49(s0)
80100c90:	07000224 	li	v0,7
80100c94:	07006214 	bne	v1,v0,0x80100cb4
80100c98:	03000224 	li	v0,3
80100c9c:	e452040c 	jal	0x80114b90
80100ca0:	00000000 	nop
80100ca4:	03000224 	li	v0,3
80100ca8:	310002a2 	sb	v0,49(s0)
80100cac:	31000392 	lbu	v1,49(s0)
80100cb0:	03000224 	li	v0,3
80100cb4:	0b006210 	beq	v1,v0,0x80100ce4
80100cb8:	801f023c 	lui	v0,0x1f80
80100cbc:	3801438c 	lw	v1,312(v0)
80100cc0:	02000224 	li	v0,2
80100cc4:	480062a4 	sh	v0,72(v1)
80100cc8:	801f023c 	lui	v0,0x1f80
80100ccc:	36024490 	lbu	a0,566(v0)
80100cd0:	05000224 	li	v0,5
80100cd4:	4a0062a4 	sh	v0,74(v1)
80100cd8:	4e0060a4 	sh	zero,78(v1)
80100cdc:	291c0408 	j	0x801070a4
80100ce0:	4c0064a4 	sh	a0,76(v1)
80100ce4:	1749010c 	jal	0x8005245c
80100ce8:	00000000 	nop
80100cec:	801f023c 	lui	v0,0x1f80
80100cf0:	3801438c 	lw	v1,312(v0)
80100cf4:	02000224 	li	v0,2
80100cf8:	480062a4 	sh	v0,72(v1)
80100cfc:	01000224 	li	v0,1
80100d00:	4a0062a4 	sh	v0,74(v1)
80100d04:	4c0062a4 	sh	v0,76(v1)
80100d08:	291c0408 	j	0x801070a4
80100d0c:	4e0060a4 	sh	zero,78(v1)
80100d10:	6015010c 	jal	0x80045580
80100d14:	01000424 	li	a0,1
80100d18:	58004010 	beqz	v0,0x80100e7c
80100d1c:	00000000 	nop
80100d20:	801f023c 	lui	v0,0x1f80
80100d24:	3801438c 	lw	v1,312(v0)
80100d28:	00000000 	nop
80100d2c:	4e006294 	lhu	v0,78(v1)
80100d30:	00000000 	nop
80100d34:	01004224 	addiu	v0,v0,1
80100d38:	291c0408 	j	0x801070a4
80100d3c:	4e0062a4 	sh	v0,78(v1)
80100d40:	801f023c 	lui	v0,0x1f80
80100d44:	9b014290 	lbu	v0,411(v0)
80100d48:	00000000 	nop
80100d4c:	4b004010 	beqz	v0,0x80100e7c
80100d50:	0c80033c 	lui	v1,0x800c
80100d54:	04000224 	li	v0,4
80100d58:	9cf862a0 	sb	v0,-1892(v1)
80100d5c:	801f023c 	lui	v0,0x1f80
80100d60:	360240a0 	sb	zero,566(v0)
80100d64:	0c80023c 	lui	v0,0x800c
80100d68:	08f84224 	addiu	v0,v0,-2040
80100d6c:	03000324 	li	v1,3
80100d70:	310043a0 	sb	v1,49(v0)
80100d74:	320040a4 	sh	zero,50(v0)
80100d78:	801f023c 	lui	v0,0x1f80
80100d7c:	3801438c 	lw	v1,312(v0)
80100d80:	01000224 	li	v0,1
80100d84:	4a0062a4 	sh	v0,74(v1)
80100d88:	02000224 	li	v0,2
80100d8c:	4c0062a4 	sh	v0,76(v1)
80100d90:	06000224 	li	v0,6
80100d94:	291c0408 	j	0x801070a4
80100d98:	4e0062a4 	sh	v0,78(v1)
80100d9c:	c322040c 	jal	0x80108b0c
80100da0:	00000000 	nop
80100da4:	0c80023c 	lui	v0,0x800c
80100da8:	9cf84390 	lbu	v1,-1892(v0)
80100dac:	02000224 	li	v0,2
80100db0:	32006214 	bne	v1,v0,0x80100e7c
80100db4:	0e80023c 	lui	v0,0x800e
80100db8:	687e4294 	lhu	v0,32360(v0)
80100dbc:	00000000 	nop
80100dc0:	08004230 	andi	v0,v0,0x8
80100dc4:	2d004010 	beqz	v0,0x80100e7c
80100dc8:	801f023c 	lui	v0,0x1f80
80100dcc:	3801438c 	lw	v1,312(v0)
80100dd0:	00000000 	nop
80100dd4:	4e006294 	lhu	v0,78(v1)
80100dd8:	0c80043c 	lui	a0,0x800c
80100ddc:	01004224 	addiu	v0,v0,1
80100de0:	4e0062a4 	sh	v0,78(v1)
80100de4:	01000224 	li	v0,1
80100de8:	09f882a0 	sb	v0,-2039(a0)
80100dec:	1f000224 	li	v0,31
80100df0:	291c0408 	j	0x801070a4
80100df4:	6e0062a0 	sb	v0,110(v1)
80100df8:	c322040c 	jal	0x80108b0c
80100dfc:	801f103c 	lui	s0,0x1f80
80100e00:	3801028e 	lw	v0,312(s0)
80100e04:	21280000 	move	a1,zero
80100e08:	6e004490 	lbu	a0,110(v0)
80100e0c:	2130a000 	move	a2,a1
80100e10:	c0200400 	sll	a0,a0,0x3
80100e14:	23200400 	negu	a0,a0
80100e18:	ff008430 	andi	a0,a0,0xff
80100e1c:	00140400 	sll	v0,a0,0x10
80100e20:	001a0400 	sll	v1,a0,0x8
80100e24:	25104300 	or	v0,v0,v1
80100e28:	72fa010c 	jal	0x8007e9c8
80100e2c:	25204400 	or	a0,v0,a0
80100e30:	3801038e 	lw	v1,312(s0)
80100e34:	00000000 	nop
80100e38:	6e006290 	lbu	v0,110(v1)
80100e3c:	00000000 	nop
80100e40:	ffff4224 	addiu	v0,v0,-1
80100e44:	6e0062a0 	sb	v0,110(v1)
80100e48:	3801038e 	lw	v1,312(s0)
80100e4c:	00000000 	nop
80100e50:	6e006290 	lbu	v0,110(v1)
80100e54:	00000000 	nop
80100e58:	08004014 	bnez	v0,0x80100e7c
80100e5c:	07000224 	li	v0,7
80100e60:	cb73000c 	jal	0x8001cf2c
80100e64:	4e0062a4 	sh	v0,78(v1)
80100e68:	291c0408 	j	0x801070a4
80100e6c:	00000000 	nop
80100e70:	0f80043c 	lui	a0,0x800f
80100e74:	5f25040c 	jal	0x8010957c
80100e78:	08808424 	addiu	a0,a0,-32760
80100e7c:	1400bf8f 	lw	ra,20(sp)
80100e80:	1000b08f 	lw	s0,16(sp)
80100e84:	0800e003 	jr	ra
80100e88:	1800bd27 	addiu	sp,sp,24
80100e8c:	801f023c 	lui	v0,0x1f80
80100e90:	3801448c 	lw	a0,312(v0)
80100e94:	e8ffbd27 	addiu	sp,sp,-24
80100e98:	1000bfaf 	sw	ra,16(sp)
80100e9c:	4e008394 	lhu	v1,78(a0)
80100ea0:	01000524 	li	a1,1
80100ea4:	12006510 	beq	v1,a1,0x80100ef0
80100ea8:	02006228 	slti	v0,v1,2
80100eac:	05004010 	beqz	v0,0x80100ec4
80100eb0:	00000000 	nop
80100eb4:	08006010 	beqz	v1,0x80100ed8
80100eb8:	00000000 	nop
80100ebc:	881c0408 	j	0x80107220
80100ec0:	00000000 	nop
80100ec4:	02000224 	li	v0,2
80100ec8:	4a006210 	beq	v1,v0,0x80100ff4
80100ecc:	00000000 	nop
80100ed0:	881c0408 	j	0x80107220
80100ed4:	00000000 	nop
80100ed8:	dfb1010c 	jal	0x8006c77c
80100edc:	4e0085a4 	sh	a1,78(a0)
80100ee0:	21200000 	move	a0,zero
80100ee4:	21288000 	move	a1,a0
80100ee8:	0b42010c 	jal	0x8005082c
80100eec:	21308000 	move	a2,a0
80100ef0:	f922040c 	jal	0x80108be4
80100ef4:	00000000 	nop
80100ef8:	0c80023c 	lui	v0,0x800c
80100efc:	08f84324 	addiu	v1,v0,-2040
80100f00:	05006280 	lb	v0,5(v1)
80100f04:	03000524 	li	a1,3
80100f08:	18004514 	bne	v0,a1,0x80100f6c
80100f0c:	00000000 	nop
80100f10:	07006290 	lbu	v0,7(v1)
80100f14:	00000000 	nop
80100f18:	37004014 	bnez	v0,0x80100ff8
80100f1c:	00000000 	nop
80100f20:	f1d2010c 	jal	0x80074bc4
80100f24:	00000000 	nop
80100f28:	801f023c 	lui	v0,0x1f80
80100f2c:	02000624 	li	a2,2
80100f30:	3801448c 	lw	a0,312(v0)
80100f34:	0e80023c 	lui	v0,0x800e
80100f38:	4c0086a4 	sh	a2,76(a0)
80100f3c:	ee7f4384 	lh	v1,32750(v0)
80100f40:	ee7f4594 	lhu	a1,32750(v0)
80100f44:	07006010 	beqz	v1,0x80100f64
80100f48:	0c80023c 	lui	v0,0x800c
80100f4c:	01000324 	li	v1,1
80100f50:	80f843a0 	sb	v1,-1920(v0)
80100f54:	801f023c 	lui	v0,0x1f80
80100f58:	940145a4 	sh	a1,404(v0)
80100f5c:	881c0408 	j	0x80107220
80100f60:	4e0080a4 	sh	zero,78(a0)
80100f64:	881c0408 	j	0x80107220
80100f68:	4e0086a4 	sh	a2,78(a0)
80100f6c:	31006490 	lbu	a0,49(v1)
80100f70:	00000000 	nop
80100f74:	20008010 	beqz	a0,0x80100ff8
80100f78:	00000000 	nop
80100f7c:	07006290 	lbu	v0,7(v1)
80100f80:	00000000 	nop
80100f84:	1c004014 	bnez	v0,0x80100ff8
80100f88:	08000224 	li	v0,8
80100f8c:	09008214 	bne	a0,v0,0x80100fb4
80100f90:	801f023c 	lui	v0,0x1f80
80100f94:	801f023c 	lui	v0,0x1f80
80100f98:	3801438c 	lw	v1,312(v0)
80100f9c:	01000224 	li	v0,1
80100fa0:	4a0062a4 	sh	v0,74(v1)
80100fa4:	02000224 	li	v0,2
80100fa8:	4c0062a4 	sh	v0,76(v1)
80100fac:	881c0408 	j	0x80107220
80100fb0:	4e0065a4 	sh	a1,78(v1)
80100fb4:	36024290 	lbu	v0,566(v0)
80100fb8:	00000000 	nop
80100fbc:	0500422c 	sltiu	v0,v0,5
80100fc0:	04004014 	bnez	v0,0x80100fd4
80100fc4:	801f023c 	lui	v0,0x1f80
80100fc8:	2542010c 	jal	0x80050894
80100fcc:	21200000 	move	a0,zero
80100fd0:	801f023c 	lui	v0,0x1f80
80100fd4:	3801438c 	lw	v1,312(v0)
80100fd8:	01000224 	li	v0,1
80100fdc:	4a0062a4 	sh	v0,74(v1)
80100fe0:	02000224 	li	v0,2
80100fe4:	4c0062a4 	sh	v0,76(v1)
80100fe8:	06000224 	li	v0,6
80100fec:	881c0408 	j	0x80107220
80100ff0:	4e0062a4 	sh	v0,78(v1)
80100ff4:	4e0085a4 	sh	a1,78(a0)
80100ff8:	1000bf8f 	lw	ra,16(sp)
80100ffc:	00000000 	nop
80101000:	0800e003 	jr	ra
80101004:	1800bd27 	addiu	sp,sp,24
80101008:	801f023c 	lui	v0,0x1f80
8010100c:	3801428c 	lw	v0,312(v0)
80101010:	e0ffbd27 	addiu	sp,sp,-32
80101014:	1800bfaf 	sw	ra,24(sp)
80101018:	1400b1af 	sw	s1,20(sp)
8010101c:	1000b0af 	sw	s0,16(sp)
80101020:	4e004394 	lhu	v1,78(v0)
80101024:	00000000 	nop
80101028:	0600622c 	sltiu	v0,v1,6
8010102c:	00014010 	beqz	v0,0x80101430
80101030:	1080023c 	lui	v0,0x8010
80101034:	9c624224 	addiu	v0,v0,25244
80101038:	80180300 	sll	v1,v1,0x2
8010103c:	21186200 	addu	v1,v1,v0
80101040:	0000628c 	lw	v0,0(v1)
80101044:	00000000 	nop
80101048:	08004000 	jr	v0
8010104c:	00000000 	nop
80101050:	801f023c 	lui	v0,0x1f80
80101054:	3801438c 	lw	v1,312(v0)
80101058:	00000000 	nop
8010105c:	4e006294 	lhu	v0,78(v1)
80101060:	6b0060a0 	sb	zero,107(v1)
80101064:	01004224 	addiu	v0,v0,1
80101068:	63ec010c 	jal	0x8007b18c
8010106c:	4e0062a4 	sh	v0,78(v1)
80101070:	b7e5010c 	jal	0x800796dc
80101074:	00000000 	nop
80101078:	fa98000c 	jal	0x800263e8
8010107c:	00000000 	nop
80101080:	9eca010c 	jal	0x80072a78
80101084:	00000000 	nop
80101088:	90d4010c 	jal	0x80075240
8010108c:	00000000 	nop
80101090:	f7e0010c 	jal	0x800783dc
80101094:	00000000 	nop
80101098:	84e1010c 	jal	0x80078610
8010109c:	00000000 	nop
801010a0:	0c80023c 	lui	v0,0x800c
801010a4:	70f84490 	lbu	a0,-1936(v0)
801010a8:	c9d3010c 	jal	0x80074f24
801010ac:	00000000 	nop
801010b0:	961d0408 	j	0x80107658
801010b4:	00000000 	nop
801010b8:	801f033c 	lui	v1,0x1f80
801010bc:	7c016294 	lhu	v0,380(v1)
801010c0:	801f103c 	lui	s0,0x1f80
801010c4:	01004224 	addiu	v0,v0,1
801010c8:	7c0162a4 	sh	v0,380(v1)
801010cc:	0c80033c 	lui	v1,0x800c
801010d0:	70f86324 	addiu	v1,v1,-1936
801010d4:	0800628c 	lw	v0,8(v1)
801010d8:	36010492 	lbu	a0,310(s0)
801010dc:	01004224 	addiu	v0,v0,1
801010e0:	17008014 	bnez	a0,0x80101140
801010e4:	080062ac 	sw	v0,8(v1)
801010e8:	4a67010c 	jal	0x80059d28
801010ec:	00000000 	nop
801010f0:	caa6010c 	jal	0x80069b28
801010f4:	00000000 	nop
801010f8:	da98000c 	jal	0x80026368
801010fc:	00000000 	nop
80101100:	41ea010c 	jal	0x8007a904
80101104:	00000000 	nop
80101108:	6295000c 	jal	0x80025588
8010110c:	00000000 	nop
80101110:	a13f010c 	jal	0x8004fe84
80101114:	00000000 	nop
80101118:	229b000c 	jal	0x80026c88
8010111c:	00000000 	nop
80101120:	a08a000c 	jal	0x80022a80
80101124:	00000000 	nop
80101128:	11bb010c 	jal	0x8006ec44
8010112c:	00000000 	nop
80101130:	7943010c 	jal	0x80050de4
80101134:	00000000 	nop
80101138:	b072000c 	jal	0x8001cac0
8010113c:	00000000 	nop
80101140:	36010292 	lbu	v0,310(s0)
80101144:	00000000 	nop
80101148:	0200422c 	sltiu	v0,v0,2
8010114c:	03004010 	beqz	v0,0x8010115c
80101150:	00000000 	nop
80101154:	6afe000c 	jal	0x8003f9a8
80101158:	00000000 	nop
8010115c:	4320040c 	jal	0x8010810c
80101160:	00000000 	nop
80101164:	63df010c 	jal	0x80077d8c
80101168:	00000000 	nop
8010116c:	a0d6010c 	jal	0x80075a80
80101170:	00000000 	nop
80101174:	0c80023c 	lui	v0,0x800c
80101178:	08f84224 	addiu	v0,v0,-2040
8010117c:	31004390 	lbu	v1,49(v0)
80101180:	00000000 	nop
80101184:	aa006010 	beqz	v1,0x80101430
80101188:	00000000 	nop
8010118c:	07004290 	lbu	v0,7(v0)
80101190:	00000000 	nop
80101194:	a6004014 	bnez	v0,0x80101430
80101198:	01001024 	li	s0,1
8010119c:	0f007014 	bne	v1,s0,0x801011dc
801011a0:	801f023c 	lui	v0,0x1f80
801011a4:	801f023c 	lui	v0,0x1f80
801011a8:	36024290 	lbu	v0,566(v0)
801011ac:	00000000 	nop
801011b0:	0500422c 	sltiu	v0,v0,5
801011b4:	03004014 	bnez	v0,0x801011c4
801011b8:	00000000 	nop
801011bc:	2542010c 	jal	0x80050894
801011c0:	21200000 	move	a0,zero
801011c4:	801f023c 	lui	v0,0x1f80
801011c8:	3801438c 	lw	v1,312(v0)
801011cc:	02000224 	li	v0,2
801011d0:	4c0062a4 	sh	v0,76(v1)
801011d4:	051d0408 	j	0x80107414
801011d8:	06000224 	li	v0,6
801011dc:	3801438c 	lw	v1,312(v0)
801011e0:	02000224 	li	v0,2
801011e4:	4c0062a4 	sh	v0,76(v1)
801011e8:	03000224 	li	v0,3
801011ec:	4a0070a4 	sh	s0,74(v1)
801011f0:	961d0408 	j	0x80107658
801011f4:	4e0062a4 	sh	v0,78(v1)
801011f8:	dfb1010c 	jal	0x8006c77c
801011fc:	00000000 	nop
80101200:	801f023c 	lui	v0,0x1f80
80101204:	3801438c 	lw	v1,312(v0)
80101208:	00000000 	nop
8010120c:	4e006294 	lhu	v0,78(v1)
80101210:	00000000 	nop
80101214:	01004224 	addiu	v0,v0,1
80101218:	4e0062a4 	sh	v0,78(v1)
8010121c:	801f033c 	lui	v1,0x1f80
80101220:	7c016294 	lhu	v0,380(v1)
80101224:	801f103c 	lui	s0,0x1f80
80101228:	01004224 	addiu	v0,v0,1
8010122c:	7c0162a4 	sh	v0,380(v1)
80101230:	0c80033c 	lui	v1,0x800c
80101234:	70f86324 	addiu	v1,v1,-1936
80101238:	0800628c 	lw	v0,8(v1)
8010123c:	36010492 	lbu	a0,310(s0)
80101240:	01004224 	addiu	v0,v0,1
80101244:	13008014 	bnez	a0,0x80101294
80101248:	080062ac 	sw	v0,8(v1)
8010124c:	4a67010c 	jal	0x80059d28
80101250:	00000000 	nop
80101254:	caa6010c 	jal	0x80069b28
80101258:	00000000 	nop
8010125c:	da98000c 	jal	0x80026368
80101260:	00000000 	nop
80101264:	13ec010c 	jal	0x8007b04c
80101268:	00000000 	nop
8010126c:	6295000c 	jal	0x80025588
80101270:	00000000 	nop
80101274:	a13f010c 	jal	0x8004fe84
80101278:	00000000 	nop
8010127c:	229b000c 	jal	0x80026c88
80101280:	00000000 	nop
80101284:	a08a000c 	jal	0x80022a80
80101288:	00000000 	nop
8010128c:	11bb010c 	jal	0x8006ec44
80101290:	00000000 	nop
80101294:	36010292 	lbu	v0,310(s0)
80101298:	00000000 	nop
8010129c:	0200422c 	sltiu	v0,v0,2
801012a0:	03004010 	beqz	v0,0x801012b0
801012a4:	00000000 	nop
801012a8:	91fe000c 	jal	0x8003fa44
801012ac:	00000000 	nop
801012b0:	4320040c 	jal	0x8010810c
801012b4:	00000000 	nop
801012b8:	63df010c 	jal	0x80077d8c
801012bc:	00000000 	nop
801012c0:	a0d6010c 	jal	0x80075a80
801012c4:	00000000 	nop
801012c8:	0c80023c 	lui	v0,0x800c
801012cc:	08f84324 	addiu	v1,v0,-2040
801012d0:	31006290 	lbu	v0,49(v1)
801012d4:	00000000 	nop
801012d8:	55004010 	beqz	v0,0x80101430
801012dc:	00000000 	nop
801012e0:	07006290 	lbu	v0,7(v1)
801012e4:	00000000 	nop
801012e8:	51004014 	bnez	v0,0x80101430
801012ec:	801f023c 	lui	v0,0x1f80
801012f0:	36024290 	lbu	v0,566(v0)
801012f4:	00000000 	nop
801012f8:	0500422c 	sltiu	v0,v0,5
801012fc:	04004014 	bnez	v0,0x80101310
80101300:	801f023c 	lui	v0,0x1f80
80101304:	2542010c 	jal	0x80050894
80101308:	21200000 	move	a0,zero
8010130c:	801f023c 	lui	v0,0x1f80
80101310:	3801438c 	lw	v1,312(v0)
80101314:	01000224 	li	v0,1
80101318:	4a0062a4 	sh	v0,74(v1)
8010131c:	02000224 	li	v0,2
80101320:	4c0062a4 	sh	v0,76(v1)
80101324:	06000224 	li	v0,6
80101328:	961d0408 	j	0x80107658
8010132c:	4e0062a4 	sh	v0,78(v1)
80101330:	f1b1010c 	jal	0x8006c7c4
80101334:	00000000 	nop
80101338:	801f023c 	lui	v0,0x1f80
8010133c:	3801438c 	lw	v1,312(v0)
80101340:	01000224 	li	v0,1
80101344:	961d0408 	j	0x80107658
80101348:	4e0062a4 	sh	v0,78(v1)
8010134c:	0c80023c 	lui	v0,0x800c
80101350:	70f85024 	addiu	s0,v0,-1936
80101354:	70f84390 	lbu	v1,-1936(v0)
80101358:	07000224 	li	v0,7
8010135c:	04006214 	bne	v1,v0,0x80101370
80101360:	801f023c 	lui	v0,0x1f80
80101364:	2f4a040c 	jal	0x801128bc
80101368:	00000000 	nop
8010136c:	801f023c 	lui	v0,0x1f80
80101370:	801f053c 	lui	a1,0x1f80
80101374:	01000324 	li	v1,1
80101378:	3801448c 	lw	a0,312(v0)
8010137c:	7c01a294 	lhu	v0,380(a1)
80101380:	801f113c 	lui	s1,0x1f80
80101384:	01004224 	addiu	v0,v0,1
80101388:	4e0083a4 	sh	v1,78(a0)
8010138c:	7c01a2a4 	sh	v0,380(a1)
80101390:	0800028e 	lw	v0,8(s0)
80101394:	36012392 	lbu	v1,310(s1)
80101398:	01004224 	addiu	v0,v0,1
8010139c:	17006014 	bnez	v1,0x801013fc
801013a0:	080002ae 	sw	v0,8(s0)
801013a4:	4a67010c 	jal	0x80059d28
801013a8:	00000000 	nop
801013ac:	caa6010c 	jal	0x80069b28
801013b0:	00000000 	nop
801013b4:	da98000c 	jal	0x80026368
801013b8:	00000000 	nop
801013bc:	41ea010c 	jal	0x8007a904
801013c0:	00000000 	nop
801013c4:	6295000c 	jal	0x80025588
801013c8:	00000000 	nop
801013cc:	a13f010c 	jal	0x8004fe84
801013d0:	00000000 	nop
801013d4:	229b000c 	jal	0x80026c88
801013d8:	00000000 	nop
801013dc:	a08a000c 	jal	0x80022a80
801013e0:	00000000 	nop
801013e4:	11bb010c 	jal	0x8006ec44
801013e8:	00000000 	nop
801013ec:	7943010c 	jal	0x80050de4
801013f0:	00000000 	nop
801013f4:	b072000c 	jal	0x8001cac0
801013f8:	00000000 	nop
801013fc:	36012292 	lbu	v0,310(s1)
80101400:	00000000 	nop
80101404:	0200422c 	sltiu	v0,v0,2
80101408:	03004010 	beqz	v0,0x80101418
8010140c:	00000000 	nop
80101410:	6afe000c 	jal	0x8003f9a8
80101414:	00000000 	nop
80101418:	4320040c 	jal	0x8010810c
8010141c:	00000000 	nop
80101420:	63df010c 	jal	0x80077d8c
80101424:	00000000 	nop
80101428:	a0d6010c 	jal	0x80075a80
8010142c:	00000000 	nop
80101430:	1800bf8f 	lw	ra,24(sp)
80101434:	1400b18f 	lw	s1,20(sp)
80101438:	1000b08f 	lw	s0,16(sp)
8010143c:	0800e003 	jr	ra
80101440:	2000bd27 	addiu	sp,sp,32
80101444:	e8ffbd27 	addiu	sp,sp,-24
80101448:	1000b0af 	sw	s0,16(sp)
8010144c:	801f103c 	lui	s0,0x1f80
80101450:	3801038e 	lw	v1,312(s0)
80101454:	1400bfaf 	sw	ra,20(sp)
80101458:	4e006294 	lhu	v0,78(v1)
8010145c:	00000000 	nop
80101460:	14004014 	bnez	v0,0x801014b4
80101464:	01004224 	addiu	v0,v0,1
80101468:	4e0062a4 	sh	v0,78(v1)
8010146c:	63ec010c 	jal	0x8007b18c
80101470:	6b0060a0 	sb	zero,107(v1)
80101474:	b7e5010c 	jal	0x800796dc
80101478:	00000000 	nop
8010147c:	fa98000c 	jal	0x800263e8
80101480:	00000000 	nop
80101484:	90d4010c 	jal	0x80075240
80101488:	00000000 	nop
8010148c:	f7e0010c 	jal	0x800783dc
80101490:	00000000 	nop
80101494:	84e1010c 	jal	0x80078610
80101498:	00000000 	nop
8010149c:	0c80023c 	lui	v0,0x800c
801014a0:	70f84490 	lbu	a0,-1936(v0)
801014a4:	c9d3010c 	jal	0x80074f24
801014a8:	00000000 	nop
801014ac:	e01d0408 	j	0x80107780
801014b0:	00000000 	nop
801014b4:	2b23040c 	jal	0x80108cac
801014b8:	00000000 	nop
801014bc:	0c80023c 	lui	v0,0x800c
801014c0:	08f84424 	addiu	a0,v0,-2040
801014c4:	05008280 	lb	v0,5(a0)
801014c8:	03000324 	li	v1,3
801014cc:	10004314 	bne	v0,v1,0x80101510
801014d0:	00000000 	nop
801014d4:	07008290 	lbu	v0,7(a0)
801014d8:	00000000 	nop
801014dc:	1e004014 	bnez	v0,0x80101558
801014e0:	0e80023c 	lui	v0,0x800e
801014e4:	ee7f4384 	lh	v1,32750(v0)
801014e8:	ee7f4494 	lhu	a0,32750(v0)
801014ec:	05006010 	beqz	v1,0x80101504
801014f0:	0c80023c 	lui	v0,0x800c
801014f4:	01000324 	li	v1,1
801014f8:	80f843a0 	sb	v1,-1920(v0)
801014fc:	801f023c 	lui	v0,0x1f80
80101500:	940144a4 	sh	a0,404(v0)
80101504:	3801028e 	lw	v0,312(s0)
80101508:	e01d0408 	j	0x80107780
8010150c:	4e0040a4 	sh	zero,78(v0)
80101510:	31008290 	lbu	v0,49(a0)
80101514:	00000000 	nop
80101518:	0f004314 	bne	v0,v1,0x80101558
8010151c:	00000000 	nop
80101520:	07008290 	lbu	v0,7(a0)
80101524:	00000000 	nop
80101528:	0b004014 	bnez	v0,0x80101558
8010152c:	02000324 	li	v1,2
80101530:	801f023c 	lui	v0,0x1f80
80101534:	310083a0 	sb	v1,49(a0)
80101538:	360243a0 	sb	v1,566(v0)
8010153c:	3801038e 	lw	v1,312(s0)
80101540:	01000224 	li	v0,1
80101544:	4a0062a4 	sh	v0,74(v1)
80101548:	02000224 	li	v0,2
8010154c:	4c0062a4 	sh	v0,76(v1)
80101550:	06000224 	li	v0,6
80101554:	4e0062a4 	sh	v0,78(v1)
80101558:	1400bf8f 	lw	ra,20(sp)
8010155c:	1000b08f 	lw	s0,16(sp)
80101560:	0800e003 	jr	ra
80101564:	1800bd27 	addiu	sp,sp,24
80101568:	e0ffbd27 	addiu	sp,sp,-32
8010156c:	1800b2af 	sw	s2,24(sp)
80101570:	801f123c 	lui	s2,0x1f80
80101574:	3801428e 	lw	v0,312(s2)
80101578:	1c00bfaf 	sw	ra,28(sp)
8010157c:	1400b1af 	sw	s1,20(sp)
80101580:	1000b0af 	sw	s0,16(sp)
80101584:	4e004294 	lhu	v0,78(v0)
80101588:	00000000 	nop
8010158c:	1f004014 	bnez	v0,0x8010160c
80101590:	801f033c 	lui	v1,0x1f80
80101594:	0c80103c 	lui	s0,0x800c
80101598:	70f80392 	lbu	v1,-1936(s0)
8010159c:	05000224 	li	v0,5
801015a0:	03006214 	bne	v1,v0,0x801015b0
801015a4:	70f80426 	addiu	a0,s0,-1936
801015a8:	03000224 	li	v0,3
801015ac:	010082a0 	sb	v0,1(a0)
801015b0:	63ec010c 	jal	0x8007b18c
801015b4:	00000000 	nop
801015b8:	b7e5010c 	jal	0x800796dc
801015bc:	00000000 	nop
801015c0:	fa98000c 	jal	0x800263e8
801015c4:	00000000 	nop
801015c8:	9eca010c 	jal	0x80072a78
801015cc:	00000000 	nop
801015d0:	90d4010c 	jal	0x80075240
801015d4:	00000000 	nop
801015d8:	f7e0010c 	jal	0x800783dc
801015dc:	00000000 	nop
801015e0:	84e1010c 	jal	0x80078610
801015e4:	00000000 	nop
801015e8:	3801438e 	lw	v1,312(s2)
801015ec:	01000224 	li	v0,1
801015f0:	4e0062a4 	sh	v0,78(v1)
801015f4:	6b0060a0 	sb	zero,107(v1)
801015f8:	70f80492 	lbu	a0,-1936(s0)
801015fc:	09d4010c 	jal	0x80075024
80101600:	00000000 	nop
80101604:	651e0408 	j	0x80107994
80101608:	00000000 	nop
8010160c:	7c016294 	lhu	v0,380(v1)
80101610:	801f113c 	lui	s1,0x1f80
80101614:	01004224 	addiu	v0,v0,1
80101618:	7c0162a4 	sh	v0,380(v1)
8010161c:	0c80023c 	lui	v0,0x800c
80101620:	70f85024 	addiu	s0,v0,-1936
80101624:	0800028e 	lw	v0,8(s0)
80101628:	36012392 	lbu	v1,310(s1)
8010162c:	01004224 	addiu	v0,v0,1
80101630:	17006014 	bnez	v1,0x80101690
80101634:	080002ae 	sw	v0,8(s0)
80101638:	4a67010c 	jal	0x80059d28
8010163c:	00000000 	nop
80101640:	caa6010c 	jal	0x80069b28
80101644:	00000000 	nop
80101648:	da98000c 	jal	0x80026368
8010164c:	00000000 	nop
80101650:	41ea010c 	jal	0x8007a904
80101654:	00000000 	nop
80101658:	6295000c 	jal	0x80025588
8010165c:	00000000 	nop
80101660:	a13f010c 	jal	0x8004fe84
80101664:	00000000 	nop
80101668:	229b000c 	jal	0x80026c88
8010166c:	00000000 	nop
80101670:	a08a000c 	jal	0x80022a80
80101674:	00000000 	nop
80101678:	11bb010c 	jal	0x8006ec44
8010167c:	00000000 	nop
80101680:	7943010c 	jal	0x80050de4
80101684:	00000000 	nop
80101688:	b072000c 	jal	0x8001cac0
8010168c:	00000000 	nop
80101690:	36012292 	lbu	v0,310(s1)
80101694:	00000000 	nop
80101698:	0200422c 	sltiu	v0,v0,2
8010169c:	03004010 	beqz	v0,0x801016ac
801016a0:	00000000 	nop
801016a4:	6afe000c 	jal	0x8003f9a8
801016a8:	00000000 	nop
801016ac:	4320040c 	jal	0x8010810c
801016b0:	00000000 	nop
801016b4:	63df010c 	jal	0x80077d8c
801016b8:	00000000 	nop
801016bc:	a0d6010c 	jal	0x80075a80
801016c0:	00000000 	nop
801016c4:	0c80023c 	lui	v0,0x800c
801016c8:	08f84324 	addiu	v1,v0,-2040
801016cc:	05006280 	lb	v0,5(v1)
801016d0:	03000424 	li	a0,3
801016d4:	0f004414 	bne	v0,a0,0x80101714
801016d8:	00000000 	nop
801016dc:	07006290 	lbu	v0,7(v1)
801016e0:	00000000 	nop
801016e4:	21004014 	bnez	v0,0x8010176c
801016e8:	0e80023c 	lui	v0,0x800e
801016ec:	ee7f4384 	lh	v1,32750(v0)
801016f0:	ee7f4494 	lhu	a0,32750(v0)
801016f4:	04006010 	beqz	v1,0x80101708
801016f8:	01000224 	li	v0,1
801016fc:	100002a2 	sb	v0,16(s0)
80101700:	801f023c 	lui	v0,0x1f80
80101704:	940144a4 	sh	a0,404(v0)
80101708:	3801428e 	lw	v0,312(s2)
8010170c:	651e0408 	j	0x80107994
80101710:	4e0040a4 	sh	zero,78(v0)
80101714:	31006290 	lbu	v0,49(v1)
80101718:	00000000 	nop
8010171c:	13004414 	bne	v0,a0,0x8010176c
80101720:	00000000 	nop
80101724:	07006290 	lbu	v0,7(v1)
80101728:	00000000 	nop
8010172c:	0f004014 	bnez	v0,0x8010176c
80101730:	801f023c 	lui	v0,0x1f80
80101734:	36024290 	lbu	v0,566(v0)
80101738:	00000000 	nop
8010173c:	0500422c 	sltiu	v0,v0,5
80101740:	03004014 	bnez	v0,0x80101750
80101744:	00000000 	nop
80101748:	2542010c 	jal	0x80050894
8010174c:	21200000 	move	a0,zero
80101750:	3801438e 	lw	v1,312(s2)
80101754:	01000224 	li	v0,1
80101758:	4a0062a4 	sh	v0,74(v1)
8010175c:	02000224 	li	v0,2
80101760:	4c0062a4 	sh	v0,76(v1)
80101764:	06000224 	li	v0,6
80101768:	4e0062a4 	sh	v0,78(v1)
8010176c:	1c00bf8f 	lw	ra,28(sp)
80101770:	1800b28f 	lw	s2,24(sp)
80101774:	1400b18f 	lw	s1,20(sp)
80101778:	1000b08f 	lw	s0,16(sp)
8010177c:	0800e003 	jr	ra
80101780:	2000bd27 	addiu	sp,sp,32
80101784:	e0ffbd27 	addiu	sp,sp,-32
80101788:	0e80043c 	lui	a0,0x800e
8010178c:	1000b0af 	sw	s0,16(sp)
80101790:	807e9024 	addiu	s0,a0,32384
80101794:	0f80023c 	lui	v0,0x800f
80101798:	1400b1af 	sw	s1,20(sp)
8010179c:	08805124 	addiu	s1,v0,-32760
801017a0:	801f023c 	lui	v0,0x1f80
801017a4:	36024390 	lbu	v1,566(v0)
801017a8:	02000224 	li	v0,2
801017ac:	03006214 	bne	v1,v0,0x801017bc
801017b0:	1800bfaf 	sw	ra,24(sp)
801017b4:	7b1e0408 	j	0x801079ec
801017b8:	807e80a0 	sb	zero,32384(a0)
801017bc:	03000224 	li	v0,3
801017c0:	807e82a0 	sb	v0,32384(a0)
801017c4:	e8030224 	li	v0,1000
801017c8:	2e0002a6 	sh	v0,46(s0)
801017cc:	18fc0224 	li	v0,-1000
801017d0:	320002a6 	sh	v0,50(s0)
801017d4:	b80b0224 	li	v0,3000
801017d8:	360002a6 	sh	v0,54(s0)
801017dc:	801f023c 	lui	v0,0x1f80
801017e0:	36024390 	lbu	v1,566(v0)
801017e4:	000c0224 	li	v0,3072
801017e8:	560002a6 	sh	v0,86(s0)
801017ec:	0300622c 	sltiu	v0,v1,3
801017f0:	16004010 	beqz	v0,0x8010184c
801017f4:	21202002 	move	a0,s1
801017f8:	1180053c 	lui	a1,0x8011
801017fc:	f4b2010c 	jal	0x8006cbd0
80101800:	788fa524 	addiu	a1,a1,-28808
80101804:	21202002 	move	a0,s1
80101808:	ecb8010c 	jal	0x8006e3b0
8010180c:	38008524 	addiu	a1,a0,56
80101810:	19000424 	li	a0,25
80101814:	3dc4000c 	jal	0x800310f4
80101818:	21280000 	move	a1,zero
8010181c:	2e000396 	lhu	v1,46(s0)
80101820:	21204000 	move	a0,v0
80101824:	2c0083a4 	sh	v1,44(a0)
80101828:	32000296 	lhu	v0,50(s0)
8010182c:	00000000 	nop
80101830:	82004224 	addiu	v0,v0,130
80101834:	2e0082a4 	sh	v0,46(a0)
80101838:	36000296 	lhu	v0,54(s0)
8010183c:	00000000 	nop
80101840:	94114224 	addiu	v0,v0,4500
80101844:	b81e0408 	j	0x80107ae0
80101848:	300082a4 	sh	v0,48(a0)
8010184c:	03000224 	li	v0,3
80101850:	05006214 	bne	v1,v0,0x80101868
80101854:	00000000 	nop
80101858:	21202002 	move	a0,s1
8010185c:	1180053c 	lui	a1,0x8011
80101860:	a71e0408 	j	0x80107a9c
80101864:	848fa524 	addiu	a1,a1,-28796
80101868:	21202002 	move	a0,s1
8010186c:	1180053c 	lui	a1,0x8011
80101870:	908fa524 	addiu	a1,a1,-28784
80101874:	f4b2010c 	jal	0x8006cbd0
80101878:	00000000 	nop
8010187c:	23000424 	li	a0,35
80101880:	3dc4000c 	jal	0x800310f4
80101884:	21280000 	move	a1,zero
80101888:	2e000396 	lhu	v1,46(s0)
8010188c:	21204000 	move	a0,v0
80101890:	2c0083a4 	sh	v1,44(a0)
80101894:	32000296 	lhu	v0,50(s0)
80101898:	00000000 	nop
8010189c:	2e0082a4 	sh	v0,46(a0)
801018a0:	36000296 	lhu	v0,54(s0)
801018a4:	00000000 	nop
801018a8:	300082a4 	sh	v0,48(a0)
801018ac:	000c0224 	li	v0,3072
801018b0:	cebb010c 	jal	0x8006ef38
801018b4:	700022a6 	sh	v0,112(s1)
801018b8:	fed2010c 	jal	0x80074bf8
801018bc:	08000424 	li	a0,8
801018c0:	1800bf8f 	lw	ra,24(sp)
801018c4:	1400b18f 	lw	s1,20(sp)
801018c8:	1000b08f 	lw	s0,16(sp)
801018cc:	0800e003 	jr	ra
801018d0:	2000bd27 	addiu	sp,sp,32
801018d4:	801f023c 	lui	v0,0x1f80
801018d8:	3801428c 	lw	v0,312(v0)
801018dc:	e8ffbd27 	addiu	sp,sp,-24
801018e0:	1400bfaf 	sw	ra,20(sp)
801018e4:	1000b0af 	sw	s0,16(sp)
801018e8:	4e004394 	lhu	v1,78(v0)
801018ec:	00000000 	nop
801018f0:	0500622c 	sltiu	v0,v1,5
801018f4:	83004010 	beqz	v0,0x80101b04
801018f8:	1080023c 	lui	v0,0x8010
801018fc:	b4624224 	addiu	v0,v0,25268
80101900:	80180300 	sll	v1,v1,0x2
80101904:	21186200 	addu	v1,v1,v0
80101908:	0000628c 	lw	v0,0(v1)
8010190c:	00000000 	nop
80101910:	08004000 	jr	v0
80101914:	00000000 	nop
80101918:	801f033c 	lui	v1,0x1f80
8010191c:	01000224 	li	v0,1
80101920:	04ea010c 	jal	0x8007a810
80101924:	340262a0 	sb	v0,564(v1)
80101928:	3ee6010c 	jal	0x800798f8
8010192c:	00000000 	nop
80101930:	3cec010c 	jal	0x8007b0f0
80101934:	00000000 	nop
80101938:	6b1e040c 	jal	0x801079ac
8010193c:	00000000 	nop
80101940:	ff00043c 	lui	a0,0xff
80101944:	ffff8434 	ori	a0,a0,0xffff
80101948:	21280000 	move	a1,zero
8010194c:	801f023c 	lui	v0,0x1f80
80101950:	3801478c 	lw	a3,312(v0)
80101954:	04000624 	li	a2,4
80101958:	4e00e294 	lhu	v0,78(a3)
8010195c:	1f000324 	li	v1,31
80101960:	6b00e3a0 	sb	v1,107(a3)
80101964:	01004224 	addiu	v0,v0,1
80101968:	72fa010c 	jal	0x8007e9c8
8010196c:	4e00e2a4 	sh	v0,78(a3)
80101970:	0480043c 	lui	a0,0x8004
80101974:	c0528424 	addiu	a0,a0,21184
80101978:	21300000 	move	a2,zero
8010197c:	0c80023c 	lui	v0,0x800c
80101980:	70f84590 	lbu	a1,-1936(v0)
80101984:	f512010c 	jal	0x80044bd4
80101988:	01000724 	li	a3,1
8010198c:	4b1f0408 	j	0x80107d2c
80101990:	00000000 	nop
80101994:	801f103c 	lui	s0,0x1f80
80101998:	3801028e 	lw	v0,312(s0)
8010199c:	21280000 	move	a1,zero
801019a0:	6b004490 	lbu	a0,107(v0)
801019a4:	04000624 	li	a2,4
801019a8:	c0200400 	sll	a0,a0,0x3
801019ac:	ff008430 	andi	a0,a0,0xff
801019b0:	00140400 	sll	v0,a0,0x10
801019b4:	001a0400 	sll	v1,a0,0x8
801019b8:	25104300 	or	v0,v0,v1
801019bc:	72fa010c 	jal	0x8007e9c8
801019c0:	25204400 	or	a0,v0,a0
801019c4:	3801038e 	lw	v1,312(s0)
801019c8:	00000000 	nop
801019cc:	6b006290 	lbu	v0,107(v1)
801019d0:	00000000 	nop
801019d4:	ffff4224 	addiu	v0,v0,-1
801019d8:	6b0062a0 	sb	v0,107(v1)
801019dc:	3801038e 	lw	v1,312(s0)
801019e0:	00000000 	nop
801019e4:	6b006290 	lbu	v0,107(v1)
801019e8:	00000000 	nop
801019ec:	31004014 	bnez	v0,0x80101ab4
801019f0:	00000000 	nop
801019f4:	4e006294 	lhu	v0,78(v1)
801019f8:	00000000 	nop
801019fc:	01004224 	addiu	v0,v0,1
80101a00:	371f0408 	j	0x80107cdc
80101a04:	4e0062a4 	sh	v0,78(v1)
80101a08:	801f023c 	lui	v0,0x1f80
80101a0c:	9b014290 	lbu	v0,411(v0)
80101a10:	00000000 	nop
80101a14:	27004010 	beqz	v0,0x80101ab4
80101a18:	801f023c 	lui	v0,0x1f80
80101a1c:	3801448c 	lw	a0,312(v0)
80101a20:	00000000 	nop
80101a24:	4e008294 	lhu	v0,78(a0)
80101a28:	1f000324 	li	v1,31
80101a2c:	6b0083a0 	sb	v1,107(a0)
80101a30:	01004224 	addiu	v0,v0,1
80101a34:	371f0408 	j	0x80107cdc
80101a38:	4e0082a4 	sh	v0,78(a0)
80101a3c:	801f103c 	lui	s0,0x1f80
80101a40:	3801028e 	lw	v0,312(s0)
80101a44:	01000524 	li	a1,1
80101a48:	6b004490 	lbu	a0,107(v0)
80101a4c:	04000624 	li	a2,4
80101a50:	c0200400 	sll	a0,a0,0x3
80101a54:	23200400 	negu	a0,a0
80101a58:	ff008430 	andi	a0,a0,0xff
80101a5c:	00140400 	sll	v0,a0,0x10
80101a60:	001a0400 	sll	v1,a0,0x8
80101a64:	25104300 	or	v0,v0,v1
80101a68:	72fa010c 	jal	0x8007e9c8
80101a6c:	25204400 	or	a0,v0,a0
80101a70:	3801038e 	lw	v1,312(s0)
80101a74:	00000000 	nop
80101a78:	6b006290 	lbu	v0,107(v1)
80101a7c:	00000000 	nop
80101a80:	ffff4224 	addiu	v0,v0,-1
80101a84:	6b0062a0 	sb	v0,107(v1)
80101a88:	3801038e 	lw	v1,312(s0)
80101a8c:	00000000 	nop
80101a90:	6b006290 	lbu	v0,107(v1)
80101a94:	00000000 	nop
80101a98:	06004014 	bnez	v0,0x80101ab4
80101a9c:	21200000 	move	a0,zero
80101aa0:	4e006294 	lhu	v0,78(v1)
80101aa4:	00000000 	nop
80101aa8:	01004224 	addiu	v0,v0,1
80101aac:	2542010c 	jal	0x80050894
80101ab0:	4e0062a4 	sh	v0,78(v1)
80101ab4:	1867010c 	jal	0x80059c60
80101ab8:	00000000 	nop
80101abc:	cebb010c 	jal	0x8006ef38
80101ac0:	00000000 	nop
80101ac4:	02ec010c 	jal	0x8007b008
80101ac8:	00000000 	nop
80101acc:	87fe000c 	jal	0x8003fa1c
80101ad0:	00000000 	nop
80101ad4:	4b1f0408 	j	0x80107d2c
80101ad8:	00000000 	nop
80101adc:	92d3010c 	jal	0x80074e48
80101ae0:	00000000 	nop
80101ae4:	801f023c 	lui	v0,0x1f80
80101ae8:	3801438c 	lw	v1,312(v0)
80101aec:	02000224 	li	v0,2
80101af0:	480062a4 	sh	v0,72(v1)
80101af4:	01000224 	li	v0,1
80101af8:	4a0062a4 	sh	v0,74(v1)
80101afc:	4c0062a4 	sh	v0,76(v1)
80101b00:	4e0060a4 	sh	zero,78(v1)
80101b04:	1400bf8f 	lw	ra,20(sp)
80101b08:	1000b08f 	lw	s0,16(sp)
80101b0c:	0800e003 	jr	ra
80101b10:	1800bd27 	addiu	sp,sp,24
80101b14:	e8ffbd27 	addiu	sp,sp,-24
80101b18:	1000b0af 	sw	s0,16(sp)
80101b1c:	801f103c 	lui	s0,0x1f80
80101b20:	3801048e 	lw	a0,312(s0)
80101b24:	1400bfaf 	sw	ra,20(sp)
80101b28:	4e008394 	lhu	v1,78(a0)
80101b2c:	01000524 	li	a1,1
80101b30:	19006510 	beq	v1,a1,0x80101b98
80101b34:	02006228 	slti	v0,v1,2
80101b38:	05004010 	beqz	v0,0x80101b50
80101b3c:	00000000 	nop
80101b40:	08006010 	beqz	v1,0x80101b64
80101b44:	801f033c 	lui	v1,0x1f80
80101b48:	841f0408 	j	0x80107e10
80101b4c:	00000000 	nop
80101b50:	02000224 	li	v0,2
80101b54:	19006210 	beq	v1,v0,0x80101bbc
80101b58:	801f023c 	lui	v0,0x1f80
80101b5c:	841f0408 	j	0x80107e10
80101b60:	00000000 	nop
80101b64:	21300000 	move	a2,zero
80101b68:	4e008294 	lhu	v0,78(a0)
80101b6c:	01000724 	li	a3,1
80101b70:	340265a0 	sb	a1,564(v1)
80101b74:	01004224 	addiu	v0,v0,1
80101b78:	4e0082a4 	sh	v0,78(a0)
80101b7c:	0480043c 	lui	a0,0x8004
80101b80:	0c80023c 	lui	v0,0x800c
80101b84:	70f84590 	lbu	a1,-1936(v0)
80101b88:	f512010c 	jal	0x80044bd4
80101b8c:	c0528424 	addiu	a0,a0,21184
80101b90:	841f0408 	j	0x80107e10
80101b94:	00000000 	nop
80101b98:	e1fe000c 	jal	0x8003fb84
80101b9c:	00000000 	nop
80101ba0:	3801038e 	lw	v1,312(s0)
80101ba4:	00000000 	nop
80101ba8:	4e006294 	lhu	v0,78(v1)
80101bac:	00000000 	nop
80101bb0:	01004224 	addiu	v0,v0,1
80101bb4:	841f0408 	j	0x80107e10
80101bb8:	4e0062a4 	sh	v0,78(v1)
80101bbc:	9b014290 	lbu	v0,411(v0)
80101bc0:	00000000 	nop
80101bc4:	06004010 	beqz	v0,0x80101be0
80101bc8:	00000000 	nop
80101bcc:	480083a4 	sh	v1,72(a0)
80101bd0:	4a0085a4 	sh	a1,74(a0)
80101bd4:	4c0085a4 	sh	a1,76(a0)
80101bd8:	841f0408 	j	0x80107e10
80101bdc:	4e0080a4 	sh	zero,78(a0)
80101be0:	a2fa000c 	jal	0x8003ea88
80101be4:	00000000 	nop
80101be8:	1400bf8f 	lw	ra,20(sp)
80101bec:	1000b08f 	lw	s0,16(sp)
80101bf0:	0800e003 	jr	ra
80101bf4:	1800bd27 	addiu	sp,sp,24
80101bf8:	e0ffbd27 	addiu	sp,sp,-32
80101bfc:	1400b1af 	sw	s1,20(sp)
80101c00:	801f113c 	lui	s1,0x1f80
80101c04:	3801228e 	lw	v0,312(s1)
80101c08:	1c00bfaf 	sw	ra,28(sp)
80101c0c:	1800b2af 	sw	s2,24(sp)
80101c10:	1000b0af 	sw	s0,16(sp)
80101c14:	4e005094 	lhu	s0,78(v0)
80101c18:	01001224 	li	s2,1
80101c1c:	1f001212 	beq	s0,s2,0x80101c9c
80101c20:	0200022a 	slti	v0,s0,2
80101c24:	05004010 	beqz	v0,0x80101c3c
80101c28:	00000000 	nop
80101c2c:	08000012 	beqz	s0,0x80101c50
80101c30:	00000000 	nop
80101c34:	c91f0408 	j	0x80107f24
80101c38:	00000000 	nop
80101c3c:	02000224 	li	v0,2
80101c40:	1f000212 	beq	s0,v0,0x80101cc0
80101c44:	00000000 	nop
80101c48:	c91f0408 	j	0x80107f24
80101c4c:	00000000 	nop
80101c50:	fed2010c 	jal	0x80074bf8
80101c54:	09000424 	li	a0,9
80101c58:	99f8000c 	jal	0x8003e264
80101c5c:	00000000 	nop
80101c60:	0480043c 	lui	a0,0x8004
80101c64:	c0528424 	addiu	a0,a0,21184
80101c68:	3801258e 	lw	a1,312(s1)
80101c6c:	801f033c 	lui	v1,0x1f80
80101c70:	4e00a294 	lhu	v0,78(a1)
80101c74:	21300000 	move	a2,zero
80101c78:	01004224 	addiu	v0,v0,1
80101c7c:	4e00a2a4 	sh	v0,78(a1)
80101c80:	0c80023c 	lui	v0,0x800c
80101c84:	70f84590 	lbu	a1,-1936(v0)
80101c88:	01000724 	li	a3,1
80101c8c:	f512010c 	jal	0x80044bd4
80101c90:	340272a0 	sb	s2,564(v1)
80101c94:	c91f0408 	j	0x80107f24
80101c98:	00000000 	nop
80101c9c:	99f8000c 	jal	0x8003e264
80101ca0:	00000000 	nop
80101ca4:	3801238e 	lw	v1,312(s1)
80101ca8:	00000000 	nop
80101cac:	4e006294 	lhu	v0,78(v1)
80101cb0:	00000000 	nop
80101cb4:	01004224 	addiu	v0,v0,1
80101cb8:	c91f0408 	j	0x80107f24
80101cbc:	4e0062a4 	sh	v0,78(v1)
80101cc0:	25fa000c 	jal	0x8003e894
80101cc4:	00000000 	nop
80101cc8:	801f023c 	lui	v0,0x1f80
80101ccc:	9b014290 	lbu	v0,411(v0)
80101cd0:	00000000 	nop
80101cd4:	09004010 	beqz	v0,0x80101cfc
80101cd8:	00000000 	nop
80101cdc:	92d3010c 	jal	0x80074e48
80101ce0:	00000000 	nop
80101ce4:	3801228e 	lw	v0,312(s1)
80101ce8:	00000000 	nop
80101cec:	480050a4 	sh	s0,72(v0)
80101cf0:	4a0052a4 	sh	s2,74(v0)
80101cf4:	4c0052a4 	sh	s2,76(v0)
80101cf8:	4e0040a4 	sh	zero,78(v0)
80101cfc:	1c00bf8f 	lw	ra,28(sp)
80101d00:	1800b28f 	lw	s2,24(sp)
80101d04:	1400b18f 	lw	s1,20(sp)
80101d08:	1000b08f 	lw	s0,16(sp)
80101d0c:	0800e003 	jr	ra
80101d10:	2000bd27 	addiu	sp,sp,32
80101d14:	801f023c 	lui	v0,0x1f80
80101d18:	3801428c 	lw	v0,312(v0)
80101d1c:	e8ffbd27 	addiu	sp,sp,-24
80101d20:	1000bfaf 	sw	ra,16(sp)
80101d24:	4e004394 	lhu	v1,78(v0)
80101d28:	00000000 	nop
80101d2c:	0700622c 	sltiu	v0,v1,7
80101d30:	68004010 	beqz	v0,0x80101ed4
80101d34:	1080023c 	lui	v0,0x8010
80101d38:	cc624224 	addiu	v0,v0,25292
80101d3c:	80180300 	sll	v1,v1,0x2
80101d40:	21186200 	addu	v1,v1,v0
80101d44:	0000628c 	lw	v0,0(v1)
80101d48:	00000000 	nop
80101d4c:	08004000 	jr	v0
80101d50:	00000000 	nop
80101d54:	fed2010c 	jal	0x80074bf8
80101d58:	09000424 	li	a0,9
80101d5c:	99f8000c 	jal	0x8003e264
80101d60:	00000000 	nop
80101d64:	0480043c 	lui	a0,0x8004
80101d68:	584f8424 	addiu	a0,a0,20312
80101d6c:	21300000 	move	a2,zero
80101d70:	01000724 	li	a3,1
80101d74:	801f033c 	lui	v1,0x1f80
80101d78:	2110e000 	move	v0,a3
80101d7c:	340262a0 	sb	v0,564(v1)
80101d80:	801f033c 	lui	v1,0x1f80
80101d84:	801f023c 	lui	v0,0x1f80
80101d88:	40024584 	lh	a1,576(v0)
80101d8c:	3801638c 	lw	v1,312(v1)
80101d90:	1a00a524 	addiu	a1,a1,26
80101d94:	4e006294 	lhu	v0,78(v1)
80101d98:	ff00a530 	andi	a1,a1,0xff
80101d9c:	21104700 	addu	v0,v0,a3
80101da0:	f512010c 	jal	0x80044bd4
80101da4:	4e0062a4 	sh	v0,78(v1)
80101da8:	3f200408 	j	0x801080fc
80101dac:	00000000 	nop
80101db0:	25fa000c 	jal	0x8003e894
80101db4:	00000000 	nop
80101db8:	801f023c 	lui	v0,0x1f80
80101dbc:	9b014290 	lbu	v0,411(v0)
80101dc0:	00000000 	nop
80101dc4:	43004010 	beqz	v0,0x80101ed4
80101dc8:	801f023c 	lui	v0,0x1f80
80101dcc:	3801438c 	lw	v1,312(v0)
80101dd0:	00000000 	nop
80101dd4:	4e006294 	lhu	v0,78(v1)
80101dd8:	00000000 	nop
80101ddc:	01004224 	addiu	v0,v0,1
80101de0:	92d3010c 	jal	0x80074e48
80101de4:	4e0062a4 	sh	v0,78(v1)
80101de8:	c775000c 	jal	0x8001d71c
80101dec:	09000424 	li	a0,9
80101df0:	e5fe000c 	jal	0x8003fb94
80101df4:	00000000 	nop
80101df8:	3f200408 	j	0x801080fc
80101dfc:	00000000 	nop
80101e00:	f8fa000c 	jal	0x8003ebe0
80101e04:	00000000 	nop
80101e08:	32004010 	beqz	v0,0x80101ed4
80101e0c:	00000000 	nop
80101e10:	cb73000c 	jal	0x8001cf2c
80101e14:	00000000 	nop
80101e18:	27200408 	j	0x8010809c
80101e1c:	801f023c 	lui	v0,0x1f80
80101e20:	fed2010c 	jal	0x80074bf8
80101e24:	08000424 	li	a0,8
80101e28:	99f8000c 	jal	0x8003e264
80101e2c:	00000000 	nop
80101e30:	801f023c 	lui	v0,0x1f80
80101e34:	0480043c 	lui	a0,0x8004
80101e38:	3801438c 	lw	v1,312(v0)
80101e3c:	c0528424 	addiu	a0,a0,21184
80101e40:	4e006294 	lhu	v0,78(v1)
80101e44:	21300000 	move	a2,zero
80101e48:	01004224 	addiu	v0,v0,1
80101e4c:	4e0062a4 	sh	v0,78(v1)
80101e50:	0c80023c 	lui	v0,0x800c
80101e54:	70f84590 	lbu	a1,-1936(v0)
80101e58:	f512010c 	jal	0x80044bd4
80101e5c:	01000724 	li	a3,1
80101e60:	3f200408 	j	0x801080fc
80101e64:	00000000 	nop
80101e68:	99f8000c 	jal	0x8003e264
80101e6c:	00000000 	nop
80101e70:	801f023c 	lui	v0,0x1f80
80101e74:	3801438c 	lw	v1,312(v0)
80101e78:	00000000 	nop
80101e7c:	4e006294 	lhu	v0,78(v1)
80101e80:	00000000 	nop
80101e84:	01004224 	addiu	v0,v0,1
80101e88:	3f200408 	j	0x801080fc
80101e8c:	4e0062a4 	sh	v0,78(v1)
80101e90:	25fa000c 	jal	0x8003e894
80101e94:	00000000 	nop
80101e98:	801f023c 	lui	v0,0x1f80
80101e9c:	9b014290 	lbu	v0,411(v0)
80101ea0:	00000000 	nop
80101ea4:	0b004010 	beqz	v0,0x80101ed4
80101ea8:	00000000 	nop
80101eac:	92d3010c 	jal	0x80074e48
80101eb0:	00000000 	nop
80101eb4:	801f023c 	lui	v0,0x1f80
80101eb8:	3801438c 	lw	v1,312(v0)
80101ebc:	02000224 	li	v0,2
80101ec0:	480062a4 	sh	v0,72(v1)
80101ec4:	01000224 	li	v0,1
80101ec8:	4a0062a4 	sh	v0,74(v1)
80101ecc:	4c0062a4 	sh	v0,76(v1)
80101ed0:	4e0060a4 	sh	zero,78(v1)
80101ed4:	1000bf8f 	lw	ra,16(sp)
80101ed8:	00000000 	nop
80101edc:	0800e003 	jr	ra
80101ee0:	1800bd27 	addiu	sp,sp,24
80101ee4:	801f023c 	lui	v0,0x1f80
80101ee8:	3801428c 	lw	v0,312(v0)
80101eec:	e0ffbd27 	addiu	sp,sp,-32
80101ef0:	1800bfaf 	sw	ra,24(sp)
80101ef4:	1400b1af 	sw	s1,20(sp)
80101ef8:	1000b0af 	sw	s0,16(sp)
80101efc:	6b004390 	lbu	v1,107(v0)
80101f00:	00000000 	nop
80101f04:	0c00622c 	sltiu	v0,v1,12
80101f08:	e5004010 	beqz	v0,0x801022a0
80101f0c:	1080023c 	lui	v0,0x8010
80101f10:	ec624224 	addiu	v0,v0,25324
80101f14:	80180300 	sll	v1,v1,0x2
80101f18:	21186200 	addu	v1,v1,v0
80101f1c:	0000628c 	lw	v0,0(v1)
80101f20:	00000000 	nop
80101f24:	08004000 	jr	v0
80101f28:	00000000 	nop
80101f2c:	0c80113c 	lui	s1,0x800c
80101f30:	08f83026 	addiu	s0,s1,-2040
80101f34:	07000292 	lbu	v0,7(s0)
80101f38:	00000000 	nop
80101f3c:	df004014 	bnez	v0,0x801022bc
80101f40:	00000000 	nop
80101f44:	44000292 	lbu	v0,68(s0)
80101f48:	00000000 	nop
80101f4c:	db004014 	bnez	v0,0x801022bc
80101f50:	0c80023c 	lui	v0,0x800c
80101f54:	9cf84390 	lbu	v1,-1892(v0)
80101f58:	04000224 	li	v0,4
80101f5c:	d7006214 	bne	v1,v0,0x801022bc
80101f60:	801f023c 	lui	v0,0x1f80
80101f64:	9b014290 	lbu	v0,411(v0)
80101f68:	00000000 	nop
80101f6c:	d3004010 	beqz	v0,0x801022bc
80101f70:	0e80023c 	lui	v0,0x800e
80101f74:	687e4394 	lhu	v1,32360(v0)
80101f78:	00000000 	nop
80101f7c:	08006230 	andi	v0,v1,0x8
80101f80:	06004014 	bnez	v0,0x80101f9c
80101f84:	0c80023c 	lui	v0,0x800c
80101f88:	0c80023c 	lui	v0,0x800c
80101f8c:	f8f44290 	lbu	v0,-2824(v0)
80101f90:	00000000 	nop
80101f94:	14004010 	beqz	v0,0x80101fe8
80101f98:	0c80023c 	lui	v0,0x800c
80101f9c:	e4e04290 	lbu	v0,-7964(v0)
80101fa0:	00000000 	nop
80101fa4:	04004230 	andi	v0,v0,0x4
80101fa8:	04004014 	bnez	v0,0x80101fbc
80101fac:	21200000 	move	a0,zero
80101fb0:	de73000c 	jal	0x8001cf78
80101fb4:	00000000 	nop
80101fb8:	21200000 	move	a0,zero
80101fbc:	801f023c 	lui	v0,0x1f80
80101fc0:	3801428c 	lw	v0,312(v0)
80101fc4:	01000324 	li	v1,1
80101fc8:	6b0043a0 	sb	v1,107(v0)
80101fcc:	801f023c 	lui	v0,0x1f80
80101fd0:	360143a0 	sb	v1,310(v0)
80101fd4:	08f820a2 	sb	zero,-2040(s1)
80101fd8:	fed2010c 	jal	0x80074bf8
80101fdc:	420000a2 	sb	zero,66(s0)
80101fe0:	33210408 	j	0x801084cc
80101fe4:	0c80023c 	lui	v0,0x800c
80101fe8:	801f023c 	lui	v0,0x1f80
80101fec:	76014294 	lhu	v0,374(v0)
80101ff0:	00000000 	nop
80101ff4:	24106200 	and	v0,v1,v0
80101ff8:	aa004010 	beqz	v0,0x801022a4
80101ffc:	0c80023c 	lui	v0,0x800c
80102000:	16000292 	lbu	v0,22(s0)
80102004:	00000000 	nop
80102008:	ac004010 	beqz	v0,0x801022bc
8010200c:	0e80023c 	lui	v0,0x800e
80102010:	847e4590 	lbu	a1,32388(v0)
80102014:	01000224 	li	v0,1
80102018:	a800a214 	bne	a1,v0,0x801022bc
8010201c:	801f033c 	lui	v1,0x1f80
80102020:	05000282 	lb	v0,5(s0)
80102024:	37016390 	lbu	v1,311(v1)
80102028:	31000492 	lbu	a0,49(s0)
8010202c:	25104300 	or	v0,v0,v1
80102030:	25104400 	or	v0,v0,a0
80102034:	a1004014 	bnez	v0,0x801022bc
80102038:	00000000 	nop
8010203c:	10000392 	lbu	v1,16(s0)
80102040:	00000000 	nop
80102044:	9d006510 	beq	v1,a1,0x801022bc
80102048:	03000224 	li	v0,3
8010204c:	9b006210 	beq	v1,v0,0x801022bc
80102050:	801f043c 	lui	a0,0x1f80
80102054:	3801838c 	lw	v1,312(a0)
80102058:	06000224 	li	v0,6
8010205c:	6b0062a0 	sb	v0,107(v1)
80102060:	3801838c 	lw	v1,312(a0)
80102064:	801f023c 	lui	v0,0x1f80
80102068:	360145a0 	sb	a1,310(v0)
8010206c:	32210408 	j	0x801084c8
80102070:	500060a4 	sh	zero,80(v1)
80102074:	8000043c 	lui	a0,0x80
80102078:	80808434 	ori	a0,a0,0x8080
8010207c:	21280000 	move	a1,zero
80102080:	72fa010c 	jal	0x8007e9c8
80102084:	04000624 	li	a2,4
80102088:	3e21040c 	jal	0x801084f8
8010208c:	00000000 	nop
80102090:	33210408 	j	0x801084cc
80102094:	0c80023c 	lui	v0,0x800c
80102098:	17ed010c 	jal	0x8007b45c
8010209c:	00000000 	nop
801020a0:	33210408 	j	0x801084cc
801020a4:	0c80023c 	lui	v0,0x800c
801020a8:	21210408 	j	0x80108484
801020ac:	21200000 	move	a0,zero
801020b0:	0c80103c 	lui	s0,0x800c
801020b4:	08f80492 	lbu	a0,-2040(s0)
801020b8:	d8fb010c 	jal	0x8007ef60
801020bc:	08f81126 	addiu	s1,s0,-2040
801020c0:	0e80023c 	lui	v0,0x800e
801020c4:	687e4394 	lhu	v1,32360(v0)
801020c8:	00000000 	nop
801020cc:	00406230 	andi	v0,v1,0x4000
801020d0:	1b004010 	beqz	v0,0x80102140
801020d4:	10006230 	andi	v0,v1,0x10
801020d8:	08f80392 	lbu	v1,-2040(s0)
801020dc:	00000000 	nop
801020e0:	05006010 	beqz	v1,0x801020f8
801020e4:	01000224 	li	v0,1
801020e8:	0a006210 	beq	v1,v0,0x80102114
801020ec:	0c80023c 	lui	v0,0x800c
801020f0:	34210408 	j	0x801084d0
801020f4:	08f84224 	addiu	v0,v0,-2040
801020f8:	f1d2010c 	jal	0x80074bc4
801020fc:	00000000 	nop
80102100:	801f023c 	lui	v0,0x1f80
80102104:	3801428c 	lw	v0,312(v0)
80102108:	04000324 	li	v1,4
8010210c:	1d210408 	j	0x80108474
80102110:	4a0043a4 	sh	v1,74(v0)
80102114:	801f023c 	lui	v0,0x1f80
80102118:	3801428c 	lw	v0,312(v0)
8010211c:	00000000 	nop
80102120:	6b0040a0 	sb	zero,107(v0)
80102124:	801f023c 	lui	v0,0x1f80
80102128:	360140a0 	sb	zero,310(v0)
8010212c:	08000224 	li	v0,8
80102130:	5c42010c 	jal	0x80050970
80102134:	110022a2 	sb	v0,17(s1)
80102138:	ea200408 	j	0x801083a8
8010213c:	11000424 	li	a0,17
80102140:	07004010 	beqz	v0,0x80102160
80102144:	40006230 	andi	v0,v1,0x40
80102148:	08f80292 	lbu	v0,-2040(s0)
8010214c:	00000000 	nop
80102150:	53004010 	beqz	v0,0x801022a0
80102154:	ffff4224 	addiu	v0,v0,-1
80102158:	e9200408 	j	0x801083a4
8010215c:	08f802a2 	sb	v0,-2040(s0)
80102160:	50004010 	beqz	v0,0x801022a4
80102164:	0c80023c 	lui	v0,0x800c
80102168:	08f80292 	lbu	v0,-2040(s0)
8010216c:	00000000 	nop
80102170:	4b004014 	bnez	v0,0x801022a0
80102174:	01004224 	addiu	v0,v0,1
80102178:	08f802a2 	sb	v0,-2040(s0)
8010217c:	15000424 	li	a0,21
80102180:	21280000 	move	a1,zero
80102184:	64d1010c 	jal	0x80074590
80102188:	2130a000 	move	a2,a1
8010218c:	33210408 	j	0x801084cc
80102190:	0c80023c 	lui	v0,0x800c
80102194:	0c80023c 	lui	v0,0x800c
80102198:	70f84424 	addiu	a0,v0,-1936
8010219c:	70f84390 	lbu	v1,-1936(v0)
801021a0:	03000224 	li	v0,3
801021a4:	05006214 	bne	v1,v0,0x801021bc
801021a8:	05000224 	li	v0,5
801021ac:	1746040c 	jal	0x8011185c
801021b0:	00000000 	nop
801021b4:	33210408 	j	0x801084cc
801021b8:	0c80023c 	lui	v0,0x800c
801021bc:	0a006214 	bne	v1,v0,0x801021e8
801021c0:	14000224 	li	v0,20
801021c4:	53018290 	lbu	v0,339(a0)
801021c8:	00000000 	nop
801021cc:	80004230 	andi	v0,v0,0x80
801021d0:	10004010 	beqz	v0,0x80102214
801021d4:	00000000 	nop
801021d8:	c129040c 	jal	0x8010a704
801021dc:	00000000 	nop
801021e0:	33210408 	j	0x801084cc
801021e4:	0c80023c 	lui	v0,0x800c
801021e8:	0a006214 	bne	v1,v0,0x80102214
801021ec:	00000000 	nop
801021f0:	53018290 	lbu	v0,339(a0)
801021f4:	00000000 	nop
801021f8:	80004230 	andi	v0,v0,0x80
801021fc:	05004010 	beqz	v0,0x80102214
80102200:	00000000 	nop
80102204:	4e42040c 	jal	0x80110938
80102208:	00000000 	nop
8010220c:	33210408 	j	0x801084cc
80102210:	0c80023c 	lui	v0,0x800c
80102214:	8921040c 	jal	0x80108624
80102218:	00000000 	nop
8010221c:	33210408 	j	0x801084cc
80102220:	0c80023c 	lui	v0,0x800c
80102224:	f1d2010c 	jal	0x80074bc4
80102228:	00000000 	nop
8010222c:	801f033c 	lui	v1,0x1f80
80102230:	01000224 	li	v0,1
80102234:	340162a0 	sb	v0,308(v1)
80102238:	801f023c 	lui	v0,0x1f80
8010223c:	3801428c 	lw	v0,312(v0)
80102240:	01000324 	li	v1,1
80102244:	480043a4 	sh	v1,72(v0)
80102248:	4a0040a4 	sh	zero,74(v0)
8010224c:	4c0040a4 	sh	zero,76(v0)
80102250:	32210408 	j	0x801084c8
80102254:	4e0040a4 	sh	zero,78(v0)
80102258:	01000424 	li	a0,1
8010225c:	c8ef010c 	jal	0x8007bf20
80102260:	01000524 	li	a1,1
80102264:	33210408 	j	0x801084cc
80102268:	0c80023c 	lui	v0,0x800c
8010226c:	1084040c 	jal	0x80121040
80102270:	00000000 	nop
80102274:	33210408 	j	0x801084cc
80102278:	0c80023c 	lui	v0,0x800c
8010227c:	801f023c 	lui	v0,0x1f80
80102280:	3801428c 	lw	v0,312(v0)
80102284:	0c80033c 	lui	v1,0x800c
80102288:	6b0040a0 	sb	zero,107(v0)
8010228c:	801f023c 	lui	v0,0x1f80
80102290:	360140a0 	sb	zero,310(v0)
80102294:	08000224 	li	v0,8
80102298:	5c42010c 	jal	0x80050970
8010229c:	19f862a0 	sb	v0,-2023(v1)
801022a0:	0c80023c 	lui	v0,0x800c
801022a4:	08f84224 	addiu	v0,v0,-2040
801022a8:	16004390 	lbu	v1,22(v0)
801022ac:	801f043c 	lui	a0,0x1f80
801022b0:	320280a0 	sb	zero,562(a0)
801022b4:	02006330 	andi	v1,v1,0x2
801022b8:	160043a0 	sb	v1,22(v0)
801022bc:	1800bf8f 	lw	ra,24(sp)
801022c0:	1400b18f 	lw	s1,20(sp)
801022c4:	1000b08f 	lw	s0,16(sp)
801022c8:	0800e003 	jr	ra
801022cc:	2000bd27 	addiu	sp,sp,32
801022d0:	e8ffbd27 	addiu	sp,sp,-24
801022d4:	1000bfaf 	sw	ra,16(sp)
801022d8:	b9fa010c 	jal	0x8007eae4
801022dc:	00000000 	nop
801022e0:	0e80023c 	lui	v0,0x800e
801022e4:	687e4394 	lhu	v1,32360(v0)
801022e8:	00000000 	nop
801022ec:	10006230 	andi	v0,v1,0x10
801022f0:	09004010 	beqz	v0,0x80102318
801022f4:	40006230 	andi	v0,v1,0x40
801022f8:	0c80033c 	lui	v1,0x800c
801022fc:	08f86290 	lbu	v0,-2040(v1)
80102300:	00000000 	nop
80102304:	39004010 	beqz	v0,0x801023ec
80102308:	ffff4224 	addiu	v0,v0,-1
8010230c:	08f862a0 	sb	v0,-2040(v1)
80102310:	82210408 	j	0x80108608
80102314:	15000424 	li	a0,21
80102318:	09004010 	beqz	v0,0x80102340
8010231c:	0c80043c 	lui	a0,0x800c
80102320:	08f88390 	lbu	v1,-2040(a0)
80102324:	00000000 	nop
80102328:	0200622c 	sltiu	v0,v1,2
8010232c:	2f004010 	beqz	v0,0x801023ec
80102330:	01006224 	addiu	v0,v1,1
80102334:	08f882a0 	sb	v0,-2040(a0)
80102338:	82210408 	j	0x80108608
8010233c:	15000424 	li	a0,21
80102340:	08206230 	andi	v0,v1,0x2008
80102344:	08004010 	beqz	v0,0x80102368
80102348:	01000424 	li	a0,1
8010234c:	801f023c 	lui	v0,0x1f80
80102350:	3801438c 	lw	v1,312(v0)
80102354:	02000224 	li	v0,2
80102358:	fed2010c 	jal	0x80074bf8
8010235c:	6b0062a0 	sb	v0,107(v1)
80102360:	85210408 	j	0x80108614
80102364:	00000000 	nop
80102368:	00406230 	andi	v0,v1,0x4000
8010236c:	1f004010 	beqz	v0,0x801023ec
80102370:	801f043c 	lui	a0,0x1f80
80102374:	0c80053c 	lui	a1,0x800c
80102378:	08f8a290 	lbu	v0,-2040(a1)
8010237c:	3801838c 	lw	v1,312(a0)
80102380:	03004224 	addiu	v0,v0,3
80102384:	6b0062a0 	sb	v0,107(v1)
80102388:	3801828c 	lw	v0,312(a0)
8010238c:	00000000 	nop
80102390:	6b004390 	lbu	v1,107(v0)
80102394:	500040a4 	sh	zero,80(v0)
80102398:	03000224 	li	v0,3
8010239c:	03006214 	bne	v1,v0,0x801023ac
801023a0:	04000224 	li	v0,4
801023a4:	7e210408 	j	0x801085f8
801023a8:	08f8a0a0 	sb	zero,-2040(a1)
801023ac:	03006214 	bne	v1,v0,0x801023bc
801023b0:	01000224 	li	v0,1
801023b4:	7a210408 	j	0x801085e8
801023b8:	08f8a0a0 	sb	zero,-2040(a1)
801023bc:	08f8a2a0 	sb	v0,-2040(a1)
801023c0:	21200000 	move	a0,zero
801023c4:	21288000 	move	a1,a0
801023c8:	0b42010c 	jal	0x8005082c
801023cc:	21308000 	move	a2,a0
801023d0:	801f033c 	lui	v1,0x1f80
801023d4:	02000224 	li	v0,2
801023d8:	360162a0 	sb	v0,310(v1)
801023dc:	11000424 	li	a0,17
801023e0:	21280000 	move	a1,zero
801023e4:	64d1010c 	jal	0x80074590
801023e8:	2130a000 	move	a2,a1
801023ec:	1000bf8f 	lw	ra,16(sp)
801023f0:	00000000 	nop
801023f4:	0800e003 	jr	ra
801023f8:	1800bd27 	addiu	sp,sp,24
801023fc:	e0ffbd27 	addiu	sp,sp,-32
80102400:	1400b1af 	sw	s1,20(sp)
80102404:	801f113c 	lui	s1,0x1f80
80102408:	3801238e 	lw	v1,312(s1)
8010240c:	1800bfaf 	sw	ra,24(sp)
80102410:	1000b0af 	sw	s0,16(sp)
80102414:	50007094 	lhu	s0,80(v1)
80102418:	02000224 	li	v0,2
8010241c:	0b000212 	beq	s0,v0,0x8010244c
80102420:	0300022a 	slti	v0,s0,3
80102424:	05004014 	bnez	v0,0x8010243c
80102428:	03000224 	li	v0,3
8010242c:	10000212 	beq	s0,v0,0x80102470
80102430:	00000000 	nop
80102434:	b3210408 	j	0x801086cc
80102438:	00000000 	nop
8010243c:	19000006 	bltz	s0,0x801024a4
80102440:	01000226 	addiu	v0,s0,1
80102444:	b3210408 	j	0x801086cc
80102448:	500062a4 	sh	v0,80(v1)
8010244c:	03000224 	li	v0,3
80102450:	21200000 	move	a0,zero
80102454:	2542010c 	jal	0x80050894
80102458:	500062a4 	sh	v0,80(v1)
8010245c:	801f023c 	lui	v0,0x1f80
80102460:	1beb010c 	jal	0x8007ac6c
80102464:	360150a0 	sb	s0,310(v0)
80102468:	b3210408 	j	0x801086cc
8010246c:	00000000 	nop
80102470:	afd1000c 	jal	0x800346bc
80102474:	00000000 	nop
80102478:	0a004010 	beqz	v0,0x801024a4
8010247c:	0c80033c 	lui	v1,0x800c
80102480:	3801228e 	lw	v0,312(s1)
80102484:	00000000 	nop
80102488:	500040a4 	sh	zero,80(v0)
8010248c:	6b0040a0 	sb	zero,107(v0)
80102490:	801f023c 	lui	v0,0x1f80
80102494:	360140a0 	sb	zero,310(v0)
80102498:	08000224 	li	v0,8
8010249c:	5c42010c 	jal	0x80050970
801024a0:	19f862a0 	sb	v0,-2023(v1)
801024a4:	1800bf8f 	lw	ra,24(sp)
801024a8:	1400b18f 	lw	s1,20(sp)
801024ac:	1000b08f 	lw	s0,16(sp)
801024b0:	0800e003 	jr	ra
801024b4:	2000bd27 	addiu	sp,sp,32
801024b8:	e8ffbd27 	addiu	sp,sp,-24
801024bc:	801f023c 	lui	v0,0x1f80
801024c0:	3801428c 	lw	v0,312(v0)
801024c4:	02000324 	li	v1,2
801024c8:	1000bfaf 	sw	ra,16(sp)
801024cc:	480043a4 	sh	v1,72(v0)
801024d0:	4a0040a4 	sh	zero,74(v0)
801024d4:	4c0040a4 	sh	zero,76(v0)
801024d8:	38ea010c 	jal	0x8007a8e0
801024dc:	690040a0 	sb	zero,105(v0)
801024e0:	e3ec010c 	jal	0x8007b38c
801024e4:	00000000 	nop
801024e8:	1000bf8f 	lw	ra,16(sp)
801024ec:	00000000 	nop
801024f0:	0800e003 	jr	ra
801024f4:	1800bd27 	addiu	sp,sp,24
801024f8:	e8ffbd27 	addiu	sp,sp,-24
801024fc:	801f023c 	lui	v0,0x1f80
80102500:	3801438c 	lw	v1,312(v0)
80102504:	02000224 	li	v0,2
80102508:	1000bfaf 	sw	ra,16(sp)
8010250c:	480062a4 	sh	v0,72(v1)
80102510:	01000224 	li	v0,1
80102514:	4a0062a4 	sh	v0,74(v1)
80102518:	4c0060a4 	sh	zero,76(v1)
8010251c:	690060a0 	sb	zero,105(v1)
80102520:	801f033c 	lui	v1,0x1f80
80102524:	ff000224 	li	v0,255
80102528:	ff0162a0 	sb	v0,511(v1)
8010252c:	801f023c 	lui	v0,0x1f80
80102530:	fdec010c 	jal	0x8007b3f4
80102534:	780240a4 	sh	zero,632(v0)
80102538:	1000bf8f 	lw	ra,16(sp)
8010253c:	801f023c 	lui	v0,0x1f80
80102540:	060240a0 	sb	zero,518(v0)
80102544:	801f023c 	lui	v0,0x1f80
80102548:	360240a0 	sb	zero,566(v0)
8010254c:	801f023c 	lui	v0,0x1f80
80102550:	340240a0 	sb	zero,564(v0)
80102554:	0800e003 	jr	ra
80102558:	1800bd27 	addiu	sp,sp,24
8010255c:	801f023c 	lui	v0,0x1f80
80102560:	3801428c 	lw	v0,312(v0)
80102564:	e8ffbd27 	addiu	sp,sp,-24
80102568:	1000bfaf 	sw	ra,16(sp)
8010256c:	4a004394 	lhu	v1,74(v0)
80102570:	00000000 	nop
80102574:	0600622c 	sltiu	v0,v1,6
80102578:	1e004010 	beqz	v0,0x801025f4
8010257c:	1080023c 	lui	v0,0x8010
80102580:	1c634224 	addiu	v0,v0,25372
80102584:	80180300 	sll	v1,v1,0x2
80102588:	21186200 	addu	v1,v1,v0
8010258c:	0000628c 	lw	v0,0(v1)
80102590:	00000000 	nop
80102594:	08004000 	jr	v0
80102598:	00000000 	nop
8010259c:	0b22040c 	jal	0x8010882c
801025a0:	00000000 	nop
801025a4:	07220408 	j	0x8010881c
801025a8:	00000000 	nop
801025ac:	3622040c 	jal	0x801088d8
801025b0:	00000000 	nop
801025b4:	07220408 	j	0x8010881c
801025b8:	00000000 	nop
801025bc:	1e19040c 	jal	0x80106478
801025c0:	00000000 	nop
801025c4:	07220408 	j	0x8010881c
801025c8:	00000000 	nop
801025cc:	891a040c 	jal	0x80106a24
801025d0:	00000000 	nop
801025d4:	07220408 	j	0x8010881c
801025d8:	00000000 	nop
801025dc:	7122040c 	jal	0x801089c4
801025e0:	00000000 	nop
801025e4:	07220408 	j	0x8010881c
801025e8:	00000000 	nop
801025ec:	9822040c 	jal	0x80108a60
801025f0:	00000000 	nop
801025f4:	1000bf8f 	lw	ra,16(sp)
801025f8:	00000000 	nop
801025fc:	0800e003 	jr	ra
80102600:	1800bd27 	addiu	sp,sp,24
80102604:	d8ffbd27 	addiu	sp,sp,-40
80102608:	2000b0af 	sw	s0,32(sp)
8010260c:	801f103c 	lui	s0,0x1f80
80102610:	3801038e 	lw	v1,312(s0)
80102614:	2400bfaf 	sw	ra,36(sp)
80102618:	4c006494 	lhu	a0,76(v1)
8010261c:	00000000 	nop
80102620:	05008010 	beqz	a0,0x80102638
80102624:	01000224 	li	v0,1
80102628:	19008210 	beq	a0,v0,0x80102690
8010262c:	00000000 	nop
80102630:	32220408 	j	0x801088c8
80102634:	00000000 	nop
80102638:	4e006394 	lhu	v1,78(v1)
8010263c:	00000000 	nop
80102640:	05006010 	beqz	v1,0x80102658
80102644:	21200000 	move	a0,zero
80102648:	0d006210 	beq	v1,v0,0x80102680
8010264c:	00000000 	nop
80102650:	32220408 	j	0x801088c8
80102654:	00000000 	nop
80102658:	21288000 	move	a1,a0
8010265c:	0b42010c 	jal	0x8005082c
80102660:	21308000 	move	a2,a0
80102664:	3801038e 	lw	v1,312(s0)
80102668:	00000000 	nop
8010266c:	4e006294 	lhu	v0,78(v1)
80102670:	500060a4 	sh	zero,80(v1)
80102674:	01004224 	addiu	v0,v0,1
80102678:	32220408 	j	0x801088c8
8010267c:	4e0062a4 	sh	v0,78(v1)
80102680:	1425040c 	jal	0x80109450
80102684:	00000000 	nop
80102688:	32220408 	j	0x801088c8
8010268c:	00000000 	nop
80102690:	4a006294 	lhu	v0,74(v1)
80102694:	4c0060a4 	sh	zero,76(v1)
80102698:	01004224 	addiu	v0,v0,1
8010269c:	4a0062a4 	sh	v0,74(v1)
801026a0:	2400bf8f 	lw	ra,36(sp)
801026a4:	2000b08f 	lw	s0,32(sp)
801026a8:	0800e003 	jr	ra
801026ac:	2800bd27 	addiu	sp,sp,40
801026b0:	801f023c 	lui	v0,0x1f80
801026b4:	3801428c 	lw	v0,312(v0)
801026b8:	e8ffbd27 	addiu	sp,sp,-24
801026bc:	1000bfaf 	sw	ra,16(sp)
801026c0:	4c004394 	lhu	v1,76(v0)
801026c4:	00000000 	nop
801026c8:	0700622c 	sltiu	v0,v1,7
801026cc:	2f004010 	beqz	v0,0x8010278c
801026d0:	1080023c 	lui	v0,0x8010
801026d4:	34634224 	addiu	v0,v0,25396
801026d8:	80180300 	sll	v1,v1,0x2
801026dc:	21186200 	addu	v1,v1,v0
801026e0:	0000628c 	lw	v0,0(v1)
801026e4:	00000000 	nop
801026e8:	08004000 	jr	v0
801026ec:	00000000 	nop
801026f0:	1749010c 	jal	0x8005245c
801026f4:	00000000 	nop
801026f8:	0480043c 	lui	a0,0x8004
801026fc:	0c80023c 	lui	v0,0x800c
80102700:	c0528424 	addiu	a0,a0,21184
80102704:	70f84590 	lbu	a1,-1936(v0)
80102708:	21300000 	move	a2,zero
8010270c:	f512010c 	jal	0x80044bd4
80102710:	02000724 	li	a3,2
80102714:	801f023c 	lui	v0,0x1f80
80102718:	801f043c 	lui	a0,0x1f80
8010271c:	340240a0 	sb	zero,564(v0)
80102720:	1180023c 	lui	v0,0x8011
80102724:	0c80033c 	lui	v1,0x800c
80102728:	608f4224 	addiu	v0,v0,-28832
8010272c:	70f86390 	lbu	v1,-1936(v1)
80102730:	3801848c 	lw	a0,312(a0)
80102734:	21186200 	addu	v1,v1,v0
80102738:	00006290 	lbu	v0,0(v1)
8010273c:	6d220408 	j	0x801089b4
80102740:	4c0082a4 	sh	v0,76(a0)
80102744:	e61a040c 	jal	0x80106b98
80102748:	00000000 	nop
8010274c:	6d220408 	j	0x801089b4
80102750:	00000000 	nop
80102754:	2d1c040c 	jal	0x801070b4
80102758:	00000000 	nop
8010275c:	6d220408 	j	0x801089b4
80102760:	00000000 	nop
80102764:	8c1c040c 	jal	0x80107230
80102768:	00000000 	nop
8010276c:	6d220408 	j	0x801089b4
80102770:	00000000 	nop
80102774:	9b1d040c 	jal	0x8010766c
80102778:	00000000 	nop
8010277c:	6d220408 	j	0x801089b4
80102780:	00000000 	nop
80102784:	e41d040c 	jal	0x80107790
80102788:	00000000 	nop
8010278c:	1000bf8f 	lw	ra,16(sp)
80102790:	00000000 	nop
80102794:	0800e003 	jr	ra
80102798:	1800bd27 	addiu	sp,sp,24
8010279c:	e8ffbd27 	addiu	sp,sp,-24
801027a0:	1000b0af 	sw	s0,16(sp)
801027a4:	801f103c 	lui	s0,0x1f80
801027a8:	3801048e 	lw	a0,312(s0)
801027ac:	1400bfaf 	sw	ra,20(sp)
801027b0:	4c008394 	lhu	v1,76(a0)
801027b4:	00000000 	nop
801027b8:	05006010 	beqz	v1,0x801027d0
801027bc:	01000224 	li	v0,1
801027c0:	0c006210 	beq	v1,v0,0x801027f4
801027c4:	00000000 	nop
801027c8:	94220408 	j	0x80108a50
801027cc:	00000000 	nop
801027d0:	f1d2010c 	jal	0x80074bc4
801027d4:	00000000 	nop
801027d8:	3801038e 	lw	v1,312(s0)
801027dc:	00000000 	nop
801027e0:	4c006294 	lhu	v0,76(v1)
801027e4:	00000000 	nop
801027e8:	01004224 	addiu	v0,v0,1
801027ec:	94220408 	j	0x80108a50
801027f0:	4c0062a4 	sh	v0,76(v1)
801027f4:	690080a0 	sb	zero,105(a0)
801027f8:	3801028e 	lw	v0,312(s0)
801027fc:	00000000 	nop
80102800:	6a0040a0 	sb	zero,106(v0)
80102804:	3801028e 	lw	v0,312(s0)
80102808:	00000000 	nop
8010280c:	6b0040a0 	sb	zero,107(v0)
80102810:	3801028e 	lw	v0,312(s0)
80102814:	01000424 	li	a0,1
80102818:	4a0040a4 	sh	zero,74(v0)
8010281c:	4c0040a4 	sh	zero,76(v0)
80102820:	1e48010c 	jal	0x80052078
80102824:	4e0040a4 	sh	zero,78(v0)
80102828:	1400bf8f 	lw	ra,20(sp)
8010282c:	1000b08f 	lw	s0,16(sp)
80102830:	0800e003 	jr	ra
80102834:	1800bd27 	addiu	sp,sp,24
80102838:	801f023c 	lui	v0,0x1f80
8010283c:	3801428c 	lw	v0,312(v0)
80102840:	e8ffbd27 	addiu	sp,sp,-24
80102844:	1000bfaf 	sw	ra,16(sp)
80102848:	4c004394 	lhu	v1,76(v0)
8010284c:	00000000 	nop
80102850:	0a00622c 	sltiu	v0,v1,10
80102854:	1f004010 	beqz	v0,0x801028d4
80102858:	1080023c 	lui	v0,0x8010
8010285c:	54634224 	addiu	v0,v0,25428
80102860:	80180300 	sll	v1,v1,0x2
80102864:	21186200 	addu	v1,v1,v0
80102868:	0000628c 	lw	v0,0(v1)
8010286c:	00000000 	nop
80102870:	08004000 	jr	v0
80102874:	00000000 	nop
80102878:	801f023c 	lui	v0,0x1f80
8010287c:	3801438c 	lw	v1,312(v0)
80102880:	02000224 	li	v0,2
80102884:	480062a4 	sh	v0,72(v1)
80102888:	01000224 	li	v0,1
8010288c:	4a0062a4 	sh	v0,74(v1)
80102890:	4c0060a4 	sh	zero,76(v1)
80102894:	bf220408 	j	0x80108afc
80102898:	4e0060a4 	sh	zero,78(v1)
8010289c:	bf1e040c 	jal	0x80107afc
801028a0:	00000000 	nop
801028a4:	bf220408 	j	0x80108afc
801028a8:	00000000 	nop
801028ac:	881f040c 	jal	0x80107e20
801028b0:	00000000 	nop
801028b4:	bf220408 	j	0x80108afc
801028b8:	00000000 	nop
801028bc:	4f1f040c 	jal	0x80107d3c
801028c0:	00000000 	nop
801028c4:	bf220408 	j	0x80108afc
801028c8:	00000000 	nop
801028cc:	cf1f040c 	jal	0x80107f3c
801028d0:	00000000 	nop
801028d4:	1000bf8f 	lw	ra,16(sp)
801028d8:	00000000 	nop
801028dc:	0800e003 	jr	ra
801028e0:	1800bd27 	addiu	sp,sp,24
801028e4:	801f033c 	lui	v1,0x1f80
801028e8:	7c016294 	lhu	v0,380(v1)
801028ec:	e8ffbd27 	addiu	sp,sp,-24
801028f0:	1000b0af 	sw	s0,16(sp)
801028f4:	801f103c 	lui	s0,0x1f80
801028f8:	1400bfaf 	sw	ra,20(sp)
801028fc:	01004224 	addiu	v0,v0,1
80102900:	7c0162a4 	sh	v0,380(v1)
80102904:	0c80033c 	lui	v1,0x800c
80102908:	70f86324 	addiu	v1,v1,-1936
8010290c:	0800628c 	lw	v0,8(v1)
80102910:	36010492 	lbu	a0,310(s0)
80102914:	01004224 	addiu	v0,v0,1
80102918:	17008014 	bnez	a0,0x80102978
8010291c:	080062ac 	sw	v0,8(v1)
80102920:	4a67010c 	jal	0x80059d28
80102924:	00000000 	nop
80102928:	caa6010c 	jal	0x80069b28
8010292c:	00000000 	nop
80102930:	da98000c 	jal	0x80026368
80102934:	00000000 	nop
80102938:	41ea010c 	jal	0x8007a904
8010293c:	00000000 	nop
80102940:	6295000c 	jal	0x80025588
80102944:	00000000 	nop
80102948:	a13f010c 	jal	0x8004fe84
8010294c:	00000000 	nop
80102950:	229b000c 	jal	0x80026c88
80102954:	00000000 	nop
80102958:	a08a000c 	jal	0x80022a80
8010295c:	00000000 	nop
80102960:	11bb010c 	jal	0x8006ec44
80102964:	00000000 	nop
80102968:	7943010c 	jal	0x80050de4
8010296c:	00000000 	nop
80102970:	b072000c 	jal	0x8001cac0
80102974:	00000000 	nop
80102978:	36010292 	lbu	v0,310(s0)
8010297c:	00000000 	nop
80102980:	0200422c 	sltiu	v0,v0,2
80102984:	03004010 	beqz	v0,0x80102994
80102988:	00000000 	nop
8010298c:	6afe000c 	jal	0x8003f9a8
80102990:	00000000 	nop
80102994:	4320040c 	jal	0x8010810c
80102998:	00000000 	nop
8010299c:	63df010c 	jal	0x80077d8c
801029a0:	00000000 	nop
801029a4:	a0d6010c 	jal	0x80075a80
801029a8:	00000000 	nop
801029ac:	1400bf8f 	lw	ra,20(sp)
801029b0:	1000b08f 	lw	s0,16(sp)
801029b4:	0800e003 	jr	ra
801029b8:	1800bd27 	addiu	sp,sp,24
801029bc:	801f033c 	lui	v1,0x1f80
801029c0:	7c016294 	lhu	v0,380(v1)
801029c4:	e8ffbd27 	addiu	sp,sp,-24
801029c8:	1000b0af 	sw	s0,16(sp)
801029cc:	801f103c 	lui	s0,0x1f80
801029d0:	1400bfaf 	sw	ra,20(sp)
801029d4:	01004224 	addiu	v0,v0,1
801029d8:	7c0162a4 	sh	v0,380(v1)
801029dc:	0c80033c 	lui	v1,0x800c
801029e0:	70f86324 	addiu	v1,v1,-1936
801029e4:	0800628c 	lw	v0,8(v1)
801029e8:	36010492 	lbu	a0,310(s0)
801029ec:	01004224 	addiu	v0,v0,1
801029f0:	13008014 	bnez	a0,0x80102a40
801029f4:	080062ac 	sw	v0,8(v1)
801029f8:	4a67010c 	jal	0x80059d28
801029fc:	00000000 	nop
80102a00:	caa6010c 	jal	0x80069b28
80102a04:	00000000 	nop
80102a08:	da98000c 	jal	0x80026368
80102a0c:	00000000 	nop
80102a10:	13ec010c 	jal	0x8007b04c
80102a14:	00000000 	nop
80102a18:	6295000c 	jal	0x80025588
80102a1c:	00000000 	nop
80102a20:	a13f010c 	jal	0x8004fe84
80102a24:	00000000 	nop
80102a28:	229b000c 	jal	0x80026c88
80102a2c:	00000000 	nop
80102a30:	a08a000c 	jal	0x80022a80
80102a34:	00000000 	nop
80102a38:	11bb010c 	jal	0x8006ec44
80102a3c:	00000000 	nop
80102a40:	36010292 	lbu	v0,310(s0)
80102a44:	00000000 	nop
80102a48:	0200422c 	sltiu	v0,v0,2
80102a4c:	03004010 	beqz	v0,0x80102a5c
80102a50:	00000000 	nop
80102a54:	91fe000c 	jal	0x8003fa44
80102a58:	00000000 	nop
80102a5c:	4320040c 	jal	0x8010810c
80102a60:	00000000 	nop
80102a64:	63df010c 	jal	0x80077d8c
80102a68:	00000000 	nop
80102a6c:	a0d6010c 	jal	0x80075a80
80102a70:	00000000 	nop
80102a74:	1400bf8f 	lw	ra,20(sp)
80102a78:	1000b08f 	lw	s0,16(sp)
80102a7c:	0800e003 	jr	ra
80102a80:	1800bd27 	addiu	sp,sp,24
80102a84:	801f033c 	lui	v1,0x1f80
80102a88:	7c016294 	lhu	v0,380(v1)
80102a8c:	e8ffbd27 	addiu	sp,sp,-24
80102a90:	1000b0af 	sw	s0,16(sp)
80102a94:	801f103c 	lui	s0,0x1f80
80102a98:	1400bfaf 	sw	ra,20(sp)
80102a9c:	01004224 	addiu	v0,v0,1
80102aa0:	7c0162a4 	sh	v0,380(v1)
80102aa4:	0c80033c 	lui	v1,0x800c
80102aa8:	70f86324 	addiu	v1,v1,-1936
80102aac:	0800628c 	lw	v0,8(v1)
80102ab0:	36010492 	lbu	a0,310(s0)
80102ab4:	01004224 	addiu	v0,v0,1
80102ab8:	0f008014 	bnez	a0,0x80102af8
80102abc:	080062ac 	sw	v0,8(v1)
80102ac0:	da98000c 	jal	0x80026368
80102ac4:	00000000 	nop
80102ac8:	41ea010c 	jal	0x8007a904
80102acc:	00000000 	nop
80102ad0:	4a67010c 	jal	0x80059d28
80102ad4:	00000000 	nop
80102ad8:	6295000c 	jal	0x80025588
80102adc:	00000000 	nop
80102ae0:	a13f010c 	jal	0x8004fe84
80102ae4:	00000000 	nop
80102ae8:	11bb010c 	jal	0x8006ec44
80102aec:	00000000 	nop
80102af0:	7943010c 	jal	0x80050de4
80102af4:	00000000 	nop
80102af8:	36010292 	lbu	v0,310(s0)
80102afc:	00000000 	nop
80102b00:	0200422c 	sltiu	v0,v0,2
80102b04:	03004010 	beqz	v0,0x80102b14
80102b08:	00000000 	nop
80102b0c:	ca2c040c 	jal	0x8010b328
80102b10:	00000000 	nop
80102b14:	4320040c 	jal	0x8010810c
80102b18:	00000000 	nop
80102b1c:	63df010c 	jal	0x80077d8c
80102b20:	00000000 	nop
80102b24:	a0d6010c 	jal	0x80075a80
80102b28:	00000000 	nop
80102b2c:	1400bf8f 	lw	ra,20(sp)
80102b30:	1000b08f 	lw	s0,16(sp)
80102b34:	0800e003 	jr	ra
80102b38:	1800bd27 	addiu	sp,sp,24
80102b3c:	801f023c 	lui	v0,0x1f80
80102b40:	3801428c 	lw	v0,312(v0)
80102b44:	03000324 	li	v1,3
80102b48:	4a0043a4 	sh	v1,74(v0)
80102b4c:	4c0040a4 	sh	zero,76(v0)
80102b50:	0800e003 	jr	ra
80102b54:	4e0040a4 	sh	zero,78(v0)
80102b58:	801f023c 	lui	v0,0x1f80
80102b5c:	3801438c 	lw	v1,312(v0)
80102b60:	01000224 	li	v0,1
80102b64:	4a0062a4 	sh	v0,74(v1)
80102b68:	02000224 	li	v0,2
80102b6c:	4c0062a4 	sh	v0,76(v1)
80102b70:	03000224 	li	v0,3
80102b74:	0800e003 	jr	ra
80102b78:	4e0062a4 	sh	v0,78(v1)
80102b7c:	801f023c 	lui	v0,0x1f80
80102b80:	36024290 	lbu	v0,566(v0)
80102b84:	e8ffbd27 	addiu	sp,sp,-24
80102b88:	0500422c 	sltiu	v0,v0,5
80102b8c:	03004014 	bnez	v0,0x80102b9c
80102b90:	1000bfaf 	sw	ra,16(sp)
80102b94:	2542010c 	jal	0x80050894
80102b98:	21200000 	move	a0,zero
80102b9c:	801f023c 	lui	v0,0x1f80
80102ba0:	3801438c 	lw	v1,312(v0)
80102ba4:	01000224 	li	v0,1
80102ba8:	4a0062a4 	sh	v0,74(v1)
80102bac:	02000224 	li	v0,2
80102bb0:	4c0062a4 	sh	v0,76(v1)
80102bb4:	06000224 	li	v0,6
80102bb8:	4e0062a4 	sh	v0,78(v1)
80102bbc:	1000bf8f 	lw	ra,16(sp)
80102bc0:	00000000 	nop
80102bc4:	0800e003 	jr	ra
80102bc8:	1800bd27 	addiu	sp,sp,24
80102bcc:	e8ffbd27 	addiu	sp,sp,-24
80102bd0:	1000bfaf 	sw	ra,16(sp)
80102bd4:	63ec010c 	jal	0x8007b18c
80102bd8:	00000000 	nop
80102bdc:	b7e5010c 	jal	0x800796dc
80102be0:	00000000 	nop
80102be4:	fa98000c 	jal	0x800263e8
80102be8:	00000000 	nop
80102bec:	9eca010c 	jal	0x80072a78
80102bf0:	00000000 	nop
80102bf4:	90d4010c 	jal	0x80075240
80102bf8:	00000000 	nop
80102bfc:	f7e0010c 	jal	0x800783dc
80102c00:	00000000 	nop
80102c04:	84e1010c 	jal	0x80078610
80102c08:	00000000 	nop
80102c0c:	801f023c 	lui	v0,0x1f80
80102c10:	3801438c 	lw	v1,312(v0)
80102c14:	01000224 	li	v0,1
80102c18:	4e0062a4 	sh	v0,78(v1)
80102c1c:	6b0060a0 	sb	zero,107(v1)
80102c20:	1000bf8f 	lw	ra,16(sp)
80102c24:	00000000 	nop
80102c28:	0800e003 	jr	ra
80102c2c:	1800bd27 	addiu	sp,sp,24
80102c30:	e8ffbd27 	addiu	sp,sp,-24
80102c34:	1000b0af 	sw	s0,16(sp)
80102c38:	801f103c 	lui	s0,0x1f80
80102c3c:	3801028e 	lw	v0,312(s0)
80102c40:	21280000 	move	a1,zero
80102c44:	1400bfaf 	sw	ra,20(sp)
80102c48:	6b004490 	lbu	a0,107(v0)
80102c4c:	04000624 	li	a2,4
80102c50:	c0200400 	sll	a0,a0,0x3
80102c54:	ff008430 	andi	a0,a0,0xff
80102c58:	00140400 	sll	v0,a0,0x10
80102c5c:	001a0400 	sll	v1,a0,0x8
80102c60:	25104300 	or	v0,v0,v1
80102c64:	72fa010c 	jal	0x8007e9c8
80102c68:	25204400 	or	a0,v0,a0
80102c6c:	3801038e 	lw	v1,312(s0)
80102c70:	00000000 	nop
80102c74:	6b006290 	lbu	v0,107(v1)
80102c78:	00000000 	nop
80102c7c:	ffff4224 	addiu	v0,v0,-1
80102c80:	6b0062a0 	sb	v0,107(v1)
80102c84:	1400bf8f 	lw	ra,20(sp)
80102c88:	1000b08f 	lw	s0,16(sp)
80102c8c:	0800e003 	jr	ra
80102c90:	1800bd27 	addiu	sp,sp,24
80102c94:	e8ffbd27 	addiu	sp,sp,-24
80102c98:	1000b0af 	sw	s0,16(sp)
80102c9c:	801f103c 	lui	s0,0x1f80
80102ca0:	3801028e 	lw	v0,312(s0)
80102ca4:	01000524 	li	a1,1
80102ca8:	1400bfaf 	sw	ra,20(sp)
80102cac:	6b004490 	lbu	a0,107(v0)
80102cb0:	04000624 	li	a2,4
80102cb4:	c0200400 	sll	a0,a0,0x3
80102cb8:	23200400 	negu	a0,a0
80102cbc:	ff008430 	andi	a0,a0,0xff
80102cc0:	00140400 	sll	v0,a0,0x10
80102cc4:	001a0400 	sll	v1,a0,0x8
80102cc8:	25104300 	or	v0,v0,v1
80102ccc:	72fa010c 	jal	0x8007e9c8
80102cd0:	25204400 	or	a0,v0,a0
80102cd4:	3801038e 	lw	v1,312(s0)
80102cd8:	00000000 	nop
80102cdc:	6b006290 	lbu	v0,107(v1)
80102ce0:	00000000 	nop
80102ce4:	ffff4224 	addiu	v0,v0,-1
80102ce8:	6b0062a0 	sb	v0,107(v1)
80102cec:	1400bf8f 	lw	ra,20(sp)
80102cf0:	1000b08f 	lw	s0,16(sp)
80102cf4:	0800e003 	jr	ra
80102cf8:	1800bd27 	addiu	sp,sp,24
80102cfc:	e8ffbd27 	addiu	sp,sp,-24
80102d00:	801f023c 	lui	v0,0x1f80
80102d04:	3801428c 	lw	v0,312(v0)
80102d08:	0c80033c 	lui	v1,0x800c
80102d0c:	1000bfaf 	sw	ra,16(sp)
80102d10:	6b0040a0 	sb	zero,107(v0)
80102d14:	801f023c 	lui	v0,0x1f80
80102d18:	360140a0 	sb	zero,310(v0)
80102d1c:	08000224 	li	v0,8
80102d20:	5c42010c 	jal	0x80050970
80102d24:	19f862a0 	sb	v0,-2023(v1)
80102d28:	1000bf8f 	lw	ra,16(sp)
80102d2c:	00000000 	nop
80102d30:	0800e003 	jr	ra
80102d34:	1800bd27 	addiu	sp,sp,24
80102d38:	02020405 	.word	0x5040202
80102d3c:	02020204 	.word	0x4020202
80102d40:	02020202 	.word	0x2020202
80102d44:	02020202 	.word	0x2020202
80102d48:	02020202 	.word	0x2020202
80102d4c:	04020000 	.word	0x204
80102d50:	e803b4fb 	.word	0xfbb403e8
80102d54:	d007e803 	.word	0x3e807d0
80102d58:	dcfbb80b 	j	0x8ee3ef70
80102d5c:	e803e0fc 	.word	0xfce003e8
80102d60:	c409e803 	.word	0x3e809c4
80102d64:	dcfbb80b 	j	0x8ee3ef70
80102d68:	e80350fb 	.word	0xfb5003e8
80102d6c:	c409e803 	.word	0x3e809c4
80102d70:	c8fbb80b 	j	0x8ee3ef20
