
rom/extracted/BIN/SOP.BIN:     file format binary


Disassembly of section .data:

80100000 <.data>:
80100000:	20000000 	add	zero,zero,zero
80100004:	9c941080 	lb	s0,-27492(zero)
80100008:	b4951080 	lb	s0,-27212(zero)
8010000c:	28961080 	lb	s0,-27096(zero)
80100010:	78961080 	lb	s0,-27016(zero)
80100014:	fc961080 	lb	s0,-26884(zero)
80100018:	40a91080 	lb	s0,-22208(zero)
8010001c:	aca91080 	lb	s0,-22100(zero)
80100020:	c8a91080 	lb	s0,-22072(zero)
80100024:	fca91080 	lb	s0,-22020(zero)
80100028:	28aa1080 	lb	s0,-21976(zero)
8010002c:	bcaa1080 	lb	s0,-21828(zero)
80100030:	e8aa1080 	lb	s0,-21784(zero)
80100034:	1cab1080 	lb	s0,-21732(zero)
80100038:	c8b51080 	lb	s0,-19000(zero)
8010003c:	60b71080 	lb	s0,-18592(zero)
80100040:	e4b51080 	lb	s0,-18972(zero)
80100044:	14b61080 	lb	s0,-18924(zero)
80100048:	7cb61080 	lb	s0,-18820(zero)
8010004c:	00b71080 	lb	s0,-18688(zero)
80100050:	60b71080 	lb	s0,-18592(zero)
80100054:	20402000 	add	t0,at,zero
80100058:	416e6420 	addi	a0,v1,28225
8010005c:	7468656e 	.word	0x6e656874
80100060:	2e2e2e00 	.word	0x2e2e2e
80100064:	546f6d62 	.word	0x626d6f54
80100068:	61206a75 	jalx	0x85a88185
8010006c:	6d707320 	addi	s3,v1,28781
80100070:	696e746f 	.word	0x6f746e69
80100074:	20746865 	.word	0x65687420
80100078:	20736561 	.word	0x61657320
8010007c:	2e000000 	.word	0x2e
80100080:	44657465 	.word	0x65746544
80100084:	726d696e 	.word	0x6e696d72
80100088:	65642074 	jalx	0x80819195
8010008c:	6f206272 	.word	0x7262206f
80100090:	696e6720 	addi	a3,v1,28265
80100094:	68657220 	addi	s2,v1,25960
80100098:	6261636b 	.word	0x6b636162
8010009c:	20736166 	.word	0x66617320
801000a0:	656c792c 	sltiu	t9,v1,27749
801000a4:	00000000 	nop
801000a8:	49732073 	.word	0x73207349
801000ac:	68652073 	.word	0x73206568
801000b0:	6166653f 	.word	0x3f656661
801000b4:	00000000 	nop
801000b8:	57617320 	addi	s3,v1,24919
801000bc:	73686520 	addi	a1,v1,26739
801000c0:	6b69646e 	.word	0x6e64696b
801000c4:	61707065 	.word	0x65707061
801000c8:	643f0000 	.word	0x3f64
801000cc:	7468696e 	.word	0x6e696874
801000d0:	6b206162 	.word	0x6261206b
801000d4:	6f757420 	addi	s4,v1,30063
801000d8:	77617320 	addi	s3,v1,24951
801000dc:	77686572 	.word	0x72656877
801000e0:	65207368 	.word	0x68732065
801000e4:	6520636f 	.word	0x6f632065
801000e8:	756c6420 	addi	a0,v1,27765
801000ec:	62652e00 	.word	0x2e6562
801000f0:	41732068 	.word	0x68207341
801000f4:	65207265 	.word	0x65722065
801000f8:	61642074 	jalx	0x80819185
801000fc:	6865206c 	.word	0x6c206568
80100100:	65747465 	.word	0x65747465
80100104:	722c2061 	.word	0x61202c72
80100108:	6c6c2068 	.word	0x68206c6c
8010010c:	6520636f 	.word	0x6f632065
80100110:	756c6400 	.word	0x646c75
80100114:	66726965 	.word	0x65697266
80100118:	6e642054 	.word	0x5420646e
8010011c:	61626279 	.word	0x79626261
80100120:	20686173 	.word	0x73616820
80100124:	20646973 	.word	0x73696420
80100128:	61707065 	.word	0x65707061
8010012c:	61726564 	.word	0x64657261
80100130:	2e000000 	.word	0x2e
80100134:	54686520 	addi	a1,v1,26708
80100138:	6c657474 	jalx	0x81d195b1
8010013c:	65722073 	.word	0x73207265
80100140:	61797320 	addi	s3,v1,31073
80100144:	74686174 	jalx	0x8185a1d1
80100148:	20546f6d 	.word	0x6d6f5420
8010014c:	62612773 	.word	0x73276162
80100150:	20636869 	.word	0x69686320
80100154:	6c64686f 	.word	0x6f68646c
80100158:	6f640000 	.word	0x646f
8010015c:	00000000 	nop
80100160:	6c657474 	jalx	0x81d195b1
80100164:	65722061 	.word	0x61207265
80100168:	64647265 	.word	0x65726464
8010016c:	73736564 	.word	0x64657373
80100170:	20746f20 	addi	t7,v1,29728
80100174:	546f6d62 	.word	0x626d6f54
80100178:	612e0000 	.word	0x2e61
8010017c:	636f756e 	.word	0x6e756f63
80100180:	74727920 	addi	t9,v1,29300
80100184:	7768656e 	.word	0x6e656877
80100188:	205a6970 	.word	0x70695a20
8010018c:	706f2066 	.word	0x66206f70
80100190:	696e6473 	.word	0x73646e69
80100194:	2061206d 	.word	0x6d206120
80100198:	79737465 	.word	0x65747379
8010019c:	72696f75 	jalx	0x85bda5c9
801001a0:	73000000 	.word	0x73
801001a4:	546f6d62 	.word	0x626d6f54
801001a8:	61206973 	.word	0x73692061
801001ac:	206c6976 	jalx	0x89a5b081
801001b0:	696e6720 	addi	a3,v1,28265
801001b4:	70656163 	.word	0x63616570
801001b8:	6566756c 	.word	0x6c756665
801001bc:	6c792069 	.word	0x6920796c
801001c0:	6e207468 	.word	0x6874206e
801001c4:	65006800 	.word	0x680065
801001c8:	e0ffbd27 	addiu	sp,sp,-32
801001cc:	1800b2af 	sw	s2,24(sp)
801001d0:	0f80123c 	lui	s2,0x800f
801001d4:	1400b1af 	sw	s1,20(sp)
801001d8:	78f45126 	addiu	s1,s2,-2952
801001dc:	21202002 	move	a0,s1
801001e0:	801f053c 	lui	a1,0x1f80
801001e4:	03000224 	li	v0,3
801001e8:	1000b0af 	sw	s0,16(sp)
801001ec:	0c80103c 	lui	s0,0x800c
801001f0:	3801a38c 	lw	v1,312(a1)
801001f4:	00080624 	li	a2,2048
801001f8:	1c00bfaf 	sw	ra,28(sp)
801001fc:	6e0062a0 	sb	v0,110(v1)
80100200:	3801a28c 	lw	v0,312(a1)
80100204:	f0e0058e 	lw	a1,-7952(s0)
80100208:	6e004290 	lbu	v0,110(v0)
8010020c:	f0e01026 	addiu	s0,s0,-7952
80100210:	1077000c 	jal	0x8001dc40
80100214:	2128a200 	addu	a1,a1,v0
80100218:	1880043c 	lui	a0,0x8018
8010021c:	00a08434 	ori	a0,a0,0xa000
80100220:	78f4438e 	lw	v1,-2952(s2)
80100224:	0800058e 	lw	a1,8(s0)
80100228:	0400268e 	lw	a2,4(s1)
8010022c:	c2120300 	srl	v0,v1,0xb
80100230:	2128a200 	addu	a1,a1,v0
80100234:	1077000c 	jal	0x8001dc40
80100238:	2330c300 	subu	a2,a2,v1
8010023c:	1880043c 	lui	a0,0x8018
80100240:	00a08434 	ori	a0,a0,0xa000
80100244:	1f00053c 	lui	a1,0x1f
80100248:	a113010c 	jal	0x80044e84
8010024c:	0080a534 	ori	a1,a1,0x8000
80100250:	1880043c 	lui	a0,0x8018
80100254:	00a08434 	ori	a0,a0,0xa000
80100258:	0800228e 	lw	v0,8(s1)
8010025c:	1000058e 	lw	a1,16(s0)
80100260:	0c00268e 	lw	a2,12(s1)
80100264:	c21a0200 	srl	v1,v0,0xb
80100268:	2128a300 	addu	a1,a1,v1
8010026c:	2330c200 	subu	a2,a2,v0
80100270:	0a80023c 	lui	v0,0x800a
80100274:	1077000c 	jal	0x8001dc40
80100278:	c83e43ac 	sw	v1,16072(v0)
8010027c:	0c80023c 	lui	v0,0x800c
80100280:	9ef84494 	lhu	a0,-1890(v0)
80100284:	2f000524 	li	a1,47
80100288:	0f008430 	andi	a0,a0,0xf
8010028c:	9614010c 	jal	0x80045258
80100290:	40200400 	sll	a0,a0,0x1
80100294:	14002526 	addiu	a1,s1,20
80100298:	1000268e 	lw	a2,16(s1)
8010029c:	00000000 	nop
801002a0:	1200c018 	blez	a2,0x801002ec
801002a4:	21200000 	move	a0,zero
801002a8:	0f80023c 	lui	v0,0x800f
801002ac:	58cf4924 	addiu	t1,v0,-12456
801002b0:	ff00083c 	lui	t0,0xff
801002b4:	ffff0835 	ori	t0,t0,0xffff
801002b8:	1880073c 	lui	a3,0x8018
801002bc:	00a0e734 	ori	a3,a3,0xa000
801002c0:	0000a38c 	lw	v1,0(a1)
801002c4:	01008424 	addiu	a0,a0,1
801002c8:	02160300 	srl	v0,v1,0x18
801002cc:	80100200 	sll	v0,v0,0x2
801002d0:	21104900 	addu	v0,v0,t1
801002d4:	24186800 	and	v1,v1,t0
801002d8:	21186700 	addu	v1,v1,a3
801002dc:	000043ac 	sw	v1,0(v0)
801002e0:	2a108600 	slt	v0,a0,a2
801002e4:	f6ff4014 	bnez	v0,0x801002c0
801002e8:	0400a524 	addiu	a1,a1,4
801002ec:	801f033c 	lui	v1,0x1f80
801002f0:	01000224 	li	v0,1
801002f4:	9b0162a0 	sb	v0,411(v1)
801002f8:	ed47010c 	jal	0x80051fb4
801002fc:	00000000 	nop
80100300:	1c00bf8f 	lw	ra,28(sp)
80100304:	1800b28f 	lw	s2,24(sp)
80100308:	1400b18f 	lw	s1,20(sp)
8010030c:	1000b08f 	lw	s0,16(sp)
80100310:	0800e003 	jr	ra
80100314:	2000bd27 	addiu	sp,sp,32
80100318:	801f023c 	lui	v0,0x1f80
8010031c:	3801448c 	lw	a0,312(v0)
80100320:	e0ffbd27 	addiu	sp,sp,-32
80100324:	1800bfaf 	sw	ra,24(sp)
80100328:	1400b1af 	sw	s1,20(sp)
8010032c:	1000b0af 	sw	s0,16(sp)
80100330:	60008284 	lh	v0,96(a0)
80100334:	60008394 	lhu	v1,96(a0)
80100338:	3f004014 	bnez	v0,0x80100438
8010033c:	ffff6224 	addiu	v0,v1,-1
80100340:	1080043c 	lui	a0,0x8010
80100344:	5799000c 	jal	0x8002655c
80100348:	00048424 	addiu	a0,a0,1024
8010034c:	0f80043c 	lui	a0,0x800f
80100350:	3828040c 	jal	0x8010a0e0
80100354:	18248424 	addiu	a0,a0,9240
80100358:	02ec010c 	jal	0x8007b008
8010035c:	00000000 	nop
80100360:	801f033c 	lui	v1,0x1f80
80100364:	01000224 	li	v0,1
80100368:	0f80053c 	lui	a1,0x800f
8010036c:	340262a0 	sb	v0,564(v1)
80100370:	0880a390 	lbu	v1,-32760(a1)
80100374:	00000000 	nop
80100378:	06006010 	beqz	v1,0x80100394
8010037c:	0880a424 	addiu	a0,a1,-32760
80100380:	01000224 	li	v0,1
80100384:	06006210 	beq	v1,v0,0x801003a0
80100388:	00000000 	nop
8010038c:	dc240408 	j	0x80109370
80100390:	00000000 	nop
80100394:	01000224 	li	v0,1
80100398:	db240408 	j	0x8010936c
8010039c:	0880a2a0 	sb	v0,-32760(a1)
801003a0:	64008290 	lbu	v0,100(a0)
801003a4:	00000000 	nop
801003a8:	05004010 	beqz	v0,0x801003c0
801003ac:	00000000 	nop
801003b0:	07004310 	beq	v0,v1,0x801003d0
801003b4:	00000000 	nop
801003b8:	dc240408 	j	0x80109370
801003bc:	00000000 	nop
801003c0:	ecb8010c 	jal	0x8006e3b0
801003c4:	38008524 	addiu	a1,a0,56
801003c8:	dc240408 	j	0x80109370
801003cc:	00000000 	nop
801003d0:	640080a0 	sb	zero,100(a0)
801003d4:	a0d6010c 	jal	0x80075a80
801003d8:	05001024 	li	s0,5
801003dc:	0c80023c 	lui	v0,0x800c
801003e0:	70f85124 	addiu	s1,v0,-1936
801003e4:	44012292 	lbu	v0,324(s1)
801003e8:	00000000 	nop
801003ec:	04005010 	beq	v0,s0,0x80100400
801003f0:	00000000 	nop
801003f4:	0f80043c 	lui	a0,0x800f
801003f8:	ff2f040c 	jal	0x8010bffc
801003fc:	18d08424 	addiu	a0,a0,-12264
80100400:	0f80043c 	lui	a0,0x800f
80100404:	f827040c 	jal	0x80109fe0
80100408:	18248424 	addiu	a0,a0,9240
8010040c:	12f0000c 	jal	0x8003c048
80100410:	00000000 	nop
80100414:	44012292 	lbu	v0,324(s1)
80100418:	00000000 	nop
8010041c:	03005010 	beq	v0,s0,0x8010042c
80100420:	0f80043c 	lui	a0,0x800f
80100424:	9b30040c 	jal	0x8010c26c
80100428:	18d08424 	addiu	a0,a0,-12264
8010042c:	801f023c 	lui	v0,0x1f80
80100430:	f6240408 	j	0x801093d8
80100434:	340240a0 	sb	zero,564(v0)
80100438:	600082a4 	sh	v0,96(a0)
8010043c:	801f103c 	lui	s0,0x1f80
80100440:	3801058e 	lw	a1,312(s0)
80100444:	00000000 	nop
80100448:	5200a394 	lhu	v1,82(a1)
8010044c:	01000224 	li	v0,1
80100450:	09006210 	beq	v1,v0,0x80100478
80100454:	02006228 	slti	v0,v1,2
80100458:	11004010 	beqz	v0,0x801004a0
8010045c:	00000000 	nop
80100460:	0f006014 	bnez	v1,0x801004a0
80100464:	0e000424 	li	a0,14
80100468:	c775000c 	jal	0x8001d71c
8010046c:	6200a0a4 	sh	zero,98(a1)
80100470:	09250408 	j	0x80109424
80100474:	00000000 	nop
80100478:	e731040c 	jal	0x8010c79c
8010047c:	00000000 	nop
80100480:	07004010 	beqz	v0,0x801004a0
80100484:	00000000 	nop
80100488:	3801038e 	lw	v1,312(s0)
8010048c:	00000000 	nop
80100490:	52006294 	lhu	v0,82(v1)
80100494:	00000000 	nop
80100498:	01004224 	addiu	v0,v0,1
8010049c:	520062a4 	sh	v0,82(v1)
801004a0:	1800bf8f 	lw	ra,24(sp)
801004a4:	1400b18f 	lw	s1,20(sp)
801004a8:	1000b08f 	lw	s0,16(sp)
801004ac:	0800e003 	jr	ra
801004b0:	2000bd27 	addiu	sp,sp,32
801004b4:	801f023c 	lui	v0,0x1f80
801004b8:	3801428c 	lw	v0,312(v0)
801004bc:	e0ffbd27 	addiu	sp,sp,-32
801004c0:	1c00bfaf 	sw	ra,28(sp)
801004c4:	1800b2af 	sw	s2,24(sp)
801004c8:	1400b1af 	sw	s1,20(sp)
801004cc:	1000b0af 	sw	s0,16(sp)
801004d0:	50004394 	lhu	v1,80(v0)
801004d4:	00000000 	nop
801004d8:	0500622c 	sltiu	v0,v1,5
801004dc:	af004010 	beqz	v0,0x8010079c
801004e0:	1180023c 	lui	v0,0x8011
801004e4:	a08f4224 	addiu	v0,v0,-28768
801004e8:	80180300 	sll	v1,v1,0x2
801004ec:	21186200 	addu	v1,v1,v0
801004f0:	0000628c 	lw	v0,0(v1)
801004f4:	00000000 	nop
801004f8:	08004000 	jr	v0
801004fc:	00000000 	nop
80100500:	ff00043c 	lui	a0,0xff
80100504:	ffff8434 	ori	a0,a0,0xffff
80100508:	21280000 	move	a1,zero
8010050c:	72fa010c 	jal	0x8007e9c8
80100510:	2130a000 	move	a2,a1
80100514:	1180043c 	lui	a0,0x8011
80100518:	64918424 	addiu	a0,a0,-28316
8010051c:	21280000 	move	a1,zero
80100520:	2130a000 	move	a2,a1
80100524:	f512010c 	jal	0x80044bd4
80100528:	03000724 	li	a3,3
8010052c:	63ec010c 	jal	0x8007b18c
80100530:	21900000 	move	s2,zero
80100534:	b7e5010c 	jal	0x800796dc
80100538:	00000000 	nop
8010053c:	84e1010c 	jal	0x80078610
80100540:	00000000 	nop
80100544:	0f80043c 	lui	a0,0x800f
80100548:	352a040c 	jal	0x8010a8d4
8010054c:	18248424 	addiu	a0,a0,9240
80100550:	1180023c 	lui	v0,0x8011
80100554:	8cc95124 	addiu	s1,v0,-13940
80100558:	08003026 	addiu	s0,s1,8
8010055c:	03000424 	li	a0,3
80100560:	21288000 	move	a1,a0
80100564:	60ea010c 	jal	0x8007a980
80100568:	01000624 	li	a2,1
8010056c:	00002396 	lhu	v1,0(s1)
80100570:	00000000 	nop
80100574:	2e0043a4 	sh	v1,46(v0)
80100578:	faff0396 	lhu	v1,-6(s0)
8010057c:	0c003126 	addiu	s1,s1,12
80100580:	320043a4 	sh	v1,50(v0)
80100584:	fcff0396 	lhu	v1,-4(s0)
80100588:	01005226 	addiu	s2,s2,1
8010058c:	360043a4 	sh	v1,54(v0)
80100590:	0000038e 	lw	v1,0(s0)
80100594:	00000000 	nop
80100598:	1c0043ac 	sw	v1,28(v0)
8010059c:	0300422a 	slti	v0,s2,3
801005a0:	eeff4014 	bnez	v0,0x8010055c
801005a4:	0c001026 	addiu	s0,s0,12
801005a8:	0f80103c 	lui	s0,0x800f
801005ac:	08801026 	addiu	s0,s0,-32760
801005b0:	21200002 	move	a0,s0
801005b4:	1180053c 	lui	a1,0x8011
801005b8:	f4b2010c 	jal	0x8006cbd0
801005bc:	5cc9a524 	addiu	a1,a1,-13988
801005c0:	21200002 	move	a0,s0
801005c4:	ecb8010c 	jal	0x8006e3b0
801005c8:	38008524 	addiu	a1,a0,56
801005cc:	801f103c 	lui	s0,0x1f80
801005d0:	3801038e 	lw	v1,312(s0)
801005d4:	00000000 	nop
801005d8:	50006294 	lhu	v0,80(v1)
801005dc:	00000000 	nop
801005e0:	01004224 	addiu	v0,v0,1
801005e4:	90d4010c 	jal	0x80075240
801005e8:	500062a4 	sh	v0,80(v1)
801005ec:	3801038e 	lw	v1,312(s0)
801005f0:	1e000224 	li	v0,30
801005f4:	600062a4 	sh	v0,96(v1)
801005f8:	1f000224 	li	v0,31
801005fc:	520060a4 	sh	zero,82(v1)
80100600:	540060a4 	sh	zero,84(v1)
80100604:	6c0062a0 	sb	v0,108(v1)
80100608:	801f033c 	lui	v1,0x1f80
8010060c:	01000224 	li	v0,1
80100610:	ce250408 	j	0x80109738
80100614:	370162a0 	sb	v0,311(v1)
80100618:	801f103c 	lui	s0,0x1f80
8010061c:	3801028e 	lw	v0,312(s0)
80100620:	21280000 	move	a1,zero
80100624:	6c004290 	lbu	v0,108(v0)
80100628:	2130a000 	move	a2,a1
8010062c:	c0100200 	sll	v0,v0,0x3
80100630:	ff004230 	andi	v0,v0,0xff
80100634:	00240200 	sll	a0,v0,0x10
80100638:	001a0200 	sll	v1,v0,0x8
8010063c:	25208300 	or	a0,a0,v1
80100640:	72fa010c 	jal	0x8007e9c8
80100644:	25208200 	or	a0,a0,v0
80100648:	3801038e 	lw	v1,312(s0)
8010064c:	00000000 	nop
80100650:	6c006290 	lbu	v0,108(v1)
80100654:	00000000 	nop
80100658:	ffff4224 	addiu	v0,v0,-1
8010065c:	6c0062a0 	sb	v0,108(v1)
80100660:	3801048e 	lw	a0,312(s0)
80100664:	00000000 	nop
80100668:	6c008290 	lbu	v0,108(a0)
8010066c:	00000000 	nop
80100670:	37004014 	bnez	v0,0x80100750
80100674:	1f000324 	li	v1,31
80100678:	50008294 	lhu	v0,80(a0)
8010067c:	6c0083a0 	sb	v1,108(a0)
80100680:	01004224 	addiu	v0,v0,1
80100684:	bb250408 	j	0x801096ec
80100688:	500082a4 	sh	v0,80(a0)
8010068c:	ad24040c 	jal	0x801092b4
80100690:	00000000 	nop
80100694:	0c80023c 	lui	v0,0x800c
80100698:	39f84290 	lbu	v0,-1991(v0)
8010069c:	00000000 	nop
801006a0:	07004014 	bnez	v0,0x801006c0
801006a4:	801f023c 	lui	v0,0x1f80
801006a8:	0e80023c 	lui	v0,0x800e
801006ac:	687e4294 	lhu	v0,32360(v0)
801006b0:	00000000 	nop
801006b4:	08004230 	andi	v0,v0,0x8
801006b8:	38004010 	beqz	v0,0x8010079c
801006bc:	801f023c 	lui	v0,0x1f80
801006c0:	3801438c 	lw	v1,312(v0)
801006c4:	00000000 	nop
801006c8:	50006294 	lhu	v0,80(v1)
801006cc:	00000000 	nop
801006d0:	01004224 	addiu	v0,v0,1
801006d4:	ce250408 	j	0x80109738
801006d8:	500062a4 	sh	v0,80(v1)
801006dc:	801f103c 	lui	s0,0x1f80
801006e0:	3801028e 	lw	v0,312(s0)
801006e4:	21280000 	move	a1,zero
801006e8:	6c004290 	lbu	v0,108(v0)
801006ec:	2130a000 	move	a2,a1
801006f0:	c0100200 	sll	v0,v0,0x3
801006f4:	23100200 	negu	v0,v0
801006f8:	ff004230 	andi	v0,v0,0xff
801006fc:	00240200 	sll	a0,v0,0x10
80100700:	001a0200 	sll	v1,v0,0x8
80100704:	25208300 	or	a0,a0,v1
80100708:	72fa010c 	jal	0x8007e9c8
8010070c:	25208200 	or	a0,a0,v0
80100710:	3801038e 	lw	v1,312(s0)
80100714:	00000000 	nop
80100718:	6c006290 	lbu	v0,108(v1)
8010071c:	00000000 	nop
80100720:	ffff4224 	addiu	v0,v0,-1
80100724:	6c0062a0 	sb	v0,108(v1)
80100728:	3801038e 	lw	v1,312(s0)
8010072c:	00000000 	nop
80100730:	6c006290 	lbu	v0,108(v1)
80100734:	00000000 	nop
80100738:	05004014 	bnez	v0,0x80100750
8010073c:	00000000 	nop
80100740:	50006294 	lhu	v0,80(v1)
80100744:	00000000 	nop
80100748:	01004224 	addiu	v0,v0,1
8010074c:	500062a4 	sh	v0,80(v1)
80100750:	ad24040c 	jal	0x801092b4
80100754:	00000000 	nop
80100758:	ce250408 	j	0x80109738
8010075c:	00000000 	nop
80100760:	cb73000c 	jal	0x8001cf2c
80100764:	00000000 	nop
80100768:	801f023c 	lui	v0,0x1f80
8010076c:	3801438c 	lw	v1,312(v0)
80100770:	801f023c 	lui	v0,0x1f80
80100774:	370140a0 	sb	zero,311(v0)
80100778:	4c006494 	lhu	a0,76(v1)
8010077c:	0c80023c 	lui	v0,0x800c
80100780:	4e0060a4 	sh	zero,78(v1)
80100784:	500060a4 	sh	zero,80(v1)
80100788:	520060a4 	sh	zero,82(v1)
8010078c:	540060a4 	sh	zero,84(v1)
80100790:	01008424 	addiu	a0,a0,1
80100794:	4c0064a4 	sh	a0,76(v1)
80100798:	b4f940a0 	sb	zero,-1612(v0)
8010079c:	1c00bf8f 	lw	ra,28(sp)
801007a0:	1800b28f 	lw	s2,24(sp)
801007a4:	1400b18f 	lw	s1,20(sp)
801007a8:	1000b08f 	lw	s0,16(sp)
801007ac:	0800e003 	jr	ra
801007b0:	2000bd27 	addiu	sp,sp,32
801007b4:	e0ffbd27 	addiu	sp,sp,-32
801007b8:	1400b1af 	sw	s1,20(sp)
801007bc:	0f80113c 	lui	s1,0x800f
801007c0:	1800b2af 	sw	s2,24(sp)
801007c4:	78f43226 	addiu	s2,s1,-2952
801007c8:	21204002 	move	a0,s2
801007cc:	801f023c 	lui	v0,0x1f80
801007d0:	1000b0af 	sw	s0,16(sp)
801007d4:	0c80103c 	lui	s0,0x800c
801007d8:	3801428c 	lw	v0,312(v0)
801007dc:	f0e0058e 	lw	a1,-7952(s0)
801007e0:	00080624 	li	a2,2048
801007e4:	1c00bfaf 	sw	ra,28(sp)
801007e8:	6e004290 	lbu	v0,110(v0)
801007ec:	f0e01026 	addiu	s0,s0,-7952
801007f0:	1077000c 	jal	0x8001dc40
801007f4:	2128a200 	addu	a1,a1,v0
801007f8:	1880043c 	lui	a0,0x8018
801007fc:	00a08434 	ori	a0,a0,0xa000
80100800:	78f4238e 	lw	v1,-2952(s1)
80100804:	0800058e 	lw	a1,8(s0)
80100808:	0400468e 	lw	a2,4(s2)
8010080c:	c2120300 	srl	v0,v1,0xb
80100810:	2128a200 	addu	a1,a1,v0
80100814:	1077000c 	jal	0x8001dc40
80100818:	2330c300 	subu	a2,a2,v1
8010081c:	1880043c 	lui	a0,0x8018
80100820:	00a08434 	ori	a0,a0,0xa000
80100824:	1f00053c 	lui	a1,0x1f
80100828:	a113010c 	jal	0x80044e84
8010082c:	0080a534 	ori	a1,a1,0x8000
80100830:	1c00bf8f 	lw	ra,28(sp)
80100834:	1800b28f 	lw	s2,24(sp)
80100838:	1400b18f 	lw	s1,20(sp)
8010083c:	1000b08f 	lw	s0,16(sp)
80100840:	0800e003 	jr	ra
80100844:	2000bd27 	addiu	sp,sp,32
80100848:	e8ffbd27 	addiu	sp,sp,-24
8010084c:	0f80053c 	lui	a1,0x800f
80100850:	0880a390 	lbu	v1,-32760(a1)
80100854:	0880a424 	addiu	a0,a1,-32760
80100858:	06006010 	beqz	v1,0x80100874
8010085c:	1000bfaf 	sw	ra,16(sp)
80100860:	01000224 	li	v0,1
80100864:	06006210 	beq	v1,v0,0x80100880
80100868:	00000000 	nop
8010086c:	14260408 	j	0x80109850
80100870:	00000000 	nop
80100874:	01000224 	li	v0,1
80100878:	13260408 	j	0x8010984c
8010087c:	0880a2a0 	sb	v0,-32760(a1)
80100880:	64008290 	lbu	v0,100(a0)
80100884:	00000000 	nop
80100888:	05004010 	beqz	v0,0x801008a0
8010088c:	00000000 	nop
80100890:	07004310 	beq	v0,v1,0x801008b0
80100894:	00000000 	nop
80100898:	14260408 	j	0x80109850
8010089c:	00000000 	nop
801008a0:	ecb8010c 	jal	0x8006e3b0
801008a4:	38008524 	addiu	a1,a0,56
801008a8:	14260408 	j	0x80109850
801008ac:	00000000 	nop
801008b0:	640080a0 	sb	zero,100(a0)
801008b4:	1000bf8f 	lw	ra,16(sp)
801008b8:	00000000 	nop
801008bc:	0800e003 	jr	ra
801008c0:	1800bd27 	addiu	sp,sp,24
801008c4:	e0ffbd27 	addiu	sp,sp,-32
801008c8:	1180023c 	lui	v0,0x8011
801008cc:	1400b1af 	sw	s1,20(sp)
801008d0:	8cc95124 	addiu	s1,v0,-13940
801008d4:	1800b2af 	sw	s2,24(sp)
801008d8:	21900000 	move	s2,zero
801008dc:	1000b0af 	sw	s0,16(sp)
801008e0:	08003026 	addiu	s0,s1,8
801008e4:	1c00bfaf 	sw	ra,28(sp)
801008e8:	03000424 	li	a0,3
801008ec:	21288000 	move	a1,a0
801008f0:	60ea010c 	jal	0x8007a980
801008f4:	01000624 	li	a2,1
801008f8:	00002396 	lhu	v1,0(s1)
801008fc:	00000000 	nop
80100900:	2e0043a4 	sh	v1,46(v0)
80100904:	faff0396 	lhu	v1,-6(s0)
80100908:	0c003126 	addiu	s1,s1,12
8010090c:	320043a4 	sh	v1,50(v0)
80100910:	fcff0396 	lhu	v1,-4(s0)
80100914:	01005226 	addiu	s2,s2,1
80100918:	360043a4 	sh	v1,54(v0)
8010091c:	0000038e 	lw	v1,0(s0)
80100920:	00000000 	nop
80100924:	1c0043ac 	sw	v1,28(v0)
80100928:	0300422a 	slti	v0,s2,3
8010092c:	eeff4014 	bnez	v0,0x801008e8
80100930:	0c001026 	addiu	s0,s0,12
80100934:	1c00bf8f 	lw	ra,28(sp)
80100938:	1800b28f 	lw	s2,24(sp)
8010093c:	1400b18f 	lw	s1,20(sp)
80100940:	1000b08f 	lw	s0,16(sp)
80100944:	0800e003 	jr	ra
80100948:	2000bd27 	addiu	sp,sp,32
8010094c:	e8ffbd27 	addiu	sp,sp,-24
80100950:	0f80043c 	lui	a0,0x800f
80100954:	1000bfaf 	sw	ra,16(sp)
80100958:	f827040c 	jal	0x80109fe0
8010095c:	18248424 	addiu	a0,a0,9240
80100960:	12f0000c 	jal	0x8003c048
80100964:	00000000 	nop
80100968:	0c80023c 	lui	v0,0x800c
8010096c:	b4f94390 	lbu	v1,-1612(v0)
80100970:	05000224 	li	v0,5
80100974:	04006210 	beq	v1,v0,0x80100988
80100978:	00000000 	nop
8010097c:	0f80043c 	lui	a0,0x800f
80100980:	9b30040c 	jal	0x8010c26c
80100984:	18d08424 	addiu	a0,a0,-12264
80100988:	1000bf8f 	lw	ra,16(sp)
8010098c:	00000000 	nop
80100990:	0800e003 	jr	ra
80100994:	1800bd27 	addiu	sp,sp,24
80100998:	e8ffbd27 	addiu	sp,sp,-24
8010099c:	1000b0af 	sw	s0,16(sp)
801009a0:	801f103c 	lui	s0,0x1f80
801009a4:	3801048e 	lw	a0,312(s0)
801009a8:	1400bfaf 	sw	ra,20(sp)
801009ac:	52008394 	lhu	v1,82(a0)
801009b0:	01000224 	li	v0,1
801009b4:	0a006210 	beq	v1,v0,0x801009e0
801009b8:	02006228 	slti	v0,v1,2
801009bc:	12004010 	beqz	v0,0x80100a08
801009c0:	00000000 	nop
801009c4:	10006014 	bnez	v1,0x80100a08
801009c8:	00000000 	nop
801009cc:	620080a4 	sh	zero,98(a0)
801009d0:	c775000c 	jal	0x8001d71c
801009d4:	0e000424 	li	a0,14
801009d8:	63260408 	j	0x8010998c
801009dc:	00000000 	nop
801009e0:	e731040c 	jal	0x8010c79c
801009e4:	00000000 	nop
801009e8:	07004010 	beqz	v0,0x80100a08
801009ec:	00000000 	nop
801009f0:	3801038e 	lw	v1,312(s0)
801009f4:	00000000 	nop
801009f8:	52006294 	lhu	v0,82(v1)
801009fc:	00000000 	nop
80100a00:	01004224 	addiu	v0,v0,1
80100a04:	520062a4 	sh	v0,82(v1)
80100a08:	1400bf8f 	lw	ra,20(sp)
80100a0c:	1000b08f 	lw	s0,16(sp)
80100a10:	0800e003 	jr	ra
80100a14:	1800bd27 	addiu	sp,sp,24
80100a18:	e8ffbd27 	addiu	sp,sp,-24
80100a1c:	21688000 	move	t5,a0
80100a20:	801f093c 	lui	t1,0x1f80
80100a24:	04002935 	ori	t1,t1,0x4
80100a28:	0c80023c 	lui	v0,0x800c
80100a2c:	44f54a8c 	lw	t2,-2748(v0)
80100a30:	2110c000 	move	v0,a2
80100a34:	ffffc624 	addiu	a2,a2,-1
80100a38:	a5004010 	beqz	v0,0x80100cd0
80100a3c:	801f0e3c 	lui	t6,0x1f80
80100a40:	f0000f3c 	lui	t7,0xf0
80100a44:	f0f0ef35 	ori	t7,t7,0xf0f0
80100a48:	22008b24 	addiu	t3,a0,34
80100a4c:	24004825 	addiu	t0,t2,36
80100a50:	1000a0c9 	lwc2	$0,16(t5)
80100a54:	1400ac8d 	lw	t4,20(t5)
80100a58:	1800a2c9 	lwc2	$2,24(t5)
80100a5c:	00088c48 	mtc2	t4,$1
80100a60:	1c00a4c9 	lwc2	$4,28(t5)
80100a64:	02640c00 	srl	t4,t4,0x10
80100a68:	00188c48 	mtc2	t4,$3
80100a6c:	2000a5c9 	lwc2	$5,32(t5)
80100a70:	0000a28d 	lw	v0,0(t5)
80100a74:	00000000 	nop
80100a78:	e0ff02ad 	sw	v0,-32(t0)
80100a7c:	3000284a 	c2	0x280030
80100a80:	e6ff628d 	lw	v0,-26(t3)
80100a84:	00000000 	nop
80100a88:	e8ff02ad 	sw	v0,-24(t0)
80100a8c:	eaff628d 	lw	v0,-22(t3)
80100a90:	00000000 	nop
80100a94:	f4ff02ad 	sw	v0,-12(t0)
80100a98:	e2ff638d 	lw	v1,-30(t3)
80100a9c:	00f84c48 	cfc2	t4,$31
80100aa0:	00000000 	nop
80100aa4:	0000ccad 	sw	t4,0(t6)
80100aa8:	0000c28d 	lw	v0,0(t6)
80100aac:	00000000 	nop
80100ab0:	82004004 	bltz	v0,0x80100cbc
80100ab4:	00000000 	nop
80100ab8:	0600404b 	c2	0x1400006
80100abc:	24106f00 	and	v0,v1,t7
80100ac0:	ecff02ad 	sw	v0,-20(t0)
80100ac4:	0000d8e9 	swc2	$24,0(t6)
80100ac8:	0000c28d 	lw	v0,0(t6)
80100acc:	00000000 	nop
80100ad0:	7a004018 	blez	v0,0x80100cbc
80100ad4:	00000000 	nop
80100ad8:	08004ce9 	swc2	$12,8(t2)
80100adc:	14004de9 	swc2	$13,20(t2)
80100ae0:	20004ee9 	swc2	$14,32(t2)
80100ae4:	e4ff0295 	lhu	v0,-28(t0)
80100ae8:	00000000 	nop
80100aec:	4001422c 	sltiu	v0,v0,320
80100af0:	0b004014 	bnez	v0,0x80100b20
80100af4:	00000000 	nop
80100af8:	f0ff0295 	lhu	v0,-16(t0)
80100afc:	00000000 	nop
80100b00:	4001422c 	sltiu	v0,v0,320
80100b04:	06004014 	bnez	v0,0x80100b20
80100b08:	00000000 	nop
80100b0c:	fcff0295 	lhu	v0,-4(t0)
80100b10:	00000000 	nop
80100b14:	4001422c 	sltiu	v0,v0,320
80100b18:	68004010 	beqz	v0,0x80100cbc
80100b1c:	00000000 	nop
80100b20:	e6ff0295 	lhu	v0,-26(t0)
80100b24:	00000000 	nop
80100b28:	f000422c 	sltiu	v0,v0,240
80100b2c:	0b004014 	bnez	v0,0x80100b5c
80100b30:	00000000 	nop
80100b34:	f2ff0295 	lhu	v0,-14(t0)
80100b38:	00000000 	nop
80100b3c:	f000422c 	sltiu	v0,v0,240
80100b40:	06004014 	bnez	v0,0x80100b5c
80100b44:	00000000 	nop
80100b48:	feff0295 	lhu	v0,-2(t0)
80100b4c:	00000000 	nop
80100b50:	f000422c 	sltiu	v0,v0,240
80100b54:	59004010 	beqz	v0,0x80100cbc
80100b58:	00000000 	nop
80100b5c:	00000000 	nop
80100b60:	00110300 	sll	v0,v1,0x4
80100b64:	24104f00 	and	v0,v0,t7
80100b68:	f8ff02ad 	sw	v0,-8(t0)
80100b6c:	021e0300 	srl	v1,v1,0x18
80100b70:	01000224 	li	v0,1
80100b74:	05006210 	beq	v1,v0,0x80100b8c
80100b78:	02000224 	li	v0,2
80100b7c:	18006210 	beq	v1,v0,0x80100be0
80100b80:	0c00a227 	addiu	v0,sp,12
80100b84:	f6260408 	j	0x80109bd8
80100b88:	00000000 	nop
80100b8c:	0000b1eb 	swc2	$17,0(sp)
80100b90:	0400a227 	addiu	v0,sp,4
80100b94:	000052e8 	swc2	$18,0(v0)
80100b98:	0800a227 	addiu	v0,sp,8
80100b9c:	000053e8 	swc2	$19,0(v0)
80100ba0:	0000a78f 	lw	a3,0(sp)
80100ba4:	0400a48f 	lw	a0,4(sp)
80100ba8:	00000000 	nop
80100bac:	2a108700 	slt	v0,a0,a3
80100bb0:	08004010 	beqz	v0,0x80100bd4
80100bb4:	00000000 	nop
80100bb8:	0800a38f 	lw	v1,8(sp)
80100bbc:	00000000 	nop
80100bc0:	2a106700 	slt	v0,v1,a3
80100bc4:	1b004010 	beqz	v0,0x80100c34
80100bc8:	83100300 	sra	v0,v1,0x2
80100bcc:	f3260408 	j	0x80109bcc
80100bd0:	2118e000 	move	v1,a3
80100bd4:	0800a38f 	lw	v1,8(sp)
80100bd8:	f0260408 	j	0x80109bc0
80100bdc:	2a106400 	slt	v0,v1,a0
80100be0:	000051e8 	swc2	$17,0(v0)
80100be4:	1000a227 	addiu	v0,sp,16
80100be8:	000052e8 	swc2	$18,0(v0)
80100bec:	1400a227 	addiu	v0,sp,20
80100bf0:	000053e8 	swc2	$19,0(v0)
80100bf4:	0c00a78f 	lw	a3,12(sp)
80100bf8:	1000a48f 	lw	a0,16(sp)
80100bfc:	00000000 	nop
80100c00:	2a10e400 	slt	v0,a3,a0
80100c04:	04004010 	beqz	v0,0x80100c18
80100c08:	00000000 	nop
80100c0c:	1400a38f 	lw	v1,20(sp)
80100c10:	d8260408 	j	0x80109b60
80100c14:	2a10e300 	slt	v0,a3,v1
80100c18:	1400a38f 	lw	v1,20(sp)
80100c1c:	00000000 	nop
80100c20:	2a108300 	slt	v0,a0,v1
80100c24:	03004010 	beqz	v0,0x80100c34
80100c28:	83100300 	sra	v0,v1,0x2
80100c2c:	21188000 	move	v1,a0
80100c30:	83100300 	sra	v0,v1,0x2
80100c34:	f8260408 	j	0x80109be0
80100c38:	000022ad 	sw	v0,0(t1)
80100c3c:	2d00584b 	c2	0x158002d
80100c40:	000027e9 	swc2	$7,0(t1)
80100c44:	0000228d 	lw	v0,0(t1)
80100c48:	00000000 	nop
80100c4c:	831a0200 	sra	v1,v0,0xa
80100c50:	07106200 	srav	v0,v0,v1
80100c54:	401a0300 	sll	v1,v1,0x9
80100c58:	21104300 	addu	v0,v0,v1
80100c5c:	000022ad 	sw	v0,0(t1)
80100c60:	fcff4224 	addiu	v0,v0,-4
80100c64:	fc07422c 	sltiu	v0,v0,2044
80100c68:	02004014 	bnez	v0,0x80100c74
80100c6c:	ffff0224 	li	v0,-1
80100c70:	000022ad 	sw	v0,0(t1)
80100c74:	0000228d 	lw	v0,0(t1)
80100c78:	00000000 	nop
80100c7c:	0f004004 	bltz	v0,0x80100cbc
80100c80:	0009043c 	lui	a0,0x900
80100c84:	00006295 	lhu	v0,0(t3)
80100c88:	00000000 	nop
80100c8c:	000002a5 	sh	v0,0(t0)
80100c90:	0000228d 	lw	v0,0(t1)
80100c94:	00000000 	nop
80100c98:	80100200 	sll	v0,v0,0x2
80100c9c:	2110a200 	addu	v0,a1,v0
80100ca0:	0000438c 	lw	v1,0(v0)
80100ca4:	00000000 	nop
80100ca8:	25186400 	or	v1,v1,a0
80100cac:	000043ad 	sw	v1,0(t2)
80100cb0:	00004aac 	sw	t2,0(v0)
80100cb4:	28000825 	addiu	t0,t0,40
80100cb8:	28004a25 	addiu	t2,t2,40
80100cbc:	24006b25 	addiu	t3,t3,36
80100cc0:	2400ad25 	addiu	t5,t5,36
80100cc4:	2110c000 	move	v0,a2
80100cc8:	61ff4014 	bnez	v0,0x80100a50
80100ccc:	ffffc624 	addiu	a2,a2,-1
80100cd0:	0c80023c 	lui	v0,0x800c
80100cd4:	44f54aac 	sw	t2,-2748(v0)
80100cd8:	2110a001 	move	v0,t5
80100cdc:	0800e003 	jr	ra
80100ce0:	1800bd27 	addiu	sp,sp,24
80100ce4:	e0ffbd27 	addiu	sp,sp,-32
80100ce8:	21688000 	move	t5,a0
80100cec:	801f093c 	lui	t1,0x1f80
80100cf0:	04002935 	ori	t1,t1,0x4
80100cf4:	0c80023c 	lui	v0,0x800c
80100cf8:	44f54a8c 	lw	t2,-2748(v0)
80100cfc:	2110c000 	move	v0,a2
80100d00:	ffffc624 	addiu	a2,a2,-1
80100d04:	ca004010 	beqz	v0,0x80101030
80100d08:	801f0e3c 	lui	t6,0x1f80
80100d0c:	f0000f3c 	lui	t7,0xf0
80100d10:	f0f0ef35 	ori	t7,t7,0xf0f0
80100d14:	10008b24 	addiu	t3,a0,16
80100d18:	30004825 	addiu	t0,t2,48
80100d1c:	1800ac8d 	lw	t4,24(t5)
80100d20:	1400a0c9 	lwc2	$0,20(t5)
80100d24:	00088c48 	mtc2	t4,$1
80100d28:	02640c00 	srl	t4,t4,0x10
80100d2c:	00188c48 	mtc2	t4,$3
80100d30:	1c00a2c9 	lwc2	$2,28(t5)
80100d34:	2400ac8d 	lw	t4,36(t5)
80100d38:	2000a4c9 	lwc2	$4,32(t5)
80100d3c:	00288c48 	mtc2	t4,$5
80100d40:	f0ff023c 	lui	v0,0xfff0
80100d44:	0000a38d 	lw	v1,0(t5)
80100d48:	f0f04234 	ori	v0,v0,0xf0f0
80100d4c:	24106200 	and	v0,v1,v0
80100d50:	d4ff02ad 	sw	v0,-44(t0)
80100d54:	3000284a 	c2	0x280030
80100d58:	00190300 	sll	v1,v1,0x4
80100d5c:	24186f00 	and	v1,v1,t7
80100d60:	e0ff03ad 	sw	v1,-32(t0)
80100d64:	f4ff638d 	lw	v1,-12(t3)
80100d68:	00f84c48 	cfc2	t4,$31
80100d6c:	00000000 	nop
80100d70:	0000ccad 	sw	t4,0(t6)
80100d74:	0000c28d 	lw	v0,0(t6)
80100d78:	00000000 	nop
80100d7c:	a7004004 	bltz	v0,0x8010101c
80100d80:	00000000 	nop
80100d84:	0600404b 	c2	0x1400006
80100d88:	f8ff628d 	lw	v0,-8(t3)
80100d8c:	00000000 	nop
80100d90:	dcff02ad 	sw	v0,-36(t0)
80100d94:	0000d8e9 	swc2	$24,0(t6)
80100d98:	0000c28d 	lw	v0,0(t6)
80100d9c:	00000000 	nop
80100da0:	9e004018 	blez	v0,0x8010101c
80100da4:	00000000 	nop
80100da8:	08004ce9 	swc2	$12,8(t2)
80100dac:	14004de9 	swc2	$13,20(t2)
80100db0:	20004ee9 	swc2	$14,32(t2)
80100db4:	2400ac8d 	lw	t4,36(t5)
80100db8:	2800a0c9 	lwc2	$0,40(t5)
80100dbc:	02640c00 	srl	t4,t4,0x10
80100dc0:	00088c48 	mtc2	t4,$1
80100dc4:	24106f00 	and	v0,v1,t7
80100dc8:	ecff02ad 	sw	v0,-20(t0)
80100dcc:	0100184a 	c2	0x180001
80100dd0:	00110300 	sll	v0,v1,0x4
80100dd4:	24104f00 	and	v0,v0,t7
80100dd8:	f8ff02ad 	sw	v0,-8(t0)
80100ddc:	fcff628d 	lw	v0,-4(t3)
80100de0:	00000000 	nop
80100de4:	e8ff02ad 	sw	v0,-24(t0)
80100de8:	00f84c48 	cfc2	t4,$31
80100dec:	00000000 	nop
80100df0:	0000ccad 	sw	t4,0(t6)
80100df4:	0000c28d 	lw	v0,0(t6)
80100df8:	00000000 	nop
80100dfc:	87004004 	bltz	v0,0x8010101c
80100e00:	2c004225 	addiu	v0,t2,44
80100e04:	00004ee8 	swc2	$14,0(v0)
80100e08:	d8ff0295 	lhu	v0,-40(t0)
80100e0c:	00000000 	nop
80100e10:	4001422c 	sltiu	v0,v0,320
80100e14:	10004014 	bnez	v0,0x80100e58
80100e18:	00000000 	nop
80100e1c:	e4ff0295 	lhu	v0,-28(t0)
80100e20:	00000000 	nop
80100e24:	4001422c 	sltiu	v0,v0,320
80100e28:	0b004014 	bnez	v0,0x80100e58
80100e2c:	00000000 	nop
80100e30:	f0ff0295 	lhu	v0,-16(t0)
80100e34:	00000000 	nop
80100e38:	4001422c 	sltiu	v0,v0,320
80100e3c:	06004014 	bnez	v0,0x80100e58
80100e40:	00000000 	nop
80100e44:	fcff0295 	lhu	v0,-4(t0)
80100e48:	00000000 	nop
80100e4c:	4001422c 	sltiu	v0,v0,320
80100e50:	72004010 	beqz	v0,0x8010101c
80100e54:	00000000 	nop
80100e58:	daff0295 	lhu	v0,-38(t0)
80100e5c:	00000000 	nop
80100e60:	f000422c 	sltiu	v0,v0,240
80100e64:	10004014 	bnez	v0,0x80100ea8
80100e68:	00000000 	nop
80100e6c:	e6ff0295 	lhu	v0,-26(t0)
80100e70:	00000000 	nop
80100e74:	f000422c 	sltiu	v0,v0,240
80100e78:	0b004014 	bnez	v0,0x80100ea8
80100e7c:	00000000 	nop
80100e80:	f2ff0295 	lhu	v0,-14(t0)
80100e84:	00000000 	nop
80100e88:	f000422c 	sltiu	v0,v0,240
80100e8c:	06004014 	bnez	v0,0x80100ea8
80100e90:	00000000 	nop
80100e94:	feff0295 	lhu	v0,-2(t0)
80100e98:	00000000 	nop
80100e9c:	f000422c 	sltiu	v0,v0,240
80100ea0:	5e004010 	beqz	v0,0x8010101c
80100ea4:	00000000 	nop
80100ea8:	021e0300 	srl	v1,v1,0x18
80100eac:	01000224 	li	v0,1
80100eb0:	05006210 	beq	v1,v0,0x80100ec8
80100eb4:	02000224 	li	v0,2
80100eb8:	1a006210 	beq	v1,v0,0x80100f24
80100ebc:	1000a227 	addiu	v0,sp,16
80100ec0:	cc270408 	j	0x80109f30
80100ec4:	00000000 	nop
80100ec8:	0000b0eb 	swc2	$16,0(sp)
80100ecc:	0400a227 	addiu	v0,sp,4
80100ed0:	000051e8 	swc2	$17,0(v0)
80100ed4:	0800a227 	addiu	v0,sp,8
80100ed8:	000052e8 	swc2	$18,0(v0)
80100edc:	0c00a227 	addiu	v0,sp,12
80100ee0:	000053e8 	swc2	$19,0(v0)
80100ee4:	0400a78f 	lw	a3,4(sp)
80100ee8:	0000a38f 	lw	v1,0(sp)
80100eec:	00000000 	nop
80100ef0:	2a10e300 	slt	v0,a3,v1
80100ef4:	02004010 	beqz	v0,0x80100f00
80100ef8:	00000000 	nop
80100efc:	21386000 	move	a3,v1
80100f00:	0c00a38f 	lw	v1,12(sp)
80100f04:	0800a48f 	lw	a0,8(sp)
80100f08:	00000000 	nop
80100f0c:	2a106400 	slt	v0,v1,a0
80100f10:	1a004010 	beqz	v0,0x80100f7c
80100f14:	2a106700 	slt	v0,v1,a3
80100f18:	21188000 	move	v1,a0
80100f1c:	c6270408 	j	0x80109f18
80100f20:	2a106700 	slt	v0,v1,a3
80100f24:	000050e8 	swc2	$16,0(v0)
80100f28:	1400a227 	addiu	v0,sp,20
80100f2c:	000051e8 	swc2	$17,0(v0)
80100f30:	1800a227 	addiu	v0,sp,24
80100f34:	000052e8 	swc2	$18,0(v0)
80100f38:	1c00a227 	addiu	v0,sp,28
80100f3c:	000053e8 	swc2	$19,0(v0)
80100f40:	1400a78f 	lw	a3,20(sp)
80100f44:	1000a38f 	lw	v1,16(sp)
80100f48:	00000000 	nop
80100f4c:	2a106700 	slt	v0,v1,a3
80100f50:	02004010 	beqz	v0,0x80100f5c
80100f54:	00000000 	nop
80100f58:	21386000 	move	a3,v1
80100f5c:	1c00a38f 	lw	v1,28(sp)
80100f60:	1800a48f 	lw	a0,24(sp)
80100f64:	00000000 	nop
80100f68:	2a108300 	slt	v0,a0,v1
80100f6c:	03004010 	beqz	v0,0x80100f7c
80100f70:	2a10e300 	slt	v0,a3,v1
80100f74:	21188000 	move	v1,a0
80100f78:	2a10e300 	slt	v0,a3,v1
80100f7c:	03004010 	beqz	v0,0x80100f8c
80100f80:	83100300 	sra	v0,v1,0x2
80100f84:	2118e000 	move	v1,a3
80100f88:	83100300 	sra	v0,v1,0x2
80100f8c:	ce270408 	j	0x80109f38
80100f90:	000022ad 	sw	v0,0(t1)
80100f94:	2e00684b 	c2	0x168002e
80100f98:	000027e9 	swc2	$7,0(t1)
80100f9c:	0000228d 	lw	v0,0(t1)
80100fa0:	00000000 	nop
80100fa4:	831a0200 	sra	v1,v0,0xa
80100fa8:	07106200 	srav	v0,v0,v1
80100fac:	401a0300 	sll	v1,v1,0x9
80100fb0:	21104300 	addu	v0,v0,v1
80100fb4:	000022ad 	sw	v0,0(t1)
80100fb8:	fcff4224 	addiu	v0,v0,-4
80100fbc:	fc07422c 	sltiu	v0,v0,2044
80100fc0:	02004014 	bnez	v0,0x80100fcc
80100fc4:	ffff0224 	li	v0,-1
80100fc8:	000022ad 	sw	v0,0(t1)
80100fcc:	0000228d 	lw	v0,0(t1)
80100fd0:	00000000 	nop
80100fd4:	11004004 	bltz	v0,0x8010101c
80100fd8:	000c043c 	lui	a0,0xc00
80100fdc:	0000628d 	lw	v0,0(t3)
80100fe0:	00000000 	nop
80100fe4:	f4ff02ad 	sw	v0,-12(t0)
80100fe8:	02140200 	srl	v0,v0,0x10
80100fec:	000002ad 	sw	v0,0(t0)
80100ff0:	0000228d 	lw	v0,0(t1)
80100ff4:	00000000 	nop
80100ff8:	80100200 	sll	v0,v0,0x2
80100ffc:	2110a200 	addu	v0,a1,v0
80101000:	0000438c 	lw	v1,0(v0)
80101004:	00000000 	nop
80101008:	25186400 	or	v1,v1,a0
8010100c:	000043ad 	sw	v1,0(t2)
80101010:	00004aac 	sw	t2,0(v0)
80101014:	34000825 	addiu	t0,t0,52
80101018:	34004a25 	addiu	t2,t2,52
8010101c:	2c006b25 	addiu	t3,t3,44
80101020:	2c00ad25 	addiu	t5,t5,44
80101024:	2110c000 	move	v0,a2
80101028:	3cff4014 	bnez	v0,0x80100d1c
8010102c:	ffffc624 	addiu	a2,a2,-1
80101030:	0c80023c 	lui	v0,0x800c
80101034:	44f54aac 	sw	t2,-2748(v0)
80101038:	2110a001 	move	v0,t5
8010103c:	0800e003 	jr	ra
80101040:	2000bd27 	addiu	sp,sp,32
80101044:	d8ffbd27 	addiu	sp,sp,-40
80101048:	2400bfaf 	sw	ra,36(sp)
8010104c:	2000b4af 	sw	s4,32(sp)
80101050:	1c00b3af 	sw	s3,28(sp)
80101054:	1800b2af 	sw	s2,24(sp)
80101058:	1400b1af 	sw	s1,20(sp)
8010105c:	1000b0af 	sw	s0,16(sp)
80101060:	06008290 	lbu	v0,6(a0)
80101064:	00000000 	nop
80101068:	2e004010 	beqz	v0,0x80101124
8010106c:	10009124 	addiu	s1,a0,16
80101070:	40100200 	sll	v0,v0,0x1
80101074:	10004224 	addiu	v0,v0,16
80101078:	21988200 	addu	s3,a0,v0
8010107c:	0f80023c 	lui	v0,0x800f
80101080:	801f033c 	lui	v1,0x1f80
80101084:	f8006324 	addiu	v1,v1,248
80101088:	c8d8528c 	lw	s2,-10040(v0)
8010108c:	0c00948c 	lw	s4,12(a0)
80101090:	00006c8c 	lw	t4,0(v1)
80101094:	04006d8c 	lw	t5,4(v1)
80101098:	0000cc48 	ctc2	t4,$0
8010109c:	0008cd48 	ctc2	t5,$1
801010a0:	08006c8c 	lw	t4,8(v1)
801010a4:	0c006d8c 	lw	t5,12(v1)
801010a8:	10006e8c 	lw	t6,16(v1)
801010ac:	0010cc48 	ctc2	t4,$2
801010b0:	0018cd48 	ctc2	t5,$3
801010b4:	0020ce48 	ctc2	t6,$4
801010b8:	801f033c 	lui	v1,0x1f80
801010bc:	f8006324 	addiu	v1,v1,248
801010c0:	14006c8c 	lw	t4,20(v1)
801010c4:	18006d8c 	lw	t5,24(v1)
801010c8:	0028cc48 	ctc2	t4,$5
801010cc:	1c006e8c 	lw	t6,28(v1)
801010d0:	0030cd48 	ctc2	t5,$6
801010d4:	0038ce48 	ctc2	t6,$7
801010d8:	2b103302 	sltu	v0,s1,s3
801010dc:	11004010 	beqz	v0,0x80101124
801010e0:	21284002 	move	a1,s2
801010e4:	00002496 	lhu	a0,0(s1)
801010e8:	02003126 	addiu	s1,s1,2
801010ec:	80200400 	sll	a0,a0,0x2
801010f0:	21208402 	addu	a0,s4,a0
801010f4:	0000908c 	lw	s0,0(a0)
801010f8:	04008424 	addiu	a0,a0,4
801010fc:	6d26040c 	jal	0x801099b4
80101100:	ff000632 	andi	a2,s0,0xff
80101104:	02841000 	srl	s0,s0,0x10
80101108:	21204000 	move	a0,v0
8010110c:	21284002 	move	a1,s2
80101110:	2027040c 	jal	0x80109c80
80101114:	ff000632 	andi	a2,s0,0xff
80101118:	2b103302 	sltu	v0,s1,s3
8010111c:	f1ff4014 	bnez	v0,0x801010e4
80101120:	21284002 	move	a1,s2
80101124:	2400bf8f 	lw	ra,36(sp)
80101128:	2000b48f 	lw	s4,32(sp)
8010112c:	1c00b38f 	lw	s3,28(sp)
80101130:	1800b28f 	lw	s2,24(sp)
80101134:	1400b18f 	lw	s1,20(sp)
80101138:	1000b08f 	lw	s0,16(sp)
8010113c:	0800e003 	jr	ra
80101140:	2800bd27 	addiu	sp,sp,40
80101144:	c0ffbd27 	addiu	sp,sp,-64
80101148:	3400b3af 	sw	s3,52(sp)
8010114c:	21988000 	move	s3,a0
80101150:	3000b2af 	sw	s2,48(sp)
80101154:	0a80123c 	lui	s2,0x800a
80101158:	2800b0af 	sw	s0,40(sp)
8010115c:	801f103c 	lui	s0,0x1f80
80101160:	3c00bfaf 	sw	ra,60(sp)
80101164:	3800b4af 	sw	s4,56(sp)
80101168:	2c00b1af 	sw	s1,44(sp)
8010116c:	0c00628e 	lw	v0,12(s3)
80101170:	d0001026 	addiu	s0,s0,208
80101174:	00004394 	lhu	v1,0(v0)
80101178:	0a80113c 	lui	s1,0x800a
8010117c:	080063a6 	sh	v1,8(s3)
80101180:	02004394 	lhu	v1,2(v0)
80101184:	80570224 	li	v0,22400
80101188:	903f42ae 	sw	v0,16272(s2)
8010118c:	0a0063a6 	sh	v1,10(s3)
80101190:	22000296 	lhu	v0,34(s0)
80101194:	c7010324 	li	v1,455
80101198:	943f23ae 	sw	v1,16276(s1)
8010119c:	0a000386 	lh	v1,10(s0)
801011a0:	00140200 	sll	v0,v0,0x10
801011a4:	03140200 	sra	v0,v0,0x10
801011a8:	23100200 	negu	v0,v0
801011ac:	39fe4224 	addiu	v0,v0,-455
801011b0:	ff0f5430 	andi	s4,v0,0xfff
801011b4:	02000286 	lh	v0,2(s0)
801011b8:	21208002 	move	a0,s4
801011bc:	1400a3af 	sw	v1,20(sp)
801011c0:	a00f020c 	jal	0x80083e80
801011c4:	1000a2af 	sw	v0,16(sp)
801011c8:	903f438e 	lw	v1,16272(s2)
801011cc:	00000000 	nop
801011d0:	18004300 	mult	v0,v1
801011d4:	21208002 	move	a0,s4
801011d8:	1000a28f 	lw	v0,16(sp)
801011dc:	12180000 	mflo	v1
801011e0:	031b0300 	sra	v1,v1,0xc
801011e4:	21104300 	addu	v0,v0,v1
801011e8:	d40f020c 	jal	0x80083f50
801011ec:	1800a2af 	sw	v0,24(sp)
801011f0:	903f438e 	lw	v1,16272(s2)
801011f4:	00000000 	nop
801011f8:	18004300 	mult	v0,v1
801011fc:	22000386 	lh	v1,34(s0)
80101200:	943f228e 	lw	v0,16276(s1)
80101204:	00000000 	nop
80101208:	23104300 	subu	v0,v0,v1
8010120c:	ff0f5430 	andi	s4,v0,0xfff
80101210:	21208002 	move	a0,s4
80101214:	1400a28f 	lw	v0,20(sp)
80101218:	12400000 	mflo	t0
8010121c:	031b0800 	sra	v1,t0,0xc
80101220:	21104300 	addu	v0,v0,v1
80101224:	a00f020c 	jal	0x80083e80
80101228:	1c00a2af 	sw	v0,28(sp)
8010122c:	903f438e 	lw	v1,16272(s2)
80101230:	00000000 	nop
80101234:	18004300 	mult	v0,v1
80101238:	21208002 	move	a0,s4
8010123c:	1000a28f 	lw	v0,16(sp)
80101240:	12180000 	mflo	v1
80101244:	031b0300 	sra	v1,v1,0xc
80101248:	21104300 	addu	v0,v0,v1
8010124c:	d40f020c 	jal	0x80083f50
80101250:	2000a2af 	sw	v0,32(sp)
80101254:	903f438e 	lw	v1,16272(s2)
80101258:	00000000 	nop
8010125c:	18004300 	mult	v0,v1
80101260:	20000486 	lh	a0,32(s0)
80101264:	1400a28f 	lw	v0,20(sp)
80101268:	12180000 	mflo	v1
8010126c:	031b0300 	sra	v1,v1,0xc
80101270:	21104300 	addu	v0,v0,v1
80101274:	a00f020c 	jal	0x80083e80
80101278:	2400a2af 	sw	v0,36(sp)
8010127c:	22000486 	lh	a0,34(s0)
80101280:	02004104 	bgez	v0,0x8010128c
80101284:	21884000 	move	s1,v0
80101288:	23881100 	negu	s1,s1
8010128c:	a00f020c 	jal	0x80083e80
80101290:	23200400 	negu	a0,a0
80101294:	18005100 	mult	v0,s1
80101298:	22000486 	lh	a0,34(s0)
8010129c:	00000000 	nop
801012a0:	23200400 	negu	a0,a0
801012a4:	12180000 	mflo	v1
801012a8:	d40f020c 	jal	0x80083f50
801012ac:	03830300 	sra	s0,v1,0xc
801012b0:	18005100 	mult	v0,s1
801012b4:	12400000 	mflo	t0
801012b8:	903f438e 	lw	v1,16272(s2)
801012bc:	00000000 	nop
801012c0:	18000302 	mult	s0,v1
801012c4:	12200000 	mflo	a0
801012c8:	03130800 	sra	v0,t0,0xc
801012cc:	00000000 	nop
801012d0:	18004300 	mult	v0,v1
801012d4:	66660a3c 	lui	t2,0x6666
801012d8:	67664a35 	ori	t2,t2,0x6667
801012dc:	1000a78f 	lw	a3,16(sp)
801012e0:	80100400 	sll	v0,a0,0x2
801012e4:	21104400 	addu	v0,v0,a0
801012e8:	12180000 	mflo	v1
801012ec:	03840200 	sra	s0,v0,0x10
801012f0:	2338f000 	subu	a3,a3,s0
801012f4:	1800ea00 	mult	a3,t2
801012f8:	1400a98f 	lw	t1,20(sp)
801012fc:	80100300 	sll	v0,v1,0x2
80101300:	21104300 	addu	v0,v0,v1
80101304:	10680000 	mfhi	t5
80101308:	03140200 	sra	v0,v0,0x10
8010130c:	23482201 	subu	t1,t1,v0
80101310:	18002a01 	mult	t1,t2
80101314:	1800a38f 	lw	v1,24(sp)
80101318:	10700000 	mfhi	t6
8010131c:	23187000 	subu	v1,v1,s0
80101320:	00000000 	nop
80101324:	18006a00 	mult	v1,t2
80101328:	2000a58f 	lw	a1,32(sp)
8010132c:	10880000 	mfhi	s1
80101330:	2328b000 	subu	a1,a1,s0
80101334:	00000000 	nop
80101338:	1800aa00 	mult	a1,t2
8010133c:	1c00a68f 	lw	a2,28(sp)
80101340:	2400a88f 	lw	t0,36(sp)
80101344:	21206002 	move	a0,s3
80101348:	2000a5af 	sw	a1,32(sp)
8010134c:	1000a7af 	sw	a3,16(sp)
80101350:	2330c200 	subu	a2,a2,v0
80101354:	23400201 	subu	t0,t0,v0
80101358:	c33f0700 	sra	a3,a3,0x1f
8010135c:	1c00a6af 	sw	a2,28(sp)
80101360:	10600000 	mfhi	t4
80101364:	2400a8af 	sw	t0,36(sp)
80101368:	1400a9af 	sw	t1,20(sp)
8010136c:	1800ca00 	mult	a2,t2
80101370:	1800a3af 	sw	v1,24(sp)
80101374:	03120d00 	sra	v0,t5,0x8
80101378:	23104700 	subu	v0,v0,a3
8010137c:	c34f0900 	sra	t1,t1,0x1f
80101380:	2000a727 	addiu	a3,sp,32
80101384:	1000a2af 	sw	v0,16(sp)
80101388:	c31f0300 	sra	v1,v1,0x1f
8010138c:	03121100 	sra	v0,s1,0x8
80101390:	23104300 	subu	v0,v0,v1
80101394:	c32f0500 	sra	a1,a1,0x1f
80101398:	1800a2af 	sw	v0,24(sp)
8010139c:	10580000 	mfhi	t3
801013a0:	03120c00 	sra	v0,t4,0x8
801013a4:	23104500 	subu	v0,v0,a1
801013a8:	18000a01 	mult	t0,t2
801013ac:	2000a2af 	sw	v0,32(sp)
801013b0:	03120e00 	sra	v0,t6,0x8
801013b4:	23104900 	subu	v0,v0,t1
801013b8:	c3370600 	sra	a2,a2,0x1f
801013bc:	1000a527 	addiu	a1,sp,16
801013c0:	1400a2af 	sw	v0,20(sp)
801013c4:	03120b00 	sra	v0,t3,0x8
801013c8:	23104600 	subu	v0,v0,a2
801013cc:	c3470800 	sra	t0,t0,0x1f
801013d0:	1800a627 	addiu	a2,sp,24
801013d4:	1c00a2af 	sw	v0,28(sp)
801013d8:	10180000 	mfhi	v1
801013dc:	03120300 	sra	v0,v1,0x8
801013e0:	23104800 	subu	v0,v0,t0
801013e4:	2400a2af 	sw	v0,36(sp)
801013e8:	eb28040c 	jal	0x8010a3ac
801013ec:	060080a0 	sb	zero,6(a0)
801013f0:	3c00bf8f 	lw	ra,60(sp)
801013f4:	3800b48f 	lw	s4,56(sp)
801013f8:	3400b38f 	lw	s3,52(sp)
801013fc:	3000b28f 	lw	s2,48(sp)
80101400:	2c00b18f 	lw	s1,44(sp)
80101404:	2800b08f 	lw	s0,40(sp)
80101408:	0800e003 	jr	ra
8010140c:	4000bd27 	addiu	sp,sp,64
80101410:	f8ffbd27 	addiu	sp,sp,-8
80101414:	0000b0af 	sw	s0,0(sp)
80101418:	0000a38c 	lw	v1,0(a1)
8010141c:	0400a88c 	lw	t0,4(a1)
80101420:	0000c98c 	lw	t1,0(a2)
80101424:	0400cc8c 	lw	t4,4(a2)
80101428:	0000ea8c 	lw	t2,0(a3)
8010142c:	0400ed8c 	lw	t5,4(a3)
80101430:	03008815 	bne	t4,t0,0x80101440
80101434:	2a108801 	slt	v0,t4,t0
80101438:	3c018d11 	beq	t4,t5,0x8010192c
8010143c:	00000000 	nop
80101440:	06004010 	beqz	v0,0x8010145c
80101444:	21106000 	move	v0,v1
80101448:	21182001 	move	v1,t1
8010144c:	21484000 	move	t1,v0
80101450:	21100001 	move	v0,t0
80101454:	21408001 	move	t0,t4
80101458:	21604000 	move	t4,v0
8010145c:	2a10a801 	slt	v0,t5,t0
80101460:	06004010 	beqz	v0,0x8010147c
80101464:	21106000 	move	v0,v1
80101468:	21184001 	move	v1,t2
8010146c:	21504000 	move	t2,v0
80101470:	21100001 	move	v0,t0
80101474:	2140a001 	move	t0,t5
80101478:	21684000 	move	t5,v0
8010147c:	2a10ac01 	slt	v0,t5,t4
80101480:	06004010 	beqz	v0,0x8010149c
80101484:	21102001 	move	v0,t1
80101488:	21484001 	move	t1,t2
8010148c:	21504000 	move	t2,v0
80101490:	21108001 	move	v0,t4
80101494:	2160a001 	move	t4,t5
80101498:	21684000 	move	t5,v0
8010149c:	23702301 	subu	t6,t1,v1
801014a0:	23c04301 	subu	t8,t2,v1
801014a4:	23308801 	subu	a2,t4,t0
801014a8:	0a008815 	bne	t4,t0,0x801014d4
801014ac:	2338a801 	subu	a3,t5,t0
801014b0:	2a106900 	slt	v0,v1,t1
801014b4:	03004010 	beqz	v0,0x801014c4
801014b8:	005c0300 	sll	t3,v1,0x10
801014bc:	1a290408 	j	0x8010a468
801014c0:	002c0900 	sll	a1,t1,0x10
801014c4:	005c0900 	sll	t3,t1,0x10
801014c8:	002c0300 	sll	a1,v1,0x10
801014cc:	2a290408 	j	0x8010a4a8
801014d0:	21780000 	move	t7,zero
801014d4:	002c0300 	sll	a1,v1,0x10
801014d8:	2158a000 	move	t3,a1
801014dc:	00140e00 	sll	v0,t6,0x10
801014e0:	1a004600 	div	zero,v0,a2
801014e4:	0200c014 	bnez	a2,0x801014f0
801014e8:	00000000 	nop
801014ec:	0d000700 	break	0x7
801014f0:	ffff0124 	li	at,-1
801014f4:	0400c114 	bne	a2,at,0x80101508
801014f8:	0080013c 	lui	at,0x8000
801014fc:	02004114 	bne	v0,at,0x80101508
80101500:	00000000 	nop
80101504:	0d000600 	break	0x6
80101508:	12780000 	mflo	t7
8010150c:	0100023c 	lui	v0,0x1
80101510:	03008d15 	bne	t4,t5,0x80101520
80101514:	2128a200 	addu	a1,a1,v0
80101518:	3d290408 	j	0x8010a4f4
8010151c:	21c80000 	move	t9,zero
80101520:	23104901 	subu	v0,t2,t1
80101524:	00140200 	sll	v0,v0,0x10
80101528:	2318ac01 	subu	v1,t5,t4
8010152c:	1a004300 	div	zero,v0,v1
80101530:	02006014 	bnez	v1,0x8010153c
80101534:	00000000 	nop
80101538:	0d000700 	break	0x7
8010153c:	ffff0124 	li	at,-1
80101540:	04006114 	bne	v1,at,0x80101554
80101544:	0080013c 	lui	at,0x8000
80101548:	02004114 	bne	v0,at,0x80101554
8010154c:	00000000 	nop
80101550:	0d000600 	break	0x6
80101554:	12c80000 	mflo	t9
80101558:	23100700 	negu	v0,a3
8010155c:	00000000 	nop
80101560:	18004e00 	mult	v0,t6
80101564:	12180000 	mflo	v1
	...
80101570:	18000603 	mult	t8,a2
80101574:	12480000 	mflo	t1
80101578:	00141800 	sll	v0,t8,0x10
8010157c:	21186900 	addu	v1,v1,t1
80101580:	1a004700 	div	zero,v0,a3
80101584:	0200e014 	bnez	a3,0x80101590
80101588:	00000000 	nop
8010158c:	0d000700 	break	0x7
80101590:	ffff0124 	li	at,-1
80101594:	0400e114 	bne	a3,at,0x801015a8
80101598:	0080013c 	lui	at,0x8000
8010159c:	02004114 	bne	v0,at,0x801015a8
801015a0:	00000000 	nop
801015a4:	0d000600 	break	0x6
801015a8:	12700000 	mflo	t6
801015ac:	71006018 	blez	v1,0x80101774
801015b0:	21480001 	move	t1,t0
801015b4:	2a102c01 	slt	v0,t1,t4
801015b8:	36004010 	beqz	v0,0x80101694
801015bc:	2a10a901 	slt	v0,t5,t1
801015c0:	ffff1824 	li	t8,-1
801015c4:	03540500 	sra	t2,a1,0x10
801015c8:	2c002005 	bltz	t1,0x8010167c
801015cc:	033c0b00 	sra	a3,t3,0x10
801015d0:	0a008684 	lh	a2,10(a0)
801015d4:	00000000 	nop
801015d8:	2a102601 	slt	v0,t1,a2
801015dc:	27004010 	beqz	v0,0x8010167c
801015e0:	00000000 	nop
801015e4:	08008384 	lh	v1,8(a0)
801015e8:	00000000 	nop
801015ec:	2a104301 	slt	v0,t2,v1
801015f0:	02004014 	bnez	v0,0x801015fc
801015f4:	2140e000 	move	t0,a3
801015f8:	ffff6a24 	addiu	t2,v1,-1
801015fc:	03000105 	bgez	t0,0x8010160c
80101600:	18000601 	mult	t0,a2
80101604:	21400000 	move	t0,zero
80101608:	18000601 	mult	t0,a2
8010160c:	0c00878c 	lw	a3,12(a0)
80101610:	00000000 	nop
80101614:	0400e724 	addiu	a3,a3,4
80101618:	12800000 	mflo	s0
8010161c:	81290408 	j	0x8010a604
80101620:	21100902 	addu	v0,s0,t1
80101624:	0000e284 	lh	v0,0(a3)
80101628:	00000000 	nop
8010162c:	0c005810 	beq	v0,t8,0x80101660
80101630:	00000000 	nop
80101634:	06008390 	lbu	v1,6(a0)
80101638:	00000000 	nop
8010163c:	ff006630 	andi	a2,v1,0xff
80101640:	fe00c22c 	sltiu	v0,a2,254
80101644:	06004010 	beqz	v0,0x80101660
80101648:	01006224 	addiu	v0,v1,1
8010164c:	060082a0 	sb	v0,6(a0)
80101650:	40100600 	sll	v0,a2,0x1
80101654:	0000e394 	lhu	v1,0(a3)
80101658:	21108200 	addu	v0,a0,v0
8010165c:	100043a4 	sh	v1,16(v0)
80101660:	0a008284 	lh	v0,10(a0)
80101664:	01000825 	addiu	t0,t0,1
80101668:	40100200 	sll	v0,v0,0x1
8010166c:	2138e200 	addu	a3,a3,v0
80101670:	2a104801 	slt	v0,t2,t0
80101674:	ebff4010 	beqz	v0,0x80101624
80101678:	00000000 	nop
8010167c:	21586f01 	addu	t3,t3,t7
80101680:	01002925 	addiu	t1,t1,1
80101684:	2a102c01 	slt	v0,t1,t4
80101688:	ceff4014 	bnez	v0,0x801015c4
8010168c:	2128ae00 	addu	a1,a1,t6
80101690:	2a10a901 	slt	v0,t5,t1
80101694:	a5004014 	bnez	v0,0x8010192c
80101698:	00000000 	nop
8010169c:	ffff0c24 	li	t4,-1
801016a0:	03540500 	sra	t2,a1,0x10
801016a4:	2c002005 	bltz	t1,0x80101758
801016a8:	033c0b00 	sra	a3,t3,0x10
801016ac:	0a008684 	lh	a2,10(a0)
801016b0:	00000000 	nop
801016b4:	2a102601 	slt	v0,t1,a2
801016b8:	27004010 	beqz	v0,0x80101758
801016bc:	00000000 	nop
801016c0:	08008384 	lh	v1,8(a0)
801016c4:	00000000 	nop
801016c8:	2a104301 	slt	v0,t2,v1
801016cc:	02004014 	bnez	v0,0x801016d8
801016d0:	2140e000 	move	t0,a3
801016d4:	ffff6a24 	addiu	t2,v1,-1
801016d8:	03000105 	bgez	t0,0x801016e8
801016dc:	18000601 	mult	t0,a2
801016e0:	21400000 	move	t0,zero
801016e4:	18000601 	mult	t0,a2
801016e8:	0c00878c 	lw	a3,12(a0)
801016ec:	00000000 	nop
801016f0:	0400e724 	addiu	a3,a3,4
801016f4:	12800000 	mflo	s0
801016f8:	b8290408 	j	0x8010a6e0
801016fc:	21100902 	addu	v0,s0,t1
80101700:	0000e284 	lh	v0,0(a3)
80101704:	00000000 	nop
80101708:	0c004c10 	beq	v0,t4,0x8010173c
8010170c:	00000000 	nop
80101710:	06008390 	lbu	v1,6(a0)
80101714:	00000000 	nop
80101718:	ff006630 	andi	a2,v1,0xff
8010171c:	fe00c22c 	sltiu	v0,a2,254
80101720:	06004010 	beqz	v0,0x8010173c
80101724:	01006224 	addiu	v0,v1,1
80101728:	060082a0 	sb	v0,6(a0)
8010172c:	40100600 	sll	v0,a2,0x1
80101730:	0000e394 	lhu	v1,0(a3)
80101734:	21108200 	addu	v0,a0,v0
80101738:	100043a4 	sh	v1,16(v0)
8010173c:	0a008284 	lh	v0,10(a0)
80101740:	01000825 	addiu	t0,t0,1
80101744:	40100200 	sll	v0,v0,0x1
80101748:	2138e200 	addu	a3,a3,v0
8010174c:	2a104801 	slt	v0,t2,t0
80101750:	ebff4010 	beqz	v0,0x80101700
80101754:	00000000 	nop
80101758:	21587901 	addu	t3,t3,t9
8010175c:	01002925 	addiu	t1,t1,1
80101760:	2a10a901 	slt	v0,t5,t1
80101764:	ceff4010 	beqz	v0,0x801016a0
80101768:	2128ae00 	addu	a1,a1,t6
8010176c:	322a0408 	j	0x8010a8c8
80101770:	00000000 	nop
80101774:	2a102c01 	slt	v0,t1,t4
80101778:	36004010 	beqz	v0,0x80101854
8010177c:	2a10a901 	slt	v0,t5,t1
80101780:	ffff1824 	li	t8,-1
80101784:	03540500 	sra	t2,a1,0x10
80101788:	2c002005 	bltz	t1,0x8010183c
8010178c:	033c0b00 	sra	a3,t3,0x10
80101790:	0a008684 	lh	a2,10(a0)
80101794:	00000000 	nop
80101798:	2a102601 	slt	v0,t1,a2
8010179c:	27004010 	beqz	v0,0x8010183c
801017a0:	00000000 	nop
801017a4:	08008384 	lh	v1,8(a0)
801017a8:	00000000 	nop
801017ac:	2a104301 	slt	v0,t2,v1
801017b0:	02004014 	bnez	v0,0x801017bc
801017b4:	2140e000 	move	t0,a3
801017b8:	ffff6a24 	addiu	t2,v1,-1
801017bc:	03000105 	bgez	t0,0x801017cc
801017c0:	18000601 	mult	t0,a2
801017c4:	21400000 	move	t0,zero
801017c8:	18000601 	mult	t0,a2
801017cc:	0c00878c 	lw	a3,12(a0)
801017d0:	00000000 	nop
801017d4:	0400e724 	addiu	a3,a3,4
801017d8:	12800000 	mflo	s0
801017dc:	f1290408 	j	0x8010a7c4
801017e0:	21100902 	addu	v0,s0,t1
801017e4:	0000e284 	lh	v0,0(a3)
801017e8:	00000000 	nop
801017ec:	0c005810 	beq	v0,t8,0x80101820
801017f0:	00000000 	nop
801017f4:	06008390 	lbu	v1,6(a0)
801017f8:	00000000 	nop
801017fc:	ff006630 	andi	a2,v1,0xff
80101800:	fe00c22c 	sltiu	v0,a2,254
80101804:	06004010 	beqz	v0,0x80101820
80101808:	01006224 	addiu	v0,v1,1
8010180c:	060082a0 	sb	v0,6(a0)
80101810:	40100600 	sll	v0,a2,0x1
80101814:	0000e394 	lhu	v1,0(a3)
80101818:	21108200 	addu	v0,a0,v0
8010181c:	100043a4 	sh	v1,16(v0)
80101820:	0a008284 	lh	v0,10(a0)
80101824:	01000825 	addiu	t0,t0,1
80101828:	40100200 	sll	v0,v0,0x1
8010182c:	2138e200 	addu	a3,a3,v0
80101830:	2a104801 	slt	v0,t2,t0
80101834:	ebff4010 	beqz	v0,0x801017e4
80101838:	00000000 	nop
8010183c:	2128af00 	addu	a1,a1,t7
80101840:	01002925 	addiu	t1,t1,1
80101844:	2a102c01 	slt	v0,t1,t4
80101848:	ceff4014 	bnez	v0,0x80101784
8010184c:	21586e01 	addu	t3,t3,t6
80101850:	2a10a901 	slt	v0,t5,t1
80101854:	35004014 	bnez	v0,0x8010192c
80101858:	00000000 	nop
8010185c:	ffff0c24 	li	t4,-1
80101860:	03540500 	sra	t2,a1,0x10
80101864:	2c002005 	bltz	t1,0x80101918
80101868:	033c0b00 	sra	a3,t3,0x10
8010186c:	0a008684 	lh	a2,10(a0)
80101870:	00000000 	nop
80101874:	2a102601 	slt	v0,t1,a2
80101878:	27004010 	beqz	v0,0x80101918
8010187c:	00000000 	nop
80101880:	08008384 	lh	v1,8(a0)
80101884:	00000000 	nop
80101888:	2a104301 	slt	v0,t2,v1
8010188c:	02004014 	bnez	v0,0x80101898
80101890:	2140e000 	move	t0,a3
80101894:	ffff6a24 	addiu	t2,v1,-1
80101898:	03000105 	bgez	t0,0x801018a8
8010189c:	18000601 	mult	t0,a2
801018a0:	21400000 	move	t0,zero
801018a4:	18000601 	mult	t0,a2
801018a8:	0c00878c 	lw	a3,12(a0)
801018ac:	00000000 	nop
801018b0:	0400e724 	addiu	a3,a3,4
801018b4:	12800000 	mflo	s0
801018b8:	282a0408 	j	0x8010a8a0
801018bc:	21100902 	addu	v0,s0,t1
801018c0:	0000e284 	lh	v0,0(a3)
801018c4:	00000000 	nop
801018c8:	0c004c10 	beq	v0,t4,0x801018fc
801018cc:	00000000 	nop
801018d0:	06008390 	lbu	v1,6(a0)
801018d4:	00000000 	nop
801018d8:	ff006630 	andi	a2,v1,0xff
801018dc:	fe00c22c 	sltiu	v0,a2,254
801018e0:	06004010 	beqz	v0,0x801018fc
801018e4:	01006224 	addiu	v0,v1,1
801018e8:	060082a0 	sb	v0,6(a0)
801018ec:	40100600 	sll	v0,a2,0x1
801018f0:	0000e394 	lhu	v1,0(a3)
801018f4:	21108200 	addu	v0,a0,v0
801018f8:	100043a4 	sh	v1,16(v0)
801018fc:	0a008284 	lh	v0,10(a0)
80101900:	01000825 	addiu	t0,t0,1
80101904:	40100200 	sll	v0,v0,0x1
80101908:	2138e200 	addu	a3,a3,v0
8010190c:	2a104801 	slt	v0,t2,t0
80101910:	ebff4010 	beqz	v0,0x801018c0
80101914:	00000000 	nop
80101918:	21586e01 	addu	t3,t3,t6
8010191c:	01002925 	addiu	t1,t1,1
80101920:	2a10a901 	slt	v0,t5,t1
80101924:	ceff4010 	beqz	v0,0x80101860
80101928:	2128b900 	addu	a1,a1,t9
8010192c:	0000b08f 	lw	s0,0(sp)
80101930:	0800e003 	jr	ra
80101934:	0800bd27 	addiu	sp,sp,8
80101938:	0f80023c 	lui	v0,0x800f
8010193c:	78cf428c 	lw	v0,-12424(v0)
80101940:	00000000 	nop
80101944:	0c0082ac 	sw	v0,12(a0)
80101948:	00004394 	lhu	v1,0(v0)
8010194c:	00000000 	nop
80101950:	080083a4 	sh	v1,8(a0)
80101954:	02004294 	lhu	v0,2(v0)
80101958:	070080a0 	sb	zero,7(a0)
8010195c:	0800e003 	jr	ra
80101960:	0a0082a4 	sh	v0,10(a0)
80101964:	e8ffbd27 	addiu	sp,sp,-24
80101968:	1000b0af 	sw	s0,16(sp)
8010196c:	21808000 	move	s0,a0
80101970:	1400bfaf 	sw	ra,20(sp)
80101974:	78000392 	lbu	v1,120(s0)
80101978:	00000000 	nop
8010197c:	0800622c 	sltiu	v0,v1,8
80101980:	81004010 	beqz	v0,0x80101b88
80101984:	1180023c 	lui	v0,0x8011
80101988:	b48f4224 	addiu	v0,v0,-28748
8010198c:	80180300 	sll	v1,v1,0x2
80101990:	21186200 	addu	v1,v1,v0
80101994:	0000628c 	lw	v0,0(v1)
80101998:	00000000 	nop
8010199c:	08004000 	jr	v0
801019a0:	00000000 	nop
801019a4:	0f80043c 	lui	a0,0x800f
801019a8:	08808424 	addiu	a0,a0,-32760
801019ac:	1180053c 	lui	a1,0x8011
801019b0:	80c9a524 	addiu	a1,a1,-13952
801019b4:	0c80033c 	lui	v1,0x800c
801019b8:	06000224 	li	v0,6
801019bc:	f4b2010c 	jal	0x8006cbd0
801019c0:	b4f962a0 	sb	v0,-1612(v1)
801019c4:	21200002 	move	a0,s0
801019c8:	02000524 	li	a1,2
801019cc:	21300000 	move	a2,zero
801019d0:	ca3a0224 	li	v0,15050
801019d4:	2e0002a6 	sh	v0,46(s0)
801019d8:	aff10224 	li	v0,-3665
801019dc:	320002a6 	sh	v0,50(s0)
801019e0:	b54e0224 	li	v0,20149
801019e4:	360002a6 	sh	v0,54(s0)
801019e8:	00080224 	li	v0,2048
801019ec:	4553010c 	jal	0x80054d14
801019f0:	560002a6 	sh	v0,86(s0)
801019f4:	78000292 	lbu	v0,120(s0)
801019f8:	0c80033c 	lui	v1,0x800c
801019fc:	01004224 	addiu	v0,v0,1
80101a00:	780002a2 	sb	v0,120(s0)
80101a04:	01000224 	li	v0,1
80101a08:	c92a0408 	j	0x8010ab24
80101a0c:	0ff862a0 	sb	v0,-2033(v1)
80101a10:	0c80023c 	lui	v0,0x800c
80101a14:	0ff84290 	lbu	v0,-2033(v0)
80101a18:	00000000 	nop
80101a1c:	5b004014 	bnez	v0,0x80101b8c
80101a20:	21100000 	move	v0,zero
80101a24:	c22a0408 	j	0x8010ab08
80101a28:	00000000 	nop
80101a2c:	21200002 	move	a0,s0
80101a30:	63000524 	li	a1,99
80101a34:	04000624 	li	a2,4
80101a38:	0c80033c 	lui	v1,0x800c
80101a3c:	07000224 	li	v0,7
80101a40:	4553010c 	jal	0x80054d14
80101a44:	b4f962a0 	sb	v0,-1612(v1)
80101a48:	00d00224 	li	v0,-12288
80101a4c:	4a0002a6 	sh	v0,74(s0)
80101a50:	78000292 	lbu	v0,120(s0)
80101a54:	5a000324 	li	v1,90
80101a58:	c32a0408 	j	0x8010ab0c
80101a5c:	420003a6 	sh	v1,66(s0)
80101a60:	01000292 	lbu	v0,1(s0)
80101a64:	00000000 	nop
80101a68:	08004014 	bnez	v0,0x80101a8c
80101a6c:	07000424 	li	a0,7
80101a70:	21280000 	move	a1,zero
80101a74:	64d1010c 	jal	0x80074590
80101a78:	2130a000 	move	a2,a1
80101a7c:	78000292 	lbu	v0,120(s0)
80101a80:	00000000 	nop
80101a84:	01004224 	addiu	v0,v0,1
80101a88:	780002a2 	sb	v0,120(s0)
80101a8c:	42000296 	lhu	v0,66(s0)
80101a90:	00000000 	nop
80101a94:	ffff4224 	addiu	v0,v0,-1
80101a98:	420002a6 	sh	v0,66(s0)
80101a9c:	00140200 	sll	v0,v0,0x10
80101aa0:	05004014 	bnez	v0,0x80101ab8
80101aa4:	c8000324 	li	v1,200
80101aa8:	78000292 	lbu	v0,120(s0)
80101aac:	420003a6 	sh	v1,66(s0)
80101ab0:	01004224 	addiu	v0,v0,1
80101ab4:	780002a2 	sb	v0,120(s0)
80101ab8:	4a000286 	lh	v0,74(s0)
80101abc:	00000000 	nop
80101ac0:	04004018 	blez	v0,0x80101ad4
80101ac4:	21200002 	move	a0,s0
80101ac8:	64000524 	li	a1,100
80101acc:	4553010c 	jal	0x80054d14
80101ad0:	04000624 	li	a2,4
80101ad4:	4a000296 	lhu	v0,74(s0)
80101ad8:	00000000 	nop
80101adc:	60034224 	addiu	v0,v0,864
80101ae0:	4a0002a6 	sh	v0,74(s0)
80101ae4:	00140200 	sll	v0,v0,0x10
80101ae8:	03140200 	sra	v0,v0,0x10
80101aec:	013e4228 	slti	v0,v0,15873
80101af0:	02004014 	bnez	v0,0x80101afc
80101af4:	003e0224 	li	v0,15872
80101af8:	4a0002a6 	sh	v0,74(s0)
80101afc:	4a000286 	lh	v0,74(s0)
80101b00:	3000038e 	lw	v1,48(s0)
80101b04:	2e000496 	lhu	a0,46(s0)
80101b08:	00120200 	sll	v0,v0,0x8
80101b0c:	21186200 	addu	v1,v1,v0
80101b10:	f0ff8424 	addiu	a0,a0,-16
80101b14:	300003ae 	sw	v1,48(s0)
80101b18:	c92a0408 	j	0x8010ab24
80101b1c:	2e0004a6 	sh	a0,46(s0)
80101b20:	42000296 	lhu	v0,66(s0)
80101b24:	00000000 	nop
80101b28:	ffff4224 	addiu	v0,v0,-1
80101b2c:	420002a6 	sh	v0,66(s0)
80101b30:	00140200 	sll	v0,v0,0x10
80101b34:	15004014 	bnez	v0,0x80101b8c
80101b38:	21100000 	move	v0,zero
80101b3c:	0c80033c 	lui	v1,0x800c
80101b40:	02000224 	li	v0,2
80101b44:	c22a0408 	j	0x8010ab08
80101b48:	0ff862a0 	sb	v0,-2033(v1)
80101b4c:	0c80023c 	lui	v0,0x800c
80101b50:	08f84324 	addiu	v1,v0,-2040
80101b54:	07006290 	lbu	v0,7(v1)
80101b58:	00000000 	nop
80101b5c:	0b004014 	bnez	v0,0x80101b8c
80101b60:	21100000 	move	v0,zero
80101b64:	01000224 	li	v0,1
80101b68:	310062a0 	sb	v0,49(v1)
80101b6c:	78000292 	lbu	v0,120(s0)
80101b70:	00000000 	nop
80101b74:	01004224 	addiu	v0,v0,1
80101b78:	c92a0408 	j	0x8010ab24
80101b7c:	780002a2 	sb	v0,120(s0)
80101b80:	ca2a0408 	j	0x8010ab28
80101b84:	01000224 	li	v0,1
80101b88:	21100000 	move	v0,zero
80101b8c:	1400bf8f 	lw	ra,20(sp)
80101b90:	1000b08f 	lw	s0,16(sp)
80101b94:	0800e003 	jr	ra
80101b98:	1800bd27 	addiu	sp,sp,24
80101b9c:	e8ffbd27 	addiu	sp,sp,-24
80101ba0:	01000624 	li	a2,1
80101ba4:	1000bfaf 	sw	ra,16(sp)
80101ba8:	04008390 	lbu	v1,4(a0)
80101bac:	1000858c 	lw	a1,16(a0)
80101bb0:	17006610 	beq	v1,a2,0x80101c10
80101bb4:	02006228 	slti	v0,v1,2
80101bb8:	05004010 	beqz	v0,0x80101bd0
80101bbc:	00000000 	nop
80101bc0:	0a006010 	beqz	v1,0x80101bec
80101bc4:	50000224 	li	v0,80
80101bc8:	3b2b0408 	j	0x8010acec
80101bcc:	00000000 	nop
80101bd0:	02000224 	li	v0,2
80101bd4:	5a006210 	beq	v1,v0,0x80101d40
80101bd8:	03000224 	li	v0,3
80101bdc:	5a006210 	beq	v1,v0,0x80101d48
80101be0:	00000000 	nop
80101be4:	3b2b0408 	j	0x8010acec
80101be8:	00000000 	nop
80101bec:	400082a4 	sh	v0,64(a0)
80101bf0:	6e000224 	li	v0,110
80101bf4:	040086a0 	sb	a2,4(a0)
80101bf8:	540080a4 	sh	zero,84(a0)
80101bfc:	420082a4 	sh	v0,66(a0)
80101c00:	0e0080a4 	sh	zero,14(a0)
80101c04:	560080a4 	sh	zero,86(a0)
80101c08:	3b2b0408 	j	0x8010acec
80101c0c:	580080a4 	sh	zero,88(a0)
80101c10:	0c80023c 	lui	v0,0x800c
80101c14:	b4f94290 	lbu	v0,-1612(v0)
80101c18:	00000000 	nop
80101c1c:	0500422c 	sltiu	v0,v0,5
80101c20:	03004014 	bnez	v0,0x80101c30
80101c24:	02000224 	li	v0,2
80101c28:	3b2b0408 	j	0x8010acec
80101c2c:	040082a0 	sb	v0,4(a0)
80101c30:	0100a290 	lbu	v0,1(a1)
80101c34:	00000000 	nop
80101c38:	010082a0 	sb	v0,1(a0)
80101c3c:	ff004230 	andi	v0,v0,0xff
80101c40:	43004010 	beqz	v0,0x80101d50
80101c44:	50000224 	li	v0,80
80101c48:	400082a4 	sh	v0,64(a0)
80101c4c:	6e000224 	li	v0,110
80101c50:	420082a4 	sh	v0,66(a0)
80101c54:	2c00a28c 	lw	v0,44(a1)
80101c58:	00000000 	nop
80101c5c:	2c0082ac 	sw	v0,44(a0)
80101c60:	3000a28c 	lw	v0,48(a1)
80101c64:	00000000 	nop
80101c68:	300082ac 	sw	v0,48(a0)
80101c6c:	3400a28c 	lw	v0,52(a1)
80101c70:	00000000 	nop
80101c74:	340082ac 	sw	v0,52(a0)
80101c78:	2e00a294 	lhu	v0,46(a1)
80101c7c:	00000000 	nop
80101c80:	480082a4 	sh	v0,72(a0)
80101c84:	3200a294 	lhu	v0,50(a1)
80101c88:	8400a394 	lhu	v1,132(a1)
80101c8c:	00000000 	nop
80101c90:	21104300 	addu	v0,v0,v1
80101c94:	4a0082a4 	sh	v0,74(a0)
80101c98:	3600a294 	lhu	v0,54(a1)
80101c9c:	00000000 	nop
80101ca0:	4c0082a4 	sh	v0,76(a0)
80101ca4:	4a008284 	lh	v0,74(a0)
80101ca8:	3200a384 	lh	v1,50(a1)
80101cac:	00000000 	nop
80101cb0:	23104300 	subu	v0,v0,v1
80101cb4:	88ff4224 	addiu	v0,v0,-120
80101cb8:	83100200 	sra	v0,v0,0x2
80101cbc:	80000324 	li	v1,128
80101cc0:	23106200 	subu	v0,v1,v0
80101cc4:	4e0082a4 	sh	v0,78(a0)
80101cc8:	00140200 	sll	v0,v0,0x10
80101ccc:	03140200 	sra	v0,v0,0x10
80101cd0:	04004104 	bgez	v0,0x80101ce4
80101cd4:	81004228 	slti	v0,v0,129
80101cd8:	4e0080a4 	sh	zero,78(a0)
80101cdc:	232b0408 	j	0x8010ac8c
80101ce0:	010080a0 	sb	zero,1(a0)
80101ce4:	02004014 	bnez	v0,0x80101cf0
80101ce8:	00000000 	nop
80101cec:	4e0083a4 	sh	v1,78(a0)
80101cf0:	4a008284 	lh	v0,74(a0)
80101cf4:	3200a384 	lh	v1,50(a1)
80101cf8:	00000000 	nop
80101cfc:	23104300 	subu	v0,v0,v1
80101d00:	88ff4224 	addiu	v0,v0,-120
80101d04:	83100200 	sra	v0,v0,0x2
80101d08:	00010324 	li	v1,256
80101d0c:	23106200 	subu	v0,v1,v0
80101d10:	500082a4 	sh	v0,80(a0)
80101d14:	00140200 	sll	v0,v0,0x10
80101d18:	03140200 	sra	v0,v0,0x10
80101d1c:	04004104 	bgez	v0,0x80101d30
80101d20:	01014228 	slti	v0,v0,257
80101d24:	500080a4 	sh	zero,80(a0)
80101d28:	3b2b0408 	j	0x8010acec
80101d2c:	010080a0 	sb	zero,1(a0)
80101d30:	07004014 	bnez	v0,0x80101d50
80101d34:	00000000 	nop
80101d38:	3b2b0408 	j	0x8010acec
80101d3c:	500083a4 	sh	v1,80(a0)
80101d40:	3b2b0408 	j	0x8010acec
80101d44:	040082a0 	sb	v0,4(a0)
80101d48:	89e9010c 	jal	0x8007a624
80101d4c:	00000000 	nop
80101d50:	1000bf8f 	lw	ra,16(sp)
80101d54:	00000000 	nop
80101d58:	0800e003 	jr	ra
80101d5c:	1800bd27 	addiu	sp,sp,24
80101d60:	e0ffbd27 	addiu	sp,sp,-32
80101d64:	1000b0af 	sw	s0,16(sp)
80101d68:	21808000 	move	s0,a0
80101d6c:	1800bfaf 	sw	ra,24(sp)
80101d70:	1400b1af 	sw	s1,20(sp)
80101d74:	04000392 	lbu	v1,4(s0)
80101d78:	01000224 	li	v0,1
80101d7c:	32006210 	beq	v1,v0,0x80101e48
80101d80:	02006228 	slti	v0,v1,2
80101d84:	05004010 	beqz	v0,0x80101d9c
80101d88:	00000000 	nop
80101d8c:	0a006010 	beqz	v1,0x80101db8
80101d90:	0e80043c 	lui	a0,0x800e
80101d94:	872b0408 	j	0x8010ae1c
80101d98:	00000000 	nop
80101d9c:	02000224 	li	v0,2
80101da0:	37006210 	beq	v1,v0,0x80101e80
80101da4:	03000224 	li	v0,3
80101da8:	33006210 	beq	v1,v0,0x80101e78
80101dac:	00000000 	nop
80101db0:	872b0408 	j	0x8010ae1c
80101db4:	00000000 	nop
80101db8:	6a9f010c 	jal	0x80067da8
80101dbc:	807e8424 	addiu	a0,a0,32384
80101dc0:	21200002 	move	a0,s0
80101dc4:	11000524 	li	a1,17
80101dc8:	0f80023c 	lui	v0,0x800f
80101dcc:	58cf5124 	addiu	s1,v0,-12456
80101dd0:	bc00268e 	lw	a2,188(s1)
80101dd4:	0a80073c 	lui	a3,0x800a
80101dd8:	7846010c 	jal	0x800519e0
80101ddc:	a83fe724 	addiu	a3,a3,16296
80101de0:	27004014 	bnez	v0,0x80101e80
80101de4:	0180053c 	lui	a1,0x8001
80101de8:	21200002 	move	a0,s0
80101dec:	e87fa524 	addiu	a1,a1,32744
80101df0:	1180063c 	lui	a2,0x8011
80101df4:	28cac624 	addiu	a2,a2,-13784
80101df8:	1000278e 	lw	a3,16(s1)
80101dfc:	04000392 	lbu	v1,4(s0)
80101e00:	ff000224 	li	v0,255
80101e04:	470002a2 	sb	v0,71(s0)
80101e08:	01006324 	addiu	v1,v1,1
80101e0c:	3c0007ae 	sw	a3,60(s0)
80101e10:	3703010c 	jal	0x80040cdc
80101e14:	040003a2 	sb	v1,4(s0)
80101e18:	21200002 	move	a0,s0
80101e1c:	08000524 	li	a1,8
80101e20:	4553010c 	jal	0x80054d14
80101e24:	21300000 	move	a2,zero
80101e28:	21200002 	move	a0,s0
80101e2c:	02000224 	li	v0,2
80101e30:	700082a0 	sb	v0,112(a0)
80101e34:	8c000224 	li	v0,140
80101e38:	8c2b040c 	jal	0x8010ae30
80101e3c:	840082a4 	sh	v0,132(a0)
80101e40:	872b0408 	j	0x8010ae1c
80101e44:	00000000 	nop
80101e48:	e3dd010c 	jal	0x8007778c
80101e4c:	21200002 	move	a0,s0
80101e50:	03004010 	beqz	v0,0x80101e60
80101e54:	00000000 	nop
80101e58:	3f46010c 	jal	0x800518fc
80101e5c:	21200002 	move	a0,s0
80101e60:	2604010c 	jal	0x80041098
80101e64:	21200002 	move	a0,s0
80101e68:	4306010c 	jal	0x8004190c
80101e6c:	21200002 	move	a0,s0
80101e70:	872b0408 	j	0x8010ae1c
80101e74:	00000000 	nop
80101e78:	89e9010c 	jal	0x8007a624
80101e7c:	21200002 	move	a0,s0
80101e80:	1800bf8f 	lw	ra,24(sp)
80101e84:	1400b18f 	lw	s1,20(sp)
80101e88:	1000b08f 	lw	s0,16(sp)
80101e8c:	0800e003 	jr	ra
80101e90:	2000bd27 	addiu	sp,sp,32
80101e94:	e8ffbd27 	addiu	sp,sp,-24
80101e98:	1000b0af 	sw	s0,16(sp)
80101e9c:	21808000 	move	s0,a0
80101ea0:	21200000 	move	a0,zero
80101ea4:	06000524 	li	a1,6
80101ea8:	1400bfaf 	sw	ra,20(sp)
80101eac:	60ea010c 	jal	0x8007a980
80101eb0:	01000624 	li	a2,1
80101eb4:	0d004010 	beqz	v0,0x80101eec
80101eb8:	1180033c 	lui	v1,0x8011
80101ebc:	38ab6324 	addiu	v1,v1,-21704
80101ec0:	1c0043ac 	sw	v1,28(v0)
80101ec4:	20000324 	li	v1,32
80101ec8:	0b0043a0 	sb	v1,11(v0)
80101ecc:	0380033c 	lui	v1,0x8003
80101ed0:	28004490 	lbu	a0,40(v0)
80101ed4:	5cab6324 	addiu	v1,v1,-21668
80101ed8:	100050ac 	sw	s0,16(v0)
80101edc:	180043ac 	sw	v1,24(v0)
80101ee0:	80008434 	ori	a0,a0,0x80
80101ee4:	a32b0408 	j	0x8010ae8c
80101ee8:	280044a0 	sb	a0,40(v0)
80101eec:	21100000 	move	v0,zero
80101ef0:	1400bf8f 	lw	ra,20(sp)
80101ef4:	1000b08f 	lw	s0,16(sp)
80101ef8:	0800e003 	jr	ra
80101efc:	1800bd27 	addiu	sp,sp,24
80101f00:	e8ffbd27 	addiu	sp,sp,-24
80101f04:	1000b0af 	sw	s0,16(sp)
80101f08:	21808000 	move	s0,a0
80101f0c:	1400bfaf 	sw	ra,20(sp)
80101f10:	78000392 	lbu	v1,120(s0)
80101f14:	01000424 	li	a0,1
80101f18:	15006410 	beq	v1,a0,0x80101f70
80101f1c:	02006228 	slti	v0,v1,2
80101f20:	05004010 	beqz	v0,0x80101f38
80101f24:	02000224 	li	v0,2
80101f28:	07006010 	beqz	v1,0x80101f48
80101f2c:	21100000 	move	v0,zero
80101f30:	d42b0408 	j	0x8010af50
80101f34:	00000000 	nop
80101f38:	1a006210 	beq	v1,v0,0x80101fa4
80101f3c:	0c80023c 	lui	v0,0x800c
80101f40:	d42b0408 	j	0x8010af50
80101f44:	21100000 	move	v0,zero
80101f48:	0f80043c 	lui	a0,0x800f
80101f4c:	08808424 	addiu	a0,a0,-32760
80101f50:	0c80033c 	lui	v1,0x800c
80101f54:	02000224 	li	v0,2
80101f58:	1180053c 	lui	a1,0x8011
80101f5c:	68c9a524 	addiu	a1,a1,-13976
80101f60:	f4b2010c 	jal	0x8006cbd0
80101f64:	b4f962a0 	sb	v0,-1612(v1)
80101f68:	cb2b0408 	j	0x8010af2c
80101f6c:	00000000 	nop
80101f70:	21200002 	move	a0,s0
80101f74:	4b100224 	li	v0,4171
80101f78:	2e0002a6 	sh	v0,46(s0)
80101f7c:	b54a0224 	li	v0,19125
80101f80:	360002a6 	sh	v0,54(s0)
80101f84:	00040224 	li	v0,1024
80101f88:	6e2f040c 	jal	0x8010bdb8
80101f8c:	560002a6 	sh	v0,86(s0)
80101f90:	78000292 	lbu	v0,120(s0)
80101f94:	00000000 	nop
80101f98:	01004224 	addiu	v0,v0,1
80101f9c:	d32b0408 	j	0x8010af4c
80101fa0:	780002a2 	sb	v0,120(s0)
80101fa4:	0ff844a0 	sb	a0,-2033(v0)
80101fa8:	d42b0408 	j	0x8010af50
80101fac:	01000224 	li	v0,1
80101fb0:	21100000 	move	v0,zero
80101fb4:	1400bf8f 	lw	ra,20(sp)
80101fb8:	1000b08f 	lw	s0,16(sp)
80101fbc:	0800e003 	jr	ra
80101fc0:	1800bd27 	addiu	sp,sp,24
80101fc4:	e8ffbd27 	addiu	sp,sp,-24
80101fc8:	1000b0af 	sw	s0,16(sp)
80101fcc:	21808000 	move	s0,a0
80101fd0:	1400bfaf 	sw	ra,20(sp)
80101fd4:	78000392 	lbu	v1,120(s0)
80101fd8:	01000424 	li	a0,1
80101fdc:	11006410 	beq	v1,a0,0x80102024
80101fe0:	02006228 	slti	v0,v1,2
80101fe4:	05004010 	beqz	v0,0x80101ffc
80101fe8:	02000224 	li	v0,2
80101fec:	09006010 	beqz	v1,0x80102014
80101ff0:	21100000 	move	v0,zero
80101ff4:	1a2c0408 	j	0x8010b068
80101ff8:	00000000 	nop
80101ffc:	1a006210 	beq	v1,v0,0x80102068
80102000:	03000224 	li	v0,3
80102004:	29006210 	beq	v1,v0,0x801020ac
80102008:	21100000 	move	v0,zero
8010200c:	1a2c0408 	j	0x8010b068
80102010:	00000000 	nop
80102014:	1e000224 	li	v0,30
80102018:	780004a2 	sb	a0,120(s0)
8010201c:	192c0408 	j	0x8010b064
80102020:	420002a6 	sh	v0,66(s0)
80102024:	42000296 	lhu	v0,66(s0)
80102028:	00000000 	nop
8010202c:	ffff4224 	addiu	v0,v0,-1
80102030:	420002a6 	sh	v0,66(s0)
80102034:	00140200 	sll	v0,v0,0x10
80102038:	24004014 	bnez	v0,0x801020cc
8010203c:	21100000 	move	v0,zero
80102040:	21200002 	move	a0,s0
80102044:	b4000524 	li	a1,180
80102048:	04000624 	li	a2,4
8010204c:	0c80033c 	lui	v1,0x800c
80102050:	03000224 	li	v0,3
80102054:	4553010c 	jal	0x80054d14
80102058:	b4f962a0 	sb	v0,-1612(v1)
8010205c:	78000292 	lbu	v0,120(s0)
80102060:	0e2c0408 	j	0x8010b038
80102064:	28000324 	li	v1,40
80102068:	42000296 	lhu	v0,66(s0)
8010206c:	00000000 	nop
80102070:	ffff4224 	addiu	v0,v0,-1
80102074:	420002a6 	sh	v0,66(s0)
80102078:	00140200 	sll	v0,v0,0x10
8010207c:	13004014 	bnez	v0,0x801020cc
80102080:	21100000 	move	v0,zero
80102084:	21200002 	move	a0,s0
80102088:	02000524 	li	a1,2
8010208c:	4553010c 	jal	0x80054d14
80102090:	06000624 	li	a2,6
80102094:	78000292 	lbu	v0,120(s0)
80102098:	1e000324 	li	v1,30
8010209c:	420003a6 	sh	v1,66(s0)
801020a0:	01004224 	addiu	v0,v0,1
801020a4:	192c0408 	j	0x8010b064
801020a8:	780002a2 	sb	v0,120(s0)
801020ac:	42000396 	lhu	v1,66(s0)
801020b0:	00000000 	nop
801020b4:	ffff6324 	addiu	v1,v1,-1
801020b8:	420003a6 	sh	v1,66(s0)
801020bc:	001c0300 	sll	v1,v1,0x10
801020c0:	02006010 	beqz	v1,0x801020cc
801020c4:	01000224 	li	v0,1
801020c8:	21100000 	move	v0,zero
801020cc:	1400bf8f 	lw	ra,20(sp)
801020d0:	1000b08f 	lw	s0,16(sp)
801020d4:	0800e003 	jr	ra
801020d8:	1800bd27 	addiu	sp,sp,24
801020dc:	e8ffbd27 	addiu	sp,sp,-24
801020e0:	1000b0af 	sw	s0,16(sp)
801020e4:	21808000 	move	s0,a0
801020e8:	1400bfaf 	sw	ra,20(sp)
801020ec:	78000392 	lbu	v1,120(s0)
801020f0:	00000000 	nop
801020f4:	05006010 	beqz	v1,0x8010210c
801020f8:	01000224 	li	v0,1
801020fc:	11006210 	beq	v1,v0,0x80102144
80102100:	21100000 	move	v0,zero
80102104:	432c0408 	j	0x8010b10c
80102108:	00000000 	nop
8010210c:	0c80033c 	lui	v1,0x800c
80102110:	05000224 	li	v0,5
80102114:	0f80043c 	lui	a0,0x800f
80102118:	1180053c 	lui	a1,0x8011
8010211c:	08808424 	addiu	a0,a0,-32760
80102120:	74c9a524 	addiu	a1,a1,-13964
80102124:	f4b2010c 	jal	0x8006cbd0
80102128:	b4f962a0 	sb	v0,-1612(v1)
8010212c:	78000292 	lbu	v0,120(s0)
80102130:	0a000324 	li	v1,10
80102134:	420003a6 	sh	v1,66(s0)
80102138:	01004224 	addiu	v0,v0,1
8010213c:	422c0408 	j	0x8010b108
80102140:	780002a2 	sb	v0,120(s0)
80102144:	42000296 	lhu	v0,66(s0)
80102148:	00000000 	nop
8010214c:	ffff4224 	addiu	v0,v0,-1
80102150:	420002a6 	sh	v0,66(s0)
80102154:	00140200 	sll	v0,v0,0x10
80102158:	04004014 	bnez	v0,0x8010216c
8010215c:	0c80023c 	lui	v0,0x800c
80102160:	0ff843a0 	sb	v1,-2033(v0)
80102164:	432c0408 	j	0x8010b10c
80102168:	01000224 	li	v0,1
8010216c:	21100000 	move	v0,zero
80102170:	1400bf8f 	lw	ra,20(sp)
80102174:	1000b08f 	lw	s0,16(sp)
80102178:	0800e003 	jr	ra
8010217c:	1800bd27 	addiu	sp,sp,24
80102180:	e8ffbd27 	addiu	sp,sp,-24
80102184:	1000b0af 	sw	s0,16(sp)
80102188:	21808000 	move	s0,a0
8010218c:	1400bfaf 	sw	ra,20(sp)
80102190:	06000392 	lbu	v1,6(s0)
80102194:	01000524 	li	a1,1
80102198:	15006510 	beq	v1,a1,0x801021f0
8010219c:	02006228 	slti	v0,v1,2
801021a0:	05004010 	beqz	v0,0x801021b8
801021a4:	02000224 	li	v0,2
801021a8:	09006010 	beqz	v1,0x801021d0
801021ac:	21100000 	move	v0,zero
801021b0:	b12c0408 	j	0x8010b2c4
801021b4:	00000000 	nop
801021b8:	1d006210 	beq	v1,v0,0x80102230
801021bc:	03000224 	li	v0,3
801021c0:	50006210 	beq	v1,v0,0x80102304
801021c4:	21100000 	move	v0,zero
801021c8:	b12c0408 	j	0x8010b2c4
801021cc:	00000000 	nop
801021d0:	2e000296 	lhu	v0,46(s0)
801021d4:	32000396 	lhu	v1,50(s0)
801021d8:	36000496 	lhu	a0,54(s0)
801021dc:	060005a2 	sb	a1,6(s0)
801021e0:	4e0000a6 	sh	zero,78(s0)
801021e4:	900002a6 	sh	v0,144(s0)
801021e8:	920003a6 	sh	v1,146(s0)
801021ec:	940004a6 	sh	a0,148(s0)
801021f0:	b8000296 	lhu	v0,184(s0)
801021f4:	ba000396 	lhu	v1,186(s0)
801021f8:	80004224 	addiu	v0,v0,128
801021fc:	b80002a6 	sh	v0,184(s0)
80102200:	bc000296 	lhu	v0,188(s0)
80102204:	80006324 	addiu	v1,v1,128
80102208:	ba0003a6 	sh	v1,186(s0)
8010220c:	b8000396 	lhu	v1,184(s0)
80102210:	80004224 	addiu	v0,v0,128
80102214:	0010632c 	sltiu	v1,v1,4096
80102218:	05006014 	bnez	v1,0x80102230
8010221c:	bc0002a6 	sh	v0,188(s0)
80102220:	06000292 	lbu	v0,6(s0)
80102224:	00000000 	nop
80102228:	01004224 	addiu	v0,v0,1
8010222c:	060002a2 	sb	v0,6(s0)
80102230:	90000296 	lhu	v0,144(s0)
80102234:	4e000486 	lh	a0,78(s0)
80102238:	92000396 	lhu	v1,146(s0)
8010223c:	94000596 	lhu	a1,148(s0)
80102240:	2e0002a6 	sh	v0,46(s0)
80102244:	320003a6 	sh	v1,50(s0)
80102248:	d40f020c 	jal	0x80083f50
8010224c:	360005a6 	sh	a1,54(s0)
80102250:	80180200 	sll	v1,v0,0x2
80102254:	21186200 	addu	v1,v1,v0
80102258:	401a0300 	sll	v1,v1,0x9
8010225c:	2c00028e 	lw	v0,44(s0)
80102260:	4e000486 	lh	a0,78(s0)
80102264:	21104300 	addu	v0,v0,v1
80102268:	a00f020c 	jal	0x80083e80
8010226c:	2c0002ae 	sw	v0,44(s0)
80102270:	90000386 	lh	v1,144(s0)
80102274:	2e000586 	lh	a1,46(s0)
80102278:	32000496 	lhu	a0,50(s0)
8010227c:	23286500 	subu	a1,v1,a1
80102280:	80180200 	sll	v1,v0,0x2
80102284:	21186200 	addu	v1,v1,v0
80102288:	401a0300 	sll	v1,v1,0x9
8010228c:	3400028e 	lw	v0,52(s0)
80102290:	feff8424 	addiu	a0,a0,-2
80102294:	320004a6 	sh	a0,50(s0)
80102298:	94000496 	lhu	a0,148(s0)
8010229c:	21104300 	addu	v0,v0,v1
801022a0:	340002ae 	sw	v0,52(s0)
801022a4:	36000296 	lhu	v0,54(s0)
801022a8:	ffff8424 	addiu	a0,a0,-1
801022ac:	940004a6 	sh	a0,148(s0)
801022b0:	00240400 	sll	a0,a0,0x10
801022b4:	ffff4224 	addiu	v0,v0,-1
801022b8:	360002a6 	sh	v0,54(s0)
801022bc:	36000286 	lh	v0,54(s0)
801022c0:	03240400 	sra	a0,a0,0x10
801022c4:	a415020c 	jal	0x80085690
801022c8:	23204400 	subu	a0,v0,a0
801022cc:	4e000396 	lhu	v1,78(s0)
801022d0:	560002a6 	sh	v0,86(s0)
801022d4:	80006324 	addiu	v1,v1,128
801022d8:	4e0003a6 	sh	v1,78(s0)
801022dc:	001c0300 	sll	v1,v1,0x10
801022e0:	031c0300 	sra	v1,v1,0x10
801022e4:	001c6328 	slti	v1,v1,7168
801022e8:	0f006014 	bnez	v1,0x80102328
801022ec:	21100000 	move	v0,zero
801022f0:	06000292 	lbu	v0,6(s0)
801022f4:	00000000 	nop
801022f8:	01004224 	addiu	v0,v0,1
801022fc:	b02c0408 	j	0x8010b2c0
80102300:	060002a2 	sb	v0,6(s0)
80102304:	060000a2 	sb	zero,6(s0)
80102308:	21200002 	move	a0,s0
8010230c:	0280053c 	lui	a1,0x8002
80102310:	60b8a524 	addiu	a1,a1,-18336
80102314:	10df010c 	jal	0x80077c40
80102318:	02000624 	li	a2,2
8010231c:	b12c0408 	j	0x8010b2c4
80102320:	01000224 	li	v0,1
80102324:	21100000 	move	v0,zero
80102328:	1400bf8f 	lw	ra,20(sp)
8010232c:	1000b08f 	lw	s0,16(sp)
80102330:	0800e003 	jr	ra
80102334:	1800bd27 	addiu	sp,sp,24
80102338:	e0ffbd27 	addiu	sp,sp,-32
8010233c:	1400b1af 	sw	s1,20(sp)
80102340:	21888000 	move	s1,a0
80102344:	1800bfaf 	sw	ra,24(sp)
80102348:	1000b0af 	sw	s0,16(sp)
8010234c:	04003092 	lbu	s0,4(s1)
80102350:	01000224 	li	v0,1
80102354:	27000212 	beq	s0,v0,0x801023f4
80102358:	0200022a 	slti	v0,s0,2
8010235c:	05004010 	beqz	v0,0x80102374
80102360:	00000000 	nop
80102364:	0a000012 	beqz	s0,0x80102390
80102368:	21202002 	move	a0,s1
8010236c:	0e2d0408 	j	0x8010b438
80102370:	00000000 	nop
80102374:	02000224 	li	v0,2
80102378:	48000212 	beq	s0,v0,0x8010249c
8010237c:	03000224 	li	v0,3
80102380:	44000212 	beq	s0,v0,0x80102494
80102384:	00000000 	nop
80102388:	0e2d0408 	j	0x8010b438
8010238c:	00000000 	nop
80102390:	0c000524 	li	a1,12
80102394:	0f80023c 	lui	v0,0x800f
80102398:	58cf5024 	addiu	s0,v0,-12456
8010239c:	4000068e 	lw	a2,64(s0)
801023a0:	0a80073c 	lui	a3,0x800a
801023a4:	7846010c 	jal	0x800519e0
801023a8:	c84be724 	addiu	a3,a3,19400
801023ac:	3b004014 	bnez	v0,0x8010249c
801023b0:	0280053c 	lui	a1,0x8002
801023b4:	21202002 	move	a0,s1
801023b8:	60b8a524 	addiu	a1,a1,-18336
801023bc:	4400028e 	lw	v0,68(s0)
801023c0:	21300000 	move	a2,zero
801023c4:	10df010c 	jal	0x80077c40
801023c8:	3c0022ae 	sw	v0,60(s1)
801023cc:	04002292 	lbu	v0,4(s1)
801023d0:	32002396 	lhu	v1,50(s1)
801023d4:	b80020a6 	sh	zero,184(s1)
801023d8:	ba0020a6 	sh	zero,186(s1)
801023dc:	bc0020a6 	sh	zero,188(s1)
801023e0:	01004224 	addiu	v0,v0,1
801023e4:	74ff6324 	addiu	v1,v1,-140
801023e8:	040022a2 	sb	v0,4(s1)
801023ec:	0e2d0408 	j	0x8010b438
801023f0:	320023a6 	sh	v1,50(s1)
801023f4:	e3dd010c 	jal	0x8007778c
801023f8:	21202002 	move	a0,s1
801023fc:	05002392 	lbu	v1,5(s1)
80102400:	00000000 	nop
80102404:	13007010 	beq	v1,s0,0x80102454
80102408:	02006228 	slti	v0,v1,2
8010240c:	1b004010 	beqz	v0,0x8010247c
80102410:	00000000 	nop
80102414:	19006014 	bnez	v1,0x8010247c
80102418:	00000000 	nop
8010241c:	472c040c 	jal	0x8010b11c
80102420:	21202002 	move	a0,s1
80102424:	15004010 	beqz	v0,0x8010247c
80102428:	21202002 	move	a0,s1
8010242c:	0280053c 	lui	a1,0x8002
80102430:	60b8a524 	addiu	a1,a1,-18336
80102434:	1180063c 	lui	a2,0x8011
80102438:	05002292 	lbu	v0,5(s1)
8010243c:	b8cac624 	addiu	a2,a2,-13640
80102440:	01004224 	addiu	v0,v0,1
80102444:	3703010c 	jal	0x80040cdc
80102448:	050022a2 	sb	v0,5(s1)
8010244c:	062d0408 	j	0x8010b418
80102450:	700030a2 	sb	s0,112(s1)
80102454:	2604010c 	jal	0x80041098
80102458:	21202002 	move	a0,s1
8010245c:	70002392 	lbu	v1,112(s1)
80102460:	ff000224 	li	v0,255
80102464:	05006214 	bne	v1,v0,0x8010247c
80102468:	00000000 	nop
8010246c:	05002292 	lbu	v0,5(s1)
80102470:	00000000 	nop
80102474:	01004224 	addiu	v0,v0,1
80102478:	050022a2 	sb	v0,5(s1)
8010247c:	4306010c 	jal	0x8004190c
80102480:	21202002 	move	a0,s1
80102484:	3f46010c 	jal	0x800518fc
80102488:	21202002 	move	a0,s1
8010248c:	0e2d0408 	j	0x8010b438
80102490:	00000000 	nop
80102494:	89e9010c 	jal	0x8007a624
80102498:	21202002 	move	a0,s1
8010249c:	1800bf8f 	lw	ra,24(sp)
801024a0:	1400b18f 	lw	s1,20(sp)
801024a4:	1000b08f 	lw	s0,16(sp)
801024a8:	0800e003 	jr	ra
801024ac:	2000bd27 	addiu	sp,sp,32
801024b0:	e8ffbd27 	addiu	sp,sp,-24
801024b4:	1000b0af 	sw	s0,16(sp)
801024b8:	21808000 	move	s0,a0
801024bc:	03000524 	li	a1,3
801024c0:	2130a000 	move	a2,a1
801024c4:	1400bfaf 	sw	ra,20(sp)
801024c8:	77cb010c 	jal	0x80072ddc
801024cc:	1a000724 	li	a3,26
801024d0:	21184000 	move	v1,v0
801024d4:	04006010 	beqz	v1,0x801024e8
801024d8:	1180023c 	lui	v0,0x8011
801024dc:	d4b24224 	addiu	v0,v0,-19756
801024e0:	1c0062ac 	sw	v0,28(v1)
801024e4:	100070ac 	sw	s0,16(v1)
801024e8:	1400bf8f 	lw	ra,20(sp)
801024ec:	1000b08f 	lw	s0,16(sp)
801024f0:	21106000 	move	v0,v1
801024f4:	0800e003 	jr	ra
801024f8:	1800bd27 	addiu	sp,sp,24
801024fc:	e8ffbd27 	addiu	sp,sp,-24
80102500:	803e0224 	li	v0,16000
80102504:	1000bfaf 	sw	ra,16(sp)
80102508:	2e0082a4 	sh	v0,46(a0)
8010250c:	d0f00224 	li	v0,-3888
80102510:	320082a4 	sh	v0,50(a0)
80102514:	b54e0224 	li	v0,20149
80102518:	360082a4 	sh	v0,54(a0)
8010251c:	00080224 	li	v0,2048
80102520:	0280053c 	lui	a1,0x8002
80102524:	60b8a524 	addiu	a1,a1,-18336
80102528:	21300000 	move	a2,zero
8010252c:	10df010c 	jal	0x80077c40
80102530:	560082a4 	sh	v0,86(a0)
80102534:	1000bf8f 	lw	ra,16(sp)
80102538:	01000224 	li	v0,1
8010253c:	0800e003 	jr	ra
80102540:	1800bd27 	addiu	sp,sp,24
80102544:	e0ffbd27 	addiu	sp,sp,-32
80102548:	1000b0af 	sw	s0,16(sp)
8010254c:	21808000 	move	s0,a0
80102550:	1800bfaf 	sw	ra,24(sp)
80102554:	1400b1af 	sw	s1,20(sp)
80102558:	05000392 	lbu	v1,5(s0)
8010255c:	01001124 	li	s1,1
80102560:	13007110 	beq	v1,s1,0x801025b0
80102564:	02006228 	slti	v0,v1,2
80102568:	1b004010 	beqz	v0,0x801025d8
8010256c:	00000000 	nop
80102570:	19006014 	bnez	v1,0x801025d8
80102574:	00000000 	nop
80102578:	472c040c 	jal	0x8010b11c
8010257c:	00000000 	nop
80102580:	15004010 	beqz	v0,0x801025d8
80102584:	0280053c 	lui	a1,0x8002
80102588:	21200002 	move	a0,s0
8010258c:	1180063c 	lui	a2,0x8011
80102590:	60b8a524 	addiu	a1,a1,-18336
80102594:	05000292 	lbu	v0,5(s0)
80102598:	b8cac624 	addiu	a2,a2,-13640
8010259c:	21105100 	addu	v0,v0,s1
801025a0:	3703010c 	jal	0x80040cdc
801025a4:	050002a2 	sb	v0,5(s0)
801025a8:	5d2d0408 	j	0x8010b574
801025ac:	700011a2 	sb	s1,112(s0)
801025b0:	2604010c 	jal	0x80041098
801025b4:	21200002 	move	a0,s0
801025b8:	70000392 	lbu	v1,112(s0)
801025bc:	ff000224 	li	v0,255
801025c0:	05006214 	bne	v1,v0,0x801025d8
801025c4:	00000000 	nop
801025c8:	05000292 	lbu	v0,5(s0)
801025cc:	00000000 	nop
801025d0:	01004224 	addiu	v0,v0,1
801025d4:	050002a2 	sb	v0,5(s0)
801025d8:	1800bf8f 	lw	ra,24(sp)
801025dc:	1400b18f 	lw	s1,20(sp)
801025e0:	1000b08f 	lw	s0,16(sp)
801025e4:	0800e003 	jr	ra
801025e8:	2000bd27 	addiu	sp,sp,32
801025ec:	e8ffbd27 	addiu	sp,sp,-24
801025f0:	1000b0af 	sw	s0,16(sp)
801025f4:	21808000 	move	s0,a0
801025f8:	1400bfaf 	sw	ra,20(sp)
801025fc:	06000392 	lbu	v1,6(s0)
80102600:	00000000 	nop
80102604:	0700622c 	sltiu	v0,v1,7
80102608:	78004010 	beqz	v0,0x801027ec
8010260c:	1180023c 	lui	v0,0x8011
80102610:	d48f4224 	addiu	v0,v0,-28716
80102614:	80180300 	sll	v1,v1,0x2
80102618:	21186200 	addu	v1,v1,v0
8010261c:	0000628c 	lw	v0,0(v1)
80102620:	00000000 	nop
80102624:	08004000 	jr	v0
80102628:	00000000 	nop
8010262c:	21200002 	move	a0,s0
80102630:	0180053c 	lui	a1,0x8001
80102634:	e87fa524 	addiu	a1,a1,32744
80102638:	1180063c 	lui	a2,0x8011
8010263c:	06000292 	lbu	v0,6(s0)
80102640:	d22d0408 	j	0x8010b748
80102644:	80cbc624 	addiu	a2,a2,-13440
80102648:	0c80023c 	lui	v0,0x800c
8010264c:	b4f94390 	lbu	v1,-1612(v0)
80102650:	02000224 	li	v0,2
80102654:	65006214 	bne	v1,v0,0x801027ec
80102658:	44110224 	li	v0,4420
8010265c:	2e0002a6 	sh	v0,46(s0)
80102660:	b54a0224 	li	v0,19125
80102664:	360002a6 	sh	v0,54(s0)
80102668:	06000292 	lbu	v0,6(s0)
8010266c:	00050324 	li	v1,1280
80102670:	df2d0408 	j	0x8010b77c
80102674:	560003a6 	sh	v1,86(s0)
80102678:	0c80023c 	lui	v0,0x800c
8010267c:	b4f94390 	lbu	v1,-1612(v0)
80102680:	03000224 	li	v0,3
80102684:	59006214 	bne	v1,v0,0x801027ec
80102688:	1180053c 	lui	a1,0x8011
8010268c:	21200002 	move	a0,s0
80102690:	9cd3a524 	addiu	a1,a1,-11364
80102694:	0f80023c 	lui	v0,0x800f
80102698:	a8cf428c 	lw	v0,-12376(v0)
8010269c:	02000624 	li	a2,2
801026a0:	10df010c 	jal	0x80077c40
801026a4:	3c0002ae 	sw	v0,60(s0)
801026a8:	12000524 	li	a1,18
801026ac:	c400048e 	lw	a0,196(s0)
801026b0:	c146010c 	jal	0x80051b04
801026b4:	0f000624 	li	a2,15
801026b8:	12000524 	li	a1,18
801026bc:	d000048e 	lw	a0,208(s0)
801026c0:	c146010c 	jal	0x80051b04
801026c4:	10000624 	li	a2,16
801026c8:	12000524 	li	a1,18
801026cc:	dc00048e 	lw	a0,220(s0)
801026d0:	c146010c 	jal	0x80051b04
801026d4:	11000624 	li	a2,17
801026d8:	de2d0408 	j	0x8010b778
801026dc:	00000000 	nop
801026e0:	79000392 	lbu	v1,121(s0)
801026e4:	01000224 	li	v0,1
801026e8:	40006214 	bne	v1,v0,0x801027ec
801026ec:	21280000 	move	a1,zero
801026f0:	03000424 	li	a0,3
801026f4:	06000292 	lbu	v0,6(s0)
801026f8:	2130a000 	move	a2,a1
801026fc:	01004224 	addiu	v0,v0,1
80102700:	64d1010c 	jal	0x80074590
80102704:	060002a2 	sb	v0,6(s0)
80102708:	21200002 	move	a0,s0
8010270c:	0180053c 	lui	a1,0x8001
80102710:	e87fa524 	addiu	a1,a1,32744
80102714:	0f80023c 	lui	v0,0x800f
80102718:	02000624 	li	a2,2
8010271c:	68cf428c 	lw	v0,-12440(v0)
80102720:	06000724 	li	a3,6
80102724:	3fdf010c 	jal	0x80077cfc
80102728:	3c0002ae 	sw	v0,60(s0)
8010272c:	12000524 	li	a1,18
80102730:	c400048e 	lw	a0,196(s0)
80102734:	c146010c 	jal	0x80051b04
80102738:	01000624 	li	a2,1
8010273c:	12000524 	li	a1,18
80102740:	d000048e 	lw	a0,208(s0)
80102744:	c146010c 	jal	0x80051b04
80102748:	04000624 	li	a2,4
8010274c:	12000524 	li	a1,18
80102750:	dc00048e 	lw	a0,220(s0)
80102754:	c146010c 	jal	0x80051b04
80102758:	07000624 	li	a2,7
8010275c:	e22d0408 	j	0x8010b788
80102760:	00000000 	nop
80102764:	0c80023c 	lui	v0,0x800c
80102768:	b4f94390 	lbu	v1,-1612(v0)
8010276c:	06000224 	li	v0,6
80102770:	1e006214 	bne	v1,v0,0x801027ec
80102774:	0180053c 	lui	a1,0x8001
80102778:	21200002 	move	a0,s0
8010277c:	e87fa524 	addiu	a1,a1,32744
80102780:	1180063c 	lui	a2,0x8011
80102784:	d0cbc624 	addiu	a2,a2,-13360
80102788:	10400224 	li	v0,16400
8010278c:	2e0002a6 	sh	v0,46(s0)
80102790:	bef10224 	li	v0,-3650
80102794:	320002a6 	sh	v0,50(s0)
80102798:	b54e0224 	li	v0,20149
8010279c:	360002a6 	sh	v0,54(s0)
801027a0:	06000292 	lbu	v0,6(s0)
801027a4:	00080324 	li	v1,2048
801027a8:	560003a6 	sh	v1,86(s0)
801027ac:	01004224 	addiu	v0,v0,1
801027b0:	3703010c 	jal	0x80040cdc
801027b4:	060002a2 	sb	v0,6(s0)
801027b8:	01000224 	li	v0,1
801027bc:	e22d0408 	j	0x8010b788
801027c0:	700002a2 	sb	v0,112(s0)
801027c4:	2604010c 	jal	0x80041098
801027c8:	21200002 	move	a0,s0
801027cc:	70000392 	lbu	v1,112(s0)
801027d0:	ff000224 	li	v0,255
801027d4:	05006214 	bne	v1,v0,0x801027ec
801027d8:	00000000 	nop
801027dc:	06000292 	lbu	v0,6(s0)
801027e0:	00000000 	nop
801027e4:	01004224 	addiu	v0,v0,1
801027e8:	060002a2 	sb	v0,6(s0)
801027ec:	1400bf8f 	lw	ra,20(sp)
801027f0:	1000b08f 	lw	s0,16(sp)
801027f4:	0800e003 	jr	ra
801027f8:	1800bd27 	addiu	sp,sp,24
801027fc:	e0ffbd27 	addiu	sp,sp,-32
80102800:	1000b0af 	sw	s0,16(sp)
80102804:	21808000 	move	s0,a0
80102808:	1c00bfaf 	sw	ra,28(sp)
8010280c:	1800b2af 	sw	s2,24(sp)
80102810:	1400b1af 	sw	s1,20(sp)
80102814:	04000392 	lbu	v1,4(s0)
80102818:	01001224 	li	s2,1
8010281c:	2a007210 	beq	v1,s2,0x801028c8
80102820:	02006228 	slti	v0,v1,2
80102824:	05004010 	beqz	v0,0x8010283c
80102828:	00000000 	nop
8010282c:	0a006010 	beqz	v1,0x80102858
80102830:	21200002 	move	a0,s0
80102834:	252e0408 	j	0x8010b894
80102838:	00000000 	nop
8010283c:	02000224 	li	v0,2
80102840:	2d006210 	beq	v1,v0,0x801028f8
80102844:	03000224 	li	v0,3
80102848:	29006210 	beq	v1,v0,0x801028f0
8010284c:	00000000 	nop
80102850:	252e0408 	j	0x8010b894
80102854:	00000000 	nop
80102858:	0f000524 	li	a1,15
8010285c:	0f80023c 	lui	v0,0x800f
80102860:	58cf5124 	addiu	s1,v0,-12456
80102864:	4800268e 	lw	a2,72(s1)
80102868:	1180073c 	lui	a3,0x8011
8010286c:	7846010c 	jal	0x800519e0
80102870:	08cbe724 	addiu	a3,a3,-13560
80102874:	20004014 	bnez	v0,0x801028f8
80102878:	0180053c 	lui	a1,0x8001
8010287c:	21200002 	move	a0,s0
80102880:	e87fa524 	addiu	a1,a1,32744
80102884:	1000228e 	lw	v0,16(s1)
80102888:	02000624 	li	a2,2
8010288c:	10df010c 	jal	0x80077c40
80102890:	3c0002ae 	sw	v0,60(s0)
80102894:	21200002 	move	a0,s0
80102898:	60000224 	li	v0,96
8010289c:	840082a4 	sh	v0,132(a0)
801028a0:	04008290 	lbu	v0,4(a0)
801028a4:	32008394 	lhu	v1,50(a0)
801028a8:	030092a0 	sb	s2,3(a0)
801028ac:	01004224 	addiu	v0,v0,1
801028b0:	a0ff6324 	addiu	v1,v1,-96
801028b4:	040082a0 	sb	v0,4(a0)
801028b8:	8c2b040c 	jal	0x8010ae30
801028bc:	320083a4 	sh	v1,50(a0)
801028c0:	252e0408 	j	0x8010b894
801028c4:	00000000 	nop
801028c8:	e3dd010c 	jal	0x8007778c
801028cc:	21200002 	move	a0,s0
801028d0:	622d040c 	jal	0x8010b588
801028d4:	21200002 	move	a0,s0
801028d8:	4306010c 	jal	0x8004190c
801028dc:	21200002 	move	a0,s0
801028e0:	3f46010c 	jal	0x800518fc
801028e4:	21200002 	move	a0,s0
801028e8:	252e0408 	j	0x8010b894
801028ec:	00000000 	nop
801028f0:	89e9010c 	jal	0x8007a624
801028f4:	21200002 	move	a0,s0
801028f8:	1c00bf8f 	lw	ra,28(sp)
801028fc:	1800b28f 	lw	s2,24(sp)
80102900:	1400b18f 	lw	s1,20(sp)
80102904:	1000b08f 	lw	s0,16(sp)
80102908:	0800e003 	jr	ra
8010290c:	2000bd27 	addiu	sp,sp,32
80102910:	e8ffbd27 	addiu	sp,sp,-24
80102914:	1000b0af 	sw	s0,16(sp)
80102918:	21808000 	move	s0,a0
8010291c:	1400bfaf 	sw	ra,20(sp)
80102920:	78000392 	lbu	v1,120(s0)
80102924:	01000224 	li	v0,1
80102928:	10006210 	beq	v1,v0,0x8010296c
8010292c:	02006228 	slti	v0,v1,2
80102930:	05004010 	beqz	v0,0x80102948
80102934:	02000224 	li	v0,2
80102938:	07006010 	beqz	v1,0x80102958
8010293c:	00d00324 	li	v1,-12288
80102940:	5f2e0408 	j	0x8010b97c
80102944:	00000000 	nop
80102948:	13006210 	beq	v1,v0,0x80102998
8010294c:	00000000 	nop
80102950:	5f2e0408 	j	0x8010b97c
80102954:	00000000 	nop
80102958:	78000292 	lbu	v0,120(s0)
8010295c:	4a0003a6 	sh	v1,74(s0)
80102960:	01004224 	addiu	v0,v0,1
80102964:	5f2e0408 	j	0x8010b97c
80102968:	780002a2 	sb	v0,120(s0)
8010296c:	01000292 	lbu	v0,1(s0)
80102970:	00000000 	nop
80102974:	08004014 	bnez	v0,0x80102998
80102978:	07000424 	li	a0,7
8010297c:	21280000 	move	a1,zero
80102980:	64d1010c 	jal	0x80074590
80102984:	2130a000 	move	a2,a1
80102988:	78000292 	lbu	v0,120(s0)
8010298c:	00000000 	nop
80102990:	01004224 	addiu	v0,v0,1
80102994:	780002a2 	sb	v0,120(s0)
80102998:	4a000296 	lhu	v0,74(s0)
8010299c:	00000000 	nop
801029a0:	60034224 	addiu	v0,v0,864
801029a4:	4a0002a6 	sh	v0,74(s0)
801029a8:	00140200 	sll	v0,v0,0x10
801029ac:	03140200 	sra	v0,v0,0x10
801029b0:	013e4228 	slti	v0,v0,15873
801029b4:	02004014 	bnez	v0,0x801029c0
801029b8:	003e0224 	li	v0,15872
801029bc:	4a0002a6 	sh	v0,74(s0)
801029c0:	4a000286 	lh	v0,74(s0)
801029c4:	3000038e 	lw	v1,48(s0)
801029c8:	2e000496 	lhu	a0,46(s0)
801029cc:	00120200 	sll	v0,v0,0x8
801029d0:	21186200 	addu	v1,v1,v0
801029d4:	f0ff8424 	addiu	a0,a0,-16
801029d8:	300003ae 	sw	v1,48(s0)
801029dc:	2e0004a6 	sh	a0,46(s0)
801029e0:	1400bf8f 	lw	ra,20(sp)
801029e4:	1000b08f 	lw	s0,16(sp)
801029e8:	21100000 	move	v0,zero
801029ec:	0800e003 	jr	ra
801029f0:	1800bd27 	addiu	sp,sp,24
801029f4:	d0ffbd27 	addiu	sp,sp,-48
801029f8:	2000b0af 	sw	s0,32(sp)
801029fc:	21808000 	move	s0,a0
80102a00:	2800bfaf 	sw	ra,40(sp)
80102a04:	2400b1af 	sw	s1,36(sp)
80102a08:	04000492 	lbu	a0,4(s0)
80102a0c:	01000224 	li	v0,1
80102a10:	23008210 	beq	a0,v0,0x80102aa0
80102a14:	02008228 	slti	v0,a0,2
80102a18:	05004010 	beqz	v0,0x80102a30
80102a1c:	00000000 	nop
80102a20:	08008010 	beqz	a0,0x80102a44
80102a24:	21200002 	move	a0,s0
80102a28:	b92e0408 	j	0x8010bae4
80102a2c:	00000000 	nop
80102a30:	04008228 	slti	v0,a0,4
80102a34:	44004010 	beqz	v0,0x80102b48
80102a38:	00000000 	nop
80102a3c:	b72e0408 	j	0x8010badc
80102a40:	00000000 	nop
80102a44:	0f000524 	li	a1,15
80102a48:	0f80023c 	lui	v0,0x800f
80102a4c:	58cf5124 	addiu	s1,v0,-12456
80102a50:	4c00268e 	lw	a2,76(s1)
80102a54:	1180073c 	lui	a3,0x8011
80102a58:	7846010c 	jal	0x800519e0
80102a5c:	b0c9e724 	addiu	a3,a3,-13904
80102a60:	39004014 	bnez	v0,0x80102b48
80102a64:	1180053c 	lui	a1,0x8011
80102a68:	21200002 	move	a0,s0
80102a6c:	9cd3a524 	addiu	a1,a1,-11364
80102a70:	5000228e 	lw	v0,80(s1)
80102a74:	21300000 	move	a2,zero
80102a78:	10df010c 	jal	0x80077c40
80102a7c:	3c0002ae 	sw	v0,60(s0)
80102a80:	00040224 	li	v0,1024
80102a84:	560002a6 	sh	v0,86(s0)
80102a88:	04000292 	lbu	v0,4(s0)
80102a8c:	00020324 	li	v1,512
80102a90:	540003a6 	sh	v1,84(s0)
80102a94:	01004224 	addiu	v0,v0,1
80102a98:	b92e0408 	j	0x8010bae4
80102a9c:	040002a2 	sb	v0,4(s0)
80102aa0:	0c80023c 	lui	v0,0x800c
80102aa4:	b4f94390 	lbu	v1,-1612(v0)
80102aa8:	05000224 	li	v0,5
80102aac:	26006214 	bne	v1,v0,0x80102b48
80102ab0:	00000000 	nop
80102ab4:	05000292 	lbu	v0,5(s0)
80102ab8:	00000000 	nop
80102abc:	05004010 	beqz	v0,0x80102ad4
80102ac0:	1000a527 	addiu	a1,sp,16
80102ac4:	13004410 	beq	v0,a0,0x80102b14
80102ac8:	21200002 	move	a0,s0
80102acc:	b92e0408 	j	0x8010bae4
80102ad0:	00000000 	nop
80102ad4:	2e000296 	lhu	v0,46(s0)
80102ad8:	2b000424 	li	a0,43
80102adc:	1200a2a7 	sh	v0,18(sp)
80102ae0:	32000296 	lhu	v0,50(s0)
80102ae4:	00000000 	nop
80102ae8:	1600a2a7 	sh	v0,22(sp)
80102aec:	36000296 	lhu	v0,54(s0)
80102af0:	21300000 	move	a2,zero
80102af4:	6c074224 	addiu	v0,v0,1900
80102af8:	5bc4000c 	jal	0x8003116c
80102afc:	1a00a2a7 	sh	v0,26(sp)
80102b00:	05000292 	lbu	v0,5(s0)
80102b04:	00000000 	nop
80102b08:	01004224 	addiu	v0,v0,1
80102b0c:	b92e0408 	j	0x8010bae4
80102b10:	050002a2 	sb	v0,5(s0)
80102b14:	36000296 	lhu	v0,54(s0)
80102b18:	00000000 	nop
80102b1c:	0a004224 	addiu	v0,v0,10
80102b20:	4306010c 	jal	0x8004190c
80102b24:	360002a6 	sh	v0,54(s0)
80102b28:	3f46010c 	jal	0x800518fc
80102b2c:	21200002 	move	a0,s0
80102b30:	e3dd010c 	jal	0x8007778c
80102b34:	21200002 	move	a0,s0
80102b38:	b92e0408 	j	0x8010bae4
80102b3c:	00000000 	nop
80102b40:	89e9010c 	jal	0x8007a624
80102b44:	21200002 	move	a0,s0
80102b48:	2800bf8f 	lw	ra,40(sp)
80102b4c:	2400b18f 	lw	s1,36(sp)
80102b50:	2000b08f 	lw	s0,32(sp)
80102b54:	0800e003 	jr	ra
80102b58:	3000bd27 	addiu	sp,sp,48
80102b5c:	e8ffbd27 	addiu	sp,sp,-24
80102b60:	1000b0af 	sw	s0,16(sp)
80102b64:	1400bfaf 	sw	ra,20(sp)
80102b68:	e3dd010c 	jal	0x8007778c
80102b6c:	21808000 	move	s0,a0
80102b70:	02004014 	bnez	v0,0x80102b7c
80102b74:	03000224 	li	v0,3
80102b78:	040002a2 	sb	v0,4(s0)
80102b7c:	05000592 	lbu	a1,5(s0)
80102b80:	01000324 	li	v1,1
80102b84:	1a00a310 	beq	a1,v1,0x80102bf0
80102b88:	0200a228 	slti	v0,a1,2
80102b8c:	05004010 	beqz	v0,0x80102ba4
80102b90:	00000000 	nop
80102b94:	0a00a010 	beqz	a1,0x80102bc0
80102b98:	00000000 	nop
80102b9c:	1f2f0408 	j	0x8010bc7c
80102ba0:	00000000 	nop
80102ba4:	02000224 	li	v0,2
80102ba8:	1900a210 	beq	a1,v0,0x80102c10
80102bac:	03000224 	li	v0,3
80102bb0:	3800a210 	beq	a1,v0,0x80102c94
80102bb4:	00000000 	nop
80102bb8:	1f2f0408 	j	0x8010bc7c
80102bbc:	00000000 	nop
80102bc0:	1000048e 	lw	a0,16(s0)
80102bc4:	132d040c 	jal	0x8010b44c
80102bc8:	050003a2 	sb	v1,5(s0)
80102bcc:	2e000396 	lhu	v1,46(s0)
80102bd0:	21204000 	move	a0,v0
80102bd4:	2e0083a4 	sh	v1,46(a0)
80102bd8:	32000296 	lhu	v0,50(s0)
80102bdc:	00000000 	nop
80102be0:	320082a4 	sh	v0,50(a0)
80102be4:	36000296 	lhu	v0,54(s0)
80102be8:	00000000 	nop
80102bec:	360082a4 	sh	v0,54(a0)
80102bf0:	0c80023c 	lui	v0,0x800c
80102bf4:	b4f94390 	lbu	v1,-1612(v0)
80102bf8:	03000224 	li	v0,3
80102bfc:	11006214 	bne	v1,v0,0x80102c44
80102c00:	0a000324 	li	v1,10
80102c04:	05000292 	lbu	v0,5(s0)
80102c08:	f62e0408 	j	0x8010bbd8
80102c0c:	400003a6 	sh	v1,64(s0)
80102c10:	40000296 	lhu	v0,64(s0)
80102c14:	00000000 	nop
80102c18:	ffff4224 	addiu	v0,v0,-1
80102c1c:	400002a6 	sh	v0,64(s0)
80102c20:	00140200 	sll	v0,v0,0x10
80102c24:	07004014 	bnez	v0,0x80102c44
80102c28:	00c00224 	li	v0,-16384
80102c2c:	4a0002a6 	sh	v0,74(s0)
80102c30:	05000292 	lbu	v0,5(s0)
80102c34:	00040324 	li	v1,1024
80102c38:	500003a6 	sh	v1,80(s0)
80102c3c:	01004224 	addiu	v0,v0,1
80102c40:	050002a2 	sb	v0,5(s0)
80102c44:	1000048e 	lw	a0,16(s0)
80102c48:	00000000 	nop
80102c4c:	dc00828c 	lw	v0,220(a0)
80102c50:	00000000 	nop
80102c54:	2c004294 	lhu	v0,44(v0)
80102c58:	00000000 	nop
80102c5c:	2e0002a6 	sh	v0,46(s0)
80102c60:	dc00828c 	lw	v0,220(a0)
80102c64:	00000000 	nop
80102c68:	30004294 	lhu	v0,48(v0)
80102c6c:	00000000 	nop
80102c70:	14004224 	addiu	v0,v0,20
80102c74:	320002a6 	sh	v0,50(s0)
80102c78:	dc00828c 	lw	v0,220(a0)
80102c7c:	00000000 	nop
80102c80:	34004294 	lhu	v0,52(v0)
80102c84:	00000000 	nop
80102c88:	c4ff4224 	addiu	v0,v0,-60
80102c8c:	1f2f0408 	j	0x8010bc7c
80102c90:	360002a6 	sh	v0,54(s0)
80102c94:	5a000296 	lhu	v0,90(s0)
80102c98:	00000000 	nop
80102c9c:	80004224 	addiu	v0,v0,128
80102ca0:	5a0002a6 	sh	v0,90(s0)
80102ca4:	4a000286 	lh	v0,74(s0)
80102ca8:	3000038e 	lw	v1,48(s0)
80102cac:	00120200 	sll	v0,v0,0x8
80102cb0:	21186200 	addu	v1,v1,v0
80102cb4:	300003ae 	sw	v1,48(s0)
80102cb8:	4a000396 	lhu	v1,74(s0)
80102cbc:	50000296 	lhu	v0,80(s0)
80102cc0:	01000492 	lbu	a0,1(s0)
80102cc4:	21106200 	addu	v0,v1,v0
80102cc8:	04008010 	beqz	a0,0x80102cdc
80102ccc:	4a0002a6 	sh	v0,74(s0)
80102cd0:	00140200 	sll	v0,v0,0x10
80102cd4:	02004014 	bnez	v0,0x80102ce0
80102cd8:	00000000 	nop
80102cdc:	040005a2 	sb	a1,4(s0)
80102ce0:	1400bf8f 	lw	ra,20(sp)
80102ce4:	1000b08f 	lw	s0,16(sp)
80102ce8:	0800e003 	jr	ra
80102cec:	1800bd27 	addiu	sp,sp,24
80102cf0:	e0ffbd27 	addiu	sp,sp,-32
80102cf4:	1400b1af 	sw	s1,20(sp)
80102cf8:	21888000 	move	s1,a0
80102cfc:	1800bfaf 	sw	ra,24(sp)
80102d00:	1000b0af 	sw	s0,16(sp)
80102d04:	04002392 	lbu	v1,4(s1)
80102d08:	01000424 	li	a0,1
80102d0c:	34006410 	beq	v1,a0,0x80102de0
80102d10:	02006228 	slti	v0,v1,2
80102d14:	05004010 	beqz	v0,0x80102d2c
80102d18:	00000000 	nop
80102d1c:	0a006010 	beqz	v1,0x80102d48
80102d20:	00000000 	nop
80102d24:	692f0408 	j	0x8010bda4
80102d28:	00000000 	nop
80102d2c:	02000224 	li	v0,2
80102d30:	35006210 	beq	v1,v0,0x80102e08
80102d34:	03000224 	li	v0,3
80102d38:	31006210 	beq	v1,v0,0x80102e00
80102d3c:	00000000 	nop
80102d40:	692f0408 	j	0x8010bda4
80102d44:	00000000 	nop
80102d48:	03002292 	lbu	v0,3(s1)
80102d4c:	00000000 	nop
80102d50:	2d004014 	bnez	v0,0x80102e08
80102d54:	040024a2 	sb	a0,4(s1)
80102d58:	0f80023c 	lui	v0,0x800f
80102d5c:	21202002 	move	a0,s1
80102d60:	1180053c 	lui	a1,0x8011
80102d64:	90d4a524 	addiu	a1,a1,-11120
80102d68:	80cf428c 	lw	v0,-12416(v0)
80102d6c:	1000308e 	lw	s0,16(s1)
80102d70:	21300000 	move	a2,zero
80102d74:	cede010c 	jal	0x80077b38
80102d78:	3c0022ae 	sw	v0,60(s1)
80102d7c:	10000224 	li	v0,16
80102d80:	0d0020a2 	sb	zero,13(s1)
80102d84:	5c0020a6 	sh	zero,92(s1)
80102d88:	0b0022a2 	sb	v0,11(s1)
80102d8c:	5a0020a6 	sh	zero,90(s1)
80102d90:	470020a2 	sb	zero,71(s1)
80102d94:	080020a2 	sb	zero,8(s1)
80102d98:	dc00028e 	lw	v0,220(s0)
80102d9c:	00000000 	nop
80102da0:	2c004294 	lhu	v0,44(v0)
80102da4:	00000000 	nop
80102da8:	2e0022a6 	sh	v0,46(s1)
80102dac:	dc00028e 	lw	v0,220(s0)
80102db0:	00000000 	nop
80102db4:	30004294 	lhu	v0,48(v0)
80102db8:	00000000 	nop
80102dbc:	14004224 	addiu	v0,v0,20
80102dc0:	320022a6 	sh	v0,50(s1)
80102dc4:	dc00028e 	lw	v0,220(s0)
80102dc8:	00000000 	nop
80102dcc:	34004294 	lhu	v0,52(v0)
80102dd0:	00000000 	nop
80102dd4:	b0ff4224 	addiu	v0,v0,-80
80102dd8:	692f0408 	j	0x8010bda4
80102ddc:	360022a6 	sh	v0,54(s1)
80102de0:	03002292 	lbu	v0,3(s1)
80102de4:	00000000 	nop
80102de8:	07004014 	bnez	v0,0x80102e08
80102dec:	00000000 	nop
80102df0:	be2e040c 	jal	0x8010baf8
80102df4:	21202002 	move	a0,s1
80102df8:	692f0408 	j	0x8010bda4
80102dfc:	00000000 	nop
80102e00:	89e9010c 	jal	0x8007a624
80102e04:	21202002 	move	a0,s1
80102e08:	1800bf8f 	lw	ra,24(sp)
80102e0c:	1400b18f 	lw	s1,20(sp)
80102e10:	1000b08f 	lw	s0,16(sp)
80102e14:	0800e003 	jr	ra
80102e18:	2000bd27 	addiu	sp,sp,32
80102e1c:	e8ffbd27 	addiu	sp,sp,-24
80102e20:	1000b0af 	sw	s0,16(sp)
80102e24:	21808000 	move	s0,a0
80102e28:	21280000 	move	a1,zero
80102e2c:	03000624 	li	a2,3
80102e30:	1400bfaf 	sw	ra,20(sp)
80102e34:	77cb010c 	jal	0x80072ddc
80102e38:	1e000724 	li	a3,30
80102e3c:	21184000 	move	v1,v0
80102e40:	04006010 	beqz	v1,0x80102e54
80102e44:	1180023c 	lui	v0,0x8011
80102e48:	8cbc4224 	addiu	v0,v0,-17268
80102e4c:	1c0062ac 	sw	v0,28(v1)
80102e50:	100070ac 	sw	s0,16(v1)
80102e54:	1400bf8f 	lw	ra,20(sp)
80102e58:	1000b08f 	lw	s0,16(sp)
80102e5c:	21106000 	move	v0,v1
80102e60:	0800e003 	jr	ra
80102e64:	1800bd27 	addiu	sp,sp,24
80102e68:	e0ffbd27 	addiu	sp,sp,-32
80102e6c:	1000b0af 	sw	s0,16(sp)
80102e70:	21808000 	move	s0,a0
80102e74:	0f80023c 	lui	v0,0x800f
80102e78:	1180053c 	lui	a1,0x8011
80102e7c:	80cf428c 	lw	v0,-12416(v0)
80102e80:	90d4a524 	addiu	a1,a1,-11120
80102e84:	1800bfaf 	sw	ra,24(sp)
80102e88:	1400b1af 	sw	s1,20(sp)
80102e8c:	1000118e 	lw	s1,16(s0)
80102e90:	21300000 	move	a2,zero
80102e94:	cede010c 	jal	0x80077b38
80102e98:	3c0002ae 	sw	v0,60(s0)
80102e9c:	10000224 	li	v0,16
80102ea0:	0d0000a2 	sb	zero,13(s0)
80102ea4:	5c0000a6 	sh	zero,92(s0)
80102ea8:	0b0002a2 	sb	v0,11(s0)
80102eac:	5a0000a6 	sh	zero,90(s0)
80102eb0:	470000a2 	sb	zero,71(s0)
80102eb4:	080000a2 	sb	zero,8(s0)
80102eb8:	dc00228e 	lw	v0,220(s1)
80102ebc:	00000000 	nop
80102ec0:	2c004294 	lhu	v0,44(v0)
80102ec4:	00000000 	nop
80102ec8:	2e0002a6 	sh	v0,46(s0)
80102ecc:	dc00228e 	lw	v0,220(s1)
80102ed0:	00000000 	nop
80102ed4:	30004294 	lhu	v0,48(v0)
80102ed8:	00000000 	nop
80102edc:	14004224 	addiu	v0,v0,20
80102ee0:	320002a6 	sh	v0,50(s0)
80102ee4:	dc00228e 	lw	v0,220(s1)
80102ee8:	00000000 	nop
80102eec:	34004294 	lhu	v0,52(v0)
80102ef0:	00000000 	nop
80102ef4:	b0ff4224 	addiu	v0,v0,-80
80102ef8:	360002a6 	sh	v0,54(s0)
80102efc:	1800bf8f 	lw	ra,24(sp)
80102f00:	1400b18f 	lw	s1,20(sp)
80102f04:	1000b08f 	lw	s0,16(sp)
80102f08:	0800e003 	jr	ra
80102f0c:	2000bd27 	addiu	sp,sp,32
80102f10:	e8ffbd27 	addiu	sp,sp,-24
80102f14:	1000bfaf 	sw	ra,16(sp)
80102f18:	04008390 	lbu	v1,4(a0)
80102f1c:	01000624 	li	a2,1
80102f20:	11006610 	beq	v1,a2,0x80102f68
80102f24:	50008524 	addiu	a1,a0,80
80102f28:	02006228 	slti	v0,v1,2
80102f2c:	05004010 	beqz	v0,0x80102f44
80102f30:	04006228 	slti	v0,v1,4
80102f34:	07006010 	beqz	v1,0x80102f54
80102f38:	00040224 	li	v0,1024
80102f3c:	d12f0408 	j	0x8010bf44
80102f40:	00000000 	nop
80102f44:	18004010 	beqz	v0,0x80102fa8
80102f48:	00000000 	nop
80102f4c:	cf2f0408 	j	0x8010bf3c
80102f50:	00000000 	nop
80102f54:	040086a0 	sb	a2,4(a0)
80102f58:	480082a4 	sh	v0,72(a0)
80102f5c:	4a0080a4 	sh	zero,74(a0)
80102f60:	4c0080ac 	sw	zero,76(a0)
80102f64:	500080a4 	sh	zero,80(a0)
80102f68:	4e008294 	lhu	v0,78(a0)
80102f6c:	01000324 	li	v1,1
80102f70:	010083a0 	sb	v1,1(a0)
80102f74:	e0ff4224 	addiu	v0,v0,-32
80102f78:	4e0082a4 	sh	v0,78(a0)
80102f7c:	0000a394 	lhu	v1,0(a1)
80102f80:	00000000 	nop
80102f84:	f7ff6224 	addiu	v0,v1,-9
80102f88:	0000a2a4 	sh	v0,0(a1)
80102f8c:	00140200 	sll	v0,v0,0x10
80102f90:	05004104 	bgez	v0,0x80102fa8
80102f94:	4b006224 	addiu	v0,v1,75
80102f98:	d12f0408 	j	0x8010bf44
80102f9c:	0000a2a4 	sh	v0,0(a1)
80102fa0:	89e9010c 	jal	0x8007a624
80102fa4:	00000000 	nop
80102fa8:	1000bf8f 	lw	ra,16(sp)
80102fac:	00000000 	nop
80102fb0:	0800e003 	jr	ra
80102fb4:	1800bd27 	addiu	sp,sp,24
80102fb8:	d0ffbd27 	addiu	sp,sp,-48
80102fbc:	1800b0af 	sw	s0,24(sp)
80102fc0:	21808000 	move	s0,a0
80102fc4:	2000b2af 	sw	s2,32(sp)
80102fc8:	50001226 	addiu	s2,s0,80
80102fcc:	1c00b1af 	sw	s1,28(sp)
80102fd0:	21880000 	move	s1,zero
80102fd4:	2400b3af 	sw	s3,36(sp)
80102fd8:	1180133c 	lui	s3,0x8011
80102fdc:	1180023c 	lui	v0,0x8011
80102fe0:	2800bfaf 	sw	ra,40(sp)
80102fe4:	f08f4a24 	addiu	t2,v0,-28688
80102fe8:	03004389 	lwl	v1,3(t2)
80102fec:	00004399 	lwr	v1,0(t2)
80102ff0:	00000000 	nop
80102ff4:	1300a3ab 	swl	v1,19(sp)
80102ff8:	1000a3bb 	swr	v1,16(sp)
80102ffc:	801f023c 	lui	v0,0x1f80
80103000:	900040ac 	sw	zero,144(v0)
80103004:	2c000426 	addiu	a0,s0,44
80103008:	1000a527 	addiu	a1,sp,16
8010300c:	49c7000c 	jal	0x80031d24
80103010:	48000626 	addiu	a2,s0,72
80103014:	08cc6426 	addiu	a0,s3,-13304
80103018:	21280000 	move	a1,zero
8010301c:	00004786 	lh	a3,0(s2)
80103020:	da9d000c 	jal	0x80027768
80103024:	2130a000 	move	a2,a1
80103028:	4e000296 	lhu	v0,78(s0)
8010302c:	01003126 	addiu	s1,s1,1
80103030:	00084224 	addiu	v0,v0,2048
80103034:	4e0002a6 	sh	v0,78(s0)
80103038:	0200222a 	slti	v0,s1,2
8010303c:	f2ff4014 	bnez	v0,0x80103008
80103040:	2c000426 	addiu	a0,s0,44
80103044:	2800bf8f 	lw	ra,40(sp)
80103048:	2400b38f 	lw	s3,36(sp)
8010304c:	2000b28f 	lw	s2,32(sp)
80103050:	1c00b18f 	lw	s1,28(sp)
80103054:	1800b08f 	lw	s0,24(sp)
80103058:	0800e003 	jr	ra
8010305c:	3000bd27 	addiu	sp,sp,48
80103060:	21408000 	move	t0,a0
80103064:	0f80023c 	lui	v0,0x800f
80103068:	01000b24 	li	t3,1
8010306c:	00000391 	lbu	v1,0(t0)
80103070:	84cf468c 	lw	a2,-12412(v0)
80103074:	50006b10 	beq	v1,t3,0x801031b8
80103078:	f8ffbd27 	addiu	sp,sp,-8
8010307c:	02006228 	slti	v0,v1,2
80103080:	91004010 	beqz	v0,0x801032c8
80103084:	00000000 	nop
80103088:	8f006014 	bnez	v1,0x801032c8
8010308c:	e338073c 	lui	a3,0x38e3
80103090:	00000ba1 	sb	t3,0(t0)
80103094:	030000a1 	sb	zero,3(t0)
80103098:	0000c294 	lhu	v0,0(a2)
8010309c:	00000000 	nop
801030a0:	040002a5 	sh	v0,4(t0)
801030a4:	0200c294 	lhu	v0,2(a2)
801030a8:	00000000 	nop
801030ac:	060002a5 	sh	v0,6(t0)
801030b0:	0400c294 	lhu	v0,4(a2)
801030b4:	00000000 	nop
801030b8:	080002a5 	sh	v0,8(t0)
801030bc:	0600c294 	lhu	v0,6(a2)
801030c0:	00000000 	nop
801030c4:	0a0002a5 	sh	v0,10(t0)
801030c8:	0800c294 	lhu	v0,8(a2)
801030cc:	00000000 	nop
801030d0:	0c0002a5 	sh	v0,12(t0)
801030d4:	0a00c294 	lhu	v0,10(a2)
801030d8:	00000000 	nop
801030dc:	0e0002a5 	sh	v0,14(t0)
801030e0:	0c00c290 	lbu	v0,12(a2)
801030e4:	00000000 	nop
801030e8:	100002a1 	sb	v0,16(t0)
801030ec:	0d00c290 	lbu	v0,13(a2)
801030f0:	00000000 	nop
801030f4:	110002a1 	sb	v0,17(t0)
801030f8:	0e00c494 	lhu	a0,14(a2)
801030fc:	1000c594 	lhu	a1,16(a2)
80103100:	00090224 	li	v0,2304
80103104:	2c0002a5 	sh	v0,44(t0)
80103108:	ffff4330 	andi	v1,v0,0xffff
8010310c:	10000291 	lbu	v0,16(t0)
80103110:	00000000 	nop
80103114:	18006200 	mult	v1,v0
80103118:	12100000 	mflo	v0
8010311c:	398ee734 	ori	a3,a3,0x8e39
80103120:	00000000 	nop
80103124:	18004700 	mult	v0,a3
80103128:	e8080224 	li	v0,2280
8010312c:	2e0002a5 	sh	v0,46(t0)
80103130:	ffff4330 	andi	v1,v0,0xffff
80103134:	10500000 	mfhi	t2
80103138:	11000291 	lbu	v0,17(t0)
8010313c:	00000000 	nop
80103140:	18006200 	mult	v1,v0
80103144:	02000924 	li	t1,2
80103148:	1400c624 	addiu	a2,a2,20
8010314c:	ffffa530 	andi	a1,a1,0xffff
80103150:	2128c500 	addu	a1,a2,a1
80103154:	ffff8430 	andi	a0,a0,0xffff
80103158:	12100000 	mflo	v0
8010315c:	2120a400 	addu	a0,a1,a0
80103160:	00000000 	nop
80103164:	18004700 	mult	v0,a3
80103168:	1c0004ad 	sw	a0,28(t0)
8010316c:	180006ad 	sw	a2,24(t0)
80103170:	140005ad 	sw	a1,20(t0)
80103174:	21188000 	move	v1,a0
80103178:	340003ad 	sw	v1,52(t0)
8010317c:	1180023c 	lui	v0,0x8011
80103180:	90d34224 	addiu	v0,v0,-11376
80103184:	21204900 	addu	a0,v0,t1
80103188:	43110a00 	sra	v0,t2,0x5
8010318c:	300002a5 	sh	v0,48(t0)
80103190:	10380000 	mfhi	a3
80103194:	43110700 	sra	v0,a3,0x5
80103198:	320002a5 	sh	v0,50(t0)
8010319c:	38000ba1 	sb	t3,56(t0)
801031a0:	000080a0 	sb	zero,0(a0)
801031a4:	ffff2925 	addiu	t1,t1,-1
801031a8:	fdff2105 	bgez	t1,0x801031a0
801031ac:	ffff8424 	addiu	a0,a0,-1
801031b0:	99300408 	j	0x8010c264
801031b4:	00000000 	nop
801031b8:	801f023c 	lui	v0,0x1f80
801031bc:	f2004384 	lh	v1,242(v0)
801031c0:	2c000295 	lhu	v0,44(t0)
801031c4:	00000000 	nop
801031c8:	18006200 	mult	v1,v0
801031cc:	40014224 	addiu	v0,v0,320
801031d0:	43100200 	sra	v0,v0,0x1
801031d4:	12600000 	mflo	t4
801031d8:	031b0c00 	sra	v1,t4,0xc
801031dc:	23284300 	subu	a1,v0,v1
801031e0:	0700a104 	bgez	a1,0x80103200
801031e4:	00000000 	nop
801031e8:	30000295 	lhu	v0,48(t0)
801031ec:	00000000 	nop
801031f0:	2128a200 	addu	a1,a1,v0
801031f4:	ffffa004 	bltz	a1,0x801031f4
801031f8:	2128a200 	addu	a1,a1,v0
801031fc:	2328a200 	subu	a1,a1,v0
80103200:	30000395 	lhu	v1,48(t0)
80103204:	00000000 	nop
80103208:	2a10a300 	slt	v0,a1,v1
8010320c:	07004014 	bnez	v0,0x8010322c
80103210:	801f023c 	lui	v0,0x1f80
80103214:	2328a300 	subu	a1,a1,v1
80103218:	2a10a300 	slt	v0,a1,v1
8010321c:	feff4010 	beqz	v0,0x80103218
80103220:	2328a300 	subu	a1,a1,v1
80103224:	2128a300 	addu	a1,a1,v1
80103228:	801f023c 	lui	v0,0x1f80
8010322c:	f0004384 	lh	v1,240(v0)
80103230:	2e000295 	lhu	v0,46(t0)
80103234:	00000000 	nop
80103238:	18006200 	mult	v1,v0
8010323c:	11000291 	lbu	v0,17(t0)
80103240:	00000000 	nop
80103244:	c0100200 	sll	v0,v0,0x3
80103248:	12600000 	mflo	t4
8010324c:	031b0c00 	sra	v1,t4,0xc
80103250:	21186200 	addu	v1,v1,v0
80103254:	e0ff6324 	addiu	v1,v1,-32
80103258:	07006104 	bgez	v1,0x80103278
8010325c:	00000000 	nop
80103260:	32000295 	lhu	v0,50(t0)
80103264:	00000000 	nop
80103268:	21186200 	addu	v1,v1,v0
8010326c:	ffff6004 	bltz	v1,0x8010326c
80103270:	21186200 	addu	v1,v1,v0
80103274:	23186200 	subu	v1,v1,v0
80103278:	32000495 	lhu	a0,50(t0)
8010327c:	00000000 	nop
80103280:	2a106400 	slt	v0,v1,a0
80103284:	06004014 	bnez	v0,0x801032a0
80103288:	00000000 	nop
8010328c:	23186400 	subu	v1,v1,a0
80103290:	2a106400 	slt	v0,v1,a0
80103294:	feff4010 	beqz	v0,0x80103290
80103298:	23186400 	subu	v1,v1,a0
8010329c:	21186400 	addu	v1,v1,a0
801032a0:	38000291 	lbu	v0,56(t0)
801032a4:	00000000 	nop
801032a8:	ffff4224 	addiu	v0,v0,-1
801032ac:	380002a1 	sb	v0,56(t0)
801032b0:	00160200 	sll	v0,v0,0x18
801032b4:	0200401c 	bgtz	v0,0x801032c0
801032b8:	01000224 	li	v0,1
801032bc:	030002a1 	sb	v0,3(t0)
801032c0:	280005a5 	sh	a1,40(t0)
801032c4:	2a0003a5 	sh	v1,42(t0)
801032c8:	0800e003 	jr	ra
801032cc:	0800bd27 	addiu	sp,sp,8
801032d0:	a8ffbd27 	addiu	sp,sp,-88
801032d4:	21608000 	move	t4,a0
801032d8:	5400bfaf 	sw	ra,84(sp)
801032dc:	5000beaf 	sw	s8,80(sp)
801032e0:	4c00b7af 	sw	s7,76(sp)
801032e4:	4800b6af 	sw	s6,72(sp)
801032e8:	4400b5af 	sw	s5,68(sp)
801032ec:	4000b4af 	sw	s4,64(sp)
801032f0:	3c00b3af 	sw	s3,60(sp)
801032f4:	3800b2af 	sw	s2,56(sp)
801032f8:	3400b1af 	sw	s1,52(sp)
801032fc:	3000b0af 	sw	s0,48(sp)
80103300:	10008391 	lbu	v1,16(t4)
80103304:	00000000 	nop
80103308:	40800300 	sll	s0,v1,0x1
8010330c:	11008391 	lbu	v1,17(t4)
80103310:	00000000 	nop
80103314:	18000302 	mult	s0,v1
80103318:	21c00000 	move	t8,zero
8010331c:	28008695 	lhu	a2,40(t4)
80103320:	2a008595 	lhu	a1,42(t4)
80103324:	60ffd524 	addiu	s5,a2,-160
80103328:	88ffa424 	addiu	a0,a1,-120
8010332c:	00140400 	sll	v0,a0,0x10
80103330:	03150200 	sra	v0,v0,0x14
80103334:	21504000 	move	t2,v0
80103338:	12c80000 	mflo	t9
8010333c:	08004104 	bgez	v0,0x80103360
80103340:	21a08000 	move	s4,a0
80103344:	11008391 	lbu	v1,17(t4)
80103348:	00000000 	nop
8010334c:	21104301 	addu	v0,t2,v1
80103350:	21504000 	move	t2,v0
80103354:	00140200 	sll	v0,v0,0x10
80103358:	fdff4004 	bltz	v0,0x80103350
8010335c:	21104301 	addu	v0,t2,v1
80103360:	00140a00 	sll	v0,t2,0x10
80103364:	11008391 	lbu	v1,17(t4)
80103368:	03140200 	sra	v0,v0,0x10
8010336c:	2a104300 	slt	v0,v0,v1
80103370:	0b004014 	bnez	v0,0x801033a0
80103374:	23100600 	negu	v0,a2
80103378:	11008491 	lbu	a0,17(t4)
8010337c:	00000000 	nop
80103380:	23104401 	subu	v0,t2,a0
80103384:	21504000 	move	t2,v0
80103388:	00140200 	sll	v0,v0,0x10
8010338c:	03140200 	sra	v0,v0,0x10
80103390:	2a104300 	slt	v0,v0,v1
80103394:	fbff4010 	beqz	v0,0x80103384
80103398:	23104401 	subu	v0,t2,a0
8010339c:	23100600 	negu	v0,a2
801033a0:	98004624 	addiu	a2,v0,152
801033a4:	23100500 	negu	v0,a1
801033a8:	70004524 	addiu	a1,v0,112
801033ac:	00140a00 	sll	v0,t2,0x10
801033b0:	03140200 	sra	v0,v0,0x10
801033b4:	18005000 	mult	v0,s0
801033b8:	001c1500 	sll	v1,s5,0x10
801033bc:	031d0300 	sra	v1,v1,0x14
801033c0:	12500000 	mflo	t2
801033c4:	08006104 	bgez	v1,0x801033e8
801033c8:	21586000 	move	t3,v1
801033cc:	10008391 	lbu	v1,16(t4)
801033d0:	00000000 	nop
801033d4:	21106301 	addu	v0,t3,v1
801033d8:	21584000 	move	t3,v0
801033dc:	00140200 	sll	v0,v0,0x10
801033e0:	fdff4004 	bltz	v0,0x801033d8
801033e4:	21106301 	addu	v0,t3,v1
801033e8:	00140b00 	sll	v0,t3,0x10
801033ec:	10008391 	lbu	v1,16(t4)
801033f0:	03140200 	sra	v0,v0,0x10
801033f4:	2a104300 	slt	v0,v0,v1
801033f8:	0a004014 	bnez	v0,0x80103424
801033fc:	00000000 	nop
80103400:	10008491 	lbu	a0,16(t4)
80103404:	00000000 	nop
80103408:	23106401 	subu	v0,t3,a0
8010340c:	21584000 	move	t3,v0
80103410:	00140200 	sll	v0,v0,0x10
80103414:	03140200 	sra	v0,v0,0x10
80103418:	2a104300 	slt	v0,v0,v1
8010341c:	fbff4010 	beqz	v0,0x8010340c
80103420:	23106401 	subu	v0,t3,a0
80103424:	40580b00 	sll	t3,t3,0x1
80103428:	0c80023c 	lui	v0,0x800c
8010342c:	44f5528c 	lw	s2,-2748(v0)
80103430:	21888002 	move	s1,s4
80103434:	01000224 	li	v0,1
80103438:	53004010 	beqz	v0,0x80103588
8010343c:	21f04002 	move	s8,s2
80103440:	00140500 	sll	v0,a1,0x10
80103444:	03bc0200 	sra	s7,v0,0x10
80103448:	01001624 	li	s6,1
8010344c:	00140600 	sll	v0,a2,0x10
80103450:	039c0200 	sra	s3,v0,0x10
80103454:	21406001 	move	t0,t3
80103458:	2148a002 	move	t1,s5
8010345c:	f0ff2232 	andi	v0,s1,0xfff0
80103460:	3800c012 	beqz	s6,0x80103544
80103464:	21785700 	addu	t7,v0,s7
80103468:	00140a00 	sll	v0,t2,0x10
8010346c:	03740200 	sra	t6,v0,0x10
80103470:	00140900 	sll	v0,t1,0x10
80103474:	03140200 	sra	v0,v0,0x10
80103478:	60014d24 	addiu	t5,v0,352
8010347c:	f0ff4626 	addiu	a2,s2,-16
80103480:	00140800 	sll	v0,t0,0x10
80103484:	02000325 	addiu	v1,t0,2
80103488:	21406000 	move	t0,v1
8010348c:	03140200 	sra	v0,v0,0x10
80103490:	2110c201 	addu	v0,t6,v0
80103494:	001c0300 	sll	v1,v1,0x10
80103498:	031c0300 	sra	v1,v1,0x10
8010349c:	1400848d 	lw	a0,20(t4)
801034a0:	2a187000 	slt	v1,v1,s0
801034a4:	21208200 	addu	a0,a0,v0
801034a8:	00008794 	lhu	a3,0(a0)
801034ac:	02006014 	bnez	v1,0x801034b8
801034b0:	21c04002 	move	t8,s2
801034b4:	21400000 	move	t0,zero
801034b8:	807d053c 	lui	a1,0x7d80
801034bc:	8080a534 	ori	a1,a1,0x8080
801034c0:	10005226 	addiu	s2,s2,16
801034c4:	f0ff2231 	andi	v0,t1,0xfff0
801034c8:	21105300 	addu	v0,v0,s3
801034cc:	ffff4230 	andi	v0,v0,0xffff
801034d0:	001c0f00 	sll	v1,t7,0x10
801034d4:	25104300 	or	v0,v0,v1
801034d8:	00190700 	sll	v1,a3,0x4
801034dc:	f0006330 	andi	v1,v1,0xf0
801034e0:	1800c2ac 	sw	v0,24(a2)
801034e4:	f000e230 	andi	v0,a3,0xf0
801034e8:	00120200 	sll	v0,v0,0x8
801034ec:	25186200 	or	v1,v1,v0
801034f0:	1c00c3a4 	sh	v1,28(a2)
801034f4:	10002325 	addiu	v1,t1,16
801034f8:	21486000 	move	t1,v1
801034fc:	06008495 	lhu	a0,6(t4)
80103500:	03000224 	li	v0,3
80103504:	1300c2a0 	sb	v0,19(a2)
80103508:	7c000224 	li	v0,124
8010350c:	1400c5ac 	sw	a1,20(a2)
80103510:	1700c2a0 	sb	v0,23(a2)
80103514:	000fe230 	andi	v0,a3,0xf00
80103518:	82100200 	srl	v0,v0,0x2
8010351c:	001c0300 	sll	v1,v1,0x10
80103520:	031c0300 	sra	v1,v1,0x10
80103524:	2a186d00 	slt	v1,v1,t5
80103528:	21208200 	addu	a0,a0,v0
8010352c:	1e00c4a4 	sh	a0,30(a2)
80103530:	1000c624 	addiu	a2,a2,16
80103534:	0003023c 	lui	v0,0x300
80103538:	25104202 	or	v0,s2,v0
8010353c:	d0ff6014 	bnez	v1,0x80103480
80103540:	0000c2ac 	sw	v0,0(a2)
80103544:	21185001 	addu	v1,t2,s0
80103548:	00140300 	sll	v0,v1,0x10
8010354c:	03140200 	sra	v0,v0,0x10
80103550:	2a105900 	slt	v0,v0,t9
80103554:	02004014 	bnez	v0,0x80103560
80103558:	21506000 	move	t2,v1
8010355c:	23507900 	subu	t2,v1,t9
80103560:	10002326 	addiu	v1,s1,16
80103564:	21886000 	move	s1,v1
80103568:	001c0300 	sll	v1,v1,0x10
8010356c:	031c0300 	sra	v1,v1,0x10
80103570:	00141400 	sll	v0,s4,0x10
80103574:	03140200 	sra	v0,v0,0x10
80103578:	00014224 	addiu	v0,v0,256
8010357c:	2a186200 	slt	v1,v1,v0
80103580:	b5ff6014 	bnez	v1,0x80103458
80103584:	21406001 	move	t0,t3
80103588:	21204002 	move	a0,s2
8010358c:	21280000 	move	a1,zero
80103590:	00ff063c 	lui	a2,0xff00
80103594:	0f80103c 	lui	s0,0x800f
80103598:	2198a000 	move	s3,a1
8010359c:	c8d8038e 	lw	v1,-10040(s0)
801035a0:	0000028f 	lw	v0,0(t8)
801035a4:	fc1f638c 	lw	v1,8188(v1)
801035a8:	24104600 	and	v0,v0,a2
801035ac:	25104300 	or	v0,v0,v1
801035b0:	000002af 	sw	v0,0(t8)
801035b4:	04008795 	lhu	a3,4(t4)
801035b8:	2130a000 	move	a2,a1
801035bc:	780f020c 	jal	0x80083de0
801035c0:	1000a0af 	sw	zero,16(sp)
801035c4:	0002023c 	lui	v0,0x200
801035c8:	2510c203 	or	v0,s8,v0
801035cc:	21184002 	move	v1,s2
801035d0:	000042ae 	sw	v0,0(s2)
801035d4:	0c005226 	addiu	s2,s2,12
801035d8:	1180023c 	lui	v0,0x8011
801035dc:	fcd25124 	addiu	s1,v0,-11524
801035e0:	1180023c 	lui	v0,0x8011
801035e4:	90d35424 	addiu	s4,v0,-11376
801035e8:	c8d8028e 	lw	v0,-10040(s0)
801035ec:	0a003026 	addiu	s0,s1,10
801035f0:	fc1f43ac 	sw	v1,8188(v0)
801035f4:	0c80023c 	lui	v0,0x800c
801035f8:	44f552ac 	sw	s2,-2748(v0)
801035fc:	21307402 	addu	a2,s3,s4
80103600:	0000c290 	lbu	v0,0(a2)
80103604:	00000000 	nop
80103608:	ffff4224 	addiu	v0,v0,-1
8010360c:	0000c2a0 	sb	v0,0(a2)
80103610:	00160200 	sll	v0,v0,0x18
80103614:	2000401c 	bgtz	v0,0x80103698
80103618:	ff000224 	li	v0,255
8010361c:	0000248e 	lw	a0,0(s1)
80103620:	00000000 	nop
80103624:	00008390 	lbu	v1,0(a0)
80103628:	00000000 	nop
8010362c:	05006214 	bne	v1,v0,0x80103644
80103630:	00000000 	nop
80103634:	01008290 	lbu	v0,1(a0)
80103638:	00000000 	nop
8010363c:	23108200 	subu	v0,a0,v0
80103640:	000022ae 	sw	v0,0(s1)
80103644:	1800a427 	addiu	a0,sp,24
80103648:	0000228e 	lw	v0,0(s1)
8010364c:	faff038e 	lw	v1,-6(s0)
80103650:	00004590 	lbu	a1,0(v0)
80103654:	01004290 	lbu	v0,1(v0)
80103658:	40290500 	sll	a1,a1,0x5
8010365c:	0000c2a0 	sb	v0,0(a2)
80103660:	feff0296 	lhu	v0,-2(s0)
80103664:	21286500 	addu	a1,v1,a1
80103668:	1800a2a7 	sh	v0,24(sp)
8010366c:	00000396 	lhu	v1,0(s0)
80103670:	10000224 	li	v0,16
80103674:	1c00a2a7 	sh	v0,28(sp)
80103678:	01000224 	li	v0,1
8010367c:	1e00a2a7 	sh	v0,30(sp)
80103680:	8604020c 	jal	0x80081218
80103684:	1a00a3a7 	sh	v1,26(sp)
80103688:	0000228e 	lw	v0,0(s1)
8010368c:	00000000 	nop
80103690:	02004224 	addiu	v0,v0,2
80103694:	000022ae 	sw	v0,0(s1)
80103698:	01007326 	addiu	s3,s3,1
8010369c:	0c001026 	addiu	s0,s0,12
801036a0:	0300622a 	slti	v0,s3,3
801036a4:	d5ff4014 	bnez	v0,0x801035fc
801036a8:	0c003126 	addiu	s1,s1,12
801036ac:	5400bf8f 	lw	ra,84(sp)
801036b0:	5000be8f 	lw	s8,80(sp)
801036b4:	4c00b78f 	lw	s7,76(sp)
801036b8:	4800b68f 	lw	s6,72(sp)
801036bc:	4400b58f 	lw	s5,68(sp)
801036c0:	4000b48f 	lw	s4,64(sp)
801036c4:	3c00b38f 	lw	s3,60(sp)
801036c8:	3800b28f 	lw	s2,56(sp)
801036cc:	3400b18f 	lw	s1,52(sp)
801036d0:	3000b08f 	lw	s0,48(sp)
801036d4:	0800e003 	jr	ra
801036d8:	5800bd27 	addiu	sp,sp,88
801036dc:	02000324 	li	v1,2
801036e0:	1180023c 	lui	v0,0x8011
801036e4:	90d34224 	addiu	v0,v0,-11376
801036e8:	21104300 	addu	v0,v0,v1
801036ec:	000040a0 	sb	zero,0(v0)
801036f0:	ffff6324 	addiu	v1,v1,-1
801036f4:	fdff6104 	bgez	v1,0x801036ec
801036f8:	ffff4224 	addiu	v0,v0,-1
801036fc:	0800e003 	jr	ra
80103700:	00000000 	nop
80103704:	d0ffbd27 	addiu	sp,sp,-48
80103708:	1180023c 	lui	v0,0x8011
8010370c:	1800b0af 	sw	s0,24(sp)
80103710:	fcd25024 	addiu	s0,v0,-11524
80103714:	2000b2af 	sw	s2,32(sp)
80103718:	21900000 	move	s2,zero
8010371c:	1180023c 	lui	v0,0x8011
80103720:	2400b3af 	sw	s3,36(sp)
80103724:	90d35324 	addiu	s3,v0,-11376
80103728:	1c00b1af 	sw	s1,28(sp)
8010372c:	0a001126 	addiu	s1,s0,10
80103730:	2800bfaf 	sw	ra,40(sp)
80103734:	21385302 	addu	a3,s2,s3
80103738:	0000e290 	lbu	v0,0(a3)
8010373c:	00000000 	nop
80103740:	ffff4224 	addiu	v0,v0,-1
80103744:	0000e2a0 	sb	v0,0(a3)
80103748:	00160200 	sll	v0,v0,0x18
8010374c:	2000401c 	bgtz	v0,0x801037d0
80103750:	ff000224 	li	v0,255
80103754:	0000048e 	lw	a0,0(s0)
80103758:	00000000 	nop
8010375c:	00008390 	lbu	v1,0(a0)
80103760:	00000000 	nop
80103764:	05006214 	bne	v1,v0,0x8010377c
80103768:	00000000 	nop
8010376c:	01008290 	lbu	v0,1(a0)
80103770:	00000000 	nop
80103774:	23108200 	subu	v0,a0,v0
80103778:	000002ae 	sw	v0,0(s0)
8010377c:	1000a427 	addiu	a0,sp,16
80103780:	0000028e 	lw	v0,0(s0)
80103784:	faff268e 	lw	a2,-6(s1)
80103788:	00004590 	lbu	a1,0(v0)
8010378c:	01004390 	lbu	v1,1(v0)
80103790:	40290500 	sll	a1,a1,0x5
80103794:	0000e3a0 	sb	v1,0(a3)
80103798:	feff2296 	lhu	v0,-2(s1)
8010379c:	2128c500 	addu	a1,a2,a1
801037a0:	1000a2a7 	sh	v0,16(sp)
801037a4:	00002396 	lhu	v1,0(s1)
801037a8:	10000224 	li	v0,16
801037ac:	1400a2a7 	sh	v0,20(sp)
801037b0:	01000224 	li	v0,1
801037b4:	1600a2a7 	sh	v0,22(sp)
801037b8:	8604020c 	jal	0x80081218
801037bc:	1200a3a7 	sh	v1,18(sp)
801037c0:	0000028e 	lw	v0,0(s0)
801037c4:	00000000 	nop
801037c8:	02004224 	addiu	v0,v0,2
801037cc:	000002ae 	sw	v0,0(s0)
801037d0:	01005226 	addiu	s2,s2,1
801037d4:	0c003126 	addiu	s1,s1,12
801037d8:	0300422a 	slti	v0,s2,3
801037dc:	d5ff4014 	bnez	v0,0x80103734
801037e0:	0c001026 	addiu	s0,s0,12
801037e4:	2800bf8f 	lw	ra,40(sp)
801037e8:	2400b38f 	lw	s3,36(sp)
801037ec:	2000b28f 	lw	s2,32(sp)
801037f0:	1c00b18f 	lw	s1,28(sp)
801037f4:	1800b08f 	lw	s0,24(sp)
801037f8:	0800e003 	jr	ra
801037fc:	3000bd27 	addiu	sp,sp,48
80103800:	801f023c 	lui	v0,0x1f80
80103804:	3801448c 	lw	a0,312(v0)
80103808:	c8ffbd27 	addiu	sp,sp,-56
8010380c:	3000bfaf 	sw	ra,48(sp)
80103810:	2c00b3af 	sw	s3,44(sp)
80103814:	2800b2af 	sw	s2,40(sp)
80103818:	2400b1af 	sw	s1,36(sp)
8010381c:	2000b0af 	sw	s0,32(sp)
80103820:	54008394 	lhu	v1,84(a0)
80103824:	01000524 	li	a1,1
80103828:	12006510 	beq	v1,a1,0x80103874
8010382c:	02006228 	slti	v0,v1,2
80103830:	05004010 	beqz	v0,0x80103848
80103834:	02000224 	li	v0,2
80103838:	07006010 	beqz	v1,0x80103858
8010383c:	21100000 	move	v0,zero
80103840:	50320408 	j	0x8010c940
80103844:	00000000 	nop
80103848:	53006210 	beq	v1,v0,0x80103998
8010384c:	21100000 	move	v0,zero
80103850:	50320408 	j	0x8010c940
80103854:	00000000 	nop
80103858:	1180023c 	lui	v0,0x8011
8010385c:	e0000324 	li	v1,224
80103860:	6e0080a0 	sb	zero,110(a0)
80103864:	94d343ac 	sw	v1,-11372(v0)
80103868:	1180023c 	lui	v0,0x8011
8010386c:	540085a4 	sh	a1,84(a0)
80103870:	98d340ac 	sw	zero,-11368(v0)
80103874:	1180033c 	lui	v1,0x8011
80103878:	94d3628c 	lw	v0,-11372(v1)
8010387c:	00000000 	nop
80103880:	ffff4424 	addiu	a0,v0,-1
80103884:	0b034224 	addiu	v0,v0,779
80103888:	f0ff4228 	slti	v0,v0,-16
8010388c:	09004010 	beqz	v0,0x801038b4
80103890:	94d364ac 	sw	a0,-11372(v1)
80103894:	801f023c 	lui	v0,0x1f80
80103898:	3801438c 	lw	v1,312(v0)
8010389c:	00000000 	nop
801038a0:	54006294 	lhu	v0,84(v1)
801038a4:	00000000 	nop
801038a8:	01004224 	addiu	v0,v0,1
801038ac:	4f320408 	j	0x8010c93c
801038b0:	540062a4 	sh	v0,84(v1)
801038b4:	1180063c 	lui	a2,0x8011
801038b8:	98d3c38c 	lw	v1,-11368(a2)
801038bc:	00000000 	nop
801038c0:	00110300 	sll	v0,v1,0x4
801038c4:	23104300 	subu	v0,v0,v1
801038c8:	40100200 	sll	v0,v0,0x1
801038cc:	21288200 	addu	a1,a0,v0
801038d0:	f0ffa228 	slti	v0,a1,-16
801038d4:	06004010 	beqz	v0,0x801038f0
801038d8:	01006324 	addiu	v1,v1,1
801038dc:	98d3c3ac 	sw	v1,-11368(a2)
801038e0:	00110300 	sll	v0,v1,0x4
801038e4:	23104300 	subu	v0,v0,v1
801038e8:	40100200 	sll	v0,v0,0x1
801038ec:	21288200 	addu	a1,a0,v0
801038f0:	21800000 	move	s0,zero
801038f4:	1180023c 	lui	v0,0x8011
801038f8:	20d35324 	addiu	s3,v0,-11488
801038fc:	2190c000 	move	s2,a2
80103900:	2188a000 	move	s1,a1
80103904:	98d3428e 	lw	v0,-11368(s2)
80103908:	00000000 	nop
8010390c:	21105000 	addu	v0,v0,s0
80103910:	80100200 	sll	v0,v0,0x2
80103914:	21105300 	addu	v0,v0,s3
80103918:	0000448c 	lw	a0,0(v0)
8010391c:	00000000 	nop
80103920:	1f008010 	beqz	a0,0x801039a0
80103924:	f000222a 	slti	v0,s1,240
80103928:	1e004010 	beqz	v0,0x801039a4
8010392c:	21100000 	move	v0,zero
80103930:	4ae5010c 	jal	0x80079528
80103934:	00000000 	nop
80103938:	c0100200 	sll	v0,v0,0x3
8010393c:	43100200 	sra	v0,v0,0x1
80103940:	a0000424 	li	a0,160
80103944:	23208200 	subu	a0,a0,v0
80103948:	00240400 	sll	a0,a0,0x10
8010394c:	03240400 	sra	a0,a0,0x10
80103950:	002c1100 	sll	a1,s1,0x10
80103954:	1e003126 	addiu	s1,s1,30
80103958:	01000324 	li	v1,1
8010395c:	032c0500 	sra	a1,a1,0x10
80103960:	98d3428e 	lw	v0,-11368(s2)
80103964:	21300000 	move	a2,zero
80103968:	1000a3af 	sw	v1,16(sp)
8010396c:	21105000 	addu	v0,v0,s0
80103970:	80100200 	sll	v0,v0,0x2
80103974:	21105300 	addu	v0,v0,s3
80103978:	0000478c 	lw	a3,0(v0)
8010397c:	dde4010c 	jal	0x80079374
80103980:	21800302 	addu	s0,s0,v1
80103984:	0d00022a 	slti	v0,s0,13
80103988:	deff4014 	bnez	v0,0x80103904
8010398c:	21100000 	move	v0,zero
80103990:	50320408 	j	0x8010c940
80103994:	00000000 	nop
80103998:	50320408 	j	0x8010c940
8010399c:	01000224 	li	v0,1
801039a0:	21100000 	move	v0,zero
801039a4:	3000bf8f 	lw	ra,48(sp)
801039a8:	2c00b38f 	lw	s3,44(sp)
801039ac:	2800b28f 	lw	s2,40(sp)
801039b0:	2400b18f 	lw	s1,36(sp)
801039b4:	2000b08f 	lw	s0,32(sp)
801039b8:	0800e003 	jr	ra
801039bc:	3800bd27 	addiu	sp,sp,56
801039c0:	f80d82f6 	.word	0xf6820df8
801039c4:	fd43e10f 	jal	0x8f850ff4
801039c8:	0efa004a 	c2	0xfa0e
801039cc:	bd1337f9 	.word	0xf93713bd
801039d0:	9346220f 	jal	0x8c891a4c
801039d4:	34fa974a 	c2	0x97fa34
801039d8:	a00f78ec 	swc3	$24,4000(v1)
801039dc:	5c44a00f 	jal	0x8e811170
801039e0:	78ec384a 	c2	0x38ec78
801039e4:	d23435f1 	.word	0xf13534d2
801039e8:	df48283a 	xori	t0,s1,0x48df
801039ec:	12f2894e 	c3	0x89f212
801039f0:	d20f24fa 	.word	0xfa240fd2
801039f4:	02460303 	.word	0x3034602
801039f8:	fcac1080 	lb	s0,-21252(zero)
801039fc:	2a1256fa 	.word	0xfa56122a
80103a00:	d6440303 	.word	0x30344d6
80103a04:	98b71080 	lb	s0,-18536(zero)
80103a08:	a00f78ec 	swc3	$24,4000(v1)
80103a0c:	50460303 	.word	0x3034650
80103a10:	90b91080 	lb	s0,-18032(zero)
80103a14:	ffff0000 	.word	0xffff
80103a18:	ffff0000 	.word	0xffff
80103a1c:	00000000 	nop
80103a20:	cfff0000 	.word	0xffcf
80103a24:	0000f8ff 	.word	0xfff80000
80103a28:	d7ff2100 	.word	0x21ffd7
80103a2c:	0200feff 	.word	0xfffe0002
80103a30:	00002b00 	.word	0x2b0000
80103a34:	0300feff 	.word	0xfffe0003
80103a38:	00002a00 	.word	0x2a0000
80103a3c:	0000f8ff 	.word	0xfff80000
80103a40:	d7ffdfff 	.word	0xffdfffd7
80103a44:	0500feff 	.word	0xfffe0005
80103a48:	0000d5ff 	.word	0xffd50000
80103a4c:	0600feff 	.word	0xfffe0006
80103a50:	0000d6ff 	.word	0xffd60000
80103a54:	ffff0000 	.word	0xffff
80103a58:	ffff0000 	.word	0xffff
80103a5c:	0800fbff 	.word	0xfffb0008
80103a60:	24001000 	and	zero,zero,s0
80103a64:	09000100 	.word	0x10009
80103a68:	27000200 	nor	zero,zero,v0
80103a6c:	0a00fdff 	.word	0xfffd000a
80103a70:	39000000 	.word	0x39
80103a74:	0800fbff 	.word	0xfffb0008
80103a78:	2400f1ff 	.word	0xfff10024
80103a7c:	0c000100 	syscall	0x400
80103a80:	2700feff 	.word	0xfffe0027
80103a84:	0d00fdff 	.word	0xfffd000d
80103a88:	39000000 	.word	0x39
80103a8c:	05103c00 	.word	0x3c1005
80103a90:	00000000 	nop
80103a94:	0c100000 	syscall	0x40
80103a98:	00000100 	sll	zero,at,0x0
80103a9c:	2430d20f 	jal	0x8f48c090
80103aa0:	24fa8749 	.word	0x4987fa24
80103aa4:	00180100 	sll	v1,at,0x0
80103aa8:	80000100 	sll	zero,at,0x2
80103aac:	1e100000 	.word	0x101e
80103ab0:	02000400 	srl	zero,a0,0x0
80103ab4:	05101400 	.word	0x141005
80103ab8:	00000000 	nop
80103abc:	22100200 	neg	v0,v0
80103ac0:	00000000 	nop
80103ac4:	3e100000 	.word	0x103e
80103ac8:	9cae1080 	lb	s0,-20836(zero)
80103acc:	22100000 	neg	v0,zero
80103ad0:	00000000 	nop
80103ad4:	05100a00 	.word	0xa1005
80103ad8:	00000000 	nop
80103adc:	3e100000 	.word	0x103e
80103ae0:	60af1080 	lb	s0,-20640(zero)
80103ae4:	05109600 	.word	0x961005
80103ae8:	00000000 	nop
80103aec:	22100200 	neg	v0,v0
80103af0:	00000000 	nop
80103af4:	3e100000 	.word	0x103e
80103af8:	78b01080 	lb	s0,-20360(zero)
80103afc:	22100000 	neg	v0,zero
80103b00:	00000000 	nop
80103b04:	05107800 	.word	0x781005
80103b08:	00000000 	nop
80103b0c:	22100200 	neg	v0,v0
80103b10:	00000000 	nop
80103b14:	3e800000 	.word	0x803e
80103b18:	00a91080 	lb	s0,-22272(zero)
80103b1c:	1f100000 	.word	0x101f
80103b20:	000100fd 	.word	0xfd000100
80103b24:	06100000 	srlv	v0,zero,zero
80103b28:	00000600 	sll	zero,a2,0x0
80103b2c:	3e100000 	.word	0x103e
80103b30:	98b41080 	lb	s0,-19304(zero)
80103b34:	06100000 	srlv	v0,zero,zero
80103b38:	00000700 	sll	zero,a3,0x0
80103b3c:	1e100000 	.word	0x101e
80103b40:	01000000 	.word	0x1
80103b44:	2430983a 	xori	t8,s4,0x3024
80103b48:	d0f0b54e 	c3	0xb5f0d0
80103b4c:	00180100 	sll	v1,at,0x0
80103b50:	00000000 	nop
80103b54:	1e100000 	.word	0x101e
80103b58:	04000000 	sllv	zero,zero,zero
80103b5c:	07100000 	srav	v0,zero,zero
80103b60:	00000000 	nop
80103b64:	1e800000 	.word	0x801e
80103b68:	08000000 	jr	zero
80103b6c:	ffff0000 	.word	0xffff
80103b70:	00000000 	nop
80103b74:	00000500 	sll	zero,a1,0x0
80103b78:	cdff0000 	break	0x0,0x3ff
80103b7c:	00000200 	sll	zero,v0,0x0
80103b80:	dcff2000 	.word	0x20ffdc
80103b84:	0200feff 	.word	0xfffe0002
80103b88:	00002a00 	.word	0x2a0000
80103b8c:	0300ffff 	.word	0xffff0003
80103b90:	00002400 	.word	0x240000
80103b94:	00000200 	sll	zero,v0,0x0
80103b98:	dcffe0ff 	.word	0xffe0ffdc
80103b9c:	0500feff 	.word	0xfffe0005
80103ba0:	0000d6ff 	.word	0xffd60000
80103ba4:	0600ffff 	.word	0xffff0006
80103ba8:	0000dcff 	.word	0xffdc0000
80103bac:	ffff0000 	.word	0xffff
80103bb0:	00000000 	nop
80103bb4:	08000000 	jr	zero
80103bb8:	16001800 	.word	0x180016
80103bbc:	09000000 	jalr	zero,zero
80103bc0:	1e000100 	.word	0x1001e
80103bc4:	0a000300 	.word	0x3000a
80103bc8:	1e000200 	.word	0x2001e
80103bcc:	08000000 	jr	zero
80103bd0:	1600e8ff 	.word	0xffe80016
80103bd4:	0c000000 	syscall
80103bd8:	1e00ffff 	.word	0xffff001e
80103bdc:	0d000000 	break
80103be0:	1e000000 	.word	0x1e
80103be4:	06100000 	srlv	v0,zero,zero
80103be8:	00000100 	sll	zero,at,0x0
80103bec:	1f100000 	.word	0x101f
80103bf0:	000100fc 	.word	0xfc000100
80103bf4:	05100500 	.word	0x51005
80103bf8:	00000000 	nop
80103bfc:	1d101400 	.word	0x14101d
80103c00:	9cd31080 	lb	s0,-11364(zero)
80103c04:	1e100000 	.word	0x101e
80103c08:	01000000 	.word	0x1
80103c0c:	2430cc10 	beq	a2,t4,0x8010fca0
80103c10:	56fa8749 	.word	0x4987fa56
80103c14:	00180100 	sll	v1,at,0x0
80103c18:	80000100 	sll	zero,at,0x2
80103c1c:	1d10ffff 	.word	0xffff101d
80103c20:	00000000 	nop
80103c24:	1e100000 	.word	0x101e
80103c28:	02000000 	srl	zero,zero,0x0
80103c2c:	1f800000 	.word	0x801f
80103c30:	00010008 	j	0x80000400
80103c34:	1d101400 	.word	0x14101d
80103c38:	9cd31080 	lb	s0,-11364(zero)
80103c3c:	1e100000 	.word	0x101e
80103c40:	01000000 	.word	0x1
80103c44:	2430ca3a 	xori	t2,s6,0x3024
80103c48:	fcf1b54e 	c3	0xb5f1fc
80103c4c:	00180100 	sll	v1,at,0x0
80103c50:	80000100 	sll	zero,at,0x2
80103c54:	1d10ffff 	.word	0xffff101d
80103c58:	00000000 	nop
80103c5c:	1e100000 	.word	0x101e
80103c60:	14000000 	.word	0x14
80103c64:	3e800000 	.word	0x803e
80103c68:	acb81080 	lb	s0,-18260(zero)
80103c6c:	2a90eb7d 	.word	0x7deb902a
80103c70:	53903a40 	.word	0x403a9053
80103c74:	2ad753d7 	.word	0xd753d72a
80103c78:	444444bd 	.word	0xbd444444
80103c7c:	444444b3 	.word	0xb3444444
80103c80:	444444de 	.word	0xde444444
80103c84:	444444e2 	swc0	c0_context,17476(s2)
80103c88:	2901a8aa 	swl	t0,297(s5)
80103c8c:	1501d7e2 	swc0	$23,277(s6)
80103c90:	0090eb7d 	.word	0x7deb9000
80103c94:	2a903a40 	.word	0x403a902a
80103c98:	00d72ad7 	.word	0xd72ad700
80103c9c:	444444b3 	.word	0xb3444444
80103ca0:	444444c5 	lwc1	$f4,17476(t2)
80103ca4:	444444e2 	swc0	c0_context,17476(s2)
80103ca8:	444444e7 	swc1	$f4,17476(k0)
80103cac:	01dfaab4 	.word	0xb4aadf01
80103cb0:	01f3e2e3 	swc0	c0_entrylo,-3327(ra)
80103cb4:	0090eb7d 	.word	0x7deb9000
80103cb8:	2a903a40 	.word	0x403a902a
80103cbc:	00d72ad7 	.word	0xd72ad700
80103cc0:	444444d9 	.word	0xd9444444
80103cc4:	444444bd 	.word	0xbd444444
80103cc8:	444444e9 	swc2	$4,17476(t2)
80103ccc:	444444de 	.word	0xde444444
80103cd0:	4729a7a8 	swl	a3,10567(a1)
80103cd4:	2c15cdd7 	.word	0xd7cd152c
80103cd8:	2a90eb7d 	.word	0x7deb902a
80103cdc:	53903a40 	.word	0x403a9053
80103ce0:	2ad753d7 	.word	0xd753d72a
80103ce4:	444444c5 	lwc1	$f4,17476(t2)
80103ce8:	444444e3 	swc0	c0_context,17476(k0)
80103cec:	444444e7 	swc1	$f4,17476(k0)
80103cf0:	444444f3 	.word	0xf3444444
80103cf4:	dfceb4bf 	.word	0xbfb4cedf
80103cf8:	f3e9e3e5 	swc1	$f3,-5645(t7)
80103cfc:	2a90eb7d 	.word	0x7deb902a
80103d00:	53903a40 	.word	0x403a9053
80103d04:	2ad753d7 	.word	0xd753d72a
80103d08:	44444401 	.word	0x1444444
80103d0c:	444444d9 	.word	0xd9444444
80103d10:	44444401 	.word	0x1444444
80103d14:	444444e9 	swc2	$4,17476(t2)
80103d18:	5b479ca7 	sh	gp,18267(gp)
80103d1c:	342ccbcd 	lwc3	$11,11316(t6)
80103d20:	0090eb7d 	.word	0x7deb9000
80103d24:	2a903a40 	.word	0x403a902a
80103d28:	00d72ad7 	.word	0xd72ad700
80103d2c:	444444e3 	swc0	c0_context,17476(k0)
80103d30:	44444401 	.word	0x1444444
80103d34:	444444f3 	.word	0xf3444444
80103d38:	44444401 	.word	0x1444444
80103d3c:	cec7bfc0 	lwc0	$31,-14386(a1)
80103d40:	e9eee5ef 	swc3	$5,-4375(ra)
80103d44:	2a90eb7d 	.word	0x7deb902a
80103d48:	53903a40 	.word	0x403a9053
80103d4c:	2ad753d7 	.word	0xd753d72a
80103d50:	44444401 	.word	0x1444444
80103d54:	4444441e 	.word	0x1e444444
80103d58:	44444401 	.word	0x1444444
80103d5c:	32323206 	.word	0x6323232
80103d60:	c7d0c0c2 	lwc0	c0_index,-12089(s6)
80103d64:	eef8effa 	.word	0xfaeff8ee
80103d68:	0090eb7d 	.word	0x7deb9000
80103d6c:	2a903a40 	.word	0x403a902a
80103d70:	00d72ad7 	.word	0xd72ad700
80103d74:	44444432 	andi	a0,s2,0x4444
80103d78:	44444401 	.word	0x1444444
80103d7c:	4444441a 	.word	0x1a444444
80103d80:	44444401 	.word	0x1444444
80103d84:	565b919c 	.word	0x9c915b56
80103d88:	2e34cacb 	lwc2	$10,13358(s8)
80103d8c:	0090eb7d 	.word	0x7deb9000
80103d90:	2a903a40 	.word	0x403a902a
80103d94:	00d72ad7 	.word	0xd72ad700
80103d98:	4444441e 	.word	0x1e444444
80103d9c:	3232322b 	slti	s2,t9,12850
80103da0:	32323206 	.word	0x6323232
80103da4:	2828280a 	j	0x88a0a0a0
80103da8:	d0e9c2cd 	lwc3	$2,-5680(t6)
80103dac:	f8fdfafb 	.word	0xfbfafdf8
80103db0:	0090eb7d 	.word	0x7deb9000
80103db4:	2a903a40 	.word	0x403a902a
80103db8:	00d72ad7 	.word	0xd72ad700
80103dbc:	28282829 	slti	t0,t1,10280
80103dc0:	00000023 	addi	zero,t8,0
80103dc4:	1414140b 	j	0x8c505050
80103dc8:	00000006 	bltz	s0,0x80103dcc
80103dcc:	0115d7d9 	.word	0xd9d71501
80103dd0:	0104fb00 	.word	0xfb0401
80103dd4:	2a90eb7d 	.word	0x7deb902a
80103dd8:	53903a40 	.word	0x403a9053
80103ddc:	2ad753d7 	.word	0xd753d72a
80103de0:	3232322b 	slti	s2,t9,12850
80103de4:	28282829 	slti	t0,t1,10280
80103de8:	2828280a 	j	0x88a0a0a0
80103dec:	1414140b 	j	0x8c505050
80103df0:	e901cdd7 	.word	0xd7cd01e9
80103df4:	fd01fbfb 	.word	0xfbfb01fd
80103df8:	2a90eb7d 	.word	0x7deb902a
80103dfc:	53903a40 	.word	0x403a9053
80103e00:	2ad753d7 	.word	0xd753d72a
80103e04:	44444457 	.word	0x57444444
80103e08:	44444432 	andi	a0,s2,0x4444
80103e0c:	44444435 	ori	a0,t2,0x4444
80103e10:	4444441a 	.word	0x1a444444
80103e14:	33569091 	lbu	s0,22067(t4)
80103e18:	1f2ebfca 	lwc2	$31,11807(s5)
80103e1c:	0090eb7d 	.word	0x7deb9000
80103e20:	2a903ac0 	lwc0	$26,-28630(at)
80103e24:	00d72ad7 	.word	0xd72ad700
80103e28:	00000065 	.word	0x65000000
80103e2c:	44444457 	.word	0x57444444
80103e30:	00000046 	add.s	$f0,$f0,$f0
80103e34:	44444435 	ori	a0,t2,0x4444
80103e38:	01338f90 	lbu	t7,13057(a0)
80103e3c:	011fb4bf 	.word	0xbfb41f01
80103e40:	000c0107 	bgez	t8,0x80106e44
80103e44:	02070307 	.word	0x7030702
80103e48:	04070507 	.word	0x7050704
80103e4c:	0607070c 	jal	0x801c1c18
80103e50:	06070507 	.word	0x7050706
80103e54:	04070307 	.word	0x7030704
80103e58:	02070107 	bgez	t8,0x80105a64
80103e5c:	0107ff1e 	.word	0x1eff0701
80103e60:	d37f6b77 	jalx	0x8dadff4d
80103e64:	2473a372 	.word	0x72a37324
80103e68:	6272416e 	.word	0x6e417262
80103e6c:	206a006a 	.word	0x6a006a20
80103e70:	e065c05d 	.word	0x5dc065e0
80103e74:	fc7fd47f 	.word	0x7fd47ffc
80103e78:	f07fb87b 	.word	0x7bb87ff0
80103e7c:	f57f6272 	.word	0x72627ff5
80103e80:	d37f6b77 	jalx	0x8dadff4d
80103e84:	2473a372 	.word	0x72a37324
80103e88:	6272416e 	.word	0x6e417262
80103e8c:	206a006a 	.word	0x6a006a20
80103e90:	e065c05d 	.word	0x5dc065e0
80103e94:	dc7fd47f 	.word	0x7fd47fdc
80103e98:	d37fba7b 	.word	0x7bba7fd3
80103e9c:	d37f8172 	.word	0x72817fd3
80103ea0:	d37f6b77 	jalx	0x8dadff4d
80103ea4:	2473a372 	.word	0x72a37324
80103ea8:	6272416e 	.word	0x6e417262
80103eac:	206a006a 	.word	0x6a006a20
80103eb0:	e065c05d 	.word	0x5dc065e0
80103eb4:	da7fd37f 	.word	0x7fd37fda
80103eb8:	d67fdc7b 	.word	0x7bdc7fd6
80103ebc:	d27fa072 	.word	0x72a07fd2
80103ec0:	d37f6b77 	jalx	0x8dadff4d
80103ec4:	2473a372 	.word	0x72a37324
80103ec8:	6272416e 	.word	0x6e417262
80103ecc:	206a006a 	.word	0x6a006a20
80103ed0:	e065c05d 	.word	0x5dc065e0
80103ed4:	d97fd47f 	.word	0x7fd47fd9
80103ed8:	d97ffe7f 	.word	0x7ffe7fd9
80103edc:	af7fc076 	jalx	0x8b01febd
80103ee0:	d37f6b77 	jalx	0x8dadff4d
80103ee4:	2473a372 	.word	0x72a37324
80103ee8:	6272416e 	.word	0x6e417262
80103eec:	206a006a 	.word	0x6a006a20
80103ef0:	e065c05d 	.word	0x5dc065e0
80103ef4:	d77fd67f 	.word	0x7fd67fd7
80103ef8:	dc7ffa7f 	.word	0x7ffa7fdc
80103efc:	8b7fe076 	jalx	0x8b81fe2d
80103f00:	d37f6b77 	jalx	0x8dadff4d
80103f04:	2473a372 	.word	0x72a37324
80103f08:	6272416e 	.word	0x6e417262
80103f0c:	206a006a 	.word	0x6a006a20
80103f10:	e065c05d 	.word	0x5dc065e0
80103f14:	d67fd77f 	.word	0x7fd77fd6
80103f18:	dc7bf77f 	.word	0x7ff77bdc
80103f1c:	677f007b 	.word	0x7b007f67
80103f20:	d37f6b77 	jalx	0x8dadff4d
80103f24:	2473a372 	.word	0x72a37324
80103f28:	6272416e 	.word	0x6e417262
80103f2c:	206a006a 	.word	0x6a006a20
80103f30:	e065c05d 	.word	0x5dc065e0
80103f34:	d47fd97f 	.word	0x7fd97fd4
80103f38:	ba7bf37f 	.word	0x7ff37bba
80103f3c:	637f207b 	.word	0x7b207f63
80103f40:	d37f6b77 	jalx	0x8dadff4d
80103f44:	2473a372 	.word	0x72a37324
80103f48:	6272416e 	.word	0x6e417262
80103f4c:	206a006a 	.word	0x6a006a20
80103f50:	e065c05d 	.word	0x5dc065e0
80103f54:	d47fda7f 	.word	0x7fda7fd4
80103f58:	b87bf07f 	.word	0x7ff07bb8
80103f5c:	407f407f 	.word	0x7f407f40
80103f60:	e67f857b 	.word	0x7b857fe6
80103f64:	447b047b 	.word	0x7b047b44
80103f68:	c37a837a 	.word	0x7a837ac3
80103f6c:	ff7ff6ff 	.word	0xfff67fff
80103f70:	eeffff7f 	.word	0x7fffffee
80103f74:	447be67f 	.word	0x7fe67b44
80103f78:	657f447b 	.word	0x7b447f65
80103f7c:	047bc37a 	.word	0x7ac37b04
80103f80:	e67f857b 	.word	0x7b857fe6
80103f84:	447b047b 	.word	0x7b047b44
80103f88:	c37a837a 	.word	0x7a837ac3
80103f8c:	fb7fff7f 	.word	0x7fff7ffb
80103f90:	f6ffdc7f 	.word	0x7fdcfff6
80103f94:	467be57f 	.word	0x7fe57b46
80103f98:	657f447b 	.word	0x7b447f65
80103f9c:	047bc37a 	.word	0x7ac37b04
80103fa0:	e67f857b 	.word	0x7b857fe6
80103fa4:	447b047b 	.word	0x7b047b44
80103fa8:	c37a837a 	.word	0x7a837ac3
80103fac:	f7ffdafb 	.word	0xfbdafff7
80103fb0:	ff7fdafb 	.word	0xfbda7fff
80103fb4:	48fbc57f 	.word	0x7fc5fb48
80103fb8:	457f447b 	.word	0x7b447f45
80103fbc:	047bc37a 	.word	0x7ac37b04
80103fc0:	e67f857b 	.word	0x7b857fe6
80103fc4:	447b047b 	.word	0x7b047b44
80103fc8:	c37a837a 	.word	0x7a837ac3
80103fcc:	f47fd6fb 	.word	0xfbd67ff4
80103fd0:	d9fbb6fb 	.word	0xfbb6fbd9
80103fd4:	6cfba57f 	.word	0x7fa5fb6c
80103fd8:	457f247b 	.word	0x7b247f45
80103fdc:	037ba37a 	.word	0x7aa37b03
80103fe0:	e67f857b 	.word	0x7b857fe6
80103fe4:	447b047b 	.word	0x7b047b44
80103fe8:	c37a837a 	.word	0x7a837ac3
80103fec:	f07fd27b 	.word	0x7bd27ff0
80103ff0:	d4fb91fb 	.word	0xfb91fbd4
80103ff4:	907ba57f 	.word	0x7fa57b90
80103ff8:	257f247b 	.word	0x7b247f25
80103ffc:	e37aa37a 	.word	0x7aa37ae3
80104000:	e67f857b 	.word	0x7b857fe6
80104004:	447b047b 	.word	0x7b047b44
80104008:	c37a837a 	.word	0x7a837ac3
8010400c:	ed7fcd7b 	.word	0x7bcd7fed
80104010:	cf7b6d7b 	.word	0x7b6d7bcf
80104014:	b47b857f 	.word	0x7f857bb4
80104018:	257f047b 	.word	0x7b047f25
8010401c:	e37aa37a 	.word	0x7aa37ae3
80104020:	e67f857b 	.word	0x7b857fe6
80104024:	447b047b 	.word	0x7b047b44
80104028:	c37a837a 	.word	0x7a837ac3
8010402c:	e97fc97b 	.word	0x7bc97fe9
80104030:	ca7b48fb 	.word	0xfb487bca
80104034:	d87b857f 	.word	0x7f857bd8
80104038:	057f047b 	.word	0x7b047f05
8010403c:	c37a837a 	.word	0x7a837ac3
80104040:	e67f857b 	.word	0x7b857fe6
80104044:	447b047b 	.word	0x7b047b44
80104048:	c37a837a 	.word	0x7a837ac3
8010404c:	e67fc57b 	.word	0x7bc57fe6
80104050:	c57b447b 	.word	0x7b447bc5
80104054:	fdff657f 	.word	0x7f65fffd
80104058:	057f047b 	.word	0x7b047f05
8010405c:	c37a837a 	.word	0x7a837ac3
80104060:	0000ef3d 	.word	0x3def0000
80104064:	003ce001 	.word	0x1e03c00
80104068:	e03d0f00 	.word	0xf3de0
8010406c:	0f3cef01 	.word	0x1ef3c0f
80104070:	0000ce39 	xori	t6,t6,0x0
80104074:	0038c001 	.word	0x1c03800
80104078:	c0390e00 	sll	a3,t6,0x7
8010407c:	0e38ce01 	.word	0x1ce380e
80104080:	0000ad35 	ori	t5,t5,0x0
80104084:	0034a001 	.word	0x1a03400
80104088:	a0350d00 	.word	0xd35a0
8010408c:	0d34ad01 	break	0x1ad,0xd0
80104090:	00008c31 	andi	t4,t4,0x0
80104094:	00308001 	.word	0x1803000
80104098:	80310c00 	sll	a2,t4,0x6
8010409c:	0c308c01 	syscall	0x630c0
801040a0:	00006b2d 	sltiu	t3,t3,0
801040a4:	002c6001 	.word	0x1602c00
801040a8:	602d0b00 	.word	0xb2d60
801040ac:	0b2c6b01 	.word	0x16b2c0b
801040b0:	00004a29 	slti	t2,t2,0
801040b4:	00284001 	.word	0x1402800
801040b8:	40290a00 	sll	a1,t2,0x5
801040bc:	0a284a01 	.word	0x14a280a
801040c0:	00002925 	addiu	t1,t1,0
801040c4:	00242001 	.word	0x1202400
801040c8:	20250900 	.word	0x92520
801040cc:	09242901 	.word	0x1292409
801040d0:	00000821 	addi	t0,t0,0
801040d4:	00200001 	.word	0x1002000
801040d8:	00210800 	sll	a0,t0,0x4
801040dc:	08200801 	.word	0x1082008
801040e0:	0000e71c 	.word	0x1ce70000
801040e4:	001ce000 	.word	0xe01c00
801040e8:	e01c0700 	.word	0x71ce0
801040ec:	071ce700 	.word	0xe71c07
801040f0:	0000c618 	.word	0x18c60000
801040f4:	0018c000 	.word	0xc01800
801040f8:	c0180600 	sll	v1,a2,0x3
801040fc:	0618c600 	srlv	v1,a2,a2
80104100:	0000a514 	bne	a1,a1,0x80104104
80104104:	0014a000 	.word	0xa01400
80104108:	a0140500 	.word	0x514a0
8010410c:	0514a500 	.word	0xa51405
80104110:	00008410 	beq	a0,a0,0x80104114
80104114:	00108000 	.word	0x801000
80104118:	80100400 	sll	v0,a0,0x2
8010411c:	04108400 	sllv	v0,a0,a0
80104120:	0000630c 	jal	0x818c0000
80104124:	000c6000 	.word	0x600c00
80104128:	600c0300 	.word	0x30c60
8010412c:	030c6300 	.word	0x630c03
80104130:	00004208 	j	0x81080000
80104134:	00084000 	.word	0x400800
80104138:	40080200 	sll	at,v0,0x1
8010413c:	02084200 	.word	0x420802
80104140:	00002104 	bgez	at,0x80104144
80104144:	00042000 	.word	0x200400
80104148:	20040100 	.word	0x10420
8010414c:	01042100 	.word	0x210401
	...
80104160:	eb7ff07f 	.word	0x7ff07feb
80104164:	f57ffa7f 	.word	0x7ffa7ff5
80104168:	ff7ffa7f 	.word	0x7ffa7fff
8010416c:	f57ff07f 	.word	0x7ff07ff5
80104170:	e67fe37a 	.word	0x7ae37fe6
80104174:	437f847b 	.word	0x7b847f43
80104178:	a57ff07f 	.word	0x7ff07fa5
8010417c:	eb7fe67f 	.word	0x7fe67feb
80104180:	ee7ff2ff 	.word	0xfff27fee
80104184:	f77ffc7f 	.word	0x7ffc7ff7
80104188:	dd7ffc7f 	.word	0x7ffc7fdd
8010418c:	f7fff27f 	.word	0x7ff2fff7
80104190:	e67f037b 	.word	0x7b037fe6
80104194:	437b847b 	.word	0x7b847b43
80104198:	a77feeff 	.word	0xffee7fa7
8010419c:	ecffea7f 	.word	0x7feaffec
801041a0:	f17ff57f 	.word	0x7ff57ff1
801041a4:	f9ffff7f 	.word	0x7ffffff9
801041a8:	db7fff7f 	.word	0x7fff7fdb
801041ac:	fa7ff4ff 	.word	0xfff47ffa
801041b0:	e67f237b 	.word	0x7b237fe6
801041b4:	637b847b 	.word	0x7b847b63
801041b8:	aa7fec7f 	.word	0x7fec7faa
801041bc:	edffefff 	.word	0xffefffed
801041c0:	f47ff7ff 	.word	0xfff77ff4
801041c4:	fb7fdb7f 	.word	0x7fdb7ffb
801041c8:	d9ffdb7f 	.word	0x7fdbffd9
801041cc:	fc7ff6ff 	.word	0xfff67ffc
801041d0:	e67f437f 	.word	0x7f437fe6
801041d4:	847ba57f 	.word	0x7fa57b84
801041d8:	cd7fea7f 	.word	0x7fea7fcd
801041dc:	eefff37f 	.word	0x7ff3ffee
801041e0:	f7fffa7f 	.word	0x7ffafff7
801041e4:	fd7fdaff 	.word	0xffda7ffd
801041e8:	d87fdbff 	.word	0xffdb7fd8
801041ec:	ff7ff87f 	.word	0x7ff87fff
801041f0:	e67f437f 	.word	0x7f437fe6
801041f4:	847ba57f 	.word	0x7fa57b84
801041f8:	cd7fe87f 	.word	0x7fe87fcd
801041fc:	f0fff87f 	.word	0x7ff8fff0
80104200:	fa7ffd7f 	.word	0x7ffd7ffa
80104204:	d9ffb6ff 	.word	0xffb6ffd9
80104208:	d27fd6ff 	.word	0xffd67fd2
8010420c:	dc7ffa7f 	.word	0x7ffa7fdc
80104210:	e67f037b 	.word	0x7b037fe6
80104214:	637b847b 	.word	0x7b847b63
80104218:	a97fea7f 	.word	0x7fea7fa9
8010421c:	eefff2ff 	.word	0xfff2ffee
80104220:	fd7fdbff 	.word	0xffdb7ffd
80104224:	d57fb27f 	.word	0x7fb27fd5
80104228:	cc7fd1ff 	.word	0xffd17fcc
8010422c:	d87ffdff 	.word	0xfffd7fd8
80104230:	e67fe37a 	.word	0x7ae37fe6
80104234:	437b847b 	.word	0x7b847b43
80104238:	a77fedff 	.word	0xffed7fa7
8010423c:	edffed7f 	.word	0x7fedffed
80104240:	fd7fd97f 	.word	0x7fd97ffd
80104244:	d27fcc7f 	.word	0x7fcc7fd2
80104248:	e67fed7f 	.word	0x7fed7fe6
8010424c:	f57ffd7f 	.word	0x7ffd7ff5
80104250:	e67fe37a 	.word	0x7ae37fe6
80104254:	437f847b 	.word	0x7b847f43
80104258:	a57ff07f 	.word	0x7ff07fa5
8010425c:	ecffe87f 	.word	0x7fe8ffec
80104260:	0000ef3d 	.word	0x3def0000
80104264:	003ce001 	.word	0x1e03c00
80104268:	e03d0f00 	.word	0xf3de0
8010426c:	0f3cef01 	.word	0x1ef3c0f
80104270:	0000ce39 	xori	t6,t6,0x0
80104274:	0038c001 	.word	0x1c03800
80104278:	c0390e00 	sll	a3,t6,0x7
8010427c:	0e38ce01 	.word	0x1ce380e
80104280:	0000ad35 	ori	t5,t5,0x0
80104284:	0034a001 	.word	0x1a03400
80104288:	a0350d00 	.word	0xd35a0
8010428c:	0d34ad01 	break	0x1ad,0xd0
80104290:	00008c31 	andi	t4,t4,0x0
80104294:	00308001 	.word	0x1803000
80104298:	80310c00 	sll	a2,t4,0x6
8010429c:	0c308c01 	syscall	0x630c0
801042a0:	00006b2d 	sltiu	t3,t3,0
801042a4:	002c6001 	.word	0x1602c00
801042a8:	602d0b00 	.word	0xb2d60
801042ac:	0b2c6b01 	.word	0x16b2c0b
801042b0:	00004a29 	slti	t2,t2,0
801042b4:	00284001 	.word	0x1402800
801042b8:	40290a00 	sll	a1,t2,0x5
801042bc:	0a284a01 	.word	0x14a280a
801042c0:	00002925 	addiu	t1,t1,0
801042c4:	00242001 	.word	0x1202400
801042c8:	20250900 	.word	0x92520
801042cc:	09242901 	.word	0x1292409
801042d0:	00000821 	addi	t0,t0,0
801042d4:	00200001 	.word	0x1002000
801042d8:	00210800 	sll	a0,t0,0x4
801042dc:	08200801 	.word	0x1082008
801042e0:	0000e71c 	.word	0x1ce70000
801042e4:	001ce000 	.word	0xe01c00
801042e8:	e01c0700 	.word	0x71ce0
801042ec:	071ce700 	.word	0xe71c07
801042f0:	0000c618 	.word	0x18c60000
801042f4:	0018c000 	.word	0xc01800
801042f8:	c0180600 	sll	v1,a2,0x3
801042fc:	0618c600 	srlv	v1,a2,a2
80104300:	0000a514 	bne	a1,a1,0x80104304
80104304:	0014a000 	.word	0xa01400
80104308:	a0140500 	.word	0x514a0
8010430c:	0514a500 	.word	0xa51405
80104310:	00008410 	beq	a0,a0,0x80104314
80104314:	00108000 	.word	0x801000
80104318:	80100400 	sll	v0,a0,0x2
8010431c:	04108400 	sllv	v0,a0,a0
80104320:	0000630c 	jal	0x818c0000
80104324:	000c6000 	.word	0x600c00
80104328:	600c0300 	.word	0x30c60
8010432c:	030c6300 	.word	0x630c03
80104330:	00004208 	j	0x81080000
80104334:	00084000 	.word	0x400800
80104338:	40080200 	sll	at,v0,0x1
8010433c:	02084200 	.word	0x420802
80104340:	00002104 	bgez	at,0x80104344
80104344:	00042000 	.word	0x200400
80104348:	20040100 	.word	0x10420
8010434c:	01042100 	.word	0x210401
	...
80104360:	dccd1080 	lb	s0,-12836(zero)
80104364:	fccd1080 	lb	s0,-12804(zero)
80104368:	b002fd01 	.word	0x1fd02b0
8010436c:	dccd1080 	lb	s0,-12836(zero)
80104370:	fcce1080 	lb	s0,-12548(zero)
80104374:	b002fe01 	.word	0x1fe02b0
80104378:	dccd1080 	lb	s0,-12836(zero)
8010437c:	fcd01080 	lb	s0,-12036(zero)
80104380:	b002ff01 	.word	0x1ff02b0
80104384:	40911080 	lb	s0,-28352(zero)
80104388:	18911080 	lb	s0,-28392(zero)
8010438c:	fc901080 	lb	s0,-28420(zero)
80104390:	f8901080 	lb	s0,-28424(zero)
80104394:	d0901080 	lb	s0,-28464(zero)
80104398:	b0901080 	lb	s0,-28496(zero)
8010439c:	f8901080 	lb	s0,-28424(zero)
801043a0:	f8901080 	lb	s0,-28424(zero)
801043a4:	f8901080 	lb	s0,-28424(zero)
801043a8:	f8901080 	lb	s0,-28424(zero)
801043ac:	8c901080 	lb	s0,-28532(zero)
801043b0:	68901080 	lb	s0,-28568(zero)
801043b4:	f8901080 	lb	s0,-28424(zero)
801043b8:	f8901080 	lb	s0,-28424(zero)
801043bc:	f8901080 	lb	s0,-28424(zero)
801043c0:	f8901080 	lb	s0,-28424(zero)
801043c4:	54901080 	lb	s0,-28588(zero)
801043c8:	f8901080 	lb	s0,-28424(zero)
801043cc:	44901080 	lb	s0,-28604(zero)
801043d0:	f8901080 	lb	s0,-28424(zero)
801043d4:	f8901080 	lb	s0,-28424(zero)
801043d8:	f8901080 	lb	s0,-28424(zero)
801043dc:	1c901080 	lb	s0,-28644(zero)
801043e0:	00901080 	lb	s0,-28672(zero)
801043e4:	f8901080 	lb	s0,-28424(zero)
801043e8:	f8901080 	lb	s0,-28424(zero)
801043ec:	f48f1080 	lb	s0,-28684(zero)
	...
80104400:	a8d31080 	lb	s0,-11352(zero)
80104404:	d4d31080 	lb	s0,-11308(zero)
80104408:	28d41080 	lb	s0,-11224(zero)
8010440c:	00000000 	nop
80104410:	00000420 	addi	a0,zero,0
80104414:	01000000 	.word	0x1
80104418:	00000420 	addi	a0,zero,0
8010441c:	02000000 	srl	zero,zero,0x0
80104420:	00000420 	addi	a0,zero,0
80104424:	03000000 	sra	zero,zero,0x0
80104428:	00000420 	addi	a0,zero,0
8010442c:	04000000 	sllv	zero,zero,zero
80104430:	000004e0 	swc0	c0_context,0(zero)
80104434:	a8d31080 	lb	s0,-11352(zero)
80104438:	05000000 	.word	0x5
8010443c:	00000100 	sll	zero,at,0x0
80104440:	06000000 	srlv	zero,zero,zero
80104444:	01000100 	.word	0x10001
80104448:	07000000 	srav	zero,zero,zero
8010444c:	00000100 	sll	zero,at,0x0
80104450:	08000000 	jr	zero
80104454:	00000100 	sll	zero,at,0x0
80104458:	09000000 	jalr	zero,zero
8010445c:	00000100 	sll	zero,at,0x0
80104460:	0a000000 	.word	0xa
80104464:	00000100 	sll	zero,at,0x0
80104468:	0b000000 	.word	0xb
8010446c:	00000100 	sll	zero,at,0x0
80104470:	0c000000 	syscall
80104474:	00000100 	sll	zero,at,0x0
80104478:	0d000000 	break
8010447c:	00000100 	sll	zero,at,0x0
80104480:	0e000000 	.word	0xe
80104484:	000001c0 	lwc0	c0_random,0(zero)
80104488:	d4d31080 	lb	s0,-11308(zero)
8010448c:	0f000000 	.word	0xf
80104490:	00000320 	addi	v1,zero,0
80104494:	10000000 	mfhi	zero
80104498:	00000320 	addi	v1,zero,0
8010449c:	11000000 	mthi	zero
801044a0:	00000320 	addi	v1,zero,0
801044a4:	12000000 	mflo	zero
801044a8:	00000320 	addi	v1,zero,0
801044ac:	13000000 	mtlo	zero
801044b0:	00000320 	addi	v1,zero,0
801044b4:	14000000 	.word	0x14
801044b8:	00000320 	addi	v1,zero,0
801044bc:	15000000 	.word	0x15
801044c0:	00000320 	addi	v1,zero,0
801044c4:	16000000 	.word	0x16
801044c8:	00000320 	addi	v1,zero,0
801044cc:	17000000 	.word	0x17
801044d0:	00000320 	addi	v1,zero,0
801044d4:	18000000 	mult	zero,zero
801044d8:	00000320 	addi	v1,zero,0
801044dc:	19000000 	multu	zero,zero
801044e0:	00000320 	addi	v1,zero,0
801044e4:	1a000000 	div	zero,zero,zero
801044e8:	00000320 	addi	v1,zero,0
801044ec:	1b000000 	divu	zero,zero,zero
801044f0:	00000380 	lb	v1,0(zero)
801044f4:	94d41080 	lb	s0,-11116(zero)
801044f8:	00000080 	lb	zero,0(zero)
