
rom/extracted/BIN/START.BIN:     file format binary


Disassembly of section .data:

80100000 <.data>:
80100000:	06000000 	srlv	zero,zero,zero
80100004:	5c43445c 	.word	0x5c44435c
80100008:	53574441 	.word	0x41445753
8010000c:	54412e42 	c0	0x2e4154
80100010:	494e3b31 	andi	k1,t1,0x4e49
80100014:	00000000 	nop
80100018:	5c43445c 	.word	0x5c44435c
8010001c:	544f4d42 	c0	0x4d4f54
80100020:	41322e53 	.word	0x532e3241
80100024:	4e443b31 	andi	k1,t1,0x444e
80100028:	00000000 	nop
8010002c:	5c43445c 	.word	0x5c44435c
80100030:	544f4d42 	c0	0x4d4f54
80100034:	41322e44 	.word	0x442e3241
80100038:	41543b31 	andi	k1,t1,0x5441
8010003c:	00000000 	nop
80100040:	5c43445c 	.word	0x5c44435c
80100044:	544f4d42 	c0	0x4d4f54
80100048:	41322e49 	.word	0x492e3241
8010004c:	4d473b31 	andi	k1,t1,0x474d
80100050:	00000000 	nop
80100054:	5c43445c 	.word	0x5c44435c
80100058:	544f4d42 	c0	0x4d4f54
8010005c:	41322e49 	.word	0x492e3241
80100060:	44583b31 	andi	k1,t1,0x5844
80100064:	00000000 	nop
80100068:	5c42494e 	c3	0x49425c
8010006c:	5c41304c 	.word	0x4c30415c
80100070:	2e42494e 	c3	0x49422e
80100074:	3b310000 	.word	0x313b
80100078:	5c42494e 	c3	0x49425c
8010007c:	5c41304b 	c2	0x130415c
80100080:	2e42494e 	c3	0x49422e
80100084:	3b310000 	.word	0x313b
80100088:	5c42494e 	c3	0x49425c
8010008c:	5c41304a 	c2	0x30415c
80100090:	2e42494e 	c3	0x49422e
80100094:	3b310000 	.word	0x313b
80100098:	5c42494e 	c3	0x49425c
8010009c:	5c413049 	.word	0x4930415c
801000a0:	2e42494e 	c3	0x49422e
801000a4:	3b310000 	.word	0x313b
801000a8:	5c42494e 	c3	0x49425c
801000ac:	5c413048 	.word	0x4830415c
801000b0:	2e42494e 	c3	0x49422e
801000b4:	3b310000 	.word	0x313b
801000b8:	5c42494e 	c3	0x49425c
801000bc:	5c413047 	c1	0x130415c
801000c0:	2e42494e 	c3	0x49422e
801000c4:	3b310000 	.word	0x313b
801000c8:	5c42494e 	c3	0x49425c
801000cc:	5c413046 	c1	0x30415c
801000d0:	2e42494e 	c3	0x49422e
801000d4:	3b310000 	.word	0x313b
801000d8:	5c42494e 	c3	0x49425c
801000dc:	5c413045 	.word	0x4530415c
801000e0:	2e42494e 	c3	0x49422e
801000e4:	3b310000 	.word	0x313b
801000e8:	5c42494e 	c3	0x49425c
801000ec:	5c413044 	.word	0x4430415c
801000f0:	2e42494e 	c3	0x49422e
801000f4:	3b310000 	.word	0x313b
801000f8:	5c42494e 	c3	0x49425c
801000fc:	5c413043 	c0	0x130415c
80100100:	2e42494e 	c3	0x49422e
80100104:	3b310000 	.word	0x313b
80100108:	5c42494e 	c3	0x49425c
8010010c:	5c413042 	c0	0x30415c
80100110:	2e42494e 	c3	0x49422e
80100114:	3b310000 	.word	0x313b
80100118:	5c42494e 	c3	0x49425c
8010011c:	5c413041 	.word	0x4130415c
80100120:	2e42494e 	c3	0x49422e
80100124:	3b310000 	.word	0x313b
80100128:	5c42494e 	c3	0x49425c
8010012c:	5c413039 	xori	s0,t1,0x415c
80100130:	2e42494e 	c3	0x49422e
80100134:	3b310000 	.word	0x313b
80100138:	5c42494e 	c3	0x49425c
8010013c:	5c413038 	xori	s0,at,0x415c
80100140:	2e42494e 	c3	0x49422e
80100144:	3b310000 	.word	0x313b
80100148:	5c42494e 	c3	0x49425c
8010014c:	5c413037 	ori	s0,t9,0x415c
80100150:	2e42494e 	c3	0x49422e
80100154:	3b310000 	.word	0x313b
80100158:	5c42494e 	c3	0x49425c
8010015c:	5c413036 	ori	s0,s1,0x415c
80100160:	2e42494e 	c3	0x49422e
80100164:	3b310000 	.word	0x313b
80100168:	5c42494e 	c3	0x49425c
8010016c:	5c413035 	ori	s0,t1,0x415c
80100170:	2e42494e 	c3	0x49422e
80100174:	3b310000 	.word	0x313b
80100178:	5c42494e 	c3	0x49425c
8010017c:	5c413034 	ori	s0,at,0x415c
80100180:	2e42494e 	c3	0x49422e
80100184:	3b310000 	.word	0x313b
80100188:	5c42494e 	c3	0x49425c
8010018c:	5c413033 	andi	s0,t9,0x415c
80100190:	2e42494e 	c3	0x49422e
80100194:	3b310000 	.word	0x313b
80100198:	5c42494e 	c3	0x49425c
8010019c:	5c413032 	andi	s0,s1,0x415c
801001a0:	2e42494e 	c3	0x49422e
801001a4:	3b310000 	.word	0x313b
801001a8:	5c42494e 	c3	0x49425c
801001ac:	5c413031 	andi	s0,t1,0x415c
801001b0:	2e42494e 	c3	0x49422e
801001b4:	3b310000 	.word	0x313b
801001b8:	5c42494e 	c3	0x49425c
801001bc:	5c413030 	andi	s0,at,0x415c
801001c0:	2e42494e 	c3	0x49422e
801001c4:	3b310000 	.word	0x313b
801001c8:	5c42494e 	c3	0x49425c
801001cc:	5c534f50 	.word	0x504f535c
801001d0:	2e42494e 	c3	0x49422e
801001d4:	3b310000 	.word	0x313b
801001d8:	5c42494e 	c3	0x49425c
801001dc:	5c435244 	.word	0x4452435c
801001e0:	2e42494e 	c3	0x49422e
801001e4:	3b310000 	.word	0x313b
801001e8:	5c42494e 	c3	0x49425c
801001ec:	5c4f504e 	c3	0x504f5c
801001f0:	2e42494e 	c3	0x49422e
801001f4:	3b310000 	.word	0x313b
801001f8:	5c42494e 	c3	0x49425c
801001fc:	5c47414d 	.word	0x4d41475c
80100200:	452e4249 	.word	0x49422e45
80100204:	4e3b3100 	.word	0x313b4e
80100208:	5c42494e 	c3	0x49425c
8010020c:	5c44454d 	.word	0x4d45445c
80100210:	4f2e4249 	.word	0x49422e4f
80100214:	4e3b3100 	.word	0x313b4e
80100218:	5c42494e 	c3	0x49425c
8010021c:	5c535441 	.word	0x4154535c
80100220:	52542e42 	c0	0x2e5452
80100224:	494e3b31 	andi	k1,t1,0x4e49
80100228:	00000000 	nop
8010022c:	4e6f7420 	addi	s4,v1,28494
80100230:	666f756e 	.word	0x6e756f66
80100234:	64206669 	.word	0x69662064
80100238:	6c65206e 	.word	0x6e20656c
8010023c:	616d6520 	addi	a1,v1,28001
80100240:	25730a00 	.word	0xa7325
80100244:	5c43445c 	.word	0x5c44435c
80100248:	564f4943 	c0	0x1494f56
8010024c:	452e5841 	.word	0x41582e45
80100250:	3b310000 	.word	0x313b
80100254:	5c43445c 	.word	0x5c44435c
80100258:	44454d4f 	c3	0x14d4544
8010025c:	2e58413b 	xori	at,k0,0x582e
80100260:	31000000 	.word	0x31
80100264:	5c43445c 	.word	0x5c44435c
80100268:	42474d2e 	sltiu	t5,s2,18242
8010026c:	58413b31 	andi	k1,t1,0x4158
80100270:	001fef36 	ori	t7,s7,0x1f00
80100274:	38febd27 	addiu	sp,sp,-456
80100278:	9001a427 	addiu	a0,sp,400
8010027c:	1080053c 	lui	a1,0x8010
80100280:	7868a524 	addiu	a1,a1,26744
80100284:	b0030224 	li	v0,944
80100288:	9001a2a7 	sh	v0,400(sp)
8010028c:	00010224 	li	v0,256
80100290:	c401bfaf 	sw	ra,452(sp)
80100294:	c001b4af 	sw	s4,448(sp)
80100298:	bc01b3af 	sw	s3,444(sp)
8010029c:	b801b2af 	sw	s2,440(sp)
801002a0:	b401b1af 	sw	s1,436(sp)
801002a4:	b001b0af 	sw	s0,432(sp)
801002a8:	020082a4 	sh	v0,2(a0)
801002ac:	10000224 	li	v0,16
801002b0:	040082a4 	sh	v0,4(a0)
801002b4:	01000224 	li	v0,1
801002b8:	8604020c 	jal	0x80081218
801002bc:	060082a4 	sh	v0,6(a0)
801002c0:	db03020c 	jal	0x80080f6c
801002c4:	21200000 	move	a0,zero
801002c8:	21980000 	move	s3,zero
801002cc:	0c80023c 	lui	v0,0x800c
801002d0:	18e15224 	addiu	s2,v0,-7912
801002d4:	1080023c 	lui	v0,0x8010
801002d8:	08685124 	addiu	s1,v0,26632
801002dc:	21a06002 	move	s4,s3
801002e0:	0000258e 	lw	a1,0(s1)
801002e4:	1000a227 	addiu	v0,sp,16
801002e8:	21805400 	addu	s0,v0,s4
801002ec:	3c2e020c 	jal	0x8008b8f0
801002f0:	21200002 	move	a0,s0
801002f4:	06004014 	bnez	v0,0x80100310
801002f8:	1080043c 	lui	a0,0x8010
801002fc:	0000258e 	lw	a1,0(s1)
80100300:	cc69020c 	jal	0x8009a730
80100304:	54648424 	addiu	a0,a0,25684
80100308:	55190408 	j	0x80106554
8010030c:	08005226 	addiu	s2,s2,8
80100310:	4428020c 	jal	0x8008a110
80100314:	21200002 	move	a0,s0
80100318:	000042ae 	sw	v0,0(s2)
8010031c:	0400028e 	lw	v0,4(s0)
80100320:	00000000 	nop
80100324:	040042ae 	sw	v0,4(s2)
80100328:	08005226 	addiu	s2,s2,8
8010032c:	04003126 	addiu	s1,s1,4
80100330:	01007326 	addiu	s3,s3,1
80100334:	1900622a 	slti	v0,s3,25
80100338:	e9ff4014 	bnez	v0,0x801002e0
8010033c:	18009426 	addiu	s4,s4,24
80100340:	21980000 	move	s3,zero
80100344:	0c80023c 	lui	v0,0x800c
80100348:	e0e15224 	addiu	s2,v0,-7712
8010034c:	1080023c 	lui	v0,0x8010
80100350:	6c685124 	addiu	s1,v0,26732
80100354:	21a06002 	move	s4,s3
80100358:	0000258e 	lw	a1,0(s1)
8010035c:	1000a227 	addiu	v0,sp,16
80100360:	21805400 	addu	s0,v0,s4
80100364:	3c2e020c 	jal	0x8008b8f0
80100368:	21200002 	move	a0,s0
8010036c:	06004014 	bnez	v0,0x80100388
80100370:	1080043c 	lui	a0,0x8010
80100374:	0000258e 	lw	a1,0(s1)
80100378:	cc69020c 	jal	0x8009a730
8010037c:	54648424 	addiu	a0,a0,25684
80100380:	73190408 	j	0x801065cc
80100384:	08005226 	addiu	s2,s2,8
80100388:	4428020c 	jal	0x8008a110
8010038c:	21200002 	move	a0,s0
80100390:	000042ae 	sw	v0,0(s2)
80100394:	0400028e 	lw	v0,4(s0)
80100398:	00000000 	nop
8010039c:	040042ae 	sw	v0,4(s2)
801003a0:	08005226 	addiu	s2,s2,8
801003a4:	04003126 	addiu	s1,s1,4
801003a8:	01007326 	addiu	s3,s3,1
801003ac:	0300622a 	slti	v0,s3,3
801003b0:	e9ff4014 	bnez	v0,0x80100358
801003b4:	18009426 	addiu	s4,s4,24
801003b8:	21980000 	move	s3,zero
801003bc:	0c80023c 	lui	v0,0x800c
801003c0:	f0e05224 	addiu	s2,v0,-7952
801003c4:	1080023c 	lui	v0,0x8010
801003c8:	f4675124 	addiu	s1,v0,26612
801003cc:	21a06002 	move	s4,s3
801003d0:	0000258e 	lw	a1,0(s1)
801003d4:	1000a227 	addiu	v0,sp,16
801003d8:	21805400 	addu	s0,v0,s4
801003dc:	3c2e020c 	jal	0x8008b8f0
801003e0:	21200002 	move	a0,s0
801003e4:	06004014 	bnez	v0,0x80100400
801003e8:	1080043c 	lui	a0,0x8010
801003ec:	0000258e 	lw	a1,0(s1)
801003f0:	cc69020c 	jal	0x8009a730
801003f4:	54648424 	addiu	a0,a0,25684
801003f8:	91190408 	j	0x80106644
801003fc:	08005226 	addiu	s2,s2,8
80100400:	4428020c 	jal	0x8008a110
80100404:	21200002 	move	a0,s0
80100408:	000042ae 	sw	v0,0(s2)
8010040c:	0400028e 	lw	v0,4(s0)
80100410:	00000000 	nop
80100414:	040042ae 	sw	v0,4(s2)
80100418:	08005226 	addiu	s2,s2,8
8010041c:	04003126 	addiu	s1,s1,4
80100420:	01007326 	addiu	s3,s3,1
80100424:	0500622a 	slti	v0,s3,5
80100428:	e9ff4014 	bnez	v0,0x801003d0
8010042c:	18009426 	addiu	s4,s4,24
80100430:	9801b027 	addiu	s0,sp,408
80100434:	21200002 	move	a0,s0
80100438:	1080023c 	lui	v0,0x8010
8010043c:	6c645124 	addiu	s1,v0,25708
80100440:	3c2e020c 	jal	0x8008b8f0
80100444:	21282002 	move	a1,s1
80100448:	06004014 	bnez	v0,0x80100464
8010044c:	1080043c 	lui	a0,0x8010
80100450:	54648424 	addiu	a0,a0,25684
80100454:	cc69020c 	jal	0x8009a730
80100458:	21282002 	move	a1,s1
8010045c:	a8190408 	j	0x801066a0
80100460:	9801b027 	addiu	s0,sp,408
80100464:	4428020c 	jal	0x8008a110
80100468:	21200002 	move	a0,s0
8010046c:	801f033c 	lui	v1,0x1f80
80100470:	1c0262ac 	sw	v0,540(v1)
80100474:	9801b027 	addiu	s0,sp,408
80100478:	21200002 	move	a0,s0
8010047c:	1080023c 	lui	v0,0x8010
80100480:	7c645124 	addiu	s1,v0,25724
80100484:	3c2e020c 	jal	0x8008b8f0
80100488:	21282002 	move	a1,s1
8010048c:	06004014 	bnez	v0,0x801004a8
80100490:	1080043c 	lui	a0,0x8010
80100494:	54648424 	addiu	a0,a0,25684
80100498:	cc69020c 	jal	0x8009a730
8010049c:	21282002 	move	a1,s1
801004a0:	b9190408 	j	0x801066e4
801004a4:	9801b027 	addiu	s0,sp,408
801004a8:	4428020c 	jal	0x8008a110
801004ac:	21200002 	move	a0,s0
801004b0:	801f033c 	lui	v1,0x1f80
801004b4:	200262ac 	sw	v0,544(v1)
801004b8:	9801b027 	addiu	s0,sp,408
801004bc:	21200002 	move	a0,s0
801004c0:	1080023c 	lui	v0,0x8010
801004c4:	8c645124 	addiu	s1,v0,25740
801004c8:	3c2e020c 	jal	0x8008b8f0
801004cc:	21282002 	move	a1,s1
801004d0:	06004014 	bnez	v0,0x801004ec
801004d4:	1080043c 	lui	a0,0x8010
801004d8:	54648424 	addiu	a0,a0,25684
801004dc:	cc69020c 	jal	0x8009a730
801004e0:	21282002 	move	a1,s1
801004e4:	ca190408 	j	0x80106728
801004e8:	01001224 	li	s2,1
801004ec:	4428020c 	jal	0x8008a110
801004f0:	21200002 	move	a0,s0
801004f4:	801f033c 	lui	v1,0x1f80
801004f8:	240262ac 	sw	v0,548(v1)
801004fc:	01001224 	li	s2,1
80100500:	02001124 	li	s1,2
80100504:	801f023c 	lui	v0,0x1f80
80100508:	3801428c 	lw	v0,312(v0)
8010050c:	03001024 	li	s0,3
80100510:	480040a4 	sh	zero,72(v0)
80100514:	4a0040a4 	sh	zero,74(v0)
80100518:	801f023c 	lui	v0,0x1f80
8010051c:	3801488c 	lw	t0,312(v0)
80100520:	00000000 	nop
80100524:	48000395 	lhu	v1,72(t0)
80100528:	00000000 	nop
8010052c:	16007210 	beq	v1,s2,0x80100588
80100530:	02006228 	slti	v0,v1,2
80100534:	05004010 	beqz	v0,0x8010054c
80100538:	00000000 	nop
8010053c:	09006010 	beqz	v1,0x80100564
80100540:	0480043c 	lui	a0,0x8004
80100544:	f9190408 	j	0x801067e4
80100548:	00000000 	nop
8010054c:	17007110 	beq	v1,s1,0x801005ac
80100550:	00000000 	nop
80100554:	17007010 	beq	v1,s0,0x801005b4
80100558:	00000000 	nop
8010055c:	f9190408 	j	0x801067e4
80100560:	00000000 	nop
80100564:	584f8424 	addiu	a0,a0,20312
80100568:	21280000 	move	a1,zero
8010056c:	2130a000 	move	a2,a1
80100570:	2138a000 	move	a3,a1
80100574:	480012a5 	sh	s2,72(t0)
80100578:	f512010c 	jal	0x80044bd4
8010057c:	4a0000a5 	sh	zero,74(t0)
80100580:	f9190408 	j	0x801067e4
80100584:	00000000 	nop
80100588:	480011a5 	sh	s1,72(t0)
8010058c:	0480043c 	lui	a0,0x8004
80100590:	4c518424 	addiu	a0,a0,20812
80100594:	01000524 	li	a1,1
80100598:	2130a000 	move	a2,a1
8010059c:	f512010c 	jal	0x80044bd4
801005a0:	21380000 	move	a3,zero
801005a4:	f9190408 	j	0x801067e4
801005a8:	00000000 	nop
801005ac:	f9190408 	j	0x801067e4
801005b0:	480010a5 	sh	s0,72(t0)
801005b4:	1e48010c 	jal	0x80052078
801005b8:	01000424 	li	a0,1
801005bc:	e047010c 	jal	0x80051f80
801005c0:	01000424 	li	a0,1
801005c4:	d1190408 	j	0x80106744
801005c8:	801f023c 	lui	v0,0x1f80
801005cc:	7c621080 	lb	s0,25212(zero)
801005d0:	68621080 	lb	s0,25192(zero)
801005d4:	54621080 	lb	s0,25172(zero)
801005d8:	40621080 	lb	s0,25152(zero)
801005dc:	2c621080 	lb	s0,25132(zero)
801005e0:	10641080 	lb	s0,25616(zero)
801005e4:	00641080 	lb	s0,25600(zero)
801005e8:	f0631080 	lb	s0,25584(zero)
801005ec:	e0631080 	lb	s0,25568(zero)
801005f0:	d0631080 	lb	s0,25552(zero)
801005f4:	c0631080 	lb	s0,25536(zero)
801005f8:	b0631080 	lb	s0,25520(zero)
801005fc:	a0631080 	lb	s0,25504(zero)
80100600:	90631080 	lb	s0,25488(zero)
80100604:	80631080 	lb	s0,25472(zero)
80100608:	70631080 	lb	s0,25456(zero)
8010060c:	60631080 	lb	s0,25440(zero)
80100610:	50631080 	lb	s0,25424(zero)
80100614:	40631080 	lb	s0,25408(zero)
80100618:	30631080 	lb	s0,25392(zero)
8010061c:	20631080 	lb	s0,25376(zero)
80100620:	10631080 	lb	s0,25360(zero)
80100624:	00631080 	lb	s0,25344(zero)
80100628:	f0621080 	lb	s0,25328(zero)
8010062c:	e0621080 	lb	s0,25312(zero)
80100630:	d0621080 	lb	s0,25296(zero)
80100634:	c0621080 	lb	s0,25280(zero)
80100638:	b0621080 	lb	s0,25264(zero)
8010063c:	a0621080 	lb	s0,25248(zero)
80100640:	90621080 	lb	s0,25232(zero)
80100644:	40641080 	lb	s0,25664(zero)
80100648:	30641080 	lb	s0,25648(zero)
8010064c:	20641080 	lb	s0,25632(zero)
80100650:	0000ff7b 	.word	0x7bff0000
80100654:	df77de6f 	.word	0x6fde77df
80100658:	de6bde67 	.word	0x67de6bde
8010065c:	de63de5f 	.word	0x5fde63de
80100660:	de5bbe57 	.word	0x57be5bde
80100664:	be53be4f 	c3	0x1be53be
80100668:	be4bbe47 	c1	0x1be4bbe
8010066c:	be43be3f 	.word	0x3fbe43be
